; Listing generated by Microsoft (R) Optimizing Compiler Version 16.00.40219.01 

	TITLE	C:\Users\Teaja\Documents\Artificial-Fun\LabRavenProjectTest\Raven\AbstSteeringBehaviors.cpp
	.686P
	.XMM
	include listing.inc
	.model	flat

INCLUDELIB LIBCMTD
INCLUDELIB OLDNAMES

PUBLIC	?has_denorm@_Num_base@std@@2W4float_denorm_style@2@B ; std::_Num_base::has_denorm
PUBLIC	?has_denorm_loss@_Num_base@std@@2_NB		; std::_Num_base::has_denorm_loss
PUBLIC	?has_infinity@_Num_base@std@@2_NB		; std::_Num_base::has_infinity
PUBLIC	?has_quiet_NaN@_Num_base@std@@2_NB		; std::_Num_base::has_quiet_NaN
PUBLIC	?has_signaling_NaN@_Num_base@std@@2_NB		; std::_Num_base::has_signaling_NaN
PUBLIC	?is_bounded@_Num_base@std@@2_NB			; std::_Num_base::is_bounded
PUBLIC	?is_exact@_Num_base@std@@2_NB			; std::_Num_base::is_exact
PUBLIC	?is_iec559@_Num_base@std@@2_NB			; std::_Num_base::is_iec559
PUBLIC	?is_integer@_Num_base@std@@2_NB			; std::_Num_base::is_integer
PUBLIC	?is_modulo@_Num_base@std@@2_NB			; std::_Num_base::is_modulo
PUBLIC	?is_signed@_Num_base@std@@2_NB			; std::_Num_base::is_signed
PUBLIC	?is_specialized@_Num_base@std@@2_NB		; std::_Num_base::is_specialized
PUBLIC	?tinyness_before@_Num_base@std@@2_NB		; std::_Num_base::tinyness_before
PUBLIC	?traps@_Num_base@std@@2_NB			; std::_Num_base::traps
PUBLIC	?round_style@_Num_base@std@@2W4float_round_style@2@B ; std::_Num_base::round_style
PUBLIC	?digits@_Num_base@std@@2HB			; std::_Num_base::digits
PUBLIC	?digits10@_Num_base@std@@2HB			; std::_Num_base::digits10
PUBLIC	?max_digits10@_Num_base@std@@2HB		; std::_Num_base::max_digits10
PUBLIC	?max_exponent@_Num_base@std@@2HB		; std::_Num_base::max_exponent
PUBLIC	?max_exponent10@_Num_base@std@@2HB		; std::_Num_base::max_exponent10
PUBLIC	?min_exponent@_Num_base@std@@2HB		; std::_Num_base::min_exponent
PUBLIC	?min_exponent10@_Num_base@std@@2HB		; std::_Num_base::min_exponent10
PUBLIC	?radix@_Num_base@std@@2HB			; std::_Num_base::radix
PUBLIC	?is_bounded@_Num_int_base@std@@2_NB		; std::_Num_int_base::is_bounded
PUBLIC	?is_exact@_Num_int_base@std@@2_NB		; std::_Num_int_base::is_exact
PUBLIC	?is_integer@_Num_int_base@std@@2_NB		; std::_Num_int_base::is_integer
PUBLIC	?is_modulo@_Num_int_base@std@@2_NB		; std::_Num_int_base::is_modulo
PUBLIC	?is_specialized@_Num_int_base@std@@2_NB		; std::_Num_int_base::is_specialized
PUBLIC	?radix@_Num_int_base@std@@2HB			; std::_Num_int_base::radix
PUBLIC	?has_denorm@_Num_float_base@std@@2W4float_denorm_style@2@B ; std::_Num_float_base::has_denorm
PUBLIC	?has_denorm_loss@_Num_float_base@std@@2_NB	; std::_Num_float_base::has_denorm_loss
PUBLIC	?has_infinity@_Num_float_base@std@@2_NB		; std::_Num_float_base::has_infinity
PUBLIC	?has_quiet_NaN@_Num_float_base@std@@2_NB	; std::_Num_float_base::has_quiet_NaN
PUBLIC	?has_signaling_NaN@_Num_float_base@std@@2_NB	; std::_Num_float_base::has_signaling_NaN
PUBLIC	?is_bounded@_Num_float_base@std@@2_NB		; std::_Num_float_base::is_bounded
PUBLIC	?is_exact@_Num_float_base@std@@2_NB		; std::_Num_float_base::is_exact
PUBLIC	?is_iec559@_Num_float_base@std@@2_NB		; std::_Num_float_base::is_iec559
PUBLIC	?is_integer@_Num_float_base@std@@2_NB		; std::_Num_float_base::is_integer
PUBLIC	?is_modulo@_Num_float_base@std@@2_NB		; std::_Num_float_base::is_modulo
PUBLIC	?is_signed@_Num_float_base@std@@2_NB		; std::_Num_float_base::is_signed
PUBLIC	?is_specialized@_Num_float_base@std@@2_NB	; std::_Num_float_base::is_specialized
PUBLIC	?tinyness_before@_Num_float_base@std@@2_NB	; std::_Num_float_base::tinyness_before
PUBLIC	?traps@_Num_float_base@std@@2_NB		; std::_Num_float_base::traps
PUBLIC	?round_style@_Num_float_base@std@@2W4float_round_style@2@B ; std::_Num_float_base::round_style
PUBLIC	?radix@_Num_float_base@std@@2HB			; std::_Num_float_base::radix
PUBLIC	?is_signed@?$numeric_limits@D@std@@2_NB		; std::numeric_limits<char>::is_signed
PUBLIC	?digits@?$numeric_limits@D@std@@2HB		; std::numeric_limits<char>::digits
PUBLIC	?digits10@?$numeric_limits@D@std@@2HB		; std::numeric_limits<char>::digits10
PUBLIC	?max_digits10@?$numeric_limits@D@std@@2HB	; std::numeric_limits<char>::max_digits10
PUBLIC	?is_signed@?$numeric_limits@_W@std@@2_NB	; std::numeric_limits<wchar_t>::is_signed
PUBLIC	?digits@?$numeric_limits@_W@std@@2HB		; std::numeric_limits<wchar_t>::digits
PUBLIC	?digits10@?$numeric_limits@_W@std@@2HB		; std::numeric_limits<wchar_t>::digits10
PUBLIC	?max_digits10@?$numeric_limits@_W@std@@2HB	; std::numeric_limits<wchar_t>::max_digits10
PUBLIC	?is_modulo@?$numeric_limits@_N@std@@2_NB	; std::numeric_limits<bool>::is_modulo
PUBLIC	?is_signed@?$numeric_limits@_N@std@@2_NB	; std::numeric_limits<bool>::is_signed
PUBLIC	?digits@?$numeric_limits@_N@std@@2HB		; std::numeric_limits<bool>::digits
PUBLIC	?digits10@?$numeric_limits@_N@std@@2HB		; std::numeric_limits<bool>::digits10
PUBLIC	?max_digits10@?$numeric_limits@_N@std@@2HB	; std::numeric_limits<bool>::max_digits10
PUBLIC	?is_signed@?$numeric_limits@C@std@@2_NB		; std::numeric_limits<signed char>::is_signed
PUBLIC	?digits@?$numeric_limits@C@std@@2HB		; std::numeric_limits<signed char>::digits
PUBLIC	?digits10@?$numeric_limits@C@std@@2HB		; std::numeric_limits<signed char>::digits10
PUBLIC	?max_digits10@?$numeric_limits@C@std@@2HB	; std::numeric_limits<signed char>::max_digits10
PUBLIC	?is_signed@?$numeric_limits@E@std@@2_NB		; std::numeric_limits<unsigned char>::is_signed
PUBLIC	?digits@?$numeric_limits@E@std@@2HB		; std::numeric_limits<unsigned char>::digits
PUBLIC	?digits10@?$numeric_limits@E@std@@2HB		; std::numeric_limits<unsigned char>::digits10
PUBLIC	?max_digits10@?$numeric_limits@E@std@@2HB	; std::numeric_limits<unsigned char>::max_digits10
PUBLIC	?is_signed@?$numeric_limits@F@std@@2_NB		; std::numeric_limits<short>::is_signed
PUBLIC	?digits@?$numeric_limits@F@std@@2HB		; std::numeric_limits<short>::digits
PUBLIC	?digits10@?$numeric_limits@F@std@@2HB		; std::numeric_limits<short>::digits10
PUBLIC	?max_digits10@?$numeric_limits@F@std@@2HB	; std::numeric_limits<short>::max_digits10
PUBLIC	?is_signed@?$numeric_limits@G@std@@2_NB		; std::numeric_limits<unsigned short>::is_signed
PUBLIC	?digits@?$numeric_limits@G@std@@2HB		; std::numeric_limits<unsigned short>::digits
PUBLIC	?digits10@?$numeric_limits@G@std@@2HB		; std::numeric_limits<unsigned short>::digits10
PUBLIC	?max_digits10@?$numeric_limits@G@std@@2HB	; std::numeric_limits<unsigned short>::max_digits10
PUBLIC	?is_signed@?$numeric_limits@H@std@@2_NB		; std::numeric_limits<int>::is_signed
PUBLIC	?digits@?$numeric_limits@H@std@@2HB		; std::numeric_limits<int>::digits
PUBLIC	?digits10@?$numeric_limits@H@std@@2HB		; std::numeric_limits<int>::digits10
PUBLIC	?max_digits10@?$numeric_limits@H@std@@2HB	; std::numeric_limits<int>::max_digits10
PUBLIC	?is_signed@?$numeric_limits@I@std@@2_NB		; std::numeric_limits<unsigned int>::is_signed
PUBLIC	?digits@?$numeric_limits@I@std@@2HB		; std::numeric_limits<unsigned int>::digits
PUBLIC	?digits10@?$numeric_limits@I@std@@2HB		; std::numeric_limits<unsigned int>::digits10
PUBLIC	?max_digits10@?$numeric_limits@I@std@@2HB	; std::numeric_limits<unsigned int>::max_digits10
PUBLIC	?is_signed@?$numeric_limits@J@std@@2_NB		; std::numeric_limits<long>::is_signed
PUBLIC	?digits@?$numeric_limits@J@std@@2HB		; std::numeric_limits<long>::digits
PUBLIC	?digits10@?$numeric_limits@J@std@@2HB		; std::numeric_limits<long>::digits10
PUBLIC	?max_digits10@?$numeric_limits@J@std@@2HB	; std::numeric_limits<long>::max_digits10
PUBLIC	?is_signed@?$numeric_limits@K@std@@2_NB		; std::numeric_limits<unsigned long>::is_signed
PUBLIC	?digits@?$numeric_limits@K@std@@2HB		; std::numeric_limits<unsigned long>::digits
PUBLIC	?digits10@?$numeric_limits@K@std@@2HB		; std::numeric_limits<unsigned long>::digits10
PUBLIC	?max_digits10@?$numeric_limits@K@std@@2HB	; std::numeric_limits<unsigned long>::max_digits10
PUBLIC	?is_signed@?$numeric_limits@_J@std@@2_NB	; std::numeric_limits<__int64>::is_signed
PUBLIC	?digits@?$numeric_limits@_J@std@@2HB		; std::numeric_limits<__int64>::digits
PUBLIC	?digits10@?$numeric_limits@_J@std@@2HB		; std::numeric_limits<__int64>::digits10
PUBLIC	?max_digits10@?$numeric_limits@_J@std@@2HB	; std::numeric_limits<__int64>::max_digits10
PUBLIC	?is_signed@?$numeric_limits@_K@std@@2_NB	; std::numeric_limits<unsigned __int64>::is_signed
PUBLIC	?digits@?$numeric_limits@_K@std@@2HB		; std::numeric_limits<unsigned __int64>::digits
PUBLIC	?digits10@?$numeric_limits@_K@std@@2HB		; std::numeric_limits<unsigned __int64>::digits10
PUBLIC	?max_digits10@?$numeric_limits@_K@std@@2HB	; std::numeric_limits<unsigned __int64>::max_digits10
PUBLIC	?digits@?$numeric_limits@M@std@@2HB		; std::numeric_limits<float>::digits
PUBLIC	?digits10@?$numeric_limits@M@std@@2HB		; std::numeric_limits<float>::digits10
PUBLIC	?max_digits10@?$numeric_limits@M@std@@2HB	; std::numeric_limits<float>::max_digits10
PUBLIC	?max_exponent@?$numeric_limits@M@std@@2HB	; std::numeric_limits<float>::max_exponent
PUBLIC	?max_exponent10@?$numeric_limits@M@std@@2HB	; std::numeric_limits<float>::max_exponent10
PUBLIC	?min_exponent@?$numeric_limits@M@std@@2HB	; std::numeric_limits<float>::min_exponent
PUBLIC	?min_exponent10@?$numeric_limits@M@std@@2HB	; std::numeric_limits<float>::min_exponent10
PUBLIC	?digits@?$numeric_limits@N@std@@2HB		; std::numeric_limits<double>::digits
PUBLIC	?digits10@?$numeric_limits@N@std@@2HB		; std::numeric_limits<double>::digits10
PUBLIC	?max_digits10@?$numeric_limits@N@std@@2HB	; std::numeric_limits<double>::max_digits10
PUBLIC	?max_exponent@?$numeric_limits@N@std@@2HB	; std::numeric_limits<double>::max_exponent
PUBLIC	?max_exponent10@?$numeric_limits@N@std@@2HB	; std::numeric_limits<double>::max_exponent10
PUBLIC	?min_exponent@?$numeric_limits@N@std@@2HB	; std::numeric_limits<double>::min_exponent
PUBLIC	?min_exponent10@?$numeric_limits@N@std@@2HB	; std::numeric_limits<double>::min_exponent10
PUBLIC	?digits@?$numeric_limits@O@std@@2HB		; std::numeric_limits<long double>::digits
PUBLIC	?digits10@?$numeric_limits@O@std@@2HB		; std::numeric_limits<long double>::digits10
PUBLIC	?max_digits10@?$numeric_limits@O@std@@2HB	; std::numeric_limits<long double>::max_digits10
PUBLIC	?max_exponent@?$numeric_limits@O@std@@2HB	; std::numeric_limits<long double>::max_exponent
PUBLIC	?max_exponent10@?$numeric_limits@O@std@@2HB	; std::numeric_limits<long double>::max_exponent10
PUBLIC	?min_exponent@?$numeric_limits@O@std@@2HB	; std::numeric_limits<long double>::min_exponent
PUBLIC	?min_exponent10@?$numeric_limits@O@std@@2HB	; std::numeric_limits<long double>::min_exponent10
PUBLIC	?value@?$integral_constant@_N$0A@@tr1@std@@2_NB	; std::tr1::integral_constant<bool,0>::value
PUBLIC	?value@?$integral_constant@_N$00@tr1@std@@2_NB	; std::tr1::integral_constant<bool,1>::value
PUBLIC	?value@?$integral_constant@I$0A@@tr1@std@@2IB	; std::tr1::integral_constant<unsigned int,0>::value
PUBLIC	?_Rank@?$_Arithmetic_traits@_N@std@@2HB		; std::_Arithmetic_traits<bool>::_Rank
PUBLIC	?_Rank@?$_Arithmetic_traits@D@std@@2HB		; std::_Arithmetic_traits<char>::_Rank
PUBLIC	?_Rank@?$_Arithmetic_traits@C@std@@2HB		; std::_Arithmetic_traits<signed char>::_Rank
PUBLIC	?_Rank@?$_Arithmetic_traits@E@std@@2HB		; std::_Arithmetic_traits<unsigned char>::_Rank
PUBLIC	?_Rank@?$_Arithmetic_traits@F@std@@2HB		; std::_Arithmetic_traits<short>::_Rank
PUBLIC	?_Rank@?$_Arithmetic_traits@G@std@@2HB		; std::_Arithmetic_traits<unsigned short>::_Rank
PUBLIC	?_Rank@?$_Arithmetic_traits@H@std@@2HB		; std::_Arithmetic_traits<int>::_Rank
PUBLIC	?_Rank@?$_Arithmetic_traits@I@std@@2HB		; std::_Arithmetic_traits<unsigned int>::_Rank
PUBLIC	?_Rank@?$_Arithmetic_traits@J@std@@2HB		; std::_Arithmetic_traits<long>::_Rank
PUBLIC	?_Rank@?$_Arithmetic_traits@K@std@@2HB		; std::_Arithmetic_traits<unsigned long>::_Rank
PUBLIC	?_Rank@?$_Arithmetic_traits@_J@std@@2HB		; std::_Arithmetic_traits<__int64>::_Rank
PUBLIC	?_Rank@?$_Arithmetic_traits@_K@std@@2HB		; std::_Arithmetic_traits<unsigned __int64>::_Rank
PUBLIC	?_Rank@?$_Arithmetic_traits@M@std@@2HB		; std::_Arithmetic_traits<float>::_Rank
PUBLIC	?_Rank@?$_Arithmetic_traits@N@std@@2HB		; std::_Arithmetic_traits<double>::_Rank
PUBLIC	?_Rank@?$_Arithmetic_traits@O@std@@2HB		; std::_Arithmetic_traits<long double>::_Rank
PUBLIC	?collate@?$_Locbase@H@std@@2HB			; std::_Locbase<int>::collate
PUBLIC	?ctype@?$_Locbase@H@std@@2HB			; std::_Locbase<int>::ctype
PUBLIC	?monetary@?$_Locbase@H@std@@2HB			; std::_Locbase<int>::monetary
PUBLIC	?numeric@?$_Locbase@H@std@@2HB			; std::_Locbase<int>::numeric
PUBLIC	?time@?$_Locbase@H@std@@2HB			; std::_Locbase<int>::time
PUBLIC	?messages@?$_Locbase@H@std@@2HB			; std::_Locbase<int>::messages
PUBLIC	?all@?$_Locbase@H@std@@2HB			; std::_Locbase<int>::all
PUBLIC	?none@?$_Locbase@H@std@@2HB			; std::_Locbase<int>::none
PUBLIC	?table_size@?$ctype@D@std@@2IB			; std::ctype<char>::table_size
PUBLIC	?skipws@?$_Iosb@H@std@@2W4_Fmtflags@12@B	; std::_Iosb<int>::skipws
PUBLIC	?unitbuf@?$_Iosb@H@std@@2W4_Fmtflags@12@B	; std::_Iosb<int>::unitbuf
PUBLIC	?uppercase@?$_Iosb@H@std@@2W4_Fmtflags@12@B	; std::_Iosb<int>::uppercase
PUBLIC	?showbase@?$_Iosb@H@std@@2W4_Fmtflags@12@B	; std::_Iosb<int>::showbase
PUBLIC	?showpoint@?$_Iosb@H@std@@2W4_Fmtflags@12@B	; std::_Iosb<int>::showpoint
PUBLIC	?showpos@?$_Iosb@H@std@@2W4_Fmtflags@12@B	; std::_Iosb<int>::showpos
PUBLIC	?left@?$_Iosb@H@std@@2W4_Fmtflags@12@B		; std::_Iosb<int>::left
PUBLIC	?right@?$_Iosb@H@std@@2W4_Fmtflags@12@B		; std::_Iosb<int>::right
PUBLIC	?internal@?$_Iosb@H@std@@2W4_Fmtflags@12@B	; std::_Iosb<int>::internal
PUBLIC	?dec@?$_Iosb@H@std@@2W4_Fmtflags@12@B		; std::_Iosb<int>::dec
PUBLIC	?oct@?$_Iosb@H@std@@2W4_Fmtflags@12@B		; std::_Iosb<int>::oct
PUBLIC	?hex@?$_Iosb@H@std@@2W4_Fmtflags@12@B		; std::_Iosb<int>::hex
PUBLIC	?scientific@?$_Iosb@H@std@@2W4_Fmtflags@12@B	; std::_Iosb<int>::scientific
PUBLIC	?fixed@?$_Iosb@H@std@@2W4_Fmtflags@12@B		; std::_Iosb<int>::fixed
PUBLIC	?hexfloat@?$_Iosb@H@std@@2W4_Fmtflags@12@B	; std::_Iosb<int>::hexfloat
PUBLIC	?boolalpha@?$_Iosb@H@std@@2W4_Fmtflags@12@B	; std::_Iosb<int>::boolalpha
PUBLIC	?_Stdio@?$_Iosb@H@std@@2W4_Fmtflags@12@B	; std::_Iosb<int>::_Stdio
PUBLIC	?adjustfield@?$_Iosb@H@std@@2W4_Fmtflags@12@B	; std::_Iosb<int>::adjustfield
PUBLIC	?basefield@?$_Iosb@H@std@@2W4_Fmtflags@12@B	; std::_Iosb<int>::basefield
PUBLIC	?floatfield@?$_Iosb@H@std@@2W4_Fmtflags@12@B	; std::_Iosb<int>::floatfield
PUBLIC	?goodbit@?$_Iosb@H@std@@2W4_Iostate@12@B	; std::_Iosb<int>::goodbit
PUBLIC	?eofbit@?$_Iosb@H@std@@2W4_Iostate@12@B		; std::_Iosb<int>::eofbit
PUBLIC	?failbit@?$_Iosb@H@std@@2W4_Iostate@12@B	; std::_Iosb<int>::failbit
PUBLIC	?badbit@?$_Iosb@H@std@@2W4_Iostate@12@B		; std::_Iosb<int>::badbit
PUBLIC	?_Hardfail@?$_Iosb@H@std@@2W4_Iostate@12@B	; std::_Iosb<int>::_Hardfail
PUBLIC	?in@?$_Iosb@H@std@@2W4_Openmode@12@B		; std::_Iosb<int>::in
PUBLIC	?out@?$_Iosb@H@std@@2W4_Openmode@12@B		; std::_Iosb<int>::out
PUBLIC	?ate@?$_Iosb@H@std@@2W4_Openmode@12@B		; std::_Iosb<int>::ate
PUBLIC	?app@?$_Iosb@H@std@@2W4_Openmode@12@B		; std::_Iosb<int>::app
PUBLIC	?trunc@?$_Iosb@H@std@@2W4_Openmode@12@B		; std::_Iosb<int>::trunc
PUBLIC	?_Nocreate@?$_Iosb@H@std@@2W4_Openmode@12@B	; std::_Iosb<int>::_Nocreate
PUBLIC	?_Noreplace@?$_Iosb@H@std@@2W4_Openmode@12@B	; std::_Iosb<int>::_Noreplace
PUBLIC	?binary@?$_Iosb@H@std@@2W4_Openmode@12@B	; std::_Iosb<int>::binary
PUBLIC	?beg@?$_Iosb@H@std@@2W4_Seekdir@12@B		; std::_Iosb<int>::beg
PUBLIC	?cur@?$_Iosb@H@std@@2W4_Seekdir@12@B		; std::_Iosb<int>::cur
PUBLIC	?end@?$_Iosb@H@std@@2W4_Seekdir@12@B		; std::_Iosb<int>::end
CONST	SEGMENT
_Pi	DQ	0400921f9f01b866er		; 3.14159
_pi	DQ	0400921f9f01b866er		; 3.14159
_colors	DD	0ffH
	DD	0ff0000H
	DD	0ff00H
	DD	00H
	DD	0c8c8ffH
	DD	0c8c8c8H
	DD	0ffffH
	DD	0aaffH
	DD	0aa00ffH
	DD	05a85H
	DD	0ffffffH
	DD	06400H
	DD	0ffff00H
	DD	0c8c8c8H
	DD	0e6e6ffH
CONST	ENDS
;	COMDAT ?end@?$_Iosb@H@std@@2W4_Seekdir@12@B
CONST	SEGMENT
?end@?$_Iosb@H@std@@2W4_Seekdir@12@B DD 02H		; std::_Iosb<int>::end
CONST	ENDS
;	COMDAT ?cur@?$_Iosb@H@std@@2W4_Seekdir@12@B
CONST	SEGMENT
?cur@?$_Iosb@H@std@@2W4_Seekdir@12@B DD 01H		; std::_Iosb<int>::cur
CONST	ENDS
;	COMDAT ?beg@?$_Iosb@H@std@@2W4_Seekdir@12@B
CONST	SEGMENT
?beg@?$_Iosb@H@std@@2W4_Seekdir@12@B DD 00H		; std::_Iosb<int>::beg
CONST	ENDS
;	COMDAT ?binary@?$_Iosb@H@std@@2W4_Openmode@12@B
CONST	SEGMENT
?binary@?$_Iosb@H@std@@2W4_Openmode@12@B DD 020H	; std::_Iosb<int>::binary
CONST	ENDS
;	COMDAT ?_Noreplace@?$_Iosb@H@std@@2W4_Openmode@12@B
CONST	SEGMENT
?_Noreplace@?$_Iosb@H@std@@2W4_Openmode@12@B DD 080H	; std::_Iosb<int>::_Noreplace
CONST	ENDS
;	COMDAT ?_Nocreate@?$_Iosb@H@std@@2W4_Openmode@12@B
CONST	SEGMENT
?_Nocreate@?$_Iosb@H@std@@2W4_Openmode@12@B DD 040H	; std::_Iosb<int>::_Nocreate
CONST	ENDS
;	COMDAT ?trunc@?$_Iosb@H@std@@2W4_Openmode@12@B
CONST	SEGMENT
?trunc@?$_Iosb@H@std@@2W4_Openmode@12@B DD 010H		; std::_Iosb<int>::trunc
CONST	ENDS
;	COMDAT ?app@?$_Iosb@H@std@@2W4_Openmode@12@B
CONST	SEGMENT
?app@?$_Iosb@H@std@@2W4_Openmode@12@B DD 08H		; std::_Iosb<int>::app
CONST	ENDS
;	COMDAT ?ate@?$_Iosb@H@std@@2W4_Openmode@12@B
CONST	SEGMENT
?ate@?$_Iosb@H@std@@2W4_Openmode@12@B DD 04H		; std::_Iosb<int>::ate
CONST	ENDS
;	COMDAT ?out@?$_Iosb@H@std@@2W4_Openmode@12@B
CONST	SEGMENT
?out@?$_Iosb@H@std@@2W4_Openmode@12@B DD 02H		; std::_Iosb<int>::out
CONST	ENDS
;	COMDAT ?in@?$_Iosb@H@std@@2W4_Openmode@12@B
CONST	SEGMENT
?in@?$_Iosb@H@std@@2W4_Openmode@12@B DD 01H		; std::_Iosb<int>::in
CONST	ENDS
;	COMDAT ?_Hardfail@?$_Iosb@H@std@@2W4_Iostate@12@B
CONST	SEGMENT
?_Hardfail@?$_Iosb@H@std@@2W4_Iostate@12@B DD 010H	; std::_Iosb<int>::_Hardfail
CONST	ENDS
;	COMDAT ?badbit@?$_Iosb@H@std@@2W4_Iostate@12@B
CONST	SEGMENT
?badbit@?$_Iosb@H@std@@2W4_Iostate@12@B DD 04H		; std::_Iosb<int>::badbit
CONST	ENDS
;	COMDAT ?failbit@?$_Iosb@H@std@@2W4_Iostate@12@B
CONST	SEGMENT
?failbit@?$_Iosb@H@std@@2W4_Iostate@12@B DD 02H		; std::_Iosb<int>::failbit
CONST	ENDS
;	COMDAT ?eofbit@?$_Iosb@H@std@@2W4_Iostate@12@B
CONST	SEGMENT
?eofbit@?$_Iosb@H@std@@2W4_Iostate@12@B DD 01H		; std::_Iosb<int>::eofbit
CONST	ENDS
;	COMDAT ?goodbit@?$_Iosb@H@std@@2W4_Iostate@12@B
CONST	SEGMENT
?goodbit@?$_Iosb@H@std@@2W4_Iostate@12@B DD 00H		; std::_Iosb<int>::goodbit
CONST	ENDS
;	COMDAT ?floatfield@?$_Iosb@H@std@@2W4_Fmtflags@12@B
CONST	SEGMENT
?floatfield@?$_Iosb@H@std@@2W4_Fmtflags@12@B DD 03000H	; std::_Iosb<int>::floatfield
CONST	ENDS
;	COMDAT ?basefield@?$_Iosb@H@std@@2W4_Fmtflags@12@B
CONST	SEGMENT
?basefield@?$_Iosb@H@std@@2W4_Fmtflags@12@B DD 0e00H	; std::_Iosb<int>::basefield
CONST	ENDS
;	COMDAT ?adjustfield@?$_Iosb@H@std@@2W4_Fmtflags@12@B
CONST	SEGMENT
?adjustfield@?$_Iosb@H@std@@2W4_Fmtflags@12@B DD 01c0H	; std::_Iosb<int>::adjustfield
CONST	ENDS
;	COMDAT ?_Stdio@?$_Iosb@H@std@@2W4_Fmtflags@12@B
CONST	SEGMENT
?_Stdio@?$_Iosb@H@std@@2W4_Fmtflags@12@B DD 08000H	; std::_Iosb<int>::_Stdio
CONST	ENDS
;	COMDAT ?boolalpha@?$_Iosb@H@std@@2W4_Fmtflags@12@B
CONST	SEGMENT
?boolalpha@?$_Iosb@H@std@@2W4_Fmtflags@12@B DD 04000H	; std::_Iosb<int>::boolalpha
CONST	ENDS
;	COMDAT ?hexfloat@?$_Iosb@H@std@@2W4_Fmtflags@12@B
CONST	SEGMENT
?hexfloat@?$_Iosb@H@std@@2W4_Fmtflags@12@B DD 03000H	; std::_Iosb<int>::hexfloat
CONST	ENDS
;	COMDAT ?fixed@?$_Iosb@H@std@@2W4_Fmtflags@12@B
CONST	SEGMENT
?fixed@?$_Iosb@H@std@@2W4_Fmtflags@12@B DD 02000H	; std::_Iosb<int>::fixed
CONST	ENDS
;	COMDAT ?scientific@?$_Iosb@H@std@@2W4_Fmtflags@12@B
CONST	SEGMENT
?scientific@?$_Iosb@H@std@@2W4_Fmtflags@12@B DD 01000H	; std::_Iosb<int>::scientific
CONST	ENDS
;	COMDAT ?hex@?$_Iosb@H@std@@2W4_Fmtflags@12@B
CONST	SEGMENT
?hex@?$_Iosb@H@std@@2W4_Fmtflags@12@B DD 0800H		; std::_Iosb<int>::hex
CONST	ENDS
;	COMDAT ?oct@?$_Iosb@H@std@@2W4_Fmtflags@12@B
CONST	SEGMENT
?oct@?$_Iosb@H@std@@2W4_Fmtflags@12@B DD 0400H		; std::_Iosb<int>::oct
CONST	ENDS
;	COMDAT ?dec@?$_Iosb@H@std@@2W4_Fmtflags@12@B
CONST	SEGMENT
?dec@?$_Iosb@H@std@@2W4_Fmtflags@12@B DD 0200H		; std::_Iosb<int>::dec
CONST	ENDS
;	COMDAT ?internal@?$_Iosb@H@std@@2W4_Fmtflags@12@B
CONST	SEGMENT
?internal@?$_Iosb@H@std@@2W4_Fmtflags@12@B DD 0100H	; std::_Iosb<int>::internal
CONST	ENDS
;	COMDAT ?right@?$_Iosb@H@std@@2W4_Fmtflags@12@B
CONST	SEGMENT
?right@?$_Iosb@H@std@@2W4_Fmtflags@12@B DD 080H		; std::_Iosb<int>::right
CONST	ENDS
;	COMDAT ?left@?$_Iosb@H@std@@2W4_Fmtflags@12@B
CONST	SEGMENT
?left@?$_Iosb@H@std@@2W4_Fmtflags@12@B DD 040H		; std::_Iosb<int>::left
CONST	ENDS
;	COMDAT ?showpos@?$_Iosb@H@std@@2W4_Fmtflags@12@B
CONST	SEGMENT
?showpos@?$_Iosb@H@std@@2W4_Fmtflags@12@B DD 020H	; std::_Iosb<int>::showpos
CONST	ENDS
;	COMDAT ?showpoint@?$_Iosb@H@std@@2W4_Fmtflags@12@B
CONST	SEGMENT
?showpoint@?$_Iosb@H@std@@2W4_Fmtflags@12@B DD 010H	; std::_Iosb<int>::showpoint
CONST	ENDS
;	COMDAT ?showbase@?$_Iosb@H@std@@2W4_Fmtflags@12@B
CONST	SEGMENT
?showbase@?$_Iosb@H@std@@2W4_Fmtflags@12@B DD 08H	; std::_Iosb<int>::showbase
CONST	ENDS
;	COMDAT ?uppercase@?$_Iosb@H@std@@2W4_Fmtflags@12@B
CONST	SEGMENT
?uppercase@?$_Iosb@H@std@@2W4_Fmtflags@12@B DD 04H	; std::_Iosb<int>::uppercase
CONST	ENDS
;	COMDAT ?unitbuf@?$_Iosb@H@std@@2W4_Fmtflags@12@B
CONST	SEGMENT
?unitbuf@?$_Iosb@H@std@@2W4_Fmtflags@12@B DD 02H	; std::_Iosb<int>::unitbuf
CONST	ENDS
;	COMDAT ?skipws@?$_Iosb@H@std@@2W4_Fmtflags@12@B
CONST	SEGMENT
?skipws@?$_Iosb@H@std@@2W4_Fmtflags@12@B DD 01H		; std::_Iosb<int>::skipws
CONST	ENDS
;	COMDAT ?table_size@?$ctype@D@std@@2IB
CONST	SEGMENT
?table_size@?$ctype@D@std@@2IB DD 0100H			; std::ctype<char>::table_size
CONST	ENDS
;	COMDAT ?none@?$_Locbase@H@std@@2HB
CONST	SEGMENT
?none@?$_Locbase@H@std@@2HB DD 00H			; std::_Locbase<int>::none
CONST	ENDS
;	COMDAT ?all@?$_Locbase@H@std@@2HB
CONST	SEGMENT
?all@?$_Locbase@H@std@@2HB DD 03fH			; std::_Locbase<int>::all
CONST	ENDS
;	COMDAT ?messages@?$_Locbase@H@std@@2HB
CONST	SEGMENT
?messages@?$_Locbase@H@std@@2HB DD 020H			; std::_Locbase<int>::messages
CONST	ENDS
;	COMDAT ?time@?$_Locbase@H@std@@2HB
CONST	SEGMENT
?time@?$_Locbase@H@std@@2HB DD 010H			; std::_Locbase<int>::time
CONST	ENDS
;	COMDAT ?numeric@?$_Locbase@H@std@@2HB
CONST	SEGMENT
?numeric@?$_Locbase@H@std@@2HB DD 08H			; std::_Locbase<int>::numeric
CONST	ENDS
;	COMDAT ?monetary@?$_Locbase@H@std@@2HB
CONST	SEGMENT
?monetary@?$_Locbase@H@std@@2HB DD 04H			; std::_Locbase<int>::monetary
CONST	ENDS
;	COMDAT ?ctype@?$_Locbase@H@std@@2HB
CONST	SEGMENT
?ctype@?$_Locbase@H@std@@2HB DD 02H			; std::_Locbase<int>::ctype
CONST	ENDS
;	COMDAT ?collate@?$_Locbase@H@std@@2HB
CONST	SEGMENT
?collate@?$_Locbase@H@std@@2HB DD 01H			; std::_Locbase<int>::collate
CONST	ENDS
;	COMDAT ?_Rank@?$_Arithmetic_traits@O@std@@2HB
CONST	SEGMENT
?_Rank@?$_Arithmetic_traits@O@std@@2HB DD 09H		; std::_Arithmetic_traits<long double>::_Rank
CONST	ENDS
;	COMDAT ?_Rank@?$_Arithmetic_traits@N@std@@2HB
CONST	SEGMENT
?_Rank@?$_Arithmetic_traits@N@std@@2HB DD 08H		; std::_Arithmetic_traits<double>::_Rank
CONST	ENDS
;	COMDAT ?_Rank@?$_Arithmetic_traits@M@std@@2HB
CONST	SEGMENT
?_Rank@?$_Arithmetic_traits@M@std@@2HB DD 07H		; std::_Arithmetic_traits<float>::_Rank
CONST	ENDS
;	COMDAT ?_Rank@?$_Arithmetic_traits@_K@std@@2HB
CONST	SEGMENT
?_Rank@?$_Arithmetic_traits@_K@std@@2HB DD 06H		; std::_Arithmetic_traits<unsigned __int64>::_Rank
CONST	ENDS
;	COMDAT ?_Rank@?$_Arithmetic_traits@_J@std@@2HB
CONST	SEGMENT
?_Rank@?$_Arithmetic_traits@_J@std@@2HB DD 06H		; std::_Arithmetic_traits<__int64>::_Rank
CONST	ENDS
;	COMDAT ?_Rank@?$_Arithmetic_traits@K@std@@2HB
CONST	SEGMENT
?_Rank@?$_Arithmetic_traits@K@std@@2HB DD 05H		; std::_Arithmetic_traits<unsigned long>::_Rank
CONST	ENDS
;	COMDAT ?_Rank@?$_Arithmetic_traits@J@std@@2HB
CONST	SEGMENT
?_Rank@?$_Arithmetic_traits@J@std@@2HB DD 05H		; std::_Arithmetic_traits<long>::_Rank
CONST	ENDS
;	COMDAT ?_Rank@?$_Arithmetic_traits@I@std@@2HB
CONST	SEGMENT
?_Rank@?$_Arithmetic_traits@I@std@@2HB DD 04H		; std::_Arithmetic_traits<unsigned int>::_Rank
CONST	ENDS
;	COMDAT ?_Rank@?$_Arithmetic_traits@H@std@@2HB
CONST	SEGMENT
?_Rank@?$_Arithmetic_traits@H@std@@2HB DD 04H		; std::_Arithmetic_traits<int>::_Rank
CONST	ENDS
;	COMDAT ?_Rank@?$_Arithmetic_traits@G@std@@2HB
CONST	SEGMENT
?_Rank@?$_Arithmetic_traits@G@std@@2HB DD 03H		; std::_Arithmetic_traits<unsigned short>::_Rank
CONST	ENDS
;	COMDAT ?_Rank@?$_Arithmetic_traits@F@std@@2HB
CONST	SEGMENT
?_Rank@?$_Arithmetic_traits@F@std@@2HB DD 03H		; std::_Arithmetic_traits<short>::_Rank
CONST	ENDS
;	COMDAT ?_Rank@?$_Arithmetic_traits@E@std@@2HB
CONST	SEGMENT
?_Rank@?$_Arithmetic_traits@E@std@@2HB DD 02H		; std::_Arithmetic_traits<unsigned char>::_Rank
CONST	ENDS
;	COMDAT ?_Rank@?$_Arithmetic_traits@C@std@@2HB
CONST	SEGMENT
?_Rank@?$_Arithmetic_traits@C@std@@2HB DD 02H		; std::_Arithmetic_traits<signed char>::_Rank
CONST	ENDS
;	COMDAT ?_Rank@?$_Arithmetic_traits@D@std@@2HB
CONST	SEGMENT
?_Rank@?$_Arithmetic_traits@D@std@@2HB DD 02H		; std::_Arithmetic_traits<char>::_Rank
CONST	ENDS
;	COMDAT ?_Rank@?$_Arithmetic_traits@_N@std@@2HB
CONST	SEGMENT
?_Rank@?$_Arithmetic_traits@_N@std@@2HB DD 01H		; std::_Arithmetic_traits<bool>::_Rank
CONST	ENDS
;	COMDAT ?value@?$integral_constant@I$0A@@tr1@std@@2IB
CONST	SEGMENT
?value@?$integral_constant@I$0A@@tr1@std@@2IB DD 00H	; std::tr1::integral_constant<unsigned int,0>::value
CONST	ENDS
;	COMDAT ?value@?$integral_constant@_N$00@tr1@std@@2_NB
CONST	SEGMENT
?value@?$integral_constant@_N$00@tr1@std@@2_NB DB 01H	; std::tr1::integral_constant<bool,1>::value
CONST	ENDS
;	COMDAT ?value@?$integral_constant@_N$0A@@tr1@std@@2_NB
CONST	SEGMENT
?value@?$integral_constant@_N$0A@@tr1@std@@2_NB DB 00H	; std::tr1::integral_constant<bool,0>::value
CONST	ENDS
;	COMDAT ?min_exponent10@?$numeric_limits@O@std@@2HB
CONST	SEGMENT
?min_exponent10@?$numeric_limits@O@std@@2HB DD 0fffffecdH ; std::numeric_limits<long double>::min_exponent10
CONST	ENDS
;	COMDAT ?min_exponent@?$numeric_limits@O@std@@2HB
CONST	SEGMENT
?min_exponent@?$numeric_limits@O@std@@2HB DD 0fffffc03H	; std::numeric_limits<long double>::min_exponent
CONST	ENDS
;	COMDAT ?max_exponent10@?$numeric_limits@O@std@@2HB
CONST	SEGMENT
?max_exponent10@?$numeric_limits@O@std@@2HB DD 0134H	; std::numeric_limits<long double>::max_exponent10
CONST	ENDS
;	COMDAT ?max_exponent@?$numeric_limits@O@std@@2HB
CONST	SEGMENT
?max_exponent@?$numeric_limits@O@std@@2HB DD 0400H	; std::numeric_limits<long double>::max_exponent
CONST	ENDS
;	COMDAT ?max_digits10@?$numeric_limits@O@std@@2HB
CONST	SEGMENT
?max_digits10@?$numeric_limits@O@std@@2HB DD 011H	; std::numeric_limits<long double>::max_digits10
CONST	ENDS
;	COMDAT ?digits10@?$numeric_limits@O@std@@2HB
CONST	SEGMENT
?digits10@?$numeric_limits@O@std@@2HB DD 0fH		; std::numeric_limits<long double>::digits10
CONST	ENDS
;	COMDAT ?digits@?$numeric_limits@O@std@@2HB
CONST	SEGMENT
?digits@?$numeric_limits@O@std@@2HB DD 035H		; std::numeric_limits<long double>::digits
CONST	ENDS
;	COMDAT ?min_exponent10@?$numeric_limits@N@std@@2HB
CONST	SEGMENT
?min_exponent10@?$numeric_limits@N@std@@2HB DD 0fffffecdH ; std::numeric_limits<double>::min_exponent10
CONST	ENDS
;	COMDAT ?min_exponent@?$numeric_limits@N@std@@2HB
CONST	SEGMENT
?min_exponent@?$numeric_limits@N@std@@2HB DD 0fffffc03H	; std::numeric_limits<double>::min_exponent
CONST	ENDS
;	COMDAT ?max_exponent10@?$numeric_limits@N@std@@2HB
CONST	SEGMENT
?max_exponent10@?$numeric_limits@N@std@@2HB DD 0134H	; std::numeric_limits<double>::max_exponent10
CONST	ENDS
;	COMDAT ?max_exponent@?$numeric_limits@N@std@@2HB
CONST	SEGMENT
?max_exponent@?$numeric_limits@N@std@@2HB DD 0400H	; std::numeric_limits<double>::max_exponent
CONST	ENDS
;	COMDAT ?max_digits10@?$numeric_limits@N@std@@2HB
CONST	SEGMENT
?max_digits10@?$numeric_limits@N@std@@2HB DD 011H	; std::numeric_limits<double>::max_digits10
CONST	ENDS
;	COMDAT ?digits10@?$numeric_limits@N@std@@2HB
CONST	SEGMENT
?digits10@?$numeric_limits@N@std@@2HB DD 0fH		; std::numeric_limits<double>::digits10
CONST	ENDS
;	COMDAT ?digits@?$numeric_limits@N@std@@2HB
CONST	SEGMENT
?digits@?$numeric_limits@N@std@@2HB DD 035H		; std::numeric_limits<double>::digits
CONST	ENDS
;	COMDAT ?min_exponent10@?$numeric_limits@M@std@@2HB
CONST	SEGMENT
?min_exponent10@?$numeric_limits@M@std@@2HB DD 0ffffffdbH ; std::numeric_limits<float>::min_exponent10
CONST	ENDS
;	COMDAT ?min_exponent@?$numeric_limits@M@std@@2HB
CONST	SEGMENT
?min_exponent@?$numeric_limits@M@std@@2HB DD 0ffffff83H	; std::numeric_limits<float>::min_exponent
CONST	ENDS
;	COMDAT ?max_exponent10@?$numeric_limits@M@std@@2HB
CONST	SEGMENT
?max_exponent10@?$numeric_limits@M@std@@2HB DD 026H	; std::numeric_limits<float>::max_exponent10
CONST	ENDS
;	COMDAT ?max_exponent@?$numeric_limits@M@std@@2HB
CONST	SEGMENT
?max_exponent@?$numeric_limits@M@std@@2HB DD 080H	; std::numeric_limits<float>::max_exponent
CONST	ENDS
;	COMDAT ?max_digits10@?$numeric_limits@M@std@@2HB
CONST	SEGMENT
?max_digits10@?$numeric_limits@M@std@@2HB DD 08H	; std::numeric_limits<float>::max_digits10
CONST	ENDS
;	COMDAT ?digits10@?$numeric_limits@M@std@@2HB
CONST	SEGMENT
?digits10@?$numeric_limits@M@std@@2HB DD 06H		; std::numeric_limits<float>::digits10
CONST	ENDS
;	COMDAT ?digits@?$numeric_limits@M@std@@2HB
CONST	SEGMENT
?digits@?$numeric_limits@M@std@@2HB DD 018H		; std::numeric_limits<float>::digits
CONST	ENDS
;	COMDAT ?max_digits10@?$numeric_limits@_K@std@@2HB
CONST	SEGMENT
?max_digits10@?$numeric_limits@_K@std@@2HB DD 015H	; std::numeric_limits<unsigned __int64>::max_digits10
CONST	ENDS
;	COMDAT ?digits10@?$numeric_limits@_K@std@@2HB
CONST	SEGMENT
?digits10@?$numeric_limits@_K@std@@2HB DD 013H		; std::numeric_limits<unsigned __int64>::digits10
CONST	ENDS
;	COMDAT ?digits@?$numeric_limits@_K@std@@2HB
CONST	SEGMENT
?digits@?$numeric_limits@_K@std@@2HB DD 040H		; std::numeric_limits<unsigned __int64>::digits
CONST	ENDS
;	COMDAT ?is_signed@?$numeric_limits@_K@std@@2_NB
CONST	SEGMENT
?is_signed@?$numeric_limits@_K@std@@2_NB DB 00H		; std::numeric_limits<unsigned __int64>::is_signed
CONST	ENDS
;	COMDAT ?max_digits10@?$numeric_limits@_J@std@@2HB
CONST	SEGMENT
?max_digits10@?$numeric_limits@_J@std@@2HB DD 014H	; std::numeric_limits<__int64>::max_digits10
CONST	ENDS
;	COMDAT ?digits10@?$numeric_limits@_J@std@@2HB
CONST	SEGMENT
?digits10@?$numeric_limits@_J@std@@2HB DD 012H		; std::numeric_limits<__int64>::digits10
CONST	ENDS
;	COMDAT ?digits@?$numeric_limits@_J@std@@2HB
CONST	SEGMENT
?digits@?$numeric_limits@_J@std@@2HB DD 03fH		; std::numeric_limits<__int64>::digits
CONST	ENDS
;	COMDAT ?is_signed@?$numeric_limits@_J@std@@2_NB
CONST	SEGMENT
?is_signed@?$numeric_limits@_J@std@@2_NB DB 01H		; std::numeric_limits<__int64>::is_signed
CONST	ENDS
;	COMDAT ?max_digits10@?$numeric_limits@K@std@@2HB
CONST	SEGMENT
?max_digits10@?$numeric_limits@K@std@@2HB DD 0bH	; std::numeric_limits<unsigned long>::max_digits10
CONST	ENDS
;	COMDAT ?digits10@?$numeric_limits@K@std@@2HB
CONST	SEGMENT
?digits10@?$numeric_limits@K@std@@2HB DD 09H		; std::numeric_limits<unsigned long>::digits10
CONST	ENDS
;	COMDAT ?digits@?$numeric_limits@K@std@@2HB
CONST	SEGMENT
?digits@?$numeric_limits@K@std@@2HB DD 020H		; std::numeric_limits<unsigned long>::digits
CONST	ENDS
;	COMDAT ?is_signed@?$numeric_limits@K@std@@2_NB
CONST	SEGMENT
?is_signed@?$numeric_limits@K@std@@2_NB DB 00H		; std::numeric_limits<unsigned long>::is_signed
CONST	ENDS
;	COMDAT ?max_digits10@?$numeric_limits@J@std@@2HB
CONST	SEGMENT
?max_digits10@?$numeric_limits@J@std@@2HB DD 0bH	; std::numeric_limits<long>::max_digits10
CONST	ENDS
;	COMDAT ?digits10@?$numeric_limits@J@std@@2HB
CONST	SEGMENT
?digits10@?$numeric_limits@J@std@@2HB DD 09H		; std::numeric_limits<long>::digits10
CONST	ENDS
;	COMDAT ?digits@?$numeric_limits@J@std@@2HB
CONST	SEGMENT
?digits@?$numeric_limits@J@std@@2HB DD 01fH		; std::numeric_limits<long>::digits
CONST	ENDS
;	COMDAT ?is_signed@?$numeric_limits@J@std@@2_NB
CONST	SEGMENT
?is_signed@?$numeric_limits@J@std@@2_NB DB 01H		; std::numeric_limits<long>::is_signed
CONST	ENDS
;	COMDAT ?max_digits10@?$numeric_limits@I@std@@2HB
CONST	SEGMENT
?max_digits10@?$numeric_limits@I@std@@2HB DD 0bH	; std::numeric_limits<unsigned int>::max_digits10
CONST	ENDS
;	COMDAT ?digits10@?$numeric_limits@I@std@@2HB
CONST	SEGMENT
?digits10@?$numeric_limits@I@std@@2HB DD 09H		; std::numeric_limits<unsigned int>::digits10
CONST	ENDS
;	COMDAT ?digits@?$numeric_limits@I@std@@2HB
CONST	SEGMENT
?digits@?$numeric_limits@I@std@@2HB DD 020H		; std::numeric_limits<unsigned int>::digits
CONST	ENDS
;	COMDAT ?is_signed@?$numeric_limits@I@std@@2_NB
CONST	SEGMENT
?is_signed@?$numeric_limits@I@std@@2_NB DB 00H		; std::numeric_limits<unsigned int>::is_signed
CONST	ENDS
;	COMDAT ?max_digits10@?$numeric_limits@H@std@@2HB
CONST	SEGMENT
?max_digits10@?$numeric_limits@H@std@@2HB DD 0bH	; std::numeric_limits<int>::max_digits10
CONST	ENDS
;	COMDAT ?digits10@?$numeric_limits@H@std@@2HB
CONST	SEGMENT
?digits10@?$numeric_limits@H@std@@2HB DD 09H		; std::numeric_limits<int>::digits10
CONST	ENDS
;	COMDAT ?digits@?$numeric_limits@H@std@@2HB
CONST	SEGMENT
?digits@?$numeric_limits@H@std@@2HB DD 01fH		; std::numeric_limits<int>::digits
CONST	ENDS
;	COMDAT ?is_signed@?$numeric_limits@H@std@@2_NB
CONST	SEGMENT
?is_signed@?$numeric_limits@H@std@@2_NB DB 01H		; std::numeric_limits<int>::is_signed
CONST	ENDS
;	COMDAT ?max_digits10@?$numeric_limits@G@std@@2HB
CONST	SEGMENT
?max_digits10@?$numeric_limits@G@std@@2HB DD 06H	; std::numeric_limits<unsigned short>::max_digits10
CONST	ENDS
;	COMDAT ?digits10@?$numeric_limits@G@std@@2HB
CONST	SEGMENT
?digits10@?$numeric_limits@G@std@@2HB DD 04H		; std::numeric_limits<unsigned short>::digits10
CONST	ENDS
;	COMDAT ?digits@?$numeric_limits@G@std@@2HB
CONST	SEGMENT
?digits@?$numeric_limits@G@std@@2HB DD 010H		; std::numeric_limits<unsigned short>::digits
CONST	ENDS
;	COMDAT ?is_signed@?$numeric_limits@G@std@@2_NB
CONST	SEGMENT
?is_signed@?$numeric_limits@G@std@@2_NB DB 00H		; std::numeric_limits<unsigned short>::is_signed
CONST	ENDS
;	COMDAT ?max_digits10@?$numeric_limits@F@std@@2HB
CONST	SEGMENT
?max_digits10@?$numeric_limits@F@std@@2HB DD 06H	; std::numeric_limits<short>::max_digits10
CONST	ENDS
;	COMDAT ?digits10@?$numeric_limits@F@std@@2HB
CONST	SEGMENT
?digits10@?$numeric_limits@F@std@@2HB DD 04H		; std::numeric_limits<short>::digits10
CONST	ENDS
;	COMDAT ?digits@?$numeric_limits@F@std@@2HB
CONST	SEGMENT
?digits@?$numeric_limits@F@std@@2HB DD 0fH		; std::numeric_limits<short>::digits
CONST	ENDS
;	COMDAT ?is_signed@?$numeric_limits@F@std@@2_NB
CONST	SEGMENT
?is_signed@?$numeric_limits@F@std@@2_NB DB 01H		; std::numeric_limits<short>::is_signed
CONST	ENDS
;	COMDAT ?max_digits10@?$numeric_limits@E@std@@2HB
CONST	SEGMENT
?max_digits10@?$numeric_limits@E@std@@2HB DD 04H	; std::numeric_limits<unsigned char>::max_digits10
CONST	ENDS
;	COMDAT ?digits10@?$numeric_limits@E@std@@2HB
CONST	SEGMENT
?digits10@?$numeric_limits@E@std@@2HB DD 02H		; std::numeric_limits<unsigned char>::digits10
CONST	ENDS
;	COMDAT ?digits@?$numeric_limits@E@std@@2HB
CONST	SEGMENT
?digits@?$numeric_limits@E@std@@2HB DD 08H		; std::numeric_limits<unsigned char>::digits
CONST	ENDS
;	COMDAT ?is_signed@?$numeric_limits@E@std@@2_NB
CONST	SEGMENT
?is_signed@?$numeric_limits@E@std@@2_NB DB 00H		; std::numeric_limits<unsigned char>::is_signed
CONST	ENDS
;	COMDAT ?max_digits10@?$numeric_limits@C@std@@2HB
CONST	SEGMENT
?max_digits10@?$numeric_limits@C@std@@2HB DD 04H	; std::numeric_limits<signed char>::max_digits10
CONST	ENDS
;	COMDAT ?digits10@?$numeric_limits@C@std@@2HB
CONST	SEGMENT
?digits10@?$numeric_limits@C@std@@2HB DD 02H		; std::numeric_limits<signed char>::digits10
CONST	ENDS
;	COMDAT ?digits@?$numeric_limits@C@std@@2HB
CONST	SEGMENT
?digits@?$numeric_limits@C@std@@2HB DD 07H		; std::numeric_limits<signed char>::digits
CONST	ENDS
;	COMDAT ?is_signed@?$numeric_limits@C@std@@2_NB
CONST	SEGMENT
?is_signed@?$numeric_limits@C@std@@2_NB DB 01H		; std::numeric_limits<signed char>::is_signed
CONST	ENDS
;	COMDAT ?max_digits10@?$numeric_limits@_N@std@@2HB
CONST	SEGMENT
?max_digits10@?$numeric_limits@_N@std@@2HB DD 00H	; std::numeric_limits<bool>::max_digits10
CONST	ENDS
;	COMDAT ?digits10@?$numeric_limits@_N@std@@2HB
CONST	SEGMENT
?digits10@?$numeric_limits@_N@std@@2HB DD 00H		; std::numeric_limits<bool>::digits10
CONST	ENDS
;	COMDAT ?digits@?$numeric_limits@_N@std@@2HB
CONST	SEGMENT
?digits@?$numeric_limits@_N@std@@2HB DD 01H		; std::numeric_limits<bool>::digits
CONST	ENDS
;	COMDAT ?is_signed@?$numeric_limits@_N@std@@2_NB
CONST	SEGMENT
?is_signed@?$numeric_limits@_N@std@@2_NB DB 00H		; std::numeric_limits<bool>::is_signed
CONST	ENDS
;	COMDAT ?is_modulo@?$numeric_limits@_N@std@@2_NB
CONST	SEGMENT
?is_modulo@?$numeric_limits@_N@std@@2_NB DB 00H		; std::numeric_limits<bool>::is_modulo
CONST	ENDS
;	COMDAT ?max_digits10@?$numeric_limits@_W@std@@2HB
CONST	SEGMENT
?max_digits10@?$numeric_limits@_W@std@@2HB DD 06H	; std::numeric_limits<wchar_t>::max_digits10
CONST	ENDS
;	COMDAT ?digits10@?$numeric_limits@_W@std@@2HB
CONST	SEGMENT
?digits10@?$numeric_limits@_W@std@@2HB DD 04H		; std::numeric_limits<wchar_t>::digits10
CONST	ENDS
;	COMDAT ?digits@?$numeric_limits@_W@std@@2HB
CONST	SEGMENT
?digits@?$numeric_limits@_W@std@@2HB DD 010H		; std::numeric_limits<wchar_t>::digits
CONST	ENDS
;	COMDAT ?is_signed@?$numeric_limits@_W@std@@2_NB
CONST	SEGMENT
?is_signed@?$numeric_limits@_W@std@@2_NB DB 00H		; std::numeric_limits<wchar_t>::is_signed
CONST	ENDS
;	COMDAT ?max_digits10@?$numeric_limits@D@std@@2HB
CONST	SEGMENT
?max_digits10@?$numeric_limits@D@std@@2HB DD 04H	; std::numeric_limits<char>::max_digits10
CONST	ENDS
;	COMDAT ?digits10@?$numeric_limits@D@std@@2HB
CONST	SEGMENT
?digits10@?$numeric_limits@D@std@@2HB DD 02H		; std::numeric_limits<char>::digits10
CONST	ENDS
;	COMDAT ?digits@?$numeric_limits@D@std@@2HB
CONST	SEGMENT
?digits@?$numeric_limits@D@std@@2HB DD 07H		; std::numeric_limits<char>::digits
CONST	ENDS
;	COMDAT ?is_signed@?$numeric_limits@D@std@@2_NB
CONST	SEGMENT
?is_signed@?$numeric_limits@D@std@@2_NB DB 01H		; std::numeric_limits<char>::is_signed
CONST	ENDS
;	COMDAT ?radix@_Num_float_base@std@@2HB
CONST	SEGMENT
?radix@_Num_float_base@std@@2HB DD 02H			; std::_Num_float_base::radix
CONST	ENDS
;	COMDAT ?round_style@_Num_float_base@std@@2W4float_round_style@2@B
CONST	SEGMENT
?round_style@_Num_float_base@std@@2W4float_round_style@2@B DD 01H ; std::_Num_float_base::round_style
CONST	ENDS
;	COMDAT ?traps@_Num_float_base@std@@2_NB
CONST	SEGMENT
?traps@_Num_float_base@std@@2_NB DB 01H			; std::_Num_float_base::traps
CONST	ENDS
;	COMDAT ?tinyness_before@_Num_float_base@std@@2_NB
CONST	SEGMENT
?tinyness_before@_Num_float_base@std@@2_NB DB 01H	; std::_Num_float_base::tinyness_before
CONST	ENDS
;	COMDAT ?is_specialized@_Num_float_base@std@@2_NB
CONST	SEGMENT
?is_specialized@_Num_float_base@std@@2_NB DB 01H	; std::_Num_float_base::is_specialized
CONST	ENDS
;	COMDAT ?is_signed@_Num_float_base@std@@2_NB
CONST	SEGMENT
?is_signed@_Num_float_base@std@@2_NB DB 01H		; std::_Num_float_base::is_signed
CONST	ENDS
;	COMDAT ?is_modulo@_Num_float_base@std@@2_NB
CONST	SEGMENT
?is_modulo@_Num_float_base@std@@2_NB DB 00H		; std::_Num_float_base::is_modulo
CONST	ENDS
;	COMDAT ?is_integer@_Num_float_base@std@@2_NB
CONST	SEGMENT
?is_integer@_Num_float_base@std@@2_NB DB 00H		; std::_Num_float_base::is_integer
CONST	ENDS
;	COMDAT ?is_iec559@_Num_float_base@std@@2_NB
CONST	SEGMENT
?is_iec559@_Num_float_base@std@@2_NB DB 01H		; std::_Num_float_base::is_iec559
CONST	ENDS
;	COMDAT ?is_exact@_Num_float_base@std@@2_NB
CONST	SEGMENT
?is_exact@_Num_float_base@std@@2_NB DB 00H		; std::_Num_float_base::is_exact
CONST	ENDS
;	COMDAT ?is_bounded@_Num_float_base@std@@2_NB
CONST	SEGMENT
?is_bounded@_Num_float_base@std@@2_NB DB 01H		; std::_Num_float_base::is_bounded
CONST	ENDS
;	COMDAT ?has_signaling_NaN@_Num_float_base@std@@2_NB
CONST	SEGMENT
?has_signaling_NaN@_Num_float_base@std@@2_NB DB 01H	; std::_Num_float_base::has_signaling_NaN
CONST	ENDS
;	COMDAT ?has_quiet_NaN@_Num_float_base@std@@2_NB
CONST	SEGMENT
?has_quiet_NaN@_Num_float_base@std@@2_NB DB 01H		; std::_Num_float_base::has_quiet_NaN
CONST	ENDS
;	COMDAT ?has_infinity@_Num_float_base@std@@2_NB
CONST	SEGMENT
?has_infinity@_Num_float_base@std@@2_NB DB 01H		; std::_Num_float_base::has_infinity
CONST	ENDS
;	COMDAT ?has_denorm_loss@_Num_float_base@std@@2_NB
CONST	SEGMENT
?has_denorm_loss@_Num_float_base@std@@2_NB DB 01H	; std::_Num_float_base::has_denorm_loss
CONST	ENDS
;	COMDAT ?has_denorm@_Num_float_base@std@@2W4float_denorm_style@2@B
CONST	SEGMENT
?has_denorm@_Num_float_base@std@@2W4float_denorm_style@2@B DD 01H ; std::_Num_float_base::has_denorm
CONST	ENDS
;	COMDAT ?radix@_Num_int_base@std@@2HB
CONST	SEGMENT
?radix@_Num_int_base@std@@2HB DD 02H			; std::_Num_int_base::radix
CONST	ENDS
;	COMDAT ?is_specialized@_Num_int_base@std@@2_NB
CONST	SEGMENT
?is_specialized@_Num_int_base@std@@2_NB DB 01H		; std::_Num_int_base::is_specialized
CONST	ENDS
;	COMDAT ?is_modulo@_Num_int_base@std@@2_NB
CONST	SEGMENT
?is_modulo@_Num_int_base@std@@2_NB DB 01H		; std::_Num_int_base::is_modulo
CONST	ENDS
;	COMDAT ?is_integer@_Num_int_base@std@@2_NB
CONST	SEGMENT
?is_integer@_Num_int_base@std@@2_NB DB 01H		; std::_Num_int_base::is_integer
CONST	ENDS
;	COMDAT ?is_exact@_Num_int_base@std@@2_NB
CONST	SEGMENT
?is_exact@_Num_int_base@std@@2_NB DB 01H		; std::_Num_int_base::is_exact
CONST	ENDS
;	COMDAT ?is_bounded@_Num_int_base@std@@2_NB
CONST	SEGMENT
?is_bounded@_Num_int_base@std@@2_NB DB 01H		; std::_Num_int_base::is_bounded
CONST	ENDS
;	COMDAT ?radix@_Num_base@std@@2HB
CONST	SEGMENT
?radix@_Num_base@std@@2HB DD 00H			; std::_Num_base::radix
CONST	ENDS
;	COMDAT ?min_exponent10@_Num_base@std@@2HB
CONST	SEGMENT
?min_exponent10@_Num_base@std@@2HB DD 00H		; std::_Num_base::min_exponent10
CONST	ENDS
;	COMDAT ?min_exponent@_Num_base@std@@2HB
CONST	SEGMENT
?min_exponent@_Num_base@std@@2HB DD 00H			; std::_Num_base::min_exponent
CONST	ENDS
;	COMDAT ?max_exponent10@_Num_base@std@@2HB
CONST	SEGMENT
?max_exponent10@_Num_base@std@@2HB DD 00H		; std::_Num_base::max_exponent10
CONST	ENDS
;	COMDAT ?max_exponent@_Num_base@std@@2HB
CONST	SEGMENT
?max_exponent@_Num_base@std@@2HB DD 00H			; std::_Num_base::max_exponent
CONST	ENDS
;	COMDAT ?max_digits10@_Num_base@std@@2HB
CONST	SEGMENT
?max_digits10@_Num_base@std@@2HB DD 00H			; std::_Num_base::max_digits10
CONST	ENDS
;	COMDAT ?digits10@_Num_base@std@@2HB
CONST	SEGMENT
?digits10@_Num_base@std@@2HB DD 00H			; std::_Num_base::digits10
CONST	ENDS
;	COMDAT ?digits@_Num_base@std@@2HB
CONST	SEGMENT
?digits@_Num_base@std@@2HB DD 00H			; std::_Num_base::digits
CONST	ENDS
;	COMDAT ?round_style@_Num_base@std@@2W4float_round_style@2@B
CONST	SEGMENT
?round_style@_Num_base@std@@2W4float_round_style@2@B DD 00H ; std::_Num_base::round_style
CONST	ENDS
;	COMDAT ?traps@_Num_base@std@@2_NB
CONST	SEGMENT
?traps@_Num_base@std@@2_NB DB 00H			; std::_Num_base::traps
CONST	ENDS
;	COMDAT ?tinyness_before@_Num_base@std@@2_NB
CONST	SEGMENT
?tinyness_before@_Num_base@std@@2_NB DB 00H		; std::_Num_base::tinyness_before
CONST	ENDS
;	COMDAT ?is_specialized@_Num_base@std@@2_NB
CONST	SEGMENT
?is_specialized@_Num_base@std@@2_NB DB 00H		; std::_Num_base::is_specialized
CONST	ENDS
;	COMDAT ?is_signed@_Num_base@std@@2_NB
CONST	SEGMENT
?is_signed@_Num_base@std@@2_NB DB 00H			; std::_Num_base::is_signed
CONST	ENDS
;	COMDAT ?is_modulo@_Num_base@std@@2_NB
CONST	SEGMENT
?is_modulo@_Num_base@std@@2_NB DB 00H			; std::_Num_base::is_modulo
CONST	ENDS
;	COMDAT ?is_integer@_Num_base@std@@2_NB
CONST	SEGMENT
?is_integer@_Num_base@std@@2_NB DB 00H			; std::_Num_base::is_integer
CONST	ENDS
;	COMDAT ?is_iec559@_Num_base@std@@2_NB
CONST	SEGMENT
?is_iec559@_Num_base@std@@2_NB DB 00H			; std::_Num_base::is_iec559
CONST	ENDS
;	COMDAT ?is_exact@_Num_base@std@@2_NB
CONST	SEGMENT
?is_exact@_Num_base@std@@2_NB DB 00H			; std::_Num_base::is_exact
CONST	ENDS
;	COMDAT ?is_bounded@_Num_base@std@@2_NB
CONST	SEGMENT
?is_bounded@_Num_base@std@@2_NB DB 00H			; std::_Num_base::is_bounded
CONST	ENDS
;	COMDAT ?has_signaling_NaN@_Num_base@std@@2_NB
CONST	SEGMENT
?has_signaling_NaN@_Num_base@std@@2_NB DB 00H		; std::_Num_base::has_signaling_NaN
CONST	ENDS
;	COMDAT ?has_quiet_NaN@_Num_base@std@@2_NB
CONST	SEGMENT
?has_quiet_NaN@_Num_base@std@@2_NB DB 00H		; std::_Num_base::has_quiet_NaN
CONST	ENDS
;	COMDAT ?has_infinity@_Num_base@std@@2_NB
CONST	SEGMENT
?has_infinity@_Num_base@std@@2_NB DB 00H		; std::_Num_base::has_infinity
CONST	ENDS
;	COMDAT ?has_denorm_loss@_Num_base@std@@2_NB
CONST	SEGMENT
?has_denorm_loss@_Num_base@std@@2_NB DB 00H		; std::_Num_base::has_denorm_loss
CONST	ENDS
;	COMDAT ?has_denorm@_Num_base@std@@2W4float_denorm_style@2@B
CONST	SEGMENT
?has_denorm@_Num_base@std@@2W4float_denorm_style@2@B DD 00H ; std::_Num_base::has_denorm
CONST	ENDS
PUBLIC	??1?$vector@UVector2D@@V?$allocator@UVector2D@@@std@@@std@@QAE@XZ ; std::vector<Vector2D,std::allocator<Vector2D> >::~vector<Vector2D,std::allocator<Vector2D> >
PUBLIC	??0?$vector@UVector2D@@V?$allocator@UVector2D@@@std@@@std@@QAE@I@Z ; std::vector<Vector2D,std::allocator<Vector2D> >::vector<Vector2D,std::allocator<Vector2D> >
PUBLIC	??0Vector2D@@QAE@XZ				; Vector2D::Vector2D
PUBLIC	??_7AbstSteering@@6B@				; AbstSteering::`vftable'
PUBLIC	??0AbstSteering@@QAE@PAVRaven_Game@@PAVAbstRaven_Bot@@@Z ; AbstSteering::AbstSteering
PUBLIC	??_R4AbstSteering@@6B@				; AbstSteering::`RTTI Complete Object Locator'
PUBLIC	??_R0?AVAbstSteering@@@8			; AbstSteering `RTTI Type Descriptor'
PUBLIC	??_R3AbstSteering@@8				; AbstSteering::`RTTI Class Hierarchy Descriptor'
PUBLIC	??_R2AbstSteering@@8				; AbstSteering::`RTTI Base Class Array'
PUBLIC	??_R1A@?0A@EA@AbstSteering@@8			; AbstSteering::`RTTI Base Class Descriptor at (0,-1,0,64)'
PUBLIC	?Seek@AbstSteering@@MAE?AUVector2D@@ABU2@@Z	; AbstSteering::Seek
PUBLIC	?Arrive@AbstSteering@@MAE?AUVector2D@@ABU2@W4Deceleration@1@@Z ; AbstSteering::Arrive
PUBLIC	?Wander@AbstSteering@@MAE?AUVector2D@@XZ	; AbstSteering::Wander
PUBLIC	?WallAvoidance@AbstSteering@@MAE?AUVector2D@@ABV?$vector@PAVWall2D@@V?$allocator@PAVWall2D@@@std@@@std@@@Z ; AbstSteering::WallAvoidance
PUBLIC	?Separation@AbstSteering@@MAE?AUVector2D@@ABV?$list@PAVAbstRaven_Bot@@V?$allocator@PAVAbstRaven_Bot@@@std@@@std@@@Z ; AbstSteering::Separation
PUBLIC	?CalculatePrioritized@AbstSteering@@MAE?AUVector2D@@XZ ; AbstSteering::CalculatePrioritized
PUBLIC	?Calculate@AbstSteering@@UAE?AUVector2D@@XZ	; AbstSteering::Calculate
EXTRN	___security_cookie:DWORD
EXTRN	___CxxFrameHandler3:PROC
EXTRN	@__security_check_cookie@4:PROC
EXTRN	__RTC_CheckEsp:PROC
EXTRN	__RTC_Shutdown:PROC
EXTRN	__RTC_InitBase:PROC
EXTRN	??_7type_info@@6B@:QWORD			; type_info::`vftable'
EXTRN	??_EAbstSteering@@UAEPAXI@Z:PROC		; AbstSteering::`vector deleting destructor'
;	COMDAT ??_R1A@?0A@EA@AbstSteering@@8
; File c:\users\teaja\documents\artificial-fun\labravenprojecttest\raven\abststeeringbehaviors.cpp
rdata$r	SEGMENT
??_R1A@?0A@EA@AbstSteering@@8 DD FLAT:??_R0?AVAbstSteering@@@8 ; AbstSteering::`RTTI Base Class Descriptor at (0,-1,0,64)'
	DD	00H
	DD	00H
	DD	0ffffffffH
	DD	00H
	DD	040H
	DD	FLAT:??_R3AbstSteering@@8
rdata$r	ENDS
;	COMDAT ??_R2AbstSteering@@8
rdata$r	SEGMENT
??_R2AbstSteering@@8 DD FLAT:??_R1A@?0A@EA@AbstSteering@@8 ; AbstSteering::`RTTI Base Class Array'
rdata$r	ENDS
;	COMDAT ??_R3AbstSteering@@8
rdata$r	SEGMENT
??_R3AbstSteering@@8 DD 00H				; AbstSteering::`RTTI Class Hierarchy Descriptor'
	DD	00H
	DD	01H
	DD	FLAT:??_R2AbstSteering@@8
rdata$r	ENDS
;	COMDAT ??_R0?AVAbstSteering@@@8
_DATA	SEGMENT
??_R0?AVAbstSteering@@@8 DD FLAT:??_7type_info@@6B@	; AbstSteering `RTTI Type Descriptor'
	DD	00H
	DB	'.?AVAbstSteering@@', 00H
_DATA	ENDS
;	COMDAT ??_R4AbstSteering@@6B@
rdata$r	SEGMENT
??_R4AbstSteering@@6B@ DD 00H				; AbstSteering::`RTTI Complete Object Locator'
	DD	00H
	DD	00H
	DD	FLAT:??_R0?AVAbstSteering@@@8
	DD	FLAT:??_R3AbstSteering@@8
rdata$r	ENDS
;	COMDAT ??_7AbstSteering@@6B@
CONST	SEGMENT
??_7AbstSteering@@6B@ DD FLAT:??_R4AbstSteering@@6B@	; AbstSteering::`vftable'
	DD	FLAT:?Seek@AbstSteering@@MAE?AUVector2D@@ABU2@@Z
	DD	FLAT:?Arrive@AbstSteering@@MAE?AUVector2D@@ABU2@W4Deceleration@1@@Z
	DD	FLAT:?Wander@AbstSteering@@MAE?AUVector2D@@XZ
	DD	FLAT:?WallAvoidance@AbstSteering@@MAE?AUVector2D@@ABV?$vector@PAVWall2D@@V?$allocator@PAVWall2D@@@std@@@std@@@Z
	DD	FLAT:?Separation@AbstSteering@@MAE?AUVector2D@@ABV?$list@PAVAbstRaven_Bot@@V?$allocator@PAVAbstRaven_Bot@@@std@@@std@@@Z
	DD	FLAT:?CalculatePrioritized@AbstSteering@@MAE?AUVector2D@@XZ
	DD	FLAT:??_EAbstSteering@@UAEPAXI@Z
	DD	FLAT:?Calculate@AbstSteering@@UAE?AUVector2D@@XZ
CONST	ENDS
xdata$x	SEGMENT
__unwindtable$??0AbstSteering@@QAE@PAVRaven_Game@@PAVAbstRaven_Bot@@@Z DD 0ffffffffH
	DD	FLAT:__unwindfunclet$??0AbstSteering@@QAE@PAVRaven_Game@@PAVAbstRaven_Bot@@@Z$0
__ehfuncinfo$??0AbstSteering@@QAE@PAVRaven_Game@@PAVAbstRaven_Bot@@@Z DD 019930522H
	DD	01H
	DD	FLAT:__unwindtable$??0AbstSteering@@QAE@PAVRaven_Game@@PAVAbstRaven_Bot@@@Z
	DD	2 DUP(00H)
	DD	2 DUP(00H)
	DD	00H
	DD	01H
xdata$x	ENDS
;	COMDAT rtc$TMZ
rtc$TMZ	SEGMENT
__RTC_Shutdown.rtc$TMZ DD FLAT:__RTC_Shutdown
rtc$TMZ	ENDS
;	COMDAT rtc$IMZ
rtc$IMZ	SEGMENT
__RTC_InitBase.rtc$IMZ DD FLAT:__RTC_InitBase
; Function compile flags: /Odtp /RTCsu
rtc$IMZ	ENDS
_TEXT	SEGMENT
_this$ = -16						; size = 4
__$EHRec$ = -12						; size = 12
_world$ = 8						; size = 4
_agent$ = 12						; size = 4
??0AbstSteering@@QAE@PAVRaven_Game@@PAVAbstRaven_Bot@@@Z PROC ; AbstSteering::AbstSteering
; _this$ = ecx

; 32   : {

	push	ebp
	mov	ebp, esp
	push	-1
	push	__ehhandler$??0AbstSteering@@QAE@PAVRaven_Game@@PAVAbstRaven_Bot@@@Z
	mov	eax, DWORD PTR fs:0
	push	eax
	push	ecx
	mov	DWORD PTR [ebp-16], -858993460		; ccccccccH
	mov	eax, DWORD PTR ___security_cookie
	xor	eax, ebp
	push	eax
	lea	eax, DWORD PTR __$EHRec$[ebp]
	mov	DWORD PTR fs:0, eax
	mov	DWORD PTR _this$[ebp], ecx
	mov	eax, DWORD PTR _this$[ebp]
	mov	DWORD PTR [eax], OFFSET ??_7AbstSteering@@6B@
	mov	ecx, DWORD PTR _this$[ebp]
	mov	edx, DWORD PTR _agent$[ebp]
	mov	DWORD PTR [ecx+8], edx
	mov	eax, DWORD PTR _this$[ebp]
	mov	ecx, DWORD PTR _world$[ebp]
	mov	DWORD PTR [eax+12], ecx
	mov	ecx, DWORD PTR _this$[ebp]
	add	ecx, 16					; 00000010H
	call	??0Vector2D@@QAE@XZ			; Vector2D::Vector2D
	mov	edx, DWORD PTR _this$[ebp]
	mov	DWORD PTR [edx+32], 0
	mov	eax, DWORD PTR _this$[ebp]
	mov	DWORD PTR [eax+36], 0
	mov	ecx, DWORD PTR _this$[ebp]
	add	ecx, 40					; 00000028H
	call	??0Vector2D@@QAE@XZ			; Vector2D::Vector2D
	push	3
	mov	ecx, DWORD PTR _this$[ebp]
	add	ecx, 56					; 00000038H
	call	??0?$vector@UVector2D@@V?$allocator@UVector2D@@@std@@@std@@QAE@I@Z ; std::vector<Vector2D,std::allocator<Vector2D> >::vector<Vector2D,std::allocator<Vector2D> >
	mov	DWORD PTR __$EHRec$[ebp+8], 0
	mov	ecx, DWORD PTR _this$[ebp]
	add	ecx, 88					; 00000058H
	call	??0Vector2D@@QAE@XZ			; Vector2D::Vector2D
	mov	ecx, DWORD PTR _this$[ebp]
	mov	DWORD PTR [ecx+176], 0

; 33   : 
; 34   : }

	mov	DWORD PTR __$EHRec$[ebp+8], -1
	mov	eax, DWORD PTR _this$[ebp]
	mov	ecx, DWORD PTR __$EHRec$[ebp]
	mov	DWORD PTR fs:0, ecx
	pop	ecx
	add	esp, 16					; 00000010H
	cmp	ebp, esp
	call	__RTC_CheckEsp
	mov	esp, ebp
	pop	ebp
	ret	8
_TEXT	ENDS
text$x	SEGMENT
__unwindfunclet$??0AbstSteering@@QAE@PAVRaven_Game@@PAVAbstRaven_Bot@@@Z$0:
	mov	ecx, DWORD PTR _this$[ebp]
	add	ecx, 56					; 00000038H
	jmp	??1?$vector@UVector2D@@V?$allocator@UVector2D@@@std@@@std@@QAE@XZ ; std::vector<Vector2D,std::allocator<Vector2D> >::~vector<Vector2D,std::allocator<Vector2D> >
__ehhandler$??0AbstSteering@@QAE@PAVRaven_Game@@PAVAbstRaven_Bot@@@Z:
	mov	edx, DWORD PTR [esp+8]
	lea	eax, DWORD PTR [edx+12]
	mov	ecx, DWORD PTR [edx-8]
	xor	ecx, eax
	call	@__security_check_cookie@4
	mov	eax, OFFSET __ehfuncinfo$??0AbstSteering@@QAE@PAVRaven_Game@@PAVAbstRaven_Bot@@@Z
	jmp	___CxxFrameHandler3
text$x	ENDS
??0AbstSteering@@QAE@PAVRaven_Game@@PAVAbstRaven_Bot@@@Z ENDP ; AbstSteering::AbstSteering
PUBLIC	__real@0000000000000000
EXTRN	__fltused:DWORD
;	COMDAT __real@0000000000000000
; File c:\users\teaja\documents\artificial-fun\labravenprojecttest\common\2d\vector2d.h
CONST	SEGMENT
__real@0000000000000000 DQ 00000000000000000r	; 0
; Function compile flags: /Odtp /RTCsu
CONST	ENDS
;	COMDAT ??0Vector2D@@QAE@XZ
_TEXT	SEGMENT
_this$ = -4						; size = 4
??0Vector2D@@QAE@XZ PROC				; Vector2D::Vector2D, COMDAT
; _this$ = ecx

; 24   :   Vector2D():x(0.0),y(0.0){}

	push	ebp
	mov	ebp, esp
	push	ecx
	mov	DWORD PTR [ebp-4], -858993460		; ccccccccH
	mov	DWORD PTR _this$[ebp], ecx
	mov	eax, DWORD PTR _this$[ebp]
	fldz
	fstp	QWORD PTR [eax]
	mov	ecx, DWORD PTR _this$[ebp]
	fldz
	fstp	QWORD PTR [ecx+8]
	mov	eax, DWORD PTR _this$[ebp]
	mov	esp, ebp
	pop	ebp
	ret	0
??0Vector2D@@QAE@XZ ENDP				; Vector2D::Vector2D
_TEXT	ENDS
PUBLIC	??1AbstSteering@@UAE@XZ				; AbstSteering::~AbstSteering
EXTRN	??3@YAXPAX@Z:PROC				; operator delete
; Function compile flags: /Odtp /RTCsu
;	COMDAT ??_GAbstSteering@@UAEPAXI@Z
_TEXT	SEGMENT
_this$ = -4						; size = 4
___flags$ = 8						; size = 4
??_GAbstSteering@@UAEPAXI@Z PROC			; AbstSteering::`scalar deleting destructor', COMDAT
; _this$ = ecx
	push	ebp
	mov	ebp, esp
	push	ecx
	mov	DWORD PTR [ebp-4], -858993460		; ccccccccH
	mov	DWORD PTR _this$[ebp], ecx
	mov	ecx, DWORD PTR _this$[ebp]
	call	??1AbstSteering@@UAE@XZ			; AbstSteering::~AbstSteering
	mov	eax, DWORD PTR ___flags$[ebp]
	and	eax, 1
	je	SHORT $LN1@scalar
	mov	ecx, DWORD PTR _this$[ebp]
	push	ecx
	call	??3@YAXPAX@Z				; operator delete
	add	esp, 4
$LN1@scalar:
	mov	eax, DWORD PTR _this$[ebp]
	add	esp, 4
	cmp	ebp, esp
	call	__RTC_CheckEsp
	mov	esp, ebp
	pop	ebp
	ret	4
??_GAbstSteering@@UAEPAXI@Z ENDP			; AbstSteering::`scalar deleting destructor'
; Function compile flags: /Odtp /RTCsu
; File c:\users\teaja\documents\artificial-fun\labravenprojecttest\raven\abststeeringbehaviors.cpp
_TEXT	ENDS
_TEXT	SEGMENT
_this$ = -4						; size = 4
??1AbstSteering@@UAE@XZ PROC				; AbstSteering::~AbstSteering
; _this$ = ecx

; 37   : AbstSteering::~AbstSteering(){}

	push	ebp
	mov	ebp, esp
	push	ecx
	mov	DWORD PTR [ebp-4], -858993460		; ccccccccH
	mov	DWORD PTR _this$[ebp], ecx
	mov	eax, DWORD PTR _this$[ebp]
	mov	DWORD PTR [eax], OFFSET ??_7AbstSteering@@6B@
	mov	ecx, DWORD PTR _this$[ebp]
	add	ecx, 56					; 00000038H
	call	??1?$vector@UVector2D@@V?$allocator@UVector2D@@@std@@@std@@QAE@XZ ; std::vector<Vector2D,std::allocator<Vector2D> >::~vector<Vector2D,std::allocator<Vector2D> >
	add	esp, 4
	cmp	ebp, esp
	call	__RTC_CheckEsp
	mov	esp, ebp
	pop	ebp
	ret	0
??1AbstSteering@@UAE@XZ ENDP				; AbstSteering::~AbstSteering
_TEXT	ENDS
PUBLIC	?TagRaven_BotsWithinViewRange@Raven_Game@@QAEXPAVBaseGameEntity@@N@Z ; Raven_Game::TagRaven_BotsWithinViewRange
PUBLIC	?On@AbstSteering@@IAE_NW4behavior_type@1@@Z	; AbstSteering::On
PUBLIC	?Zero@Vector2D@@QAEXXZ				; Vector2D::Zero
; Function compile flags: /Odtp /RTCsu
_TEXT	SEGMENT
$T146147 = -20						; size = 16
_this$ = -4						; size = 4
___$ReturnUdt$ = 8					; size = 4
?Calculate@AbstSteering@@UAE?AUVector2D@@XZ PROC	; AbstSteering::Calculate
; _this$ = ecx

; 49   : { 

	push	ebp
	mov	ebp, esp
	sub	esp, 20					; 00000014H
	push	esi
	mov	eax, -858993460				; ccccccccH
	mov	DWORD PTR [ebp-20], eax
	mov	DWORD PTR [ebp-16], eax
	mov	DWORD PTR [ebp-12], eax
	mov	DWORD PTR [ebp-8], eax
	mov	DWORD PTR [ebp-4], eax
	mov	DWORD PTR _this$[ebp], ecx

; 50   :   //reset the steering force
; 51   :   m_vSteeringForce.Zero();

	mov	ecx, DWORD PTR _this$[ebp]
	add	ecx, 16					; 00000010H
	call	?Zero@Vector2D@@QAEXXZ			; Vector2D::Zero

; 52   : 
; 53   :   //tag neighbors if any of the following 3 group behaviors are switched on
; 54   :   if (On(separation))

	push	64					; 00000040H
	mov	ecx, DWORD PTR _this$[ebp]
	call	?On@AbstSteering@@IAE_NW4behavior_type@1@@Z ; AbstSteering::On
	movzx	eax, al
	test	eax, eax
	je	SHORT $LN1@Calculate

; 55   :   {
; 56   :     m_pWorld->TagRaven_BotsWithinViewRange(m_pRaven_Bot, m_dViewDistance);

	mov	ecx, DWORD PTR _this$[ebp]
	sub	esp, 8
	fld	QWORD PTR [ecx+168]
	fstp	QWORD PTR [esp]
	mov	edx, DWORD PTR _this$[ebp]
	mov	eax, DWORD PTR [edx+8]
	push	eax
	mov	ecx, DWORD PTR _this$[ebp]
	mov	ecx, DWORD PTR [ecx+12]
	call	?TagRaven_BotsWithinViewRange@Raven_Game@@QAEXPAVBaseGameEntity@@N@Z ; Raven_Game::TagRaven_BotsWithinViewRange
$LN1@Calculate:

; 57   :   }
; 58   : 
; 59   :   m_vSteeringForce = CalculatePrioritized();

	mov	esi, esp
	lea	edx, DWORD PTR $T146147[ebp]
	push	edx
	mov	eax, DWORD PTR _this$[ebp]
	mov	edx, DWORD PTR [eax]
	mov	ecx, DWORD PTR _this$[ebp]
	mov	eax, DWORD PTR [edx+20]
	call	eax
	cmp	esi, esp
	call	__RTC_CheckEsp
	mov	ecx, DWORD PTR _this$[ebp]
	add	ecx, 16					; 00000010H
	mov	edx, DWORD PTR [eax]
	mov	DWORD PTR [ecx], edx
	mov	edx, DWORD PTR [eax+4]
	mov	DWORD PTR [ecx+4], edx
	mov	edx, DWORD PTR [eax+8]
	mov	DWORD PTR [ecx+8], edx
	mov	eax, DWORD PTR [eax+12]
	mov	DWORD PTR [ecx+12], eax

; 60   : 
; 61   :   return m_vSteeringForce;

	mov	ecx, DWORD PTR _this$[ebp]
	add	ecx, 16					; 00000010H
	mov	edx, DWORD PTR ___$ReturnUdt$[ebp]
	mov	eax, DWORD PTR [ecx]
	mov	DWORD PTR [edx], eax
	mov	eax, DWORD PTR [ecx+4]
	mov	DWORD PTR [edx+4], eax
	mov	eax, DWORD PTR [ecx+8]
	mov	DWORD PTR [edx+8], eax
	mov	ecx, DWORD PTR [ecx+12]
	mov	DWORD PTR [edx+12], ecx
	mov	eax, DWORD PTR ___$ReturnUdt$[ebp]

; 62   : }

	pop	esi
	add	esp, 20					; 00000014H
	cmp	ebp, esp
	call	__RTC_CheckEsp
	mov	esp, ebp
	pop	ebp
	ret	4
?Calculate@AbstSteering@@UAE?AUVector2D@@XZ ENDP	; AbstSteering::Calculate
; Function compile flags: /Odtp /RTCsu
; File c:\users\teaja\documents\artificial-fun\labravenprojecttest\common\2d\vector2d.h
_TEXT	ENDS
;	COMDAT ?Zero@Vector2D@@QAEXXZ
_TEXT	SEGMENT
_this$ = -4						; size = 4
?Zero@Vector2D@@QAEXXZ PROC				; Vector2D::Zero, COMDAT
; _this$ = ecx

; 28   :   void Zero(){x=0.0; y=0.0;}

	push	ebp
	mov	ebp, esp
	push	ecx
	mov	DWORD PTR [ebp-4], -858993460		; ccccccccH
	mov	DWORD PTR _this$[ebp], ecx
	mov	eax, DWORD PTR _this$[ebp]
	fldz
	fstp	QWORD PTR [eax]
	mov	ecx, DWORD PTR _this$[ebp]
	fldz
	fstp	QWORD PTR [ecx+8]
	mov	esp, ebp
	pop	ebp
	ret	0
?Zero@Vector2D@@QAEXXZ ENDP				; Vector2D::Zero
; Function compile flags: /Odtp /RTCsu
; File c:\users\teaja\documents\artificial-fun\labravenprojecttest\raven\abststeeringbehaviors.h
_TEXT	ENDS
;	COMDAT ?On@AbstSteering@@IAE_NW4behavior_type@1@@Z
_TEXT	SEGMENT
_this$ = -4						; size = 4
_bt$ = 8						; size = 4
?On@AbstSteering@@IAE_NW4behavior_type@1@@Z PROC	; AbstSteering::On, COMDAT
; _this$ = ecx

; 115  :   bool      On(behavior_type bt){return (m_iFlags & bt) == bt;}

	push	ebp
	mov	ebp, esp
	push	ecx
	mov	DWORD PTR [ebp-4], -858993460		; ccccccccH
	mov	DWORD PTR _this$[ebp], ecx
	mov	eax, DWORD PTR _this$[ebp]
	mov	ecx, DWORD PTR [eax+176]
	and	ecx, DWORD PTR _bt$[ebp]
	xor	eax, eax
	cmp	ecx, DWORD PTR _bt$[ebp]
	sete	al
	mov	esp, ebp
	pop	ebp
	ret	4
?On@AbstSteering@@IAE_NW4behavior_type@1@@Z ENDP	; AbstSteering::On
_TEXT	ENDS
PUBLIC	??$TagNeighbors@VBaseGameEntity@@V?$list@PAVAbstRaven_Bot@@V?$allocator@PAVAbstRaven_Bot@@@std@@@std@@@@YAXPAVBaseGameEntity@@AAV?$list@PAVAbstRaven_Bot@@V?$allocator@PAVAbstRaven_Bot@@@std@@@std@@N@Z ; TagNeighbors<BaseGameEntity,std::list<AbstRaven_Bot *,std::allocator<AbstRaven_Bot *> > >
; Function compile flags: /Odtp /RTCsu
; File c:\users\teaja\documents\artificial-fun\labravenprojecttest\raven\raven_game.h
;	COMDAT ?TagRaven_BotsWithinViewRange@Raven_Game@@QAEXPAVBaseGameEntity@@N@Z
_TEXT	SEGMENT
_this$ = -4						; size = 4
_pRaven_Bot$ = 8					; size = 4
_range$ = 12						; size = 8
?TagRaven_BotsWithinViewRange@Raven_Game@@QAEXPAVBaseGameEntity@@N@Z PROC ; Raven_Game::TagRaven_BotsWithinViewRange, COMDAT
; _this$ = ecx

; 173  :               {TagNeighbors(pRaven_Bot, m_Bots, range);} 

	push	ebp
	mov	ebp, esp
	push	ecx
	mov	DWORD PTR [ebp-4], -858993460		; ccccccccH
	mov	DWORD PTR _this$[ebp], ecx
	sub	esp, 8
	fld	QWORD PTR _range$[ebp]
	fstp	QWORD PTR [esp]
	mov	eax, DWORD PTR _this$[ebp]
	add	eax, 16					; 00000010H
	push	eax
	mov	ecx, DWORD PTR _pRaven_Bot$[ebp]
	push	ecx
	call	??$TagNeighbors@VBaseGameEntity@@V?$list@PAVAbstRaven_Bot@@V?$allocator@PAVAbstRaven_Bot@@@std@@@std@@@@YAXPAVBaseGameEntity@@AAV?$list@PAVAbstRaven_Bot@@V?$allocator@PAVAbstRaven_Bot@@@std@@@std@@N@Z ; TagNeighbors<BaseGameEntity,std::list<AbstRaven_Bot *,std::allocator<AbstRaven_Bot *> > >
	add	esp, 16					; 00000010H
	add	esp, 4
	cmp	ebp, esp
	call	__RTC_CheckEsp
	mov	esp, ebp
	pop	ebp
	ret	12					; 0000000cH
?TagRaven_BotsWithinViewRange@Raven_Game@@QAEXPAVBaseGameEntity@@N@Z ENDP ; Raven_Game::TagRaven_BotsWithinViewRange
_TEXT	ENDS
PUBLIC	?Dot@Vector2D@@QBENABU1@@Z			; Vector2D::Dot
PUBLIC	?Heading@MovingEntity@@QBE?AUVector2D@@XZ	; MovingEntity::Heading
PUBLIC	?ForwardComponent@AbstSteering@@QAENXZ		; AbstSteering::ForwardComponent
; Function compile flags: /Odtp /RTCsu
; File c:\users\teaja\documents\artificial-fun\labravenprojecttest\raven\abststeeringbehaviors.cpp
_TEXT	SEGMENT
$T146155 = -20						; size = 16
_this$ = -4						; size = 4
?ForwardComponent@AbstSteering@@QAENXZ PROC		; AbstSteering::ForwardComponent
; _this$ = ecx

; 69   : {

	push	ebp
	mov	ebp, esp
	sub	esp, 20					; 00000014H
	mov	eax, -858993460				; ccccccccH
	mov	DWORD PTR [ebp-20], eax
	mov	DWORD PTR [ebp-16], eax
	mov	DWORD PTR [ebp-12], eax
	mov	DWORD PTR [ebp-8], eax
	mov	DWORD PTR [ebp-4], eax
	mov	DWORD PTR _this$[ebp], ecx

; 70   :   return m_pRaven_Bot->Heading().Dot(m_vSteeringForce);

	mov	eax, DWORD PTR _this$[ebp]
	add	eax, 16					; 00000010H
	push	eax
	lea	ecx, DWORD PTR $T146155[ebp]
	push	ecx
	mov	edx, DWORD PTR _this$[ebp]
	mov	ecx, DWORD PTR [edx+8]
	call	?Heading@MovingEntity@@QBE?AUVector2D@@XZ ; MovingEntity::Heading
	mov	ecx, eax
	call	?Dot@Vector2D@@QBENABU1@@Z		; Vector2D::Dot

; 71   : }

	add	esp, 20					; 00000014H
	cmp	ebp, esp
	call	__RTC_CheckEsp
	mov	esp, ebp
	pop	ebp
	ret	0
?ForwardComponent@AbstSteering@@QAENXZ ENDP		; AbstSteering::ForwardComponent
; Function compile flags: /Odtp /RTCsu
; File c:\users\teaja\documents\artificial-fun\labravenprojecttest\common\2d\vector2d.h
_TEXT	ENDS
;	COMDAT ?Dot@Vector2D@@QBENABU1@@Z
_TEXT	SEGMENT
_this$ = -4						; size = 4
_v2$ = 8						; size = 4
?Dot@Vector2D@@QBENABU1@@Z PROC				; Vector2D::Dot, COMDAT
; _this$ = ecx

; 148  : {

	push	ebp
	mov	ebp, esp
	push	ecx
	mov	DWORD PTR [ebp-4], -858993460		; ccccccccH
	mov	DWORD PTR _this$[ebp], ecx

; 149  :   return x*v2.x + y*v2.y;

	mov	eax, DWORD PTR _this$[ebp]
	mov	ecx, DWORD PTR _v2$[ebp]
	fld	QWORD PTR [eax]
	fmul	QWORD PTR [ecx]
	mov	edx, DWORD PTR _this$[ebp]
	mov	eax, DWORD PTR _v2$[ebp]
	fld	QWORD PTR [edx+8]
	fmul	QWORD PTR [eax+8]
	faddp	ST(1), ST(0)

; 150  : }

	mov	esp, ebp
	pop	ebp
	ret	4
?Dot@Vector2D@@QBENABU1@@Z ENDP				; Vector2D::Dot
; Function compile flags: /Odtp /RTCsu
; File c:\users\teaja\documents\artificial-fun\labravenprojecttest\common\game\movingentity.h
_TEXT	ENDS
;	COMDAT ?Heading@MovingEntity@@QBE?AUVector2D@@XZ
_TEXT	SEGMENT
_this$ = -4						; size = 4
___$ReturnUdt$ = 8					; size = 4
?Heading@MovingEntity@@QBE?AUVector2D@@XZ PROC		; MovingEntity::Heading, COMDAT
; _this$ = ecx

; 92   :   Vector2D  Heading()const{return m_vHeading;}

	push	ebp
	mov	ebp, esp
	push	ecx
	mov	DWORD PTR [ebp-4], -858993460		; ccccccccH
	mov	DWORD PTR _this$[ebp], ecx
	mov	eax, DWORD PTR _this$[ebp]
	add	eax, 80					; 00000050H
	mov	ecx, DWORD PTR ___$ReturnUdt$[ebp]
	mov	edx, DWORD PTR [eax]
	mov	DWORD PTR [ecx], edx
	mov	edx, DWORD PTR [eax+4]
	mov	DWORD PTR [ecx+4], edx
	mov	edx, DWORD PTR [eax+8]
	mov	DWORD PTR [ecx+8], edx
	mov	eax, DWORD PTR [eax+12]
	mov	DWORD PTR [ecx+12], eax
	mov	eax, DWORD PTR ___$ReturnUdt$[ebp]
	mov	esp, ebp
	pop	ebp
	ret	4
?Heading@MovingEntity@@QBE?AUVector2D@@XZ ENDP		; MovingEntity::Heading
_TEXT	ENDS
PUBLIC	?Side@MovingEntity@@QBE?AUVector2D@@XZ		; MovingEntity::Side
PUBLIC	?SideComponent@AbstSteering@@QAENXZ		; AbstSteering::SideComponent
; Function compile flags: /Odtp /RTCsu
; File c:\users\teaja\documents\artificial-fun\labravenprojecttest\raven\abststeeringbehaviors.cpp
_TEXT	SEGMENT
$T146161 = -20						; size = 16
_this$ = -4						; size = 4
?SideComponent@AbstSteering@@QAENXZ PROC		; AbstSteering::SideComponent
; _this$ = ecx

; 77   : {

	push	ebp
	mov	ebp, esp
	sub	esp, 20					; 00000014H
	mov	eax, -858993460				; ccccccccH
	mov	DWORD PTR [ebp-20], eax
	mov	DWORD PTR [ebp-16], eax
	mov	DWORD PTR [ebp-12], eax
	mov	DWORD PTR [ebp-8], eax
	mov	DWORD PTR [ebp-4], eax
	mov	DWORD PTR _this$[ebp], ecx

; 78   :   return m_pRaven_Bot->Side().Dot(m_vSteeringForce);

	mov	eax, DWORD PTR _this$[ebp]
	add	eax, 16					; 00000010H
	push	eax
	lea	ecx, DWORD PTR $T146161[ebp]
	push	ecx
	mov	edx, DWORD PTR _this$[ebp]
	mov	ecx, DWORD PTR [edx+8]
	call	?Side@MovingEntity@@QBE?AUVector2D@@XZ	; MovingEntity::Side
	mov	ecx, eax
	call	?Dot@Vector2D@@QBENABU1@@Z		; Vector2D::Dot

; 79   : }

	add	esp, 20					; 00000014H
	cmp	ebp, esp
	call	__RTC_CheckEsp
	mov	esp, ebp
	pop	ebp
	ret	0
?SideComponent@AbstSteering@@QAENXZ ENDP		; AbstSteering::SideComponent
; Function compile flags: /Odtp /RTCsu
; File c:\users\teaja\documents\artificial-fun\labravenprojecttest\common\game\movingentity.h
_TEXT	ENDS
;	COMDAT ?Side@MovingEntity@@QBE?AUVector2D@@XZ
_TEXT	SEGMENT
_this$ = -4						; size = 4
___$ReturnUdt$ = 8					; size = 4
?Side@MovingEntity@@QBE?AUVector2D@@XZ PROC		; MovingEntity::Side, COMDAT
; _this$ = ecx

; 80   :   Vector2D  Side()const{return m_vSide;}

	push	ebp
	mov	ebp, esp
	push	ecx
	mov	DWORD PTR [ebp-4], -858993460		; ccccccccH
	mov	DWORD PTR _this$[ebp], ecx
	mov	eax, DWORD PTR _this$[ebp]
	add	eax, 96					; 00000060H
	mov	ecx, DWORD PTR ___$ReturnUdt$[ebp]
	mov	edx, DWORD PTR [eax]
	mov	DWORD PTR [ecx], edx
	mov	edx, DWORD PTR [eax+4]
	mov	DWORD PTR [ecx+4], edx
	mov	edx, DWORD PTR [eax+8]
	mov	DWORD PTR [ecx+8], edx
	mov	eax, DWORD PTR [eax+12]
	mov	DWORD PTR [ecx+12], eax
	mov	eax, DWORD PTR ___$ReturnUdt$[ebp]
	mov	esp, ebp
	pop	ebp
	ret	4
?Side@MovingEntity@@QBE?AUVector2D@@XZ ENDP		; MovingEntity::Side
_TEXT	ENDS
PUBLIC	??D@YA?AUVector2D@@ABU0@N@Z			; operator*
PUBLIC	?Vec2DNormalize@@YA?AUVector2D@@ABU1@@Z		; Vec2DNormalize
PUBLIC	??YVector2D@@QAEABU0@ABU0@@Z			; Vector2D::operator+=
PUBLIC	?MaxForce@MovingEntity@@QBENXZ			; MovingEntity::MaxForce
PUBLIC	?Length@Vector2D@@QBENXZ			; Vector2D::Length
PUBLIC	?AccumulateForce@AbstSteering@@IAE_NAAUVector2D@@U2@@Z ; AbstSteering::AccumulateForce
; Function compile flags: /Odtp /RTCsu
; File c:\users\teaja\documents\artificial-fun\labravenprojecttest\raven\abststeeringbehaviors.cpp
_TEXT	SEGMENT
$T146166 = -60						; size = 16
$T146165 = -44						; size = 16
_MagnitudeToAdd$ = -28					; size = 8
_MagnitudeRemaining$ = -20				; size = 8
_MagnitudeSoFar$ = -12					; size = 8
_this$ = -4						; size = 4
_RunningTot$ = 8					; size = 4
_ForceToAdd$ = 12					; size = 16
?AccumulateForce@AbstSteering@@IAE_NAAUVector2D@@U2@@Z PROC ; AbstSteering::AccumulateForce
; _this$ = ecx

; 90   : {  

	push	ebp
	mov	ebp, esp
	sub	esp, 60					; 0000003cH
	push	edi
	push	ecx
	lea	edi, DWORD PTR [ebp-60]
	mov	ecx, 15					; 0000000fH
	mov	eax, -858993460				; ccccccccH
	rep stosd
	pop	ecx
	mov	DWORD PTR _this$[ebp], ecx

; 91   :   //calculate how much steering force the vehicle has used so far
; 92   :   double MagnitudeSoFar = RunningTot.Length();

	mov	ecx, DWORD PTR _RunningTot$[ebp]
	call	?Length@Vector2D@@QBENXZ		; Vector2D::Length
	fstp	QWORD PTR _MagnitudeSoFar$[ebp]

; 93   : 
; 94   :   //calculate how much steering force remains to be used by this vehicle
; 95   :   double MagnitudeRemaining = m_pRaven_Bot->MaxForce() - MagnitudeSoFar;

	mov	eax, DWORD PTR _this$[ebp]
	mov	ecx, DWORD PTR [eax+8]
	call	?MaxForce@MovingEntity@@QBENXZ		; MovingEntity::MaxForce
	fsub	QWORD PTR _MagnitudeSoFar$[ebp]
	fstp	QWORD PTR _MagnitudeRemaining$[ebp]

; 96   : 
; 97   :   //return false if there is no more force left to use
; 98   :   if (MagnitudeRemaining <= 0.0) return false;

	fldz
	fcomp	QWORD PTR _MagnitudeRemaining$[ebp]
	fnstsw	ax
	test	ah, 1
	jne	SHORT $LN3@Accumulate
	xor	al, al
	jmp	SHORT $LN4@Accumulate
$LN3@Accumulate:

; 99   : 
; 100  :   //calculate the magnitude of the force we want to add
; 101  :   double MagnitudeToAdd = ForceToAdd.Length();

	lea	ecx, DWORD PTR _ForceToAdd$[ebp]
	call	?Length@Vector2D@@QBENXZ		; Vector2D::Length
	fstp	QWORD PTR _MagnitudeToAdd$[ebp]

; 102  :   
; 103  :   //if the magnitude of the sum of ForceToAdd and the running total
; 104  :   //does not exceed the maximum force available to this vehicle, just
; 105  :   //add together. Otherwise add as much of the ForceToAdd vector is
; 106  :   //possible without going over the max.
; 107  :   if (MagnitudeToAdd < MagnitudeRemaining)

	fld	QWORD PTR _MagnitudeRemaining$[ebp]
	fcomp	QWORD PTR _MagnitudeToAdd$[ebp]
	fnstsw	ax
	test	ah, 65					; 00000041H
	jne	SHORT $LN2@Accumulate

; 108  :   {
; 109  :     RunningTot += ForceToAdd;

	lea	ecx, DWORD PTR _ForceToAdd$[ebp]
	push	ecx
	mov	ecx, DWORD PTR _RunningTot$[ebp]
	call	??YVector2D@@QAEABU0@ABU0@@Z		; Vector2D::operator+=

; 110  :   }
; 111  : 
; 112  :   else

	jmp	SHORT $LN1@Accumulate
$LN2@Accumulate:

; 113  :   {
; 114  :     MagnitudeToAdd = MagnitudeRemaining;

	fld	QWORD PTR _MagnitudeRemaining$[ebp]
	fstp	QWORD PTR _MagnitudeToAdd$[ebp]

; 115  : 
; 116  :     //add it to the steering force
; 117  :     RunningTot += (Vec2DNormalize(ForceToAdd) * MagnitudeToAdd); 

	sub	esp, 8
	fld	QWORD PTR _MagnitudeToAdd$[ebp]
	fstp	QWORD PTR [esp]
	lea	edx, DWORD PTR _ForceToAdd$[ebp]
	push	edx
	lea	eax, DWORD PTR $T146165[ebp]
	push	eax
	call	?Vec2DNormalize@@YA?AUVector2D@@ABU1@@Z	; Vec2DNormalize
	add	esp, 8
	push	eax
	lea	ecx, DWORD PTR $T146166[ebp]
	push	ecx
	call	??D@YA?AUVector2D@@ABU0@N@Z		; operator*
	add	esp, 16					; 00000010H
	push	eax
	mov	ecx, DWORD PTR _RunningTot$[ebp]
	call	??YVector2D@@QAEABU0@ABU0@@Z		; Vector2D::operator+=
$LN1@Accumulate:

; 118  :   }
; 119  : 
; 120  :   return true;

	mov	al, 1
$LN4@Accumulate:

; 121  : }

	pop	edi
	add	esp, 60					; 0000003cH
	cmp	ebp, esp
	call	__RTC_CheckEsp
	mov	esp, ebp
	pop	ebp
	ret	20					; 00000014H
?AccumulateForce@AbstSteering@@IAE_NAAUVector2D@@U2@@Z ENDP ; AbstSteering::AccumulateForce
; Function compile flags: /Odtp /RTCsu
; File c:\users\teaja\documents\artificial-fun\labravenprojecttest\common\2d\vector2d.h
_TEXT	ENDS
;	COMDAT ??YVector2D@@QAEABU0@ABU0@@Z
_TEXT	SEGMENT
_this$ = -4						; size = 4
_rhs$ = 8						; size = 4
??YVector2D@@QAEABU0@ABU0@@Z PROC			; Vector2D::operator+=, COMDAT
; _this$ = ecx

; 68   :   {

	push	ebp
	mov	ebp, esp
	push	ecx
	mov	DWORD PTR [ebp-4], -858993460		; ccccccccH
	mov	DWORD PTR _this$[ebp], ecx

; 69   :     x += rhs.x;

	mov	eax, DWORD PTR _this$[ebp]
	mov	ecx, DWORD PTR _rhs$[ebp]
	fld	QWORD PTR [eax]
	fadd	QWORD PTR [ecx]
	mov	edx, DWORD PTR _this$[ebp]
	fstp	QWORD PTR [edx]

; 70   :     y += rhs.y;

	mov	eax, DWORD PTR _this$[ebp]
	mov	ecx, DWORD PTR _rhs$[ebp]
	fld	QWORD PTR [eax+8]
	fadd	QWORD PTR [ecx+8]
	mov	edx, DWORD PTR _this$[ebp]
	fstp	QWORD PTR [edx+8]

; 71   : 
; 72   :     return *this;

	mov	eax, DWORD PTR _this$[ebp]

; 73   :   }

	mov	esp, ebp
	pop	ebp
	ret	4
??YVector2D@@QAEABU0@ABU0@@Z ENDP			; Vector2D::operator+=
_TEXT	ENDS
EXTRN	_sqrt:PROC
; Function compile flags: /Odtp /RTCsu
;	COMDAT ?Length@Vector2D@@QBENXZ
_TEXT	SEGMENT
_this$ = -4						; size = 4
?Length@Vector2D@@QBENXZ PROC				; Vector2D::Length, COMDAT
; _this$ = ecx

; 128  : {

	push	ebp
	mov	ebp, esp
	push	ecx
	mov	DWORD PTR [ebp-4], -858993460		; ccccccccH
	mov	DWORD PTR _this$[ebp], ecx

; 129  :   return sqrt(x * x + y * y);

	mov	eax, DWORD PTR _this$[ebp]
	mov	ecx, DWORD PTR _this$[ebp]
	fld	QWORD PTR [eax]
	fmul	QWORD PTR [ecx]
	mov	edx, DWORD PTR _this$[ebp]
	mov	eax, DWORD PTR _this$[ebp]
	fld	QWORD PTR [edx+8]
	fmul	QWORD PTR [eax+8]
	faddp	ST(1), ST(0)
	sub	esp, 8
	fstp	QWORD PTR [esp]
	call	_sqrt
	add	esp, 8

; 130  : }

	add	esp, 4
	cmp	ebp, esp
	call	__RTC_CheckEsp
	mov	esp, ebp
	pop	ebp
	ret	0
?Length@Vector2D@@QBENXZ ENDP				; Vector2D::Length
_TEXT	ENDS
PUBLIC	?epsilon@?$numeric_limits@N@std@@SANXZ		; std::numeric_limits<double>::epsilon
EXTRN	@_RTC_CheckStackVars@8:PROC
; Function compile flags: /Odtp /RTCsu
;	COMDAT ?Vec2DNormalize@@YA?AUVector2D@@ABU1@@Z
_TEXT	SEGMENT
_vector_length$ = -32					; size = 8
_vec$ = -20						; size = 16
___$ReturnUdt$ = 8					; size = 4
_v$ = 12						; size = 4
?Vec2DNormalize@@YA?AUVector2D@@ABU1@@Z PROC		; Vec2DNormalize, COMDAT

; 258  : {

	push	ebp
	mov	ebp, esp
	sub	esp, 32					; 00000020H
	mov	eax, -858993460				; ccccccccH
	mov	DWORD PTR [ebp-32], eax
	mov	DWORD PTR [ebp-28], eax
	mov	DWORD PTR [ebp-24], eax
	mov	DWORD PTR [ebp-20], eax
	mov	DWORD PTR [ebp-16], eax
	mov	DWORD PTR [ebp-12], eax
	mov	DWORD PTR [ebp-8], eax
	mov	DWORD PTR [ebp-4], eax

; 259  :   Vector2D vec = v;

	mov	eax, DWORD PTR _v$[ebp]
	fld	QWORD PTR [eax]
	fstp	QWORD PTR _vec$[ebp]
	fld	QWORD PTR [eax+8]
	fstp	QWORD PTR _vec$[ebp+8]

; 260  : 
; 261  :   double vector_length = vec.Length();

	lea	ecx, DWORD PTR _vec$[ebp]
	call	?Length@Vector2D@@QBENXZ		; Vector2D::Length
	fstp	QWORD PTR _vector_length$[ebp]

; 262  : 
; 263  :   if (vector_length > std::numeric_limits<double>::epsilon())

	call	?epsilon@?$numeric_limits@N@std@@SANXZ	; std::numeric_limits<double>::epsilon
	fcomp	QWORD PTR _vector_length$[ebp]
	fnstsw	ax
	test	ah, 5
	jp	SHORT $LN1@Vec2DNorma

; 264  :   {
; 265  :     vec.x /= vector_length;

	fld	QWORD PTR _vec$[ebp]
	fdiv	QWORD PTR _vector_length$[ebp]
	fstp	QWORD PTR _vec$[ebp]

; 266  :     vec.y /= vector_length;

	fld	QWORD PTR _vec$[ebp+8]
	fdiv	QWORD PTR _vector_length$[ebp]
	fstp	QWORD PTR _vec$[ebp+8]
$LN1@Vec2DNorma:

; 267  :   }
; 268  : 
; 269  :   return vec;

	mov	ecx, DWORD PTR ___$ReturnUdt$[ebp]
	fld	QWORD PTR _vec$[ebp]
	fstp	QWORD PTR [ecx]
	fld	QWORD PTR _vec$[ebp+8]
	fstp	QWORD PTR [ecx+8]
	mov	eax, DWORD PTR ___$ReturnUdt$[ebp]

; 270  : }

	push	edx
	mov	ecx, ebp
	push	eax
	lea	edx, DWORD PTR $LN6@Vec2DNorma
	call	@_RTC_CheckStackVars@8
	pop	eax
	pop	edx
	add	esp, 32					; 00000020H
	cmp	ebp, esp
	call	__RTC_CheckEsp
	mov	esp, ebp
	pop	ebp
	ret	0
	npad	3
$LN6@Vec2DNorma:
	DD	1
	DD	$LN5@Vec2DNorma
$LN5@Vec2DNorma:
	DD	-20					; ffffffecH
	DD	16					; 00000010H
	DD	$LN4@Vec2DNorma
$LN4@Vec2DNorma:
	DB	118					; 00000076H
	DB	101					; 00000065H
	DB	99					; 00000063H
	DB	0
?Vec2DNormalize@@YA?AUVector2D@@ABU1@@Z ENDP		; Vec2DNormalize
_TEXT	ENDS
PUBLIC	__real@3cb0000000000000
;	COMDAT __real@3cb0000000000000
; File c:\program files (x86)\microsoft visual studio 10.0\vc\include\limits
CONST	SEGMENT
__real@3cb0000000000000 DQ 03cb0000000000000r	; 2.22045e-016
; Function compile flags: /Odtp /RTCsu
CONST	ENDS
;	COMDAT ?epsilon@?$numeric_limits@N@std@@SANXZ
_TEXT	SEGMENT
?epsilon@?$numeric_limits@N@std@@SANXZ PROC		; std::numeric_limits<double>::epsilon, COMDAT

; 1246 : 		{	// return smallest effective increment from 1.0

	push	ebp
	mov	ebp, esp

; 1247 : 		return (DBL_EPSILON);

	fld	QWORD PTR __real@3cb0000000000000

; 1248 : 		}

	pop	ebp
	ret	0
?epsilon@?$numeric_limits@N@std@@SANXZ ENDP		; std::numeric_limits<double>::epsilon
_TEXT	ENDS
PUBLIC	??XVector2D@@QAEABU0@ABN@Z			; Vector2D::operator*=
; Function compile flags: /Odtp /RTCsu
; File c:\users\teaja\documents\artificial-fun\labravenprojecttest\common\2d\vector2d.h
;	COMDAT ??D@YA?AUVector2D@@ABU0@N@Z
_TEXT	SEGMENT
_result$ = -20						; size = 16
___$ReturnUdt$ = 8					; size = 4
_lhs$ = 12						; size = 4
_rhs$ = 16						; size = 8
??D@YA?AUVector2D@@ABU0@N@Z PROC			; operator*, COMDAT

; 334  : {

	push	ebp
	mov	ebp, esp
	sub	esp, 24					; 00000018H
	mov	eax, -858993460				; ccccccccH
	mov	DWORD PTR [ebp-24], eax
	mov	DWORD PTR [ebp-20], eax
	mov	DWORD PTR [ebp-16], eax
	mov	DWORD PTR [ebp-12], eax
	mov	DWORD PTR [ebp-8], eax
	mov	DWORD PTR [ebp-4], eax

; 335  :   Vector2D result(lhs);

	mov	eax, DWORD PTR _lhs$[ebp]
	mov	ecx, DWORD PTR [eax]
	mov	DWORD PTR _result$[ebp], ecx
	mov	edx, DWORD PTR [eax+4]
	mov	DWORD PTR _result$[ebp+4], edx
	mov	ecx, DWORD PTR [eax+8]
	mov	DWORD PTR _result$[ebp+8], ecx
	mov	edx, DWORD PTR [eax+12]
	mov	DWORD PTR _result$[ebp+12], edx

; 336  :   result *= rhs;

	lea	eax, DWORD PTR _rhs$[ebp]
	push	eax
	lea	ecx, DWORD PTR _result$[ebp]
	call	??XVector2D@@QAEABU0@ABN@Z		; Vector2D::operator*=

; 337  :   return result;

	mov	ecx, DWORD PTR ___$ReturnUdt$[ebp]
	mov	edx, DWORD PTR _result$[ebp]
	mov	DWORD PTR [ecx], edx
	mov	eax, DWORD PTR _result$[ebp+4]
	mov	DWORD PTR [ecx+4], eax
	mov	edx, DWORD PTR _result$[ebp+8]
	mov	DWORD PTR [ecx+8], edx
	mov	eax, DWORD PTR _result$[ebp+12]
	mov	DWORD PTR [ecx+12], eax
	mov	eax, DWORD PTR ___$ReturnUdt$[ebp]

; 338  : }

	push	edx
	mov	ecx, ebp
	push	eax
	lea	edx, DWORD PTR $LN5@operator
	call	@_RTC_CheckStackVars@8
	pop	eax
	pop	edx
	add	esp, 24					; 00000018H
	cmp	ebp, esp
	call	__RTC_CheckEsp
	mov	esp, ebp
	pop	ebp
	ret	0
	npad	1
$LN5@operator:
	DD	1
	DD	$LN4@operator
$LN4@operator:
	DD	-20					; ffffffecH
	DD	16					; 00000010H
	DD	$LN3@operator
$LN3@operator:
	DB	114					; 00000072H
	DB	101					; 00000065H
	DB	115					; 00000073H
	DB	117					; 00000075H
	DB	108					; 0000006cH
	DB	116					; 00000074H
	DB	0
??D@YA?AUVector2D@@ABU0@N@Z ENDP			; operator*
; Function compile flags: /Odtp /RTCsu
_TEXT	ENDS
;	COMDAT ??XVector2D@@QAEABU0@ABN@Z
_TEXT	SEGMENT
_this$ = -4						; size = 4
_rhs$ = 8						; size = 4
??XVector2D@@QAEABU0@ABN@Z PROC				; Vector2D::operator*=, COMDAT
; _this$ = ecx

; 84   :   {

	push	ebp
	mov	ebp, esp
	push	ecx
	mov	DWORD PTR [ebp-4], -858993460		; ccccccccH
	mov	DWORD PTR _this$[ebp], ecx

; 85   :     x *= rhs;

	mov	eax, DWORD PTR _this$[ebp]
	mov	ecx, DWORD PTR _rhs$[ebp]
	fld	QWORD PTR [eax]
	fmul	QWORD PTR [ecx]
	mov	edx, DWORD PTR _this$[ebp]
	fstp	QWORD PTR [edx]

; 86   :     y *= rhs;

	mov	eax, DWORD PTR _this$[ebp]
	mov	ecx, DWORD PTR _rhs$[ebp]
	fld	QWORD PTR [eax+8]
	fmul	QWORD PTR [ecx]
	mov	edx, DWORD PTR _this$[ebp]
	fstp	QWORD PTR [edx+8]

; 87   : 
; 88   :     return *this;

	mov	eax, DWORD PTR _this$[ebp]

; 89   :   }

	mov	esp, ebp
	pop	ebp
	ret	4
??XVector2D@@QAEABU0@ABN@Z ENDP				; Vector2D::operator*=
; Function compile flags: /Odtp /RTCsu
; File c:\users\teaja\documents\artificial-fun\labravenprojecttest\common\game\movingentity.h
_TEXT	ENDS
;	COMDAT ?MaxForce@MovingEntity@@QBENXZ
_TEXT	SEGMENT
_this$ = -4						; size = 4
?MaxForce@MovingEntity@@QBENXZ PROC			; MovingEntity::MaxForce, COMDAT
; _this$ = ecx

; 85   :   double    MaxForce()const{return m_dMaxForce;}

	push	ebp
	mov	ebp, esp
	push	ecx
	mov	DWORD PTR [ebp-4], -858993460		; ccccccccH
	mov	DWORD PTR _this$[ebp], ecx
	mov	eax, DWORD PTR _this$[ebp]
	fld	QWORD PTR [eax+128]
	mov	esp, ebp
	pop	ebp
	ret	0
?MaxForce@MovingEntity@@QBENXZ ENDP			; MovingEntity::MaxForce
_TEXT	ENDS
PUBLIC	?GetAllBots@Raven_Game@@QBEABV?$list@PAVAbstRaven_Bot@@V?$allocator@PAVAbstRaven_Bot@@@std@@@std@@XZ ; Raven_Game::GetAllBots
PUBLIC	?GetWalls@Raven_Map@@QBEABV?$vector@PAVWall2D@@V?$allocator@PAVWall2D@@@std@@@std@@XZ ; Raven_Map::GetWalls
PUBLIC	?GetMap@Raven_Game@@QAEQAVRaven_Map@@XZ		; Raven_Game::GetMap
; Function compile flags: /Odtp /RTCsu
; File c:\users\teaja\documents\artificial-fun\labravenprojecttest\raven\abststeeringbehaviors.cpp
_TEXT	SEGMENT
$T146200 = -188						; size = 16
$T146199 = -172						; size = 16
$T146198 = -156						; size = 16
$T146197 = -140						; size = 16
$T146196 = -124						; size = 16
$T146195 = -108						; size = 16
$T146194 = -92						; size = 16
$T146193 = -76						; size = 16
$T146192 = -60						; size = 16
$T146191 = -44						; size = 16
_force$ = -24						; size = 16
_this$ = -4						; size = 4
___$ReturnUdt$ = 8					; size = 4
?CalculatePrioritized@AbstSteering@@MAE?AUVector2D@@XZ PROC ; AbstSteering::CalculatePrioritized
; _this$ = ecx

; 133  : {       

	push	ebp
	mov	ebp, esp
	sub	esp, 188				; 000000bcH
	push	esi
	push	edi
	push	ecx
	lea	edi, DWORD PTR [ebp-188]
	mov	ecx, 47					; 0000002fH
	mov	eax, -858993460				; ccccccccH
	rep stosd
	pop	ecx
	mov	DWORD PTR _this$[ebp], ecx

; 134  :   Vector2D force;

	lea	ecx, DWORD PTR _force$[ebp]
	call	??0Vector2D@@QAE@XZ			; Vector2D::Vector2D

; 135  : 
; 136  :   if (On(wall_avoidance))

	push	512					; 00000200H
	mov	ecx, DWORD PTR _this$[ebp]
	call	?On@AbstSteering@@IAE_NW4behavior_type@1@@Z ; AbstSteering::On
	movzx	eax, al
	test	eax, eax
	je	$LN9@CalculateP

; 137  :   {
; 138  :     force = WallAvoidance(m_pWorld->GetMap()->GetWalls()) *
; 139  :             m_dWeightWallAvoidance;

	mov	ecx, DWORD PTR _this$[ebp]
	sub	esp, 8
	fld	QWORD PTR [ecx+144]
	fstp	QWORD PTR [esp]
	mov	edx, DWORD PTR _this$[ebp]
	mov	ecx, DWORD PTR [edx+12]
	call	?GetMap@Raven_Game@@QAEQAVRaven_Map@@XZ	; Raven_Game::GetMap
	mov	ecx, eax
	call	?GetWalls@Raven_Map@@QBEABV?$vector@PAVWall2D@@V?$allocator@PAVWall2D@@@std@@@std@@XZ ; Raven_Map::GetWalls
	mov	esi, esp
	push	eax
	lea	eax, DWORD PTR $T146191[ebp]
	push	eax
	mov	ecx, DWORD PTR _this$[ebp]
	mov	edx, DWORD PTR [ecx]
	mov	ecx, DWORD PTR _this$[ebp]
	mov	eax, DWORD PTR [edx+12]
	call	eax
	cmp	esi, esp
	call	__RTC_CheckEsp
	push	eax
	lea	ecx, DWORD PTR $T146192[ebp]
	push	ecx
	call	??D@YA?AUVector2D@@ABU0@N@Z		; operator*
	add	esp, 16					; 00000010H
	mov	edx, DWORD PTR [eax]
	mov	DWORD PTR _force$[ebp], edx
	mov	ecx, DWORD PTR [eax+4]
	mov	DWORD PTR _force$[ebp+4], ecx
	mov	edx, DWORD PTR [eax+8]
	mov	DWORD PTR _force$[ebp+8], edx
	mov	eax, DWORD PTR [eax+12]
	mov	DWORD PTR _force$[ebp+12], eax

; 140  : 
; 141  :     if (!AccumulateForce(m_vSteeringForce, force)) return m_vSteeringForce;

	sub	esp, 16					; 00000010H
	mov	ecx, esp
	mov	edx, DWORD PTR _force$[ebp]
	mov	DWORD PTR [ecx], edx
	mov	eax, DWORD PTR _force$[ebp+4]
	mov	DWORD PTR [ecx+4], eax
	mov	edx, DWORD PTR _force$[ebp+8]
	mov	DWORD PTR [ecx+8], edx
	mov	eax, DWORD PTR _force$[ebp+12]
	mov	DWORD PTR [ecx+12], eax
	mov	ecx, DWORD PTR _this$[ebp]
	add	ecx, 16					; 00000010H
	push	ecx
	mov	ecx, DWORD PTR _this$[ebp]
	call	?AccumulateForce@AbstSteering@@IAE_NAAUVector2D@@U2@@Z ; AbstSteering::AccumulateForce
	movzx	edx, al
	test	edx, edx
	jne	SHORT $LN9@CalculateP
	mov	eax, DWORD PTR _this$[ebp]
	add	eax, 16					; 00000010H
	mov	ecx, DWORD PTR ___$ReturnUdt$[ebp]
	mov	edx, DWORD PTR [eax]
	mov	DWORD PTR [ecx], edx
	mov	edx, DWORD PTR [eax+4]
	mov	DWORD PTR [ecx+4], edx
	mov	edx, DWORD PTR [eax+8]
	mov	DWORD PTR [ecx+8], edx
	mov	eax, DWORD PTR [eax+12]
	mov	DWORD PTR [ecx+12], eax
	mov	eax, DWORD PTR ___$ReturnUdt$[ebp]
	jmp	$LN11@CalculateP
$LN9@CalculateP:

; 142  :   }
; 143  : 
; 144  :  
; 145  :   //these next three can be combined for flocking behavior (wander is
; 146  :   //also a good behavior to add into this mix)
; 147  : 
; 148  :     if (On(separation))

	push	64					; 00000040H
	mov	ecx, DWORD PTR _this$[ebp]
	call	?On@AbstSteering@@IAE_NW4behavior_type@1@@Z ; AbstSteering::On
	movzx	ecx, al
	test	ecx, ecx
	je	$LN7@CalculateP

; 149  :     {
; 150  :       force = Separation(m_pWorld->GetAllBots()) * m_dWeightSeparation;

	mov	edx, DWORD PTR _this$[ebp]
	sub	esp, 8
	fld	QWORD PTR [edx+128]
	fstp	QWORD PTR [esp]
	mov	eax, DWORD PTR _this$[ebp]
	mov	ecx, DWORD PTR [eax+12]
	call	?GetAllBots@Raven_Game@@QBEABV?$list@PAVAbstRaven_Bot@@V?$allocator@PAVAbstRaven_Bot@@@std@@@std@@XZ ; Raven_Game::GetAllBots
	mov	esi, esp
	push	eax
	lea	ecx, DWORD PTR $T146193[ebp]
	push	ecx
	mov	edx, DWORD PTR _this$[ebp]
	mov	eax, DWORD PTR [edx]
	mov	ecx, DWORD PTR _this$[ebp]
	mov	edx, DWORD PTR [eax+16]
	call	edx
	cmp	esi, esp
	call	__RTC_CheckEsp
	push	eax
	lea	eax, DWORD PTR $T146194[ebp]
	push	eax
	call	??D@YA?AUVector2D@@ABU0@N@Z		; operator*
	add	esp, 16					; 00000010H
	mov	ecx, DWORD PTR [eax]
	mov	DWORD PTR _force$[ebp], ecx
	mov	edx, DWORD PTR [eax+4]
	mov	DWORD PTR _force$[ebp+4], edx
	mov	ecx, DWORD PTR [eax+8]
	mov	DWORD PTR _force$[ebp+8], ecx
	mov	edx, DWORD PTR [eax+12]
	mov	DWORD PTR _force$[ebp+12], edx

; 151  : 
; 152  :       if (!AccumulateForce(m_vSteeringForce, force)) return m_vSteeringForce;

	sub	esp, 16					; 00000010H
	mov	eax, esp
	mov	ecx, DWORD PTR _force$[ebp]
	mov	DWORD PTR [eax], ecx
	mov	edx, DWORD PTR _force$[ebp+4]
	mov	DWORD PTR [eax+4], edx
	mov	ecx, DWORD PTR _force$[ebp+8]
	mov	DWORD PTR [eax+8], ecx
	mov	edx, DWORD PTR _force$[ebp+12]
	mov	DWORD PTR [eax+12], edx
	mov	eax, DWORD PTR _this$[ebp]
	add	eax, 16					; 00000010H
	push	eax
	mov	ecx, DWORD PTR _this$[ebp]
	call	?AccumulateForce@AbstSteering@@IAE_NAAUVector2D@@U2@@Z ; AbstSteering::AccumulateForce
	movzx	ecx, al
	test	ecx, ecx
	jne	SHORT $LN7@CalculateP
	mov	edx, DWORD PTR _this$[ebp]
	add	edx, 16					; 00000010H
	mov	eax, DWORD PTR ___$ReturnUdt$[ebp]
	mov	ecx, DWORD PTR [edx]
	mov	DWORD PTR [eax], ecx
	mov	ecx, DWORD PTR [edx+4]
	mov	DWORD PTR [eax+4], ecx
	mov	ecx, DWORD PTR [edx+8]
	mov	DWORD PTR [eax+8], ecx
	mov	edx, DWORD PTR [edx+12]
	mov	DWORD PTR [eax+12], edx
	mov	eax, DWORD PTR ___$ReturnUdt$[ebp]
	jmp	$LN11@CalculateP
$LN7@CalculateP:

; 153  :     }
; 154  : 
; 155  : 
; 156  :   if (On(seek))

	push	2
	mov	ecx, DWORD PTR _this$[ebp]
	call	?On@AbstSteering@@IAE_NW4behavior_type@1@@Z ; AbstSteering::On
	movzx	eax, al
	test	eax, eax
	je	$LN5@CalculateP

; 157  :   {
; 158  :     force = Seek(m_vTarget) * m_dWeightSeek;

	mov	ecx, DWORD PTR _this$[ebp]
	sub	esp, 8
	fld	QWORD PTR [ecx+152]
	fstp	QWORD PTR [esp]
	mov	edx, DWORD PTR _this$[ebp]
	add	edx, 40					; 00000028H
	mov	esi, esp
	push	edx
	lea	eax, DWORD PTR $T146195[ebp]
	push	eax
	mov	ecx, DWORD PTR _this$[ebp]
	mov	edx, DWORD PTR [ecx]
	mov	ecx, DWORD PTR _this$[ebp]
	mov	eax, DWORD PTR [edx]
	call	eax
	cmp	esi, esp
	call	__RTC_CheckEsp
	push	eax
	lea	ecx, DWORD PTR $T146196[ebp]
	push	ecx
	call	??D@YA?AUVector2D@@ABU0@N@Z		; operator*
	add	esp, 16					; 00000010H
	mov	edx, DWORD PTR [eax]
	mov	DWORD PTR _force$[ebp], edx
	mov	ecx, DWORD PTR [eax+4]
	mov	DWORD PTR _force$[ebp+4], ecx
	mov	edx, DWORD PTR [eax+8]
	mov	DWORD PTR _force$[ebp+8], edx
	mov	eax, DWORD PTR [eax+12]
	mov	DWORD PTR _force$[ebp+12], eax

; 159  : 
; 160  :     if (!AccumulateForce(m_vSteeringForce, force)) return m_vSteeringForce;

	sub	esp, 16					; 00000010H
	mov	ecx, esp
	mov	edx, DWORD PTR _force$[ebp]
	mov	DWORD PTR [ecx], edx
	mov	eax, DWORD PTR _force$[ebp+4]
	mov	DWORD PTR [ecx+4], eax
	mov	edx, DWORD PTR _force$[ebp+8]
	mov	DWORD PTR [ecx+8], edx
	mov	eax, DWORD PTR _force$[ebp+12]
	mov	DWORD PTR [ecx+12], eax
	mov	ecx, DWORD PTR _this$[ebp]
	add	ecx, 16					; 00000010H
	push	ecx
	mov	ecx, DWORD PTR _this$[ebp]
	call	?AccumulateForce@AbstSteering@@IAE_NAAUVector2D@@U2@@Z ; AbstSteering::AccumulateForce
	movzx	edx, al
	test	edx, edx
	jne	SHORT $LN5@CalculateP
	mov	eax, DWORD PTR _this$[ebp]
	add	eax, 16					; 00000010H
	mov	ecx, DWORD PTR ___$ReturnUdt$[ebp]
	mov	edx, DWORD PTR [eax]
	mov	DWORD PTR [ecx], edx
	mov	edx, DWORD PTR [eax+4]
	mov	DWORD PTR [ecx+4], edx
	mov	edx, DWORD PTR [eax+8]
	mov	DWORD PTR [ecx+8], edx
	mov	eax, DWORD PTR [eax+12]
	mov	DWORD PTR [ecx+12], eax
	mov	eax, DWORD PTR ___$ReturnUdt$[ebp]
	jmp	$LN11@CalculateP
$LN5@CalculateP:

; 161  :   }
; 162  : 
; 163  : 
; 164  :   if (On(arrive))

	push	8
	mov	ecx, DWORD PTR _this$[ebp]
	call	?On@AbstSteering@@IAE_NW4behavior_type@1@@Z ; AbstSteering::On
	movzx	ecx, al
	test	ecx, ecx
	je	$LN3@CalculateP

; 165  :   {
; 166  :     force = Arrive(m_vTarget, m_Deceleration) * m_dWeightArrive;

	mov	edx, DWORD PTR _this$[ebp]
	sub	esp, 8
	fld	QWORD PTR [edx+160]
	fstp	QWORD PTR [esp]
	mov	esi, esp
	mov	eax, DWORD PTR _this$[ebp]
	mov	ecx, DWORD PTR [eax+180]
	push	ecx
	mov	edx, DWORD PTR _this$[ebp]
	add	edx, 40					; 00000028H
	push	edx
	lea	eax, DWORD PTR $T146197[ebp]
	push	eax
	mov	ecx, DWORD PTR _this$[ebp]
	mov	edx, DWORD PTR [ecx]
	mov	ecx, DWORD PTR _this$[ebp]
	mov	eax, DWORD PTR [edx+4]
	call	eax
	cmp	esi, esp
	call	__RTC_CheckEsp
	push	eax
	lea	ecx, DWORD PTR $T146198[ebp]
	push	ecx
	call	??D@YA?AUVector2D@@ABU0@N@Z		; operator*
	add	esp, 16					; 00000010H
	mov	edx, DWORD PTR [eax]
	mov	DWORD PTR _force$[ebp], edx
	mov	ecx, DWORD PTR [eax+4]
	mov	DWORD PTR _force$[ebp+4], ecx
	mov	edx, DWORD PTR [eax+8]
	mov	DWORD PTR _force$[ebp+8], edx
	mov	eax, DWORD PTR [eax+12]
	mov	DWORD PTR _force$[ebp+12], eax

; 167  : 
; 168  :     if (!AccumulateForce(m_vSteeringForce, force)) return m_vSteeringForce;

	sub	esp, 16					; 00000010H
	mov	ecx, esp
	mov	edx, DWORD PTR _force$[ebp]
	mov	DWORD PTR [ecx], edx
	mov	eax, DWORD PTR _force$[ebp+4]
	mov	DWORD PTR [ecx+4], eax
	mov	edx, DWORD PTR _force$[ebp+8]
	mov	DWORD PTR [ecx+8], edx
	mov	eax, DWORD PTR _force$[ebp+12]
	mov	DWORD PTR [ecx+12], eax
	mov	ecx, DWORD PTR _this$[ebp]
	add	ecx, 16					; 00000010H
	push	ecx
	mov	ecx, DWORD PTR _this$[ebp]
	call	?AccumulateForce@AbstSteering@@IAE_NAAUVector2D@@U2@@Z ; AbstSteering::AccumulateForce
	movzx	edx, al
	test	edx, edx
	jne	SHORT $LN3@CalculateP
	mov	eax, DWORD PTR _this$[ebp]
	add	eax, 16					; 00000010H
	mov	ecx, DWORD PTR ___$ReturnUdt$[ebp]
	mov	edx, DWORD PTR [eax]
	mov	DWORD PTR [ecx], edx
	mov	edx, DWORD PTR [eax+4]
	mov	DWORD PTR [ecx+4], edx
	mov	edx, DWORD PTR [eax+8]
	mov	DWORD PTR [ecx+8], edx
	mov	eax, DWORD PTR [eax+12]
	mov	DWORD PTR [ecx+12], eax
	mov	eax, DWORD PTR ___$ReturnUdt$[ebp]
	jmp	$LN11@CalculateP
$LN3@CalculateP:

; 169  :   }
; 170  : 
; 171  :   if (On(wander))

	push	16					; 00000010H
	mov	ecx, DWORD PTR _this$[ebp]
	call	?On@AbstSteering@@IAE_NW4behavior_type@1@@Z ; AbstSteering::On
	movzx	ecx, al
	test	ecx, ecx
	je	$LN1@CalculateP

; 172  :   {
; 173  :     force = Wander() * m_dWeightWander;

	mov	edx, DWORD PTR _this$[ebp]
	sub	esp, 8
	fld	QWORD PTR [edx+136]
	fstp	QWORD PTR [esp]
	mov	esi, esp
	lea	eax, DWORD PTR $T146199[ebp]
	push	eax
	mov	ecx, DWORD PTR _this$[ebp]
	mov	edx, DWORD PTR [ecx]
	mov	ecx, DWORD PTR _this$[ebp]
	mov	eax, DWORD PTR [edx+8]
	call	eax
	cmp	esi, esp
	call	__RTC_CheckEsp
	push	eax
	lea	ecx, DWORD PTR $T146200[ebp]
	push	ecx
	call	??D@YA?AUVector2D@@ABU0@N@Z		; operator*
	add	esp, 16					; 00000010H
	mov	edx, DWORD PTR [eax]
	mov	DWORD PTR _force$[ebp], edx
	mov	ecx, DWORD PTR [eax+4]
	mov	DWORD PTR _force$[ebp+4], ecx
	mov	edx, DWORD PTR [eax+8]
	mov	DWORD PTR _force$[ebp+8], edx
	mov	eax, DWORD PTR [eax+12]
	mov	DWORD PTR _force$[ebp+12], eax

; 174  : 
; 175  :     if (!AccumulateForce(m_vSteeringForce, force)) return m_vSteeringForce;

	sub	esp, 16					; 00000010H
	mov	ecx, esp
	mov	edx, DWORD PTR _force$[ebp]
	mov	DWORD PTR [ecx], edx
	mov	eax, DWORD PTR _force$[ebp+4]
	mov	DWORD PTR [ecx+4], eax
	mov	edx, DWORD PTR _force$[ebp+8]
	mov	DWORD PTR [ecx+8], edx
	mov	eax, DWORD PTR _force$[ebp+12]
	mov	DWORD PTR [ecx+12], eax
	mov	ecx, DWORD PTR _this$[ebp]
	add	ecx, 16					; 00000010H
	push	ecx
	mov	ecx, DWORD PTR _this$[ebp]
	call	?AccumulateForce@AbstSteering@@IAE_NAAUVector2D@@U2@@Z ; AbstSteering::AccumulateForce
	movzx	edx, al
	test	edx, edx
	jne	SHORT $LN1@CalculateP
	mov	eax, DWORD PTR _this$[ebp]
	add	eax, 16					; 00000010H
	mov	ecx, DWORD PTR ___$ReturnUdt$[ebp]
	mov	edx, DWORD PTR [eax]
	mov	DWORD PTR [ecx], edx
	mov	edx, DWORD PTR [eax+4]
	mov	DWORD PTR [ecx+4], edx
	mov	edx, DWORD PTR [eax+8]
	mov	DWORD PTR [ecx+8], edx
	mov	eax, DWORD PTR [eax+12]
	mov	DWORD PTR [ecx+12], eax
	mov	eax, DWORD PTR ___$ReturnUdt$[ebp]
	jmp	SHORT $LN11@CalculateP
$LN1@CalculateP:

; 176  :   }
; 177  : 
; 178  : 
; 179  :   return m_vSteeringForce;

	mov	ecx, DWORD PTR _this$[ebp]
	add	ecx, 16					; 00000010H
	mov	edx, DWORD PTR ___$ReturnUdt$[ebp]
	mov	eax, DWORD PTR [ecx]
	mov	DWORD PTR [edx], eax
	mov	eax, DWORD PTR [ecx+4]
	mov	DWORD PTR [edx+4], eax
	mov	eax, DWORD PTR [ecx+8]
	mov	DWORD PTR [edx+8], eax
	mov	ecx, DWORD PTR [ecx+12]
	mov	DWORD PTR [edx+12], ecx
	mov	eax, DWORD PTR ___$ReturnUdt$[ebp]
$LN11@CalculateP:

; 180  : }

	push	edx
	mov	ecx, ebp
	push	eax
	lea	edx, DWORD PTR $LN15@CalculateP
	call	@_RTC_CheckStackVars@8
	pop	eax
	pop	edx
	pop	edi
	pop	esi
	add	esp, 188				; 000000bcH
	cmp	ebp, esp
	call	__RTC_CheckEsp
	mov	esp, ebp
	pop	ebp
	ret	4
	npad	1
$LN15@CalculateP:
	DD	1
	DD	$LN14@CalculateP
$LN14@CalculateP:
	DD	-24					; ffffffe8H
	DD	16					; 00000010H
	DD	$LN13@CalculateP
$LN13@CalculateP:
	DB	102					; 00000066H
	DB	111					; 0000006fH
	DB	114					; 00000072H
	DB	99					; 00000063H
	DB	101					; 00000065H
	DB	0
?CalculatePrioritized@AbstSteering@@MAE?AUVector2D@@XZ ENDP ; AbstSteering::CalculatePrioritized
; Function compile flags: /Odtp /RTCsu
; File c:\users\teaja\documents\artificial-fun\labravenprojecttest\raven\raven_game.h
_TEXT	ENDS
;	COMDAT ?GetMap@Raven_Game@@QAEQAVRaven_Map@@XZ
_TEXT	SEGMENT
_this$ = -4						; size = 4
?GetMap@Raven_Game@@QAEQAVRaven_Map@@XZ PROC		; Raven_Game::GetMap, COMDAT
; _this$ = ecx

; 166  :   Raven_Map* const                         GetMap(){return m_pMap;}

	push	ebp
	mov	ebp, esp
	push	ecx
	mov	DWORD PTR [ebp-4], -858993460		; ccccccccH
	mov	DWORD PTR _this$[ebp], ecx
	mov	eax, DWORD PTR _this$[ebp]
	mov	eax, DWORD PTR [eax+12]
	mov	esp, ebp
	pop	ebp
	ret	0
?GetMap@Raven_Game@@QAEQAVRaven_Map@@XZ ENDP		; Raven_Game::GetMap
; Function compile flags: /Odtp /RTCsu
_TEXT	ENDS
;	COMDAT ?GetAllBots@Raven_Game@@QBEABV?$list@PAVAbstRaven_Bot@@V?$allocator@PAVAbstRaven_Bot@@@std@@@std@@XZ
_TEXT	SEGMENT
_this$ = -4						; size = 4
?GetAllBots@Raven_Game@@QBEABV?$list@PAVAbstRaven_Bot@@V?$allocator@PAVAbstRaven_Bot@@@std@@@std@@XZ PROC ; Raven_Game::GetAllBots, COMDAT
; _this$ = ecx

; 167  :   const std::list<AbstRaven_Bot*>&             GetAllBots()const{return m_Bots;}

	push	ebp
	mov	ebp, esp
	push	ecx
	mov	DWORD PTR [ebp-4], -858993460		; ccccccccH
	mov	DWORD PTR _this$[ebp], ecx
	mov	eax, DWORD PTR _this$[ebp]
	add	eax, 16					; 00000010H
	mov	esp, ebp
	pop	ebp
	ret	0
?GetAllBots@Raven_Game@@QBEABV?$list@PAVAbstRaven_Bot@@V?$allocator@PAVAbstRaven_Bot@@@std@@@std@@XZ ENDP ; Raven_Game::GetAllBots
; Function compile flags: /Odtp /RTCsu
; File c:\users\teaja\documents\artificial-fun\labravenprojecttest\raven\raven_map.h
_TEXT	ENDS
;	COMDAT ?GetWalls@Raven_Map@@QBEABV?$vector@PAVWall2D@@V?$allocator@PAVWall2D@@@std@@@std@@XZ
_TEXT	SEGMENT
_this$ = -4						; size = 4
?GetWalls@Raven_Map@@QBEABV?$vector@PAVWall2D@@V?$allocator@PAVWall2D@@@std@@@std@@XZ PROC ; Raven_Map::GetWalls, COMDAT
; _this$ = ecx

; 115  :   const std::vector<Wall2D*>&        GetWalls()const{return m_Walls;}

	push	ebp
	mov	ebp, esp
	push	ecx
	mov	DWORD PTR [ebp-4], -858993460		; ccccccccH
	mov	DWORD PTR _this$[ebp], ecx
	mov	eax, DWORD PTR _this$[ebp]
	mov	esp, ebp
	pop	ebp
	ret	0
?GetWalls@Raven_Map@@QBEABV?$vector@PAVWall2D@@V?$allocator@PAVWall2D@@@std@@@std@@XZ ENDP ; Raven_Map::GetWalls
_TEXT	ENDS
PUBLIC	?Velocity@MovingEntity@@QBE?AUVector2D@@XZ	; MovingEntity::Velocity
PUBLIC	??G@YA?AUVector2D@@ABU0@0@Z			; operator-
PUBLIC	?Pos@BaseGameEntity@@QBE?AUVector2D@@XZ		; BaseGameEntity::Pos
PUBLIC	?MaxSpeed@MovingEntity@@QBENXZ			; MovingEntity::MaxSpeed
; Function compile flags: /Odtp /RTCsu
; File c:\users\teaja\documents\artificial-fun\labravenprojecttest\raven\abststeeringbehaviors.cpp
_TEXT	SEGMENT
$T146214 = -92						; size = 16
$T146213 = -76						; size = 16
$T146212 = -60						; size = 16
$T146211 = -44						; size = 16
_DesiredVelocity$ = -24					; size = 16
_this$ = -4						; size = 4
___$ReturnUdt$ = 8					; size = 4
_target$ = 12						; size = 4
?Seek@AbstSteering@@MAE?AUVector2D@@ABU2@@Z PROC	; AbstSteering::Seek
; _this$ = ecx

; 191  : {

	push	ebp
	mov	ebp, esp
	sub	esp, 92					; 0000005cH
	push	edi
	push	ecx
	lea	edi, DWORD PTR [ebp-92]
	mov	ecx, 23					; 00000017H
	mov	eax, -858993460				; ccccccccH
	rep stosd
	pop	ecx
	mov	DWORD PTR _this$[ebp], ecx

; 192  :  
; 193  :   Vector2D DesiredVelocity = Vec2DNormalize(target - m_pRaven_Bot->Pos())
; 194  :                             * m_pRaven_Bot->MaxSpeed();

	mov	eax, DWORD PTR _this$[ebp]
	mov	ecx, DWORD PTR [eax+8]
	call	?MaxSpeed@MovingEntity@@QBENXZ		; MovingEntity::MaxSpeed
	sub	esp, 8
	fstp	QWORD PTR [esp]
	lea	ecx, DWORD PTR $T146211[ebp]
	push	ecx
	mov	edx, DWORD PTR _this$[ebp]
	mov	ecx, DWORD PTR [edx+8]
	call	?Pos@BaseGameEntity@@QBE?AUVector2D@@XZ	; BaseGameEntity::Pos
	push	eax
	mov	eax, DWORD PTR _target$[ebp]
	push	eax
	lea	ecx, DWORD PTR $T146212[ebp]
	push	ecx
	call	??G@YA?AUVector2D@@ABU0@0@Z		; operator-
	add	esp, 12					; 0000000cH
	push	eax
	lea	edx, DWORD PTR $T146213[ebp]
	push	edx
	call	?Vec2DNormalize@@YA?AUVector2D@@ABU1@@Z	; Vec2DNormalize
	add	esp, 8
	push	eax
	lea	eax, DWORD PTR _DesiredVelocity$[ebp]
	push	eax
	call	??D@YA?AUVector2D@@ABU0@N@Z		; operator*
	add	esp, 16					; 00000010H

; 195  : 
; 196  :   return (DesiredVelocity - m_pRaven_Bot->Velocity());

	lea	ecx, DWORD PTR $T146214[ebp]
	push	ecx
	mov	edx, DWORD PTR _this$[ebp]
	mov	ecx, DWORD PTR [edx+8]
	call	?Velocity@MovingEntity@@QBE?AUVector2D@@XZ ; MovingEntity::Velocity
	push	eax
	lea	eax, DWORD PTR _DesiredVelocity$[ebp]
	push	eax
	mov	ecx, DWORD PTR ___$ReturnUdt$[ebp]
	push	ecx
	call	??G@YA?AUVector2D@@ABU0@0@Z		; operator-
	add	esp, 12					; 0000000cH
	mov	eax, DWORD PTR ___$ReturnUdt$[ebp]

; 197  : }

	push	edx
	mov	ecx, ebp
	push	eax
	lea	edx, DWORD PTR $LN5@Seek
	call	@_RTC_CheckStackVars@8
	pop	eax
	pop	edx
	pop	edi
	add	esp, 92					; 0000005cH
	cmp	ebp, esp
	call	__RTC_CheckEsp
	mov	esp, ebp
	pop	ebp
	ret	8
	npad	1
$LN5@Seek:
	DD	1
	DD	$LN4@Seek
$LN4@Seek:
	DD	-24					; ffffffe8H
	DD	16					; 00000010H
	DD	$LN3@Seek
$LN3@Seek:
	DB	68					; 00000044H
	DB	101					; 00000065H
	DB	115					; 00000073H
	DB	105					; 00000069H
	DB	114					; 00000072H
	DB	101					; 00000065H
	DB	100					; 00000064H
	DB	86					; 00000056H
	DB	101					; 00000065H
	DB	108					; 0000006cH
	DB	111					; 0000006fH
	DB	99					; 00000063H
	DB	105					; 00000069H
	DB	116					; 00000074H
	DB	121					; 00000079H
	DB	0
?Seek@AbstSteering@@MAE?AUVector2D@@ABU2@@Z ENDP	; AbstSteering::Seek
; Function compile flags: /Odtp /RTCsu
; File c:\users\teaja\documents\artificial-fun\labravenprojecttest\common\2d\vector2d.h
_TEXT	ENDS
;	COMDAT ??G@YA?AUVector2D@@ABU0@0@Z
_TEXT	SEGMENT
_result$ = -20						; size = 16
___$ReturnUdt$ = 8					; size = 4
_lhs$ = 12						; size = 4
_rhs$ = 16						; size = 4
??G@YA?AUVector2D@@ABU0@0@Z PROC			; operator-, COMDAT

; 349  : {

	push	ebp
	mov	ebp, esp
	sub	esp, 24					; 00000018H
	mov	eax, -858993460				; ccccccccH
	mov	DWORD PTR [ebp-24], eax
	mov	DWORD PTR [ebp-20], eax
	mov	DWORD PTR [ebp-16], eax
	mov	DWORD PTR [ebp-12], eax
	mov	DWORD PTR [ebp-8], eax
	mov	DWORD PTR [ebp-4], eax

; 350  :   Vector2D result(lhs);

	mov	eax, DWORD PTR _lhs$[ebp]
	fld	QWORD PTR [eax]
	fstp	QWORD PTR _result$[ebp]
	fld	QWORD PTR [eax+8]
	fstp	QWORD PTR _result$[ebp+8]

; 351  :   result.x -= rhs.x;

	mov	ecx, DWORD PTR _rhs$[ebp]
	fld	QWORD PTR _result$[ebp]
	fsub	QWORD PTR [ecx]
	fstp	QWORD PTR _result$[ebp]

; 352  :   result.y -= rhs.y;

	mov	edx, DWORD PTR _rhs$[ebp]
	fld	QWORD PTR _result$[ebp+8]
	fsub	QWORD PTR [edx+8]
	fstp	QWORD PTR _result$[ebp+8]

; 353  :   
; 354  :   return result;

	mov	eax, DWORD PTR ___$ReturnUdt$[ebp]
	fld	QWORD PTR _result$[ebp]
	fstp	QWORD PTR [eax]
	fld	QWORD PTR _result$[ebp+8]
	fstp	QWORD PTR [eax+8]
	mov	eax, DWORD PTR ___$ReturnUdt$[ebp]

; 355  : }

	push	edx
	mov	ecx, ebp
	push	eax
	lea	edx, DWORD PTR $LN5@operator@2
	call	@_RTC_CheckStackVars@8
	pop	eax
	pop	edx
	mov	esp, ebp
	pop	ebp
	ret	0
$LN5@operator@2:
	DD	1
	DD	$LN4@operator@2
$LN4@operator@2:
	DD	-20					; ffffffecH
	DD	16					; 00000010H
	DD	$LN3@operator@2
$LN3@operator@2:
	DB	114					; 00000072H
	DB	101					; 00000065H
	DB	115					; 00000073H
	DB	117					; 00000075H
	DB	108					; 0000006cH
	DB	116					; 00000074H
	DB	0
??G@YA?AUVector2D@@ABU0@0@Z ENDP			; operator-
; Function compile flags: /Odtp /RTCsu
; File c:\users\teaja\documents\artificial-fun\labravenprojecttest\common\game\basegameentity.h
_TEXT	ENDS
;	COMDAT ?Pos@BaseGameEntity@@QBE?AUVector2D@@XZ
_TEXT	SEGMENT
_this$ = -4						; size = 4
___$ReturnUdt$ = 8					; size = 4
?Pos@BaseGameEntity@@QBE?AUVector2D@@XZ PROC		; BaseGameEntity::Pos, COMDAT
; _this$ = ecx

; 89   :   Vector2D     Pos()const{return m_vPosition;}

	push	ebp
	mov	ebp, esp
	push	ecx
	mov	DWORD PTR [ebp-4], -858993460		; ccccccccH
	mov	DWORD PTR _this$[ebp], ecx
	mov	eax, DWORD PTR _this$[ebp]
	add	eax, 24					; 00000018H
	mov	ecx, DWORD PTR ___$ReturnUdt$[ebp]
	mov	edx, DWORD PTR [eax]
	mov	DWORD PTR [ecx], edx
	mov	edx, DWORD PTR [eax+4]
	mov	DWORD PTR [ecx+4], edx
	mov	edx, DWORD PTR [eax+8]
	mov	DWORD PTR [ecx+8], edx
	mov	eax, DWORD PTR [eax+12]
	mov	DWORD PTR [ecx+12], eax
	mov	eax, DWORD PTR ___$ReturnUdt$[ebp]
	mov	esp, ebp
	pop	ebp
	ret	4
?Pos@BaseGameEntity@@QBE?AUVector2D@@XZ ENDP		; BaseGameEntity::Pos
; Function compile flags: /Odtp /RTCsu
; File c:\users\teaja\documents\artificial-fun\labravenprojecttest\common\game\movingentity.h
_TEXT	ENDS
;	COMDAT ?Velocity@MovingEntity@@QBE?AUVector2D@@XZ
_TEXT	SEGMENT
_this$ = -4						; size = 4
___$ReturnUdt$ = 8					; size = 4
?Velocity@MovingEntity@@QBE?AUVector2D@@XZ PROC		; MovingEntity::Velocity, COMDAT
; _this$ = ecx

; 75   :   Vector2D  Velocity()const{return m_vVelocity;}

	push	ebp
	mov	ebp, esp
	push	ecx
	mov	DWORD PTR [ebp-4], -858993460		; ccccccccH
	mov	DWORD PTR _this$[ebp], ecx
	mov	eax, DWORD PTR _this$[ebp]
	add	eax, 64					; 00000040H
	mov	ecx, DWORD PTR ___$ReturnUdt$[ebp]
	mov	edx, DWORD PTR [eax]
	mov	DWORD PTR [ecx], edx
	mov	edx, DWORD PTR [eax+4]
	mov	DWORD PTR [ecx+4], edx
	mov	edx, DWORD PTR [eax+8]
	mov	DWORD PTR [ecx+8], edx
	mov	eax, DWORD PTR [eax+12]
	mov	DWORD PTR [ecx+12], eax
	mov	eax, DWORD PTR ___$ReturnUdt$[ebp]
	mov	esp, ebp
	pop	ebp
	ret	4
?Velocity@MovingEntity@@QBE?AUVector2D@@XZ ENDP		; MovingEntity::Velocity
; Function compile flags: /Odtp /RTCsu
_TEXT	ENDS
;	COMDAT ?MaxSpeed@MovingEntity@@QBENXZ
_TEXT	SEGMENT
_this$ = -4						; size = 4
?MaxSpeed@MovingEntity@@QBENXZ PROC			; MovingEntity::MaxSpeed, COMDAT
; _this$ = ecx

; 82   :   double    MaxSpeed()const{return m_dMaxSpeed;}                       

	push	ebp
	mov	ebp, esp
	push	ecx
	mov	DWORD PTR [ebp-4], -858993460		; ccccccccH
	mov	DWORD PTR _this$[ebp], ecx
	mov	eax, DWORD PTR _this$[ebp]
	fld	QWORD PTR [eax+120]
	mov	esp, ebp
	pop	ebp
	ret	0
?MaxSpeed@MovingEntity@@QBENXZ ENDP			; MovingEntity::MaxSpeed
_TEXT	ENDS
PUBLIC	??0Vector2D@@QAE@NN@Z				; Vector2D::Vector2D
PUBLIC	??K@YA?AUVector2D@@ABU0@N@Z			; operator/
PUBLIC	??$MinOf@N@@YANABN0@Z				; MinOf<double>
PUBLIC	__real@3fd3333333333333
;	COMDAT __real@3fd3333333333333
; File c:\users\teaja\documents\artificial-fun\labravenprojecttest\raven\abststeeringbehaviors.cpp
CONST	SEGMENT
__real@3fd3333333333333 DQ 03fd3333333333333r	; 0.3
; Function compile flags: /Odtp /RTCsu
CONST	ENDS
_TEXT	SEGMENT
$T146233 = -140						; size = 16
$T146232 = -124						; size = 16
$T146231 = -108						; size = 8
$T146230 = -100						; size = 16
_DesiredVelocity$137046 = -80				; size = 16
_speed$137038 = -56					; size = 8
_DecelerationTweaker$137037 = -44			; size = 8
_dist$ = -36						; size = 8
_ToTarget$ = -24					; size = 16
_this$ = -4						; size = 4
___$ReturnUdt$ = 8					; size = 4
_target$ = 12						; size = 4
_deceleration$ = 16					; size = 4
?Arrive@AbstSteering@@MAE?AUVector2D@@ABU2@W4Deceleration@1@@Z PROC ; AbstSteering::Arrive
; _this$ = ecx

; 207  : {

	push	ebp
	mov	ebp, esp
	sub	esp, 140				; 0000008cH
	push	edi
	push	ecx
	lea	edi, DWORD PTR [ebp-140]
	mov	ecx, 35					; 00000023H
	mov	eax, -858993460				; ccccccccH
	rep stosd
	pop	ecx
	mov	DWORD PTR _this$[ebp], ecx

; 208  :   Vector2D ToTarget = target - m_pRaven_Bot->Pos();

	lea	eax, DWORD PTR $T146230[ebp]
	push	eax
	mov	ecx, DWORD PTR _this$[ebp]
	mov	ecx, DWORD PTR [ecx+8]
	call	?Pos@BaseGameEntity@@QBE?AUVector2D@@XZ	; BaseGameEntity::Pos
	push	eax
	mov	edx, DWORD PTR _target$[ebp]
	push	edx
	lea	eax, DWORD PTR _ToTarget$[ebp]
	push	eax
	call	??G@YA?AUVector2D@@ABU0@0@Z		; operator-
	add	esp, 12					; 0000000cH

; 209  : 
; 210  :   //calculate the distance to the target
; 211  :   double dist = ToTarget.Length();

	lea	ecx, DWORD PTR _ToTarget$[ebp]
	call	?Length@Vector2D@@QBENXZ		; Vector2D::Length
	fstp	QWORD PTR _dist$[ebp]

; 212  : 
; 213  :   if (dist > 0)

	fldz
	fcomp	QWORD PTR _dist$[ebp]
	fnstsw	ax
	test	ah, 5
	jp	$LN1@Arrive

; 214  :   {
; 215  :     //because Deceleration is enumerated as an int, this value is required
; 216  :     //to provide fine tweaking of the deceleration..
; 217  :     const double DecelerationTweaker = 0.3;

	fld	QWORD PTR __real@3fd3333333333333
	fstp	QWORD PTR _DecelerationTweaker$137037[ebp]

; 218  : 
; 219  :     //calculate the speed required to reach the target given the desired
; 220  :     //deceleration
; 221  :     double speed =  dist / ((double)deceleration * DecelerationTweaker);     

	fild	DWORD PTR _deceleration$[ebp]
	fmul	QWORD PTR _DecelerationTweaker$137037[ebp]
	fdivr	QWORD PTR _dist$[ebp]
	fstp	QWORD PTR _speed$137038[ebp]

; 222  : 
; 223  :     //make sure the velocity does not exceed the max
; 224  :     speed = MinOf(speed, m_pRaven_Bot->MaxSpeed());

	mov	ecx, DWORD PTR _this$[ebp]
	mov	ecx, DWORD PTR [ecx+8]
	call	?MaxSpeed@MovingEntity@@QBENXZ		; MovingEntity::MaxSpeed
	fstp	QWORD PTR $T146231[ebp]
	lea	edx, DWORD PTR $T146231[ebp]
	push	edx
	lea	eax, DWORD PTR _speed$137038[ebp]
	push	eax
	call	??$MinOf@N@@YANABN0@Z			; MinOf<double>
	add	esp, 8
	fstp	QWORD PTR _speed$137038[ebp]

; 225  : 
; 226  :     //from here proceed just like Seek except we don't need to normalize 
; 227  :     //the ToTarget vector because we have already gone to the trouble
; 228  :     //of calculating its length: dist. 
; 229  :     Vector2D DesiredVelocity =  ToTarget * speed / dist;

	sub	esp, 8
	fld	QWORD PTR _dist$[ebp]
	fstp	QWORD PTR [esp]
	sub	esp, 8
	fld	QWORD PTR _speed$137038[ebp]
	fstp	QWORD PTR [esp]
	lea	ecx, DWORD PTR _ToTarget$[ebp]
	push	ecx
	lea	edx, DWORD PTR $T146232[ebp]
	push	edx
	call	??D@YA?AUVector2D@@ABU0@N@Z		; operator*
	add	esp, 16					; 00000010H
	push	eax
	lea	eax, DWORD PTR _DesiredVelocity$137046[ebp]
	push	eax
	call	??K@YA?AUVector2D@@ABU0@N@Z		; operator/
	add	esp, 16					; 00000010H

; 230  : 
; 231  :     return (DesiredVelocity - m_pRaven_Bot->Velocity());

	lea	ecx, DWORD PTR $T146233[ebp]
	push	ecx
	mov	edx, DWORD PTR _this$[ebp]
	mov	ecx, DWORD PTR [edx+8]
	call	?Velocity@MovingEntity@@QBE?AUVector2D@@XZ ; MovingEntity::Velocity
	push	eax
	lea	eax, DWORD PTR _DesiredVelocity$137046[ebp]
	push	eax
	mov	ecx, DWORD PTR ___$ReturnUdt$[ebp]
	push	ecx
	call	??G@YA?AUVector2D@@ABU0@0@Z		; operator-
	add	esp, 12					; 0000000cH
	mov	eax, DWORD PTR ___$ReturnUdt$[ebp]
	jmp	SHORT $LN2@Arrive
$LN1@Arrive:

; 232  :   }
; 233  : 
; 234  :   return Vector2D(0,0);

	sub	esp, 8
	fldz
	fstp	QWORD PTR [esp]
	sub	esp, 8
	fldz
	fstp	QWORD PTR [esp]
	mov	ecx, DWORD PTR ___$ReturnUdt$[ebp]
	call	??0Vector2D@@QAE@NN@Z			; Vector2D::Vector2D
	mov	eax, DWORD PTR ___$ReturnUdt$[ebp]
$LN2@Arrive:

; 235  : }

	push	edx
	mov	ecx, ebp
	push	eax
	lea	edx, DWORD PTR $LN8@Arrive
	call	@_RTC_CheckStackVars@8
	pop	eax
	pop	edx
	pop	edi
	add	esp, 140				; 0000008cH
	cmp	ebp, esp
	call	__RTC_CheckEsp
	mov	esp, ebp
	pop	ebp
	ret	12					; 0000000cH
	npad	3
$LN8@Arrive:
	DD	3
	DD	$LN7@Arrive
$LN7@Arrive:
	DD	-24					; ffffffe8H
	DD	16					; 00000010H
	DD	$LN4@Arrive
	DD	-56					; ffffffc8H
	DD	8
	DD	$LN5@Arrive
	DD	-80					; ffffffb0H
	DD	16					; 00000010H
	DD	$LN6@Arrive
$LN6@Arrive:
	DB	68					; 00000044H
	DB	101					; 00000065H
	DB	115					; 00000073H
	DB	105					; 00000069H
	DB	114					; 00000072H
	DB	101					; 00000065H
	DB	100					; 00000064H
	DB	86					; 00000056H
	DB	101					; 00000065H
	DB	108					; 0000006cH
	DB	111					; 0000006fH
	DB	99					; 00000063H
	DB	105					; 00000069H
	DB	116					; 00000074H
	DB	121					; 00000079H
	DB	0
$LN5@Arrive:
	DB	115					; 00000073H
	DB	112					; 00000070H
	DB	101					; 00000065H
	DB	101					; 00000065H
	DB	100					; 00000064H
	DB	0
$LN4@Arrive:
	DB	84					; 00000054H
	DB	111					; 0000006fH
	DB	84					; 00000054H
	DB	97					; 00000061H
	DB	114					; 00000072H
	DB	103					; 00000067H
	DB	101					; 00000065H
	DB	116					; 00000074H
	DB	0
?Arrive@AbstSteering@@MAE?AUVector2D@@ABU2@W4Deceleration@1@@Z ENDP ; AbstSteering::Arrive
; Function compile flags: /Odtp /RTCsu
; File c:\users\teaja\documents\artificial-fun\labravenprojecttest\common\2d\vector2d.h
_TEXT	ENDS
;	COMDAT ??0Vector2D@@QAE@NN@Z
_TEXT	SEGMENT
_this$ = -4						; size = 4
_a$ = 8							; size = 8
_b$ = 16						; size = 8
??0Vector2D@@QAE@NN@Z PROC				; Vector2D::Vector2D, COMDAT
; _this$ = ecx

; 25   :   Vector2D(double a, double b):x(a),y(b){}

	push	ebp
	mov	ebp, esp
	push	ecx
	mov	DWORD PTR [ebp-4], -858993460		; ccccccccH
	mov	DWORD PTR _this$[ebp], ecx
	mov	eax, DWORD PTR _this$[ebp]
	fld	QWORD PTR _a$[ebp]
	fstp	QWORD PTR [eax]
	mov	ecx, DWORD PTR _this$[ebp]
	fld	QWORD PTR _b$[ebp]
	fstp	QWORD PTR [ecx+8]
	mov	eax, DWORD PTR _this$[ebp]
	mov	esp, ebp
	pop	ebp
	ret	16					; 00000010H
??0Vector2D@@QAE@NN@Z ENDP				; Vector2D::Vector2D
; Function compile flags: /Odtp /RTCsu
_TEXT	ENDS
;	COMDAT ??K@YA?AUVector2D@@ABU0@N@Z
_TEXT	SEGMENT
_result$ = -20						; size = 16
___$ReturnUdt$ = 8					; size = 4
_lhs$ = 12						; size = 4
_val$ = 16						; size = 8
??K@YA?AUVector2D@@ABU0@N@Z PROC			; operator/, COMDAT

; 369  : {

	push	ebp
	mov	ebp, esp
	sub	esp, 24					; 00000018H
	mov	eax, -858993460				; ccccccccH
	mov	DWORD PTR [ebp-24], eax
	mov	DWORD PTR [ebp-20], eax
	mov	DWORD PTR [ebp-16], eax
	mov	DWORD PTR [ebp-12], eax
	mov	DWORD PTR [ebp-8], eax
	mov	DWORD PTR [ebp-4], eax

; 370  :   Vector2D result(lhs);

	mov	eax, DWORD PTR _lhs$[ebp]
	fld	QWORD PTR [eax]
	fstp	QWORD PTR _result$[ebp]
	fld	QWORD PTR [eax+8]
	fstp	QWORD PTR _result$[ebp+8]

; 371  :   result.x /= val;

	fld	QWORD PTR _result$[ebp]
	fdiv	QWORD PTR _val$[ebp]
	fstp	QWORD PTR _result$[ebp]

; 372  :   result.y /= val;

	fld	QWORD PTR _result$[ebp+8]
	fdiv	QWORD PTR _val$[ebp]
	fstp	QWORD PTR _result$[ebp+8]

; 373  : 
; 374  :   return result;

	mov	ecx, DWORD PTR ___$ReturnUdt$[ebp]
	fld	QWORD PTR _result$[ebp]
	fstp	QWORD PTR [ecx]
	fld	QWORD PTR _result$[ebp+8]
	fstp	QWORD PTR [ecx+8]
	mov	eax, DWORD PTR ___$ReturnUdt$[ebp]

; 375  : }

	push	edx
	mov	ecx, ebp
	push	eax
	lea	edx, DWORD PTR $LN5@operator@3
	call	@_RTC_CheckStackVars@8
	pop	eax
	pop	edx
	mov	esp, ebp
	pop	ebp
	ret	0
	npad	1
$LN5@operator@3:
	DD	1
	DD	$LN4@operator@3
$LN4@operator@3:
	DD	-20					; ffffffecH
	DD	16					; 00000010H
	DD	$LN3@operator@3
$LN3@operator@3:
	DB	114					; 00000072H
	DB	101					; 00000065H
	DB	115					; 00000073H
	DB	117					; 00000075H
	DB	108					; 0000006cH
	DB	116					; 00000074H
	DB	0
??K@YA?AUVector2D@@ABU0@N@Z ENDP			; operator/
_TEXT	ENDS
PUBLIC	?PointToWorldSpace@@YA?AUVector2D@@ABU1@000@Z	; PointToWorldSpace
PUBLIC	??H@YA?AUVector2D@@ABU0@0@Z			; operator+
PUBLIC	?Normalize@Vector2D@@QAEXXZ			; Vector2D::Normalize
PUBLIC	?RandomClamped@@YANXZ				; RandomClamped
; Function compile flags: /Odtp /RTCsu
; File c:\users\teaja\documents\artificial-fun\labravenprojecttest\raven\abststeeringbehaviors.cpp
_TEXT	SEGMENT
$T146254 = -148						; size = 16
$T146253 = -132						; size = 16
$T146252 = -116						; size = 16
$T146251 = -100						; size = 16
$T146250 = -84						; size = 16
$T146249 = -68						; size = 16
_Target$ = -48						; size = 16
_target$ = -24						; size = 16
_this$ = -4						; size = 4
___$ReturnUdt$ = 8					; size = 4
?Wander@AbstSteering@@MAE?AUVector2D@@XZ PROC		; AbstSteering::Wander
; _this$ = ecx

; 244  : { 

	push	ebp
	mov	ebp, esp
	sub	esp, 148				; 00000094H
	push	edi
	push	ecx
	lea	edi, DWORD PTR [ebp-148]
	mov	ecx, 37					; 00000025H
	mov	eax, -858993460				; ccccccccH
	rep stosd
	pop	ecx
	mov	DWORD PTR _this$[ebp], ecx

; 245  :   //first, add a small random vector to the target's position
; 246  :   m_vWanderTarget += Vector2D(RandomClamped() * m_dWanderJitter,
; 247  :                               RandomClamped() * m_dWanderJitter);

	call	?RandomClamped@@YANXZ			; RandomClamped
	mov	eax, DWORD PTR _this$[ebp]
	fmul	QWORD PTR [eax+104]
	sub	esp, 8
	fstp	QWORD PTR [esp]
	call	?RandomClamped@@YANXZ			; RandomClamped
	mov	ecx, DWORD PTR _this$[ebp]
	fmul	QWORD PTR [ecx+104]
	sub	esp, 8
	fstp	QWORD PTR [esp]
	lea	ecx, DWORD PTR $T146249[ebp]
	call	??0Vector2D@@QAE@NN@Z			; Vector2D::Vector2D
	push	eax
	mov	ecx, DWORD PTR _this$[ebp]
	add	ecx, 88					; 00000058H
	call	??YVector2D@@QAEABU0@ABU0@@Z		; Vector2D::operator+=

; 248  : 
; 249  :   //reproject this new vector back on to a unit circle
; 250  :   m_vWanderTarget.Normalize();

	mov	ecx, DWORD PTR _this$[ebp]
	add	ecx, 88					; 00000058H
	call	?Normalize@Vector2D@@QAEXXZ		; Vector2D::Normalize

; 251  : 
; 252  :   //increase the length of the vector to the same as the radius
; 253  :   //of the wander circle
; 254  :   m_vWanderTarget *= m_dWanderRadius;

	mov	edx, DWORD PTR _this$[ebp]
	add	edx, 112				; 00000070H
	push	edx
	mov	ecx, DWORD PTR _this$[ebp]
	add	ecx, 88					; 00000058H
	call	??XVector2D@@QAEABU0@ABN@Z		; Vector2D::operator*=

; 255  : 
; 256  :   //move the target into a position WanderDist in front of the agent
; 257  :   Vector2D target = m_vWanderTarget + Vector2D(m_dWanderDistance, 0);

	sub	esp, 8
	fldz
	fstp	QWORD PTR [esp]
	mov	eax, DWORD PTR _this$[ebp]
	sub	esp, 8
	fld	QWORD PTR [eax+120]
	fstp	QWORD PTR [esp]
	lea	ecx, DWORD PTR $T146250[ebp]
	call	??0Vector2D@@QAE@NN@Z			; Vector2D::Vector2D
	push	eax
	mov	ecx, DWORD PTR _this$[ebp]
	add	ecx, 88					; 00000058H
	push	ecx
	lea	edx, DWORD PTR _target$[ebp]
	push	edx
	call	??H@YA?AUVector2D@@ABU0@0@Z		; operator+
	add	esp, 12					; 0000000cH

; 258  : 
; 259  :   //project the target into world space
; 260  :   Vector2D Target = PointToWorldSpace(target,
; 261  :                                        m_pRaven_Bot->Heading(),
; 262  :                                        m_pRaven_Bot->Side(), 
; 263  :                                        m_pRaven_Bot->Pos());

	lea	eax, DWORD PTR $T146251[ebp]
	push	eax
	mov	ecx, DWORD PTR _this$[ebp]
	mov	ecx, DWORD PTR [ecx+8]
	call	?Pos@BaseGameEntity@@QBE?AUVector2D@@XZ	; BaseGameEntity::Pos
	push	eax
	lea	edx, DWORD PTR $T146252[ebp]
	push	edx
	mov	eax, DWORD PTR _this$[ebp]
	mov	ecx, DWORD PTR [eax+8]
	call	?Side@MovingEntity@@QBE?AUVector2D@@XZ	; MovingEntity::Side
	push	eax
	lea	ecx, DWORD PTR $T146253[ebp]
	push	ecx
	mov	edx, DWORD PTR _this$[ebp]
	mov	ecx, DWORD PTR [edx+8]
	call	?Heading@MovingEntity@@QBE?AUVector2D@@XZ ; MovingEntity::Heading
	push	eax
	lea	eax, DWORD PTR _target$[ebp]
	push	eax
	lea	ecx, DWORD PTR _Target$[ebp]
	push	ecx
	call	?PointToWorldSpace@@YA?AUVector2D@@ABU1@000@Z ; PointToWorldSpace
	add	esp, 20					; 00000014H

; 264  : 
; 265  :   //and steer towards it
; 266  :   return Target - m_pRaven_Bot->Pos(); 

	lea	edx, DWORD PTR $T146254[ebp]
	push	edx
	mov	eax, DWORD PTR _this$[ebp]
	mov	ecx, DWORD PTR [eax+8]
	call	?Pos@BaseGameEntity@@QBE?AUVector2D@@XZ	; BaseGameEntity::Pos
	push	eax
	lea	ecx, DWORD PTR _Target$[ebp]
	push	ecx
	mov	edx, DWORD PTR ___$ReturnUdt$[ebp]
	push	edx
	call	??G@YA?AUVector2D@@ABU0@0@Z		; operator-
	add	esp, 12					; 0000000cH
	mov	eax, DWORD PTR ___$ReturnUdt$[ebp]

; 267  : }

	push	edx
	mov	ecx, ebp
	push	eax
	lea	edx, DWORD PTR $LN6@Wander
	call	@_RTC_CheckStackVars@8
	pop	eax
	pop	edx
	pop	edi
	add	esp, 148				; 00000094H
	cmp	ebp, esp
	call	__RTC_CheckEsp
	mov	esp, ebp
	pop	ebp
	ret	4
	npad	2
$LN6@Wander:
	DD	2
	DD	$LN5@Wander
$LN5@Wander:
	DD	-24					; ffffffe8H
	DD	16					; 00000010H
	DD	$LN3@Wander
	DD	-48					; ffffffd0H
	DD	16					; 00000010H
	DD	$LN4@Wander
$LN4@Wander:
	DB	84					; 00000054H
	DB	97					; 00000061H
	DB	114					; 00000072H
	DB	103					; 00000067H
	DB	101					; 00000065H
	DB	116					; 00000074H
	DB	0
$LN3@Wander:
	DB	116					; 00000074H
	DB	97					; 00000061H
	DB	114					; 00000072H
	DB	103					; 00000067H
	DB	101					; 00000065H
	DB	116					; 00000074H
	DB	0
?Wander@AbstSteering@@MAE?AUVector2D@@XZ ENDP		; AbstSteering::Wander
_TEXT	ENDS
PUBLIC	?RandFloat@@YANXZ				; RandFloat
; Function compile flags: /Odtp /RTCsu
; File c:\users\teaja\documents\artificial-fun\labravenprojecttest\common\misc\utils.h
;	COMDAT ?RandomClamped@@YANXZ
_TEXT	SEGMENT
tv72 = -8						; size = 8
?RandomClamped@@YANXZ PROC				; RandomClamped, COMDAT

; 103  : inline double RandomClamped()    {return RandFloat() - RandFloat();}

	push	ebp
	mov	ebp, esp
	sub	esp, 8
	mov	DWORD PTR [ebp-8], -858993460		; ccccccccH
	mov	DWORD PTR [ebp-4], -858993460		; ccccccccH
	call	?RandFloat@@YANXZ			; RandFloat
	fstp	QWORD PTR tv72[ebp]
	call	?RandFloat@@YANXZ			; RandFloat
	fsubr	QWORD PTR tv72[ebp]
	add	esp, 8
	cmp	ebp, esp
	call	__RTC_CheckEsp
	mov	esp, ebp
	pop	ebp
	ret	0
?RandomClamped@@YANXZ ENDP				; RandomClamped
_TEXT	ENDS
PUBLIC	__real@40e0000000000000
EXTRN	_rand:PROC
;	COMDAT __real@40e0000000000000
CONST	SEGMENT
__real@40e0000000000000 DQ 040e0000000000000r	; 32768
; Function compile flags: /Odtp /RTCsu
CONST	ENDS
;	COMDAT ?RandFloat@@YANXZ
_TEXT	SEGMENT
tv69 = -4						; size = 4
?RandFloat@@YANXZ PROC					; RandFloat, COMDAT

; 87   : inline double RandFloat()      {return ((rand())/(RAND_MAX+1.0));}

	push	ebp
	mov	ebp, esp
	push	ecx
	mov	DWORD PTR [ebp-4], -858993460		; ccccccccH
	call	_rand
	mov	DWORD PTR tv69[ebp], eax
	fild	DWORD PTR tv69[ebp]
	fdiv	QWORD PTR __real@40e0000000000000
	add	esp, 4
	cmp	ebp, esp
	call	__RTC_CheckEsp
	mov	esp, ebp
	pop	ebp
	ret	0
?RandFloat@@YANXZ ENDP					; RandFloat
; Function compile flags: /Odtp /RTCsu
; File c:\users\teaja\documents\artificial-fun\labravenprojecttest\common\2d\vector2d.h
_TEXT	ENDS
;	COMDAT ?Normalize@Vector2D@@QAEXXZ
_TEXT	SEGMENT
_vector_length$ = -12					; size = 8
_this$ = -4						; size = 4
?Normalize@Vector2D@@QAEXXZ PROC			; Vector2D::Normalize, COMDAT
; _this$ = ecx

; 244  : { 

	push	ebp
	mov	ebp, esp
	sub	esp, 12					; 0000000cH
	mov	DWORD PTR [ebp-12], -858993460		; ccccccccH
	mov	DWORD PTR [ebp-8], -858993460		; ccccccccH
	mov	DWORD PTR [ebp-4], -858993460		; ccccccccH
	mov	DWORD PTR _this$[ebp], ecx

; 245  :   double vector_length = this->Length();

	mov	ecx, DWORD PTR _this$[ebp]
	call	?Length@Vector2D@@QBENXZ		; Vector2D::Length
	fstp	QWORD PTR _vector_length$[ebp]

; 246  : 
; 247  :   if (vector_length > std::numeric_limits<double>::epsilon())

	call	?epsilon@?$numeric_limits@N@std@@SANXZ	; std::numeric_limits<double>::epsilon
	fcomp	QWORD PTR _vector_length$[ebp]
	fnstsw	ax
	test	ah, 5
	jp	SHORT $LN1@Normalize

; 248  :   {
; 249  :     this->x /= vector_length;

	mov	eax, DWORD PTR _this$[ebp]
	fld	QWORD PTR [eax]
	fdiv	QWORD PTR _vector_length$[ebp]
	mov	ecx, DWORD PTR _this$[ebp]
	fstp	QWORD PTR [ecx]

; 250  :     this->y /= vector_length;

	mov	edx, DWORD PTR _this$[ebp]
	fld	QWORD PTR [edx+8]
	fdiv	QWORD PTR _vector_length$[ebp]
	mov	eax, DWORD PTR _this$[ebp]
	fstp	QWORD PTR [eax+8]
$LN1@Normalize:

; 251  :   }
; 252  : }

	add	esp, 12					; 0000000cH
	cmp	ebp, esp
	call	__RTC_CheckEsp
	mov	esp, ebp
	pop	ebp
	ret	0
?Normalize@Vector2D@@QAEXXZ ENDP			; Vector2D::Normalize
; Function compile flags: /Odtp /RTCsu
_TEXT	ENDS
;	COMDAT ??H@YA?AUVector2D@@ABU0@0@Z
_TEXT	SEGMENT
_result$ = -20						; size = 16
___$ReturnUdt$ = 8					; size = 4
_lhs$ = 12						; size = 4
_rhs$ = 16						; size = 4
??H@YA?AUVector2D@@ABU0@0@Z PROC			; operator+, COMDAT

; 359  : {

	push	ebp
	mov	ebp, esp
	sub	esp, 24					; 00000018H
	mov	eax, -858993460				; ccccccccH
	mov	DWORD PTR [ebp-24], eax
	mov	DWORD PTR [ebp-20], eax
	mov	DWORD PTR [ebp-16], eax
	mov	DWORD PTR [ebp-12], eax
	mov	DWORD PTR [ebp-8], eax
	mov	DWORD PTR [ebp-4], eax

; 360  :   Vector2D result(lhs);

	mov	eax, DWORD PTR _lhs$[ebp]
	fld	QWORD PTR [eax]
	fstp	QWORD PTR _result$[ebp]
	fld	QWORD PTR [eax+8]
	fstp	QWORD PTR _result$[ebp+8]

; 361  :   result.x += rhs.x;

	mov	ecx, DWORD PTR _rhs$[ebp]
	fld	QWORD PTR _result$[ebp]
	fadd	QWORD PTR [ecx]
	fstp	QWORD PTR _result$[ebp]

; 362  :   result.y += rhs.y;

	mov	edx, DWORD PTR _rhs$[ebp]
	fld	QWORD PTR _result$[ebp+8]
	fadd	QWORD PTR [edx+8]
	fstp	QWORD PTR _result$[ebp+8]

; 363  :   
; 364  :   return result;

	mov	eax, DWORD PTR ___$ReturnUdt$[ebp]
	fld	QWORD PTR _result$[ebp]
	fstp	QWORD PTR [eax]
	fld	QWORD PTR _result$[ebp+8]
	fstp	QWORD PTR [eax+8]
	mov	eax, DWORD PTR ___$ReturnUdt$[ebp]

; 365  : }

	push	edx
	mov	ecx, ebp
	push	eax
	lea	edx, DWORD PTR $LN5@operator@4
	call	@_RTC_CheckStackVars@8
	pop	eax
	pop	edx
	mov	esp, ebp
	pop	ebp
	ret	0
$LN5@operator@4:
	DD	1
	DD	$LN4@operator@4
$LN4@operator@4:
	DD	-20					; ffffffecH
	DD	16					; 00000010H
	DD	$LN3@operator@4
$LN3@operator@4:
	DB	114					; 00000072H
	DB	101					; 00000065H
	DB	115					; 00000073H
	DB	117					; 00000075H
	DB	108					; 0000006cH
	DB	116					; 00000074H
	DB	0
??H@YA?AUVector2D@@ABU0@0@Z ENDP			; operator+
_TEXT	ENDS
PUBLIC	?TransformVector2Ds@C2DMatrix@@QAEXAAUVector2D@@@Z ; C2DMatrix::TransformVector2Ds
PUBLIC	?Translate@C2DMatrix@@QAEXNN@Z			; C2DMatrix::Translate
PUBLIC	?Rotate@C2DMatrix@@QAEXABUVector2D@@0@Z		; C2DMatrix::Rotate
PUBLIC	??0C2DMatrix@@QAE@XZ				; C2DMatrix::C2DMatrix
; Function compile flags: /Odtp /RTCsu
; File c:\users\teaja\documents\artificial-fun\labravenprojecttest\common\2d\transformations.h
;	COMDAT ?PointToWorldSpace@@YA?AUVector2D@@ABU1@000@Z
_TEXT	SEGMENT
_matTransform$ = -100					; size = 72
_TransPoint$ = -20					; size = 16
___$ReturnUdt$ = 8					; size = 4
_point$ = 12						; size = 4
_AgentHeading$ = 16					; size = 4
_AgentSide$ = 20					; size = 4
_AgentPosition$ = 24					; size = 4
?PointToWorldSpace@@YA?AUVector2D@@ABU1@000@Z PROC	; PointToWorldSpace, COMDAT

; 95   : {

	push	ebp
	mov	ebp, esp
	sub	esp, 104				; 00000068H
	push	edi
	lea	edi, DWORD PTR [ebp-104]
	mov	ecx, 26					; 0000001aH
	mov	eax, -858993460				; ccccccccH
	rep stosd

; 96   : 	//make a copy of the point
; 97   :   Vector2D TransPoint = point;

	mov	eax, DWORD PTR _point$[ebp]
	mov	ecx, DWORD PTR [eax]
	mov	DWORD PTR _TransPoint$[ebp], ecx
	mov	edx, DWORD PTR [eax+4]
	mov	DWORD PTR _TransPoint$[ebp+4], edx
	mov	ecx, DWORD PTR [eax+8]
	mov	DWORD PTR _TransPoint$[ebp+8], ecx
	mov	edx, DWORD PTR [eax+12]
	mov	DWORD PTR _TransPoint$[ebp+12], edx

; 98   :   
; 99   :   //create a transformation matrix
; 100  : 	C2DMatrix matTransform;

	lea	ecx, DWORD PTR _matTransform$[ebp]
	call	??0C2DMatrix@@QAE@XZ			; C2DMatrix::C2DMatrix

; 101  : 
; 102  : 	//rotate
; 103  : 	matTransform.Rotate(AgentHeading, AgentSide);

	mov	eax, DWORD PTR _AgentSide$[ebp]
	push	eax
	mov	ecx, DWORD PTR _AgentHeading$[ebp]
	push	ecx
	lea	ecx, DWORD PTR _matTransform$[ebp]
	call	?Rotate@C2DMatrix@@QAEXABUVector2D@@0@Z	; C2DMatrix::Rotate

; 104  : 
; 105  : 	//and translate
; 106  : 	matTransform.Translate(AgentPosition.x, AgentPosition.y);

	mov	edx, DWORD PTR _AgentPosition$[ebp]
	sub	esp, 8
	fld	QWORD PTR [edx+8]
	fstp	QWORD PTR [esp]
	mov	eax, DWORD PTR _AgentPosition$[ebp]
	sub	esp, 8
	fld	QWORD PTR [eax]
	fstp	QWORD PTR [esp]
	lea	ecx, DWORD PTR _matTransform$[ebp]
	call	?Translate@C2DMatrix@@QAEXNN@Z		; C2DMatrix::Translate

; 107  : 	
; 108  :   //now transform the vertices
; 109  :   matTransform.TransformVector2Ds(TransPoint);

	lea	ecx, DWORD PTR _TransPoint$[ebp]
	push	ecx
	lea	ecx, DWORD PTR _matTransform$[ebp]
	call	?TransformVector2Ds@C2DMatrix@@QAEXAAUVector2D@@@Z ; C2DMatrix::TransformVector2Ds

; 110  : 
; 111  :   return TransPoint;

	mov	edx, DWORD PTR ___$ReturnUdt$[ebp]
	mov	eax, DWORD PTR _TransPoint$[ebp]
	mov	DWORD PTR [edx], eax
	mov	ecx, DWORD PTR _TransPoint$[ebp+4]
	mov	DWORD PTR [edx+4], ecx
	mov	eax, DWORD PTR _TransPoint$[ebp+8]
	mov	DWORD PTR [edx+8], eax
	mov	ecx, DWORD PTR _TransPoint$[ebp+12]
	mov	DWORD PTR [edx+12], ecx
	mov	eax, DWORD PTR ___$ReturnUdt$[ebp]

; 112  : }

	push	edx
	mov	ecx, ebp
	push	eax
	lea	edx, DWORD PTR $LN6@PointToWor
	call	@_RTC_CheckStackVars@8
	pop	eax
	pop	edx
	pop	edi
	add	esp, 104				; 00000068H
	cmp	ebp, esp
	call	__RTC_CheckEsp
	mov	esp, ebp
	pop	ebp
	ret	0
$LN6@PointToWor:
	DD	2
	DD	$LN5@PointToWor
$LN5@PointToWor:
	DD	-20					; ffffffecH
	DD	16					; 00000010H
	DD	$LN3@PointToWor
	DD	-100					; ffffff9cH
	DD	72					; 00000048H
	DD	$LN4@PointToWor
$LN4@PointToWor:
	DB	109					; 0000006dH
	DB	97					; 00000061H
	DB	116					; 00000074H
	DB	84					; 00000054H
	DB	114					; 00000072H
	DB	97					; 00000061H
	DB	110					; 0000006eH
	DB	115					; 00000073H
	DB	102					; 00000066H
	DB	111					; 0000006fH
	DB	114					; 00000072H
	DB	109					; 0000006dH
	DB	0
$LN3@PointToWor:
	DB	84					; 00000054H
	DB	114					; 00000072H
	DB	97					; 00000061H
	DB	110					; 0000006eH
	DB	115					; 00000073H
	DB	80					; 00000050H
	DB	111					; 0000006fH
	DB	105					; 00000069H
	DB	110					; 0000006eH
	DB	116					; 00000074H
	DB	0
?PointToWorldSpace@@YA?AUVector2D@@ABU1@000@Z ENDP	; PointToWorldSpace
_TEXT	ENDS
PUBLIC	?Identity@C2DMatrix@@QAEXXZ			; C2DMatrix::Identity
PUBLIC	??0Matrix@C2DMatrix@@QAE@XZ			; C2DMatrix::Matrix::Matrix
; Function compile flags: /Odtp /RTCsu
; File c:\users\teaja\documents\artificial-fun\labravenprojecttest\common\2d\c2dmatrix.h
;	COMDAT ??0C2DMatrix@@QAE@XZ
_TEXT	SEGMENT
_this$ = -4						; size = 4
??0C2DMatrix@@QAE@XZ PROC				; C2DMatrix::C2DMatrix, COMDAT
; _this$ = ecx

; 49   :   C2DMatrix()

	push	ebp
	mov	ebp, esp
	push	ecx
	mov	DWORD PTR [ebp-4], -858993460		; ccccccccH
	mov	DWORD PTR _this$[ebp], ecx
	mov	ecx, DWORD PTR _this$[ebp]
	call	??0Matrix@C2DMatrix@@QAE@XZ		; C2DMatrix::Matrix::Matrix

; 50   :   {
; 51   :     //initialize the matrix to an identity matrix
; 52   :     Identity();

	mov	ecx, DWORD PTR _this$[ebp]
	call	?Identity@C2DMatrix@@QAEXXZ		; C2DMatrix::Identity

; 53   :   }

	mov	eax, DWORD PTR _this$[ebp]
	add	esp, 4
	cmp	ebp, esp
	call	__RTC_CheckEsp
	mov	esp, ebp
	pop	ebp
	ret	0
??0C2DMatrix@@QAE@XZ ENDP				; C2DMatrix::C2DMatrix
; Function compile flags: /Odtp /RTCsu
_TEXT	ENDS
;	COMDAT ??0Matrix@C2DMatrix@@QAE@XZ
_TEXT	SEGMENT
_this$ = -4						; size = 4
??0Matrix@C2DMatrix@@QAE@XZ PROC			; C2DMatrix::Matrix::Matrix, COMDAT
; _this$ = ecx

; 32   :     Matrix()

	push	ebp
	mov	ebp, esp
	push	ecx
	mov	DWORD PTR [ebp-4], -858993460		; ccccccccH
	mov	DWORD PTR _this$[ebp], ecx

; 33   :     {
; 34   :       _11=0.0; _12=0.0; _13=0.0;

	mov	eax, DWORD PTR _this$[ebp]
	fldz
	fstp	QWORD PTR [eax]
	mov	ecx, DWORD PTR _this$[ebp]
	fldz
	fstp	QWORD PTR [ecx+8]
	mov	edx, DWORD PTR _this$[ebp]
	fldz
	fstp	QWORD PTR [edx+16]

; 35   :       _21=0.0; _22=0.0; _23=0.0;

	mov	eax, DWORD PTR _this$[ebp]
	fldz
	fstp	QWORD PTR [eax+24]
	mov	ecx, DWORD PTR _this$[ebp]
	fldz
	fstp	QWORD PTR [ecx+32]
	mov	edx, DWORD PTR _this$[ebp]
	fldz
	fstp	QWORD PTR [edx+40]

; 36   :       _31=0.0; _32=0.0; _33=0.0;

	mov	eax, DWORD PTR _this$[ebp]
	fldz
	fstp	QWORD PTR [eax+48]
	mov	ecx, DWORD PTR _this$[ebp]
	fldz
	fstp	QWORD PTR [ecx+56]
	mov	edx, DWORD PTR _this$[ebp]
	fldz
	fstp	QWORD PTR [edx+64]

; 37   :     }

	mov	eax, DWORD PTR _this$[ebp]
	mov	esp, ebp
	pop	ebp
	ret	0
??0Matrix@C2DMatrix@@QAE@XZ ENDP			; C2DMatrix::Matrix::Matrix
; Function compile flags: /Odtp /RTCsu
_TEXT	ENDS
;	COMDAT ?TransformVector2Ds@C2DMatrix@@QAEXAAUVector2D@@@Z
_TEXT	SEGMENT
_tempY$ = -20						; size = 8
_tempX$ = -12						; size = 8
_this$ = -4						; size = 4
_vPoint$ = 8						; size = 4
?TransformVector2Ds@C2DMatrix@@QAEXAAUVector2D@@@Z PROC	; C2DMatrix::TransformVector2Ds, COMDAT
; _this$ = ecx

; 134  : {

	push	ebp
	mov	ebp, esp
	sub	esp, 20					; 00000014H
	mov	eax, -858993460				; ccccccccH
	mov	DWORD PTR [ebp-20], eax
	mov	DWORD PTR [ebp-16], eax
	mov	DWORD PTR [ebp-12], eax
	mov	DWORD PTR [ebp-8], eax
	mov	DWORD PTR [ebp-4], eax
	mov	DWORD PTR _this$[ebp], ecx

; 135  : 
; 136  :   double tempX =(m_Matrix._11*vPoint.x) + (m_Matrix._21*vPoint.y) + (m_Matrix._31);

	mov	eax, DWORD PTR _this$[ebp]
	mov	ecx, DWORD PTR _vPoint$[ebp]
	fld	QWORD PTR [eax]
	fmul	QWORD PTR [ecx]
	mov	edx, DWORD PTR _this$[ebp]
	mov	eax, DWORD PTR _vPoint$[ebp]
	fld	QWORD PTR [edx+24]
	fmul	QWORD PTR [eax+8]
	faddp	ST(1), ST(0)
	mov	ecx, DWORD PTR _this$[ebp]
	fadd	QWORD PTR [ecx+48]
	fstp	QWORD PTR _tempX$[ebp]

; 137  : 
; 138  :   double tempY = (m_Matrix._12*vPoint.x) + (m_Matrix._22*vPoint.y) + (m_Matrix._32);

	mov	edx, DWORD PTR _this$[ebp]
	mov	eax, DWORD PTR _vPoint$[ebp]
	fld	QWORD PTR [edx+8]
	fmul	QWORD PTR [eax]
	mov	ecx, DWORD PTR _this$[ebp]
	mov	edx, DWORD PTR _vPoint$[ebp]
	fld	QWORD PTR [ecx+32]
	fmul	QWORD PTR [edx+8]
	faddp	ST(1), ST(0)
	mov	eax, DWORD PTR _this$[ebp]
	fadd	QWORD PTR [eax+56]
	fstp	QWORD PTR _tempY$[ebp]

; 139  :   
; 140  :   vPoint.x = tempX;

	mov	ecx, DWORD PTR _vPoint$[ebp]
	fld	QWORD PTR _tempX$[ebp]
	fstp	QWORD PTR [ecx]

; 141  : 
; 142  :   vPoint.y = tempY;

	mov	edx, DWORD PTR _vPoint$[ebp]
	fld	QWORD PTR _tempY$[ebp]
	fstp	QWORD PTR [edx+8]

; 143  : }

	mov	esp, ebp
	pop	ebp
	ret	4
?TransformVector2Ds@C2DMatrix@@QAEXAAUVector2D@@@Z ENDP	; C2DMatrix::TransformVector2Ds
_TEXT	ENDS
PUBLIC	__real@3ff0000000000000
;	COMDAT __real@3ff0000000000000
CONST	SEGMENT
__real@3ff0000000000000 DQ 03ff0000000000000r	; 1
; Function compile flags: /Odtp /RTCsu
CONST	ENDS
;	COMDAT ?Identity@C2DMatrix@@QAEXXZ
_TEXT	SEGMENT
_this$ = -4						; size = 4
?Identity@C2DMatrix@@QAEXXZ PROC			; C2DMatrix::Identity, COMDAT
; _this$ = ecx

; 149  : {

	push	ebp
	mov	ebp, esp
	push	ecx
	mov	DWORD PTR [ebp-4], -858993460		; ccccccccH
	mov	DWORD PTR _this$[ebp], ecx

; 150  :   m_Matrix._11 = 1; m_Matrix._12 = 0; m_Matrix._13 = 0;

	mov	eax, DWORD PTR _this$[ebp]
	fld1
	fstp	QWORD PTR [eax]
	mov	ecx, DWORD PTR _this$[ebp]
	fldz
	fstp	QWORD PTR [ecx+8]
	mov	edx, DWORD PTR _this$[ebp]
	fldz
	fstp	QWORD PTR [edx+16]

; 151  : 
; 152  :   m_Matrix._21 = 0; m_Matrix._22 = 1; m_Matrix._23 = 0;

	mov	eax, DWORD PTR _this$[ebp]
	fldz
	fstp	QWORD PTR [eax+24]
	mov	ecx, DWORD PTR _this$[ebp]
	fld1
	fstp	QWORD PTR [ecx+32]
	mov	edx, DWORD PTR _this$[ebp]
	fldz
	fstp	QWORD PTR [edx+40]

; 153  : 
; 154  :   m_Matrix._31 = 0; m_Matrix._32 = 0; m_Matrix._33 = 1;

	mov	eax, DWORD PTR _this$[ebp]
	fldz
	fstp	QWORD PTR [eax+48]
	mov	ecx, DWORD PTR _this$[ebp]
	fldz
	fstp	QWORD PTR [ecx+56]
	mov	edx, DWORD PTR _this$[ebp]
	fld1
	fstp	QWORD PTR [edx+64]

; 155  : 
; 156  :   }

	mov	esp, ebp
	pop	ebp
	ret	0
?Identity@C2DMatrix@@QAEXXZ ENDP			; C2DMatrix::Identity
_TEXT	ENDS
PUBLIC	?MatrixMultiply@C2DMatrix@@AAEXAAUMatrix@1@@Z	; C2DMatrix::MatrixMultiply
; Function compile flags: /Odtp /RTCsu
;	COMDAT ?Translate@C2DMatrix@@QAEXNN@Z
_TEXT	SEGMENT
_mat$ = -80						; size = 72
_this$ = -4						; size = 4
_x$ = 8							; size = 8
_y$ = 16						; size = 8
?Translate@C2DMatrix@@QAEXNN@Z PROC			; C2DMatrix::Translate, COMDAT
; _this$ = ecx

; 160  : {

	push	ebp
	mov	ebp, esp
	sub	esp, 84					; 00000054H
	push	edi
	push	ecx
	lea	edi, DWORD PTR [ebp-84]
	mov	ecx, 21					; 00000015H
	mov	eax, -858993460				; ccccccccH
	rep stosd
	pop	ecx
	mov	DWORD PTR _this$[ebp], ecx

; 161  :   Matrix mat;

	lea	ecx, DWORD PTR _mat$[ebp]
	call	??0Matrix@C2DMatrix@@QAE@XZ		; C2DMatrix::Matrix::Matrix

; 162  :   
; 163  :   mat._11 = 1; mat._12 = 0; mat._13 = 0;

	fld1
	fstp	QWORD PTR _mat$[ebp]
	fldz
	fstp	QWORD PTR _mat$[ebp+8]
	fldz
	fstp	QWORD PTR _mat$[ebp+16]

; 164  :   
; 165  :   mat._21 = 0; mat._22 = 1; mat._23 = 0;

	fldz
	fstp	QWORD PTR _mat$[ebp+24]
	fld1
	fstp	QWORD PTR _mat$[ebp+32]
	fldz
	fstp	QWORD PTR _mat$[ebp+40]

; 166  :   
; 167  :   mat._31 = x;    mat._32 = y;    mat._33 = 1;

	fld	QWORD PTR _x$[ebp]
	fstp	QWORD PTR _mat$[ebp+48]
	fld	QWORD PTR _y$[ebp]
	fstp	QWORD PTR _mat$[ebp+56]
	fld1
	fstp	QWORD PTR _mat$[ebp+64]

; 168  :   
; 169  :   //and multiply
; 170  :   MatrixMultiply(mat);

	lea	eax, DWORD PTR _mat$[ebp]
	push	eax
	mov	ecx, DWORD PTR _this$[ebp]
	call	?MatrixMultiply@C2DMatrix@@AAEXAAUMatrix@1@@Z ; C2DMatrix::MatrixMultiply

; 171  : }

	push	edx
	mov	ecx, ebp
	push	eax
	lea	edx, DWORD PTR $LN5@Translate
	call	@_RTC_CheckStackVars@8
	pop	eax
	pop	edx
	pop	edi
	add	esp, 84					; 00000054H
	cmp	ebp, esp
	call	__RTC_CheckEsp
	mov	esp, ebp
	pop	ebp
	ret	16					; 00000010H
$LN5@Translate:
	DD	1
	DD	$LN4@Translate
$LN4@Translate:
	DD	-80					; ffffffb0H
	DD	72					; 00000048H
	DD	$LN3@Translate
$LN3@Translate:
	DB	109					; 0000006dH
	DB	97					; 00000061H
	DB	116					; 00000074H
	DB	0
?Translate@C2DMatrix@@QAEXNN@Z ENDP			; C2DMatrix::Translate
; Function compile flags: /Odtp /RTCsu
_TEXT	ENDS
;	COMDAT ?MatrixMultiply@C2DMatrix@@AAEXAAUMatrix@1@@Z
_TEXT	SEGMENT
_mat_temp$ = -80					; size = 72
_this$ = -4						; size = 4
_mIn$ = 8						; size = 4
?MatrixMultiply@C2DMatrix@@AAEXAAUMatrix@1@@Z PROC	; C2DMatrix::MatrixMultiply, COMDAT
; _this$ = ecx

; 95   : {

	push	ebp
	mov	ebp, esp
	sub	esp, 84					; 00000054H
	push	esi
	push	edi
	push	ecx
	lea	edi, DWORD PTR [ebp-84]
	mov	ecx, 21					; 00000015H
	mov	eax, -858993460				; ccccccccH
	rep stosd
	pop	ecx
	mov	DWORD PTR _this$[ebp], ecx

; 96   :   C2DMatrix::Matrix mat_temp;

	lea	ecx, DWORD PTR _mat_temp$[ebp]
	call	??0Matrix@C2DMatrix@@QAE@XZ		; C2DMatrix::Matrix::Matrix

; 97   :   
; 98   :   //first row
; 99   :   mat_temp._11 = (m_Matrix._11*mIn._11) + (m_Matrix._12*mIn._21) + (m_Matrix._13*mIn._31);

	mov	eax, DWORD PTR _this$[ebp]
	mov	ecx, DWORD PTR _mIn$[ebp]
	fld	QWORD PTR [eax]
	fmul	QWORD PTR [ecx]
	mov	edx, DWORD PTR _this$[ebp]
	mov	eax, DWORD PTR _mIn$[ebp]
	fld	QWORD PTR [edx+8]
	fmul	QWORD PTR [eax+24]
	faddp	ST(1), ST(0)
	mov	ecx, DWORD PTR _this$[ebp]
	mov	edx, DWORD PTR _mIn$[ebp]
	fld	QWORD PTR [ecx+16]
	fmul	QWORD PTR [edx+48]
	faddp	ST(1), ST(0)
	fstp	QWORD PTR _mat_temp$[ebp]

; 100  :   mat_temp._12 = (m_Matrix._11*mIn._12) + (m_Matrix._12*mIn._22) + (m_Matrix._13*mIn._32);

	mov	eax, DWORD PTR _this$[ebp]
	mov	ecx, DWORD PTR _mIn$[ebp]
	fld	QWORD PTR [eax]
	fmul	QWORD PTR [ecx+8]
	mov	edx, DWORD PTR _this$[ebp]
	mov	eax, DWORD PTR _mIn$[ebp]
	fld	QWORD PTR [edx+8]
	fmul	QWORD PTR [eax+32]
	faddp	ST(1), ST(0)
	mov	ecx, DWORD PTR _this$[ebp]
	mov	edx, DWORD PTR _mIn$[ebp]
	fld	QWORD PTR [ecx+16]
	fmul	QWORD PTR [edx+56]
	faddp	ST(1), ST(0)
	fstp	QWORD PTR _mat_temp$[ebp+8]

; 101  :   mat_temp._13 = (m_Matrix._11*mIn._13) + (m_Matrix._12*mIn._23) + (m_Matrix._13*mIn._33);

	mov	eax, DWORD PTR _this$[ebp]
	mov	ecx, DWORD PTR _mIn$[ebp]
	fld	QWORD PTR [eax]
	fmul	QWORD PTR [ecx+16]
	mov	edx, DWORD PTR _this$[ebp]
	mov	eax, DWORD PTR _mIn$[ebp]
	fld	QWORD PTR [edx+8]
	fmul	QWORD PTR [eax+40]
	faddp	ST(1), ST(0)
	mov	ecx, DWORD PTR _this$[ebp]
	mov	edx, DWORD PTR _mIn$[ebp]
	fld	QWORD PTR [ecx+16]
	fmul	QWORD PTR [edx+64]
	faddp	ST(1), ST(0)
	fstp	QWORD PTR _mat_temp$[ebp+16]

; 102  : 
; 103  :   //second
; 104  :   mat_temp._21 = (m_Matrix._21*mIn._11) + (m_Matrix._22*mIn._21) + (m_Matrix._23*mIn._31);

	mov	eax, DWORD PTR _this$[ebp]
	mov	ecx, DWORD PTR _mIn$[ebp]
	fld	QWORD PTR [eax+24]
	fmul	QWORD PTR [ecx]
	mov	edx, DWORD PTR _this$[ebp]
	mov	eax, DWORD PTR _mIn$[ebp]
	fld	QWORD PTR [edx+32]
	fmul	QWORD PTR [eax+24]
	faddp	ST(1), ST(0)
	mov	ecx, DWORD PTR _this$[ebp]
	mov	edx, DWORD PTR _mIn$[ebp]
	fld	QWORD PTR [ecx+40]
	fmul	QWORD PTR [edx+48]
	faddp	ST(1), ST(0)
	fstp	QWORD PTR _mat_temp$[ebp+24]

; 105  :   mat_temp._22 = (m_Matrix._21*mIn._12) + (m_Matrix._22*mIn._22) + (m_Matrix._23*mIn._32);

	mov	eax, DWORD PTR _this$[ebp]
	mov	ecx, DWORD PTR _mIn$[ebp]
	fld	QWORD PTR [eax+24]
	fmul	QWORD PTR [ecx+8]
	mov	edx, DWORD PTR _this$[ebp]
	mov	eax, DWORD PTR _mIn$[ebp]
	fld	QWORD PTR [edx+32]
	fmul	QWORD PTR [eax+32]
	faddp	ST(1), ST(0)
	mov	ecx, DWORD PTR _this$[ebp]
	mov	edx, DWORD PTR _mIn$[ebp]
	fld	QWORD PTR [ecx+40]
	fmul	QWORD PTR [edx+56]
	faddp	ST(1), ST(0)
	fstp	QWORD PTR _mat_temp$[ebp+32]

; 106  :   mat_temp._23 = (m_Matrix._21*mIn._13) + (m_Matrix._22*mIn._23) + (m_Matrix._23*mIn._33);

	mov	eax, DWORD PTR _this$[ebp]
	mov	ecx, DWORD PTR _mIn$[ebp]
	fld	QWORD PTR [eax+24]
	fmul	QWORD PTR [ecx+16]
	mov	edx, DWORD PTR _this$[ebp]
	mov	eax, DWORD PTR _mIn$[ebp]
	fld	QWORD PTR [edx+32]
	fmul	QWORD PTR [eax+40]
	faddp	ST(1), ST(0)
	mov	ecx, DWORD PTR _this$[ebp]
	mov	edx, DWORD PTR _mIn$[ebp]
	fld	QWORD PTR [ecx+40]
	fmul	QWORD PTR [edx+64]
	faddp	ST(1), ST(0)
	fstp	QWORD PTR _mat_temp$[ebp+40]

; 107  : 
; 108  :   //third
; 109  :   mat_temp._31 = (m_Matrix._31*mIn._11) + (m_Matrix._32*mIn._21) + (m_Matrix._33*mIn._31);

	mov	eax, DWORD PTR _this$[ebp]
	mov	ecx, DWORD PTR _mIn$[ebp]
	fld	QWORD PTR [eax+48]
	fmul	QWORD PTR [ecx]
	mov	edx, DWORD PTR _this$[ebp]
	mov	eax, DWORD PTR _mIn$[ebp]
	fld	QWORD PTR [edx+56]
	fmul	QWORD PTR [eax+24]
	faddp	ST(1), ST(0)
	mov	ecx, DWORD PTR _this$[ebp]
	mov	edx, DWORD PTR _mIn$[ebp]
	fld	QWORD PTR [ecx+64]
	fmul	QWORD PTR [edx+48]
	faddp	ST(1), ST(0)
	fstp	QWORD PTR _mat_temp$[ebp+48]

; 110  :   mat_temp._32 = (m_Matrix._31*mIn._12) + (m_Matrix._32*mIn._22) + (m_Matrix._33*mIn._32);

	mov	eax, DWORD PTR _this$[ebp]
	mov	ecx, DWORD PTR _mIn$[ebp]
	fld	QWORD PTR [eax+48]
	fmul	QWORD PTR [ecx+8]
	mov	edx, DWORD PTR _this$[ebp]
	mov	eax, DWORD PTR _mIn$[ebp]
	fld	QWORD PTR [edx+56]
	fmul	QWORD PTR [eax+32]
	faddp	ST(1), ST(0)
	mov	ecx, DWORD PTR _this$[ebp]
	mov	edx, DWORD PTR _mIn$[ebp]
	fld	QWORD PTR [ecx+64]
	fmul	QWORD PTR [edx+56]
	faddp	ST(1), ST(0)
	fstp	QWORD PTR _mat_temp$[ebp+56]

; 111  :   mat_temp._33 = (m_Matrix._31*mIn._13) + (m_Matrix._32*mIn._23) + (m_Matrix._33*mIn._33);

	mov	eax, DWORD PTR _this$[ebp]
	mov	ecx, DWORD PTR _mIn$[ebp]
	fld	QWORD PTR [eax+48]
	fmul	QWORD PTR [ecx+16]
	mov	edx, DWORD PTR _this$[ebp]
	mov	eax, DWORD PTR _mIn$[ebp]
	fld	QWORD PTR [edx+56]
	fmul	QWORD PTR [eax+40]
	faddp	ST(1), ST(0)
	mov	ecx, DWORD PTR _this$[ebp]
	mov	edx, DWORD PTR _mIn$[ebp]
	fld	QWORD PTR [ecx+64]
	fmul	QWORD PTR [edx+64]
	faddp	ST(1), ST(0)
	fstp	QWORD PTR _mat_temp$[ebp+64]

; 112  : 
; 113  :   m_Matrix = mat_temp;

	mov	ecx, 18					; 00000012H
	lea	esi, DWORD PTR _mat_temp$[ebp]
	mov	edi, DWORD PTR _this$[ebp]
	rep movsd

; 114  : }

	push	edx
	mov	ecx, ebp
	push	eax
	lea	edx, DWORD PTR $LN5@MatrixMult
	call	@_RTC_CheckStackVars@8
	pop	eax
	pop	edx
	pop	edi
	pop	esi
	add	esp, 84					; 00000054H
	cmp	ebp, esp
	call	__RTC_CheckEsp
	mov	esp, ebp
	pop	ebp
	ret	4
	npad	3
$LN5@MatrixMult:
	DD	1
	DD	$LN4@MatrixMult
$LN4@MatrixMult:
	DD	-80					; ffffffb0H
	DD	72					; 00000048H
	DD	$LN3@MatrixMult
$LN3@MatrixMult:
	DB	109					; 0000006dH
	DB	97					; 00000061H
	DB	116					; 00000074H
	DB	95					; 0000005fH
	DB	116					; 00000074H
	DB	101					; 00000065H
	DB	109					; 0000006dH
	DB	112					; 00000070H
	DB	0
?MatrixMultiply@C2DMatrix@@AAEXAAUMatrix@1@@Z ENDP	; C2DMatrix::MatrixMultiply
; Function compile flags: /Odtp /RTCsu
_TEXT	ENDS
;	COMDAT ?Rotate@C2DMatrix@@QAEXABUVector2D@@0@Z
_TEXT	SEGMENT
_mat$ = -80						; size = 72
_this$ = -4						; size = 4
_fwd$ = 8						; size = 4
_side$ = 12						; size = 4
?Rotate@C2DMatrix@@QAEXABUVector2D@@0@Z PROC		; C2DMatrix::Rotate, COMDAT
; _this$ = ecx

; 210  : {

	push	ebp
	mov	ebp, esp
	sub	esp, 84					; 00000054H
	push	edi
	push	ecx
	lea	edi, DWORD PTR [ebp-84]
	mov	ecx, 21					; 00000015H
	mov	eax, -858993460				; ccccccccH
	rep stosd
	pop	ecx
	mov	DWORD PTR _this$[ebp], ecx

; 211  :   C2DMatrix::Matrix mat;

	lea	ecx, DWORD PTR _mat$[ebp]
	call	??0Matrix@C2DMatrix@@QAE@XZ		; C2DMatrix::Matrix::Matrix

; 212  :   
; 213  :   mat._11 = fwd.x;  mat._12 = fwd.y; mat._13 = 0;

	mov	eax, DWORD PTR _fwd$[ebp]
	fld	QWORD PTR [eax]
	fstp	QWORD PTR _mat$[ebp]
	mov	ecx, DWORD PTR _fwd$[ebp]
	fld	QWORD PTR [ecx+8]
	fstp	QWORD PTR _mat$[ebp+8]
	fldz
	fstp	QWORD PTR _mat$[ebp+16]

; 214  :   
; 215  :   mat._21 = side.x; mat._22 = side.y; mat._23 = 0;

	mov	edx, DWORD PTR _side$[ebp]
	fld	QWORD PTR [edx]
	fstp	QWORD PTR _mat$[ebp+24]
	mov	eax, DWORD PTR _side$[ebp]
	fld	QWORD PTR [eax+8]
	fstp	QWORD PTR _mat$[ebp+32]
	fldz
	fstp	QWORD PTR _mat$[ebp+40]

; 216  :   
; 217  :   mat._31 = 0; mat._32 = 0;mat._33 = 1;

	fldz
	fstp	QWORD PTR _mat$[ebp+48]
	fldz
	fstp	QWORD PTR _mat$[ebp+56]
	fld1
	fstp	QWORD PTR _mat$[ebp+64]

; 218  :   
; 219  :   //and multiply
; 220  :   MatrixMultiply(mat);

	lea	ecx, DWORD PTR _mat$[ebp]
	push	ecx
	mov	ecx, DWORD PTR _this$[ebp]
	call	?MatrixMultiply@C2DMatrix@@AAEXAAUMatrix@1@@Z ; C2DMatrix::MatrixMultiply

; 221  : }

	push	edx
	mov	ecx, ebp
	push	eax
	lea	edx, DWORD PTR $LN5@Rotate
	call	@_RTC_CheckStackVars@8
	pop	eax
	pop	edx
	pop	edi
	add	esp, 84					; 00000054H
	cmp	ebp, esp
	call	__RTC_CheckEsp
	mov	esp, ebp
	pop	ebp
	ret	8
$LN5@Rotate:
	DD	1
	DD	$LN4@Rotate
$LN4@Rotate:
	DD	-80					; ffffffb0H
	DD	72					; 00000048H
	DD	$LN3@Rotate
$LN3@Rotate:
	DB	109					; 0000006dH
	DB	97					; 00000061H
	DB	116					; 00000074H
	DB	0
?Rotate@C2DMatrix@@QAEXABUVector2D@@0@Z ENDP		; C2DMatrix::Rotate
_TEXT	ENDS
PUBLIC	?Normal@Wall2D@@QBE?AUVector2D@@XZ		; Wall2D::Normal
PUBLIC	?LineIntersection2D@@YA_NUVector2D@@000AANAAU1@@Z ; LineIntersection2D
PUBLIC	??A?$vector@UVector2D@@V?$allocator@UVector2D@@@std@@@std@@QAEAAUVector2D@@I@Z ; std::vector<Vector2D,std::allocator<Vector2D> >::operator[]
PUBLIC	?From@Wall2D@@QBE?AUVector2D@@XZ		; Wall2D::From
PUBLIC	?To@Wall2D@@QBE?AUVector2D@@XZ			; Wall2D::To
PUBLIC	??A?$vector@PAVWall2D@@V?$allocator@PAVWall2D@@@std@@@std@@QBEABQAVWall2D@@I@Z ; std::vector<Wall2D *,std::allocator<Wall2D *> >::operator[]
PUBLIC	?size@?$vector@PAVWall2D@@V?$allocator@PAVWall2D@@@std@@@std@@QBEIXZ ; std::vector<Wall2D *,std::allocator<Wall2D *> >::size
PUBLIC	?size@?$vector@UVector2D@@V?$allocator@UVector2D@@@std@@@std@@QBEIXZ ; std::vector<Vector2D,std::allocator<Vector2D> >::size
PUBLIC	?CreateFeelers@AbstSteering@@IAEXXZ		; AbstSteering::CreateFeelers
; Function compile flags: /Odtp /RTCsu
; File c:\users\teaja\documents\artificial-fun\labravenprojecttest\raven\abststeeringbehaviors.cpp
_TEXT	SEGMENT
$T146308 = -216						; size = 16
$T146307 = -200						; size = 16
$T146306 = -184						; size = 16
$T146305 = -168						; size = 16
$T146304 = -152						; size = 16
_OverShoot$137096 = -132				; size = 16
_w$137086 = -112					; size = 4
_flr$137082 = -108					; size = 4
_ClosestPoint$ = -100					; size = 16
_point$ = -76						; size = 16
_SteeringForce$ = -52					; size = 16
_ClosestWall$ = -32					; size = 4
_DistToClosestIP$ = -28					; size = 8
_DistToThisIP$ = -16					; size = 8
_this$ = -4						; size = 4
___$ReturnUdt$ = 8					; size = 4
_walls$ = 12						; size = 4
?WallAvoidance@AbstSteering@@MAE?AUVector2D@@ABV?$vector@PAVWall2D@@V?$allocator@PAVWall2D@@@std@@@std@@@Z PROC ; AbstSteering::WallAvoidance
; _this$ = ecx

; 276  : {

	push	ebp
	mov	ebp, esp
	sub	esp, 216				; 000000d8H
	push	edi
	push	ecx
	lea	edi, DWORD PTR [ebp-216]
	mov	ecx, 54					; 00000036H
	mov	eax, -858993460				; ccccccccH
	rep stosd
	pop	ecx
	mov	DWORD PTR _this$[ebp], ecx

; 277  :   //the feelers are contained in a std::vector, m_Feelers
; 278  :   CreateFeelers();

	mov	ecx, DWORD PTR _this$[ebp]
	call	?CreateFeelers@AbstSteering@@IAEXXZ	; AbstSteering::CreateFeelers

; 279  :   
; 280  :   double DistToThisIP    = 0.0;

	fldz
	fstp	QWORD PTR _DistToThisIP$[ebp]

; 281  :   double DistToClosestIP = MaxDouble;

	fld	QWORD PTR _MaxDouble
	fstp	QWORD PTR _DistToClosestIP$[ebp]

; 282  : 
; 283  :   //this will hold an index into the vector of walls
; 284  :   int ClosestWall = -1;

	mov	DWORD PTR _ClosestWall$[ebp], -1

; 285  : 
; 286  :   Vector2D SteeringForce,

	lea	ecx, DWORD PTR _SteeringForce$[ebp]
	call	??0Vector2D@@QAE@XZ			; Vector2D::Vector2D

; 287  :             point,         //used for storing temporary info

	lea	ecx, DWORD PTR _point$[ebp]
	call	??0Vector2D@@QAE@XZ			; Vector2D::Vector2D

; 288  :             ClosestPoint;  //holds the closest intersection point

	lea	ecx, DWORD PTR _ClosestPoint$[ebp]
	call	??0Vector2D@@QAE@XZ			; Vector2D::Vector2D

; 289  : 
; 290  :   //examine each feeler in turn
; 291  :   for (unsigned int flr=0; flr<m_Feelers.size(); ++flr)

	mov	DWORD PTR _flr$137082[ebp], 0
	jmp	SHORT $LN9@WallAvoida
$LN8@WallAvoida:
	mov	eax, DWORD PTR _flr$137082[ebp]
	add	eax, 1
	mov	DWORD PTR _flr$137082[ebp], eax
$LN9@WallAvoida:
	mov	ecx, DWORD PTR _this$[ebp]
	add	ecx, 56					; 00000038H
	call	?size@?$vector@UVector2D@@V?$allocator@UVector2D@@@std@@@std@@QBEIXZ ; std::vector<Vector2D,std::allocator<Vector2D> >::size
	cmp	DWORD PTR _flr$137082[ebp], eax
	jae	$LN7@WallAvoida

; 292  :   {
; 293  :     //run through each wall checking for any intersection points
; 294  :     for (unsigned int w=0; w<walls.size(); ++w)

	mov	DWORD PTR _w$137086[ebp], 0
	jmp	SHORT $LN6@WallAvoida
$LN5@WallAvoida:
	mov	ecx, DWORD PTR _w$137086[ebp]
	add	ecx, 1
	mov	DWORD PTR _w$137086[ebp], ecx
$LN6@WallAvoida:
	mov	ecx, DWORD PTR _walls$[ebp]
	call	?size@?$vector@PAVWall2D@@V?$allocator@PAVWall2D@@@std@@@std@@QBEIXZ ; std::vector<Wall2D *,std::allocator<Wall2D *> >::size
	cmp	DWORD PTR _w$137086[ebp], eax
	jae	$LN4@WallAvoida

; 295  :     {
; 296  :       if (LineIntersection2D(m_pRaven_Bot->Pos(),
; 297  :                              m_Feelers[flr],
; 298  :                              walls[w]->From(),
; 299  :                              walls[w]->To(),
; 300  :                              DistToThisIP,
; 301  :                              point))

	lea	edx, DWORD PTR _point$[ebp]
	push	edx
	lea	eax, DWORD PTR _DistToThisIP$[ebp]
	push	eax
	lea	ecx, DWORD PTR $T146304[ebp]
	push	ecx
	mov	edx, DWORD PTR _w$137086[ebp]
	push	edx
	mov	ecx, DWORD PTR _walls$[ebp]
	call	??A?$vector@PAVWall2D@@V?$allocator@PAVWall2D@@@std@@@std@@QBEABQAVWall2D@@I@Z ; std::vector<Wall2D *,std::allocator<Wall2D *> >::operator[]
	mov	ecx, DWORD PTR [eax]
	call	?To@Wall2D@@QBE?AUVector2D@@XZ		; Wall2D::To
	sub	esp, 16					; 00000010H
	mov	ecx, esp
	mov	edx, DWORD PTR [eax]
	mov	DWORD PTR [ecx], edx
	mov	edx, DWORD PTR [eax+4]
	mov	DWORD PTR [ecx+4], edx
	mov	edx, DWORD PTR [eax+8]
	mov	DWORD PTR [ecx+8], edx
	mov	eax, DWORD PTR [eax+12]
	mov	DWORD PTR [ecx+12], eax
	lea	ecx, DWORD PTR $T146305[ebp]
	push	ecx
	mov	edx, DWORD PTR _w$137086[ebp]
	push	edx
	mov	ecx, DWORD PTR _walls$[ebp]
	call	??A?$vector@PAVWall2D@@V?$allocator@PAVWall2D@@@std@@@std@@QBEABQAVWall2D@@I@Z ; std::vector<Wall2D *,std::allocator<Wall2D *> >::operator[]
	mov	ecx, DWORD PTR [eax]
	call	?From@Wall2D@@QBE?AUVector2D@@XZ	; Wall2D::From
	sub	esp, 16					; 00000010H
	mov	ecx, esp
	mov	edx, DWORD PTR [eax]
	mov	DWORD PTR [ecx], edx
	mov	edx, DWORD PTR [eax+4]
	mov	DWORD PTR [ecx+4], edx
	mov	edx, DWORD PTR [eax+8]
	mov	DWORD PTR [ecx+8], edx
	mov	eax, DWORD PTR [eax+12]
	mov	DWORD PTR [ecx+12], eax
	mov	ecx, DWORD PTR _flr$137082[ebp]
	push	ecx
	mov	ecx, DWORD PTR _this$[ebp]
	add	ecx, 56					; 00000038H
	call	??A?$vector@UVector2D@@V?$allocator@UVector2D@@@std@@@std@@QAEAAUVector2D@@I@Z ; std::vector<Vector2D,std::allocator<Vector2D> >::operator[]
	sub	esp, 16					; 00000010H
	mov	edx, esp
	mov	ecx, DWORD PTR [eax]
	mov	DWORD PTR [edx], ecx
	mov	ecx, DWORD PTR [eax+4]
	mov	DWORD PTR [edx+4], ecx
	mov	ecx, DWORD PTR [eax+8]
	mov	DWORD PTR [edx+8], ecx
	mov	eax, DWORD PTR [eax+12]
	mov	DWORD PTR [edx+12], eax
	lea	ecx, DWORD PTR $T146306[ebp]
	push	ecx
	mov	edx, DWORD PTR _this$[ebp]
	mov	ecx, DWORD PTR [edx+8]
	call	?Pos@BaseGameEntity@@QBE?AUVector2D@@XZ	; BaseGameEntity::Pos
	sub	esp, 16					; 00000010H
	mov	ecx, esp
	mov	edx, DWORD PTR [eax]
	mov	DWORD PTR [ecx], edx
	mov	edx, DWORD PTR [eax+4]
	mov	DWORD PTR [ecx+4], edx
	mov	edx, DWORD PTR [eax+8]
	mov	DWORD PTR [ecx+8], edx
	mov	eax, DWORD PTR [eax+12]
	mov	DWORD PTR [ecx+12], eax
	call	?LineIntersection2D@@YA_NUVector2D@@000AANAAU1@@Z ; LineIntersection2D
	add	esp, 72					; 00000048H
	movzx	ecx, al
	test	ecx, ecx
	je	SHORT $LN2@WallAvoida

; 302  :       {
; 303  :         //is this the closest found so far? If so keep a record
; 304  :         if (DistToThisIP < DistToClosestIP)

	fld	QWORD PTR _DistToClosestIP$[ebp]
	fcomp	QWORD PTR _DistToThisIP$[ebp]
	fnstsw	ax
	test	ah, 65					; 00000041H
	jne	SHORT $LN2@WallAvoida

; 305  :         {
; 306  :           DistToClosestIP = DistToThisIP;

	fld	QWORD PTR _DistToThisIP$[ebp]
	fstp	QWORD PTR _DistToClosestIP$[ebp]

; 307  : 
; 308  :           ClosestWall = w;

	mov	edx, DWORD PTR _w$137086[ebp]
	mov	DWORD PTR _ClosestWall$[ebp], edx

; 309  : 
; 310  :           ClosestPoint = point;

	mov	eax, DWORD PTR _point$[ebp]
	mov	DWORD PTR _ClosestPoint$[ebp], eax
	mov	ecx, DWORD PTR _point$[ebp+4]
	mov	DWORD PTR _ClosestPoint$[ebp+4], ecx
	mov	edx, DWORD PTR _point$[ebp+8]
	mov	DWORD PTR _ClosestPoint$[ebp+8], edx
	mov	eax, DWORD PTR _point$[ebp+12]
	mov	DWORD PTR _ClosestPoint$[ebp+12], eax
$LN2@WallAvoida:

; 311  :         }
; 312  :       }
; 313  :     }//next wall

	jmp	$LN5@WallAvoida
$LN4@WallAvoida:

; 314  : 
; 315  :   
; 316  :     //if an intersection point has been detected, calculate a force  
; 317  :     //that will direct the agent away
; 318  :     if (ClosestWall >=0)

	cmp	DWORD PTR _ClosestWall$[ebp], 0
	jl	SHORT $LN1@WallAvoida

; 319  :     {
; 320  :       //calculate by what distance the projected position of the agent
; 321  :       //will overshoot the wall
; 322  :       Vector2D OverShoot = m_Feelers[flr] - ClosestPoint;

	lea	ecx, DWORD PTR _ClosestPoint$[ebp]
	push	ecx
	mov	edx, DWORD PTR _flr$137082[ebp]
	push	edx
	mov	ecx, DWORD PTR _this$[ebp]
	add	ecx, 56					; 00000038H
	call	??A?$vector@UVector2D@@V?$allocator@UVector2D@@@std@@@std@@QAEAAUVector2D@@I@Z ; std::vector<Vector2D,std::allocator<Vector2D> >::operator[]
	push	eax
	lea	eax, DWORD PTR _OverShoot$137096[ebp]
	push	eax
	call	??G@YA?AUVector2D@@ABU0@0@Z		; operator-
	add	esp, 12					; 0000000cH

; 323  : 
; 324  :       //create a force in the direction of the wall normal, with a 
; 325  :       //magnitude of the overshoot
; 326  :       SteeringForce = walls[ClosestWall]->Normal() * OverShoot.Length();

	lea	ecx, DWORD PTR _OverShoot$137096[ebp]
	call	?Length@Vector2D@@QBENXZ		; Vector2D::Length
	sub	esp, 8
	fstp	QWORD PTR [esp]
	lea	ecx, DWORD PTR $T146307[ebp]
	push	ecx
	mov	edx, DWORD PTR _ClosestWall$[ebp]
	push	edx
	mov	ecx, DWORD PTR _walls$[ebp]
	call	??A?$vector@PAVWall2D@@V?$allocator@PAVWall2D@@@std@@@std@@QBEABQAVWall2D@@I@Z ; std::vector<Wall2D *,std::allocator<Wall2D *> >::operator[]
	mov	ecx, DWORD PTR [eax]
	call	?Normal@Wall2D@@QBE?AUVector2D@@XZ	; Wall2D::Normal
	push	eax
	lea	eax, DWORD PTR $T146308[ebp]
	push	eax
	call	??D@YA?AUVector2D@@ABU0@N@Z		; operator*
	add	esp, 16					; 00000010H
	mov	ecx, DWORD PTR [eax]
	mov	DWORD PTR _SteeringForce$[ebp], ecx
	mov	edx, DWORD PTR [eax+4]
	mov	DWORD PTR _SteeringForce$[ebp+4], edx
	mov	ecx, DWORD PTR [eax+8]
	mov	DWORD PTR _SteeringForce$[ebp+8], ecx
	mov	edx, DWORD PTR [eax+12]
	mov	DWORD PTR _SteeringForce$[ebp+12], edx
$LN1@WallAvoida:

; 327  :     }
; 328  : 
; 329  :   }//next feeler

	jmp	$LN8@WallAvoida
$LN7@WallAvoida:

; 330  : 
; 331  :   return SteeringForce;

	mov	eax, DWORD PTR ___$ReturnUdt$[ebp]
	mov	ecx, DWORD PTR _SteeringForce$[ebp]
	mov	DWORD PTR [eax], ecx
	mov	edx, DWORD PTR _SteeringForce$[ebp+4]
	mov	DWORD PTR [eax+4], edx
	mov	ecx, DWORD PTR _SteeringForce$[ebp+8]
	mov	DWORD PTR [eax+8], ecx
	mov	edx, DWORD PTR _SteeringForce$[ebp+12]
	mov	DWORD PTR [eax+12], edx
	mov	eax, DWORD PTR ___$ReturnUdt$[ebp]

; 332  : }

	push	edx
	mov	ecx, ebp
	push	eax
	lea	edx, DWORD PTR $LN18@WallAvoida
	call	@_RTC_CheckStackVars@8
	pop	eax
	pop	edx
	pop	edi
	add	esp, 216				; 000000d8H
	cmp	ebp, esp
	call	__RTC_CheckEsp
	mov	esp, ebp
	pop	ebp
	ret	8
	npad	1
$LN18@WallAvoida:
	DD	5
	DD	$LN17@WallAvoida
$LN17@WallAvoida:
	DD	-16					; fffffff0H
	DD	8
	DD	$LN12@WallAvoida
	DD	-52					; ffffffccH
	DD	16					; 00000010H
	DD	$LN13@WallAvoida
	DD	-76					; ffffffb4H
	DD	16					; 00000010H
	DD	$LN14@WallAvoida
	DD	-100					; ffffff9cH
	DD	16					; 00000010H
	DD	$LN15@WallAvoida
	DD	-132					; ffffff7cH
	DD	16					; 00000010H
	DD	$LN16@WallAvoida
$LN16@WallAvoida:
	DB	79					; 0000004fH
	DB	118					; 00000076H
	DB	101					; 00000065H
	DB	114					; 00000072H
	DB	83					; 00000053H
	DB	104					; 00000068H
	DB	111					; 0000006fH
	DB	111					; 0000006fH
	DB	116					; 00000074H
	DB	0
$LN15@WallAvoida:
	DB	67					; 00000043H
	DB	108					; 0000006cH
	DB	111					; 0000006fH
	DB	115					; 00000073H
	DB	101					; 00000065H
	DB	115					; 00000073H
	DB	116					; 00000074H
	DB	80					; 00000050H
	DB	111					; 0000006fH
	DB	105					; 00000069H
	DB	110					; 0000006eH
	DB	116					; 00000074H
	DB	0
$LN14@WallAvoida:
	DB	112					; 00000070H
	DB	111					; 0000006fH
	DB	105					; 00000069H
	DB	110					; 0000006eH
	DB	116					; 00000074H
	DB	0
$LN13@WallAvoida:
	DB	83					; 00000053H
	DB	116					; 00000074H
	DB	101					; 00000065H
	DB	101					; 00000065H
	DB	114					; 00000072H
	DB	105					; 00000069H
	DB	110					; 0000006eH
	DB	103					; 00000067H
	DB	70					; 00000046H
	DB	111					; 0000006fH
	DB	114					; 00000072H
	DB	99					; 00000063H
	DB	101					; 00000065H
	DB	0
$LN12@WallAvoida:
	DB	68					; 00000044H
	DB	105					; 00000069H
	DB	115					; 00000073H
	DB	116					; 00000074H
	DB	84					; 00000054H
	DB	111					; 0000006fH
	DB	84					; 00000054H
	DB	104					; 00000068H
	DB	105					; 00000069H
	DB	115					; 00000073H
	DB	73					; 00000049H
	DB	80					; 00000050H
	DB	0
?WallAvoidance@AbstSteering@@MAE?AUVector2D@@ABV?$vector@PAVWall2D@@V?$allocator@PAVWall2D@@@std@@@std@@@Z ENDP ; AbstSteering::WallAvoidance
_TEXT	ENDS
PUBLIC	??D@YA?AUVector2D@@NABU0@@Z			; operator*
PUBLIC	?Vec2DDistance@@YANABUVector2D@@0@Z		; Vec2DDistance
; Function compile flags: /Odtp /RTCsu
; File c:\users\teaja\documents\artificial-fun\labravenprojecttest\common\2d\geometry.h
;	COMDAT ?LineIntersection2D@@YA_NUVector2D@@000AANAAU1@@Z
_TEXT	SEGMENT
$T146319 = -96						; size = 16
$T146318 = -80						; size = 16
$T146317 = -64						; size = 16
_s$ = -48						; size = 8
_r$ = -40						; size = 8
_sBot$ = -32						; size = 8
_sTop$ = -24						; size = 8
_rBot$ = -16						; size = 8
_rTop$ = -8						; size = 8
_A$ = 8							; size = 16
_B$ = 24						; size = 16
_C$ = 40						; size = 16
_D$ = 56						; size = 16
_dist$ = 72						; size = 4
_point$ = 76						; size = 4
?LineIntersection2D@@YA_NUVector2D@@000AANAAU1@@Z PROC	; LineIntersection2D, COMDAT

; 290  : {

	push	ebp
	mov	ebp, esp
	sub	esp, 96					; 00000060H
	push	edi
	lea	edi, DWORD PTR [ebp-96]
	mov	ecx, 24					; 00000018H
	mov	eax, -858993460				; ccccccccH
	rep stosd

; 291  : 
; 292  :   double rTop = (A.y-C.y)*(D.x-C.x)-(A.x-C.x)*(D.y-C.y);

	fld	QWORD PTR _A$[ebp+8]
	fsub	QWORD PTR _C$[ebp+8]
	fld	QWORD PTR _D$[ebp]
	fsub	QWORD PTR _C$[ebp]
	fmulp	ST(1), ST(0)
	fld	QWORD PTR _A$[ebp]
	fsub	QWORD PTR _C$[ebp]
	fld	QWORD PTR _D$[ebp+8]
	fsub	QWORD PTR _C$[ebp+8]
	fmulp	ST(1), ST(0)
	fsubp	ST(1), ST(0)
	fstp	QWORD PTR _rTop$[ebp]

; 293  : 	double rBot = (B.x-A.x)*(D.y-C.y)-(B.y-A.y)*(D.x-C.x);

	fld	QWORD PTR _B$[ebp]
	fsub	QWORD PTR _A$[ebp]
	fld	QWORD PTR _D$[ebp+8]
	fsub	QWORD PTR _C$[ebp+8]
	fmulp	ST(1), ST(0)
	fld	QWORD PTR _B$[ebp+8]
	fsub	QWORD PTR _A$[ebp+8]
	fld	QWORD PTR _D$[ebp]
	fsub	QWORD PTR _C$[ebp]
	fmulp	ST(1), ST(0)
	fsubp	ST(1), ST(0)
	fstp	QWORD PTR _rBot$[ebp]

; 294  : 
; 295  : 	double sTop = (A.y-C.y)*(B.x-A.x)-(A.x-C.x)*(B.y-A.y);

	fld	QWORD PTR _A$[ebp+8]
	fsub	QWORD PTR _C$[ebp+8]
	fld	QWORD PTR _B$[ebp]
	fsub	QWORD PTR _A$[ebp]
	fmulp	ST(1), ST(0)
	fld	QWORD PTR _A$[ebp]
	fsub	QWORD PTR _C$[ebp]
	fld	QWORD PTR _B$[ebp+8]
	fsub	QWORD PTR _A$[ebp+8]
	fmulp	ST(1), ST(0)
	fsubp	ST(1), ST(0)
	fstp	QWORD PTR _sTop$[ebp]

; 296  : 	double sBot = (B.x-A.x)*(D.y-C.y)-(B.y-A.y)*(D.x-C.x);

	fld	QWORD PTR _B$[ebp]
	fsub	QWORD PTR _A$[ebp]
	fld	QWORD PTR _D$[ebp+8]
	fsub	QWORD PTR _C$[ebp+8]
	fmulp	ST(1), ST(0)
	fld	QWORD PTR _B$[ebp+8]
	fsub	QWORD PTR _A$[ebp+8]
	fld	QWORD PTR _D$[ebp]
	fsub	QWORD PTR _C$[ebp]
	fmulp	ST(1), ST(0)
	fsubp	ST(1), ST(0)
	fstp	QWORD PTR _sBot$[ebp]

; 297  : 
; 298  : 	if ( (rBot == 0) || (sBot == 0))

	fld	QWORD PTR _rBot$[ebp]
	fldz
	fucompp
	fnstsw	ax
	test	ah, 68					; 00000044H
	jnp	SHORT $LN3@LineInters
	fld	QWORD PTR _sBot$[ebp]
	fldz
	fucompp
	fnstsw	ax
	test	ah, 68					; 00000044H
	jp	SHORT $LN4@LineInters
$LN3@LineInters:

; 299  : 	{
; 300  : 		//lines are parallel
; 301  : 		return false;

	xor	al, al
	jmp	$LN1@LineInters
$LN4@LineInters:

; 302  : 	}
; 303  : 
; 304  : 	double r = rTop/rBot;

	fld	QWORD PTR _rTop$[ebp]
	fdiv	QWORD PTR _rBot$[ebp]
	fstp	QWORD PTR _r$[ebp]

; 305  : 	double s = sTop/sBot;

	fld	QWORD PTR _sTop$[ebp]
	fdiv	QWORD PTR _sBot$[ebp]
	fstp	QWORD PTR _s$[ebp]

; 306  : 
; 307  : 	if( (r > 0) && (r < 1) && (s > 0) && (s < 1) )

	fldz
	fcomp	QWORD PTR _r$[ebp]
	fnstsw	ax
	test	ah, 5
	jp	$LN2@LineInters
	fld1
	fcomp	QWORD PTR _r$[ebp]
	fnstsw	ax
	test	ah, 65					; 00000041H
	jne	$LN2@LineInters
	fldz
	fcomp	QWORD PTR _s$[ebp]
	fnstsw	ax
	test	ah, 5
	jp	SHORT $LN2@LineInters
	fld1
	fcomp	QWORD PTR _s$[ebp]
	fnstsw	ax
	test	ah, 65					; 00000041H
	jne	SHORT $LN2@LineInters

; 308  :   {
; 309  :   	dist = Vec2DDistance(A,B) * r;

	lea	eax, DWORD PTR _B$[ebp]
	push	eax
	lea	ecx, DWORD PTR _A$[ebp]
	push	ecx
	call	?Vec2DDistance@@YANABUVector2D@@0@Z	; Vec2DDistance
	add	esp, 8
	fmul	QWORD PTR _r$[ebp]
	mov	edx, DWORD PTR _dist$[ebp]
	fstp	QWORD PTR [edx]

; 310  : 
; 311  :     point = A + r * (B - A);

	lea	eax, DWORD PTR _A$[ebp]
	push	eax
	lea	ecx, DWORD PTR _B$[ebp]
	push	ecx
	lea	edx, DWORD PTR $T146317[ebp]
	push	edx
	call	??G@YA?AUVector2D@@ABU0@0@Z		; operator-
	add	esp, 12					; 0000000cH
	push	eax
	sub	esp, 8
	fld	QWORD PTR _r$[ebp]
	fstp	QWORD PTR [esp]
	lea	eax, DWORD PTR $T146318[ebp]
	push	eax
	call	??D@YA?AUVector2D@@NABU0@@Z		; operator*
	add	esp, 16					; 00000010H
	push	eax
	lea	ecx, DWORD PTR _A$[ebp]
	push	ecx
	lea	edx, DWORD PTR $T146319[ebp]
	push	edx
	call	??H@YA?AUVector2D@@ABU0@0@Z		; operator+
	add	esp, 12					; 0000000cH
	mov	ecx, DWORD PTR _point$[ebp]
	mov	edx, DWORD PTR [eax]
	mov	DWORD PTR [ecx], edx
	mov	edx, DWORD PTR [eax+4]
	mov	DWORD PTR [ecx+4], edx
	mov	edx, DWORD PTR [eax+8]
	mov	DWORD PTR [ecx+8], edx
	mov	eax, DWORD PTR [eax+12]
	mov	DWORD PTR [ecx+12], eax

; 312  : 
; 313  :     return true;

	mov	al, 1
	jmp	SHORT $LN1@LineInters

; 314  :   }
; 315  : 
; 316  : 	else

	jmp	SHORT $LN1@LineInters
$LN2@LineInters:

; 317  :   {
; 318  : 		dist = 0;

	mov	ecx, DWORD PTR _dist$[ebp]
	fldz
	fstp	QWORD PTR [ecx]

; 319  : 
; 320  :     return false;

	xor	al, al
$LN1@LineInters:

; 321  :   }
; 322  : }

	pop	edi
	add	esp, 96					; 00000060H
	cmp	ebp, esp
	call	__RTC_CheckEsp
	mov	esp, ebp
	pop	ebp
	ret	0
?LineIntersection2D@@YA_NUVector2D@@000AANAAU1@@Z ENDP	; LineIntersection2D
; Function compile flags: /Odtp /RTCsu
; File c:\users\teaja\documents\artificial-fun\labravenprojecttest\common\2d\vector2d.h
_TEXT	ENDS
;	COMDAT ?Vec2DDistance@@YANABUVector2D@@0@Z
_TEXT	SEGMENT
_xSeparation$ = -16					; size = 8
_ySeparation$ = -8					; size = 8
_v1$ = 8						; size = 4
_v2$ = 12						; size = 4
?Vec2DDistance@@YANABUVector2D@@0@Z PROC		; Vec2DDistance, COMDAT

; 274  : {

	push	ebp
	mov	ebp, esp
	sub	esp, 16					; 00000010H
	mov	eax, -858993460				; ccccccccH
	mov	DWORD PTR [ebp-16], eax
	mov	DWORD PTR [ebp-12], eax
	mov	DWORD PTR [ebp-8], eax
	mov	DWORD PTR [ebp-4], eax

; 275  : 
; 276  :   double ySeparation = v2.y - v1.y;

	mov	eax, DWORD PTR _v2$[ebp]
	mov	ecx, DWORD PTR _v1$[ebp]
	fld	QWORD PTR [eax+8]
	fsub	QWORD PTR [ecx+8]
	fstp	QWORD PTR _ySeparation$[ebp]

; 277  :   double xSeparation = v2.x - v1.x;

	mov	edx, DWORD PTR _v2$[ebp]
	mov	eax, DWORD PTR _v1$[ebp]
	fld	QWORD PTR [edx]
	fsub	QWORD PTR [eax]
	fstp	QWORD PTR _xSeparation$[ebp]

; 278  : 
; 279  :   return sqrt(ySeparation*ySeparation + xSeparation*xSeparation);

	fld	QWORD PTR _ySeparation$[ebp]
	fmul	QWORD PTR _ySeparation$[ebp]
	fld	QWORD PTR _xSeparation$[ebp]
	fmul	QWORD PTR _xSeparation$[ebp]
	faddp	ST(1), ST(0)
	sub	esp, 8
	fstp	QWORD PTR [esp]
	call	_sqrt
	add	esp, 8

; 280  : }

	add	esp, 16					; 00000010H
	cmp	ebp, esp
	call	__RTC_CheckEsp
	mov	esp, ebp
	pop	ebp
	ret	0
?Vec2DDistance@@YANABUVector2D@@0@Z ENDP		; Vec2DDistance
; Function compile flags: /Odtp /RTCsu
_TEXT	ENDS
;	COMDAT ??D@YA?AUVector2D@@NABU0@@Z
_TEXT	SEGMENT
_result$ = -20						; size = 16
___$ReturnUdt$ = 8					; size = 4
_lhs$ = 12						; size = 8
_rhs$ = 20						; size = 4
??D@YA?AUVector2D@@NABU0@@Z PROC			; operator*, COMDAT

; 341  : {

	push	ebp
	mov	ebp, esp
	sub	esp, 24					; 00000018H
	mov	eax, -858993460				; ccccccccH
	mov	DWORD PTR [ebp-24], eax
	mov	DWORD PTR [ebp-20], eax
	mov	DWORD PTR [ebp-16], eax
	mov	DWORD PTR [ebp-12], eax
	mov	DWORD PTR [ebp-8], eax
	mov	DWORD PTR [ebp-4], eax

; 342  :   Vector2D result(rhs);

	mov	eax, DWORD PTR _rhs$[ebp]
	mov	ecx, DWORD PTR [eax]
	mov	DWORD PTR _result$[ebp], ecx
	mov	edx, DWORD PTR [eax+4]
	mov	DWORD PTR _result$[ebp+4], edx
	mov	ecx, DWORD PTR [eax+8]
	mov	DWORD PTR _result$[ebp+8], ecx
	mov	edx, DWORD PTR [eax+12]
	mov	DWORD PTR _result$[ebp+12], edx

; 343  :   result *= lhs;

	lea	eax, DWORD PTR _lhs$[ebp]
	push	eax
	lea	ecx, DWORD PTR _result$[ebp]
	call	??XVector2D@@QAEABU0@ABN@Z		; Vector2D::operator*=

; 344  :   return result;

	mov	ecx, DWORD PTR ___$ReturnUdt$[ebp]
	mov	edx, DWORD PTR _result$[ebp]
	mov	DWORD PTR [ecx], edx
	mov	eax, DWORD PTR _result$[ebp+4]
	mov	DWORD PTR [ecx+4], eax
	mov	edx, DWORD PTR _result$[ebp+8]
	mov	DWORD PTR [ecx+8], edx
	mov	eax, DWORD PTR _result$[ebp+12]
	mov	DWORD PTR [ecx+12], eax
	mov	eax, DWORD PTR ___$ReturnUdt$[ebp]

; 345  : }

	push	edx
	mov	ecx, ebp
	push	eax
	lea	edx, DWORD PTR $LN5@operator@5
	call	@_RTC_CheckStackVars@8
	pop	eax
	pop	edx
	add	esp, 24					; 00000018H
	cmp	ebp, esp
	call	__RTC_CheckEsp
	mov	esp, ebp
	pop	ebp
	ret	0
	npad	1
$LN5@operator@5:
	DD	1
	DD	$LN4@operator@5
$LN4@operator@5:
	DD	-20					; ffffffecH
	DD	16					; 00000010H
	DD	$LN3@operator@5
$LN3@operator@5:
	DB	114					; 00000072H
	DB	101					; 00000065H
	DB	115					; 00000073H
	DB	117					; 00000075H
	DB	108					; 0000006cH
	DB	116					; 00000074H
	DB	0
??D@YA?AUVector2D@@NABU0@@Z ENDP			; operator*
; Function compile flags: /Odtp /RTCsu
; File c:\users\teaja\documents\artificial-fun\labravenprojecttest\common\2d\wall2d.h
_TEXT	ENDS
;	COMDAT ?From@Wall2D@@QBE?AUVector2D@@XZ
_TEXT	SEGMENT
_this$ = -4						; size = 4
___$ReturnUdt$ = 8					; size = 4
?From@Wall2D@@QBE?AUVector2D@@XZ PROC			; Wall2D::From, COMDAT
; _this$ = ecx

; 63   :   Vector2D From()const  {return m_vA;}

	push	ebp
	mov	ebp, esp
	push	ecx
	mov	DWORD PTR [ebp-4], -858993460		; ccccccccH
	mov	DWORD PTR _this$[ebp], ecx
	mov	eax, DWORD PTR _this$[ebp]
	add	eax, 8
	mov	ecx, DWORD PTR ___$ReturnUdt$[ebp]
	mov	edx, DWORD PTR [eax]
	mov	DWORD PTR [ecx], edx
	mov	edx, DWORD PTR [eax+4]
	mov	DWORD PTR [ecx+4], edx
	mov	edx, DWORD PTR [eax+8]
	mov	DWORD PTR [ecx+8], edx
	mov	eax, DWORD PTR [eax+12]
	mov	DWORD PTR [ecx+12], eax
	mov	eax, DWORD PTR ___$ReturnUdt$[ebp]
	mov	esp, ebp
	pop	ebp
	ret	4
?From@Wall2D@@QBE?AUVector2D@@XZ ENDP			; Wall2D::From
; Function compile flags: /Odtp /RTCsu
_TEXT	ENDS
;	COMDAT ?To@Wall2D@@QBE?AUVector2D@@XZ
_TEXT	SEGMENT
_this$ = -4						; size = 4
___$ReturnUdt$ = 8					; size = 4
?To@Wall2D@@QBE?AUVector2D@@XZ PROC			; Wall2D::To, COMDAT
; _this$ = ecx

; 66   :   Vector2D To()const    {return m_vB;}

	push	ebp
	mov	ebp, esp
	push	ecx
	mov	DWORD PTR [ebp-4], -858993460		; ccccccccH
	mov	DWORD PTR _this$[ebp], ecx
	mov	eax, DWORD PTR _this$[ebp]
	add	eax, 24					; 00000018H
	mov	ecx, DWORD PTR ___$ReturnUdt$[ebp]
	mov	edx, DWORD PTR [eax]
	mov	DWORD PTR [ecx], edx
	mov	edx, DWORD PTR [eax+4]
	mov	DWORD PTR [ecx+4], edx
	mov	edx, DWORD PTR [eax+8]
	mov	DWORD PTR [ecx+8], edx
	mov	eax, DWORD PTR [eax+12]
	mov	DWORD PTR [ecx+12], eax
	mov	eax, DWORD PTR ___$ReturnUdt$[ebp]
	mov	esp, ebp
	pop	ebp
	ret	4
?To@Wall2D@@QBE?AUVector2D@@XZ ENDP			; Wall2D::To
; Function compile flags: /Odtp /RTCsu
_TEXT	ENDS
;	COMDAT ?Normal@Wall2D@@QBE?AUVector2D@@XZ
_TEXT	SEGMENT
_this$ = -4						; size = 4
___$ReturnUdt$ = 8					; size = 4
?Normal@Wall2D@@QBE?AUVector2D@@XZ PROC			; Wall2D::Normal, COMDAT
; _this$ = ecx

; 69   :   Vector2D Normal()const{return m_vN;}

	push	ebp
	mov	ebp, esp
	push	ecx
	mov	DWORD PTR [ebp-4], -858993460		; ccccccccH
	mov	DWORD PTR _this$[ebp], ecx
	mov	eax, DWORD PTR _this$[ebp]
	add	eax, 40					; 00000028H
	mov	ecx, DWORD PTR ___$ReturnUdt$[ebp]
	mov	edx, DWORD PTR [eax]
	mov	DWORD PTR [ecx], edx
	mov	edx, DWORD PTR [eax+4]
	mov	DWORD PTR [ecx+4], edx
	mov	edx, DWORD PTR [eax+8]
	mov	DWORD PTR [ecx+8], edx
	mov	eax, DWORD PTR [eax+12]
	mov	DWORD PTR [ecx+12], eax
	mov	eax, DWORD PTR ___$ReturnUdt$[ebp]
	mov	esp, ebp
	pop	ebp
	ret	4
?Normal@Wall2D@@QBE?AUVector2D@@XZ ENDP			; Wall2D::Normal
_TEXT	ENDS
PUBLIC	__real@3fe0000000000000
PUBLIC	__real@4000000000000000
PUBLIC	?Vec2DRotateAroundOrigin@@YAXAAUVector2D@@N@Z	; Vec2DRotateAroundOrigin
PUBLIC	__real@400c000000000000
PUBLIC	?Speed@MovingEntity@@QBENXZ			; MovingEntity::Speed
;	COMDAT __real@3fe0000000000000
; File c:\users\teaja\documents\artificial-fun\labravenprojecttest\raven\abststeeringbehaviors.cpp
CONST	SEGMENT
__real@3fe0000000000000 DQ 03fe0000000000000r	; 0.5
CONST	ENDS
;	COMDAT __real@4000000000000000
CONST	SEGMENT
__real@4000000000000000 DQ 04000000000000000r	; 2
CONST	ENDS
;	COMDAT __real@400c000000000000
CONST	SEGMENT
__real@400c000000000000 DQ 0400c000000000000r	; 3.5
; Function compile flags: /Odtp /RTCsu
CONST	ENDS
_TEXT	SEGMENT
$T146346 = -220						; size = 16
$T146345 = -204						; size = 16
$T146344 = -188						; size = 16
$T146343 = -172						; size = 16
$T146342 = -156						; size = 16
$T146341 = -140						; size = 16
$T146340 = -124						; size = 16
$T146339 = -108						; size = 16
$T146338 = -92						; size = 16
$T146337 = -76						; size = 16
$T146336 = -60						; size = 16
$T146335 = -44						; size = 16
_temp$ = -24						; size = 16
_this$ = -4						; size = 4
?CreateFeelers@AbstSteering@@IAEXXZ PROC		; AbstSteering::CreateFeelers
; _this$ = ecx

; 339  : {

	push	ebp
	mov	ebp, esp
	sub	esp, 220				; 000000dcH
	push	esi
	push	edi
	push	ecx
	lea	edi, DWORD PTR [ebp-220]
	mov	ecx, 55					; 00000037H
	mov	eax, -858993460				; ccccccccH
	rep stosd
	pop	ecx
	mov	DWORD PTR _this$[ebp], ecx

; 340  :   //feeler pointing straight in front
; 341  :   m_Feelers[0] = m_pRaven_Bot->Pos() + m_dWallDetectionFeelerLength *
; 342  :                  m_pRaven_Bot->Heading() * m_pRaven_Bot->Speed();

	mov	eax, DWORD PTR _this$[ebp]
	mov	ecx, DWORD PTR [eax+8]
	call	?Speed@MovingEntity@@QBENXZ		; MovingEntity::Speed
	sub	esp, 8
	fstp	QWORD PTR [esp]
	lea	ecx, DWORD PTR $T146335[ebp]
	push	ecx
	mov	edx, DWORD PTR _this$[ebp]
	mov	ecx, DWORD PTR [edx+8]
	call	?Heading@MovingEntity@@QBE?AUVector2D@@XZ ; MovingEntity::Heading
	push	eax
	mov	eax, DWORD PTR _this$[ebp]
	sub	esp, 8
	fld	QWORD PTR [eax+80]
	fstp	QWORD PTR [esp]
	lea	ecx, DWORD PTR $T146336[ebp]
	push	ecx
	call	??D@YA?AUVector2D@@NABU0@@Z		; operator*
	add	esp, 16					; 00000010H
	push	eax
	lea	edx, DWORD PTR $T146337[ebp]
	push	edx
	call	??D@YA?AUVector2D@@ABU0@N@Z		; operator*
	add	esp, 16					; 00000010H
	push	eax
	lea	eax, DWORD PTR $T146338[ebp]
	push	eax
	mov	ecx, DWORD PTR _this$[ebp]
	mov	ecx, DWORD PTR [ecx+8]
	call	?Pos@BaseGameEntity@@QBE?AUVector2D@@XZ	; BaseGameEntity::Pos
	push	eax
	lea	edx, DWORD PTR $T146339[ebp]
	push	edx
	call	??H@YA?AUVector2D@@ABU0@0@Z		; operator+
	add	esp, 12					; 0000000cH
	mov	esi, eax
	push	0
	mov	ecx, DWORD PTR _this$[ebp]
	add	ecx, 56					; 00000038H
	call	??A?$vector@UVector2D@@V?$allocator@UVector2D@@@std@@@std@@QAEAAUVector2D@@I@Z ; std::vector<Vector2D,std::allocator<Vector2D> >::operator[]
	mov	ecx, DWORD PTR [esi]
	mov	DWORD PTR [eax], ecx
	mov	edx, DWORD PTR [esi+4]
	mov	DWORD PTR [eax+4], edx
	mov	ecx, DWORD PTR [esi+8]
	mov	DWORD PTR [eax+8], ecx
	mov	edx, DWORD PTR [esi+12]
	mov	DWORD PTR [eax+12], edx

; 343  : 
; 344  :   //feeler to left
; 345  :   Vector2D temp = m_pRaven_Bot->Heading();

	lea	eax, DWORD PTR _temp$[ebp]
	push	eax
	mov	ecx, DWORD PTR _this$[ebp]
	mov	ecx, DWORD PTR [ecx+8]
	call	?Heading@MovingEntity@@QBE?AUVector2D@@XZ ; MovingEntity::Heading

; 346  :   Vec2DRotateAroundOrigin(temp, HalfPi * 3.5);

	fld	QWORD PTR _HalfPi
	fmul	QWORD PTR __real@400c000000000000
	sub	esp, 8
	fstp	QWORD PTR [esp]
	lea	edx, DWORD PTR _temp$[ebp]
	push	edx
	call	?Vec2DRotateAroundOrigin@@YAXAAUVector2D@@N@Z ; Vec2DRotateAroundOrigin
	add	esp, 12					; 0000000cH

; 347  :   m_Feelers[1] = m_pRaven_Bot->Pos() + m_dWallDetectionFeelerLength/2.0 * temp;

	lea	eax, DWORD PTR _temp$[ebp]
	push	eax
	mov	ecx, DWORD PTR _this$[ebp]
	fld	QWORD PTR [ecx+80]
	fdiv	QWORD PTR __real@4000000000000000
	sub	esp, 8
	fstp	QWORD PTR [esp]
	lea	edx, DWORD PTR $T146340[ebp]
	push	edx
	call	??D@YA?AUVector2D@@NABU0@@Z		; operator*
	add	esp, 16					; 00000010H
	push	eax
	lea	eax, DWORD PTR $T146341[ebp]
	push	eax
	mov	ecx, DWORD PTR _this$[ebp]
	mov	ecx, DWORD PTR [ecx+8]
	call	?Pos@BaseGameEntity@@QBE?AUVector2D@@XZ	; BaseGameEntity::Pos
	push	eax
	lea	edx, DWORD PTR $T146342[ebp]
	push	edx
	call	??H@YA?AUVector2D@@ABU0@0@Z		; operator+
	add	esp, 12					; 0000000cH
	mov	esi, eax
	push	1
	mov	ecx, DWORD PTR _this$[ebp]
	add	ecx, 56					; 00000038H
	call	??A?$vector@UVector2D@@V?$allocator@UVector2D@@@std@@@std@@QAEAAUVector2D@@I@Z ; std::vector<Vector2D,std::allocator<Vector2D> >::operator[]
	mov	ecx, DWORD PTR [esi]
	mov	DWORD PTR [eax], ecx
	mov	edx, DWORD PTR [esi+4]
	mov	DWORD PTR [eax+4], edx
	mov	ecx, DWORD PTR [esi+8]
	mov	DWORD PTR [eax+8], ecx
	mov	edx, DWORD PTR [esi+12]
	mov	DWORD PTR [eax+12], edx

; 348  : 
; 349  :   //feeler to right
; 350  :   temp = m_pRaven_Bot->Heading();

	lea	eax, DWORD PTR $T146343[ebp]
	push	eax
	mov	ecx, DWORD PTR _this$[ebp]
	mov	ecx, DWORD PTR [ecx+8]
	call	?Heading@MovingEntity@@QBE?AUVector2D@@XZ ; MovingEntity::Heading
	mov	edx, DWORD PTR [eax]
	mov	DWORD PTR _temp$[ebp], edx
	mov	ecx, DWORD PTR [eax+4]
	mov	DWORD PTR _temp$[ebp+4], ecx
	mov	edx, DWORD PTR [eax+8]
	mov	DWORD PTR _temp$[ebp+8], edx
	mov	eax, DWORD PTR [eax+12]
	mov	DWORD PTR _temp$[ebp+12], eax

; 351  :   Vec2DRotateAroundOrigin(temp, HalfPi * 0.5);

	fld	QWORD PTR _HalfPi
	fmul	QWORD PTR __real@3fe0000000000000
	sub	esp, 8
	fstp	QWORD PTR [esp]
	lea	ecx, DWORD PTR _temp$[ebp]
	push	ecx
	call	?Vec2DRotateAroundOrigin@@YAXAAUVector2D@@N@Z ; Vec2DRotateAroundOrigin
	add	esp, 12					; 0000000cH

; 352  :   m_Feelers[2] = m_pRaven_Bot->Pos() + m_dWallDetectionFeelerLength/2.0 * temp;

	lea	edx, DWORD PTR _temp$[ebp]
	push	edx
	mov	eax, DWORD PTR _this$[ebp]
	fld	QWORD PTR [eax+80]
	fdiv	QWORD PTR __real@4000000000000000
	sub	esp, 8
	fstp	QWORD PTR [esp]
	lea	ecx, DWORD PTR $T146344[ebp]
	push	ecx
	call	??D@YA?AUVector2D@@NABU0@@Z		; operator*
	add	esp, 16					; 00000010H
	push	eax
	lea	edx, DWORD PTR $T146345[ebp]
	push	edx
	mov	eax, DWORD PTR _this$[ebp]
	mov	ecx, DWORD PTR [eax+8]
	call	?Pos@BaseGameEntity@@QBE?AUVector2D@@XZ	; BaseGameEntity::Pos
	push	eax
	lea	ecx, DWORD PTR $T146346[ebp]
	push	ecx
	call	??H@YA?AUVector2D@@ABU0@0@Z		; operator+
	add	esp, 12					; 0000000cH
	mov	esi, eax
	push	2
	mov	ecx, DWORD PTR _this$[ebp]
	add	ecx, 56					; 00000038H
	call	??A?$vector@UVector2D@@V?$allocator@UVector2D@@@std@@@std@@QAEAAUVector2D@@I@Z ; std::vector<Vector2D,std::allocator<Vector2D> >::operator[]
	mov	edx, DWORD PTR [esi]
	mov	DWORD PTR [eax], edx
	mov	ecx, DWORD PTR [esi+4]
	mov	DWORD PTR [eax+4], ecx
	mov	edx, DWORD PTR [esi+8]
	mov	DWORD PTR [eax+8], edx
	mov	ecx, DWORD PTR [esi+12]
	mov	DWORD PTR [eax+12], ecx

; 353  : }

	push	edx
	mov	ecx, ebp
	push	eax
	lea	edx, DWORD PTR $LN5@CreateFeel
	call	@_RTC_CheckStackVars@8
	pop	eax
	pop	edx
	pop	edi
	pop	esi
	add	esp, 220				; 000000dcH
	cmp	ebp, esp
	call	__RTC_CheckEsp
	mov	esp, ebp
	pop	ebp
	ret	0
	npad	3
$LN5@CreateFeel:
	DD	1
	DD	$LN4@CreateFeel
$LN4@CreateFeel:
	DD	-24					; ffffffe8H
	DD	16					; 00000010H
	DD	$LN3@CreateFeel
$LN3@CreateFeel:
	DB	116					; 00000074H
	DB	101					; 00000065H
	DB	109					; 0000006dH
	DB	112					; 00000070H
	DB	0
?CreateFeelers@AbstSteering@@IAEXXZ ENDP		; AbstSteering::CreateFeelers
_TEXT	ENDS
PUBLIC	?Rotate@C2DMatrix@@QAEXN@Z			; C2DMatrix::Rotate
; Function compile flags: /Odtp /RTCsu
; File c:\users\teaja\documents\artificial-fun\labravenprojecttest\common\2d\transformations.h
;	COMDAT ?Vec2DRotateAroundOrigin@@YAXAAUVector2D@@N@Z
_TEXT	SEGMENT
_mat$ = -76						; size = 72
_v$ = 8							; size = 4
_ang$ = 12						; size = 8
?Vec2DRotateAroundOrigin@@YAXAAUVector2D@@N@Z PROC	; Vec2DRotateAroundOrigin, COMDAT

; 196  : {

	push	ebp
	mov	ebp, esp
	sub	esp, 80					; 00000050H
	push	edi
	lea	edi, DWORD PTR [ebp-80]
	mov	ecx, 20					; 00000014H
	mov	eax, -858993460				; ccccccccH
	rep stosd

; 197  :   //create a transformation matrix
; 198  :   C2DMatrix mat;

	lea	ecx, DWORD PTR _mat$[ebp]
	call	??0C2DMatrix@@QAE@XZ			; C2DMatrix::C2DMatrix

; 199  : 
; 200  :   //rotate
; 201  :   mat.Rotate(ang);

	sub	esp, 8
	fld	QWORD PTR _ang$[ebp]
	fstp	QWORD PTR [esp]
	lea	ecx, DWORD PTR _mat$[ebp]
	call	?Rotate@C2DMatrix@@QAEXN@Z		; C2DMatrix::Rotate

; 202  : 	
; 203  :   //now transform the object's vertices
; 204  :   mat.TransformVector2Ds(v);

	mov	eax, DWORD PTR _v$[ebp]
	push	eax
	lea	ecx, DWORD PTR _mat$[ebp]
	call	?TransformVector2Ds@C2DMatrix@@QAEXAAUVector2D@@@Z ; C2DMatrix::TransformVector2Ds

; 205  : }

	push	edx
	mov	ecx, ebp
	push	eax
	lea	edx, DWORD PTR $LN5@Vec2DRotat
	call	@_RTC_CheckStackVars@8
	pop	eax
	pop	edx
	pop	edi
	add	esp, 80					; 00000050H
	cmp	ebp, esp
	call	__RTC_CheckEsp
	mov	esp, ebp
	pop	ebp
	ret	0
	npad	1
$LN5@Vec2DRotat:
	DD	1
	DD	$LN4@Vec2DRotat
$LN4@Vec2DRotat:
	DD	-76					; ffffffb4H
	DD	72					; 00000048H
	DD	$LN3@Vec2DRotat
$LN3@Vec2DRotat:
	DB	109					; 0000006dH
	DB	97					; 00000061H
	DB	116					; 00000074H
	DB	0
?Vec2DRotateAroundOrigin@@YAXAAUVector2D@@N@Z ENDP	; Vec2DRotateAroundOrigin
_TEXT	ENDS
EXTRN	_cos:PROC
EXTRN	_sin:PROC
; Function compile flags: /Odtp /RTCsu
; File c:\users\teaja\documents\artificial-fun\labravenprojecttest\common\2d\c2dmatrix.h
;	COMDAT ?Rotate@C2DMatrix@@QAEXN@Z
_TEXT	SEGMENT
_Cos$ = -100						; size = 8
_Sin$ = -92						; size = 8
_mat$ = -80						; size = 72
_this$ = -4						; size = 4
_rot$ = 8						; size = 8
?Rotate@C2DMatrix@@QAEXN@Z PROC				; C2DMatrix::Rotate, COMDAT
; _this$ = ecx

; 191  : {

	push	ebp
	mov	ebp, esp
	sub	esp, 100				; 00000064H
	push	edi
	push	ecx
	lea	edi, DWORD PTR [ebp-100]
	mov	ecx, 25					; 00000019H
	mov	eax, -858993460				; ccccccccH
	rep stosd
	pop	ecx
	mov	DWORD PTR _this$[ebp], ecx

; 192  :   C2DMatrix::Matrix mat;

	lea	ecx, DWORD PTR _mat$[ebp]
	call	??0Matrix@C2DMatrix@@QAE@XZ		; C2DMatrix::Matrix::Matrix

; 193  : 
; 194  :   double Sin = sin(rot);

	sub	esp, 8
	fld	QWORD PTR _rot$[ebp]
	fstp	QWORD PTR [esp]
	call	_sin
	add	esp, 8
	fstp	QWORD PTR _Sin$[ebp]

; 195  :   double Cos = cos(rot);

	sub	esp, 8
	fld	QWORD PTR _rot$[ebp]
	fstp	QWORD PTR [esp]
	call	_cos
	add	esp, 8
	fstp	QWORD PTR _Cos$[ebp]

; 196  :   
; 197  :   mat._11 = Cos;  mat._12 = Sin; mat._13 = 0;

	fld	QWORD PTR _Cos$[ebp]
	fstp	QWORD PTR _mat$[ebp]
	fld	QWORD PTR _Sin$[ebp]
	fstp	QWORD PTR _mat$[ebp+8]
	fldz
	fstp	QWORD PTR _mat$[ebp+16]

; 198  :   
; 199  :   mat._21 = -Sin; mat._22 = Cos; mat._23 = 0;

	fld	QWORD PTR _Sin$[ebp]
	fchs
	fstp	QWORD PTR _mat$[ebp+24]
	fld	QWORD PTR _Cos$[ebp]
	fstp	QWORD PTR _mat$[ebp+32]
	fldz
	fstp	QWORD PTR _mat$[ebp+40]

; 200  :   
; 201  :   mat._31 = 0; mat._32 = 0;mat._33 = 1;

	fldz
	fstp	QWORD PTR _mat$[ebp+48]
	fldz
	fstp	QWORD PTR _mat$[ebp+56]
	fld1
	fstp	QWORD PTR _mat$[ebp+64]

; 202  :   
; 203  :   //and multiply
; 204  :   MatrixMultiply(mat);

	lea	eax, DWORD PTR _mat$[ebp]
	push	eax
	mov	ecx, DWORD PTR _this$[ebp]
	call	?MatrixMultiply@C2DMatrix@@AAEXAAUMatrix@1@@Z ; C2DMatrix::MatrixMultiply

; 205  : }

	push	edx
	mov	ecx, ebp
	push	eax
	lea	edx, DWORD PTR $LN5@Rotate@2
	call	@_RTC_CheckStackVars@8
	pop	eax
	pop	edx
	pop	edi
	add	esp, 100				; 00000064H
	cmp	ebp, esp
	call	__RTC_CheckEsp
	mov	esp, ebp
	pop	ebp
	ret	8
$LN5@Rotate@2:
	DD	1
	DD	$LN4@Rotate@2
$LN4@Rotate@2:
	DD	-80					; ffffffb0H
	DD	72					; 00000048H
	DD	$LN3@Rotate@2
$LN3@Rotate@2:
	DB	109					; 0000006dH
	DB	97					; 00000061H
	DB	116					; 00000074H
	DB	0
?Rotate@C2DMatrix@@QAEXN@Z ENDP				; C2DMatrix::Rotate
; Function compile flags: /Odtp /RTCsu
; File c:\users\teaja\documents\artificial-fun\labravenprojecttest\common\game\movingentity.h
_TEXT	ENDS
;	COMDAT ?Speed@MovingEntity@@QBENXZ
_TEXT	SEGMENT
_this$ = -4						; size = 4
?Speed@MovingEntity@@QBENXZ PROC			; MovingEntity::Speed, COMDAT
; _this$ = ecx

; 89   :   double    Speed()const{return m_vVelocity.Length();}

	push	ebp
	mov	ebp, esp
	push	ecx
	mov	DWORD PTR [ebp-4], -858993460		; ccccccccH
	mov	DWORD PTR _this$[ebp], ecx
	mov	ecx, DWORD PTR _this$[ebp]
	add	ecx, 64					; 00000040H
	call	?Length@Vector2D@@QBENXZ		; Vector2D::Length
	add	esp, 4
	cmp	ebp, esp
	call	__RTC_CheckEsp
	mov	esp, ebp
	pop	ebp
	ret	0
?Speed@MovingEntity@@QBENXZ ENDP			; MovingEntity::Speed
_TEXT	ENDS
PUBLIC	?IsTagged@BaseGameEntity@@QBE_NXZ		; BaseGameEntity::IsTagged
PUBLIC	??D?$_List_const_iterator@V?$_List_val@PAVAbstRaven_Bot@@V?$allocator@PAVAbstRaven_Bot@@@std@@@std@@@std@@QBEABQAVAbstRaven_Bot@@XZ ; std::_List_const_iterator<std::_List_val<AbstRaven_Bot *,std::allocator<AbstRaven_Bot *> > >::operator*
PUBLIC	??1?$_List_const_iterator@V?$_List_val@PAVAbstRaven_Bot@@V?$allocator@PAVAbstRaven_Bot@@@std@@@std@@@std@@QAE@XZ ; std::_List_const_iterator<std::_List_val<AbstRaven_Bot *,std::allocator<AbstRaven_Bot *> > >::~_List_const_iterator<std::_List_val<AbstRaven_Bot *,std::allocator<AbstRaven_Bot *> > >
PUBLIC	??9?$_List_const_iterator@V?$_List_val@PAVAbstRaven_Bot@@V?$allocator@PAVAbstRaven_Bot@@@std@@@std@@@std@@QBE_NABV01@@Z ; std::_List_const_iterator<std::_List_val<AbstRaven_Bot *,std::allocator<AbstRaven_Bot *> > >::operator!=
PUBLIC	?end@?$list@PAVAbstRaven_Bot@@V?$allocator@PAVAbstRaven_Bot@@@std@@@std@@QBE?AV?$_List_const_iterator@V?$_List_val@PAVAbstRaven_Bot@@V?$allocator@PAVAbstRaven_Bot@@@std@@@std@@@2@XZ ; std::list<AbstRaven_Bot *,std::allocator<AbstRaven_Bot *> >::end
PUBLIC	??E?$_List_const_iterator@V?$_List_val@PAVAbstRaven_Bot@@V?$allocator@PAVAbstRaven_Bot@@@std@@@std@@@std@@QAEAAV01@XZ ; std::_List_const_iterator<std::_List_val<AbstRaven_Bot *,std::allocator<AbstRaven_Bot *> > >::operator++
PUBLIC	?begin@?$list@PAVAbstRaven_Bot@@V?$allocator@PAVAbstRaven_Bot@@@std@@@std@@QBE?AV?$_List_const_iterator@V?$_List_val@PAVAbstRaven_Bot@@V?$allocator@PAVAbstRaven_Bot@@@std@@@std@@@2@XZ ; std::list<AbstRaven_Bot *,std::allocator<AbstRaven_Bot *> >::begin
xdata$x	SEGMENT
__unwindtable$?Separation@AbstSteering@@MAE?AUVector2D@@ABV?$list@PAVAbstRaven_Bot@@V?$allocator@PAVAbstRaven_Bot@@@std@@@std@@@Z DD 0ffffffffH
	DD	FLAT:__unwindfunclet$?Separation@AbstSteering@@MAE?AUVector2D@@ABV?$list@PAVAbstRaven_Bot@@V?$allocator@PAVAbstRaven_Bot@@@std@@@std@@@Z$0
	DD	00H
	DD	FLAT:__unwindfunclet$?Separation@AbstSteering@@MAE?AUVector2D@@ABV?$list@PAVAbstRaven_Bot@@V?$allocator@PAVAbstRaven_Bot@@@std@@@std@@@Z$1
__ehfuncinfo$?Separation@AbstSteering@@MAE?AUVector2D@@ABV?$list@PAVAbstRaven_Bot@@V?$allocator@PAVAbstRaven_Bot@@@std@@@std@@@Z DD 019930522H
	DD	02H
	DD	FLAT:__unwindtable$?Separation@AbstSteering@@MAE?AUVector2D@@ABV?$list@PAVAbstRaven_Bot@@V?$allocator@PAVAbstRaven_Bot@@@std@@@std@@@Z
	DD	2 DUP(00H)
	DD	2 DUP(00H)
	DD	00H
	DD	01H
; Function compile flags: /Odtp /RTCsu
; File c:\users\teaja\documents\artificial-fun\labravenprojecttest\raven\abststeeringbehaviors.cpp
xdata$x	ENDS
_TEXT	SEGMENT
tv163 = -172						; size = 4
tv66 = -168						; size = 4
$T146374 = -164						; size = 16
$T146373 = -148						; size = 16
$T146372 = -132						; size = 16
$T146371 = -116						; size = 16
$T146370 = -100						; size = 12
$T146369 = -85						; size = 1
_ToAgent$137269 = -80					; size = 16
_it$ = -56						; size = 12
_SteeringForce$ = -36					; size = 16
_this$ = -16						; size = 4
__$EHRec$ = -12						; size = 12
___$ReturnUdt$ = 8					; size = 4
_neighbors$ = 12					; size = 4
?Separation@AbstSteering@@MAE?AUVector2D@@ABV?$list@PAVAbstRaven_Bot@@V?$allocator@PAVAbstRaven_Bot@@@std@@@std@@@Z PROC ; AbstSteering::Separation
; _this$ = ecx

; 361  : {  

	push	ebp
	mov	ebp, esp
	push	-1
	push	__ehhandler$?Separation@AbstSteering@@MAE?AUVector2D@@ABV?$list@PAVAbstRaven_Bot@@V?$allocator@PAVAbstRaven_Bot@@@std@@@std@@@Z
	mov	eax, DWORD PTR fs:0
	push	eax
	sub	esp, 160				; 000000a0H
	push	edi
	push	ecx
	lea	edi, DWORD PTR [ebp-172]
	mov	ecx, 40					; 00000028H
	mov	eax, -858993460				; ccccccccH
	rep stosd
	pop	ecx
	mov	eax, DWORD PTR ___security_cookie
	xor	eax, ebp
	push	eax
	lea	eax, DWORD PTR __$EHRec$[ebp]
	mov	DWORD PTR fs:0, eax
	mov	DWORD PTR _this$[ebp], ecx

; 362  :   //iterate through all the neighbors and calculate the vector from the
; 363  :   Vector2D SteeringForce;

	lea	ecx, DWORD PTR _SteeringForce$[ebp]
	call	??0Vector2D@@QAE@XZ			; Vector2D::Vector2D

; 364  : 
; 365  :   std::list<AbstRaven_Bot*>::const_iterator it = neighbors.begin();

	lea	eax, DWORD PTR _it$[ebp]
	push	eax
	mov	ecx, DWORD PTR _neighbors$[ebp]
	call	?begin@?$list@PAVAbstRaven_Bot@@V?$allocator@PAVAbstRaven_Bot@@@std@@@std@@QBE?AV?$_List_const_iterator@V?$_List_val@PAVAbstRaven_Bot@@V?$allocator@PAVAbstRaven_Bot@@@std@@@std@@@2@XZ ; std::list<AbstRaven_Bot *,std::allocator<AbstRaven_Bot *> >::begin
	mov	DWORD PTR __$EHRec$[ebp+8], 0
	jmp	SHORT $LN4@Separation
$LN3@Separation:

; 366  :   for (it; it != neighbors.end(); ++it)

	lea	ecx, DWORD PTR _it$[ebp]
	call	??E?$_List_const_iterator@V?$_List_val@PAVAbstRaven_Bot@@V?$allocator@PAVAbstRaven_Bot@@@std@@@std@@@std@@QAEAAV01@XZ ; std::_List_const_iterator<std::_List_val<AbstRaven_Bot *,std::allocator<AbstRaven_Bot *> > >::operator++
$LN4@Separation:
	lea	ecx, DWORD PTR $T146370[ebp]
	push	ecx
	mov	ecx, DWORD PTR _neighbors$[ebp]
	call	?end@?$list@PAVAbstRaven_Bot@@V?$allocator@PAVAbstRaven_Bot@@@std@@@std@@QBE?AV?$_List_const_iterator@V?$_List_val@PAVAbstRaven_Bot@@V?$allocator@PAVAbstRaven_Bot@@@std@@@std@@@2@XZ ; std::list<AbstRaven_Bot *,std::allocator<AbstRaven_Bot *> >::end
	mov	DWORD PTR tv66[ebp], eax
	mov	edx, DWORD PTR tv66[ebp]
	mov	DWORD PTR tv163[ebp], edx
	mov	BYTE PTR __$EHRec$[ebp+8], 1
	mov	eax, DWORD PTR tv163[ebp]
	push	eax
	lea	ecx, DWORD PTR _it$[ebp]
	call	??9?$_List_const_iterator@V?$_List_val@PAVAbstRaven_Bot@@V?$allocator@PAVAbstRaven_Bot@@@std@@@std@@@std@@QBE_NABV01@@Z ; std::_List_const_iterator<std::_List_val<AbstRaven_Bot *,std::allocator<AbstRaven_Bot *> > >::operator!=
	mov	BYTE PTR $T146369[ebp], al
	mov	BYTE PTR __$EHRec$[ebp+8], 0
	lea	ecx, DWORD PTR $T146370[ebp]
	call	??1?$_List_const_iterator@V?$_List_val@PAVAbstRaven_Bot@@V?$allocator@PAVAbstRaven_Bot@@@std@@@std@@@std@@QAE@XZ
	movzx	ecx, BYTE PTR $T146369[ebp]
	test	ecx, ecx
	je	$LN2@Separation

; 367  :   {
; 368  :     //make sure this agent isn't included in the calculations and that
; 369  :     //the agent being examined is close enough. ***also make sure it doesn't
; 370  :     //include the evade target ***
; 371  :     if((*it != m_pRaven_Bot) && (*it)->IsTagged() &&
; 372  :       (*it != m_pTargetAgent1))

	lea	ecx, DWORD PTR _it$[ebp]
	call	??D?$_List_const_iterator@V?$_List_val@PAVAbstRaven_Bot@@V?$allocator@PAVAbstRaven_Bot@@@std@@@std@@@std@@QBEABQAVAbstRaven_Bot@@XZ ; std::_List_const_iterator<std::_List_val<AbstRaven_Bot *,std::allocator<AbstRaven_Bot *> > >::operator*
	mov	edx, DWORD PTR _this$[ebp]
	mov	eax, DWORD PTR [eax]
	cmp	eax, DWORD PTR [edx+8]
	je	$LN1@Separation
	lea	ecx, DWORD PTR _it$[ebp]
	call	??D?$_List_const_iterator@V?$_List_val@PAVAbstRaven_Bot@@V?$allocator@PAVAbstRaven_Bot@@@std@@@std@@@std@@QBEABQAVAbstRaven_Bot@@XZ ; std::_List_const_iterator<std::_List_val<AbstRaven_Bot *,std::allocator<AbstRaven_Bot *> > >::operator*
	mov	ecx, DWORD PTR [eax]
	call	?IsTagged@BaseGameEntity@@QBE_NXZ	; BaseGameEntity::IsTagged
	movzx	ecx, al
	test	ecx, ecx
	je	SHORT $LN1@Separation
	lea	ecx, DWORD PTR _it$[ebp]
	call	??D?$_List_const_iterator@V?$_List_val@PAVAbstRaven_Bot@@V?$allocator@PAVAbstRaven_Bot@@@std@@@std@@@std@@QBEABQAVAbstRaven_Bot@@XZ ; std::_List_const_iterator<std::_List_val<AbstRaven_Bot *,std::allocator<AbstRaven_Bot *> > >::operator*
	mov	edx, DWORD PTR _this$[ebp]
	mov	eax, DWORD PTR [eax]
	cmp	eax, DWORD PTR [edx+32]
	je	SHORT $LN1@Separation

; 373  :     {
; 374  :       Vector2D ToAgent = m_pRaven_Bot->Pos() - (*it)->Pos();

	lea	ecx, DWORD PTR $T146371[ebp]
	push	ecx
	lea	ecx, DWORD PTR _it$[ebp]
	call	??D?$_List_const_iterator@V?$_List_val@PAVAbstRaven_Bot@@V?$allocator@PAVAbstRaven_Bot@@@std@@@std@@@std@@QBEABQAVAbstRaven_Bot@@XZ ; std::_List_const_iterator<std::_List_val<AbstRaven_Bot *,std::allocator<AbstRaven_Bot *> > >::operator*
	mov	ecx, DWORD PTR [eax]
	call	?Pos@BaseGameEntity@@QBE?AUVector2D@@XZ	; BaseGameEntity::Pos
	push	eax
	lea	edx, DWORD PTR $T146372[ebp]
	push	edx
	mov	eax, DWORD PTR _this$[ebp]
	mov	ecx, DWORD PTR [eax+8]
	call	?Pos@BaseGameEntity@@QBE?AUVector2D@@XZ	; BaseGameEntity::Pos
	push	eax
	lea	ecx, DWORD PTR _ToAgent$137269[ebp]
	push	ecx
	call	??G@YA?AUVector2D@@ABU0@0@Z		; operator-
	add	esp, 12					; 0000000cH

; 375  : 
; 376  :       //scale the force inversely proportional to the agents distance  
; 377  :       //from its neighbor.
; 378  :       SteeringForce += Vec2DNormalize(ToAgent)/ToAgent.Length();

	lea	ecx, DWORD PTR _ToAgent$137269[ebp]
	call	?Length@Vector2D@@QBENXZ		; Vector2D::Length
	sub	esp, 8
	fstp	QWORD PTR [esp]
	lea	edx, DWORD PTR _ToAgent$137269[ebp]
	push	edx
	lea	eax, DWORD PTR $T146373[ebp]
	push	eax
	call	?Vec2DNormalize@@YA?AUVector2D@@ABU1@@Z	; Vec2DNormalize
	add	esp, 8
	push	eax
	lea	ecx, DWORD PTR $T146374[ebp]
	push	ecx
	call	??K@YA?AUVector2D@@ABU0@N@Z		; operator/
	add	esp, 16					; 00000010H
	push	eax
	lea	ecx, DWORD PTR _SteeringForce$[ebp]
	call	??YVector2D@@QAEABU0@ABU0@@Z		; Vector2D::operator+=
$LN1@Separation:

; 379  :     }
; 380  :   }

	jmp	$LN3@Separation
$LN2@Separation:

; 381  : 
; 382  :   return SteeringForce;

	mov	edx, DWORD PTR ___$ReturnUdt$[ebp]
	mov	eax, DWORD PTR _SteeringForce$[ebp]
	mov	DWORD PTR [edx], eax
	mov	ecx, DWORD PTR _SteeringForce$[ebp+4]
	mov	DWORD PTR [edx+4], ecx
	mov	eax, DWORD PTR _SteeringForce$[ebp+8]
	mov	DWORD PTR [edx+8], eax
	mov	ecx, DWORD PTR _SteeringForce$[ebp+12]
	mov	DWORD PTR [edx+12], ecx
	mov	DWORD PTR __$EHRec$[ebp+8], -1
	lea	ecx, DWORD PTR _it$[ebp]
	call	??1?$_List_const_iterator@V?$_List_val@PAVAbstRaven_Bot@@V?$allocator@PAVAbstRaven_Bot@@@std@@@std@@@std@@QAE@XZ
	mov	eax, DWORD PTR ___$ReturnUdt$[ebp]

; 383  : }

	push	edx
	mov	ecx, ebp
	push	eax
	lea	edx, DWORD PTR $LN14@Separation
	call	@_RTC_CheckStackVars@8
	pop	eax
	pop	edx
	mov	ecx, DWORD PTR __$EHRec$[ebp]
	mov	DWORD PTR fs:0, ecx
	pop	ecx
	pop	edi
	add	esp, 172				; 000000acH
	cmp	ebp, esp
	call	__RTC_CheckEsp
	mov	esp, ebp
	pop	ebp
	ret	8
	npad	3
$LN14@Separation:
	DD	3
	DD	$LN13@Separation
$LN13@Separation:
	DD	-36					; ffffffdcH
	DD	16					; 00000010H
	DD	$LN9@Separation
	DD	-56					; ffffffc8H
	DD	12					; 0000000cH
	DD	$LN10@Separation
	DD	-80					; ffffffb0H
	DD	16					; 00000010H
	DD	$LN11@Separation
$LN11@Separation:
	DB	84					; 00000054H
	DB	111					; 0000006fH
	DB	65					; 00000041H
	DB	103					; 00000067H
	DB	101					; 00000065H
	DB	110					; 0000006eH
	DB	116					; 00000074H
	DB	0
$LN10@Separation:
	DB	105					; 00000069H
	DB	116					; 00000074H
	DB	0
$LN9@Separation:
	DB	83					; 00000053H
	DB	116					; 00000074H
	DB	101					; 00000065H
	DB	101					; 00000065H
	DB	114					; 00000072H
	DB	105					; 00000069H
	DB	110					; 0000006eH
	DB	103					; 00000067H
	DB	70					; 00000046H
	DB	111					; 0000006fH
	DB	114					; 00000072H
	DB	99					; 00000063H
	DB	101					; 00000065H
	DB	0
_TEXT	ENDS
text$x	SEGMENT
__unwindfunclet$?Separation@AbstSteering@@MAE?AUVector2D@@ABV?$list@PAVAbstRaven_Bot@@V?$allocator@PAVAbstRaven_Bot@@@std@@@std@@@Z$0:
	lea	ecx, DWORD PTR _it$[ebp]
	jmp	??1?$_List_const_iterator@V?$_List_val@PAVAbstRaven_Bot@@V?$allocator@PAVAbstRaven_Bot@@@std@@@std@@@std@@QAE@XZ
__unwindfunclet$?Separation@AbstSteering@@MAE?AUVector2D@@ABV?$list@PAVAbstRaven_Bot@@V?$allocator@PAVAbstRaven_Bot@@@std@@@std@@@Z$1:
	lea	ecx, DWORD PTR $T146370[ebp]
	jmp	??1?$_List_const_iterator@V?$_List_val@PAVAbstRaven_Bot@@V?$allocator@PAVAbstRaven_Bot@@@std@@@std@@@std@@QAE@XZ
__ehhandler$?Separation@AbstSteering@@MAE?AUVector2D@@ABV?$list@PAVAbstRaven_Bot@@V?$allocator@PAVAbstRaven_Bot@@@std@@@std@@@Z:
	mov	edx, DWORD PTR [esp+8]
	lea	eax, DWORD PTR [edx+12]
	mov	ecx, DWORD PTR [edx-168]
	xor	ecx, eax
	call	@__security_check_cookie@4
	mov	eax, OFFSET __ehfuncinfo$?Separation@AbstSteering@@MAE?AUVector2D@@ABV?$list@PAVAbstRaven_Bot@@V?$allocator@PAVAbstRaven_Bot@@@std@@@std@@@Z
	jmp	___CxxFrameHandler3
text$x	ENDS
?Separation@AbstSteering@@MAE?AUVector2D@@ABV?$list@PAVAbstRaven_Bot@@V?$allocator@PAVAbstRaven_Bot@@@std@@@std@@@Z ENDP ; AbstSteering::Separation
; Function compile flags: /Odtp /RTCsu
; File c:\users\teaja\documents\artificial-fun\labravenprojecttest\common\game\basegameentity.h
;	COMDAT ?IsTagged@BaseGameEntity@@QBE_NXZ
_TEXT	SEGMENT
_this$ = -4						; size = 4
?IsTagged@BaseGameEntity@@QBE_NXZ PROC			; BaseGameEntity::IsTagged, COMDAT
; _this$ = ecx

; 96   :   bool         IsTagged()const{return m_bTag;}

	push	ebp
	mov	ebp, esp
	push	ecx
	mov	DWORD PTR [ebp-4], -858993460		; ccccccccH
	mov	DWORD PTR _this$[ebp], ecx
	mov	eax, DWORD PTR _this$[ebp]
	mov	al, BYTE PTR [eax+16]
	mov	esp, ebp
	pop	ebp
	ret	0
?IsTagged@BaseGameEntity@@QBE_NXZ ENDP			; BaseGameEntity::IsTagged
_TEXT	ENDS
PUBLIC	??1?$_List_unchecked_const_iterator@V?$_List_val@PAVAbstRaven_Bot@@V?$allocator@PAVAbstRaven_Bot@@@std@@@std@@U_Iterator_base12@2@@std@@QAE@XZ ; std::_List_unchecked_const_iterator<std::_List_val<AbstRaven_Bot *,std::allocator<AbstRaven_Bot *> >,std::_Iterator_base12>::~_List_unchecked_const_iterator<std::_List_val<AbstRaven_Bot *,std::allocator<AbstRaven_Bot *> >,std::_Iterator_base12>
; Function compile flags: /Odtp /RTCsu
;	COMDAT ??1?$_List_const_iterator@V?$_List_val@PAVAbstRaven_Bot@@V?$allocator@PAVAbstRaven_Bot@@@std@@@std@@@std@@QAE@XZ
_TEXT	SEGMENT
_this$ = -4						; size = 4
??1?$_List_const_iterator@V?$_List_val@PAVAbstRaven_Bot@@V?$allocator@PAVAbstRaven_Bot@@@std@@@std@@@std@@QAE@XZ PROC ; std::_List_const_iterator<std::_List_val<AbstRaven_Bot *,std::allocator<AbstRaven_Bot *> > >::~_List_const_iterator<std::_List_val<AbstRaven_Bot *,std::allocator<AbstRaven_Bot *> > >, COMDAT
; _this$ = ecx
	push	ebp
	mov	ebp, esp
	push	ecx
	mov	DWORD PTR [ebp-4], -858993460		; ccccccccH
	mov	DWORD PTR _this$[ebp], ecx
	mov	ecx, DWORD PTR _this$[ebp]
	call	??1?$_List_unchecked_const_iterator@V?$_List_val@PAVAbstRaven_Bot@@V?$allocator@PAVAbstRaven_Bot@@@std@@@std@@U_Iterator_base12@2@@std@@QAE@XZ
	add	esp, 4
	cmp	ebp, esp
	call	__RTC_CheckEsp
	mov	esp, ebp
	pop	ebp
	ret	0
??1?$_List_const_iterator@V?$_List_val@PAVAbstRaven_Bot@@V?$allocator@PAVAbstRaven_Bot@@@std@@@std@@@std@@QAE@XZ ENDP ; std::_List_const_iterator<std::_List_val<AbstRaven_Bot *,std::allocator<AbstRaven_Bot *> > >::~_List_const_iterator<std::_List_val<AbstRaven_Bot *,std::allocator<AbstRaven_Bot *> > >
_TEXT	ENDS
PUBLIC	??1?$_Iterator012@Ubidirectional_iterator_tag@std@@PAVAbstRaven_Bot@@HPBQAV3@ABQAV3@U_Iterator_base12@2@@std@@QAE@XZ ; std::_Iterator012<std::bidirectional_iterator_tag,AbstRaven_Bot *,int,AbstRaven_Bot * const *,AbstRaven_Bot * const &,std::_Iterator_base12>::~_Iterator012<std::bidirectional_iterator_tag,AbstRaven_Bot *,int,AbstRaven_Bot * const *,AbstRaven_Bot * const &,std::_Iterator_base12>
; Function compile flags: /Odtp /RTCsu
;	COMDAT ??1?$_List_unchecked_const_iterator@V?$_List_val@PAVAbstRaven_Bot@@V?$allocator@PAVAbstRaven_Bot@@@std@@@std@@U_Iterator_base12@2@@std@@QAE@XZ
_TEXT	SEGMENT
_this$ = -4						; size = 4
??1?$_List_unchecked_const_iterator@V?$_List_val@PAVAbstRaven_Bot@@V?$allocator@PAVAbstRaven_Bot@@@std@@@std@@U_Iterator_base12@2@@std@@QAE@XZ PROC ; std::_List_unchecked_const_iterator<std::_List_val<AbstRaven_Bot *,std::allocator<AbstRaven_Bot *> >,std::_Iterator_base12>::~_List_unchecked_const_iterator<std::_List_val<AbstRaven_Bot *,std::allocator<AbstRaven_Bot *> >,std::_Iterator_base12>, COMDAT
; _this$ = ecx
	push	ebp
	mov	ebp, esp
	push	ecx
	mov	DWORD PTR [ebp-4], -858993460		; ccccccccH
	mov	DWORD PTR _this$[ebp], ecx
	mov	ecx, DWORD PTR _this$[ebp]
	call	??1?$_Iterator012@Ubidirectional_iterator_tag@std@@PAVAbstRaven_Bot@@HPBQAV3@ABQAV3@U_Iterator_base12@2@@std@@QAE@XZ
	add	esp, 4
	cmp	ebp, esp
	call	__RTC_CheckEsp
	mov	esp, ebp
	pop	ebp
	ret	0
??1?$_List_unchecked_const_iterator@V?$_List_val@PAVAbstRaven_Bot@@V?$allocator@PAVAbstRaven_Bot@@@std@@@std@@U_Iterator_base12@2@@std@@QAE@XZ ENDP ; std::_List_unchecked_const_iterator<std::_List_val<AbstRaven_Bot *,std::allocator<AbstRaven_Bot *> >,std::_Iterator_base12>::~_List_unchecked_const_iterator<std::_List_val<AbstRaven_Bot *,std::allocator<AbstRaven_Bot *> >,std::_Iterator_base12>
_TEXT	ENDS
PUBLIC	??1_Iterator_base12@std@@QAE@XZ			; std::_Iterator_base12::~_Iterator_base12
; Function compile flags: /Odtp /RTCsu
;	COMDAT ??1?$_Iterator012@Ubidirectional_iterator_tag@std@@PAVAbstRaven_Bot@@HPBQAV3@ABQAV3@U_Iterator_base12@2@@std@@QAE@XZ
_TEXT	SEGMENT
_this$ = -4						; size = 4
??1?$_Iterator012@Ubidirectional_iterator_tag@std@@PAVAbstRaven_Bot@@HPBQAV3@ABQAV3@U_Iterator_base12@2@@std@@QAE@XZ PROC ; std::_Iterator012<std::bidirectional_iterator_tag,AbstRaven_Bot *,int,AbstRaven_Bot * const *,AbstRaven_Bot * const &,std::_Iterator_base12>::~_Iterator012<std::bidirectional_iterator_tag,AbstRaven_Bot *,int,AbstRaven_Bot * const *,AbstRaven_Bot * const &,std::_Iterator_base12>, COMDAT
; _this$ = ecx
	push	ebp
	mov	ebp, esp
	push	ecx
	mov	DWORD PTR [ebp-4], -858993460		; ccccccccH
	mov	DWORD PTR _this$[ebp], ecx
	mov	ecx, DWORD PTR _this$[ebp]
	call	??1_Iterator_base12@std@@QAE@XZ		; std::_Iterator_base12::~_Iterator_base12
	add	esp, 4
	cmp	ebp, esp
	call	__RTC_CheckEsp
	mov	esp, ebp
	pop	ebp
	ret	0
??1?$_Iterator012@Ubidirectional_iterator_tag@std@@PAVAbstRaven_Bot@@HPBQAV3@ABQAV3@U_Iterator_base12@2@@std@@QAE@XZ ENDP ; std::_Iterator012<std::bidirectional_iterator_tag,AbstRaven_Bot *,int,AbstRaven_Bot * const *,AbstRaven_Bot * const &,std::_Iterator_base12>::~_Iterator012<std::bidirectional_iterator_tag,AbstRaven_Bot *,int,AbstRaven_Bot * const *,AbstRaven_Bot * const &,std::_Iterator_base12>
_TEXT	ENDS
PUBLIC	?_Orphan_me@_Iterator_base12@std@@QAEXXZ	; std::_Iterator_base12::_Orphan_me
EXTRN	??1_Lockit@std@@QAE@XZ:PROC			; std::_Lockit::~_Lockit
EXTRN	??0_Lockit@std@@QAE@H@Z:PROC			; std::_Lockit::_Lockit
;	COMDAT xdata$x
; File c:\program files (x86)\microsoft visual studio 10.0\vc\include\xutility
xdata$x	SEGMENT
__unwindtable$??1_Iterator_base12@std@@QAE@XZ DD 0ffffffffH
	DD	FLAT:__unwindfunclet$??1_Iterator_base12@std@@QAE@XZ$0
__ehfuncinfo$??1_Iterator_base12@std@@QAE@XZ DD 019930522H
	DD	01H
	DD	FLAT:__unwindtable$??1_Iterator_base12@std@@QAE@XZ
	DD	2 DUP(00H)
	DD	2 DUP(00H)
	DD	00H
	DD	01H
; Function compile flags: /Odtp /RTCsu
xdata$x	ENDS
;	COMDAT ??1_Iterator_base12@std@@QAE@XZ
_TEXT	SEGMENT
__Lock$ = -24						; size = 4
_this$ = -16						; size = 4
__$EHRec$ = -12						; size = 12
??1_Iterator_base12@std@@QAE@XZ PROC			; std::_Iterator_base12::~_Iterator_base12, COMDAT
; _this$ = ecx

; 135  : 		{	// destroy the iterator

	push	ebp
	mov	ebp, esp
	push	-1
	push	__ehhandler$??1_Iterator_base12@std@@QAE@XZ
	mov	eax, DWORD PTR fs:0
	push	eax
	sub	esp, 16					; 00000010H
	mov	eax, -858993460				; ccccccccH
	mov	DWORD PTR [ebp-28], eax
	mov	DWORD PTR [ebp-24], eax
	mov	DWORD PTR [ebp-20], eax
	mov	DWORD PTR [ebp-16], eax
	mov	eax, DWORD PTR ___security_cookie
	xor	eax, ebp
	push	eax
	lea	eax, DWORD PTR __$EHRec$[ebp]
	mov	DWORD PTR fs:0, eax
	mov	DWORD PTR _this$[ebp], ecx

; 136  :  #if _ITERATOR_DEBUG_LEVEL == 2
; 137  : 		_Lockit _Lock(_LOCK_DEBUG);

	push	3
	lea	ecx, DWORD PTR __Lock$[ebp]
	call	??0_Lockit@std@@QAE@H@Z			; std::_Lockit::_Lockit
	mov	DWORD PTR __$EHRec$[ebp+8], 0

; 138  : 		_Orphan_me();

	mov	ecx, DWORD PTR _this$[ebp]
	call	?_Orphan_me@_Iterator_base12@std@@QAEXXZ ; std::_Iterator_base12::_Orphan_me

; 139  :  #endif /* _ITERATOR_DEBUG_LEVEL == 2 */
; 140  : 		}

	mov	DWORD PTR __$EHRec$[ebp+8], -1
	lea	ecx, DWORD PTR __Lock$[ebp]
	call	??1_Lockit@std@@QAE@XZ			; std::_Lockit::~_Lockit
	push	edx
	mov	ecx, ebp
	push	eax
	lea	edx, DWORD PTR $LN7@Iterator_b
	call	@_RTC_CheckStackVars@8
	pop	eax
	pop	edx
	mov	ecx, DWORD PTR __$EHRec$[ebp]
	mov	DWORD PTR fs:0, ecx
	pop	ecx
	add	esp, 28					; 0000001cH
	cmp	ebp, esp
	call	__RTC_CheckEsp
	mov	esp, ebp
	pop	ebp
	ret	0
	npad	1
$LN7@Iterator_b:
	DD	1
	DD	$LN6@Iterator_b
$LN6@Iterator_b:
	DD	-24					; ffffffe8H
	DD	4
	DD	$LN4@Iterator_b
$LN4@Iterator_b:
	DB	95					; 0000005fH
	DB	76					; 0000004cH
	DB	111					; 0000006fH
	DB	99					; 00000063H
	DB	107					; 0000006bH
	DB	0
_TEXT	ENDS
;	COMDAT text$x
text$x	SEGMENT
__unwindfunclet$??1_Iterator_base12@std@@QAE@XZ$0:
	lea	ecx, DWORD PTR __Lock$[ebp]
	jmp	??1_Lockit@std@@QAE@XZ			; std::_Lockit::~_Lockit
__ehhandler$??1_Iterator_base12@std@@QAE@XZ:
	mov	edx, DWORD PTR [esp+8]
	lea	eax, DWORD PTR [edx+12]
	mov	ecx, DWORD PTR [edx-20]
	xor	ecx, eax
	call	@__security_check_cookie@4
	mov	eax, OFFSET __ehfuncinfo$??1_Iterator_base12@std@@QAE@XZ
	jmp	___CxxFrameHandler3
text$x	ENDS
??1_Iterator_base12@std@@QAE@XZ ENDP			; std::_Iterator_base12::~_Iterator_base12
PUBLIC	??_C@_1DC@POOIKBAO@?$AAI?$AAT?$AAE?$AAR?$AAA?$AAT?$AAO?$AAR?$AA?5?$AAL?$AAI?$AAS?$AAT?$AA?5?$AAC?$AAO?$AAR?$AAR?$AAU?$AAP?$AAT?$AAE?$AAD?$AA?$CB?$AA?$AA@ ; `string'
PUBLIC	??_C@_1JA@HCKHPKJH@?$AAc?$AA?3?$AA?2?$AAP?$AAr?$AAo?$AAg?$AAr?$AAa?$AAm?$AA?5?$AAF?$AAi?$AAl?$AAe?$AAs?$AA?5?$AA?$CI?$AAx?$AA8?$AA6?$AA?$CJ?$AA?2?$AAM?$AAi?$AAc?$AAr?$AAo?$AAs?$AAo?$AAf?$AAt@ ; `string'
EXTRN	?_Debug_message@std@@YAXPB_W0I@Z:PROC		; std::_Debug_message
;	COMDAT ??_C@_1DC@POOIKBAO@?$AAI?$AAT?$AAE?$AAR?$AAA?$AAT?$AAO?$AAR?$AA?5?$AAL?$AAI?$AAS?$AAT?$AA?5?$AAC?$AAO?$AAR?$AAR?$AAU?$AAP?$AAT?$AAE?$AAD?$AA?$CB?$AA?$AA@
CONST	SEGMENT
??_C@_1DC@POOIKBAO@?$AAI?$AAT?$AAE?$AAR?$AAA?$AAT?$AAO?$AAR?$AA?5?$AAL?$AAI?$AAS?$AAT?$AA?5?$AAC?$AAO?$AAR?$AAR?$AAU?$AAP?$AAT?$AAE?$AAD?$AA?$CB?$AA?$AA@ DB 'I'
	DB	00H, 'T', 00H, 'E', 00H, 'R', 00H, 'A', 00H, 'T', 00H, 'O', 00H
	DB	'R', 00H, ' ', 00H, 'L', 00H, 'I', 00H, 'S', 00H, 'T', 00H, ' '
	DB	00H, 'C', 00H, 'O', 00H, 'R', 00H, 'R', 00H, 'U', 00H, 'P', 00H
	DB	'T', 00H, 'E', 00H, 'D', 00H, '!', 00H, 00H, 00H ; `string'
CONST	ENDS
;	COMDAT ??_C@_1JA@HCKHPKJH@?$AAc?$AA?3?$AA?2?$AAP?$AAr?$AAo?$AAg?$AAr?$AAa?$AAm?$AA?5?$AAF?$AAi?$AAl?$AAe?$AAs?$AA?5?$AA?$CI?$AAx?$AA8?$AA6?$AA?$CJ?$AA?2?$AAM?$AAi?$AAc?$AAr?$AAo?$AAs?$AAo?$AAf?$AAt@
CONST	SEGMENT
??_C@_1JA@HCKHPKJH@?$AAc?$AA?3?$AA?2?$AAP?$AAr?$AAo?$AAg?$AAr?$AAa?$AAm?$AA?5?$AAF?$AAi?$AAl?$AAe?$AAs?$AA?5?$AA?$CI?$AAx?$AA8?$AA6?$AA?$CJ?$AA?2?$AAM?$AAi?$AAc?$AAr?$AAo?$AAs?$AAo?$AAf?$AAt@ DB 'c'
	DB	00H, ':', 00H, '\', 00H, 'P', 00H, 'r', 00H, 'o', 00H, 'g', 00H
	DB	'r', 00H, 'a', 00H, 'm', 00H, ' ', 00H, 'F', 00H, 'i', 00H, 'l'
	DB	00H, 'e', 00H, 's', 00H, ' ', 00H, '(', 00H, 'x', 00H, '8', 00H
	DB	'6', 00H, ')', 00H, '\', 00H, 'M', 00H, 'i', 00H, 'c', 00H, 'r'
	DB	00H, 'o', 00H, 's', 00H, 'o', 00H, 'f', 00H, 't', 00H, ' ', 00H
	DB	'V', 00H, 'i', 00H, 's', 00H, 'u', 00H, 'a', 00H, 'l', 00H, ' '
	DB	00H, 'S', 00H, 't', 00H, 'u', 00H, 'd', 00H, 'i', 00H, 'o', 00H
	DB	' ', 00H, '1', 00H, '0', 00H, '.', 00H, '0', 00H, '\', 00H, 'V'
	DB	00H, 'C', 00H, '\', 00H, 'i', 00H, 'n', 00H, 'c', 00H, 'l', 00H
	DB	'u', 00H, 'd', 00H, 'e', 00H, '\', 00H, 'x', 00H, 'u', 00H, 't'
	DB	00H, 'i', 00H, 'l', 00H, 'i', 00H, 't', 00H, 'y', 00H, 00H, 00H ; `string'
; Function compile flags: /Odtp /RTCsu
CONST	ENDS
;	COMDAT ?_Orphan_me@_Iterator_base12@std@@QAEXXZ
_TEXT	SEGMENT
__Pnext$15155 = -8					; size = 4
_this$ = -4						; size = 4
?_Orphan_me@_Iterator_base12@std@@QAEXXZ PROC		; std::_Iterator_base12::_Orphan_me, COMDAT
; _this$ = ecx

; 184  : 		{	// cut ties with parent

	push	ebp
	mov	ebp, esp
	sub	esp, 8
	mov	DWORD PTR [ebp-8], -858993460		; ccccccccH
	mov	DWORD PTR [ebp-4], -858993460		; ccccccccH
	mov	DWORD PTR _this$[ebp], ecx

; 185  :  #if _ITERATOR_DEBUG_LEVEL == 2
; 186  : 		if (_Myproxy != 0)

	mov	eax, DWORD PTR _this$[ebp]
	cmp	DWORD PTR [eax], 0
	je	SHORT $LN5@Orphan_me

; 187  : 			{	// adopted, remove self from list
; 188  : 			_Iterator_base12 **_Pnext = &_Myproxy->_Myfirstiter;

	mov	ecx, DWORD PTR _this$[ebp]
	mov	edx, DWORD PTR [ecx]
	add	edx, 4
	mov	DWORD PTR __Pnext$15155[ebp], edx
$LN3@Orphan_me:

; 189  : 			while (*_Pnext != 0 && *_Pnext != this)

	mov	eax, DWORD PTR __Pnext$15155[ebp]
	cmp	DWORD PTR [eax], 0
	je	SHORT $LN2@Orphan_me
	mov	ecx, DWORD PTR __Pnext$15155[ebp]
	mov	edx, DWORD PTR [ecx]
	cmp	edx, DWORD PTR _this$[ebp]
	je	SHORT $LN2@Orphan_me

; 190  : 				_Pnext = &(*_Pnext)->_Mynextiter;

	mov	eax, DWORD PTR __Pnext$15155[ebp]
	mov	ecx, DWORD PTR [eax]
	add	ecx, 4
	mov	DWORD PTR __Pnext$15155[ebp], ecx
	jmp	SHORT $LN3@Orphan_me
$LN2@Orphan_me:

; 191  : 
; 192  : 			if (*_Pnext == 0)

	mov	edx, DWORD PTR __Pnext$15155[ebp]
	cmp	DWORD PTR [edx], 0
	jne	SHORT $LN1@Orphan_me

; 193  : 				_DEBUG_ERROR("ITERATOR LIST CORRUPTED!");

	push	193					; 000000c1H
	push	OFFSET ??_C@_1JA@HCKHPKJH@?$AAc?$AA?3?$AA?2?$AAP?$AAr?$AAo?$AAg?$AAr?$AAa?$AAm?$AA?5?$AAF?$AAi?$AAl?$AAe?$AAs?$AA?5?$AA?$CI?$AAx?$AA8?$AA6?$AA?$CJ?$AA?2?$AAM?$AAi?$AAc?$AAr?$AAo?$AAs?$AAo?$AAf?$AAt@
	push	OFFSET ??_C@_1DC@POOIKBAO@?$AAI?$AAT?$AAE?$AAR?$AAA?$AAT?$AAO?$AAR?$AA?5?$AAL?$AAI?$AAS?$AAT?$AA?5?$AAC?$AAO?$AAR?$AAR?$AAU?$AAP?$AAT?$AAE?$AAD?$AA?$CB?$AA?$AA@
	call	?_Debug_message@std@@YAXPB_W0I@Z	; std::_Debug_message
	add	esp, 12					; 0000000cH
$LN1@Orphan_me:

; 194  : 			*_Pnext = _Mynextiter;

	mov	eax, DWORD PTR __Pnext$15155[ebp]
	mov	ecx, DWORD PTR _this$[ebp]
	mov	edx, DWORD PTR [ecx+4]
	mov	DWORD PTR [eax], edx

; 195  : 			_Myproxy = 0;

	mov	eax, DWORD PTR _this$[ebp]
	mov	DWORD PTR [eax], 0
$LN5@Orphan_me:

; 196  : 			}
; 197  :  #endif /* _ITERATOR_DEBUG_LEVEL == 2 */
; 198  : 		}

	add	esp, 8
	cmp	ebp, esp
	call	__RTC_CheckEsp
	mov	esp, ebp
	pop	ebp
	ret	0
?_Orphan_me@_Iterator_base12@std@@QAEXXZ ENDP		; std::_Iterator_base12::_Orphan_me
_TEXT	ENDS
PUBLIC	??1?$_Vector_val@UVector2D@@V?$allocator@UVector2D@@@std@@@std@@QAE@XZ ; std::_Vector_val<Vector2D,std::allocator<Vector2D> >::~_Vector_val<Vector2D,std::allocator<Vector2D> >
PUBLIC	?resize@?$vector@UVector2D@@V?$allocator@UVector2D@@@std@@@std@@QAEXI@Z ; std::vector<Vector2D,std::allocator<Vector2D> >::resize
PUBLIC	??0?$_Vector_val@UVector2D@@V?$allocator@UVector2D@@@std@@@std@@QAE@V?$allocator@UVector2D@@@1@@Z ; std::_Vector_val<Vector2D,std::allocator<Vector2D> >::_Vector_val<Vector2D,std::allocator<Vector2D> >
PUBLIC	??0?$allocator@UVector2D@@@std@@QAE@XZ		; std::allocator<Vector2D>::allocator<Vector2D>
;	COMDAT xdata$x
; File c:\program files (x86)\microsoft visual studio 10.0\vc\include\vector
xdata$x	SEGMENT
__unwindtable$??0?$vector@UVector2D@@V?$allocator@UVector2D@@@std@@@std@@QAE@I@Z DD 0ffffffffH
	DD	FLAT:__unwindfunclet$??0?$vector@UVector2D@@V?$allocator@UVector2D@@@std@@@std@@QAE@I@Z$0
__ehfuncinfo$??0?$vector@UVector2D@@V?$allocator@UVector2D@@@std@@@std@@QAE@I@Z DD 019930522H
	DD	01H
	DD	FLAT:__unwindtable$??0?$vector@UVector2D@@V?$allocator@UVector2D@@@std@@@std@@QAE@I@Z
	DD	2 DUP(00H)
	DD	2 DUP(00H)
	DD	00H
	DD	01H
; Function compile flags: /Odtp /RTCsu
xdata$x	ENDS
;	COMDAT ??0?$vector@UVector2D@@V?$allocator@UVector2D@@@std@@@std@@QAE@I@Z
_TEXT	SEGMENT
$T146412 = -20						; size = 4
_this$ = -16						; size = 4
__$EHRec$ = -12						; size = 12
__Count$ = 8						; size = 4
??0?$vector@UVector2D@@V?$allocator@UVector2D@@@std@@@std@@QAE@I@Z PROC ; std::vector<Vector2D,std::allocator<Vector2D> >::vector<Vector2D,std::allocator<Vector2D> >, COMDAT
; _this$ = ecx

; 517  : 		{	// construct from _Count * _Ty()

	push	ebp
	mov	ebp, esp
	push	-1
	push	__ehhandler$??0?$vector@UVector2D@@V?$allocator@UVector2D@@@std@@@std@@QAE@I@Z
	mov	eax, DWORD PTR fs:0
	push	eax
	sub	esp, 8
	mov	DWORD PTR [ebp-20], -858993460		; ccccccccH
	mov	DWORD PTR [ebp-16], -858993460		; ccccccccH
	mov	eax, DWORD PTR ___security_cookie
	xor	eax, ebp
	push	eax
	lea	eax, DWORD PTR __$EHRec$[ebp]
	mov	DWORD PTR fs:0, eax
	mov	DWORD PTR _this$[ebp], ecx
	push	ecx
	mov	ecx, esp
	mov	DWORD PTR $T146412[ebp], esp
	call	??0?$allocator@UVector2D@@@std@@QAE@XZ	; std::allocator<Vector2D>::allocator<Vector2D>
	mov	ecx, DWORD PTR _this$[ebp]
	call	??0?$_Vector_val@UVector2D@@V?$allocator@UVector2D@@@std@@@std@@QAE@V?$allocator@UVector2D@@@1@@Z ; std::_Vector_val<Vector2D,std::allocator<Vector2D> >::_Vector_val<Vector2D,std::allocator<Vector2D> >
	mov	DWORD PTR __$EHRec$[ebp+8], 0

; 518  : 		resize(_Count);

	mov	eax, DWORD PTR __Count$[ebp]
	push	eax
	mov	ecx, DWORD PTR _this$[ebp]
	call	?resize@?$vector@UVector2D@@V?$allocator@UVector2D@@@std@@@std@@QAEXI@Z ; std::vector<Vector2D,std::allocator<Vector2D> >::resize

; 519  : 		}

	mov	DWORD PTR __$EHRec$[ebp+8], -1
	mov	eax, DWORD PTR _this$[ebp]
	mov	ecx, DWORD PTR __$EHRec$[ebp]
	mov	DWORD PTR fs:0, ecx
	pop	ecx
	add	esp, 20					; 00000014H
	cmp	ebp, esp
	call	__RTC_CheckEsp
	mov	esp, ebp
	pop	ebp
	ret	4
_TEXT	ENDS
;	COMDAT text$x
text$x	SEGMENT
__unwindfunclet$??0?$vector@UVector2D@@V?$allocator@UVector2D@@@std@@@std@@QAE@I@Z$0:
	mov	ecx, DWORD PTR _this$[ebp]
	jmp	??1?$_Vector_val@UVector2D@@V?$allocator@UVector2D@@@std@@@std@@QAE@XZ ; std::_Vector_val<Vector2D,std::allocator<Vector2D> >::~_Vector_val<Vector2D,std::allocator<Vector2D> >
__ehhandler$??0?$vector@UVector2D@@V?$allocator@UVector2D@@@std@@@std@@QAE@I@Z:
	mov	edx, DWORD PTR [esp+8]
	lea	eax, DWORD PTR [edx+12]
	mov	ecx, DWORD PTR [edx-12]
	xor	ecx, eax
	call	@__security_check_cookie@4
	mov	eax, OFFSET __ehfuncinfo$??0?$vector@UVector2D@@V?$allocator@UVector2D@@@std@@@std@@QAE@I@Z
	jmp	___CxxFrameHandler3
text$x	ENDS
??0?$vector@UVector2D@@V?$allocator@UVector2D@@@std@@@std@@QAE@I@Z ENDP ; std::vector<Vector2D,std::allocator<Vector2D> >::vector<Vector2D,std::allocator<Vector2D> >
PUBLIC	?_Tidy@?$vector@UVector2D@@V?$allocator@UVector2D@@@std@@@std@@IAEXXZ ; std::vector<Vector2D,std::allocator<Vector2D> >::_Tidy
;	COMDAT xdata$x
xdata$x	SEGMENT
__unwindtable$??1?$vector@UVector2D@@V?$allocator@UVector2D@@@std@@@std@@QAE@XZ DD 0ffffffffH
	DD	FLAT:__unwindfunclet$??1?$vector@UVector2D@@V?$allocator@UVector2D@@@std@@@std@@QAE@XZ$0
__ehfuncinfo$??1?$vector@UVector2D@@V?$allocator@UVector2D@@@std@@@std@@QAE@XZ DD 019930522H
	DD	01H
	DD	FLAT:__unwindtable$??1?$vector@UVector2D@@V?$allocator@UVector2D@@@std@@@std@@QAE@XZ
	DD	2 DUP(00H)
	DD	2 DUP(00H)
	DD	00H
	DD	01H
; Function compile flags: /Odtp /RTCsu
xdata$x	ENDS
;	COMDAT ??1?$vector@UVector2D@@V?$allocator@UVector2D@@@std@@@std@@QAE@XZ
_TEXT	SEGMENT
_this$ = -16						; size = 4
__$EHRec$ = -12						; size = 12
??1?$vector@UVector2D@@V?$allocator@UVector2D@@@std@@@std@@QAE@XZ PROC ; std::vector<Vector2D,std::allocator<Vector2D> >::~vector<Vector2D,std::allocator<Vector2D> >, COMDAT
; _this$ = ecx

; 704  : 		{	// destroy the object

	push	ebp
	mov	ebp, esp
	push	-1
	push	__ehhandler$??1?$vector@UVector2D@@V?$allocator@UVector2D@@@std@@@std@@QAE@XZ
	mov	eax, DWORD PTR fs:0
	push	eax
	push	ecx
	mov	DWORD PTR [ebp-16], -858993460		; ccccccccH
	mov	eax, DWORD PTR ___security_cookie
	xor	eax, ebp
	push	eax
	lea	eax, DWORD PTR __$EHRec$[ebp]
	mov	DWORD PTR fs:0, eax
	mov	DWORD PTR _this$[ebp], ecx
	mov	DWORD PTR __$EHRec$[ebp+8], 0

; 705  : 		_Tidy();

	mov	ecx, DWORD PTR _this$[ebp]
	call	?_Tidy@?$vector@UVector2D@@V?$allocator@UVector2D@@@std@@@std@@IAEXXZ ; std::vector<Vector2D,std::allocator<Vector2D> >::_Tidy

; 706  : 		}

	mov	DWORD PTR __$EHRec$[ebp+8], -1
	mov	ecx, DWORD PTR _this$[ebp]
	call	??1?$_Vector_val@UVector2D@@V?$allocator@UVector2D@@@std@@@std@@QAE@XZ ; std::_Vector_val<Vector2D,std::allocator<Vector2D> >::~_Vector_val<Vector2D,std::allocator<Vector2D> >
	mov	ecx, DWORD PTR __$EHRec$[ebp]
	mov	DWORD PTR fs:0, ecx
	pop	ecx
	add	esp, 16					; 00000010H
	cmp	ebp, esp
	call	__RTC_CheckEsp
	mov	esp, ebp
	pop	ebp
	ret	0
_TEXT	ENDS
;	COMDAT text$x
text$x	SEGMENT
__unwindfunclet$??1?$vector@UVector2D@@V?$allocator@UVector2D@@@std@@@std@@QAE@XZ$0:
	mov	ecx, DWORD PTR _this$[ebp]
	jmp	??1?$_Vector_val@UVector2D@@V?$allocator@UVector2D@@@std@@@std@@QAE@XZ ; std::_Vector_val<Vector2D,std::allocator<Vector2D> >::~_Vector_val<Vector2D,std::allocator<Vector2D> >
__ehhandler$??1?$vector@UVector2D@@V?$allocator@UVector2D@@@std@@@std@@QAE@XZ:
	mov	edx, DWORD PTR [esp+8]
	lea	eax, DWORD PTR [edx+12]
	mov	ecx, DWORD PTR [edx-8]
	xor	ecx, eax
	call	@__security_check_cookie@4
	mov	eax, OFFSET __ehfuncinfo$??1?$vector@UVector2D@@V?$allocator@UVector2D@@@std@@@std@@QAE@XZ
	jmp	___CxxFrameHandler3
text$x	ENDS
??1?$vector@UVector2D@@V?$allocator@UVector2D@@@std@@@std@@QAE@XZ ENDP ; std::vector<Vector2D,std::allocator<Vector2D> >::~vector<Vector2D,std::allocator<Vector2D> >
; Function compile flags: /Odtp /RTCsu
;	COMDAT ?size@?$vector@UVector2D@@V?$allocator@UVector2D@@@std@@@std@@QBEIXZ
_TEXT	SEGMENT
_this$ = -4						; size = 4
?size@?$vector@UVector2D@@V?$allocator@UVector2D@@@std@@@std@@QBEIXZ PROC ; std::vector<Vector2D,std::allocator<Vector2D> >::size, COMDAT
; _this$ = ecx

; 878  : 		{	// return length of sequence

	push	ebp
	mov	ebp, esp
	push	ecx
	mov	DWORD PTR [ebp-4], -858993460		; ccccccccH
	mov	DWORD PTR _this$[ebp], ecx

; 879  : 		return (this->_Mylast - this->_Myfirst);

	mov	eax, DWORD PTR _this$[ebp]
	mov	ecx, DWORD PTR _this$[ebp]
	mov	eax, DWORD PTR [eax+8]
	sub	eax, DWORD PTR [ecx+4]
	sar	eax, 4

; 880  : 		}

	mov	esp, ebp
	pop	ebp
	ret	0
?size@?$vector@UVector2D@@V?$allocator@UVector2D@@@std@@@std@@QBEIXZ ENDP ; std::vector<Vector2D,std::allocator<Vector2D> >::size
_TEXT	ENDS
PUBLIC	??_C@_1BO@MEPPHOO@?$AA?$CC?$AAo?$AAu?$AAt?$AA?5?$AAo?$AAf?$AA?5?$AAr?$AAa?$AAn?$AAg?$AAe?$AA?$CC?$AA?$AA@ ; `string'
PUBLIC	??_C@_1KC@ILGGEGM@?$AAs?$AAt?$AAd?$AA?3?$AA?3?$AAv?$AAe?$AAc?$AAt?$AAo?$AAr?$AA?$DM?$AAs?$AAt?$AAr?$AAu?$AAc?$AAt?$AA?5?$AAV?$AAe?$AAc?$AAt?$AAo?$AAr?$AA2?$AAD?$AA?0?$AAc?$AAl?$AAa?$AAs@ ; `string'
PUBLIC	??_C@_1FG@IBPIFFN@?$AA?$CC?$AAS?$AAt?$AAa?$AAn?$AAd?$AAa?$AAr?$AAd?$AA?5?$AAC?$AA?$CL?$AA?$CL?$AA?5?$AAL?$AAi?$AAb?$AAr?$AAa?$AAr?$AAi?$AAe?$AAs?$AA?5?$AAO?$AAu?$AAt?$AA?5?$AAo?$AAf?$AA?5?$AAR@ ; `string'
PUBLIC	??_C@_0CE@OFMIGAMM@Standard?5C?$CL?$CL?5Libraries?5Out?5of?5Ra@ ; `string'
PUBLIC	??_C@_1DM@LHGCHCBA@?$AAv?$AAe?$AAc?$AAt?$AAo?$AAr?$AA?5?$AAs?$AAu?$AAb?$AAs?$AAc?$AAr?$AAi?$AAp?$AAt?$AA?5?$AAo?$AAu?$AAt?$AA?5?$AAo?$AAf?$AA?5?$AAr?$AAa?$AAn?$AAg?$AAe?$AA?$AA@ ; `string'
PUBLIC	??_C@_1IM@MKOOKKBK@?$AAc?$AA?3?$AA?2?$AAP?$AAr?$AAo?$AAg?$AAr?$AAa?$AAm?$AA?5?$AAF?$AAi?$AAl?$AAe?$AAs?$AA?5?$AA?$CI?$AAx?$AA8?$AA6?$AA?$CJ?$AA?2?$AAM?$AAi?$AAc?$AAr?$AAo?$AAs?$AAo?$AAf?$AAt@ ; `string'
EXTRN	__invalid_parameter:PROC
EXTRN	__CrtDbgReportW:PROC
;	COMDAT ??_C@_1BO@MEPPHOO@?$AA?$CC?$AAo?$AAu?$AAt?$AA?5?$AAo?$AAf?$AA?5?$AAr?$AAa?$AAn?$AAg?$AAe?$AA?$CC?$AA?$AA@
CONST	SEGMENT
??_C@_1BO@MEPPHOO@?$AA?$CC?$AAo?$AAu?$AAt?$AA?5?$AAo?$AAf?$AA?5?$AAr?$AAa?$AAn?$AAg?$AAe?$AA?$CC?$AA?$AA@ DB '"'
	DB	00H, 'o', 00H, 'u', 00H, 't', 00H, ' ', 00H, 'o', 00H, 'f', 00H
	DB	' ', 00H, 'r', 00H, 'a', 00H, 'n', 00H, 'g', 00H, 'e', 00H, '"'
	DB	00H, 00H, 00H				; `string'
CONST	ENDS
;	COMDAT ??_C@_1KC@ILGGEGM@?$AAs?$AAt?$AAd?$AA?3?$AA?3?$AAv?$AAe?$AAc?$AAt?$AAo?$AAr?$AA?$DM?$AAs?$AAt?$AAr?$AAu?$AAc?$AAt?$AA?5?$AAV?$AAe?$AAc?$AAt?$AAo?$AAr?$AA2?$AAD?$AA?0?$AAc?$AAl?$AAa?$AAs@
CONST	SEGMENT
??_C@_1KC@ILGGEGM@?$AAs?$AAt?$AAd?$AA?3?$AA?3?$AAv?$AAe?$AAc?$AAt?$AAo?$AAr?$AA?$DM?$AAs?$AAt?$AAr?$AAu?$AAc?$AAt?$AA?5?$AAV?$AAe?$AAc?$AAt?$AAo?$AAr?$AA2?$AAD?$AA?0?$AAc?$AAl?$AAa?$AAs@ DB 's'
	DB	00H, 't', 00H, 'd', 00H, ':', 00H, ':', 00H, 'v', 00H, 'e', 00H
	DB	'c', 00H, 't', 00H, 'o', 00H, 'r', 00H, '<', 00H, 's', 00H, 't'
	DB	00H, 'r', 00H, 'u', 00H, 'c', 00H, 't', 00H, ' ', 00H, 'V', 00H
	DB	'e', 00H, 'c', 00H, 't', 00H, 'o', 00H, 'r', 00H, '2', 00H, 'D'
	DB	00H, ',', 00H, 'c', 00H, 'l', 00H, 'a', 00H, 's', 00H, 's', 00H
	DB	' ', 00H, 's', 00H, 't', 00H, 'd', 00H, ':', 00H, ':', 00H, 'a'
	DB	00H, 'l', 00H, 'l', 00H, 'o', 00H, 'c', 00H, 'a', 00H, 't', 00H
	DB	'o', 00H, 'r', 00H, '<', 00H, 's', 00H, 't', 00H, 'r', 00H, 'u'
	DB	00H, 'c', 00H, 't', 00H, ' ', 00H, 'V', 00H, 'e', 00H, 'c', 00H
	DB	't', 00H, 'o', 00H, 'r', 00H, '2', 00H, 'D', 00H, '>', 00H, ' '
	DB	00H, '>', 00H, ':', 00H, ':', 00H, 'o', 00H, 'p', 00H, 'e', 00H
	DB	'r', 00H, 'a', 00H, 't', 00H, 'o', 00H, 'r', 00H, ' ', 00H, '['
	DB	00H, ']', 00H, 00H, 00H			; `string'
CONST	ENDS
;	COMDAT ??_C@_1FG@IBPIFFN@?$AA?$CC?$AAS?$AAt?$AAa?$AAn?$AAd?$AAa?$AAr?$AAd?$AA?5?$AAC?$AA?$CL?$AA?$CL?$AA?5?$AAL?$AAi?$AAb?$AAr?$AAa?$AAr?$AAi?$AAe?$AAs?$AA?5?$AAO?$AAu?$AAt?$AA?5?$AAo?$AAf?$AA?5?$AAR@
CONST	SEGMENT
??_C@_1FG@IBPIFFN@?$AA?$CC?$AAS?$AAt?$AAa?$AAn?$AAd?$AAa?$AAr?$AAd?$AA?5?$AAC?$AA?$CL?$AA?$CL?$AA?5?$AAL?$AAi?$AAb?$AAr?$AAa?$AAr?$AAi?$AAe?$AAs?$AA?5?$AAO?$AAu?$AAt?$AA?5?$AAo?$AAf?$AA?5?$AAR@ DB '"'
	DB	00H, 'S', 00H, 't', 00H, 'a', 00H, 'n', 00H, 'd', 00H, 'a', 00H
	DB	'r', 00H, 'd', 00H, ' ', 00H, 'C', 00H, '+', 00H, '+', 00H, ' '
	DB	00H, 'L', 00H, 'i', 00H, 'b', 00H, 'r', 00H, 'a', 00H, 'r', 00H
	DB	'i', 00H, 'e', 00H, 's', 00H, ' ', 00H, 'O', 00H, 'u', 00H, 't'
	DB	00H, ' ', 00H, 'o', 00H, 'f', 00H, ' ', 00H, 'R', 00H, 'a', 00H
	DB	'n', 00H, 'g', 00H, 'e', 00H, '"', 00H, ' ', 00H, '&', 00H, '&'
	DB	00H, ' ', 00H, '0', 00H, 00H, 00H		; `string'
CONST	ENDS
;	COMDAT ??_C@_0CE@OFMIGAMM@Standard?5C?$CL?$CL?5Libraries?5Out?5of?5Ra@
CONST	SEGMENT
??_C@_0CE@OFMIGAMM@Standard?5C?$CL?$CL?5Libraries?5Out?5of?5Ra@ DB 'Stand'
	DB	'ard C++ Libraries Out of Range', 00H	; `string'
CONST	ENDS
;	COMDAT ??_C@_1DM@LHGCHCBA@?$AAv?$AAe?$AAc?$AAt?$AAo?$AAr?$AA?5?$AAs?$AAu?$AAb?$AAs?$AAc?$AAr?$AAi?$AAp?$AAt?$AA?5?$AAo?$AAu?$AAt?$AA?5?$AAo?$AAf?$AA?5?$AAr?$AAa?$AAn?$AAg?$AAe?$AA?$AA@
CONST	SEGMENT
??_C@_1DM@LHGCHCBA@?$AAv?$AAe?$AAc?$AAt?$AAo?$AAr?$AA?5?$AAs?$AAu?$AAb?$AAs?$AAc?$AAr?$AAi?$AAp?$AAt?$AA?5?$AAo?$AAu?$AAt?$AA?5?$AAo?$AAf?$AA?5?$AAr?$AAa?$AAn?$AAg?$AAe?$AA?$AA@ DB 'v'
	DB	00H, 'e', 00H, 'c', 00H, 't', 00H, 'o', 00H, 'r', 00H, ' ', 00H
	DB	's', 00H, 'u', 00H, 'b', 00H, 's', 00H, 'c', 00H, 'r', 00H, 'i'
	DB	00H, 'p', 00H, 't', 00H, ' ', 00H, 'o', 00H, 'u', 00H, 't', 00H
	DB	' ', 00H, 'o', 00H, 'f', 00H, ' ', 00H, 'r', 00H, 'a', 00H, 'n'
	DB	00H, 'g', 00H, 'e', 00H, 00H, 00H		; `string'
CONST	ENDS
;	COMDAT ??_C@_1IM@MKOOKKBK@?$AAc?$AA?3?$AA?2?$AAP?$AAr?$AAo?$AAg?$AAr?$AAa?$AAm?$AA?5?$AAF?$AAi?$AAl?$AAe?$AAs?$AA?5?$AA?$CI?$AAx?$AA8?$AA6?$AA?$CJ?$AA?2?$AAM?$AAi?$AAc?$AAr?$AAo?$AAs?$AAo?$AAf?$AAt@
CONST	SEGMENT
??_C@_1IM@MKOOKKBK@?$AAc?$AA?3?$AA?2?$AAP?$AAr?$AAo?$AAg?$AAr?$AAa?$AAm?$AA?5?$AAF?$AAi?$AAl?$AAe?$AAs?$AA?5?$AA?$CI?$AAx?$AA8?$AA6?$AA?$CJ?$AA?2?$AAM?$AAi?$AAc?$AAr?$AAo?$AAs?$AAo?$AAf?$AAt@ DB 'c'
	DB	00H, ':', 00H, '\', 00H, 'P', 00H, 'r', 00H, 'o', 00H, 'g', 00H
	DB	'r', 00H, 'a', 00H, 'm', 00H, ' ', 00H, 'F', 00H, 'i', 00H, 'l'
	DB	00H, 'e', 00H, 's', 00H, ' ', 00H, '(', 00H, 'x', 00H, '8', 00H
	DB	'6', 00H, ')', 00H, '\', 00H, 'M', 00H, 'i', 00H, 'c', 00H, 'r'
	DB	00H, 'o', 00H, 's', 00H, 'o', 00H, 'f', 00H, 't', 00H, ' ', 00H
	DB	'V', 00H, 'i', 00H, 's', 00H, 'u', 00H, 'a', 00H, 'l', 00H, ' '
	DB	00H, 'S', 00H, 't', 00H, 'u', 00H, 'd', 00H, 'i', 00H, 'o', 00H
	DB	' ', 00H, '1', 00H, '0', 00H, '.', 00H, '0', 00H, '\', 00H, 'V'
	DB	00H, 'C', 00H, '\', 00H, 'i', 00H, 'n', 00H, 'c', 00H, 'l', 00H
	DB	'u', 00H, 'd', 00H, 'e', 00H, '\', 00H, 'v', 00H, 'e', 00H, 'c'
	DB	00H, 't', 00H, 'o', 00H, 'r', 00H, 00H, 00H	; `string'
; Function compile flags: /Odtp /RTCsu
CONST	ENDS
;	COMDAT ??A?$vector@UVector2D@@V?$allocator@UVector2D@@@std@@@std@@QAEAAUVector2D@@I@Z
_TEXT	SEGMENT
_this$ = -4						; size = 4
__Pos$ = 8						; size = 4
??A?$vector@UVector2D@@V?$allocator@UVector2D@@@std@@@std@@QAEAAUVector2D@@I@Z PROC ; std::vector<Vector2D,std::allocator<Vector2D> >::operator[], COMDAT
; _this$ = ecx

; 928  : 		{	// subscript mutable sequence

	push	ebp
	mov	ebp, esp
	push	ecx
	mov	DWORD PTR [ebp-4], -858993460		; ccccccccH
	mov	DWORD PTR _this$[ebp], ecx

; 929  :  #if _ITERATOR_DEBUG_LEVEL == 2
; 930  : 		if (size() <= _Pos)

	mov	ecx, DWORD PTR _this$[ebp]
	call	?size@?$vector@UVector2D@@V?$allocator@UVector2D@@@std@@@std@@QBEIXZ ; std::vector<Vector2D,std::allocator<Vector2D> >::size
	cmp	eax, DWORD PTR __Pos$[ebp]
	ja	SHORT $LN1@operator@6

; 931  : 			{	// report error
; 932  : 			_DEBUG_ERROR("vector subscript out of range");

	push	932					; 000003a4H
	push	OFFSET ??_C@_1IM@MKOOKKBK@?$AAc?$AA?3?$AA?2?$AAP?$AAr?$AAo?$AAg?$AAr?$AAa?$AAm?$AA?5?$AAF?$AAi?$AAl?$AAe?$AAs?$AA?5?$AA?$CI?$AAx?$AA8?$AA6?$AA?$CJ?$AA?2?$AAM?$AAi?$AAc?$AAr?$AAo?$AAs?$AAo?$AAf?$AAt@
	push	OFFSET ??_C@_1DM@LHGCHCBA@?$AAv?$AAe?$AAc?$AAt?$AAo?$AAr?$AA?5?$AAs?$AAu?$AAb?$AAs?$AAc?$AAr?$AAi?$AAp?$AAt?$AA?5?$AAo?$AAu?$AAt?$AA?5?$AAo?$AAf?$AA?5?$AAr?$AAa?$AAn?$AAg?$AAe?$AA?$AA@
	call	?_Debug_message@std@@YAXPB_W0I@Z	; std::_Debug_message
	add	esp, 12					; 0000000cH

; 933  : 			_SCL_SECURE_OUT_OF_RANGE;

	mov	eax, OFFSET ??_C@_0CE@OFMIGAMM@Standard?5C?$CL?$CL?5Libraries?5Out?5of?5Ra@
	test	eax, eax
	je	SHORT $LN4@operator@6
	xor	ecx, ecx
	jne	SHORT $LN5@operator@6
$LN4@operator@6:
	push	OFFSET ??_C@_1FG@IBPIFFN@?$AA?$CC?$AAS?$AAt?$AAa?$AAn?$AAd?$AAa?$AAr?$AAd?$AA?5?$AAC?$AA?$CL?$AA?$CL?$AA?5?$AAL?$AAi?$AAb?$AAr?$AAa?$AAr?$AAi?$AAe?$AAs?$AA?5?$AAO?$AAu?$AAt?$AA?5?$AAo?$AAf?$AA?5?$AAR@
	push	0
	push	933					; 000003a5H
	push	OFFSET ??_C@_1IM@MKOOKKBK@?$AAc?$AA?3?$AA?2?$AAP?$AAr?$AAo?$AAg?$AAr?$AAa?$AAm?$AA?5?$AAF?$AAi?$AAl?$AAe?$AAs?$AA?5?$AA?$CI?$AAx?$AA8?$AA6?$AA?$CJ?$AA?2?$AAM?$AAi?$AAc?$AAr?$AAo?$AAs?$AAo?$AAf?$AAt@
	push	2
	call	__CrtDbgReportW
	add	esp, 20					; 00000014H
	cmp	eax, 1
	jne	SHORT $LN5@operator@6
	int	3
$LN5@operator@6:
	push	0
	push	933					; 000003a5H
	push	OFFSET ??_C@_1IM@MKOOKKBK@?$AAc?$AA?3?$AA?2?$AAP?$AAr?$AAo?$AAg?$AAr?$AAa?$AAm?$AA?5?$AAF?$AAi?$AAl?$AAe?$AAs?$AA?5?$AA?$CI?$AAx?$AA8?$AA6?$AA?$CJ?$AA?2?$AAM?$AAi?$AAc?$AAr?$AAo?$AAs?$AAo?$AAf?$AAt@
	push	OFFSET ??_C@_1KC@ILGGEGM@?$AAs?$AAt?$AAd?$AA?3?$AA?3?$AAv?$AAe?$AAc?$AAt?$AAo?$AAr?$AA?$DM?$AAs?$AAt?$AAr?$AAu?$AAc?$AAt?$AA?5?$AAV?$AAe?$AAc?$AAt?$AAo?$AAr?$AA2?$AAD?$AA?0?$AAc?$AAl?$AAa?$AAs@
	push	OFFSET ??_C@_1BO@MEPPHOO@?$AA?$CC?$AAo?$AAu?$AAt?$AA?5?$AAo?$AAf?$AA?5?$AAr?$AAa?$AAn?$AAg?$AAe?$AA?$CC?$AA?$AA@
	call	__invalid_parameter
	add	esp, 20					; 00000014H
$LN1@operator@6:

; 934  : 			}
; 935  : 
; 936  :  #elif _ITERATOR_DEBUG_LEVEL == 1
; 937  : 		_SCL_SECURE_VALIDATE_RANGE(_Pos < size());
; 938  :  #endif /* _ITERATOR_DEBUG_LEVEL */
; 939  : 
; 940  : 		return (*(this->_Myfirst + _Pos));

	mov	eax, DWORD PTR __Pos$[ebp]
	shl	eax, 4
	mov	ecx, DWORD PTR _this$[ebp]
	add	eax, DWORD PTR [ecx+4]

; 941  : 		}

	add	esp, 4
	cmp	ebp, esp
	call	__RTC_CheckEsp
	mov	esp, ebp
	pop	ebp
	ret	4
??A?$vector@UVector2D@@V?$allocator@UVector2D@@@std@@@std@@QAEAAUVector2D@@I@Z ENDP ; std::vector<Vector2D,std::allocator<Vector2D> >::operator[]
_TEXT	ENDS
PUBLIC	??0?$_List_const_iterator@V?$_List_val@PAVAbstRaven_Bot@@V?$allocator@PAVAbstRaven_Bot@@@std@@@std@@@std@@QAE@PAU_Node@?$_List_nod@PAVAbstRaven_Bot@@V?$allocator@PAVAbstRaven_Bot@@@std@@@1@PBV?$_List_val@PAVAbstRaven_Bot@@V?$allocator@PAVAbstRaven_Bot@@@std@@@1@@Z ; std::_List_const_iterator<std::_List_val<AbstRaven_Bot *,std::allocator<AbstRaven_Bot *> > >::_List_const_iterator<std::_List_val<AbstRaven_Bot *,std::allocator<AbstRaven_Bot *> > >
PUBLIC	?_Nextnode@?$_List_val@PAVAbstRaven_Bot@@V?$allocator@PAVAbstRaven_Bot@@@std@@@std@@SAAAPAU_Node@?$_List_nod@PAVAbstRaven_Bot@@V?$allocator@PAVAbstRaven_Bot@@@std@@@2@PAU342@@Z ; std::_List_val<AbstRaven_Bot *,std::allocator<AbstRaven_Bot *> >::_Nextnode
; Function compile flags: /Odtp /RTCsu
; File c:\program files (x86)\microsoft visual studio 10.0\vc\include\list
;	COMDAT ?begin@?$list@PAVAbstRaven_Bot@@V?$allocator@PAVAbstRaven_Bot@@@std@@@std@@QBE?AV?$_List_const_iterator@V?$_List_val@PAVAbstRaven_Bot@@V?$allocator@PAVAbstRaven_Bot@@@std@@@std@@@2@XZ
_TEXT	SEGMENT
$T146438 = -8						; size = 4
_this$ = -4						; size = 4
___$ReturnUdt$ = 8					; size = 4
?begin@?$list@PAVAbstRaven_Bot@@V?$allocator@PAVAbstRaven_Bot@@@std@@@std@@QBE?AV?$_List_const_iterator@V?$_List_val@PAVAbstRaven_Bot@@V?$allocator@PAVAbstRaven_Bot@@@std@@@std@@@2@XZ PROC ; std::list<AbstRaven_Bot *,std::allocator<AbstRaven_Bot *> >::begin, COMDAT
; _this$ = ecx

; 786  : 		{	// return iterator for beginning of nonmutable sequence

	push	ebp
	mov	ebp, esp
	sub	esp, 8
	mov	DWORD PTR [ebp-8], -858993460		; ccccccccH
	mov	DWORD PTR [ebp-4], -858993460		; ccccccccH
	mov	DWORD PTR _this$[ebp], ecx
	mov	DWORD PTR $T146438[ebp], 0

; 787  : 		return (const_iterator(this->_Nextnode(this->_Myhead), this));

	mov	eax, DWORD PTR _this$[ebp]
	push	eax
	mov	ecx, DWORD PTR _this$[ebp]
	mov	edx, DWORD PTR [ecx+4]
	push	edx
	call	?_Nextnode@?$_List_val@PAVAbstRaven_Bot@@V?$allocator@PAVAbstRaven_Bot@@@std@@@std@@SAAAPAU_Node@?$_List_nod@PAVAbstRaven_Bot@@V?$allocator@PAVAbstRaven_Bot@@@std@@@2@PAU342@@Z ; std::_List_val<AbstRaven_Bot *,std::allocator<AbstRaven_Bot *> >::_Nextnode
	add	esp, 4
	mov	eax, DWORD PTR [eax]
	push	eax
	mov	ecx, DWORD PTR ___$ReturnUdt$[ebp]
	call	??0?$_List_const_iterator@V?$_List_val@PAVAbstRaven_Bot@@V?$allocator@PAVAbstRaven_Bot@@@std@@@std@@@std@@QAE@PAU_Node@?$_List_nod@PAVAbstRaven_Bot@@V?$allocator@PAVAbstRaven_Bot@@@std@@@1@PBV?$_List_val@PAVAbstRaven_Bot@@V?$allocator@PAVAbstRaven_Bot@@@std@@@1@@Z ; std::_List_const_iterator<std::_List_val<AbstRaven_Bot *,std::allocator<AbstRaven_Bot *> > >::_List_const_iterator<std::_List_val<AbstRaven_Bot *,std::allocator<AbstRaven_Bot *> > >
	mov	ecx, DWORD PTR $T146438[ebp]
	or	ecx, 1
	mov	DWORD PTR $T146438[ebp], ecx
	mov	eax, DWORD PTR ___$ReturnUdt$[ebp]

; 788  : 		}

	add	esp, 8
	cmp	ebp, esp
	call	__RTC_CheckEsp
	mov	esp, ebp
	pop	ebp
	ret	4
?begin@?$list@PAVAbstRaven_Bot@@V?$allocator@PAVAbstRaven_Bot@@@std@@@std@@QBE?AV?$_List_const_iterator@V?$_List_val@PAVAbstRaven_Bot@@V?$allocator@PAVAbstRaven_Bot@@@std@@@std@@@2@XZ ENDP ; std::list<AbstRaven_Bot *,std::allocator<AbstRaven_Bot *> >::begin
; Function compile flags: /Odtp /RTCsu
_TEXT	ENDS
;	COMDAT ?end@?$list@PAVAbstRaven_Bot@@V?$allocator@PAVAbstRaven_Bot@@@std@@@std@@QBE?AV?$_List_const_iterator@V?$_List_val@PAVAbstRaven_Bot@@V?$allocator@PAVAbstRaven_Bot@@@std@@@std@@@2@XZ
_TEXT	SEGMENT
$T146443 = -8						; size = 4
_this$ = -4						; size = 4
___$ReturnUdt$ = 8					; size = 4
?end@?$list@PAVAbstRaven_Bot@@V?$allocator@PAVAbstRaven_Bot@@@std@@@std@@QBE?AV?$_List_const_iterator@V?$_List_val@PAVAbstRaven_Bot@@V?$allocator@PAVAbstRaven_Bot@@@std@@@std@@@2@XZ PROC ; std::list<AbstRaven_Bot *,std::allocator<AbstRaven_Bot *> >::end, COMDAT
; _this$ = ecx

; 796  : 		{	// return iterator for end of nonmutable sequence

	push	ebp
	mov	ebp, esp
	sub	esp, 8
	mov	DWORD PTR [ebp-8], -858993460		; ccccccccH
	mov	DWORD PTR [ebp-4], -858993460		; ccccccccH
	mov	DWORD PTR _this$[ebp], ecx
	mov	DWORD PTR $T146443[ebp], 0

; 797  : 		return (const_iterator(this->_Myhead, this));

	mov	eax, DWORD PTR _this$[ebp]
	push	eax
	mov	ecx, DWORD PTR _this$[ebp]
	mov	edx, DWORD PTR [ecx+4]
	push	edx
	mov	ecx, DWORD PTR ___$ReturnUdt$[ebp]
	call	??0?$_List_const_iterator@V?$_List_val@PAVAbstRaven_Bot@@V?$allocator@PAVAbstRaven_Bot@@@std@@@std@@@std@@QAE@PAU_Node@?$_List_nod@PAVAbstRaven_Bot@@V?$allocator@PAVAbstRaven_Bot@@@std@@@1@PBV?$_List_val@PAVAbstRaven_Bot@@V?$allocator@PAVAbstRaven_Bot@@@std@@@1@@Z ; std::_List_const_iterator<std::_List_val<AbstRaven_Bot *,std::allocator<AbstRaven_Bot *> > >::_List_const_iterator<std::_List_val<AbstRaven_Bot *,std::allocator<AbstRaven_Bot *> > >
	mov	eax, DWORD PTR $T146443[ebp]
	or	eax, 1
	mov	DWORD PTR $T146443[ebp], eax
	mov	eax, DWORD PTR ___$ReturnUdt$[ebp]

; 798  : 		}

	add	esp, 8
	cmp	ebp, esp
	call	__RTC_CheckEsp
	mov	esp, ebp
	pop	ebp
	ret	4
?end@?$list@PAVAbstRaven_Bot@@V?$allocator@PAVAbstRaven_Bot@@@std@@@std@@QBE?AV?$_List_const_iterator@V?$_List_val@PAVAbstRaven_Bot@@V?$allocator@PAVAbstRaven_Bot@@@std@@@std@@@2@XZ ENDP ; std::list<AbstRaven_Bot *,std::allocator<AbstRaven_Bot *> >::end
; Function compile flags: /Odtp /RTCsu
; File c:\program files (x86)\microsoft visual studio 10.0\vc\include\vector
_TEXT	ENDS
;	COMDAT ?size@?$vector@PAVWall2D@@V?$allocator@PAVWall2D@@@std@@@std@@QBEIXZ
_TEXT	SEGMENT
_this$ = -4						; size = 4
?size@?$vector@PAVWall2D@@V?$allocator@PAVWall2D@@@std@@@std@@QBEIXZ PROC ; std::vector<Wall2D *,std::allocator<Wall2D *> >::size, COMDAT
; _this$ = ecx

; 878  : 		{	// return length of sequence

	push	ebp
	mov	ebp, esp
	push	ecx
	mov	DWORD PTR [ebp-4], -858993460		; ccccccccH
	mov	DWORD PTR _this$[ebp], ecx

; 879  : 		return (this->_Mylast - this->_Myfirst);

	mov	eax, DWORD PTR _this$[ebp]
	mov	ecx, DWORD PTR _this$[ebp]
	mov	eax, DWORD PTR [eax+8]
	sub	eax, DWORD PTR [ecx+4]
	sar	eax, 2

; 880  : 		}

	mov	esp, ebp
	pop	ebp
	ret	0
?size@?$vector@PAVWall2D@@V?$allocator@PAVWall2D@@@std@@@std@@QBEIXZ ENDP ; std::vector<Wall2D *,std::allocator<Wall2D *> >::size
_TEXT	ENDS
PUBLIC	??_C@_1JO@KOMOHDBM@?$AAs?$AAt?$AAd?$AA?3?$AA?3?$AAv?$AAe?$AAc?$AAt?$AAo?$AAr?$AA?$DM?$AAc?$AAl?$AAa?$AAs?$AAs?$AA?5?$AAW?$AAa?$AAl?$AAl?$AA2?$AAD?$AA?5?$AA?$CK?$AA?0?$AAc?$AAl?$AAa?$AAs?$AAs@ ; `string'
;	COMDAT ??_C@_1JO@KOMOHDBM@?$AAs?$AAt?$AAd?$AA?3?$AA?3?$AAv?$AAe?$AAc?$AAt?$AAo?$AAr?$AA?$DM?$AAc?$AAl?$AAa?$AAs?$AAs?$AA?5?$AAW?$AAa?$AAl?$AAl?$AA2?$AAD?$AA?5?$AA?$CK?$AA?0?$AAc?$AAl?$AAa?$AAs?$AAs@
CONST	SEGMENT
??_C@_1JO@KOMOHDBM@?$AAs?$AAt?$AAd?$AA?3?$AA?3?$AAv?$AAe?$AAc?$AAt?$AAo?$AAr?$AA?$DM?$AAc?$AAl?$AAa?$AAs?$AAs?$AA?5?$AAW?$AAa?$AAl?$AAl?$AA2?$AAD?$AA?5?$AA?$CK?$AA?0?$AAc?$AAl?$AAa?$AAs?$AAs@ DB 's'
	DB	00H, 't', 00H, 'd', 00H, ':', 00H, ':', 00H, 'v', 00H, 'e', 00H
	DB	'c', 00H, 't', 00H, 'o', 00H, 'r', 00H, '<', 00H, 'c', 00H, 'l'
	DB	00H, 'a', 00H, 's', 00H, 's', 00H, ' ', 00H, 'W', 00H, 'a', 00H
	DB	'l', 00H, 'l', 00H, '2', 00H, 'D', 00H, ' ', 00H, '*', 00H, ','
	DB	00H, 'c', 00H, 'l', 00H, 'a', 00H, 's', 00H, 's', 00H, ' ', 00H
	DB	's', 00H, 't', 00H, 'd', 00H, ':', 00H, ':', 00H, 'a', 00H, 'l'
	DB	00H, 'l', 00H, 'o', 00H, 'c', 00H, 'a', 00H, 't', 00H, 'o', 00H
	DB	'r', 00H, '<', 00H, 'c', 00H, 'l', 00H, 'a', 00H, 's', 00H, 's'
	DB	00H, ' ', 00H, 'W', 00H, 'a', 00H, 'l', 00H, 'l', 00H, '2', 00H
	DB	'D', 00H, ' ', 00H, '*', 00H, '>', 00H, ' ', 00H, '>', 00H, ':'
	DB	00H, ':', 00H, 'o', 00H, 'p', 00H, 'e', 00H, 'r', 00H, 'a', 00H
	DB	't', 00H, 'o', 00H, 'r', 00H, ' ', 00H, '[', 00H, ']', 00H, 00H
	DB	00H						; `string'
; Function compile flags: /Odtp /RTCsu
CONST	ENDS
;	COMDAT ??A?$vector@PAVWall2D@@V?$allocator@PAVWall2D@@@std@@@std@@QBEABQAVWall2D@@I@Z
_TEXT	SEGMENT
_this$ = -4						; size = 4
__Pos$ = 8						; size = 4
??A?$vector@PAVWall2D@@V?$allocator@PAVWall2D@@@std@@@std@@QBEABQAVWall2D@@I@Z PROC ; std::vector<Wall2D *,std::allocator<Wall2D *> >::operator[], COMDAT
; _this$ = ecx

; 912  : 		{	// subscript nonmutable sequence

	push	ebp
	mov	ebp, esp
	push	ecx
	mov	DWORD PTR [ebp-4], -858993460		; ccccccccH
	mov	DWORD PTR _this$[ebp], ecx

; 913  :  #if _ITERATOR_DEBUG_LEVEL == 2
; 914  : 		if (size() <= _Pos)

	mov	ecx, DWORD PTR _this$[ebp]
	call	?size@?$vector@PAVWall2D@@V?$allocator@PAVWall2D@@@std@@@std@@QBEIXZ ; std::vector<Wall2D *,std::allocator<Wall2D *> >::size
	cmp	eax, DWORD PTR __Pos$[ebp]
	ja	SHORT $LN1@operator@7

; 915  : 			{	// report error
; 916  : 			_DEBUG_ERROR("vector subscript out of range");

	push	916					; 00000394H
	push	OFFSET ??_C@_1IM@MKOOKKBK@?$AAc?$AA?3?$AA?2?$AAP?$AAr?$AAo?$AAg?$AAr?$AAa?$AAm?$AA?5?$AAF?$AAi?$AAl?$AAe?$AAs?$AA?5?$AA?$CI?$AAx?$AA8?$AA6?$AA?$CJ?$AA?2?$AAM?$AAi?$AAc?$AAr?$AAo?$AAs?$AAo?$AAf?$AAt@
	push	OFFSET ??_C@_1DM@LHGCHCBA@?$AAv?$AAe?$AAc?$AAt?$AAo?$AAr?$AA?5?$AAs?$AAu?$AAb?$AAs?$AAc?$AAr?$AAi?$AAp?$AAt?$AA?5?$AAo?$AAu?$AAt?$AA?5?$AAo?$AAf?$AA?5?$AAr?$AAa?$AAn?$AAg?$AAe?$AA?$AA@
	call	?_Debug_message@std@@YAXPB_W0I@Z	; std::_Debug_message
	add	esp, 12					; 0000000cH

; 917  : 			_SCL_SECURE_OUT_OF_RANGE;

	mov	eax, OFFSET ??_C@_0CE@OFMIGAMM@Standard?5C?$CL?$CL?5Libraries?5Out?5of?5Ra@
	test	eax, eax
	je	SHORT $LN4@operator@7
	xor	ecx, ecx
	jne	SHORT $LN5@operator@7
$LN4@operator@7:
	push	OFFSET ??_C@_1FG@IBPIFFN@?$AA?$CC?$AAS?$AAt?$AAa?$AAn?$AAd?$AAa?$AAr?$AAd?$AA?5?$AAC?$AA?$CL?$AA?$CL?$AA?5?$AAL?$AAi?$AAb?$AAr?$AAa?$AAr?$AAi?$AAe?$AAs?$AA?5?$AAO?$AAu?$AAt?$AA?5?$AAo?$AAf?$AA?5?$AAR@
	push	0
	push	917					; 00000395H
	push	OFFSET ??_C@_1IM@MKOOKKBK@?$AAc?$AA?3?$AA?2?$AAP?$AAr?$AAo?$AAg?$AAr?$AAa?$AAm?$AA?5?$AAF?$AAi?$AAl?$AAe?$AAs?$AA?5?$AA?$CI?$AAx?$AA8?$AA6?$AA?$CJ?$AA?2?$AAM?$AAi?$AAc?$AAr?$AAo?$AAs?$AAo?$AAf?$AAt@
	push	2
	call	__CrtDbgReportW
	add	esp, 20					; 00000014H
	cmp	eax, 1
	jne	SHORT $LN5@operator@7
	int	3
$LN5@operator@7:
	push	0
	push	917					; 00000395H
	push	OFFSET ??_C@_1IM@MKOOKKBK@?$AAc?$AA?3?$AA?2?$AAP?$AAr?$AAo?$AAg?$AAr?$AAa?$AAm?$AA?5?$AAF?$AAi?$AAl?$AAe?$AAs?$AA?5?$AA?$CI?$AAx?$AA8?$AA6?$AA?$CJ?$AA?2?$AAM?$AAi?$AAc?$AAr?$AAo?$AAs?$AAo?$AAf?$AAt@
	push	OFFSET ??_C@_1JO@KOMOHDBM@?$AAs?$AAt?$AAd?$AA?3?$AA?3?$AAv?$AAe?$AAc?$AAt?$AAo?$AAr?$AA?$DM?$AAc?$AAl?$AAa?$AAs?$AAs?$AA?5?$AAW?$AAa?$AAl?$AAl?$AA2?$AAD?$AA?5?$AA?$CK?$AA?0?$AAc?$AAl?$AAa?$AAs?$AAs@
	push	OFFSET ??_C@_1BO@MEPPHOO@?$AA?$CC?$AAo?$AAu?$AAt?$AA?5?$AAo?$AAf?$AA?5?$AAr?$AAa?$AAn?$AAg?$AAe?$AA?$CC?$AA?$AA@
	call	__invalid_parameter
	add	esp, 20					; 00000014H
$LN1@operator@7:

; 918  : 			}
; 919  : 
; 920  :  #elif _ITERATOR_DEBUG_LEVEL == 1
; 921  : 		_SCL_SECURE_VALIDATE_RANGE(_Pos < size());
; 922  :  #endif /* _ITERATOR_DEBUG_LEVEL */
; 923  : 
; 924  : 		return (*(this->_Myfirst + _Pos));

	mov	eax, DWORD PTR _this$[ebp]
	mov	ecx, DWORD PTR [eax+4]
	mov	edx, DWORD PTR __Pos$[ebp]
	lea	eax, DWORD PTR [ecx+edx*4]

; 925  : 		}

	add	esp, 4
	cmp	ebp, esp
	call	__RTC_CheckEsp
	mov	esp, ebp
	pop	ebp
	ret	4
??A?$vector@PAVWall2D@@V?$allocator@PAVWall2D@@@std@@@std@@QBEABQAVWall2D@@I@Z ENDP ; std::vector<Wall2D *,std::allocator<Wall2D *> >::operator[]
_TEXT	ENDS
PUBLIC	?_Myval@?$_List_val@PAVAbstRaven_Bot@@V?$allocator@PAVAbstRaven_Bot@@@std@@@std@@SAAAPAVAbstRaven_Bot@@PAU_Node@?$_List_nod@PAVAbstRaven_Bot@@V?$allocator@PAVAbstRaven_Bot@@@std@@@2@@Z ; std::_List_val<AbstRaven_Bot *,std::allocator<AbstRaven_Bot *> >::_Myval
PUBLIC	??_C@_1BAC@LPCGLNFD@?$AAs?$AAt?$AAd?$AA?3?$AA?3?$AA_?$AAL?$AAi?$AAs?$AAt?$AA_?$AAc?$AAo?$AAn?$AAs?$AAt?$AA_?$AAi?$AAt?$AAe?$AAr?$AAa?$AAt?$AAo?$AAr?$AA?$DM?$AAc?$AAl?$AAa?$AAs?$AAs?$AA?5@ ; `string'
PUBLIC	??_C@_1EC@HILJLMMC@?$AAl?$AAi?$AAs?$AAt?$AA?5?$AAi?$AAt?$AAe?$AAr?$AAa?$AAt?$AAo?$AAr?$AA?5?$AAn?$AAo?$AAt?$AA?5?$AAd?$AAe?$AAr?$AAe?$AAf?$AAe?$AAr?$AAe?$AAn?$AAc?$AAa?$AAb?$AAl?$AAe@ ; `string'
PUBLIC	??_C@_1II@KCMIDAEO@?$AAc?$AA?3?$AA?2?$AAP?$AAr?$AAo?$AAg?$AAr?$AAa?$AAm?$AA?5?$AAF?$AAi?$AAl?$AAe?$AAs?$AA?5?$AA?$CI?$AAx?$AA8?$AA6?$AA?$CJ?$AA?2?$AAM?$AAi?$AAc?$AAr?$AAo?$AAs?$AAo?$AAf?$AAt@ ; `string'
PUBLIC	?_Getcont@_Iterator_base12@std@@QBEPBU_Container_base12@2@XZ ; std::_Iterator_base12::_Getcont
;	COMDAT ??_C@_1BAC@LPCGLNFD@?$AAs?$AAt?$AAd?$AA?3?$AA?3?$AA_?$AAL?$AAi?$AAs?$AAt?$AA_?$AAc?$AAo?$AAn?$AAs?$AAt?$AA_?$AAi?$AAt?$AAe?$AAr?$AAa?$AAt?$AAo?$AAr?$AA?$DM?$AAc?$AAl?$AAa?$AAs?$AAs?$AA?5@
; File c:\program files (x86)\microsoft visual studio 10.0\vc\include\list
CONST	SEGMENT
??_C@_1BAC@LPCGLNFD@?$AAs?$AAt?$AAd?$AA?3?$AA?3?$AA_?$AAL?$AAi?$AAs?$AAt?$AA_?$AAc?$AAo?$AAn?$AAs?$AAt?$AA_?$AAi?$AAt?$AAe?$AAr?$AAa?$AAt?$AAo?$AAr?$AA?$DM?$AAc?$AAl?$AAa?$AAs?$AAs?$AA?5@ DB 's'
	DB	00H, 't', 00H, 'd', 00H, ':', 00H, ':', 00H, '_', 00H, 'L', 00H
	DB	'i', 00H, 's', 00H, 't', 00H, '_', 00H, 'c', 00H, 'o', 00H, 'n'
	DB	00H, 's', 00H, 't', 00H, '_', 00H, 'i', 00H, 't', 00H, 'e', 00H
	DB	'r', 00H, 'a', 00H, 't', 00H, 'o', 00H, 'r', 00H, '<', 00H, 'c'
	DB	00H, 'l', 00H, 'a', 00H, 's', 00H, 's', 00H, ' ', 00H, 's', 00H
	DB	't', 00H, 'd', 00H, ':', 00H, ':', 00H, '_', 00H, 'L', 00H, 'i'
	DB	00H, 's', 00H, 't', 00H, '_', 00H, 'v', 00H, 'a', 00H, 'l', 00H
	DB	'<', 00H, 'c', 00H, 'l', 00H, 'a', 00H, 's', 00H, 's', 00H, ' '
	DB	00H, 'A', 00H, 'b', 00H, 's', 00H, 't', 00H, 'R', 00H, 'a', 00H
	DB	'v', 00H, 'e', 00H, 'n', 00H, '_', 00H, 'B', 00H, 'o', 00H, 't'
	DB	00H, ' ', 00H, '*', 00H, ',', 00H, 'c', 00H, 'l', 00H, 'a', 00H
	DB	's', 00H, 's', 00H, ' ', 00H, 's', 00H, 't', 00H, 'd', 00H, ':'
	DB	00H, ':', 00H, 'a', 00H, 'l', 00H, 'l', 00H, 'o', 00H, 'c', 00H
	DB	'a', 00H, 't', 00H, 'o', 00H, 'r', 00H, '<', 00H, 'c', 00H, 'l'
	DB	00H, 'a', 00H, 's', 00H, 's', 00H, ' ', 00H, 'A', 00H, 'b', 00H
	DB	's', 00H, 't', 00H, 'R', 00H, 'a', 00H, 'v', 00H, 'e', 00H, 'n'
	DB	00H, '_', 00H, 'B', 00H, 'o', 00H, 't', 00H, ' ', 00H, '*', 00H
	DB	'>', 00H, ' ', 00H, '>', 00H, ' ', 00H, '>', 00H, ':', 00H, ':'
	DB	00H, 'o', 00H, 'p', 00H, 'e', 00H, 'r', 00H, 'a', 00H, 't', 00H
	DB	'o', 00H, 'r', 00H, ' ', 00H, '*', 00H, 00H, 00H ; `string'
CONST	ENDS
;	COMDAT ??_C@_1EC@HILJLMMC@?$AAl?$AAi?$AAs?$AAt?$AA?5?$AAi?$AAt?$AAe?$AAr?$AAa?$AAt?$AAo?$AAr?$AA?5?$AAn?$AAo?$AAt?$AA?5?$AAd?$AAe?$AAr?$AAe?$AAf?$AAe?$AAr?$AAe?$AAn?$AAc?$AAa?$AAb?$AAl?$AAe@
CONST	SEGMENT
??_C@_1EC@HILJLMMC@?$AAl?$AAi?$AAs?$AAt?$AA?5?$AAi?$AAt?$AAe?$AAr?$AAa?$AAt?$AAo?$AAr?$AA?5?$AAn?$AAo?$AAt?$AA?5?$AAd?$AAe?$AAr?$AAe?$AAf?$AAe?$AAr?$AAe?$AAn?$AAc?$AAa?$AAb?$AAl?$AAe@ DB 'l'
	DB	00H, 'i', 00H, 's', 00H, 't', 00H, ' ', 00H, 'i', 00H, 't', 00H
	DB	'e', 00H, 'r', 00H, 'a', 00H, 't', 00H, 'o', 00H, 'r', 00H, ' '
	DB	00H, 'n', 00H, 'o', 00H, 't', 00H, ' ', 00H, 'd', 00H, 'e', 00H
	DB	'r', 00H, 'e', 00H, 'f', 00H, 'e', 00H, 'r', 00H, 'e', 00H, 'n'
	DB	00H, 'c', 00H, 'a', 00H, 'b', 00H, 'l', 00H, 'e', 00H, 00H, 00H ; `string'
CONST	ENDS
;	COMDAT ??_C@_1II@KCMIDAEO@?$AAc?$AA?3?$AA?2?$AAP?$AAr?$AAo?$AAg?$AAr?$AAa?$AAm?$AA?5?$AAF?$AAi?$AAl?$AAe?$AAs?$AA?5?$AA?$CI?$AAx?$AA8?$AA6?$AA?$CJ?$AA?2?$AAM?$AAi?$AAc?$AAr?$AAo?$AAs?$AAo?$AAf?$AAt@
CONST	SEGMENT
??_C@_1II@KCMIDAEO@?$AAc?$AA?3?$AA?2?$AAP?$AAr?$AAo?$AAg?$AAr?$AAa?$AAm?$AA?5?$AAF?$AAi?$AAl?$AAe?$AAs?$AA?5?$AA?$CI?$AAx?$AA8?$AA6?$AA?$CJ?$AA?2?$AAM?$AAi?$AAc?$AAr?$AAo?$AAs?$AAo?$AAf?$AAt@ DB 'c'
	DB	00H, ':', 00H, '\', 00H, 'P', 00H, 'r', 00H, 'o', 00H, 'g', 00H
	DB	'r', 00H, 'a', 00H, 'm', 00H, ' ', 00H, 'F', 00H, 'i', 00H, 'l'
	DB	00H, 'e', 00H, 's', 00H, ' ', 00H, '(', 00H, 'x', 00H, '8', 00H
	DB	'6', 00H, ')', 00H, '\', 00H, 'M', 00H, 'i', 00H, 'c', 00H, 'r'
	DB	00H, 'o', 00H, 's', 00H, 'o', 00H, 'f', 00H, 't', 00H, ' ', 00H
	DB	'V', 00H, 'i', 00H, 's', 00H, 'u', 00H, 'a', 00H, 'l', 00H, ' '
	DB	00H, 'S', 00H, 't', 00H, 'u', 00H, 'd', 00H, 'i', 00H, 'o', 00H
	DB	' ', 00H, '1', 00H, '0', 00H, '.', 00H, '0', 00H, '\', 00H, 'V'
	DB	00H, 'C', 00H, '\', 00H, 'i', 00H, 'n', 00H, 'c', 00H, 'l', 00H
	DB	'u', 00H, 'd', 00H, 'e', 00H, '\', 00H, 'l', 00H, 'i', 00H, 's'
	DB	00H, 't', 00H, 00H, 00H			; `string'
; Function compile flags: /Odtp /RTCsu
CONST	ENDS
;	COMDAT ??D?$_List_const_iterator@V?$_List_val@PAVAbstRaven_Bot@@V?$allocator@PAVAbstRaven_Bot@@@std@@@std@@@std@@QBEABQAVAbstRaven_Bot@@XZ
_TEXT	SEGMENT
_this$ = -4						; size = 4
??D?$_List_const_iterator@V?$_List_val@PAVAbstRaven_Bot@@V?$allocator@PAVAbstRaven_Bot@@@std@@@std@@@std@@QBEABQAVAbstRaven_Bot@@XZ PROC ; std::_List_const_iterator<std::_List_val<AbstRaven_Bot *,std::allocator<AbstRaven_Bot *> > >::operator*, COMDAT
; _this$ = ecx

; 201  : 		{	// return designated value

	push	ebp
	mov	ebp, esp
	push	ecx
	mov	DWORD PTR [ebp-4], -858993460		; ccccccccH
	mov	DWORD PTR _this$[ebp], ecx

; 202  :  #if _ITERATOR_DEBUG_LEVEL == 2
; 203  : 		if (this->_Getcont() == 0
; 204  : 			|| this->_Ptr == 0
; 205  : 			|| this->_Ptr == ((_Mylist *)this->_Getcont())->_Myhead)

	mov	ecx, DWORD PTR _this$[ebp]
	call	?_Getcont@_Iterator_base12@std@@QBEPBU_Container_base12@2@XZ ; std::_Iterator_base12::_Getcont
	test	eax, eax
	je	SHORT $LN1@operator@8
	mov	eax, DWORD PTR _this$[ebp]
	cmp	DWORD PTR [eax+8], 0
	je	SHORT $LN1@operator@8
	mov	ecx, DWORD PTR _this$[ebp]
	call	?_Getcont@_Iterator_base12@std@@QBEPBU_Container_base12@2@XZ ; std::_Iterator_base12::_Getcont
	mov	ecx, DWORD PTR _this$[ebp]
	mov	edx, DWORD PTR [ecx+8]
	cmp	edx, DWORD PTR [eax+4]
	jne	SHORT $LN2@operator@8
$LN1@operator@8:

; 206  : 			{	// report error
; 207  : 			_DEBUG_ERROR("list iterator not dereferencable");

	push	207					; 000000cfH
	push	OFFSET ??_C@_1II@KCMIDAEO@?$AAc?$AA?3?$AA?2?$AAP?$AAr?$AAo?$AAg?$AAr?$AAa?$AAm?$AA?5?$AAF?$AAi?$AAl?$AAe?$AAs?$AA?5?$AA?$CI?$AAx?$AA8?$AA6?$AA?$CJ?$AA?2?$AAM?$AAi?$AAc?$AAr?$AAo?$AAs?$AAo?$AAf?$AAt@
	push	OFFSET ??_C@_1EC@HILJLMMC@?$AAl?$AAi?$AAs?$AAt?$AA?5?$AAi?$AAt?$AAe?$AAr?$AAa?$AAt?$AAo?$AAr?$AA?5?$AAn?$AAo?$AAt?$AA?5?$AAd?$AAe?$AAr?$AAe?$AAf?$AAe?$AAr?$AAe?$AAn?$AAc?$AAa?$AAb?$AAl?$AAe@
	call	?_Debug_message@std@@YAXPB_W0I@Z	; std::_Debug_message
	add	esp, 12					; 0000000cH

; 208  : 			_SCL_SECURE_OUT_OF_RANGE;

	mov	eax, OFFSET ??_C@_0CE@OFMIGAMM@Standard?5C?$CL?$CL?5Libraries?5Out?5of?5Ra@
	test	eax, eax
	je	SHORT $LN5@operator@8
	xor	ecx, ecx
	jne	SHORT $LN6@operator@8
$LN5@operator@8:
	push	OFFSET ??_C@_1FG@IBPIFFN@?$AA?$CC?$AAS?$AAt?$AAa?$AAn?$AAd?$AAa?$AAr?$AAd?$AA?5?$AAC?$AA?$CL?$AA?$CL?$AA?5?$AAL?$AAi?$AAb?$AAr?$AAa?$AAr?$AAi?$AAe?$AAs?$AA?5?$AAO?$AAu?$AAt?$AA?5?$AAo?$AAf?$AA?5?$AAR@
	push	0
	push	208					; 000000d0H
	push	OFFSET ??_C@_1II@KCMIDAEO@?$AAc?$AA?3?$AA?2?$AAP?$AAr?$AAo?$AAg?$AAr?$AAa?$AAm?$AA?5?$AAF?$AAi?$AAl?$AAe?$AAs?$AA?5?$AA?$CI?$AAx?$AA8?$AA6?$AA?$CJ?$AA?2?$AAM?$AAi?$AAc?$AAr?$AAo?$AAs?$AAo?$AAf?$AAt@
	push	2
	call	__CrtDbgReportW
	add	esp, 20					; 00000014H
	cmp	eax, 1
	jne	SHORT $LN6@operator@8
	int	3
$LN6@operator@8:
	push	0
	push	208					; 000000d0H
	push	OFFSET ??_C@_1II@KCMIDAEO@?$AAc?$AA?3?$AA?2?$AAP?$AAr?$AAo?$AAg?$AAr?$AAa?$AAm?$AA?5?$AAF?$AAi?$AAl?$AAe?$AAs?$AA?5?$AA?$CI?$AAx?$AA8?$AA6?$AA?$CJ?$AA?2?$AAM?$AAi?$AAc?$AAr?$AAo?$AAs?$AAo?$AAf?$AAt@
	push	OFFSET ??_C@_1BAC@LPCGLNFD@?$AAs?$AAt?$AAd?$AA?3?$AA?3?$AA_?$AAL?$AAi?$AAs?$AAt?$AA_?$AAc?$AAo?$AAn?$AAs?$AAt?$AA_?$AAi?$AAt?$AAe?$AAr?$AAa?$AAt?$AAo?$AAr?$AA?$DM?$AAc?$AAl?$AAa?$AAs?$AAs?$AA?5@
	push	OFFSET ??_C@_1BO@MEPPHOO@?$AA?$CC?$AAo?$AAu?$AAt?$AA?5?$AAo?$AAf?$AA?5?$AAr?$AAa?$AAn?$AAg?$AAe?$AA?$CC?$AA?$AA@
	call	__invalid_parameter
	add	esp, 20					; 00000014H
$LN2@operator@8:

; 209  : 			}
; 210  : 
; 211  :  #elif _ITERATOR_DEBUG_LEVEL == 1
; 212  : 		_SCL_SECURE_VALIDATE(this->_Getcont() != 0 && this->_Ptr != 0);
; 213  : 		_SCL_SECURE_VALIDATE_RANGE(this->_Ptr !=
; 214  : 			((_Mylist *)this->_Getcont())->_Myhead);
; 215  :  #endif /* _ITERATOR_DEBUG_LEVEL */
; 216  : 
; 217  : 		return (_Mylist::_Myval(this->_Ptr));

	mov	eax, DWORD PTR _this$[ebp]
	mov	ecx, DWORD PTR [eax+8]
	push	ecx
	call	?_Myval@?$_List_val@PAVAbstRaven_Bot@@V?$allocator@PAVAbstRaven_Bot@@@std@@@std@@SAAAPAVAbstRaven_Bot@@PAU_Node@?$_List_nod@PAVAbstRaven_Bot@@V?$allocator@PAVAbstRaven_Bot@@@std@@@2@@Z ; std::_List_val<AbstRaven_Bot *,std::allocator<AbstRaven_Bot *> >::_Myval
	add	esp, 4

; 218  : 		}

	add	esp, 4
	cmp	ebp, esp
	call	__RTC_CheckEsp
	mov	esp, ebp
	pop	ebp
	ret	0
??D?$_List_const_iterator@V?$_List_val@PAVAbstRaven_Bot@@V?$allocator@PAVAbstRaven_Bot@@@std@@@std@@@std@@QBEABQAVAbstRaven_Bot@@XZ ENDP ; std::_List_const_iterator<std::_List_val<AbstRaven_Bot *,std::allocator<AbstRaven_Bot *> > >::operator*
; Function compile flags: /Odtp /RTCsu
; File c:\program files (x86)\microsoft visual studio 10.0\vc\include\xutility
_TEXT	ENDS
;	COMDAT ?_Getcont@_Iterator_base12@std@@QBEPBU_Container_base12@2@XZ
_TEXT	SEGMENT
tv66 = -8						; size = 4
_this$ = -4						; size = 4
?_Getcont@_Iterator_base12@std@@QBEPBU_Container_base12@2@XZ PROC ; std::_Iterator_base12::_Getcont, COMDAT
; _this$ = ecx

; 174  : 		{	// get owning container

	push	ebp
	mov	ebp, esp
	sub	esp, 8
	mov	DWORD PTR [ebp-8], -858993460		; ccccccccH
	mov	DWORD PTR [ebp-4], -858993460		; ccccccccH
	mov	DWORD PTR _this$[ebp], ecx

; 175  : 		return (_Myproxy == 0 ? 0 : _Myproxy->_Mycont);

	mov	eax, DWORD PTR _this$[ebp]
	cmp	DWORD PTR [eax], 0
	jne	SHORT $LN3@Getcont
	mov	DWORD PTR tv66[ebp], 0
	jmp	SHORT $LN4@Getcont
$LN3@Getcont:
	mov	ecx, DWORD PTR _this$[ebp]
	mov	edx, DWORD PTR [ecx]
	mov	eax, DWORD PTR [edx]
	mov	DWORD PTR tv66[ebp], eax
$LN4@Getcont:
	mov	eax, DWORD PTR tv66[ebp]

; 176  : 		}

	mov	esp, ebp
	pop	ebp
	ret	0
?_Getcont@_Iterator_base12@std@@QBEPBU_Container_base12@2@XZ ENDP ; std::_Iterator_base12::_Getcont
_TEXT	ENDS
PUBLIC	??_C@_1BAE@JICJIFBK@?$AAs?$AAt?$AAd?$AA?3?$AA?3?$AA_?$AAL?$AAi?$AAs?$AAt?$AA_?$AAc?$AAo?$AAn?$AAs?$AAt?$AA_?$AAi?$AAt?$AAe?$AAr?$AAa?$AAt?$AAo?$AAr?$AA?$DM?$AAc?$AAl?$AAa?$AAs?$AAs?$AA?5@ ; `string'
PUBLIC	??_C@_1EA@DOGAGKDH@?$AAl?$AAi?$AAs?$AAt?$AA?5?$AAi?$AAt?$AAe?$AAr?$AAa?$AAt?$AAo?$AAr?$AA?5?$AAn?$AAo?$AAt?$AA?5?$AAi?$AAn?$AAc?$AAr?$AAe?$AAm?$AAe?$AAn?$AAt?$AAa?$AAb?$AAl?$AAe?$AA?$AA@ ; `string'
;	COMDAT ??_C@_1BAE@JICJIFBK@?$AAs?$AAt?$AAd?$AA?3?$AA?3?$AA_?$AAL?$AAi?$AAs?$AAt?$AA_?$AAc?$AAo?$AAn?$AAs?$AAt?$AA_?$AAi?$AAt?$AAe?$AAr?$AAa?$AAt?$AAo?$AAr?$AA?$DM?$AAc?$AAl?$AAa?$AAs?$AAs?$AA?5@
; File c:\program files (x86)\microsoft visual studio 10.0\vc\include\list
CONST	SEGMENT
??_C@_1BAE@JICJIFBK@?$AAs?$AAt?$AAd?$AA?3?$AA?3?$AA_?$AAL?$AAi?$AAs?$AAt?$AA_?$AAc?$AAo?$AAn?$AAs?$AAt?$AA_?$AAi?$AAt?$AAe?$AAr?$AAa?$AAt?$AAo?$AAr?$AA?$DM?$AAc?$AAl?$AAa?$AAs?$AAs?$AA?5@ DB 's'
	DB	00H, 't', 00H, 'd', 00H, ':', 00H, ':', 00H, '_', 00H, 'L', 00H
	DB	'i', 00H, 's', 00H, 't', 00H, '_', 00H, 'c', 00H, 'o', 00H, 'n'
	DB	00H, 's', 00H, 't', 00H, '_', 00H, 'i', 00H, 't', 00H, 'e', 00H
	DB	'r', 00H, 'a', 00H, 't', 00H, 'o', 00H, 'r', 00H, '<', 00H, 'c'
	DB	00H, 'l', 00H, 'a', 00H, 's', 00H, 's', 00H, ' ', 00H, 's', 00H
	DB	't', 00H, 'd', 00H, ':', 00H, ':', 00H, '_', 00H, 'L', 00H, 'i'
	DB	00H, 's', 00H, 't', 00H, '_', 00H, 'v', 00H, 'a', 00H, 'l', 00H
	DB	'<', 00H, 'c', 00H, 'l', 00H, 'a', 00H, 's', 00H, 's', 00H, ' '
	DB	00H, 'A', 00H, 'b', 00H, 's', 00H, 't', 00H, 'R', 00H, 'a', 00H
	DB	'v', 00H, 'e', 00H, 'n', 00H, '_', 00H, 'B', 00H, 'o', 00H, 't'
	DB	00H, ' ', 00H, '*', 00H, ',', 00H, 'c', 00H, 'l', 00H, 'a', 00H
	DB	's', 00H, 's', 00H, ' ', 00H, 's', 00H, 't', 00H, 'd', 00H, ':'
	DB	00H, ':', 00H, 'a', 00H, 'l', 00H, 'l', 00H, 'o', 00H, 'c', 00H
	DB	'a', 00H, 't', 00H, 'o', 00H, 'r', 00H, '<', 00H, 'c', 00H, 'l'
	DB	00H, 'a', 00H, 's', 00H, 's', 00H, ' ', 00H, 'A', 00H, 'b', 00H
	DB	's', 00H, 't', 00H, 'R', 00H, 'a', 00H, 'v', 00H, 'e', 00H, 'n'
	DB	00H, '_', 00H, 'B', 00H, 'o', 00H, 't', 00H, ' ', 00H, '*', 00H
	DB	'>', 00H, ' ', 00H, '>', 00H, ' ', 00H, '>', 00H, ':', 00H, ':'
	DB	00H, 'o', 00H, 'p', 00H, 'e', 00H, 'r', 00H, 'a', 00H, 't', 00H
	DB	'o', 00H, 'r', 00H, ' ', 00H, '+', 00H, '+', 00H, 00H, 00H ; `string'
CONST	ENDS
;	COMDAT ??_C@_1EA@DOGAGKDH@?$AAl?$AAi?$AAs?$AAt?$AA?5?$AAi?$AAt?$AAe?$AAr?$AAa?$AAt?$AAo?$AAr?$AA?5?$AAn?$AAo?$AAt?$AA?5?$AAi?$AAn?$AAc?$AAr?$AAe?$AAm?$AAe?$AAn?$AAt?$AAa?$AAb?$AAl?$AAe?$AA?$AA@
CONST	SEGMENT
??_C@_1EA@DOGAGKDH@?$AAl?$AAi?$AAs?$AAt?$AA?5?$AAi?$AAt?$AAe?$AAr?$AAa?$AAt?$AAo?$AAr?$AA?5?$AAn?$AAo?$AAt?$AA?5?$AAi?$AAn?$AAc?$AAr?$AAe?$AAm?$AAe?$AAn?$AAt?$AAa?$AAb?$AAl?$AAe?$AA?$AA@ DB 'l'
	DB	00H, 'i', 00H, 's', 00H, 't', 00H, ' ', 00H, 'i', 00H, 't', 00H
	DB	'e', 00H, 'r', 00H, 'a', 00H, 't', 00H, 'o', 00H, 'r', 00H, ' '
	DB	00H, 'n', 00H, 'o', 00H, 't', 00H, ' ', 00H, 'i', 00H, 'n', 00H
	DB	'c', 00H, 'r', 00H, 'e', 00H, 'm', 00H, 'e', 00H, 'n', 00H, 't'
	DB	00H, 'a', 00H, 'b', 00H, 'l', 00H, 'e', 00H, 00H, 00H ; `string'
; Function compile flags: /Odtp /RTCsu
CONST	ENDS
;	COMDAT ??E?$_List_const_iterator@V?$_List_val@PAVAbstRaven_Bot@@V?$allocator@PAVAbstRaven_Bot@@@std@@@std@@@std@@QAEAAV01@XZ
_TEXT	SEGMENT
_this$ = -4						; size = 4
??E?$_List_const_iterator@V?$_List_val@PAVAbstRaven_Bot@@V?$allocator@PAVAbstRaven_Bot@@@std@@@std@@@std@@QAEAAV01@XZ PROC ; std::_List_const_iterator<std::_List_val<AbstRaven_Bot *,std::allocator<AbstRaven_Bot *> > >::operator++, COMDAT
; _this$ = ecx

; 221  : 		{	// preincrement

	push	ebp
	mov	ebp, esp
	push	ecx
	mov	DWORD PTR [ebp-4], -858993460		; ccccccccH
	mov	DWORD PTR _this$[ebp], ecx

; 222  :  #if _ITERATOR_DEBUG_LEVEL == 2
; 223  : 		if (this->_Getcont() == 0
; 224  : 			|| this->_Ptr == 0
; 225  : 			|| this->_Ptr == ((_Mylist *)this->_Getcont())->_Myhead)

	mov	ecx, DWORD PTR _this$[ebp]
	call	?_Getcont@_Iterator_base12@std@@QBEPBU_Container_base12@2@XZ ; std::_Iterator_base12::_Getcont
	test	eax, eax
	je	SHORT $LN1@operator@9
	mov	eax, DWORD PTR _this$[ebp]
	cmp	DWORD PTR [eax+8], 0
	je	SHORT $LN1@operator@9
	mov	ecx, DWORD PTR _this$[ebp]
	call	?_Getcont@_Iterator_base12@std@@QBEPBU_Container_base12@2@XZ ; std::_Iterator_base12::_Getcont
	mov	ecx, DWORD PTR _this$[ebp]
	mov	edx, DWORD PTR [ecx+8]
	cmp	edx, DWORD PTR [eax+4]
	jne	SHORT $LN2@operator@9
$LN1@operator@9:

; 226  : 			{	// report error
; 227  : 			_DEBUG_ERROR("list iterator not incrementable");

	push	227					; 000000e3H
	push	OFFSET ??_C@_1II@KCMIDAEO@?$AAc?$AA?3?$AA?2?$AAP?$AAr?$AAo?$AAg?$AAr?$AAa?$AAm?$AA?5?$AAF?$AAi?$AAl?$AAe?$AAs?$AA?5?$AA?$CI?$AAx?$AA8?$AA6?$AA?$CJ?$AA?2?$AAM?$AAi?$AAc?$AAr?$AAo?$AAs?$AAo?$AAf?$AAt@
	push	OFFSET ??_C@_1EA@DOGAGKDH@?$AAl?$AAi?$AAs?$AAt?$AA?5?$AAi?$AAt?$AAe?$AAr?$AAa?$AAt?$AAo?$AAr?$AA?5?$AAn?$AAo?$AAt?$AA?5?$AAi?$AAn?$AAc?$AAr?$AAe?$AAm?$AAe?$AAn?$AAt?$AAa?$AAb?$AAl?$AAe?$AA?$AA@
	call	?_Debug_message@std@@YAXPB_W0I@Z	; std::_Debug_message
	add	esp, 12					; 0000000cH

; 228  : 			_SCL_SECURE_OUT_OF_RANGE;

	mov	eax, OFFSET ??_C@_0CE@OFMIGAMM@Standard?5C?$CL?$CL?5Libraries?5Out?5of?5Ra@
	test	eax, eax
	je	SHORT $LN5@operator@9
	xor	ecx, ecx
	jne	SHORT $LN6@operator@9
$LN5@operator@9:
	push	OFFSET ??_C@_1FG@IBPIFFN@?$AA?$CC?$AAS?$AAt?$AAa?$AAn?$AAd?$AAa?$AAr?$AAd?$AA?5?$AAC?$AA?$CL?$AA?$CL?$AA?5?$AAL?$AAi?$AAb?$AAr?$AAa?$AAr?$AAi?$AAe?$AAs?$AA?5?$AAO?$AAu?$AAt?$AA?5?$AAo?$AAf?$AA?5?$AAR@
	push	0
	push	228					; 000000e4H
	push	OFFSET ??_C@_1II@KCMIDAEO@?$AAc?$AA?3?$AA?2?$AAP?$AAr?$AAo?$AAg?$AAr?$AAa?$AAm?$AA?5?$AAF?$AAi?$AAl?$AAe?$AAs?$AA?5?$AA?$CI?$AAx?$AA8?$AA6?$AA?$CJ?$AA?2?$AAM?$AAi?$AAc?$AAr?$AAo?$AAs?$AAo?$AAf?$AAt@
	push	2
	call	__CrtDbgReportW
	add	esp, 20					; 00000014H
	cmp	eax, 1
	jne	SHORT $LN6@operator@9
	int	3
$LN6@operator@9:
	push	0
	push	228					; 000000e4H
	push	OFFSET ??_C@_1II@KCMIDAEO@?$AAc?$AA?3?$AA?2?$AAP?$AAr?$AAo?$AAg?$AAr?$AAa?$AAm?$AA?5?$AAF?$AAi?$AAl?$AAe?$AAs?$AA?5?$AA?$CI?$AAx?$AA8?$AA6?$AA?$CJ?$AA?2?$AAM?$AAi?$AAc?$AAr?$AAo?$AAs?$AAo?$AAf?$AAt@
	push	OFFSET ??_C@_1BAE@JICJIFBK@?$AAs?$AAt?$AAd?$AA?3?$AA?3?$AA_?$AAL?$AAi?$AAs?$AAt?$AA_?$AAc?$AAo?$AAn?$AAs?$AAt?$AA_?$AAi?$AAt?$AAe?$AAr?$AAa?$AAt?$AAo?$AAr?$AA?$DM?$AAc?$AAl?$AAa?$AAs?$AAs?$AA?5@
	push	OFFSET ??_C@_1BO@MEPPHOO@?$AA?$CC?$AAo?$AAu?$AAt?$AA?5?$AAo?$AAf?$AA?5?$AAr?$AAa?$AAn?$AAg?$AAe?$AA?$CC?$AA?$AA@
	call	__invalid_parameter
	add	esp, 20					; 00000014H
$LN2@operator@9:

; 229  : 			}
; 230  : 
; 231  :  #elif _ITERATOR_DEBUG_LEVEL == 1
; 232  : 		_SCL_SECURE_VALIDATE(this->_Getcont() != 0 && this->_Ptr != 0);
; 233  : 		_SCL_SECURE_VALIDATE_RANGE(this->_Ptr !=
; 234  : 			((_Mylist *)this->_Getcont())->_Myhead);
; 235  :  #endif /* _ITERATOR_DEBUG_LEVEL */
; 236  : 
; 237  : 		this->_Ptr = _Mylist::_Nextnode(this->_Ptr);

	mov	eax, DWORD PTR _this$[ebp]
	mov	ecx, DWORD PTR [eax+8]
	push	ecx
	call	?_Nextnode@?$_List_val@PAVAbstRaven_Bot@@V?$allocator@PAVAbstRaven_Bot@@@std@@@std@@SAAAPAU_Node@?$_List_nod@PAVAbstRaven_Bot@@V?$allocator@PAVAbstRaven_Bot@@@std@@@2@PAU342@@Z ; std::_List_val<AbstRaven_Bot *,std::allocator<AbstRaven_Bot *> >::_Nextnode
	add	esp, 4
	mov	edx, DWORD PTR _this$[ebp]
	mov	eax, DWORD PTR [eax]
	mov	DWORD PTR [edx+8], eax

; 238  : 		return (*this);

	mov	eax, DWORD PTR _this$[ebp]

; 239  : 		}

	add	esp, 4
	cmp	ebp, esp
	call	__RTC_CheckEsp
	mov	esp, ebp
	pop	ebp
	ret	0
??E?$_List_const_iterator@V?$_List_val@PAVAbstRaven_Bot@@V?$allocator@PAVAbstRaven_Bot@@@std@@@std@@@std@@QAEAAV01@XZ ENDP ; std::_List_const_iterator<std::_List_val<AbstRaven_Bot *,std::allocator<AbstRaven_Bot *> > >::operator++
_TEXT	ENDS
PUBLIC	??8?$_List_const_iterator@V?$_List_val@PAVAbstRaven_Bot@@V?$allocator@PAVAbstRaven_Bot@@@std@@@std@@@std@@QBE_NABV01@@Z ; std::_List_const_iterator<std::_List_val<AbstRaven_Bot *,std::allocator<AbstRaven_Bot *> > >::operator==
; Function compile flags: /Odtp /RTCsu
;	COMDAT ??9?$_List_const_iterator@V?$_List_val@PAVAbstRaven_Bot@@V?$allocator@PAVAbstRaven_Bot@@@std@@@std@@@std@@QBE_NABV01@@Z
_TEXT	SEGMENT
_this$ = -4						; size = 4
__Right$ = 8						; size = 4
??9?$_List_const_iterator@V?$_List_val@PAVAbstRaven_Bot@@V?$allocator@PAVAbstRaven_Bot@@@std@@@std@@@std@@QBE_NABV01@@Z PROC ; std::_List_const_iterator<std::_List_val<AbstRaven_Bot *,std::allocator<AbstRaven_Bot *> > >::operator!=, COMDAT
; _this$ = ecx

; 299  : 		{	// test for iterator inequality

	push	ebp
	mov	ebp, esp
	push	ecx
	mov	DWORD PTR [ebp-4], -858993460		; ccccccccH
	mov	DWORD PTR _this$[ebp], ecx

; 300  : 		return (!(*this == _Right));

	mov	eax, DWORD PTR __Right$[ebp]
	push	eax
	mov	ecx, DWORD PTR _this$[ebp]
	call	??8?$_List_const_iterator@V?$_List_val@PAVAbstRaven_Bot@@V?$allocator@PAVAbstRaven_Bot@@@std@@@std@@@std@@QBE_NABV01@@Z ; std::_List_const_iterator<std::_List_val<AbstRaven_Bot *,std::allocator<AbstRaven_Bot *> > >::operator==
	movzx	eax, al
	neg	eax
	sbb	eax, eax
	add	eax, 1

; 301  : 		}

	add	esp, 4
	cmp	ebp, esp
	call	__RTC_CheckEsp
	mov	esp, ebp
	pop	ebp
	ret	4
??9?$_List_const_iterator@V?$_List_val@PAVAbstRaven_Bot@@V?$allocator@PAVAbstRaven_Bot@@@std@@@std@@@std@@QBE_NABV01@@Z ENDP ; std::_List_const_iterator<std::_List_val<AbstRaven_Bot *,std::allocator<AbstRaven_Bot *> > >::operator!=
_TEXT	ENDS
PUBLIC	??1?$_Vector_const_iterator@V?$_Vector_val@UVector2D@@V?$allocator@UVector2D@@@std@@@std@@@std@@QAE@XZ ; std::_Vector_const_iterator<std::_Vector_val<Vector2D,std::allocator<Vector2D> > >::~_Vector_const_iterator<std::_Vector_val<Vector2D,std::allocator<Vector2D> > >
PUBLIC	??$_Uninitialized_default_fill_n@PAUVector2D@@IU1@V?$allocator@UVector2D@@@std@@@std@@YAXPAUVector2D@@IPBU1@AAV?$allocator@UVector2D@@@0@@Z ; std::_Uninitialized_default_fill_n<Vector2D *,unsigned int,Vector2D,std::allocator<Vector2D> >
PUBLIC	?_Reserve@?$vector@UVector2D@@V?$allocator@UVector2D@@@std@@@std@@IAEXI@Z ; std::vector<Vector2D,std::allocator<Vector2D> >::_Reserve
PUBLIC	??1?$_Vector_iterator@V?$_Vector_val@UVector2D@@V?$allocator@UVector2D@@@std@@@std@@@std@@QAE@XZ ; std::_Vector_iterator<std::_Vector_val<Vector2D,std::allocator<Vector2D> > >::~_Vector_iterator<std::_Vector_val<Vector2D,std::allocator<Vector2D> > >
PUBLIC	?erase@?$vector@UVector2D@@V?$allocator@UVector2D@@@std@@@std@@QAE?AV?$_Vector_iterator@V?$_Vector_val@UVector2D@@V?$allocator@UVector2D@@@std@@@std@@@2@V?$_Vector_const_iterator@V?$_Vector_val@UVector2D@@V?$allocator@UVector2D@@@std@@@std@@@2@0@Z ; std::vector<Vector2D,std::allocator<Vector2D> >::erase
