; Listing generated by Microsoft (R) Optimizing Compiler Version 16.00.40219.01 

	TITLE	C:\Users\Teaja\Documents\Artificial-Fun\LabRavenProjectTest\Raven\AbstSteeringBehaviors.cpp
	.686P
	.XMM
	include listing.inc
	.model	flat

INCLUDELIB LIBCMTD
INCLUDELIB OLDNAMES

PUBLIC	?has_denorm@_Num_base@std@@2W4float_denorm_style@2@B ; std::_Num_base::has_denorm
PUBLIC	?has_denorm_loss@_Num_base@std@@2_NB		; std::_Num_base::has_denorm_loss
PUBLIC	?has_infinity@_Num_base@std@@2_NB		; std::_Num_base::has_infinity
PUBLIC	?has_quiet_NaN@_Num_base@std@@2_NB		; std::_Num_base::has_quiet_NaN
PUBLIC	?has_signaling_NaN@_Num_base@std@@2_NB		; std::_Num_base::has_signaling_NaN
PUBLIC	?is_bounded@_Num_base@std@@2_NB			; std::_Num_base::is_bounded
PUBLIC	?is_exact@_Num_base@std@@2_NB			; std::_Num_base::is_exact
PUBLIC	?is_iec559@_Num_base@std@@2_NB			; std::_Num_base::is_iec559
PUBLIC	?is_integer@_Num_base@std@@2_NB			; std::_Num_base::is_integer
PUBLIC	?is_modulo@_Num_base@std@@2_NB			; std::_Num_base::is_modulo
PUBLIC	?is_signed@_Num_base@std@@2_NB			; std::_Num_base::is_signed
PUBLIC	?is_specialized@_Num_base@std@@2_NB		; std::_Num_base::is_specialized
PUBLIC	?tinyness_before@_Num_base@std@@2_NB		; std::_Num_base::tinyness_before
PUBLIC	?traps@_Num_base@std@@2_NB			; std::_Num_base::traps
PUBLIC	?round_style@_Num_base@std@@2W4float_round_style@2@B ; std::_Num_base::round_style
PUBLIC	?digits@_Num_base@std@@2HB			; std::_Num_base::digits
PUBLIC	?digits10@_Num_base@std@@2HB			; std::_Num_base::digits10
PUBLIC	?max_digits10@_Num_base@std@@2HB		; std::_Num_base::max_digits10
PUBLIC	?max_exponent@_Num_base@std@@2HB		; std::_Num_base::max_exponent
PUBLIC	?max_exponent10@_Num_base@std@@2HB		; std::_Num_base::max_exponent10
PUBLIC	?min_exponent@_Num_base@std@@2HB		; std::_Num_base::min_exponent
PUBLIC	?min_exponent10@_Num_base@std@@2HB		; std::_Num_base::min_exponent10
PUBLIC	?radix@_Num_base@std@@2HB			; std::_Num_base::radix
PUBLIC	?is_bounded@_Num_int_base@std@@2_NB		; std::_Num_int_base::is_bounded
PUBLIC	?is_exact@_Num_int_base@std@@2_NB		; std::_Num_int_base::is_exact
PUBLIC	?is_integer@_Num_int_base@std@@2_NB		; std::_Num_int_base::is_integer
PUBLIC	?is_modulo@_Num_int_base@std@@2_NB		; std::_Num_int_base::is_modulo
PUBLIC	?is_specialized@_Num_int_base@std@@2_NB		; std::_Num_int_base::is_specialized
PUBLIC	?radix@_Num_int_base@std@@2HB			; std::_Num_int_base::radix
PUBLIC	?has_denorm@_Num_float_base@std@@2W4float_denorm_style@2@B ; std::_Num_float_base::has_denorm
PUBLIC	?has_denorm_loss@_Num_float_base@std@@2_NB	; std::_Num_float_base::has_denorm_loss
PUBLIC	?has_infinity@_Num_float_base@std@@2_NB		; std::_Num_float_base::has_infinity
PUBLIC	?has_quiet_NaN@_Num_float_base@std@@2_NB	; std::_Num_float_base::has_quiet_NaN
PUBLIC	?has_signaling_NaN@_Num_float_base@std@@2_NB	; std::_Num_float_base::has_signaling_NaN
PUBLIC	?is_bounded@_Num_float_base@std@@2_NB		; std::_Num_float_base::is_bounded
PUBLIC	?is_exact@_Num_float_base@std@@2_NB		; std::_Num_float_base::is_exact
PUBLIC	?is_iec559@_Num_float_base@std@@2_NB		; std::_Num_float_base::is_iec559
PUBLIC	?is_integer@_Num_float_base@std@@2_NB		; std::_Num_float_base::is_integer
PUBLIC	?is_modulo@_Num_float_base@std@@2_NB		; std::_Num_float_base::is_modulo
PUBLIC	?is_signed@_Num_float_base@std@@2_NB		; std::_Num_float_base::is_signed
PUBLIC	?is_specialized@_Num_float_base@std@@2_NB	; std::_Num_float_base::is_specialized
PUBLIC	?tinyness_before@_Num_float_base@std@@2_NB	; std::_Num_float_base::tinyness_before
PUBLIC	?traps@_Num_float_base@std@@2_NB		; std::_Num_float_base::traps
PUBLIC	?round_style@_Num_float_base@std@@2W4float_round_style@2@B ; std::_Num_float_base::round_style
PUBLIC	?radix@_Num_float_base@std@@2HB			; std::_Num_float_base::radix
PUBLIC	?is_signed@?$numeric_limits@D@std@@2_NB		; std::numeric_limits<char>::is_signed
PUBLIC	?digits@?$numeric_limits@D@std@@2HB		; std::numeric_limits<char>::digits
PUBLIC	?digits10@?$numeric_limits@D@std@@2HB		; std::numeric_limits<char>::digits10
PUBLIC	?max_digits10@?$numeric_limits@D@std@@2HB	; std::numeric_limits<char>::max_digits10
PUBLIC	?is_signed@?$numeric_limits@_W@std@@2_NB	; std::numeric_limits<wchar_t>::is_signed
PUBLIC	?digits@?$numeric_limits@_W@std@@2HB		; std::numeric_limits<wchar_t>::digits
PUBLIC	?digits10@?$numeric_limits@_W@std@@2HB		; std::numeric_limits<wchar_t>::digits10
PUBLIC	?max_digits10@?$numeric_limits@_W@std@@2HB	; std::numeric_limits<wchar_t>::max_digits10
PUBLIC	?is_modulo@?$numeric_limits@_N@std@@2_NB	; std::numeric_limits<bool>::is_modulo
PUBLIC	?is_signed@?$numeric_limits@_N@std@@2_NB	; std::numeric_limits<bool>::is_signed
PUBLIC	?digits@?$numeric_limits@_N@std@@2HB		; std::numeric_limits<bool>::digits
PUBLIC	?digits10@?$numeric_limits@_N@std@@2HB		; std::numeric_limits<bool>::digits10
PUBLIC	?max_digits10@?$numeric_limits@_N@std@@2HB	; std::numeric_limits<bool>::max_digits10
PUBLIC	?is_signed@?$numeric_limits@C@std@@2_NB		; std::numeric_limits<signed char>::is_signed
PUBLIC	?digits@?$numeric_limits@C@std@@2HB		; std::numeric_limits<signed char>::digits
PUBLIC	?digits10@?$numeric_limits@C@std@@2HB		; std::numeric_limits<signed char>::digits10
PUBLIC	?max_digits10@?$numeric_limits@C@std@@2HB	; std::numeric_limits<signed char>::max_digits10
PUBLIC	?is_signed@?$numeric_limits@E@std@@2_NB		; std::numeric_limits<unsigned char>::is_signed
PUBLIC	?digits@?$numeric_limits@E@std@@2HB		; std::numeric_limits<unsigned char>::digits
PUBLIC	?digits10@?$numeric_limits@E@std@@2HB		; std::numeric_limits<unsigned char>::digits10
PUBLIC	?max_digits10@?$numeric_limits@E@std@@2HB	; std::numeric_limits<unsigned char>::max_digits10
PUBLIC	?is_signed@?$numeric_limits@F@std@@2_NB		; std::numeric_limits<short>::is_signed
PUBLIC	?digits@?$numeric_limits@F@std@@2HB		; std::numeric_limits<short>::digits
PUBLIC	?digits10@?$numeric_limits@F@std@@2HB		; std::numeric_limits<short>::digits10
PUBLIC	?max_digits10@?$numeric_limits@F@std@@2HB	; std::numeric_limits<short>::max_digits10
PUBLIC	?is_signed@?$numeric_limits@G@std@@2_NB		; std::numeric_limits<unsigned short>::is_signed
PUBLIC	?digits@?$numeric_limits@G@std@@2HB		; std::numeric_limits<unsigned short>::digits
PUBLIC	?digits10@?$numeric_limits@G@std@@2HB		; std::numeric_limits<unsigned short>::digits10
PUBLIC	?max_digits10@?$numeric_limits@G@std@@2HB	; std::numeric_limits<unsigned short>::max_digits10
PUBLIC	?is_signed@?$numeric_limits@H@std@@2_NB		; std::numeric_limits<int>::is_signed
PUBLIC	?digits@?$numeric_limits@H@std@@2HB		; std::numeric_limits<int>::digits
PUBLIC	?digits10@?$numeric_limits@H@std@@2HB		; std::numeric_limits<int>::digits10
PUBLIC	?max_digits10@?$numeric_limits@H@std@@2HB	; std::numeric_limits<int>::max_digits10
PUBLIC	?is_signed@?$numeric_limits@I@std@@2_NB		; std::numeric_limits<unsigned int>::is_signed
PUBLIC	?digits@?$numeric_limits@I@std@@2HB		; std::numeric_limits<unsigned int>::digits
PUBLIC	?digits10@?$numeric_limits@I@std@@2HB		; std::numeric_limits<unsigned int>::digits10
PUBLIC	?max_digits10@?$numeric_limits@I@std@@2HB	; std::numeric_limits<unsigned int>::max_digits10
PUBLIC	?is_signed@?$numeric_limits@J@std@@2_NB		; std::numeric_limits<long>::is_signed
PUBLIC	?digits@?$numeric_limits@J@std@@2HB		; std::numeric_limits<long>::digits
PUBLIC	?digits10@?$numeric_limits@J@std@@2HB		; std::numeric_limits<long>::digits10
PUBLIC	?max_digits10@?$numeric_limits@J@std@@2HB	; std::numeric_limits<long>::max_digits10
PUBLIC	?is_signed@?$numeric_limits@K@std@@2_NB		; std::numeric_limits<unsigned long>::is_signed
PUBLIC	?digits@?$numeric_limits@K@std@@2HB		; std::numeric_limits<unsigned long>::digits
PUBLIC	?digits10@?$numeric_limits@K@std@@2HB		; std::numeric_limits<unsigned long>::digits10
PUBLIC	?max_digits10@?$numeric_limits@K@std@@2HB	; std::numeric_limits<unsigned long>::max_digits10
PUBLIC	?is_signed@?$numeric_limits@_J@std@@2_NB	; std::numeric_limits<__int64>::is_signed
PUBLIC	?digits@?$numeric_limits@_J@std@@2HB		; std::numeric_limits<__int64>::digits
PUBLIC	?digits10@?$numeric_limits@_J@std@@2HB		; std::numeric_limits<__int64>::digits10
PUBLIC	?max_digits10@?$numeric_limits@_J@std@@2HB	; std::numeric_limits<__int64>::max_digits10
PUBLIC	?is_signed@?$numeric_limits@_K@std@@2_NB	; std::numeric_limits<unsigned __int64>::is_signed
PUBLIC	?digits@?$numeric_limits@_K@std@@2HB		; std::numeric_limits<unsigned __int64>::digits
PUBLIC	?digits10@?$numeric_limits@_K@std@@2HB		; std::numeric_limits<unsigned __int64>::digits10
PUBLIC	?max_digits10@?$numeric_limits@_K@std@@2HB	; std::numeric_limits<unsigned __int64>::max_digits10
PUBLIC	?digits@?$numeric_limits@M@std@@2HB		; std::numeric_limits<float>::digits
PUBLIC	?digits10@?$numeric_limits@M@std@@2HB		; std::numeric_limits<float>::digits10
PUBLIC	?max_digits10@?$numeric_limits@M@std@@2HB	; std::numeric_limits<float>::max_digits10
PUBLIC	?max_exponent@?$numeric_limits@M@std@@2HB	; std::numeric_limits<float>::max_exponent
PUBLIC	?max_exponent10@?$numeric_limits@M@std@@2HB	; std::numeric_limits<float>::max_exponent10
PUBLIC	?min_exponent@?$numeric_limits@M@std@@2HB	; std::numeric_limits<float>::min_exponent
PUBLIC	?min_exponent10@?$numeric_limits@M@std@@2HB	; std::numeric_limits<float>::min_exponent10
PUBLIC	?digits@?$numeric_limits@N@std@@2HB		; std::numeric_limits<double>::digits
PUBLIC	?digits10@?$numeric_limits@N@std@@2HB		; std::numeric_limits<double>::digits10
PUBLIC	?max_digits10@?$numeric_limits@N@std@@2HB	; std::numeric_limits<double>::max_digits10
PUBLIC	?max_exponent@?$numeric_limits@N@std@@2HB	; std::numeric_limits<double>::max_exponent
PUBLIC	?max_exponent10@?$numeric_limits@N@std@@2HB	; std::numeric_limits<double>::max_exponent10
PUBLIC	?min_exponent@?$numeric_limits@N@std@@2HB	; std::numeric_limits<double>::min_exponent
PUBLIC	?min_exponent10@?$numeric_limits@N@std@@2HB	; std::numeric_limits<double>::min_exponent10
PUBLIC	?digits@?$numeric_limits@O@std@@2HB		; std::numeric_limits<long double>::digits
PUBLIC	?digits10@?$numeric_limits@O@std@@2HB		; std::numeric_limits<long double>::digits10
PUBLIC	?max_digits10@?$numeric_limits@O@std@@2HB	; std::numeric_limits<long double>::max_digits10
PUBLIC	?max_exponent@?$numeric_limits@O@std@@2HB	; std::numeric_limits<long double>::max_exponent
PUBLIC	?max_exponent10@?$numeric_limits@O@std@@2HB	; std::numeric_limits<long double>::max_exponent10
PUBLIC	?min_exponent@?$numeric_limits@O@std@@2HB	; std::numeric_limits<long double>::min_exponent
PUBLIC	?min_exponent10@?$numeric_limits@O@std@@2HB	; std::numeric_limits<long double>::min_exponent10
PUBLIC	?value@?$integral_constant@_N$0A@@tr1@std@@2_NB	; std::tr1::integral_constant<bool,0>::value
PUBLIC	?value@?$integral_constant@_N$00@tr1@std@@2_NB	; std::tr1::integral_constant<bool,1>::value
PUBLIC	?value@?$integral_constant@I$0A@@tr1@std@@2IB	; std::tr1::integral_constant<unsigned int,0>::value
PUBLIC	?_Rank@?$_Arithmetic_traits@_N@std@@2HB		; std::_Arithmetic_traits<bool>::_Rank
PUBLIC	?_Rank@?$_Arithmetic_traits@D@std@@2HB		; std::_Arithmetic_traits<char>::_Rank
PUBLIC	?_Rank@?$_Arithmetic_traits@C@std@@2HB		; std::_Arithmetic_traits<signed char>::_Rank
PUBLIC	?_Rank@?$_Arithmetic_traits@E@std@@2HB		; std::_Arithmetic_traits<unsigned char>::_Rank
PUBLIC	?_Rank@?$_Arithmetic_traits@F@std@@2HB		; std::_Arithmetic_traits<short>::_Rank
PUBLIC	?_Rank@?$_Arithmetic_traits@G@std@@2HB		; std::_Arithmetic_traits<unsigned short>::_Rank
PUBLIC	?_Rank@?$_Arithmetic_traits@H@std@@2HB		; std::_Arithmetic_traits<int>::_Rank
PUBLIC	?_Rank@?$_Arithmetic_traits@I@std@@2HB		; std::_Arithmetic_traits<unsigned int>::_Rank
PUBLIC	?_Rank@?$_Arithmetic_traits@J@std@@2HB		; std::_Arithmetic_traits<long>::_Rank
PUBLIC	?_Rank@?$_Arithmetic_traits@K@std@@2HB		; std::_Arithmetic_traits<unsigned long>::_Rank
PUBLIC	?_Rank@?$_Arithmetic_traits@_J@std@@2HB		; std::_Arithmetic_traits<__int64>::_Rank
PUBLIC	?_Rank@?$_Arithmetic_traits@_K@std@@2HB		; std::_Arithmetic_traits<unsigned __int64>::_Rank
PUBLIC	?_Rank@?$_Arithmetic_traits@M@std@@2HB		; std::_Arithmetic_traits<float>::_Rank
PUBLIC	?_Rank@?$_Arithmetic_traits@N@std@@2HB		; std::_Arithmetic_traits<double>::_Rank
PUBLIC	?_Rank@?$_Arithmetic_traits@O@std@@2HB		; std::_Arithmetic_traits<long double>::_Rank
PUBLIC	?collate@?$_Locbase@H@std@@2HB			; std::_Locbase<int>::collate
PUBLIC	?ctype@?$_Locbase@H@std@@2HB			; std::_Locbase<int>::ctype
PUBLIC	?monetary@?$_Locbase@H@std@@2HB			; std::_Locbase<int>::monetary
PUBLIC	?numeric@?$_Locbase@H@std@@2HB			; std::_Locbase<int>::numeric
PUBLIC	?time@?$_Locbase@H@std@@2HB			; std::_Locbase<int>::time
PUBLIC	?messages@?$_Locbase@H@std@@2HB			; std::_Locbase<int>::messages
PUBLIC	?all@?$_Locbase@H@std@@2HB			; std::_Locbase<int>::all
PUBLIC	?none@?$_Locbase@H@std@@2HB			; std::_Locbase<int>::none
PUBLIC	?table_size@?$ctype@D@std@@2IB			; std::ctype<char>::table_size
PUBLIC	?skipws@?$_Iosb@H@std@@2W4_Fmtflags@12@B	; std::_Iosb<int>::skipws
PUBLIC	?unitbuf@?$_Iosb@H@std@@2W4_Fmtflags@12@B	; std::_Iosb<int>::unitbuf
PUBLIC	?uppercase@?$_Iosb@H@std@@2W4_Fmtflags@12@B	; std::_Iosb<int>::uppercase
PUBLIC	?showbase@?$_Iosb@H@std@@2W4_Fmtflags@12@B	; std::_Iosb<int>::showbase
PUBLIC	?showpoint@?$_Iosb@H@std@@2W4_Fmtflags@12@B	; std::_Iosb<int>::showpoint
PUBLIC	?showpos@?$_Iosb@H@std@@2W4_Fmtflags@12@B	; std::_Iosb<int>::showpos
PUBLIC	?left@?$_Iosb@H@std@@2W4_Fmtflags@12@B		; std::_Iosb<int>::left
PUBLIC	?right@?$_Iosb@H@std@@2W4_Fmtflags@12@B		; std::_Iosb<int>::right
PUBLIC	?internal@?$_Iosb@H@std@@2W4_Fmtflags@12@B	; std::_Iosb<int>::internal
PUBLIC	?dec@?$_Iosb@H@std@@2W4_Fmtflags@12@B		; std::_Iosb<int>::dec
PUBLIC	?oct@?$_Iosb@H@std@@2W4_Fmtflags@12@B		; std::_Iosb<int>::oct
PUBLIC	?hex@?$_Iosb@H@std@@2W4_Fmtflags@12@B		; std::_Iosb<int>::hex
PUBLIC	?scientific@?$_Iosb@H@std@@2W4_Fmtflags@12@B	; std::_Iosb<int>::scientific
PUBLIC	?fixed@?$_Iosb@H@std@@2W4_Fmtflags@12@B		; std::_Iosb<int>::fixed
PUBLIC	?hexfloat@?$_Iosb@H@std@@2W4_Fmtflags@12@B	; std::_Iosb<int>::hexfloat
PUBLIC	?boolalpha@?$_Iosb@H@std@@2W4_Fmtflags@12@B	; std::_Iosb<int>::boolalpha
PUBLIC	?_Stdio@?$_Iosb@H@std@@2W4_Fmtflags@12@B	; std::_Iosb<int>::_Stdio
PUBLIC	?adjustfield@?$_Iosb@H@std@@2W4_Fmtflags@12@B	; std::_Iosb<int>::adjustfield
PUBLIC	?basefield@?$_Iosb@H@std@@2W4_Fmtflags@12@B	; std::_Iosb<int>::basefield
PUBLIC	?floatfield@?$_Iosb@H@std@@2W4_Fmtflags@12@B	; std::_Iosb<int>::floatfield
PUBLIC	?goodbit@?$_Iosb@H@std@@2W4_Iostate@12@B	; std::_Iosb<int>::goodbit
PUBLIC	?eofbit@?$_Iosb@H@std@@2W4_Iostate@12@B		; std::_Iosb<int>::eofbit
PUBLIC	?failbit@?$_Iosb@H@std@@2W4_Iostate@12@B	; std::_Iosb<int>::failbit
PUBLIC	?badbit@?$_Iosb@H@std@@2W4_Iostate@12@B		; std::_Iosb<int>::badbit
PUBLIC	?_Hardfail@?$_Iosb@H@std@@2W4_Iostate@12@B	; std::_Iosb<int>::_Hardfail
PUBLIC	?in@?$_Iosb@H@std@@2W4_Openmode@12@B		; std::_Iosb<int>::in
PUBLIC	?out@?$_Iosb@H@std@@2W4_Openmode@12@B		; std::_Iosb<int>::out
PUBLIC	?ate@?$_Iosb@H@std@@2W4_Openmode@12@B		; std::_Iosb<int>::ate
PUBLIC	?app@?$_Iosb@H@std@@2W4_Openmode@12@B		; std::_Iosb<int>::app
PUBLIC	?trunc@?$_Iosb@H@std@@2W4_Openmode@12@B		; std::_Iosb<int>::trunc
PUBLIC	?_Nocreate@?$_Iosb@H@std@@2W4_Openmode@12@B	; std::_Iosb<int>::_Nocreate
PUBLIC	?_Noreplace@?$_Iosb@H@std@@2W4_Openmode@12@B	; std::_Iosb<int>::_Noreplace
PUBLIC	?binary@?$_Iosb@H@std@@2W4_Openmode@12@B	; std::_Iosb<int>::binary
PUBLIC	?beg@?$_Iosb@H@std@@2W4_Seekdir@12@B		; std::_Iosb<int>::beg
PUBLIC	?cur@?$_Iosb@H@std@@2W4_Seekdir@12@B		; std::_Iosb<int>::cur
PUBLIC	?end@?$_Iosb@H@std@@2W4_Seekdir@12@B		; std::_Iosb<int>::end
CONST	SEGMENT
_Pi	DQ	0400921f9f01b866er		; 3.14159
_pi	DQ	0400921f9f01b866er		; 3.14159
_colors	DD	0ffH
	DD	0ff0000H
	DD	0ff00H
	DD	00H
	DD	0c8c8ffH
	DD	0c8c8c8H
	DD	0ffffH
	DD	0aaffH
	DD	0aa00ffH
	DD	05a85H
	DD	0ffffffH
	DD	06400H
	DD	0ffff00H
	DD	0c8c8c8H
	DD	0e6e6ffH
CONST	ENDS
;	COMDAT ?end@?$_Iosb@H@std@@2W4_Seekdir@12@B
CONST	SEGMENT
?end@?$_Iosb@H@std@@2W4_Seekdir@12@B DD 02H		; std::_Iosb<int>::end
CONST	ENDS
;	COMDAT ?cur@?$_Iosb@H@std@@2W4_Seekdir@12@B
CONST	SEGMENT
?cur@?$_Iosb@H@std@@2W4_Seekdir@12@B DD 01H		; std::_Iosb<int>::cur
CONST	ENDS
;	COMDAT ?beg@?$_Iosb@H@std@@2W4_Seekdir@12@B
CONST	SEGMENT
?beg@?$_Iosb@H@std@@2W4_Seekdir@12@B DD 00H		; std::_Iosb<int>::beg
CONST	ENDS
;	COMDAT ?binary@?$_Iosb@H@std@@2W4_Openmode@12@B
CONST	SEGMENT
?binary@?$_Iosb@H@std@@2W4_Openmode@12@B DD 020H	; std::_Iosb<int>::binary
CONST	ENDS
;	COMDAT ?_Noreplace@?$_Iosb@H@std@@2W4_Openmode@12@B
CONST	SEGMENT
?_Noreplace@?$_Iosb@H@std@@2W4_Openmode@12@B DD 080H	; std::_Iosb<int>::_Noreplace
CONST	ENDS
;	COMDAT ?_Nocreate@?$_Iosb@H@std@@2W4_Openmode@12@B
CONST	SEGMENT
?_Nocreate@?$_Iosb@H@std@@2W4_Openmode@12@B DD 040H	; std::_Iosb<int>::_Nocreate
CONST	ENDS
;	COMDAT ?trunc@?$_Iosb@H@std@@2W4_Openmode@12@B
CONST	SEGMENT
?trunc@?$_Iosb@H@std@@2W4_Openmode@12@B DD 010H		; std::_Iosb<int>::trunc
CONST	ENDS
;	COMDAT ?app@?$_Iosb@H@std@@2W4_Openmode@12@B
CONST	SEGMENT
?app@?$_Iosb@H@std@@2W4_Openmode@12@B DD 08H		; std::_Iosb<int>::app
CONST	ENDS
;	COMDAT ?ate@?$_Iosb@H@std@@2W4_Openmode@12@B
CONST	SEGMENT
?ate@?$_Iosb@H@std@@2W4_Openmode@12@B DD 04H		; std::_Iosb<int>::ate
CONST	ENDS
;	COMDAT ?out@?$_Iosb@H@std@@2W4_Openmode@12@B
CONST	SEGMENT
?out@?$_Iosb@H@std@@2W4_Openmode@12@B DD 02H		; std::_Iosb<int>::out
CONST	ENDS
;	COMDAT ?in@?$_Iosb@H@std@@2W4_Openmode@12@B
CONST	SEGMENT
?in@?$_Iosb@H@std@@2W4_Openmode@12@B DD 01H		; std::_Iosb<int>::in
CONST	ENDS
;	COMDAT ?_Hardfail@?$_Iosb@H@std@@2W4_Iostate@12@B
CONST	SEGMENT
?_Hardfail@?$_Iosb@H@std@@2W4_Iostate@12@B DD 010H	; std::_Iosb<int>::_Hardfail
CONST	ENDS
;	COMDAT ?badbit@?$_Iosb@H@std@@2W4_Iostate@12@B
CONST	SEGMENT
?badbit@?$_Iosb@H@std@@2W4_Iostate@12@B DD 04H		; std::_Iosb<int>::badbit
CONST	ENDS
;	COMDAT ?failbit@?$_Iosb@H@std@@2W4_Iostate@12@B
CONST	SEGMENT
?failbit@?$_Iosb@H@std@@2W4_Iostate@12@B DD 02H		; std::_Iosb<int>::failbit
CONST	ENDS
;	COMDAT ?eofbit@?$_Iosb@H@std@@2W4_Iostate@12@B
CONST	SEGMENT
?eofbit@?$_Iosb@H@std@@2W4_Iostate@12@B DD 01H		; std::_Iosb<int>::eofbit
CONST	ENDS
;	COMDAT ?goodbit@?$_Iosb@H@std@@2W4_Iostate@12@B
CONST	SEGMENT
?goodbit@?$_Iosb@H@std@@2W4_Iostate@12@B DD 00H		; std::_Iosb<int>::goodbit
CONST	ENDS
;	COMDAT ?floatfield@?$_Iosb@H@std@@2W4_Fmtflags@12@B
CONST	SEGMENT
?floatfield@?$_Iosb@H@std@@2W4_Fmtflags@12@B DD 03000H	; std::_Iosb<int>::floatfield
CONST	ENDS
;	COMDAT ?basefield@?$_Iosb@H@std@@2W4_Fmtflags@12@B
CONST	SEGMENT
?basefield@?$_Iosb@H@std@@2W4_Fmtflags@12@B DD 0e00H	; std::_Iosb<int>::basefield
CONST	ENDS
;	COMDAT ?adjustfield@?$_Iosb@H@std@@2W4_Fmtflags@12@B
CONST	SEGMENT
?adjustfield@?$_Iosb@H@std@@2W4_Fmtflags@12@B DD 01c0H	; std::_Iosb<int>::adjustfield
CONST	ENDS
;	COMDAT ?_Stdio@?$_Iosb@H@std@@2W4_Fmtflags@12@B
CONST	SEGMENT
?_Stdio@?$_Iosb@H@std@@2W4_Fmtflags@12@B DD 08000H	; std::_Iosb<int>::_Stdio
CONST	ENDS
;	COMDAT ?boolalpha@?$_Iosb@H@std@@2W4_Fmtflags@12@B
CONST	SEGMENT
?boolalpha@?$_Iosb@H@std@@2W4_Fmtflags@12@B DD 04000H	; std::_Iosb<int>::boolalpha
CONST	ENDS
;	COMDAT ?hexfloat@?$_Iosb@H@std@@2W4_Fmtflags@12@B
CONST	SEGMENT
?hexfloat@?$_Iosb@H@std@@2W4_Fmtflags@12@B DD 03000H	; std::_Iosb<int>::hexfloat
CONST	ENDS
;	COMDAT ?fixed@?$_Iosb@H@std@@2W4_Fmtflags@12@B
CONST	SEGMENT
?fixed@?$_Iosb@H@std@@2W4_Fmtflags@12@B DD 02000H	; std::_Iosb<int>::fixed
CONST	ENDS
;	COMDAT ?scientific@?$_Iosb@H@std@@2W4_Fmtflags@12@B
CONST	SEGMENT
?scientific@?$_Iosb@H@std@@2W4_Fmtflags@12@B DD 01000H	; std::_Iosb<int>::scientific
CONST	ENDS
;	COMDAT ?hex@?$_Iosb@H@std@@2W4_Fmtflags@12@B
CONST	SEGMENT
?hex@?$_Iosb@H@std@@2W4_Fmtflags@12@B DD 0800H		; std::_Iosb<int>::hex
CONST	ENDS
;	COMDAT ?oct@?$_Iosb@H@std@@2W4_Fmtflags@12@B
CONST	SEGMENT
?oct@?$_Iosb@H@std@@2W4_Fmtflags@12@B DD 0400H		; std::_Iosb<int>::oct
CONST	ENDS
;	COMDAT ?dec@?$_Iosb@H@std@@2W4_Fmtflags@12@B
CONST	SEGMENT
?dec@?$_Iosb@H@std@@2W4_Fmtflags@12@B DD 0200H		; std::_Iosb<int>::dec
CONST	ENDS
;	COMDAT ?internal@?$_Iosb@H@std@@2W4_Fmtflags@12@B
CONST	SEGMENT
?internal@?$_Iosb@H@std@@2W4_Fmtflags@12@B DD 0100H	; std::_Iosb<int>::internal
CONST	ENDS
;	COMDAT ?right@?$_Iosb@H@std@@2W4_Fmtflags@12@B
CONST	SEGMENT
?right@?$_Iosb@H@std@@2W4_Fmtflags@12@B DD 080H		; std::_Iosb<int>::right
CONST	ENDS
;	COMDAT ?left@?$_Iosb@H@std@@2W4_Fmtflags@12@B
CONST	SEGMENT
?left@?$_Iosb@H@std@@2W4_Fmtflags@12@B DD 040H		; std::_Iosb<int>::left
CONST	ENDS
;	COMDAT ?showpos@?$_Iosb@H@std@@2W4_Fmtflags@12@B
CONST	SEGMENT
?showpos@?$_Iosb@H@std@@2W4_Fmtflags@12@B DD 020H	; std::_Iosb<int>::showpos
CONST	ENDS
;	COMDAT ?showpoint@?$_Iosb@H@std@@2W4_Fmtflags@12@B
CONST	SEGMENT
?showpoint@?$_Iosb@H@std@@2W4_Fmtflags@12@B DD 010H	; std::_Iosb<int>::showpoint
CONST	ENDS
;	COMDAT ?showbase@?$_Iosb@H@std@@2W4_Fmtflags@12@B
CONST	SEGMENT
?showbase@?$_Iosb@H@std@@2W4_Fmtflags@12@B DD 08H	; std::_Iosb<int>::showbase
CONST	ENDS
;	COMDAT ?uppercase@?$_Iosb@H@std@@2W4_Fmtflags@12@B
CONST	SEGMENT
?uppercase@?$_Iosb@H@std@@2W4_Fmtflags@12@B DD 04H	; std::_Iosb<int>::uppercase
CONST	ENDS
;	COMDAT ?unitbuf@?$_Iosb@H@std@@2W4_Fmtflags@12@B
CONST	SEGMENT
?unitbuf@?$_Iosb@H@std@@2W4_Fmtflags@12@B DD 02H	; std::_Iosb<int>::unitbuf
CONST	ENDS
;	COMDAT ?skipws@?$_Iosb@H@std@@2W4_Fmtflags@12@B
CONST	SEGMENT
?skipws@?$_Iosb@H@std@@2W4_Fmtflags@12@B DD 01H		; std::_Iosb<int>::skipws
CONST	ENDS
;	COMDAT ?table_size@?$ctype@D@std@@2IB
CONST	SEGMENT
?table_size@?$ctype@D@std@@2IB DD 0100H			; std::ctype<char>::table_size
CONST	ENDS
;	COMDAT ?none@?$_Locbase@H@std@@2HB
CONST	SEGMENT
?none@?$_Locbase@H@std@@2HB DD 00H			; std::_Locbase<int>::none
CONST	ENDS
;	COMDAT ?all@?$_Locbase@H@std@@2HB
CONST	SEGMENT
?all@?$_Locbase@H@std@@2HB DD 03fH			; std::_Locbase<int>::all
CONST	ENDS
;	COMDAT ?messages@?$_Locbase@H@std@@2HB
CONST	SEGMENT
?messages@?$_Locbase@H@std@@2HB DD 020H			; std::_Locbase<int>::messages
CONST	ENDS
;	COMDAT ?time@?$_Locbase@H@std@@2HB
CONST	SEGMENT
?time@?$_Locbase@H@std@@2HB DD 010H			; std::_Locbase<int>::time
CONST	ENDS
;	COMDAT ?numeric@?$_Locbase@H@std@@2HB
CONST	SEGMENT
?numeric@?$_Locbase@H@std@@2HB DD 08H			; std::_Locbase<int>::numeric
CONST	ENDS
;	COMDAT ?monetary@?$_Locbase@H@std@@2HB
CONST	SEGMENT
?monetary@?$_Locbase@H@std@@2HB DD 04H			; std::_Locbase<int>::monetary
CONST	ENDS
;	COMDAT ?ctype@?$_Locbase@H@std@@2HB
CONST	SEGMENT
?ctype@?$_Locbase@H@std@@2HB DD 02H			; std::_Locbase<int>::ctype
CONST	ENDS
;	COMDAT ?collate@?$_Locbase@H@std@@2HB
CONST	SEGMENT
?collate@?$_Locbase@H@std@@2HB DD 01H			; std::_Locbase<int>::collate
CONST	ENDS
;	COMDAT ?_Rank@?$_Arithmetic_traits@O@std@@2HB
CONST	SEGMENT
?_Rank@?$_Arithmetic_traits@O@std@@2HB DD 09H		; std::_Arithmetic_traits<long double>::_Rank
CONST	ENDS
;	COMDAT ?_Rank@?$_Arithmetic_traits@N@std@@2HB
CONST	SEGMENT
?_Rank@?$_Arithmetic_traits@N@std@@2HB DD 08H		; std::_Arithmetic_traits<double>::_Rank
CONST	ENDS
;	COMDAT ?_Rank@?$_Arithmetic_traits@M@std@@2HB
CONST	SEGMENT
?_Rank@?$_Arithmetic_traits@M@std@@2HB DD 07H		; std::_Arithmetic_traits<float>::_Rank
CONST	ENDS
;	COMDAT ?_Rank@?$_Arithmetic_traits@_K@std@@2HB
CONST	SEGMENT
?_Rank@?$_Arithmetic_traits@_K@std@@2HB DD 06H		; std::_Arithmetic_traits<unsigned __int64>::_Rank
CONST	ENDS
;	COMDAT ?_Rank@?$_Arithmetic_traits@_J@std@@2HB
CONST	SEGMENT
?_Rank@?$_Arithmetic_traits@_J@std@@2HB DD 06H		; std::_Arithmetic_traits<__int64>::_Rank
CONST	ENDS
;	COMDAT ?_Rank@?$_Arithmetic_traits@K@std@@2HB
CONST	SEGMENT
?_Rank@?$_Arithmetic_traits@K@std@@2HB DD 05H		; std::_Arithmetic_traits<unsigned long>::_Rank
CONST	ENDS
;	COMDAT ?_Rank@?$_Arithmetic_traits@J@std@@2HB
CONST	SEGMENT
?_Rank@?$_Arithmetic_traits@J@std@@2HB DD 05H		; std::_Arithmetic_traits<long>::_Rank
CONST	ENDS
;	COMDAT ?_Rank@?$_Arithmetic_traits@I@std@@2HB
CONST	SEGMENT
?_Rank@?$_Arithmetic_traits@I@std@@2HB DD 04H		; std::_Arithmetic_traits<unsigned int>::_Rank
CONST	ENDS
;	COMDAT ?_Rank@?$_Arithmetic_traits@H@std@@2HB
CONST	SEGMENT
?_Rank@?$_Arithmetic_traits@H@std@@2HB DD 04H		; std::_Arithmetic_traits<int>::_Rank
CONST	ENDS
;	COMDAT ?_Rank@?$_Arithmetic_traits@G@std@@2HB
CONST	SEGMENT
?_Rank@?$_Arithmetic_traits@G@std@@2HB DD 03H		; std::_Arithmetic_traits<unsigned short>::_Rank
CONST	ENDS
;	COMDAT ?_Rank@?$_Arithmetic_traits@F@std@@2HB
CONST	SEGMENT
?_Rank@?$_Arithmetic_traits@F@std@@2HB DD 03H		; std::_Arithmetic_traits<short>::_Rank
CONST	ENDS
;	COMDAT ?_Rank@?$_Arithmetic_traits@E@std@@2HB
CONST	SEGMENT
?_Rank@?$_Arithmetic_traits@E@std@@2HB DD 02H		; std::_Arithmetic_traits<unsigned char>::_Rank
CONST	ENDS
;	COMDAT ?_Rank@?$_Arithmetic_traits@C@std@@2HB
CONST	SEGMENT
?_Rank@?$_Arithmetic_traits@C@std@@2HB DD 02H		; std::_Arithmetic_traits<signed char>::_Rank
CONST	ENDS
;	COMDAT ?_Rank@?$_Arithmetic_traits@D@std@@2HB
CONST	SEGMENT
?_Rank@?$_Arithmetic_traits@D@std@@2HB DD 02H		; std::_Arithmetic_traits<char>::_Rank
CONST	ENDS
;	COMDAT ?_Rank@?$_Arithmetic_traits@_N@std@@2HB
CONST	SEGMENT
?_Rank@?$_Arithmetic_traits@_N@std@@2HB DD 01H		; std::_Arithmetic_traits<bool>::_Rank
CONST	ENDS
;	COMDAT ?value@?$integral_constant@I$0A@@tr1@std@@2IB
CONST	SEGMENT
?value@?$integral_constant@I$0A@@tr1@std@@2IB DD 00H	; std::tr1::integral_constant<unsigned int,0>::value
CONST	ENDS
;	COMDAT ?value@?$integral_constant@_N$00@tr1@std@@2_NB
CONST	SEGMENT
?value@?$integral_constant@_N$00@tr1@std@@2_NB DB 01H	; std::tr1::integral_constant<bool,1>::value
CONST	ENDS
;	COMDAT ?value@?$integral_constant@_N$0A@@tr1@std@@2_NB
CONST	SEGMENT
?value@?$integral_constant@_N$0A@@tr1@std@@2_NB DB 00H	; std::tr1::integral_constant<bool,0>::value
CONST	ENDS
;	COMDAT ?min_exponent10@?$numeric_limits@O@std@@2HB
CONST	SEGMENT
?min_exponent10@?$numeric_limits@O@std@@2HB DD 0fffffecdH ; std::numeric_limits<long double>::min_exponent10
CONST	ENDS
;	COMDAT ?min_exponent@?$numeric_limits@O@std@@2HB
CONST	SEGMENT
?min_exponent@?$numeric_limits@O@std@@2HB DD 0fffffc03H	; std::numeric_limits<long double>::min_exponent
CONST	ENDS
;	COMDAT ?max_exponent10@?$numeric_limits@O@std@@2HB
CONST	SEGMENT
?max_exponent10@?$numeric_limits@O@std@@2HB DD 0134H	; std::numeric_limits<long double>::max_exponent10
CONST	ENDS
;	COMDAT ?max_exponent@?$numeric_limits@O@std@@2HB
CONST	SEGMENT
?max_exponent@?$numeric_limits@O@std@@2HB DD 0400H	; std::numeric_limits<long double>::max_exponent
CONST	ENDS
;	COMDAT ?max_digits10@?$numeric_limits@O@std@@2HB
CONST	SEGMENT
?max_digits10@?$numeric_limits@O@std@@2HB DD 011H	; std::numeric_limits<long double>::max_digits10
CONST	ENDS
;	COMDAT ?digits10@?$numeric_limits@O@std@@2HB
CONST	SEGMENT
?digits10@?$numeric_limits@O@std@@2HB DD 0fH		; std::numeric_limits<long double>::digits10
CONST	ENDS
;	COMDAT ?digits@?$numeric_limits@O@std@@2HB
CONST	SEGMENT
?digits@?$numeric_limits@O@std@@2HB DD 035H		; std::numeric_limits<long double>::digits
CONST	ENDS
;	COMDAT ?min_exponent10@?$numeric_limits@N@std@@2HB
CONST	SEGMENT
?min_exponent10@?$numeric_limits@N@std@@2HB DD 0fffffecdH ; std::numeric_limits<double>::min_exponent10
CONST	ENDS
;	COMDAT ?min_exponent@?$numeric_limits@N@std@@2HB
CONST	SEGMENT
?min_exponent@?$numeric_limits@N@std@@2HB DD 0fffffc03H	; std::numeric_limits<double>::min_exponent
CONST	ENDS
;	COMDAT ?max_exponent10@?$numeric_limits@N@std@@2HB
CONST	SEGMENT
?max_exponent10@?$numeric_limits@N@std@@2HB DD 0134H	; std::numeric_limits<double>::max_exponent10
CONST	ENDS
;	COMDAT ?max_exponent@?$numeric_limits@N@std@@2HB
CONST	SEGMENT
?max_exponent@?$numeric_limits@N@std@@2HB DD 0400H	; std::numeric_limits<double>::max_exponent
CONST	ENDS
;	COMDAT ?max_digits10@?$numeric_limits@N@std@@2HB
CONST	SEGMENT
?max_digits10@?$numeric_limits@N@std@@2HB DD 011H	; std::numeric_limits<double>::max_digits10
CONST	ENDS
;	COMDAT ?digits10@?$numeric_limits@N@std@@2HB
CONST	SEGMENT
?digits10@?$numeric_limits@N@std@@2HB DD 0fH		; std::numeric_limits<double>::digits10
CONST	ENDS
;	COMDAT ?digits@?$numeric_limits@N@std@@2HB
CONST	SEGMENT
?digits@?$numeric_limits@N@std@@2HB DD 035H		; std::numeric_limits<double>::digits
CONST	ENDS
;	COMDAT ?min_exponent10@?$numeric_limits@M@std@@2HB
CONST	SEGMENT
?min_exponent10@?$numeric_limits@M@std@@2HB DD 0ffffffdbH ; std::numeric_limits<float>::min_exponent10
CONST	ENDS
;	COMDAT ?min_exponent@?$numeric_limits@M@std@@2HB
CONST	SEGMENT
?min_exponent@?$numeric_limits@M@std@@2HB DD 0ffffff83H	; std::numeric_limits<float>::min_exponent
CONST	ENDS
;	COMDAT ?max_exponent10@?$numeric_limits@M@std@@2HB
CONST	SEGMENT
?max_exponent10@?$numeric_limits@M@std@@2HB DD 026H	; std::numeric_limits<float>::max_exponent10
CONST	ENDS
;	COMDAT ?max_exponent@?$numeric_limits@M@std@@2HB
CONST	SEGMENT
?max_exponent@?$numeric_limits@M@std@@2HB DD 080H	; std::numeric_limits<float>::max_exponent
CONST	ENDS
;	COMDAT ?max_digits10@?$numeric_limits@M@std@@2HB
CONST	SEGMENT
?max_digits10@?$numeric_limits@M@std@@2HB DD 08H	; std::numeric_limits<float>::max_digits10
CONST	ENDS
;	COMDAT ?digits10@?$numeric_limits@M@std@@2HB
CONST	SEGMENT
?digits10@?$numeric_limits@M@std@@2HB DD 06H		; std::numeric_limits<float>::digits10
CONST	ENDS
;	COMDAT ?digits@?$numeric_limits@M@std@@2HB
CONST	SEGMENT
?digits@?$numeric_limits@M@std@@2HB DD 018H		; std::numeric_limits<float>::digits
CONST	ENDS
;	COMDAT ?max_digits10@?$numeric_limits@_K@std@@2HB
CONST	SEGMENT
?max_digits10@?$numeric_limits@_K@std@@2HB DD 015H	; std::numeric_limits<unsigned __int64>::max_digits10
CONST	ENDS
;	COMDAT ?digits10@?$numeric_limits@_K@std@@2HB
CONST	SEGMENT
?digits10@?$numeric_limits@_K@std@@2HB DD 013H		; std::numeric_limits<unsigned __int64>::digits10
CONST	ENDS
;	COMDAT ?digits@?$numeric_limits@_K@std@@2HB
CONST	SEGMENT
?digits@?$numeric_limits@_K@std@@2HB DD 040H		; std::numeric_limits<unsigned __int64>::digits
CONST	ENDS
;	COMDAT ?is_signed@?$numeric_limits@_K@std@@2_NB
CONST	SEGMENT
?is_signed@?$numeric_limits@_K@std@@2_NB DB 00H		; std::numeric_limits<unsigned __int64>::is_signed
CONST	ENDS
;	COMDAT ?max_digits10@?$numeric_limits@_J@std@@2HB
CONST	SEGMENT
?max_digits10@?$numeric_limits@_J@std@@2HB DD 014H	; std::numeric_limits<__int64>::max_digits10
CONST	ENDS
;	COMDAT ?digits10@?$numeric_limits@_J@std@@2HB
CONST	SEGMENT
?digits10@?$numeric_limits@_J@std@@2HB DD 012H		; std::numeric_limits<__int64>::digits10
CONST	ENDS
;	COMDAT ?digits@?$numeric_limits@_J@std@@2HB
CONST	SEGMENT
?digits@?$numeric_limits@_J@std@@2HB DD 03fH		; std::numeric_limits<__int64>::digits
CONST	ENDS
;	COMDAT ?is_signed@?$numeric_limits@_J@std@@2_NB
CONST	SEGMENT
?is_signed@?$numeric_limits@_J@std@@2_NB DB 01H		; std::numeric_limits<__int64>::is_signed
CONST	ENDS
;	COMDAT ?max_digits10@?$numeric_limits@K@std@@2HB
CONST	SEGMENT
?max_digits10@?$numeric_limits@K@std@@2HB DD 0bH	; std::numeric_limits<unsigned long>::max_digits10
CONST	ENDS
;	COMDAT ?digits10@?$numeric_limits@K@std@@2HB
CONST	SEGMENT
?digits10@?$numeric_limits@K@std@@2HB DD 09H		; std::numeric_limits<unsigned long>::digits10
CONST	ENDS
;	COMDAT ?digits@?$numeric_limits@K@std@@2HB
CONST	SEGMENT
?digits@?$numeric_limits@K@std@@2HB DD 020H		; std::numeric_limits<unsigned long>::digits
CONST	ENDS
;	COMDAT ?is_signed@?$numeric_limits@K@std@@2_NB
CONST	SEGMENT
?is_signed@?$numeric_limits@K@std@@2_NB DB 00H		; std::numeric_limits<unsigned long>::is_signed
CONST	ENDS
;	COMDAT ?max_digits10@?$numeric_limits@J@std@@2HB
CONST	SEGMENT
?max_digits10@?$numeric_limits@J@std@@2HB DD 0bH	; std::numeric_limits<long>::max_digits10
CONST	ENDS
;	COMDAT ?digits10@?$numeric_limits@J@std@@2HB
CONST	SEGMENT
?digits10@?$numeric_limits@J@std@@2HB DD 09H		; std::numeric_limits<long>::digits10
CONST	ENDS
;	COMDAT ?digits@?$numeric_limits@J@std@@2HB
CONST	SEGMENT
?digits@?$numeric_limits@J@std@@2HB DD 01fH		; std::numeric_limits<long>::digits
CONST	ENDS
;	COMDAT ?is_signed@?$numeric_limits@J@std@@2_NB
CONST	SEGMENT
?is_signed@?$numeric_limits@J@std@@2_NB DB 01H		; std::numeric_limits<long>::is_signed
CONST	ENDS
;	COMDAT ?max_digits10@?$numeric_limits@I@std@@2HB
CONST	SEGMENT
?max_digits10@?$numeric_limits@I@std@@2HB DD 0bH	; std::numeric_limits<unsigned int>::max_digits10
CONST	ENDS
;	COMDAT ?digits10@?$numeric_limits@I@std@@2HB
CONST	SEGMENT
?digits10@?$numeric_limits@I@std@@2HB DD 09H		; std::numeric_limits<unsigned int>::digits10
CONST	ENDS
;	COMDAT ?digits@?$numeric_limits@I@std@@2HB
CONST	SEGMENT
?digits@?$numeric_limits@I@std@@2HB DD 020H		; std::numeric_limits<unsigned int>::digits
CONST	ENDS
;	COMDAT ?is_signed@?$numeric_limits@I@std@@2_NB
CONST	SEGMENT
?is_signed@?$numeric_limits@I@std@@2_NB DB 00H		; std::numeric_limits<unsigned int>::is_signed
CONST	ENDS
;	COMDAT ?max_digits10@?$numeric_limits@H@std@@2HB
CONST	SEGMENT
?max_digits10@?$numeric_limits@H@std@@2HB DD 0bH	; std::numeric_limits<int>::max_digits10
CONST	ENDS
;	COMDAT ?digits10@?$numeric_limits@H@std@@2HB
CONST	SEGMENT
?digits10@?$numeric_limits@H@std@@2HB DD 09H		; std::numeric_limits<int>::digits10
CONST	ENDS
;	COMDAT ?digits@?$numeric_limits@H@std@@2HB
CONST	SEGMENT
?digits@?$numeric_limits@H@std@@2HB DD 01fH		; std::numeric_limits<int>::digits
CONST	ENDS
;	COMDAT ?is_signed@?$numeric_limits@H@std@@2_NB
CONST	SEGMENT
?is_signed@?$numeric_limits@H@std@@2_NB DB 01H		; std::numeric_limits<int>::is_signed
CONST	ENDS
;	COMDAT ?max_digits10@?$numeric_limits@G@std@@2HB
CONST	SEGMENT
?max_digits10@?$numeric_limits@G@std@@2HB DD 06H	; std::numeric_limits<unsigned short>::max_digits10
CONST	ENDS
;	COMDAT ?digits10@?$numeric_limits@G@std@@2HB
CONST	SEGMENT
?digits10@?$numeric_limits@G@std@@2HB DD 04H		; std::numeric_limits<unsigned short>::digits10
CONST	ENDS
;	COMDAT ?digits@?$numeric_limits@G@std@@2HB
CONST	SEGMENT
?digits@?$numeric_limits@G@std@@2HB DD 010H		; std::numeric_limits<unsigned short>::digits
CONST	ENDS
;	COMDAT ?is_signed@?$numeric_limits@G@std@@2_NB
CONST	SEGMENT
?is_signed@?$numeric_limits@G@std@@2_NB DB 00H		; std::numeric_limits<unsigned short>::is_signed
CONST	ENDS
;	COMDAT ?max_digits10@?$numeric_limits@F@std@@2HB
CONST	SEGMENT
?max_digits10@?$numeric_limits@F@std@@2HB DD 06H	; std::numeric_limits<short>::max_digits10
CONST	ENDS
;	COMDAT ?digits10@?$numeric_limits@F@std@@2HB
CONST	SEGMENT
?digits10@?$numeric_limits@F@std@@2HB DD 04H		; std::numeric_limits<short>::digits10
CONST	ENDS
;	COMDAT ?digits@?$numeric_limits@F@std@@2HB
CONST	SEGMENT
?digits@?$numeric_limits@F@std@@2HB DD 0fH		; std::numeric_limits<short>::digits
CONST	ENDS
;	COMDAT ?is_signed@?$numeric_limits@F@std@@2_NB
CONST	SEGMENT
?is_signed@?$numeric_limits@F@std@@2_NB DB 01H		; std::numeric_limits<short>::is_signed
CONST	ENDS
;	COMDAT ?max_digits10@?$numeric_limits@E@std@@2HB
CONST	SEGMENT
?max_digits10@?$numeric_limits@E@std@@2HB DD 04H	; std::numeric_limits<unsigned char>::max_digits10
CONST	ENDS
;	COMDAT ?digits10@?$numeric_limits@E@std@@2HB
CONST	SEGMENT
?digits10@?$numeric_limits@E@std@@2HB DD 02H		; std::numeric_limits<unsigned char>::digits10
CONST	ENDS
;	COMDAT ?digits@?$numeric_limits@E@std@@2HB
CONST	SEGMENT
?digits@?$numeric_limits@E@std@@2HB DD 08H		; std::numeric_limits<unsigned char>::digits
CONST	ENDS
;	COMDAT ?is_signed@?$numeric_limits@E@std@@2_NB
CONST	SEGMENT
?is_signed@?$numeric_limits@E@std@@2_NB DB 00H		; std::numeric_limits<unsigned char>::is_signed
CONST	ENDS
;	COMDAT ?max_digits10@?$numeric_limits@C@std@@2HB
CONST	SEGMENT
?max_digits10@?$numeric_limits@C@std@@2HB DD 04H	; std::numeric_limits<signed char>::max_digits10
CONST	ENDS
;	COMDAT ?digits10@?$numeric_limits@C@std@@2HB
CONST	SEGMENT
?digits10@?$numeric_limits@C@std@@2HB DD 02H		; std::numeric_limits<signed char>::digits10
CONST	ENDS
;	COMDAT ?digits@?$numeric_limits@C@std@@2HB
CONST	SEGMENT
?digits@?$numeric_limits@C@std@@2HB DD 07H		; std::numeric_limits<signed char>::digits
CONST	ENDS
;	COMDAT ?is_signed@?$numeric_limits@C@std@@2_NB
CONST	SEGMENT
?is_signed@?$numeric_limits@C@std@@2_NB DB 01H		; std::numeric_limits<signed char>::is_signed
CONST	ENDS
;	COMDAT ?max_digits10@?$numeric_limits@_N@std@@2HB
CONST	SEGMENT
?max_digits10@?$numeric_limits@_N@std@@2HB DD 00H	; std::numeric_limits<bool>::max_digits10
CONST	ENDS
;	COMDAT ?digits10@?$numeric_limits@_N@std@@2HB
CONST	SEGMENT
?digits10@?$numeric_limits@_N@std@@2HB DD 00H		; std::numeric_limits<bool>::digits10
CONST	ENDS
;	COMDAT ?digits@?$numeric_limits@_N@std@@2HB
CONST	SEGMENT
?digits@?$numeric_limits@_N@std@@2HB DD 01H		; std::numeric_limits<bool>::digits
CONST	ENDS
;	COMDAT ?is_signed@?$numeric_limits@_N@std@@2_NB
CONST	SEGMENT
?is_signed@?$numeric_limits@_N@std@@2_NB DB 00H		; std::numeric_limits<bool>::is_signed
CONST	ENDS
;	COMDAT ?is_modulo@?$numeric_limits@_N@std@@2_NB
CONST	SEGMENT
?is_modulo@?$numeric_limits@_N@std@@2_NB DB 00H		; std::numeric_limits<bool>::is_modulo
CONST	ENDS
;	COMDAT ?max_digits10@?$numeric_limits@_W@std@@2HB
CONST	SEGMENT
?max_digits10@?$numeric_limits@_W@std@@2HB DD 06H	; std::numeric_limits<wchar_t>::max_digits10
CONST	ENDS
;	COMDAT ?digits10@?$numeric_limits@_W@std@@2HB
CONST	SEGMENT
?digits10@?$numeric_limits@_W@std@@2HB DD 04H		; std::numeric_limits<wchar_t>::digits10
CONST	ENDS
;	COMDAT ?digits@?$numeric_limits@_W@std@@2HB
CONST	SEGMENT
?digits@?$numeric_limits@_W@std@@2HB DD 010H		; std::numeric_limits<wchar_t>::digits
CONST	ENDS
;	COMDAT ?is_signed@?$numeric_limits@_W@std@@2_NB
CONST	SEGMENT
?is_signed@?$numeric_limits@_W@std@@2_NB DB 00H		; std::numeric_limits<wchar_t>::is_signed
CONST	ENDS
;	COMDAT ?max_digits10@?$numeric_limits@D@std@@2HB
CONST	SEGMENT
?max_digits10@?$numeric_limits@D@std@@2HB DD 04H	; std::numeric_limits<char>::max_digits10
CONST	ENDS
;	COMDAT ?digits10@?$numeric_limits@D@std@@2HB
CONST	SEGMENT
?digits10@?$numeric_limits@D@std@@2HB DD 02H		; std::numeric_limits<char>::digits10
CONST	ENDS
;	COMDAT ?digits@?$numeric_limits@D@std@@2HB
CONST	SEGMENT
?digits@?$numeric_limits@D@std@@2HB DD 07H		; std::numeric_limits<char>::digits
CONST	ENDS
;	COMDAT ?is_signed@?$numeric_limits@D@std@@2_NB
CONST	SEGMENT
?is_signed@?$numeric_limits@D@std@@2_NB DB 01H		; std::numeric_limits<char>::is_signed
CONST	ENDS
;	COMDAT ?radix@_Num_float_base@std@@2HB
CONST	SEGMENT
?radix@_Num_float_base@std@@2HB DD 02H			; std::_Num_float_base::radix
CONST	ENDS
;	COMDAT ?round_style@_Num_float_base@std@@2W4float_round_style@2@B
CONST	SEGMENT
?round_style@_Num_float_base@std@@2W4float_round_style@2@B DD 01H ; std::_Num_float_base::round_style
CONST	ENDS
;	COMDAT ?traps@_Num_float_base@std@@2_NB
CONST	SEGMENT
?traps@_Num_float_base@std@@2_NB DB 01H			; std::_Num_float_base::traps
CONST	ENDS
;	COMDAT ?tinyness_before@_Num_float_base@std@@2_NB
CONST	SEGMENT
?tinyness_before@_Num_float_base@std@@2_NB DB 01H	; std::_Num_float_base::tinyness_before
CONST	ENDS
;	COMDAT ?is_specialized@_Num_float_base@std@@2_NB
CONST	SEGMENT
?is_specialized@_Num_float_base@std@@2_NB DB 01H	; std::_Num_float_base::is_specialized
CONST	ENDS
;	COMDAT ?is_signed@_Num_float_base@std@@2_NB
CONST	SEGMENT
?is_signed@_Num_float_base@std@@2_NB DB 01H		; std::_Num_float_base::is_signed
CONST	ENDS
;	COMDAT ?is_modulo@_Num_float_base@std@@2_NB
CONST	SEGMENT
?is_modulo@_Num_float_base@std@@2_NB DB 00H		; std::_Num_float_base::is_modulo
CONST	ENDS
;	COMDAT ?is_integer@_Num_float_base@std@@2_NB
CONST	SEGMENT
?is_integer@_Num_float_base@std@@2_NB DB 00H		; std::_Num_float_base::is_integer
CONST	ENDS
;	COMDAT ?is_iec559@_Num_float_base@std@@2_NB
CONST	SEGMENT
?is_iec559@_Num_float_base@std@@2_NB DB 01H		; std::_Num_float_base::is_iec559
CONST	ENDS
;	COMDAT ?is_exact@_Num_float_base@std@@2_NB
CONST	SEGMENT
?is_exact@_Num_float_base@std@@2_NB DB 00H		; std::_Num_float_base::is_exact
CONST	ENDS
;	COMDAT ?is_bounded@_Num_float_base@std@@2_NB
CONST	SEGMENT
?is_bounded@_Num_float_base@std@@2_NB DB 01H		; std::_Num_float_base::is_bounded
CONST	ENDS
;	COMDAT ?has_signaling_NaN@_Num_float_base@std@@2_NB
CONST	SEGMENT
?has_signaling_NaN@_Num_float_base@std@@2_NB DB 01H	; std::_Num_float_base::has_signaling_NaN
CONST	ENDS
;	COMDAT ?has_quiet_NaN@_Num_float_base@std@@2_NB
CONST	SEGMENT
?has_quiet_NaN@_Num_float_base@std@@2_NB DB 01H		; std::_Num_float_base::has_quiet_NaN
CONST	ENDS
;	COMDAT ?has_infinity@_Num_float_base@std@@2_NB
CONST	SEGMENT
?has_infinity@_Num_float_base@std@@2_NB DB 01H		; std::_Num_float_base::has_infinity
CONST	ENDS
;	COMDAT ?has_denorm_loss@_Num_float_base@std@@2_NB
CONST	SEGMENT
?has_denorm_loss@_Num_float_base@std@@2_NB DB 01H	; std::_Num_float_base::has_denorm_loss
CONST	ENDS
;	COMDAT ?has_denorm@_Num_float_base@std@@2W4float_denorm_style@2@B
CONST	SEGMENT
?has_denorm@_Num_float_base@std@@2W4float_denorm_style@2@B DD 01H ; std::_Num_float_base::has_denorm
CONST	ENDS
;	COMDAT ?radix@_Num_int_base@std@@2HB
CONST	SEGMENT
?radix@_Num_int_base@std@@2HB DD 02H			; std::_Num_int_base::radix
CONST	ENDS
;	COMDAT ?is_specialized@_Num_int_base@std@@2_NB
CONST	SEGMENT
?is_specialized@_Num_int_base@std@@2_NB DB 01H		; std::_Num_int_base::is_specialized
CONST	ENDS
;	COMDAT ?is_modulo@_Num_int_base@std@@2_NB
CONST	SEGMENT
?is_modulo@_Num_int_base@std@@2_NB DB 01H		; std::_Num_int_base::is_modulo
CONST	ENDS
;	COMDAT ?is_integer@_Num_int_base@std@@2_NB
CONST	SEGMENT
?is_integer@_Num_int_base@std@@2_NB DB 01H		; std::_Num_int_base::is_integer
CONST	ENDS
;	COMDAT ?is_exact@_Num_int_base@std@@2_NB
CONST	SEGMENT
?is_exact@_Num_int_base@std@@2_NB DB 01H		; std::_Num_int_base::is_exact
CONST	ENDS
;	COMDAT ?is_bounded@_Num_int_base@std@@2_NB
CONST	SEGMENT
?is_bounded@_Num_int_base@std@@2_NB DB 01H		; std::_Num_int_base::is_bounded
CONST	ENDS
;	COMDAT ?radix@_Num_base@std@@2HB
CONST	SEGMENT
?radix@_Num_base@std@@2HB DD 00H			; std::_Num_base::radix
CONST	ENDS
;	COMDAT ?min_exponent10@_Num_base@std@@2HB
CONST	SEGMENT
?min_exponent10@_Num_base@std@@2HB DD 00H		; std::_Num_base::min_exponent10
CONST	ENDS
;	COMDAT ?min_exponent@_Num_base@std@@2HB
CONST	SEGMENT
?min_exponent@_Num_base@std@@2HB DD 00H			; std::_Num_base::min_exponent
CONST	ENDS
;	COMDAT ?max_exponent10@_Num_base@std@@2HB
CONST	SEGMENT
?max_exponent10@_Num_base@std@@2HB DD 00H		; std::_Num_base::max_exponent10
CONST	ENDS
;	COMDAT ?max_exponent@_Num_base@std@@2HB
CONST	SEGMENT
?max_exponent@_Num_base@std@@2HB DD 00H			; std::_Num_base::max_exponent
CONST	ENDS
;	COMDAT ?max_digits10@_Num_base@std@@2HB
CONST	SEGMENT
?max_digits10@_Num_base@std@@2HB DD 00H			; std::_Num_base::max_digits10
CONST	ENDS
;	COMDAT ?digits10@_Num_base@std@@2HB
CONST	SEGMENT
?digits10@_Num_base@std@@2HB DD 00H			; std::_Num_base::digits10
CONST	ENDS
;	COMDAT ?digits@_Num_base@std@@2HB
CONST	SEGMENT
?digits@_Num_base@std@@2HB DD 00H			; std::_Num_base::digits
CONST	ENDS
;	COMDAT ?round_style@_Num_base@std@@2W4float_round_style@2@B
CONST	SEGMENT
?round_style@_Num_base@std@@2W4float_round_style@2@B DD 00H ; std::_Num_base::round_style
CONST	ENDS
;	COMDAT ?traps@_Num_base@std@@2_NB
CONST	SEGMENT
?traps@_Num_base@std@@2_NB DB 00H			; std::_Num_base::traps
CONST	ENDS
;	COMDAT ?tinyness_before@_Num_base@std@@2_NB
CONST	SEGMENT
?tinyness_before@_Num_base@std@@2_NB DB 00H		; std::_Num_base::tinyness_before
CONST	ENDS
;	COMDAT ?is_specialized@_Num_base@std@@2_NB
CONST	SEGMENT
?is_specialized@_Num_base@std@@2_NB DB 00H		; std::_Num_base::is_specialized
CONST	ENDS
;	COMDAT ?is_signed@_Num_base@std@@2_NB
CONST	SEGMENT
?is_signed@_Num_base@std@@2_NB DB 00H			; std::_Num_base::is_signed
CONST	ENDS
;	COMDAT ?is_modulo@_Num_base@std@@2_NB
CONST	SEGMENT
?is_modulo@_Num_base@std@@2_NB DB 00H			; std::_Num_base::is_modulo
CONST	ENDS
;	COMDAT ?is_integer@_Num_base@std@@2_NB
CONST	SEGMENT
?is_integer@_Num_base@std@@2_NB DB 00H			; std::_Num_base::is_integer
CONST	ENDS
;	COMDAT ?is_iec559@_Num_base@std@@2_NB
CONST	SEGMENT
?is_iec559@_Num_base@std@@2_NB DB 00H			; std::_Num_base::is_iec559
CONST	ENDS
;	COMDAT ?is_exact@_Num_base@std@@2_NB
CONST	SEGMENT
?is_exact@_Num_base@std@@2_NB DB 00H			; std::_Num_base::is_exact
CONST	ENDS
;	COMDAT ?is_bounded@_Num_base@std@@2_NB
CONST	SEGMENT
?is_bounded@_Num_base@std@@2_NB DB 00H			; std::_Num_base::is_bounded
CONST	ENDS
;	COMDAT ?has_signaling_NaN@_Num_base@std@@2_NB
CONST	SEGMENT
?has_signaling_NaN@_Num_base@std@@2_NB DB 00H		; std::_Num_base::has_signaling_NaN
CONST	ENDS
;	COMDAT ?has_quiet_NaN@_Num_base@std@@2_NB
CONST	SEGMENT
?has_quiet_NaN@_Num_base@std@@2_NB DB 00H		; std::_Num_base::has_quiet_NaN
CONST	ENDS
;	COMDAT ?has_infinity@_Num_base@std@@2_NB
CONST	SEGMENT
?has_infinity@_Num_base@std@@2_NB DB 00H		; std::_Num_base::has_infinity
CONST	ENDS
;	COMDAT ?has_denorm_loss@_Num_base@std@@2_NB
CONST	SEGMENT
?has_denorm_loss@_Num_base@std@@2_NB DB 00H		; std::_Num_base::has_denorm_loss
CONST	ENDS
;	COMDAT ?has_denorm@_Num_base@std@@2W4float_denorm_style@2@B
CONST	SEGMENT
?has_denorm@_Num_base@std@@2W4float_denorm_style@2@B DD 00H ; std::_Num_base::has_denorm
CONST	ENDS
PUBLIC	??1?$vector@UVector2D@@V?$allocator@UVector2D@@@std@@@std@@QAE@XZ ; std::vector<Vector2D,std::allocator<Vector2D> >::~vector<Vector2D,std::allocator<Vector2D> >
PUBLIC	??0?$vector@UVector2D@@V?$allocator@UVector2D@@@std@@@std@@QAE@I@Z ; std::vector<Vector2D,std::allocator<Vector2D> >::vector<Vector2D,std::allocator<Vector2D> >
PUBLIC	??0Vector2D@@QAE@XZ				; Vector2D::Vector2D
PUBLIC	??_7AbstSteering@@6B@				; AbstSteering::`vftable'
PUBLIC	??0AbstSteering@@QAE@PAVRaven_Game@@PAVAbstRaven_Bot@@@Z ; AbstSteering::AbstSteering
PUBLIC	??_R4AbstSteering@@6B@				; AbstSteering::`RTTI Complete Object Locator'
PUBLIC	??_R0?AVAbstSteering@@@8			; AbstSteering `RTTI Type Descriptor'
PUBLIC	??_R3AbstSteering@@8				; AbstSteering::`RTTI Class Hierarchy Descriptor'
PUBLIC	??_R2AbstSteering@@8				; AbstSteering::`RTTI Base Class Array'
PUBLIC	??_R1A@?0A@EA@AbstSteering@@8			; AbstSteering::`RTTI Base Class Descriptor at (0,-1,0,64)'
PUBLIC	?Seek@AbstSteering@@MAE?AUVector2D@@ABU2@@Z	; AbstSteering::Seek
PUBLIC	?Arrive@AbstSteering@@MAE?AUVector2D@@ABU2@W4Deceleration@1@@Z ; AbstSteering::Arrive
PUBLIC	?Wander@AbstSteering@@MAE?AUVector2D@@XZ	; AbstSteering::Wander
PUBLIC	?WallAvoidance@AbstSteering@@MAE?AUVector2D@@ABV?$vector@PAVWall2D@@V?$allocator@PAVWall2D@@@std@@@std@@@Z ; AbstSteering::WallAvoidance
PUBLIC	?Separation@AbstSteering@@MAE?AUVector2D@@ABV?$list@PAVAbstRaven_Bot@@V?$allocator@PAVAbstRaven_Bot@@@std@@@std@@@Z ; AbstSteering::Separation
PUBLIC	?CalculatePrioritized@AbstSteering@@MAE?AUVector2D@@XZ ; AbstSteering::CalculatePrioritized
PUBLIC	?Calculate@AbstSteering@@UAE?AUVector2D@@XZ	; AbstSteering::Calculate
EXTRN	___security_cookie:DWORD
EXTRN	___CxxFrameHandler3:PROC
EXTRN	@__security_check_cookie@4:PROC
EXTRN	__RTC_CheckEsp:PROC
EXTRN	__RTC_Shutdown:PROC
EXTRN	__RTC_InitBase:PROC
EXTRN	??_7type_info@@6B@:QWORD			; type_info::`vftable'
EXTRN	??_EAbstSteering@@UAEPAXI@Z:PROC		; AbstSteering::`vector deleting destructor'
;	COMDAT ??_R1A@?0A@EA@AbstSteering@@8
; File c:\users\teaja\documents\artificial-fun\labravenprojecttest\raven\abststeeringbehaviors.cpp
rdata$r	SEGMENT
??_R1A@?0A@EA@AbstSteering@@8 DD FLAT:??_R0?AVAbstSteering@@@8 ; AbstSteering::`RTTI Base Class Descriptor at (0,-1,0,64)'
	DD	00H
	DD	00H
	DD	0ffffffffH
	DD	00H
	DD	040H
	DD	FLAT:??_R3AbstSteering@@8
rdata$r	ENDS
;	COMDAT ??_R2AbstSteering@@8
rdata$r	SEGMENT
??_R2AbstSteering@@8 DD FLAT:??_R1A@?0A@EA@AbstSteering@@8 ; AbstSteering::`RTTI Base Class Array'
rdata$r	ENDS
;	COMDAT ??_R3AbstSteering@@8
rdata$r	SEGMENT
??_R3AbstSteering@@8 DD 00H				; AbstSteering::`RTTI Class Hierarchy Descriptor'
	DD	00H
	DD	01H
	DD	FLAT:??_R2AbstSteering@@8
rdata$r	ENDS
;	COMDAT ??_R0?AVAbstSteering@@@8
_DATA	SEGMENT
??_R0?AVAbstSteering@@@8 DD FLAT:??_7type_info@@6B@	; AbstSteering `RTTI Type Descriptor'
	DD	00H
	DB	'.?AVAbstSteering@@', 00H
_DATA	ENDS
;	COMDAT ??_R4AbstSteering@@6B@
rdata$r	SEGMENT
??_R4AbstSteering@@6B@ DD 00H				; AbstSteering::`RTTI Complete Object Locator'
	DD	00H
	DD	00H
	DD	FLAT:??_R0?AVAbstSteering@@@8
	DD	FLAT:??_R3AbstSteering@@8
rdata$r	ENDS
;	COMDAT ??_7AbstSteering@@6B@
CONST	SEGMENT
??_7AbstSteering@@6B@ DD FLAT:??_R4AbstSteering@@6B@	; AbstSteering::`vftable'
	DD	FLAT:?Seek@AbstSteering@@MAE?AUVector2D@@ABU2@@Z
	DD	FLAT:?Arrive@AbstSteering@@MAE?AUVector2D@@ABU2@W4Deceleration@1@@Z
	DD	FLAT:?Wander@AbstSteering@@MAE?AUVector2D@@XZ
	DD	FLAT:?WallAvoidance@AbstSteering@@MAE?AUVector2D@@ABV?$vector@PAVWall2D@@V?$allocator@PAVWall2D@@@std@@@std@@@Z
	DD	FLAT:?Separation@AbstSteering@@MAE?AUVector2D@@ABV?$list@PAVAbstRaven_Bot@@V?$allocator@PAVAbstRaven_Bot@@@std@@@std@@@Z
	DD	FLAT:?CalculatePrioritized@AbstSteering@@MAE?AUVector2D@@XZ
	DD	FLAT:??_EAbstSteering@@UAEPAXI@Z
	DD	FLAT:?Calculate@AbstSteering@@UAE?AUVector2D@@XZ
CONST	ENDS
xdata$x	SEGMENT
__unwindtable$??0AbstSteering@@QAE@PAVRaven_Game@@PAVAbstRaven_Bot@@@Z DD 0ffffffffH
	DD	FLAT:__unwindfunclet$??0AbstSteering@@QAE@PAVRaven_Game@@PAVAbstRaven_Bot@@@Z$0
__ehfuncinfo$??0AbstSteering@@QAE@PAVRaven_Game@@PAVAbstRaven_Bot@@@Z DD 019930522H
	DD	01H
	DD	FLAT:__unwindtable$??0AbstSteering@@QAE@PAVRaven_Game@@PAVAbstRaven_Bot@@@Z
	DD	2 DUP(00H)
	DD	2 DUP(00H)
	DD	00H
	DD	01H
xdata$x	ENDS
;	COMDAT rtc$TMZ
rtc$TMZ	SEGMENT
__RTC_Shutdown.rtc$TMZ DD FLAT:__RTC_Shutdown
rtc$TMZ	ENDS
;	COMDAT rtc$IMZ
rtc$IMZ	SEGMENT
__RTC_InitBase.rtc$IMZ DD FLAT:__RTC_InitBase
; Function compile flags: /Odtp /RTCsu
rtc$IMZ	ENDS
_TEXT	SEGMENT
_this$ = -16						; size = 4
__$EHRec$ = -12						; size = 12
_world$ = 8						; size = 4
_agent$ = 12						; size = 4
??0AbstSteering@@QAE@PAVRaven_Game@@PAVAbstRaven_Bot@@@Z PROC ; AbstSteering::AbstSteering
; _this$ = ecx

; 32   : {

	push	ebp
	mov	ebp, esp
	push	-1
	push	__ehhandler$??0AbstSteering@@QAE@PAVRaven_Game@@PAVAbstRaven_Bot@@@Z
	mov	eax, DWORD PTR fs:0
	push	eax
	push	ecx
	mov	DWORD PTR [ebp-16], -858993460		; ccccccccH
	mov	eax, DWORD PTR ___security_cookie
	xor	eax, ebp
	push	eax
	lea	eax, DWORD PTR __$EHRec$[ebp]
	mov	DWORD PTR fs:0, eax
	mov	DWORD PTR _this$[ebp], ecx
	mov	eax, DWORD PTR _this$[ebp]
	mov	DWORD PTR [eax], OFFSET ??_7AbstSteering@@6B@
	mov	ecx, DWORD PTR _this$[ebp]
	mov	edx, DWORD PTR _agent$[ebp]
	mov	DWORD PTR [ecx+8], edx
	mov	eax, DWORD PTR _this$[ebp]
	mov	ecx, DWORD PTR _world$[ebp]
	mov	DWORD PTR [eax+12], ecx
	mov	ecx, DWORD PTR _this$[ebp]
	add	ecx, 16					; 00000010H
	call	??0Vector2D@@QAE@XZ			; Vector2D::Vector2D
	mov	edx, DWORD PTR _this$[ebp]
	mov	DWORD PTR [edx+32], 0
	mov	eax, DWORD PTR _this$[ebp]
	mov	DWORD PTR [eax+36], 0
	mov	ecx, DWORD PTR _this$[ebp]
	add	ecx, 40					; 00000028H
	call	??0Vector2D@@QAE@XZ			; Vector2D::Vector2D
	push	3
	mov	ecx, DWORD PTR _this$[ebp]
	add	ecx, 56					; 00000038H
	call	??0?$vector@UVector2D@@V?$allocator@UVector2D@@@std@@@std@@QAE@I@Z ; std::vector<Vector2D,std::allocator<Vector2D> >::vector<Vector2D,std::allocator<Vector2D> >
	mov	DWORD PTR __$EHRec$[ebp+8], 0
	mov	ecx, DWORD PTR _this$[ebp]
	add	ecx, 88					; 00000058H
	call	??0Vector2D@@QAE@XZ			; Vector2D::Vector2D
	mov	ecx, DWORD PTR _this$[ebp]
	mov	DWORD PTR [ecx+176], 0

; 33   : 
; 34   : }

	mov	DWORD PTR __$EHRec$[ebp+8], -1
	mov	eax, DWORD PTR _this$[ebp]
	mov	ecx, DWORD PTR __$EHRec$[ebp]
	mov	DWORD PTR fs:0, ecx
	pop	ecx
	add	esp, 16					; 00000010H
	cmp	ebp, esp
	call	__RTC_CheckEsp
	mov	esp, ebp
	pop	ebp
	ret	8
_TEXT	ENDS
text$x	SEGMENT
__unwindfunclet$??0AbstSteering@@QAE@PAVRaven_Game@@PAVAbstRaven_Bot@@@Z$0:
	mov	ecx, DWORD PTR _this$[ebp]
	add	ecx, 56					; 00000038H
	jmp	??1?$vector@UVector2D@@V?$allocator@UVector2D@@@std@@@std@@QAE@XZ ; std::vector<Vector2D,std::allocator<Vector2D> >::~vector<Vector2D,std::allocator<Vector2D> >
__ehhandler$??0AbstSteering@@QAE@PAVRaven_Game@@PAVAbstRaven_Bot@@@Z:
	mov	edx, DWORD PTR [esp+8]
	lea	eax, DWORD PTR [edx+12]
	mov	ecx, DWORD PTR [edx-8]
	xor	ecx, eax
	call	@__security_check_cookie@4
	mov	eax, OFFSET __ehfuncinfo$??0AbstSteering@@QAE@PAVRaven_Game@@PAVAbstRaven_Bot@@@Z
	jmp	___CxxFrameHandler3
text$x	ENDS
??0AbstSteering@@QAE@PAVRaven_Game@@PAVAbstRaven_Bot@@@Z ENDP ; AbstSteering::AbstSteering
PUBLIC	__real@0000000000000000
EXTRN	__fltused:DWORD
;	COMDAT __real@0000000000000000
; File c:\users\teaja\documents\artificial-fun\labravenprojecttest\common\2d\vector2d.h
CONST	SEGMENT
__real@0000000000000000 DQ 00000000000000000r	; 0
; Function compile flags: /Odtp /RTCsu
CONST	ENDS
;	COMDAT ??0Vector2D@@QAE@XZ
_TEXT	SEGMENT
_this$ = -4						; size = 4
??0Vector2D@@QAE@XZ PROC				; Vector2D::Vector2D, COMDAT
; _this$ = ecx

; 24   :   Vector2D():x(0.0),y(0.0){}

	push	ebp
	mov	ebp, esp
	push	ecx
	mov	DWORD PTR [ebp-4], -858993460		; ccccccccH
	mov	DWORD PTR _this$[ebp], ecx
	mov	eax, DWORD PTR _this$[ebp]
	fldz
	fstp	QWORD PTR [eax]
	mov	ecx, DWORD PTR _this$[ebp]
	fldz
	fstp	QWORD PTR [ecx+8]
	mov	eax, DWORD PTR _this$[ebp]
	mov	esp, ebp
	pop	ebp
	ret	0
??0Vector2D@@QAE@XZ ENDP				; Vector2D::Vector2D
_TEXT	ENDS
PUBLIC	??1AbstSteering@@UAE@XZ				; AbstSteering::~AbstSteering
EXTRN	??3@YAXPAX@Z:PROC				; operator delete
; Function compile flags: /Odtp /RTCsu
;	COMDAT ??_GAbstSteering@@UAEPAXI@Z
_TEXT	SEGMENT
_this$ = -4						; size = 4
___flags$ = 8						; size = 4
??_GAbstSteering@@UAEPAXI@Z PROC			; AbstSteering::`scalar deleting destructor', COMDAT
; _this$ = ecx
	push	ebp
	mov	ebp, esp
	push	ecx
	mov	DWORD PTR [ebp-4], -858993460		; ccccccccH
	mov	DWORD PTR _this$[ebp], ecx
	mov	ecx, DWORD PTR _this$[ebp]
	call	??1AbstSteering@@UAE@XZ			; AbstSteering::~AbstSteering
	mov	eax, DWORD PTR ___flags$[ebp]
	and	eax, 1
	je	SHORT $LN1@scalar
	mov	ecx, DWORD PTR _this$[ebp]
	push	ecx
	call	??3@YAXPAX@Z				; operator delete
	add	esp, 4
$LN1@scalar:
	mov	eax, DWORD PTR _this$[ebp]
	add	esp, 4
	cmp	ebp, esp
	call	__RTC_CheckEsp
	mov	esp, ebp
	pop	ebp
	ret	4
??_GAbstSteering@@UAEPAXI@Z ENDP			; AbstSteering::`scalar deleting destructor'
; Function compile flags: /Odtp /RTCsu
; File c:\users\teaja\documents\artificial-fun\labravenprojecttest\raven\abststeeringbehaviors.cpp
_TEXT	ENDS
_TEXT	SEGMENT
_this$ = -4						; size = 4
??1AbstSteering@@UAE@XZ PROC				; AbstSteering::~AbstSteering
; _this$ = ecx

; 37   : AbstSteering::~AbstSteering(){}

	push	ebp
	mov	ebp, esp
	push	ecx
	mov	DWORD PTR [ebp-4], -858993460		; ccccccccH
	mov	DWORD PTR _this$[ebp], ecx
	mov	eax, DWORD PTR _this$[ebp]
	mov	DWORD PTR [eax], OFFSET ??_7AbstSteering@@6B@
	mov	ecx, DWORD PTR _this$[ebp]
	add	ecx, 56					; 00000038H
	call	??1?$vector@UVector2D@@V?$allocator@UVector2D@@@std@@@std@@QAE@XZ ; std::vector<Vector2D,std::allocator<Vector2D> >::~vector<Vector2D,std::allocator<Vector2D> >
	add	esp, 4
	cmp	ebp, esp
	call	__RTC_CheckEsp
	mov	esp, ebp
	pop	ebp
	ret	0
??1AbstSteering@@UAE@XZ ENDP				; AbstSteering::~AbstSteering
_TEXT	ENDS
PUBLIC	?TagRaven_BotsWithinViewRange@Raven_Game@@QAEXPAVBaseGameEntity@@N@Z ; Raven_Game::TagRaven_BotsWithinViewRange
PUBLIC	?On@AbstSteering@@IAE_NW4behavior_type@1@@Z	; AbstSteering::On
PUBLIC	?Zero@Vector2D@@QAEXXZ				; Vector2D::Zero
; Function compile flags: /Odtp /RTCsu
_TEXT	SEGMENT
$T146147 = -20						; size = 16
_this$ = -4						; size = 4
___$ReturnUdt$ = 8					; size = 4
?Calculate@AbstSteering@@UAE?AUVector2D@@XZ PROC	; AbstSteering::Calculate
; _this$ = ecx

; 49   : { 

	push	ebp
	mov	ebp, esp
	sub	esp, 20					; 00000014H
	push	esi
	mov	eax, -858993460				; ccccccccH
	mov	DWORD PTR [ebp-20], eax
	mov	DWORD PTR [ebp-16], eax
	mov	DWORD PTR [ebp-12], eax
	mov	DWORD PTR [ebp-8], eax
	mov	DWORD PTR [ebp-4], eax
	mov	DWORD PTR _this$[ebp], ecx

; 50   :   //reset the steering force
; 51   :   m_vSteeringForce.Zero();

	mov	ecx, DWORD PTR _this$[ebp]
	add	ecx, 16					; 00000010H
	call	?Zero@Vector2D@@QAEXXZ			; Vector2D::Zero

; 52   : 
; 53   :   //tag neighbors if any of the following 3 group behaviors are switched on
; 54   :   if (On(separation))

	push	64					; 00000040H
	mov	ecx, DWORD PTR _this$[ebp]
	call	?On@AbstSteering@@IAE_NW4behavior_type@1@@Z ; AbstSteering::On
	movzx	eax, al
	test	eax, eax
	je	SHORT $LN1@Calculate

; 55   :   {
; 56   :     m_pWorld->TagRaven_BotsWithinViewRange(m_pRaven_Bot, m_dViewDistance);

	mov	ecx, DWORD PTR _this$[ebp]
	sub	esp, 8
	fld	QWORD PTR [ecx+168]
	fstp	QWORD PTR [esp]
	mov	edx, DWORD PTR _this$[ebp]
	mov	eax, DWORD PTR [edx+8]
	push	eax
	mov	ecx, DWORD PTR _this$[ebp]
	mov	ecx, DWORD PTR [ecx+12]
	call	?TagRaven_BotsWithinViewRange@Raven_Game@@QAEXPAVBaseGameEntity@@N@Z ; Raven_Game::TagRaven_BotsWithinViewRange
$LN1@Calculate:

; 57   :   }
; 58   : 
; 59   :   m_vSteeringForce = CalculatePrioritized();

	mov	esi, esp
	lea	edx, DWORD PTR $T146147[ebp]
	push	edx
	mov	eax, DWORD PTR _this$[ebp]
	mov	edx, DWORD PTR [eax]
	mov	ecx, DWORD PTR _this$[ebp]
	mov	eax, DWORD PTR [edx+20]
	call	eax
	cmp	esi, esp
	call	__RTC_CheckEsp
	mov	ecx, DWORD PTR _this$[ebp]
	add	ecx, 16					; 00000010H
	mov	edx, DWORD PTR [eax]
	mov	DWORD PTR [ecx], edx
	mov	edx, DWORD PTR [eax+4]
	mov	DWORD PTR [ecx+4], edx
	mov	edx, DWORD PTR [eax+8]
	mov	DWORD PTR [ecx+8], edx
	mov	eax, DWORD PTR [eax+12]
	mov	DWORD PTR [ecx+12], eax

; 60   : 
; 61   :   return m_vSteeringForce;

	mov	ecx, DWORD PTR _this$[ebp]
	add	ecx, 16					; 00000010H
	mov	edx, DWORD PTR ___$ReturnUdt$[ebp]
	mov	eax, DWORD PTR [ecx]
	mov	DWORD PTR [edx], eax
	mov	eax, DWORD PTR [ecx+4]
	mov	DWORD PTR [edx+4], eax
	mov	eax, DWORD PTR [ecx+8]
	mov	DWORD PTR [edx+8], eax
	mov	ecx, DWORD PTR [ecx+12]
	mov	DWORD PTR [edx+12], ecx
	mov	eax, DWORD PTR ___$ReturnUdt$[ebp]

; 62   : }

	pop	esi
	add	esp, 20					; 00000014H
	cmp	ebp, esp
	call	__RTC_CheckEsp
	mov	esp, ebp
	pop	ebp
	ret	4
?Calculate@AbstSteering@@UAE?AUVector2D@@XZ ENDP	; AbstSteering::Calculate
; Function compile flags: /Odtp /RTCsu
; File c:\users\teaja\documents\artificial-fun\labravenprojecttest\common\2d\vector2d.h
_TEXT	ENDS
;	COMDAT ?Zero@Vector2D@@QAEXXZ
_TEXT	SEGMENT
_this$ = -4						; size = 4
?Zero@Vector2D@@QAEXXZ PROC				; Vector2D::Zero, COMDAT
; _this$ = ecx

; 28   :   void Zero(){x=0.0; y=0.0;}

	push	ebp
	mov	ebp, esp
	push	ecx
	mov	DWORD PTR [ebp-4], -858993460		; ccccccccH
	mov	DWORD PTR _this$[ebp], ecx
	mov	eax, DWORD PTR _this$[ebp]
	fldz
	fstp	QWORD PTR [eax]
	mov	ecx, DWORD PTR _this$[ebp]
	fldz
	fstp	QWORD PTR [ecx+8]
	mov	esp, ebp
	pop	ebp
	ret	0
?Zero@Vector2D@@QAEXXZ ENDP				; Vector2D::Zero
; Function compile flags: /Odtp /RTCsu
; File c:\users\teaja\documents\artificial-fun\labravenprojecttest\raven\abststeeringbehaviors.h
_TEXT	ENDS
;	COMDAT ?On@AbstSteering@@IAE_NW4behavior_type@1@@Z
_TEXT	SEGMENT
_this$ = -4						; size = 4
_bt$ = 8						; size = 4
?On@AbstSteering@@IAE_NW4behavior_type@1@@Z PROC	; AbstSteering::On, COMDAT
; _this$ = ecx

; 115  :   bool      On(behavior_type bt){return (m_iFlags & bt) == bt;}

	push	ebp
	mov	ebp, esp
	push	ecx
	mov	DWORD PTR [ebp-4], -858993460		; ccccccccH
	mov	DWORD PTR _this$[ebp], ecx
	mov	eax, DWORD PTR _this$[ebp]
	mov	ecx, DWORD PTR [eax+176]
	and	ecx, DWORD PTR _bt$[ebp]
	xor	eax, eax
	cmp	ecx, DWORD PTR _bt$[ebp]
	sete	al
	mov	esp, ebp
	pop	ebp
	ret	4
?On@AbstSteering@@IAE_NW4behavior_type@1@@Z ENDP	; AbstSteering::On
_TEXT	ENDS
PUBLIC	??$TagNeighbors@VBaseGameEntity@@V?$list@PAVAbstRaven_Bot@@V?$allocator@PAVAbstRaven_Bot@@@std@@@std@@@@YAXPAVBaseGameEntity@@AAV?$list@PAVAbstRaven_Bot@@V?$allocator@PAVAbstRaven_Bot@@@std@@@std@@N@Z ; TagNeighbors<BaseGameEntity,std::list<AbstRaven_Bot *,std::allocator<AbstRaven_Bot *> > >
; Function compile flags: /Odtp /RTCsu
; File c:\users\teaja\documents\artificial-fun\labravenprojecttest\raven\raven_game.h
;	COMDAT ?TagRaven_BotsWithinViewRange@Raven_Game@@QAEXPAVBaseGameEntity@@N@Z
_TEXT	SEGMENT
_this$ = -4						; size = 4
_pRaven_Bot$ = 8					; size = 4
_range$ = 12						; size = 8
?TagRaven_BotsWithinViewRange@Raven_Game@@QAEXPAVBaseGameEntity@@N@Z PROC ; Raven_Game::TagRaven_BotsWithinViewRange, COMDAT
; _this$ = ecx

; 173  :               {TagNeighbors(pRaven_Bot, m_Bots, range);} 

	push	ebp
	mov	ebp, esp
	push	ecx
	mov	DWORD PTR [ebp-4], -858993460		; ccccccccH
	mov	DWORD PTR _this$[ebp], ecx
	sub	esp, 8
	fld	QWORD PTR _range$[ebp]
	fstp	QWORD PTR [esp]
	mov	eax, DWORD PTR _this$[ebp]
	add	eax, 16					; 00000010H
	push	eax
	mov	ecx, DWORD PTR _pRaven_Bot$[ebp]
	push	ecx
	call	??$TagNeighbors@VBaseGameEntity@@V?$list@PAVAbstRaven_Bot@@V?$allocator@PAVAbstRaven_Bot@@@std@@@std@@@@YAXPAVBaseGameEntity@@AAV?$list@PAVAbstRaven_Bot@@V?$allocator@PAVAbstRaven_Bot@@@std@@@std@@N@Z ; TagNeighbors<BaseGameEntity,std::list<AbstRaven_Bot *,std::allocator<AbstRaven_Bot *> > >
	add	esp, 16					; 00000010H
	add	esp, 4
	cmp	ebp, esp
	call	__RTC_CheckEsp
	mov	esp, ebp
	pop	ebp
	ret	12					; 0000000cH
?TagRaven_BotsWithinViewRange@Raven_Game@@QAEXPAVBaseGameEntity@@N@Z ENDP ; Raven_Game::TagRaven_BotsWithinViewRange
_TEXT	ENDS
PUBLIC	?Dot@Vector2D@@QBENABU1@@Z			; Vector2D::Dot
PUBLIC	?Heading@MovingEntity@@QBE?AUVector2D@@XZ	; MovingEntity::Heading
PUBLIC	?ForwardComponent@AbstSteering@@QAENXZ		; AbstSteering::ForwardComponent
; Function compile flags: /Odtp /RTCsu
; File c:\users\teaja\documents\artificial-fun\labravenprojecttest\raven\abststeeringbehaviors.cpp
_TEXT	SEGMENT
$T146155 = -20						; size = 16
_this$ = -4						; size = 4
?ForwardComponent@AbstSteering@@QAENXZ PROC		; AbstSteering::ForwardComponent
; _this$ = ecx

; 69   : {

	push	ebp
	mov	ebp, esp
	sub	esp, 20					; 00000014H
	mov	eax, -858993460				; ccccccccH
	mov	DWORD PTR [ebp-20], eax
	mov	DWORD PTR [ebp-16], eax
	mov	DWORD PTR [ebp-12], eax
	mov	DWORD PTR [ebp-8], eax
	mov	DWORD PTR [ebp-4], eax
	mov	DWORD PTR _this$[ebp], ecx

; 70   :   return m_pRaven_Bot->Heading().Dot(m_vSteeringForce);

	mov	eax, DWORD PTR _this$[ebp]
	add	eax, 16					; 00000010H
	push	eax
	lea	ecx, DWORD PTR $T146155[ebp]
	push	ecx
	mov	edx, DWORD PTR _this$[ebp]
	mov	ecx, DWORD PTR [edx+8]
	call	?Heading@MovingEntity@@QBE?AUVector2D@@XZ ; MovingEntity::Heading
	mov	ecx, eax
	call	?Dot@Vector2D@@QBENABU1@@Z		; Vector2D::Dot

; 71   : }

	add	esp, 20					; 00000014H
	cmp	ebp, esp
	call	__RTC_CheckEsp
	mov	esp, ebp
	pop	ebp
	ret	0
?ForwardComponent@AbstSteering@@QAENXZ ENDP		; AbstSteering::ForwardComponent
; Function compile flags: /Odtp /RTCsu
; File c:\users\teaja\documents\artificial-fun\labravenprojecttest\common\2d\vector2d.h
_TEXT	ENDS
;	COMDAT ?Dot@Vector2D@@QBENABU1@@Z
_TEXT	SEGMENT
_this$ = -4						; size = 4
_v2$ = 8						; size = 4
?Dot@Vector2D@@QBENABU1@@Z PROC				; Vector2D::Dot, COMDAT
; _this$ = ecx

; 148  : {

	push	ebp
	mov	ebp, esp
	push	ecx
	mov	DWORD PTR [ebp-4], -858993460		; ccccccccH
	mov	DWORD PTR _this$[ebp], ecx

; 149  :   return x*v2.x + y*v2.y;

	mov	eax, DWORD PTR _this$[ebp]
	mov	ecx, DWORD PTR _v2$[ebp]
	fld	QWORD PTR [eax]
	fmul	QWORD PTR [ecx]
	mov	edx, DWORD PTR _this$[ebp]
	mov	eax, DWORD PTR _v2$[ebp]
	fld	QWORD PTR [edx+8]
	fmul	QWORD PTR [eax+8]
	faddp	ST(1), ST(0)

; 150  : }

	mov	esp, ebp
	pop	ebp
	ret	4
?Dot@Vector2D@@QBENABU1@@Z ENDP				; Vector2D::Dot
; Function compile flags: /Odtp /RTCsu
; File c:\users\teaja\documents\artificial-fun\labravenprojecttest\common\game\movingentity.h
_TEXT	ENDS
;	COMDAT ?Heading@MovingEntity@@QBE?AUVector2D@@XZ
_TEXT	SEGMENT
_this$ = -4						; size = 4
___$ReturnUdt$ = 8					; size = 4
?Heading@MovingEntity@@QBE?AUVector2D@@XZ PROC		; MovingEntity::Heading, COMDAT
; _this$ = ecx

; 92   :   Vector2D  Heading()const{return m_vHeading;}

	push	ebp
	mov	ebp, esp
	push	ecx
	mov	DWORD PTR [ebp-4], -858993460		; ccccccccH
	mov	DWORD PTR _this$[ebp], ecx
	mov	eax, DWORD PTR _this$[ebp]
	add	eax, 80					; 00000050H
	mov	ecx, DWORD PTR ___$ReturnUdt$[ebp]
	mov	edx, DWORD PTR [eax]
	mov	DWORD PTR [ecx], edx
	mov	edx, DWORD PTR [eax+4]
	mov	DWORD PTR [ecx+4], edx
	mov	edx, DWORD PTR [eax+8]
	mov	DWORD PTR [ecx+8], edx
	mov	eax, DWORD PTR [eax+12]
	mov	DWORD PTR [ecx+12], eax
	mov	eax, DWORD PTR ___$ReturnUdt$[ebp]
	mov	esp, ebp
	pop	ebp
	ret	4
?Heading@MovingEntity@@QBE?AUVector2D@@XZ ENDP		; MovingEntity::Heading
_TEXT	ENDS
PUBLIC	?Side@MovingEntity@@QBE?AUVector2D@@XZ		; MovingEntity::Side
PUBLIC	?SideComponent@AbstSteering@@QAENXZ		; AbstSteering::SideComponent
; Function compile flags: /Odtp /RTCsu
; File c:\users\teaja\documents\artificial-fun\labravenprojecttest\raven\abststeeringbehaviors.cpp
_TEXT	SEGMENT
$T146161 = -20						; size = 16
_this$ = -4						; size = 4
?SideComponent@AbstSteering@@QAENXZ PROC		; AbstSteering::SideComponent
; _this$ = ecx

; 77   : {

	push	ebp
	mov	ebp, esp
	sub	esp, 20					; 00000014H
	mov	eax, -858993460				; ccccccccH
	mov	DWORD PTR [ebp-20], eax
	mov	DWORD PTR [ebp-16], eax
	mov	DWORD PTR [ebp-12], eax
	mov	DWORD PTR [ebp-8], eax
	mov	DWORD PTR [ebp-4], eax
	mov	DWORD PTR _this$[ebp], ecx

; 78   :   return m_pRaven_Bot->Side().Dot(m_vSteeringForce);

	mov	eax, DWORD PTR _this$[ebp]
	add	eax, 16					; 00000010H
	push	eax
	lea	ecx, DWORD PTR $T146161[ebp]
	push	ecx
	mov	edx, DWORD PTR _this$[ebp]
	mov	ecx, DWORD PTR [edx+8]
	call	?Side@MovingEntity@@QBE?AUVector2D@@XZ	; MovingEntity::Side
	mov	ecx, eax
	call	?Dot@Vector2D@@QBENABU1@@Z		; Vector2D::Dot

; 79   : }

	add	esp, 20					; 00000014H
	cmp	ebp, esp
	call	__RTC_CheckEsp
	mov	esp, ebp
	pop	ebp
	ret	0
?SideComponent@AbstSteering@@QAENXZ ENDP		; AbstSteering::SideComponent
; Function compile flags: /Odtp /RTCsu
; File c:\users\teaja\documents\artificial-fun\labravenprojecttest\common\game\movingentity.h
_TEXT	ENDS
;	COMDAT ?Side@MovingEntity@@QBE?AUVector2D@@XZ
_TEXT	SEGMENT
_this$ = -4						; size = 4
___$ReturnUdt$ = 8					; size = 4
?Side@MovingEntity@@QBE?AUVector2D@@XZ PROC		; MovingEntity::Side, COMDAT
; _this$ = ecx

; 80   :   Vector2D  Side()const{return m_vSide;}

	push	ebp
	mov	ebp, esp
	push	ecx
	mov	DWORD PTR [ebp-4], -858993460		; ccccccccH
	mov	DWORD PTR _this$[ebp], ecx
	mov	eax, DWORD PTR _this$[ebp]
	add	eax, 96					; 00000060H
	mov	ecx, DWORD PTR ___$ReturnUdt$[ebp]
	mov	edx, DWORD PTR [eax]
	mov	DWORD PTR [ecx], edx
	mov	edx, DWORD PTR [eax+4]
	mov	DWORD PTR [ecx+4], edx
	mov	edx, DWORD PTR [eax+8]
	mov	DWORD PTR [ecx+8], edx
	mov	eax, DWORD PTR [eax+12]
	mov	DWORD PTR [ecx+12], eax
	mov	eax, DWORD PTR ___$ReturnUdt$[ebp]
	mov	esp, ebp
	pop	ebp
	ret	4
?Side@MovingEntity@@QBE?AUVector2D@@XZ ENDP		; MovingEntity::Side
_TEXT	ENDS
PUBLIC	??D@YA?AUVector2D@@ABU0@N@Z			; operator*
PUBLIC	?Vec2DNormalize@@YA?AUVector2D@@ABU1@@Z		; Vec2DNormalize
PUBLIC	??YVector2D@@QAEABU0@ABU0@@Z			; Vector2D::operator+=
PUBLIC	?MaxForce@MovingEntity@@QBENXZ			; MovingEntity::MaxForce
PUBLIC	?Length@Vector2D@@QBENXZ			; Vector2D::Length
PUBLIC	?AccumulateForce@AbstSteering@@IAE_NAAUVector2D@@U2@@Z ; AbstSteering::AccumulateForce
; Function compile flags: /Odtp /RTCsu
; File c:\users\teaja\documents\artificial-fun\labravenprojecttest\raven\abststeeringbehaviors.cpp
_TEXT	SEGMENT
$T146166 = -60						; size = 16
$T146165 = -44						; size = 16
_MagnitudeToAdd$ = -28					; size = 8
_MagnitudeRemaining$ = -20				; size = 8
_MagnitudeSoFar$ = -12					; size = 8
_this$ = -4						; size = 4
_RunningTot$ = 8					; size = 4
_ForceToAdd$ = 12					; size = 16
?AccumulateForce@AbstSteering@@IAE_NAAUVector2D@@U2@@Z PROC ; AbstSteering::AccumulateForce
; _this$ = ecx

; 90   : {  

	push	ebp
	mov	ebp, esp
	sub	esp, 60					; 0000003cH
	push	edi
	push	ecx
	lea	edi, DWORD PTR [ebp-60]
	mov	ecx, 15					; 0000000fH
	mov	eax, -858993460				; ccccccccH
	rep stosd
	pop	ecx
	mov	DWORD PTR _this$[ebp], ecx

; 91   :   //calculate how much steering force the vehicle has used so far
; 92   :   double MagnitudeSoFar = RunningTot.Length();

	mov	ecx, DWORD PTR _RunningTot$[ebp]
	call	?Length@Vector2D@@QBENXZ		; Vector2D::Length
	fstp	QWORD PTR _MagnitudeSoFar$[ebp]

; 93   : 
; 94   :   //calculate how much steering force remains to be used by this vehicle
; 95   :   double MagnitudeRemaining = m_pRaven_Bot->MaxForce() - MagnitudeSoFar;

	mov	eax, DWORD PTR _this$[ebp]
	mov	ecx, DWORD PTR [eax+8]
	call	?MaxForce@MovingEntity@@QBENXZ		; MovingEntity::MaxForce
	fsub	QWORD PTR _MagnitudeSoFar$[ebp]
	fstp	QWORD PTR _MagnitudeRemaining$[ebp]

; 96   : 
; 97   :   //return false if there is no more force left to use
; 98   :   if (MagnitudeRemaining <= 0.0) return false;

	fldz
	fcomp	QWORD PTR _MagnitudeRemaining$[ebp]
	fnstsw	ax
	test	ah, 1
	jne	SHORT $LN3@Accumulate
	xor	al, al
	jmp	SHORT $LN4@Accumulate
$LN3@Accumulate:

; 99   : 
; 100  :   //calculate the magnitude of the force we want to add
; 101  :   double MagnitudeToAdd = ForceToAdd.Length();

	lea	ecx, DWORD PTR _ForceToAdd$[ebp]
	call	?Length@Vector2D@@QBENXZ		; Vector2D::Length
	fstp	QWORD PTR _MagnitudeToAdd$[ebp]

; 102  :   
; 103  :   //if the magnitude of the sum of ForceToAdd and the running total
; 104  :   //does not exceed the maximum force available to this vehicle, just
; 105  :   //add together. Otherwise add as much of the ForceToAdd vector is
; 106  :   //possible without going over the max.
; 107  :   if (MagnitudeToAdd < MagnitudeRemaining)

	fld	QWORD PTR _MagnitudeRemaining$[ebp]
	fcomp	QWORD PTR _MagnitudeToAdd$[ebp]
	fnstsw	ax
	test	ah, 65					; 00000041H
	jne	SHORT $LN2@Accumulate

; 108  :   {
; 109  :     RunningTot += ForceToAdd;

	lea	ecx, DWORD PTR _ForceToAdd$[ebp]
	push	ecx
	mov	ecx, DWORD PTR _RunningTot$[ebp]
	call	??YVector2D@@QAEABU0@ABU0@@Z		; Vector2D::operator+=

; 110  :   }
; 111  : 
; 112  :   else

	jmp	SHORT $LN1@Accumulate
$LN2@Accumulate:

; 113  :   {
; 114  :     MagnitudeToAdd = MagnitudeRemaining;

	fld	QWORD PTR _MagnitudeRemaining$[ebp]
	fstp	QWORD PTR _MagnitudeToAdd$[ebp]

; 115  : 
; 116  :     //add it to the steering force
; 117  :     RunningTot += (Vec2DNormalize(ForceToAdd) * MagnitudeToAdd); 

	sub	esp, 8
	fld	QWORD PTR _MagnitudeToAdd$[ebp]
	fstp	QWORD PTR [esp]
	lea	edx, DWORD PTR _ForceToAdd$[ebp]
	push	edx
	lea	eax, DWORD PTR $T146165[ebp]
	push	eax
	call	?Vec2DNormalize@@YA?AUVector2D@@ABU1@@Z	; Vec2DNormalize
	add	esp, 8
	push	eax
	lea	ecx, DWORD PTR $T146166[ebp]
	push	ecx
	call	??D@YA?AUVector2D@@ABU0@N@Z		; operator*
	add	esp, 16					; 00000010H
	push	eax
	mov	ecx, DWORD PTR _RunningTot$[ebp]
	call	??YVector2D@@QAEABU0@ABU0@@Z		; Vector2D::operator+=
$LN1@Accumulate:

; 118  :   }
; 119  : 
; 120  :   return true;

	mov	al, 1
$LN4@Accumulate:

; 121  : }

	pop	edi
	add	esp, 60					; 0000003cH
	cmp	ebp, esp
	call	__RTC_CheckEsp
	mov	esp, ebp
	pop	ebp
	ret	20					; 00000014H
?AccumulateForce@AbstSteering@@IAE_NAAUVector2D@@U2@@Z ENDP ; AbstSteering::AccumulateForce
; Function compile flags: /Odtp /RTCsu
; File c:\users\teaja\documents\artificial-fun\labravenprojecttest\common\2d\vector2d.h
_TEXT	ENDS
;	COMDAT ??YVector2D@@QAEABU0@ABU0@@Z
_TEXT	SEGMENT
_this$ = -4						; size = 4
_rhs$ = 8						; size = 4
??YVector2D@@QAEABU0@ABU0@@Z PROC			; Vector2D::operator+=, COMDAT
; _this$ = ecx

; 68   :   {

	push	ebp
	mov	ebp, esp
	push	ecx
	mov	DWORD PTR [ebp-4], -858993460		; ccccccccH
	mov	DWORD PTR _this$[ebp], ecx

; 69   :     x += rhs.x;

	mov	eax, DWORD PTR _this$[ebp]
	mov	ecx, DWORD PTR _rhs$[ebp]
	fld	QWORD PTR [eax]
	fadd	QWORD PTR [ecx]
	mov	edx, DWORD PTR _this$[ebp]
	fstp	QWORD PTR [edx]

; 70   :     y += rhs.y;

	mov	eax, DWORD PTR _this$[ebp]
	mov	ecx, DWORD PTR _rhs$[ebp]
	fld	QWORD PTR [eax+8]
	fadd	QWORD PTR [ecx+8]
	mov	edx, DWORD PTR _this$[ebp]
	fstp	QWORD PTR [edx+8]

; 71   : 
; 72   :     return *this;

	mov	eax, DWORD PTR _this$[ebp]

; 73   :   }

	mov	esp, ebp
	pop	ebp
	ret	4
??YVector2D@@QAEABU0@ABU0@@Z ENDP			; Vector2D::operator+=
_TEXT	ENDS
EXTRN	_sqrt:PROC
; Function compile flags: /Odtp /RTCsu
;	COMDAT ?Length@Vector2D@@QBENXZ
_TEXT	SEGMENT
_this$ = -4						; size = 4
?Length@Vector2D@@QBENXZ PROC				; Vector2D::Length, COMDAT
; _this$ = ecx

; 128  : {

	push	ebp
	mov	ebp, esp
	push	ecx
	mov	DWORD PTR [ebp-4], -858993460		; ccccccccH
	mov	DWORD PTR _this$[ebp], ecx

; 129  :   return sqrt(x * x + y * y);

	mov	eax, DWORD PTR _this$[ebp]
	mov	ecx, DWORD PTR _this$[ebp]
	fld	QWORD PTR [eax]
	fmul	QWORD PTR [ecx]
	mov	edx, DWORD PTR _this$[ebp]
	mov	eax, DWORD PTR _this$[ebp]
	fld	QWORD PTR [edx+8]
	fmul	QWORD PTR [eax+8]
	faddp	ST(1), ST(0)
	sub	esp, 8
	fstp	QWORD PTR [esp]
	call	_sqrt
	add	esp, 8

; 130  : }

	add	esp, 4
	cmp	ebp, esp
	call	__RTC_CheckEsp
	mov	esp, ebp
	pop	ebp
	ret	0
?Length@Vector2D@@QBENXZ ENDP				; Vector2D::Length
_TEXT	ENDS
PUBLIC	?epsilon@?$numeric_limits@N@std@@SANXZ		; std::numeric_limits<double>::epsilon
EXTRN	@_RTC_CheckStackVars@8:PROC
; Function compile flags: /Odtp /RTCsu
;	COMDAT ?Vec2DNormalize@@YA?AUVector2D@@ABU1@@Z
_TEXT	SEGMENT
_vector_length$ = -32					; size = 8
_vec$ = -20						; size = 16
___$ReturnUdt$ = 8					; size = 4
_v$ = 12						; size = 4
?Vec2DNormalize@@YA?AUVector2D@@ABU1@@Z PROC		; Vec2DNormalize, COMDAT

; 258  : {

	push	ebp
	mov	ebp, esp
	sub	esp, 32					; 00000020H
	mov	eax, -858993460				; ccccccccH
	mov	DWORD PTR [ebp-32], eax
	mov	DWORD PTR [ebp-28], eax
	mov	DWORD PTR [ebp-24], eax
	mov	DWORD PTR [ebp-20], eax
	mov	DWORD PTR [ebp-16], eax
	mov	DWORD PTR [ebp-12], eax
	mov	DWORD PTR [ebp-8], eax
	mov	DWORD PTR [ebp-4], eax

; 259  :   Vector2D vec = v;

	mov	eax, DWORD PTR _v$[ebp]
	fld	QWORD PTR [eax]
	fstp	QWORD PTR _vec$[ebp]
	fld	QWORD PTR [eax+8]
	fstp	QWORD PTR _vec$[ebp+8]

; 260  : 
; 261  :   double vector_length = vec.Length();

	lea	ecx, DWORD PTR _vec$[ebp]
	call	?Length@Vector2D@@QBENXZ		; Vector2D::Length
	fstp	QWORD PTR _vector_length$[ebp]

; 262  : 
; 263  :   if (vector_length > std::numeric_limits<double>::epsilon())

	call	?epsilon@?$numeric_limits@N@std@@SANXZ	; std::numeric_limits<double>::epsilon
	fcomp	QWORD PTR _vector_length$[ebp]
	fnstsw	ax
	test	ah, 5
	jp	SHORT $LN1@Vec2DNorma

; 264  :   {
; 265  :     vec.x /= vector_length;

	fld	QWORD PTR _vec$[ebp]
	fdiv	QWORD PTR _vector_length$[ebp]
	fstp	QWORD PTR _vec$[ebp]

; 266  :     vec.y /= vector_length;

	fld	QWORD PTR _vec$[ebp+8]
	fdiv	QWORD PTR _vector_length$[ebp]
	fstp	QWORD PTR _vec$[ebp+8]
$LN1@Vec2DNorma:

; 267  :   }
; 268  : 
; 269  :   return vec;

	mov	ecx, DWORD PTR ___$ReturnUdt$[ebp]
	fld	QWORD PTR _vec$[ebp]
	fstp	QWORD PTR [ecx]
	fld	QWORD PTR _vec$[ebp+8]
	fstp	QWORD PTR [ecx+8]
	mov	eax, DWORD PTR ___$ReturnUdt$[ebp]

; 270  : }

	push	edx
	mov	ecx, ebp
	push	eax
	lea	edx, DWORD PTR $LN6@Vec2DNorma
	call	@_RTC_CheckStackVars@8
	pop	eax
	pop	edx
	add	esp, 32					; 00000020H
	cmp	ebp, esp
	call	__RTC_CheckEsp
	mov	esp, ebp
	pop	ebp
	ret	0
	npad	3
$LN6@Vec2DNorma:
	DD	1
	DD	$LN5@Vec2DNorma
$LN5@Vec2DNorma:
	DD	-20					; ffffffecH
	DD	16					; 00000010H
	DD	$LN4@Vec2DNorma
$LN4@Vec2DNorma:
	DB	118					; 00000076H
	DB	101					; 00000065H
	DB	99					; 00000063H
	DB	0
?Vec2DNormalize@@YA?AUVector2D@@ABU1@@Z ENDP		; Vec2DNormalize
_TEXT	ENDS
PUBLIC	__real@3cb0000000000000
;	COMDAT __real@3cb0000000000000
; File c:\program files (x86)\microsoft visual studio 10.0\vc\include\limits
CONST	SEGMENT
__real@3cb0000000000000 DQ 03cb0000000000000r	; 2.22045e-016
; Function compile flags: /Odtp /RTCsu
CONST	ENDS
;	COMDAT ?epsilon@?$numeric_limits@N@std@@SANXZ
_TEXT	SEGMENT
?epsilon@?$numeric_limits@N@std@@SANXZ PROC		; std::numeric_limits<double>::epsilon, COMDAT

; 1246 : 		{	// return smallest effective increment from 1.0

	push	ebp
	mov	ebp, esp

; 1247 : 		return (DBL_EPSILON);

	fld	QWORD PTR __real@3cb0000000000000

; 1248 : 		}

	pop	ebp
	ret	0
?epsilon@?$numeric_limits@N@std@@SANXZ ENDP		; std::numeric_limits<double>::epsilon
_TEXT	ENDS
PUBLIC	??XVector2D@@QAEABU0@ABN@Z			; Vector2D::operator*=
; Function compile flags: /Odtp /RTCsu
; File c:\users\teaja\documents\artificial-fun\labravenprojecttest\common\2d\vector2d.h
;	COMDAT ??D@YA?AUVector2D@@ABU0@N@Z
_TEXT	SEGMENT
_result$ = -20						; size = 16
___$ReturnUdt$ = 8					; size = 4
_lhs$ = 12						; size = 4
_rhs$ = 16						; size = 8
??D@YA?AUVector2D@@ABU0@N@Z PROC			; operator*, COMDAT

; 334  : {

	push	ebp
	mov	ebp, esp
	sub	esp, 24					; 00000018H
	mov	eax, -858993460				; ccccccccH
	mov	DWORD PTR [ebp-24], eax
	mov	DWORD PTR [ebp-20], eax
	mov	DWORD PTR [ebp-16], eax
	mov	DWORD PTR [ebp-12], eax
	mov	DWORD PTR [ebp-8], eax
	mov	DWORD PTR [ebp-4], eax

; 335  :   Vector2D result(lhs);

	mov	eax, DWORD PTR _lhs$[ebp]
	mov	ecx, DWORD PTR [eax]
	mov	DWORD PTR _result$[ebp], ecx
	mov	edx, DWORD PTR [eax+4]
	mov	DWORD PTR _result$[ebp+4], edx
	mov	ecx, DWORD PTR [eax+8]
	mov	DWORD PTR _result$[ebp+8], ecx
	mov	edx, DWORD PTR [eax+12]
	mov	DWORD PTR _result$[ebp+12], edx

; 336  :   result *= rhs;

	lea	eax, DWORD PTR _rhs$[ebp]
	push	eax
	lea	ecx, DWORD PTR _result$[ebp]
	call	??XVector2D@@QAEABU0@ABN@Z		; Vector2D::operator*=

; 337  :   return result;

	mov	ecx, DWORD PTR ___$ReturnUdt$[ebp]
	mov	edx, DWORD PTR _result$[ebp]
	mov	DWORD PTR [ecx], edx
	mov	eax, DWORD PTR _result$[ebp+4]
	mov	DWORD PTR [ecx+4], eax
	mov	edx, DWORD PTR _result$[ebp+8]
	mov	DWORD PTR [ecx+8], edx
	mov	eax, DWORD PTR _result$[ebp+12]
	mov	DWORD PTR [ecx+12], eax
	mov	eax, DWORD PTR ___$ReturnUdt$[ebp]

; 338  : }

	push	edx
	mov	ecx, ebp
	push	eax
	lea	edx, DWORD PTR $LN5@operator
	call	@_RTC_CheckStackVars@8
	pop	eax
	pop	edx
	add	esp, 24					; 00000018H
	cmp	ebp, esp
	call	__RTC_CheckEsp
	mov	esp, ebp
	pop	ebp
	ret	0
	npad	1
$LN5@operator:
	DD	1
	DD	$LN4@operator
$LN4@operator:
	DD	-20					; ffffffecH
	DD	16					; 00000010H
	DD	$LN3@operator
$LN3@operator:
	DB	114					; 00000072H
	DB	101					; 00000065H
	DB	115					; 00000073H
	DB	117					; 00000075H
	DB	108					; 0000006cH
	DB	116					; 00000074H
	DB	0
??D@YA?AUVector2D@@ABU0@N@Z ENDP			; operator*
; Function compile flags: /Odtp /RTCsu
_TEXT	ENDS
;	COMDAT ??XVector2D@@QAEABU0@ABN@Z
_TEXT	SEGMENT
_this$ = -4						; size = 4
_rhs$ = 8						; size = 4
??XVector2D@@QAEABU0@ABN@Z PROC				; Vector2D::operator*=, COMDAT
; _this$ = ecx

; 84   :   {

	push	ebp
	mov	ebp, esp
	push	ecx
	mov	DWORD PTR [ebp-4], -858993460		; ccccccccH
	mov	DWORD PTR _this$[ebp], ecx

; 85   :     x *= rhs;

	mov	eax, DWORD PTR _this$[ebp]
	mov	ecx, DWORD PTR _rhs$[ebp]
	fld	QWORD PTR [eax]
	fmul	QWORD PTR [ecx]
	mov	edx, DWORD PTR _this$[ebp]
	fstp	QWORD PTR [edx]

; 86   :     y *= rhs;

	mov	eax, DWORD PTR _this$[ebp]
	mov	ecx, DWORD PTR _rhs$[ebp]
	fld	QWORD PTR [eax+8]
	fmul	QWORD PTR [ecx]
	mov	edx, DWORD PTR _this$[ebp]
	fstp	QWORD PTR [edx+8]

; 87   : 
; 88   :     return *this;

	mov	eax, DWORD PTR _this$[ebp]

; 89   :   }

	mov	esp, ebp
	pop	ebp
	ret	4
??XVector2D@@QAEABU0@ABN@Z ENDP				; Vector2D::operator*=
; Function compile flags: /Odtp /RTCsu
; File c:\users\teaja\documents\artificial-fun\labravenprojecttest\common\game\movingentity.h
_TEXT	ENDS
;	COMDAT ?MaxForce@MovingEntity@@QBENXZ
_TEXT	SEGMENT
_this$ = -4						; size = 4
?MaxForce@MovingEntity@@QBENXZ PROC			; MovingEntity::MaxForce, COMDAT
; _this$ = ecx

; 85   :   double    MaxForce()const{return m_dMaxForce;}

	push	ebp
	mov	ebp, esp
	push	ecx
	mov	DWORD PTR [ebp-4], -858993460		; ccccccccH
	mov	DWORD PTR _this$[ebp], ecx
	mov	eax, DWORD PTR _this$[ebp]
	fld	QWORD PTR [eax+128]
	mov	esp, ebp
	pop	ebp
	ret	0
?MaxForce@MovingEntity@@QBENXZ ENDP			; MovingEntity::MaxForce
_TEXT	ENDS
PUBLIC	?GetAllBots@Raven_Game@@QBEABV?$list@PAVAbstRaven_Bot@@V?$allocator@PAVAbstRaven_Bot@@@std@@@std@@XZ ; Raven_Game::GetAllBots
PUBLIC	?GetWalls@Raven_Map@@QBEABV?$vector@PAVWall2D@@V?$allocator@PAVWall2D@@@std@@@std@@XZ ; Raven_Map::GetWalls
PUBLIC	?GetMap@Raven_Game@@QAEQAVRaven_Map@@XZ		; Raven_Game::GetMap
; Function compile flags: /Odtp /RTCsu
; File c:\users\teaja\documents\artificial-fun\labravenprojecttest\raven\abststeeringbehaviors.cpp
_TEXT	SEGMENT
$T146200 = -188						; size = 16
$T146199 = -172						; size = 16
$T146198 = -156						; size = 16
$T146197 = -140						; size = 16
$T146196 = -124						; size = 16
$T146195 = -108						; size = 16
$T146194 = -92						; size = 16
$T146193 = -76						; size = 16
$T146192 = -60						; size = 16
$T146191 = -44						; size = 16
_force$ = -24						; size = 16
_this$ = -4						; size = 4
___$ReturnUdt$ = 8					; size = 4
?CalculatePrioritized@AbstSteering@@MAE?AUVector2D@@XZ PROC ; AbstSteering::CalculatePrioritized
; _this$ = ecx

; 133  : {       

	push	ebp
	mov	ebp, esp
	sub	esp, 188				; 000000bcH
	push	esi
	push	edi
	push	ecx
	lea	edi, DWORD PTR [ebp-188]
	mov	ecx, 47					; 0000002fH
	mov	eax, -858993460				; ccccccccH
	rep stosd
	pop	ecx
	mov	DWORD PTR _this$[ebp], ecx

; 134  :   Vector2D force;

	lea	ecx, DWORD PTR _force$[ebp]
	call	??0Vector2D@@QAE@XZ			; Vector2D::Vector2D

; 135  : 
; 136  :   if (On(wall_avoidance))

	push	512					; 00000200H
	mov	ecx, DWORD PTR _this$[ebp]
	call	?On@AbstSteering@@IAE_NW4behavior_type@1@@Z ; AbstSteering::On
	movzx	eax, al
	test	eax, eax
	je	$LN9@CalculateP

; 137  :   {
; 138  :     force = WallAvoidance(m_pWorld->GetMap()->GetWalls()) *
; 139  :             m_dWeightWallAvoidance;

	mov	ecx, DWORD PTR _this$[ebp]
	sub	esp, 8
	fld	QWORD PTR [ecx+144]
	fstp	QWORD PTR [esp]
	mov	edx, DWORD PTR _this$[ebp]
	mov	ecx, DWORD PTR [edx+12]
	call	?GetMap@Raven_Game@@QAEQAVRaven_Map@@XZ	; Raven_Game::GetMap
	mov	ecx, eax
	call	?GetWalls@Raven_Map@@QBEABV?$vector@PAVWall2D@@V?$allocator@PAVWall2D@@@std@@@std@@XZ ; Raven_Map::GetWalls
	mov	esi, esp
	push	eax
	lea	eax, DWORD PTR $T146191[ebp]
	push	eax
	mov	ecx, DWORD PTR _this$[ebp]
	mov	edx, DWORD PTR [ecx]
	mov	ecx, DWORD PTR _this$[ebp]
	mov	eax, DWORD PTR [edx+12]
	call	eax
	cmp	esi, esp
	call	__RTC_CheckEsp
	push	eax
	lea	ecx, DWORD PTR $T146192[ebp]
	push	ecx
	call	??D@YA?AUVector2D@@ABU0@N@Z		; operator*
	add	esp, 16					; 00000010H
	mov	edx, DWORD PTR [eax]
	mov	DWORD PTR _force$[ebp], edx
	mov	ecx, DWORD PTR [eax+4]
	mov	DWORD PTR _force$[ebp+4], ecx
	mov	edx, DWORD PTR [eax+8]
	mov	DWORD PTR _force$[ebp+8], edx
	mov	eax, DWORD PTR [eax+12]
	mov	DWORD PTR _force$[ebp+12], eax

; 140  : 
; 141  :     if (!AccumulateForce(m_vSteeringForce, force)) return m_vSteeringForce;

	sub	esp, 16					; 00000010H
	mov	ecx, esp
	mov	edx, DWORD PTR _force$[ebp]
	mov	DWORD PTR [ecx], edx
	mov	eax, DWORD PTR _force$[ebp+4]
	mov	DWORD PTR [ecx+4], eax
	mov	edx, DWORD PTR _force$[ebp+8]
	mov	DWORD PTR [ecx+8], edx
	mov	eax, DWORD PTR _force$[ebp+12]
	mov	DWORD PTR [ecx+12], eax
	mov	ecx, DWORD PTR _this$[ebp]
	add	ecx, 16					; 00000010H
	push	ecx
	mov	ecx, DWORD PTR _this$[ebp]
	call	?AccumulateForce@AbstSteering@@IAE_NAAUVector2D@@U2@@Z ; AbstSteering::AccumulateForce
	movzx	edx, al
	test	edx, edx
	jne	SHORT $LN9@CalculateP
	mov	eax, DWORD PTR _this$[ebp]
	add	eax, 16					; 00000010H
	mov	ecx, DWORD PTR ___$ReturnUdt$[ebp]
	mov	edx, DWORD PTR [eax]
	mov	DWORD PTR [ecx], edx
	mov	edx, DWORD PTR [eax+4]
	mov	DWORD PTR [ecx+4], edx
	mov	edx, DWORD PTR [eax+8]
	mov	DWORD PTR [ecx+8], edx
	mov	eax, DWORD PTR [eax+12]
	mov	DWORD PTR [ecx+12], eax
	mov	eax, DWORD PTR ___$ReturnUdt$[ebp]
	jmp	$LN11@CalculateP
$LN9@CalculateP:

; 142  :   }
; 143  : 
; 144  :  
; 145  :   //these next three can be combined for flocking behavior (wander is
; 146  :   //also a good behavior to add into this mix)
; 147  : 
; 148  :     if (On(separation))

	push	64					; 00000040H
	mov	ecx, DWORD PTR _this$[ebp]
	call	?On@AbstSteering@@IAE_NW4behavior_type@1@@Z ; AbstSteering::On
	movzx	ecx, al
	test	ecx, ecx
	je	$LN7@CalculateP

; 149  :     {
; 150  :       force = Separation(m_pWorld->GetAllBots()) * m_dWeightSeparation;

	mov	edx, DWORD PTR _this$[ebp]
	sub	esp, 8
	fld	QWORD PTR [edx+128]
	fstp	QWORD PTR [esp]
	mov	eax, DWORD PTR _this$[ebp]
	mov	ecx, DWORD PTR [eax+12]
	call	?GetAllBots@Raven_Game@@QBEABV?$list@PAVAbstRaven_Bot@@V?$allocator@PAVAbstRaven_Bot@@@std@@@std@@XZ ; Raven_Game::GetAllBots
	mov	esi, esp
	push	eax
	lea	ecx, DWORD PTR $T146193[ebp]
	push	ecx
	mov	edx, DWORD PTR _this$[ebp]
	mov	eax, DWORD PTR [edx]
	mov	ecx, DWORD PTR _this$[ebp]
	mov	edx, DWORD PTR [eax+16]
	call	edx
	cmp	esi, esp
	call	__RTC_CheckEsp
	push	eax
	lea	eax, DWORD PTR $T146194[ebp]
	push	eax
	call	??D@YA?AUVector2D@@ABU0@N@Z		; operator*
	add	esp, 16					; 00000010H
	mov	ecx, DWORD PTR [eax]
	mov	DWORD PTR _force$[ebp], ecx
	mov	edx, DWORD PTR [eax+4]
	mov	DWORD PTR _force$[ebp+4], edx
	mov	ecx, DWORD PTR [eax+8]
	mov	DWORD PTR _force$[ebp+8], ecx
	mov	edx, DWORD PTR [eax+12]
	mov	DWORD PTR _force$[ebp+12], edx

; 151  : 
; 152  :       if (!AccumulateForce(m_vSteeringForce, force)) return m_vSteeringForce;

	sub	esp, 16					; 00000010H
	mov	eax, esp
	mov	ecx, DWORD PTR _force$[ebp]
	mov	DWORD PTR [eax], ecx
	mov	edx, DWORD PTR _force$[ebp+4]
	mov	DWORD PTR [eax+4], edx
	mov	ecx, DWORD PTR _force$[ebp+8]
	mov	DWORD PTR [eax+8], ecx
	mov	edx, DWORD PTR _force$[ebp+12]
	mov	DWORD PTR [eax+12], edx
	mov	eax, DWORD PTR _this$[ebp]
	add	eax, 16					; 00000010H
	push	eax
	mov	ecx, DWORD PTR _this$[ebp]
	call	?AccumulateForce@AbstSteering@@IAE_NAAUVector2D@@U2@@Z ; AbstSteering::AccumulateForce
	movzx	ecx, al
	test	ecx, ecx
	jne	SHORT $LN7@CalculateP
	mov	edx, DWORD PTR _this$[ebp]
	add	edx, 16					; 00000010H
	mov	eax, DWORD PTR ___$ReturnUdt$[ebp]
	mov	ecx, DWORD PTR [edx]
	mov	DWORD PTR [eax], ecx
	mov	ecx, DWORD PTR [edx+4]
	mov	DWORD PTR [eax+4], ecx
	mov	ecx, DWORD PTR [edx+8]
	mov	DWORD PTR [eax+8], ecx
	mov	edx, DWORD PTR [edx+12]
	mov	DWORD PTR [eax+12], edx
	mov	eax, DWORD PTR ___$ReturnUdt$[ebp]
	jmp	$LN11@CalculateP
$LN7@CalculateP:

; 153  :     }
; 154  : 
; 155  : 
; 156  :   if (On(seek))

	push	2
	mov	ecx, DWORD PTR _this$[ebp]
	call	?On@AbstSteering@@IAE_NW4behavior_type@1@@Z ; AbstSteering::On
	movzx	eax, al
	test	eax, eax
	je	$LN5@CalculateP

; 157  :   {
; 158  :     force = Seek(m_vTarget) * m_dWeightSeek;

	mov	ecx, DWORD PTR _this$[ebp]
	sub	esp, 8
	fld	QWORD PTR [ecx+152]
	fstp	QWORD PTR [esp]
	mov	edx, DWORD PTR _this$[ebp]
	add	edx, 40					; 00000028H
	mov	esi, esp
	push	edx
	lea	eax, DWORD PTR $T146195[ebp]
	push	eax
	mov	ecx, DWORD PTR _this$[ebp]
	mov	edx, DWORD PTR [ecx]
	mov	ecx, DWORD PTR _this$[ebp]
	mov	eax, DWORD PTR [edx]
	call	eax
	cmp	esi, esp
	call	__RTC_CheckEsp
	push	eax
	lea	ecx, DWORD PTR $T146196[ebp]
	push	ecx
	call	??D@YA?AUVector2D@@ABU0@N@Z		; operator*
	add	esp, 16					; 00000010H
	mov	edx, DWORD PTR [eax]
	mov	DWORD PTR _force$[ebp], edx
	mov	ecx, DWORD PTR [eax+4]
	mov	DWORD PTR _force$[ebp+4], ecx
	mov	edx, DWORD PTR [eax+8]
	mov	DWORD PTR _force$[ebp+8], edx
	mov	eax, DWORD PTR [eax+12]
	mov	DWORD PTR _force$[ebp+12], eax

; 159  : 
; 160  :     if (!AccumulateForce(m_vSteeringForce, force)) return m_vSteeringForce;

	sub	esp, 16					; 00000010H
	mov	ecx, esp
	mov	edx, DWORD PTR _force$[ebp]
	mov	DWORD PTR [ecx], edx
	mov	eax, DWORD PTR _force$[ebp+4]
	mov	DWORD PTR [ecx+4], eax
	mov	edx, DWORD PTR _force$[ebp+8]
	mov	DWORD PTR [ecx+8], edx
	mov	eax, DWORD PTR _force$[ebp+12]
	mov	DWORD PTR [ecx+12], eax
	mov	ecx, DWORD PTR _this$[ebp]
	add	ecx, 16					; 00000010H
	push	ecx
	mov	ecx, DWORD PTR _this$[ebp]
	call	?AccumulateForce@AbstSteering@@IAE_NAAUVector2D@@U2@@Z ; AbstSteering::AccumulateForce
	movzx	edx, al
	test	edx, edx
	jne	SHORT $LN5@CalculateP
	mov	eax, DWORD PTR _this$[ebp]
	add	eax, 16					; 00000010H
	mov	ecx, DWORD PTR ___$ReturnUdt$[ebp]
	mov	edx, DWORD PTR [eax]
	mov	DWORD PTR [ecx], edx
	mov	edx, DWORD PTR [eax+4]
	mov	DWORD PTR [ecx+4], edx
	mov	edx, DWORD PTR [eax+8]
	mov	DWORD PTR [ecx+8], edx
	mov	eax, DWORD PTR [eax+12]
	mov	DWORD PTR [ecx+12], eax
	mov	eax, DWORD PTR ___$ReturnUdt$[ebp]
	jmp	$LN11@CalculateP
$LN5@CalculateP:

; 161  :   }
; 162  : 
; 163  : 
; 164  :   if (On(arrive))

	push	8
	mov	ecx, DWORD PTR _this$[ebp]
	call	?On@AbstSteering@@IAE_NW4behavior_type@1@@Z ; AbstSteering::On
	movzx	ecx, al
	test	ecx, ecx
	je	$LN3@CalculateP

; 165  :   {
; 166  :     force = Arrive(m_vTarget, m_Deceleration) * m_dWeightArrive;

	mov	edx, DWORD PTR _this$[ebp]
	sub	esp, 8
	fld	QWORD PTR [edx+160]
	fstp	QWORD PTR [esp]
	mov	esi, esp
	mov	eax, DWORD PTR _this$[ebp]
	mov	ecx, DWORD PTR [eax+180]
	push	ecx
	mov	edx, DWORD PTR _this$[ebp]
	add	edx, 40					; 00000028H
	push	edx
	lea	eax, DWORD PTR $T146197[ebp]
	push	eax
	mov	ecx, DWORD PTR _this$[ebp]
	mov	edx, DWORD PTR [ecx]
	mov	ecx, DWORD PTR _this$[ebp]
	mov	eax, DWORD PTR [edx+4]
	call	eax
	cmp	esi, esp
	call	__RTC_CheckEsp
	push	eax
	lea	ecx, DWORD PTR $T146198[ebp]
	push	ecx
	call	??D@YA?AUVector2D@@ABU0@N@Z		; operator*
	add	esp, 16					; 00000010H
	mov	edx, DWORD PTR [eax]
	mov	DWORD PTR _force$[ebp], edx
	mov	ecx, DWORD PTR [eax+4]
	mov	DWORD PTR _force$[ebp+4], ecx
	mov	edx, DWORD PTR [eax+8]
	mov	DWORD PTR _force$[ebp+8], edx
	mov	eax, DWORD PTR [eax+12]
	mov	DWORD PTR _force$[ebp+12], eax

; 167  : 
; 168  :     if (!AccumulateForce(m_vSteeringForce, force)) return m_vSteeringForce;

	sub	esp, 16					; 00000010H
	mov	ecx, esp
	mov	edx, DWORD PTR _force$[ebp]
	mov	DWORD PTR [ecx], edx
	mov	eax, DWORD PTR _force$[ebp+4]
	mov	DWORD PTR [ecx+4], eax
	mov	edx, DWORD PTR _force$[ebp+8]
	mov	DWORD PTR [ecx+8], edx
	mov	eax, DWORD PTR _force$[ebp+12]
	mov	DWORD PTR [ecx+12], eax
	mov	ecx, DWORD PTR _this$[ebp]
	add	ecx, 16					; 00000010H
	push	ecx
	mov	ecx, DWORD PTR _this$[ebp]
	call	?AccumulateForce@AbstSteering@@IAE_NAAUVector2D@@U2@@Z ; AbstSteering::AccumulateForce
	movzx	edx, al
	test	edx, edx
	jne	SHORT $LN3@CalculateP
	mov	eax, DWORD PTR _this$[ebp]
	add	eax, 16					; 00000010H
	mov	ecx, DWORD PTR ___$ReturnUdt$[ebp]
	mov	edx, DWORD PTR [eax]
	mov	DWORD PTR [ecx], edx
	mov	edx, DWORD PTR [eax+4]
	mov	DWORD PTR [ecx+4], edx
	mov	edx, DWORD PTR [eax+8]
	mov	DWORD PTR [ecx+8], edx
	mov	eax, DWORD PTR [eax+12]
	mov	DWORD PTR [ecx+12], eax
	mov	eax, DWORD PTR ___$ReturnUdt$[ebp]
	jmp	$LN11@CalculateP
$LN3@CalculateP:

; 169  :   }
; 170  : 
; 171  :   if (On(wander))

	push	16					; 00000010H
	mov	ecx, DWORD PTR _this$[ebp]
	call	?On@AbstSteering@@IAE_NW4behavior_type@1@@Z ; AbstSteering::On
	movzx	ecx, al
	test	ecx, ecx
	je	$LN1@CalculateP

; 172  :   {
; 173  :     force = Wander() * m_dWeightWander;

	mov	edx, DWORD PTR _this$[ebp]
	sub	esp, 8
	fld	QWORD PTR [edx+136]
	fstp	QWORD PTR [esp]
	mov	esi, esp
	lea	eax, DWORD PTR $T146199[ebp]
	push	eax
	mov	ecx, DWORD PTR _this$[ebp]
	mov	edx, DWORD PTR [ecx]
	mov	ecx, DWORD PTR _this$[ebp]
	mov	eax, DWORD PTR [edx+8]
	call	eax
	cmp	esi, esp
	call	__RTC_CheckEsp
	push	eax
	lea	ecx, DWORD PTR $T146200[ebp]
	push	ecx
	call	??D@YA?AUVector2D@@ABU0@N@Z		; operator*
	add	esp, 16					; 00000010H
	mov	edx, DWORD PTR [eax]
	mov	DWORD PTR _force$[ebp], edx
	mov	ecx, DWORD PTR [eax+4]
	mov	DWORD PTR _force$[ebp+4], ecx
	mov	edx, DWORD PTR [eax+8]
	mov	DWORD PTR _force$[ebp+8], edx
	mov	eax, DWORD PTR [eax+12]
	mov	DWORD PTR _force$[ebp+12], eax

; 174  : 
; 175  :     if (!AccumulateForce(m_vSteeringForce, force)) return m_vSteeringForce;

	sub	esp, 16					; 00000010H
	mov	ecx, esp
	mov	edx, DWORD PTR _force$[ebp]
	mov	DWORD PTR [ecx], edx
	mov	eax, DWORD PTR _force$[ebp+4]
	mov	DWORD PTR [ecx+4], eax
	mov	edx, DWORD PTR _force$[ebp+8]
	mov	DWORD PTR [ecx+8], edx
	mov	eax, DWORD PTR _force$[ebp+12]
	mov	DWORD PTR [ecx+12], eax
	mov	ecx, DWORD PTR _this$[ebp]
	add	ecx, 16					; 00000010H
	push	ecx
	mov	ecx, DWORD PTR _this$[ebp]
	call	?AccumulateForce@AbstSteering@@IAE_NAAUVector2D@@U2@@Z ; AbstSteering::AccumulateForce
	movzx	edx, al
	test	edx, edx
	jne	SHORT $LN1@CalculateP
	mov	eax, DWORD PTR _this$[ebp]
	add	eax, 16					; 00000010H
	mov	ecx, DWORD PTR ___$ReturnUdt$[ebp]
	mov	edx, DWORD PTR [eax]
	mov	DWORD PTR [ecx], edx
	mov	edx, DWORD PTR [eax+4]
	mov	DWORD PTR [ecx+4], edx
	mov	edx, DWORD PTR [eax+8]
	mov	DWORD PTR [ecx+8], edx
	mov	eax, DWORD PTR [eax+12]
	mov	DWORD PTR [ecx+12], eax
	mov	eax, DWORD PTR ___$ReturnUdt$[ebp]
	jmp	SHORT $LN11@CalculateP
$LN1@CalculateP:

; 176  :   }
; 177  : 
; 178  : 
; 179  :   return m_vSteeringForce;

	mov	ecx, DWORD PTR _this$[ebp]
	add	ecx, 16					; 00000010H
	mov	edx, DWORD PTR ___$ReturnUdt$[ebp]
	mov	eax, DWORD PTR [ecx]
	mov	DWORD PTR [edx], eax
	mov	eax, DWORD PTR [ecx+4]
	mov	DWORD PTR [edx+4], eax
	mov	eax, DWORD PTR [ecx+8]
	mov	DWORD PTR [edx+8], eax
	mov	ecx, DWORD PTR [ecx+12]
	mov	DWORD PTR [edx+12], ecx
	mov	eax, DWORD PTR ___$ReturnUdt$[ebp]
$LN11@CalculateP:

; 180  : }

	push	edx
	mov	ecx, ebp
	push	eax
	lea	edx, DWORD PTR $LN15@CalculateP
	call	@_RTC_CheckStackVars@8
	pop	eax
	pop	edx
	pop	edi
	pop	esi
	add	esp, 188				; 000000bcH
	cmp	ebp, esp
	call	__RTC_CheckEsp
	mov	esp, ebp
	pop	ebp
	ret	4
	npad	1
$LN15@CalculateP:
	DD	1
	DD	$LN14@CalculateP
$LN14@CalculateP:
	DD	-24					; ffffffe8H
	DD	16					; 00000010H
	DD	$LN13@CalculateP
$LN13@CalculateP:
	DB	102					; 00000066H
	DB	111					; 0000006fH
	DB	114					; 00000072H
	DB	99					; 00000063H
	DB	101					; 00000065H
	DB	0
?CalculatePrioritized@AbstSteering@@MAE?AUVector2D@@XZ ENDP ; AbstSteering::CalculatePrioritized
; Function compile flags: /Odtp /RTCsu
; File c:\users\teaja\documents\artificial-fun\labravenprojecttest\raven\raven_game.h
_TEXT	ENDS
;	COMDAT ?GetMap@Raven_Game@@QAEQAVRaven_Map@@XZ
_TEXT	SEGMENT
_this$ = -4						; size = 4
?GetMap@Raven_Game@@QAEQAVRaven_Map@@XZ PROC		; Raven_Game::GetMap, COMDAT
; _this$ = ecx

; 166  :   Raven_Map* const                         GetMap(){return m_pMap;}

	push	ebp
	mov	ebp, esp
	push	ecx
	mov	DWORD PTR [ebp-4], -858993460		; ccccccccH
	mov	DWORD PTR _this$[ebp], ecx
	mov	eax, DWORD PTR _this$[ebp]
	mov	eax, DWORD PTR [eax+12]
	mov	esp, ebp
	pop	ebp
	ret	0
?GetMap@Raven_Game@@QAEQAVRaven_Map@@XZ ENDP		; Raven_Game::GetMap
; Function compile flags: /Odtp /RTCsu
_TEXT	ENDS
;	COMDAT ?GetAllBots@Raven_Game@@QBEABV?$list@PAVAbstRaven_Bot@@V?$allocator@PAVAbstRaven_Bot@@@std@@@std@@XZ
_TEXT	SEGMENT
_this$ = -4						; size = 4
?GetAllBots@Raven_Game@@QBEABV?$list@PAVAbstRaven_Bot@@V?$allocator@PAVAbstRaven_Bot@@@std@@@std@@XZ PROC ; Raven_Game::GetAllBots, COMDAT
; _this$ = ecx

; 167  :   const std::list<AbstRaven_Bot*>&             GetAllBots()const{return m_Bots;}

	push	ebp
	mov	ebp, esp
	push	ecx
	mov	DWORD PTR [ebp-4], -858993460		; ccccccccH
	mov	DWORD PTR _this$[ebp], ecx
	mov	eax, DWORD PTR _this$[ebp]
	add	eax, 16					; 00000010H
	mov	esp, ebp
	pop	ebp
	ret	0
?GetAllBots@Raven_Game@@QBEABV?$list@PAVAbstRaven_Bot@@V?$allocator@PAVAbstRaven_Bot@@@std@@@std@@XZ ENDP ; Raven_Game::GetAllBots
; Function compile flags: /Odtp /RTCsu
; File c:\users\teaja\documents\artificial-fun\labravenprojecttest\raven\raven_map.h
_TEXT	ENDS
;	COMDAT ?GetWalls@Raven_Map@@QBEABV?$vector@PAVWall2D@@V?$allocator@PAVWall2D@@@std@@@std@@XZ
_TEXT	SEGMENT
_this$ = -4						; size = 4
?GetWalls@Raven_Map@@QBEABV?$vector@PAVWall2D@@V?$allocator@PAVWall2D@@@std@@@std@@XZ PROC ; Raven_Map::GetWalls, COMDAT
; _this$ = ecx

; 115  :   const std::vector<Wall2D*>&        GetWalls()const{return m_Walls;}

	push	ebp
	mov	ebp, esp
	push	ecx
	mov	DWORD PTR [ebp-4], -858993460		; ccccccccH
	mov	DWORD PTR _this$[ebp], ecx
	mov	eax, DWORD PTR _this$[ebp]
	mov	esp, ebp
	pop	ebp
	ret	0
?GetWalls@Raven_Map@@QBEABV?$vector@PAVWall2D@@V?$allocator@PAVWall2D@@@std@@@std@@XZ ENDP ; Raven_Map::GetWalls
_TEXT	ENDS
PUBLIC	?Velocity@MovingEntity@@QBE?AUVector2D@@XZ	; MovingEntity::Velocity
PUBLIC	??G@YA?AUVector2D@@ABU0@0@Z			; operator-
PUBLIC	?Pos@BaseGameEntity@@QBE?AUVector2D@@XZ		; BaseGameEntity::Pos
PUBLIC	?MaxSpeed@MovingEntity@@QBENXZ			; MovingEntity::MaxSpeed
; Function compile flags: /Odtp /RTCsu
; File c:\users\teaja\documents\artificial-fun\labravenprojecttest\raven\abststeeringbehaviors.cpp
_TEXT	SEGMENT
$T146214 = -92						; size = 16
$T146213 = -76						; size = 16
$T146212 = -60						; size = 16
$T146211 = -44						; size = 16
_DesiredVelocity$ = -24					; size = 16
_this$ = -4						; size = 4
___$ReturnUdt$ = 8					; size = 4
_target$ = 12						; size = 4
?Seek@AbstSteering@@MAE?AUVector2D@@ABU2@@Z PROC	; AbstSteering::Seek
; _this$ = ecx

; 191  : {

	push	ebp
	mov	ebp, esp
	sub	esp, 92					; 0000005cH
	push	edi
	push	ecx
	lea	edi, DWORD PTR [ebp-92]
	mov	ecx, 23					; 00000017H
	mov	eax, -858993460				; ccccccccH
	rep stosd
	pop	ecx
	mov	DWORD PTR _this$[ebp], ecx

; 192  :  
; 193  :   Vector2D DesiredVelocity = Vec2DNormalize(target - m_pRaven_Bot->Pos())
; 194  :                             * m_pRaven_Bot->MaxSpeed();

	mov	eax, DWORD PTR _this$[ebp]
	mov	ecx, DWORD PTR [eax+8]
	call	?MaxSpeed@MovingEntity@@QBENXZ		; MovingEntity::MaxSpeed
	sub	esp, 8
	fstp	QWORD PTR [esp]
	lea	ecx, DWORD PTR $T146211[ebp]
	push	ecx
	mov	edx, DWORD PTR _this$[ebp]
	mov	ecx, DWORD PTR [edx+8]
	call	?Pos@BaseGameEntity@@QBE?AUVector2D@@XZ	; BaseGameEntity::Pos
	push	eax
	mov	eax, DWORD PTR _target$[ebp]
	push	eax
	lea	ecx, DWORD PTR $T146212[ebp]
	push	ecx
	call	??G@YA?AUVector2D@@ABU0@0@Z		; operator-
	add	esp, 12					; 0000000cH
	push	eax
	lea	edx, DWORD PTR $T146213[ebp]
	push	edx
	call	?Vec2DNormalize@@YA?AUVector2D@@ABU1@@Z	; Vec2DNormalize
	add	esp, 8
	push	eax
	lea	eax, DWORD PTR _DesiredVelocity$[ebp]
	push	eax
	call	??D@YA?AUVector2D@@ABU0@N@Z		; operator*
	add	esp, 16					; 00000010H

; 195  : 
; 196  :   return (DesiredVelocity - m_pRaven_Bot->Velocity());

	lea	ecx, DWORD PTR $T146214[ebp]
	push	ecx
	mov	edx, DWORD PTR _this$[ebp]
	mov	ecx, DWORD PTR [edx+8]
	call	?Velocity@MovingEntity@@QBE?AUVector2D@@XZ ; MovingEntity::Velocity
	push	eax
	lea	eax, DWORD PTR _DesiredVelocity$[ebp]
	push	eax
	mov	ecx, DWORD PTR ___$ReturnUdt$[ebp]
	push	ecx
	call	??G@YA?AUVector2D@@ABU0@0@Z		; operator-
	add	esp, 12					; 0000000cH
	mov	eax, DWORD PTR ___$ReturnUdt$[ebp]

; 197  : }

	push	edx
	mov	ecx, ebp
	push	eax
	lea	edx, DWORD PTR $LN5@Seek
	call	@_RTC_CheckStackVars@8
	pop	eax
	pop	edx
	pop	edi
	add	esp, 92					; 0000005cH
	cmp	ebp, esp
	call	__RTC_CheckEsp
	mov	esp, ebp
	pop	ebp
	ret	8
	npad	1
$LN5@Seek:
	DD	1
	DD	$LN4@Seek
$LN4@Seek:
	DD	-24					; ffffffe8H
	DD	16					; 00000010H
	DD	$LN3@Seek
$LN3@Seek:
	DB	68					; 00000044H
	DB	101					; 00000065H
	DB	115					; 00000073H
	DB	105					; 00000069H
	DB	114					; 00000072H
	DB	101					; 00000065H
	DB	100					; 00000064H
	DB	86					; 00000056H
	DB	101					; 00000065H
	DB	108					; 0000006cH
	DB	111					; 0000006fH
	DB	99					; 00000063H
	DB	105					; 00000069H
	DB	116					; 00000074H
	DB	121					; 00000079H
	DB	0
?Seek@AbstSteering@@MAE?AUVector2D@@ABU2@@Z ENDP	; AbstSteering::Seek
; Function compile flags: /Odtp /RTCsu
; File c:\users\teaja\documents\artificial-fun\labravenprojecttest\common\2d\vector2d.h
_TEXT	ENDS
;	COMDAT ??G@YA?AUVector2D@@ABU0@0@Z
_TEXT	SEGMENT
_result$ = -20						; size = 16
___$ReturnUdt$ = 8					; size = 4
_lhs$ = 12						; size = 4
_rhs$ = 16						; size = 4
??G@YA?AUVector2D@@ABU0@0@Z PROC			; operator-, COMDAT

; 349  : {

	push	ebp
	mov	ebp, esp
	sub	esp, 24					; 00000018H
	mov	eax, -858993460				; ccccccccH
	mov	DWORD PTR [ebp-24], eax
	mov	DWORD PTR [ebp-20], eax
	mov	DWORD PTR [ebp-16], eax
	mov	DWORD PTR [ebp-12], eax
	mov	DWORD PTR [ebp-8], eax
	mov	DWORD PTR [ebp-4], eax

; 350  :   Vector2D result(lhs);

	mov	eax, DWORD PTR _lhs$[ebp]
	fld	QWORD PTR [eax]
	fstp	QWORD PTR _result$[ebp]
	fld	QWORD PTR [eax+8]
	fstp	QWORD PTR _result$[ebp+8]

; 351  :   result.x -= rhs.x;

	mov	ecx, DWORD PTR _rhs$[ebp]
	fld	QWORD PTR _result$[ebp]
	fsub	QWORD PTR [ecx]
	fstp	QWORD PTR _result$[ebp]

; 352  :   result.y -= rhs.y;

	mov	edx, DWORD PTR _rhs$[ebp]
	fld	QWORD PTR _result$[ebp+8]
	fsub	QWORD PTR [edx+8]
	fstp	QWORD PTR _result$[ebp+8]

; 353  :   
; 354  :   return result;

	mov	eax, DWORD PTR ___$ReturnUdt$[ebp]
	fld	QWORD PTR _result$[ebp]
	fstp	QWORD PTR [eax]
	fld	QWORD PTR _result$[ebp+8]
	fstp	QWORD PTR [eax+8]
	mov	eax, DWORD PTR ___$ReturnUdt$[ebp]

; 355  : }

	push	edx
	mov	ecx, ebp
	push	eax
	lea	edx, DWORD PTR $LN5@operator@2
	call	@_RTC_CheckStackVars@8
	pop	eax
	pop	edx
	mov	esp, ebp
	pop	ebp
	ret	0
$LN5@operator@2:
	DD	1
	DD	$LN4@operator@2
$LN4@operator@2:
	DD	-20					; ffffffecH
	DD	16					; 00000010H
	DD	$LN3@operator@2
$LN3@operator@2:
	DB	114					; 00000072H
	DB	101					; 00000065H
	DB	115					; 00000073H
	DB	117					; 00000075H
	DB	108					; 0000006cH
	DB	116					; 00000074H
	DB	0
??G@YA?AUVector2D@@ABU0@0@Z ENDP			; operator-
; Function compile flags: /Odtp /RTCsu
; File c:\users\teaja\documents\artificial-fun\labravenprojecttest\common\game\basegameentity.h
_TEXT	ENDS
;	COMDAT ?Pos@BaseGameEntity@@QBE?AUVector2D@@XZ
_TEXT	SEGMENT
_this$ = -4						; size = 4
___$ReturnUdt$ = 8					; size = 4
?Pos@BaseGameEntity@@QBE?AUVector2D@@XZ PROC		; BaseGameEntity::Pos, COMDAT
; _this$ = ecx

; 89   :   Vector2D     Pos()const{return m_vPosition;}

	push	ebp
	mov	ebp, esp
	push	ecx
	mov	DWORD PTR [ebp-4], -858993460		; ccccccccH
	mov	DWORD PTR _this$[ebp], ecx
	mov	eax, DWORD PTR _this$[ebp]
	add	eax, 24					; 00000018H
	mov	ecx, DWORD PTR ___$ReturnUdt$[ebp]
	mov	edx, DWORD PTR [eax]
	mov	DWORD PTR [ecx], edx
	mov	edx, DWORD PTR [eax+4]
	mov	DWORD PTR [ecx+4], edx
	mov	edx, DWORD PTR [eax+8]
	mov	DWORD PTR [ecx+8], edx
	mov	eax, DWORD PTR [eax+12]
	mov	DWORD PTR [ecx+12], eax
	mov	eax, DWORD PTR ___$ReturnUdt$[ebp]
	mov	esp, ebp
	pop	ebp
	ret	4
?Pos@BaseGameEntity@@QBE?AUVector2D@@XZ ENDP		; BaseGameEntity::Pos
; Function compile flags: /Odtp /RTCsu
; File c:\users\teaja\documents\artificial-fun\labravenprojecttest\common\game\movingentity.h
_TEXT	ENDS
;	COMDAT ?Velocity@MovingEntity@@QBE?AUVector2D@@XZ
_TEXT	SEGMENT
_this$ = -4						; size = 4
___$ReturnUdt$ = 8					; size = 4
?Velocity@MovingEntity@@QBE?AUVector2D@@XZ PROC		; MovingEntity::Velocity, COMDAT
; _this$ = ecx

; 75   :   Vector2D  Velocity()const{return m_vVelocity;}

	push	ebp
	mov	ebp, esp
	push	ecx
	mov	DWORD PTR [ebp-4], -858993460		; ccccccccH
	mov	DWORD PTR _this$[ebp], ecx
	mov	eax, DWORD PTR _this$[ebp]
	add	eax, 64					; 00000040H
	mov	ecx, DWORD PTR ___$ReturnUdt$[ebp]
	mov	edx, DWORD PTR [eax]
	mov	DWORD PTR [ecx], edx
	mov	edx, DWORD PTR [eax+4]
	mov	DWORD PTR [ecx+4], edx
	mov	edx, DWORD PTR [eax+8]
	mov	DWORD PTR [ecx+8], edx
	mov	eax, DWORD PTR [eax+12]
	mov	DWORD PTR [ecx+12], eax
	mov	eax, DWORD PTR ___$ReturnUdt$[ebp]
	mov	esp, ebp
	pop	ebp
	ret	4
?Velocity@MovingEntity@@QBE?AUVector2D@@XZ ENDP		; MovingEntity::Velocity
; Function compile flags: /Odtp /RTCsu
_TEXT	ENDS
;	COMDAT ?MaxSpeed@MovingEntity@@QBENXZ
_TEXT	SEGMENT
_this$ = -4						; size = 4
?MaxSpeed@MovingEntity@@QBENXZ PROC			; MovingEntity::MaxSpeed, COMDAT
; _this$ = ecx

; 82   :   double    MaxSpeed()const{return m_dMaxSpeed;}                       

	push	ebp
	mov	ebp, esp
	push	ecx
	mov	DWORD PTR [ebp-4], -858993460		; ccccccccH
	mov	DWORD PTR _this$[ebp], ecx
	mov	eax, DWORD PTR _this$[ebp]
	fld	QWORD PTR [eax+120]
	mov	esp, ebp
	pop	ebp
	ret	0
?MaxSpeed@MovingEntity@@QBENXZ ENDP			; MovingEntity::MaxSpeed
_TEXT	ENDS
PUBLIC	??0Vector2D@@QAE@NN@Z				; Vector2D::Vector2D
PUBLIC	??K@YA?AUVector2D@@ABU0@N@Z			; operator/
PUBLIC	??$MinOf@N@@YANABN0@Z				; MinOf<double>
PUBLIC	__real@3fd3333333333333
;	COMDAT __real@3fd3333333333333
; File c:\users\teaja\documents\artificial-fun\labravenprojecttest\raven\abststeeringbehaviors.cpp
CONST	SEGMENT
__real@3fd3333333333333 DQ 03fd3333333333333r	; 0.3
; Function compile flags: /Odtp /RTCsu
CONST	ENDS
_TEXT	SEGMENT
$T146233 = -140						; size = 16
$T146232 = -124						; size = 16
$T146231 = -108						; size = 8
$T146230 = -100						; size = 16
_DesiredVelocity$137046 = -80				; size = 16
_speed$137038 = -56					; size = 8
_DecelerationTweaker$137037 = -44			; size = 8
_dist$ = -36						; size = 8
_ToTarget$ = -24					; size = 16
_this$ = -4						; size = 4
___$ReturnUdt$ = 8					; size = 4
_target$ = 12						; size = 4
_deceleration$ = 16					; size = 4
?Arrive@AbstSteering@@MAE?AUVector2D@@ABU2@W4Deceleration@1@@Z PROC ; AbstSteering::Arrive
; _this$ = ecx

; 207  : {

	push	ebp
	mov	ebp, esp
	sub	esp, 140				; 0000008cH
	push	edi
	push	ecx
	lea	edi, DWORD PTR [ebp-140]
	mov	ecx, 35					; 00000023H
	mov	eax, -858993460				; ccccccccH
	rep stosd
	pop	ecx
	mov	DWORD PTR _this$[ebp], ecx

; 208  :   Vector2D ToTarget = target - m_pRaven_Bot->Pos();

	lea	eax, DWORD PTR $T146230[ebp]
	push	eax
	mov	ecx, DWORD PTR _this$[ebp]
	mov	ecx, DWORD PTR [ecx+8]
	call	?Pos@BaseGameEntity@@QBE?AUVector2D@@XZ	; BaseGameEntity::Pos
	push	eax
	mov	edx, DWORD PTR _target$[ebp]
	push	edx
	lea	eax, DWORD PTR _ToTarget$[ebp]
	push	eax
	call	??G@YA?AUVector2D@@ABU0@0@Z		; operator-
	add	esp, 12					; 0000000cH

; 209  : 
; 210  :   //calculate the distance to the target
; 211  :   double dist = ToTarget.Length();

	lea	ecx, DWORD PTR _ToTarget$[ebp]
	call	?Length@Vector2D@@QBENXZ		; Vector2D::Length
	fstp	QWORD PTR _dist$[ebp]

; 212  : 
; 213  :   if (dist > 0)

	fldz
	fcomp	QWORD PTR _dist$[ebp]
	fnstsw	ax
	test	ah, 5
	jp	$LN1@Arrive

; 214  :   {
; 215  :     //because Deceleration is enumerated as an int, this value is required
; 216  :     //to provide fine tweaking of the deceleration..
; 217  :     const double DecelerationTweaker = 0.3;

	fld	QWORD PTR __real@3fd3333333333333
	fstp	QWORD PTR _DecelerationTweaker$137037[ebp]

; 218  : 
; 219  :     //calculate the speed required to reach the target given the desired
; 220  :     //deceleration
; 221  :     double speed =  dist / ((double)deceleration * DecelerationTweaker);     

	fild	DWORD PTR _deceleration$[ebp]
	fmul	QWORD PTR _DecelerationTweaker$137037[ebp]
	fdivr	QWORD PTR _dist$[ebp]
	fstp	QWORD PTR _speed$137038[ebp]

; 222  : 
; 223  :     //make sure the velocity does not exceed the max
; 224  :     speed = MinOf(speed, m_pRaven_Bot->MaxSpeed());

	mov	ecx, DWORD PTR _this$[ebp]
	mov	ecx, DWORD PTR [ecx+8]
	call	?MaxSpeed@MovingEntity@@QBENXZ		; MovingEntity::MaxSpeed
	fstp	QWORD PTR $T146231[ebp]
	lea	edx, DWORD PTR $T146231[ebp]
	push	edx
	lea	eax, DWORD PTR _speed$137038[ebp]
	push	eax
	call	??$MinOf@N@@YANABN0@Z			; MinOf<double>
	add	esp, 8
	fstp	QWORD PTR _speed$137038[ebp]

; 225  : 
; 226  :     //from here proceed just like Seek except we don't need to normalize 
; 227  :     //the ToTarget vector because we have already gone to the trouble
; 228  :     //of calculating its length: dist. 
; 229  :     Vector2D DesiredVelocity =  ToTarget * speed / dist;

	sub	esp, 8
	fld	QWORD PTR _dist$[ebp]
	fstp	QWORD PTR [esp]
	sub	esp, 8
	fld	QWORD PTR _speed$137038[ebp]
	fstp	QWORD PTR [esp]
	lea	ecx, DWORD PTR _ToTarget$[ebp]
	push	ecx
	lea	edx, DWORD PTR $T146232[ebp]
	push	edx
	call	??D@YA?AUVector2D@@ABU0@N@Z		; operator*
	add	esp, 16					; 00000010H
	push	eax
	lea	eax, DWORD PTR _DesiredVelocity$137046[ebp]
	push	eax
	call	??K@YA?AUVector2D@@ABU0@N@Z		; operator/
	add	esp, 16					; 00000010H

; 230  : 
; 231  :     return (DesiredVelocity - m_pRaven_Bot->Velocity());

	lea	ecx, DWORD PTR $T146233[ebp]
	push	ecx
	mov	edx, DWORD PTR _this$[ebp]
	mov	ecx, DWORD PTR [edx+8]
	call	?Velocity@MovingEntity@@QBE?AUVector2D@@XZ ; MovingEntity::Velocity
	push	eax
	lea	eax, DWORD PTR _DesiredVelocity$137046[ebp]
	push	eax
	mov	ecx, DWORD PTR ___$ReturnUdt$[ebp]
	push	ecx
	call	??G@YA?AUVector2D@@ABU0@0@Z		; operator-
	add	esp, 12					; 0000000cH
	mov	eax, DWORD PTR ___$ReturnUdt$[ebp]
	jmp	SHORT $LN2@Arrive
$LN1@Arrive:

; 232  :   }
; 233  : 
; 234  :   return Vector2D(0,0);

	sub	esp, 8
	fldz
	fstp	QWORD PTR [esp]
	sub	esp, 8
	fldz
	fstp	QWORD PTR [esp]
	mov	ecx, DWORD PTR ___$ReturnUdt$[ebp]
	call	??0Vector2D@@QAE@NN@Z			; Vector2D::Vector2D
	mov	eax, DWORD PTR ___$ReturnUdt$[ebp]
$LN2@Arrive:

; 235  : }

	push	edx
	mov	ecx, ebp
	push	eax
	lea	edx, DWORD PTR $LN8@Arrive
	call	@_RTC_CheckStackVars@8
	pop	eax
	pop	edx
	pop	edi
	add	esp, 140				; 0000008cH
	cmp	ebp, esp
	call	__RTC_CheckEsp
	mov	esp, ebp
	pop	ebp
	ret	12					; 0000000cH
	npad	3
$LN8@Arrive:
	DD	3
	DD	$LN7@Arrive
$LN7@Arrive:
	DD	-24					; ffffffe8H
	DD	16					; 00000010H
	DD	$LN4@Arrive
	DD	-56					; ffffffc8H
	DD	8
	DD	$LN5@Arrive
	DD	-80					; ffffffb0H
	DD	16					; 00000010H
	DD	$LN6@Arrive
$LN6@Arrive:
	DB	68					; 00000044H
	DB	101					; 00000065H
	DB	115					; 00000073H
	DB	105					; 00000069H
	DB	114					; 00000072H
	DB	101					; 00000065H
	DB	100					; 00000064H
	DB	86					; 00000056H
	DB	101					; 00000065H
	DB	108					; 0000006cH
	DB	111					; 0000006fH
	DB	99					; 00000063H
	DB	105					; 00000069H
	DB	116					; 00000074H
	DB	121					; 00000079H
	DB	0
$LN5@Arrive:
	DB	115					; 00000073H
	DB	112					; 00000070H
	DB	101					; 00000065H
	DB	101					; 00000065H
	DB	100					; 00000064H
	DB	0
$LN4@Arrive:
	DB	84					; 00000054H
	DB	111					; 0000006fH
	DB	84					; 00000054H
	DB	97					; 00000061H
	DB	114					; 00000072H
	DB	103					; 00000067H
	DB	101					; 00000065H
	DB	116					; 00000074H
	DB	0
?Arrive@AbstSteering@@MAE?AUVector2D@@ABU2@W4Deceleration@1@@Z ENDP ; AbstSteering::Arrive
; Function compile flags: /Odtp /RTCsu
; File c:\users\teaja\documents\artificial-fun\labravenprojecttest\common\2d\vector2d.h
_TEXT	ENDS
;	COMDAT ??0Vector2D@@QAE@NN@Z
_TEXT	SEGMENT
_this$ = -4						; size = 4
_a$ = 8							; size = 8
_b$ = 16						; size = 8
??0Vector2D@@QAE@NN@Z PROC				; Vector2D::Vector2D, COMDAT
; _this$ = ecx

; 25   :   Vector2D(double a, double b):x(a),y(b){}

	push	ebp
	mov	ebp, esp
	push	ecx
	mov	DWORD PTR [ebp-4], -858993460		; ccccccccH
	mov	DWORD PTR _this$[ebp], ecx
	mov	eax, DWORD PTR _this$[ebp]
	fld	QWORD PTR _a$[ebp]
	fstp	QWORD PTR [eax]
	mov	ecx, DWORD PTR _this$[ebp]
	fld	QWORD PTR _b$[ebp]
	fstp	QWORD PTR [ecx+8]
	mov	eax, DWORD PTR _this$[ebp]
	mov	esp, ebp
	pop	ebp
	ret	16					; 00000010H
??0Vector2D@@QAE@NN@Z ENDP				; Vector2D::Vector2D
; Function compile flags: /Odtp /RTCsu
_TEXT	ENDS
;	COMDAT ??K@YA?AUVector2D@@ABU0@N@Z
_TEXT	SEGMENT
_result$ = -20						; size = 16
___$ReturnUdt$ = 8					; size = 4
_lhs$ = 12						; size = 4
_val$ = 16						; size = 8
??K@YA?AUVector2D@@ABU0@N@Z PROC			; operator/, COMDAT

; 369  : {

	push	ebp
	mov	ebp, esp
	sub	esp, 24					; 00000018H
	mov	eax, -858993460				; ccccccccH
	mov	DWORD PTR [ebp-24], eax
	mov	DWORD PTR [ebp-20], eax
	mov	DWORD PTR [ebp-16], eax
	mov	DWORD PTR [ebp-12], eax
	mov	DWORD PTR [ebp-8], eax
	mov	DWORD PTR [ebp-4], eax

; 370  :   Vector2D result(lhs);

	mov	eax, DWORD PTR _lhs$[ebp]
	fld	QWORD PTR [eax]
	fstp	QWORD PTR _result$[ebp]
	fld	QWORD PTR [eax+8]
	fstp	QWORD PTR _result$[ebp+8]

; 371  :   result.x /= val;

	fld	QWORD PTR _result$[ebp]
	fdiv	QWORD PTR _val$[ebp]
	fstp	QWORD PTR _result$[ebp]

; 372  :   result.y /= val;

	fld	QWORD PTR _result$[ebp+8]
	fdiv	QWORD PTR _val$[ebp]
	fstp	QWORD PTR _result$[ebp+8]

; 373  : 
; 374  :   return result;

	mov	ecx, DWORD PTR ___$ReturnUdt$[ebp]
	fld	QWORD PTR _result$[ebp]
	fstp	QWORD PTR [ecx]
	fld	QWORD PTR _result$[ebp+8]
	fstp	QWORD PTR [ecx+8]
	mov	eax, DWORD PTR ___$ReturnUdt$[ebp]

; 375  : }

	push	edx
	mov	ecx, ebp
	push	eax
	lea	edx, DWORD PTR $LN5@operator@3
	call	@_RTC_CheckStackVars@8
	pop	eax
	pop	edx
	mov	esp, ebp
	pop	ebp
	ret	0
	npad	1
$LN5@operator@3:
	DD	1
	DD	$LN4@operator@3
$LN4@operator@3:
	DD	-20					; ffffffecH
	DD	16					; 00000010H
	DD	$LN3@operator@3
$LN3@operator@3:
	DB	114					; 00000072H
	DB	101					; 00000065H
	DB	115					; 00000073H
	DB	117					; 00000075H
	DB	108					; 0000006cH
	DB	116					; 00000074H
	DB	0
??K@YA?AUVector2D@@ABU0@N@Z ENDP			; operator/
_TEXT	ENDS
PUBLIC	?PointToWorldSpace@@YA?AUVector2D@@ABU1@000@Z	; PointToWorldSpace
PUBLIC	??H@YA?AUVector2D@@ABU0@0@Z			; operator+
PUBLIC	?Normalize@Vector2D@@QAEXXZ			; Vector2D::Normalize
PUBLIC	?RandomClamped@@YANXZ				; RandomClamped
; Function compile flags: /Odtp /RTCsu
; File c:\users\teaja\documents\artificial-fun\labravenprojecttest\raven\abststeeringbehaviors.cpp
_TEXT	SEGMENT
$T146254 = -148						; size = 16
$T146253 = -132						; size = 16
$T146252 = -116						; size = 16
$T146251 = -100						; size = 16
$T146250 = -84						; size = 16
$T146249 = -68						; size = 16
_Target$ = -48						; size = 16
_target$ = -24						; size = 16
_this$ = -4						; size = 4
___$ReturnUdt$ = 8					; size = 4
?Wander@AbstSteering@@MAE?AUVector2D@@XZ PROC		; AbstSteering::Wander
; _this$ = ecx

; 244  : { 

	push	ebp
	mov	ebp, esp
	sub	esp, 148				; 00000094H
	push	edi
	push	ecx
	lea	edi, DWORD PTR [ebp-148]
	mov	ecx, 37					; 00000025H
	mov	eax, -858993460				; ccccccccH
	rep stosd
	pop	ecx
	mov	DWORD PTR _this$[ebp], ecx

; 245  :   //first, add a small random vector to the target's position
; 246  :   m_vWanderTarget += Vector2D(RandomClamped() * m_dWanderJitter,
; 247  :                               RandomClamped() * m_dWanderJitter);

	call	?RandomClamped@@YANXZ			; RandomClamped
	mov	eax, DWORD PTR _this$[ebp]
	fmul	QWORD PTR [eax+104]
	sub	esp, 8
	fstp	QWORD PTR [esp]
	call	?RandomClamped@@YANXZ			; RandomClamped
	mov	ecx, DWORD PTR _this$[ebp]
	fmul	QWORD PTR [ecx+104]
	sub	esp, 8
	fstp	QWORD PTR [esp]
	lea	ecx, DWORD PTR $T146249[ebp]
	call	??0Vector2D@@QAE@NN@Z			; Vector2D::Vector2D
	push	eax
	mov	ecx, DWORD PTR _this$[ebp]
	add	ecx, 88					; 00000058H
	call	??YVector2D@@QAEABU0@ABU0@@Z		; Vector2D::operator+=

; 248  : 
; 249  :   //reproject this new vector back on to a unit circle
; 250  :   m_vWanderTarget.Normalize();

	mov	ecx, DWORD PTR _this$[ebp]
	add	ecx, 88					; 00000058H
	call	?Normalize@Vector2D@@QAEXXZ		; Vector2D::Normalize

; 251  : 
; 252  :   //increase the length of the vector to the same as the radius
; 253  :   //of the wander circle
; 254  :   m_vWanderTarget *= m_dWanderRadius;

	mov	edx, DWORD PTR _this$[ebp]
	add	edx, 112				; 00000070H
	push	edx
	mov	ecx, DWORD PTR _this$[ebp]
	add	ecx, 88					; 00000058H
	call	??XVector2D@@QAEABU0@ABN@Z		; Vector2D::operator*=

; 255  : 
; 256  :   //move the target into a position WanderDist in front of the agent
; 257  :   Vector2D target = m_vWanderTarget + Vector2D(m_dWanderDistance, 0);

	sub	esp, 8
	fldz
	fstp	QWORD PTR [esp]
	mov	eax, DWORD PTR _this$[ebp]
	sub	esp, 8
	fld	QWORD PTR [eax+120]
	fstp	QWORD PTR [esp]
	lea	ecx, DWORD PTR $T146250[ebp]
	call	??0Vector2D@@QAE@NN@Z			; Vector2D::Vector2D
	push	eax
	mov	ecx, DWORD PTR _this$[ebp]
	add	ecx, 88					; 00000058H
	push	ecx
	lea	edx, DWORD PTR _target$[ebp]
	push	edx
	call	??H@YA?AUVector2D@@ABU0@0@Z		; operator+
	add	esp, 12					; 0000000cH

; 258  : 
; 259  :   //project the target into world space
; 260  :   Vector2D Target = PointToWorldSpace(target,
; 261  :                                        m_pRaven_Bot->Heading(),
; 262  :                                        m_pRaven_Bot->Side(), 
; 263  :                                        m_pRaven_Bot->Pos());

	lea	eax, DWORD PTR $T146251[ebp]
	push	eax
	mov	ecx, DWORD PTR _this$[ebp]
	mov	ecx, DWORD PTR [ecx+8]
	call	?Pos@BaseGameEntity@@QBE?AUVector2D@@XZ	; BaseGameEntity::Pos
	push	eax
	lea	edx, DWORD PTR $T146252[ebp]
	push	edx
	mov	eax, DWORD PTR _this$[ebp]
	mov	ecx, DWORD PTR [eax+8]
	call	?Side@MovingEntity@@QBE?AUVector2D@@XZ	; MovingEntity::Side
	push	eax
	lea	ecx, DWORD PTR $T146253[ebp]
	push	ecx
	mov	edx, DWORD PTR _this$[ebp]
	mov	ecx, DWORD PTR [edx+8]
	call	?Heading@MovingEntity@@QBE?AUVector2D@@XZ ; MovingEntity::Heading
	push	eax
	lea	eax, DWORD PTR _target$[ebp]
	push	eax
	lea	ecx, DWORD PTR _Target$[ebp]
	push	ecx
	call	?PointToWorldSpace@@YA?AUVector2D@@ABU1@000@Z ; PointToWorldSpace
	add	esp, 20					; 00000014H

; 264  : 
; 265  :   //and steer towards it
; 266  :   return Target - m_pRaven_Bot->Pos(); 

	lea	edx, DWORD PTR $T146254[ebp]
	push	edx
	mov	eax, DWORD PTR _this$[ebp]
	mov	ecx, DWORD PTR [eax+8]
	call	?Pos@BaseGameEntity@@QBE?AUVector2D@@XZ	; BaseGameEntity::Pos
	push	eax
	lea	ecx, DWORD PTR _Target$[ebp]
	push	ecx
	mov	edx, DWORD PTR ___$ReturnUdt$[ebp]
	push	edx
	call	??G@YA?AUVector2D@@ABU0@0@Z		; operator-
	add	esp, 12					; 0000000cH
	mov	eax, DWORD PTR ___$ReturnUdt$[ebp]

; 267  : }

	push	edx
	mov	ecx, ebp
	push	eax
	lea	edx, DWORD PTR $LN6@Wander
	call	@_RTC_CheckStackVars@8
	pop	eax
	pop	edx
	pop	edi
	add	esp, 148				; 00000094H
	cmp	ebp, esp
	call	__RTC_CheckEsp
	mov	esp, ebp
	pop	ebp
	ret	4
	npad	2
$LN6@Wander:
	DD	2
	DD	$LN5@Wander
$LN5@Wander:
	DD	-24					; ffffffe8H
	DD	16					; 00000010H
	DD	$LN3@Wander
	DD	-48					; ffffffd0H
	DD	16					; 00000010H
	DD	$LN4@Wander
$LN4@Wander:
	DB	84					; 00000054H
	DB	97					; 00000061H
	DB	114					; 00000072H
	DB	103					; 00000067H
	DB	101					; 00000065H
	DB	116					; 00000074H
	DB	0
$LN3@Wander:
	DB	116					; 00000074H
	DB	97					; 00000061H
	DB	114					; 00000072H
	DB	103					; 00000067H
	DB	101					; 00000065H
	DB	116					; 00000074H
	DB	0
?Wander@AbstSteering@@MAE?AUVector2D@@XZ ENDP		; AbstSteering::Wander
_TEXT	ENDS
PUBLIC	?RandFloat@@YANXZ				; RandFloat
; Function compile flags: /Odtp /RTCsu
; File c:\users\teaja\documents\artificial-fun\labravenprojecttest\common\misc\utils.h
;	COMDAT ?RandomClamped@@YANXZ
_TEXT	SEGMENT
tv72 = -8						; size = 8
?RandomClamped@@YANXZ PROC				; RandomClamped, COMDAT

; 103  : inline double RandomClamped()    {return RandFloat() - RandFloat();}

	push	ebp
	mov	ebp, esp
	sub	esp, 8
	mov	DWORD PTR [ebp-8], -858993460		; ccccccccH
	mov	DWORD PTR [ebp-4], -858993460		; ccccccccH
	call	?RandFloat@@YANXZ			; RandFloat
	fstp	QWORD PTR tv72[ebp]
	call	?RandFloat@@YANXZ			; RandFloat
	fsubr	QWORD PTR tv72[ebp]
	add	esp, 8
	cmp	ebp, esp
	call	__RTC_CheckEsp
	mov	esp, ebp
	pop	ebp
	ret	0
?RandomClamped@@YANXZ ENDP				; RandomClamped
_TEXT	ENDS
PUBLIC	__real@40e0000000000000
EXTRN	_rand:PROC
;	COMDAT __real@40e0000000000000
CONST	SEGMENT
__real@40e0000000000000 DQ 040e0000000000000r	; 32768
; Function compile flags: /Odtp /RTCsu
CONST	ENDS
;	COMDAT ?RandFloat@@YANXZ
_TEXT	SEGMENT
tv69 = -4						; size = 4
?RandFloat@@YANXZ PROC					; RandFloat, COMDAT

; 87   : inline double RandFloat()      {return ((rand())/(RAND_MAX+1.0));}

	push	ebp
	mov	ebp, esp
	push	ecx
	mov	DWORD PTR [ebp-4], -858993460		; ccccccccH
	call	_rand
	mov	DWORD PTR tv69[ebp], eax
	fild	DWORD PTR tv69[ebp]
	fdiv	QWORD PTR __real@40e0000000000000
	add	esp, 4
	cmp	ebp, esp
	call	__RTC_CheckEsp
	mov	esp, ebp
	pop	ebp
	ret	0
?RandFloat@@YANXZ ENDP					; RandFloat
; Function compile flags: /Odtp /RTCsu
; File c:\users\teaja\documents\artificial-fun\labravenprojecttest\common\2d\vector2d.h
_TEXT	ENDS
;	COMDAT ?Normalize@Vector2D@@QAEXXZ
_TEXT	SEGMENT
_vector_length$ = -12					; size = 8
_this$ = -4						; size = 4
?Normalize@Vector2D@@QAEXXZ PROC			; Vector2D::Normalize, COMDAT
; _this$ = ecx

; 244  : { 

	push	ebp
	mov	ebp, esp
	sub	esp, 12					; 0000000cH
	mov	DWORD PTR [ebp-12], -858993460		; ccccccccH
	mov	DWORD PTR [ebp-8], -858993460		; ccccccccH
	mov	DWORD PTR [ebp-4], -858993460		; ccccccccH
	mov	DWORD PTR _this$[ebp], ecx

; 245  :   double vector_length = this->Length();

	mov	ecx, DWORD PTR _this$[ebp]
	call	?Length@Vector2D@@QBENXZ		; Vector2D::Length
	fstp	QWORD PTR _vector_length$[ebp]

; 246  : 
; 247  :   if (vector_length > std::numeric_limits<double>::epsilon())

	call	?epsilon@?$numeric_limits@N@std@@SANXZ	; std::numeric_limits<double>::epsilon
	fcomp	QWORD PTR _vector_length$[ebp]
	fnstsw	ax
	test	ah, 5
	jp	SHORT $LN1@Normalize

; 248  :   {
; 249  :     this->x /= vector_length;

	mov	eax, DWORD PTR _this$[ebp]
	fld	QWORD PTR [eax]
	fdiv	QWORD PTR _vector_length$[ebp]
	mov	ecx, DWORD PTR _this$[ebp]
	fstp	QWORD PTR [ecx]

; 250  :     this->y /= vector_length;

	mov	edx, DWORD PTR _this$[ebp]
	fld	QWORD PTR [edx+8]
	fdiv	QWORD PTR _vector_length$[ebp]
	mov	eax, DWORD PTR _this$[ebp]
	fstp	QWORD PTR [eax+8]
$LN1@Normalize:

; 251  :   }
; 252  : }

	add	esp, 12					; 0000000cH
	cmp	ebp, esp
	call	__RTC_CheckEsp
	mov	esp, ebp
	pop	ebp
	ret	0
?Normalize@Vector2D@@QAEXXZ ENDP			; Vector2D::Normalize
; Function compile flags: /Odtp /RTCsu
_TEXT	ENDS
;	COMDAT ??H@YA?AUVector2D@@ABU0@0@Z
_TEXT	SEGMENT
_result$ = -20						; size = 16
___$ReturnUdt$ = 8					; size = 4
_lhs$ = 12						; size = 4
_rhs$ = 16						; size = 4
??H@YA?AUVector2D@@ABU0@0@Z PROC			; operator+, COMDAT

; 359  : {

	push	ebp
	mov	ebp, esp
	sub	esp, 24					; 00000018H
	mov	eax, -858993460				; ccccccccH
	mov	DWORD PTR [ebp-24], eax
	mov	DWORD PTR [ebp-20], eax
	mov	DWORD PTR [ebp-16], eax
	mov	DWORD PTR [ebp-12], eax
	mov	DWORD PTR [ebp-8], eax
	mov	DWORD PTR [ebp-4], eax

; 360  :   Vector2D result(lhs);

	mov	eax, DWORD PTR _lhs$[ebp]
	fld	QWORD PTR [eax]
	fstp	QWORD PTR _result$[ebp]
	fld	QWORD PTR [eax+8]
	fstp	QWORD PTR _result$[ebp+8]

; 361  :   result.x += rhs.x;

	mov	ecx, DWORD PTR _rhs$[ebp]
	fld	QWORD PTR _result$[ebp]
	fadd	QWORD PTR [ecx]
	fstp	QWORD PTR _result$[ebp]

; 362  :   result.y += rhs.y;

	mov	edx, DWORD PTR _rhs$[ebp]
	fld	QWORD PTR _result$[ebp+8]
	fadd	QWORD PTR [edx+8]
	fstp	QWORD PTR _result$[ebp+8]

; 363  :   
; 364  :   return result;

	mov	eax, DWORD PTR ___$ReturnUdt$[ebp]
	fld	QWORD PTR _result$[ebp]
	fstp	QWORD PTR [eax]
	fld	QWORD PTR _result$[ebp+8]
	fstp	QWORD PTR [eax+8]
	mov	eax, DWORD PTR ___$ReturnUdt$[ebp]

; 365  : }

	push	edx
	mov	ecx, ebp
	push	eax
	lea	edx, DWORD PTR $LN5@operator@4
	call	@_RTC_CheckStackVars@8
	pop	eax
	pop	edx
	mov	esp, ebp
	pop	ebp
	ret	0
$LN5@operator@4:
	DD	1
	DD	$LN4@operator@4
$LN4@operator@4:
	DD	-20					; ffffffecH
	DD	16					; 00000010H
	DD	$LN3@operator@4
$LN3@operator@4:
	DB	114					; 00000072H
	DB	101					; 00000065H
	DB	115					; 00000073H
	DB	117					; 00000075H
	DB	108					; 0000006cH
	DB	116					; 00000074H
	DB	0
??H@YA?AUVector2D@@ABU0@0@Z ENDP			; operator+
_TEXT	ENDS
PUBLIC	?TransformVector2Ds@C2DMatrix@@QAEXAAUVector2D@@@Z ; C2DMatrix::TransformVector2Ds
PUBLIC	?Translate@C2DMatrix@@QAEXNN@Z			; C2DMatrix::Translate
PUBLIC	?Rotate@C2DMatrix@@QAEXABUVector2D@@0@Z		; C2DMatrix::Rotate
PUBLIC	??0C2DMatrix@@QAE@XZ				; C2DMatrix::C2DMatrix
; Function compile flags: /Odtp /RTCsu
; File c:\users\teaja\documents\artificial-fun\labravenprojecttest\common\2d\transformations.h
;	COMDAT ?PointToWorldSpace@@YA?AUVector2D@@ABU1@000@Z
_TEXT	SEGMENT
_matTransform$ = -100					; size = 72
_TransPoint$ = -20					; size = 16
___$ReturnUdt$ = 8					; size = 4
_point$ = 12						; size = 4
_AgentHeading$ = 16					; size = 4
_AgentSide$ = 20					; size = 4
_AgentPosition$ = 24					; size = 4
?PointToWorldSpace@@YA?AUVector2D@@ABU1@000@Z PROC	; PointToWorldSpace, COMDAT

; 95   : {

	push	ebp
	mov	ebp, esp
	sub	esp, 104				; 00000068H
	push	edi
	lea	edi, DWORD PTR [ebp-104]
	mov	ecx, 26					; 0000001aH
	mov	eax, -858993460				; ccccccccH
	rep stosd

; 96   : 	//make a copy of the point
; 97   :   Vector2D TransPoint = point;

	mov	eax, DWORD PTR _point$[ebp]
	mov	ecx, DWORD PTR [eax]
	mov	DWORD PTR _TransPoint$[ebp], ecx
	mov	edx, DWORD PTR [eax+4]
	mov	DWORD PTR _TransPoint$[ebp+4], edx
	mov	ecx, DWORD PTR [eax+8]
	mov	DWORD PTR _TransPoint$[ebp+8], ecx
	mov	edx, DWORD PTR [eax+12]
	mov	DWORD PTR _TransPoint$[ebp+12], edx

; 98   :   
; 99   :   //create a transformation matrix
; 100  : 	C2DMatrix matTransform;

	lea	ecx, DWORD PTR _matTransform$[ebp]
	call	??0C2DMatrix@@QAE@XZ			; C2DMatrix::C2DMatrix

; 101  : 
; 102  : 	//rotate
; 103  : 	matTransform.Rotate(AgentHeading, AgentSide);

	mov	eax, DWORD PTR _AgentSide$[ebp]
	push	eax
	mov	ecx, DWORD PTR _AgentHeading$[ebp]
	push	ecx
	lea	ecx, DWORD PTR _matTransform$[ebp]
	call	?Rotate@C2DMatrix@@QAEXABUVector2D@@0@Z	; C2DMatrix::Rotate

; 104  : 
; 105  : 	//and translate
; 106  : 	matTransform.Translate(AgentPosition.x, AgentPosition.y);

	mov	edx, DWORD PTR _AgentPosition$[ebp]
	sub	esp, 8
	fld	QWORD PTR [edx+8]
	fstp	QWORD PTR [esp]
	mov	eax, DWORD PTR _AgentPosition$[ebp]
	sub	esp, 8
	fld	QWORD PTR [eax]
	fstp	QWORD PTR [esp]
	lea	ecx, DWORD PTR _matTransform$[ebp]
	call	?Translate@C2DMatrix@@QAEXNN@Z		; C2DMatrix::Translate

; 107  : 	
; 108  :   //now transform the vertices
; 109  :   matTransform.TransformVector2Ds(TransPoint);

	lea	ecx, DWORD PTR _TransPoint$[ebp]
	push	ecx
	lea	ecx, DWORD PTR _matTransform$[ebp]
	call	?TransformVector2Ds@C2DMatrix@@QAEXAAUVector2D@@@Z ; C2DMatrix::TransformVector2Ds

; 110  : 
; 111  :   return TransPoint;

	mov	edx, DWORD PTR ___$ReturnUdt$[ebp]
	mov	eax, DWORD PTR _TransPoint$[ebp]
	mov	DWORD PTR [edx], eax
	mov	ecx, DWORD PTR _TransPoint$[ebp+4]
	mov	DWORD PTR [edx+4], ecx
	mov	eax, DWORD PTR _TransPoint$[ebp+8]
	mov	DWORD PTR [edx+8], eax
	mov	ecx, DWORD PTR _TransPoint$[ebp+12]
	mov	DWORD PTR [edx+12], ecx
	mov	eax, DWORD PTR ___$ReturnUdt$[ebp]

; 112  : }

	push	edx
	mov	ecx, ebp
	push	eax
	lea	edx, DWORD PTR $LN6@PointToWor
	call	@_RTC_CheckStackVars@8
	pop	eax
	pop	edx
	pop	edi
	add	esp, 104				; 00000068H
	cmp	ebp, esp
	call	__RTC_CheckEsp
	mov	esp, ebp
	pop	ebp
	ret	0
$LN6@PointToWor:
	DD	2
	DD	$LN5@PointToWor
$LN5@PointToWor:
	DD	-20					; ffffffecH
	DD	16					; 00000010H
	DD	$LN3@PointToWor
	DD	-100					; ffffff9cH
	DD	72					; 00000048H
	DD	$LN4@PointToWor
$LN4@PointToWor:
	DB	109					; 0000006dH
	DB	97					; 00000061H
	DB	116					; 00000074H
	DB	84					; 00000054H
	DB	114					; 00000072H
	DB	97					; 00000061H
	DB	110					; 0000006eH
	DB	115					; 00000073H
	DB	102					; 00000066H
	DB	111					; 0000006fH
	DB	114					; 00000072H
	DB	109					; 0000006dH
	DB	0
$LN3@PointToWor:
	DB	84					; 00000054H
	DB	114					; 00000072H
	DB	97					; 00000061H
	DB	110					; 0000006eH
	DB	115					; 00000073H
	DB	80					; 00000050H
	DB	111					; 0000006fH
	DB	105					; 00000069H
	DB	110					; 0000006eH
	DB	116					; 00000074H
	DB	0
?PointToWorldSpace@@YA?AUVector2D@@ABU1@000@Z ENDP	; PointToWorldSpace
_TEXT	ENDS
PUBLIC	?Identity@C2DMatrix@@QAEXXZ			; C2DMatrix::Identity
PUBLIC	??0Matrix@C2DMatrix@@QAE@XZ			; C2DMatrix::Matrix::Matrix
; Function compile flags: /Odtp /RTCsu
; File c:\users\teaja\documents\artificial-fun\labravenprojecttest\common\2d\c2dmatrix.h
;	COMDAT ??0C2DMatrix@@QAE@XZ
_TEXT	SEGMENT
_this$ = -4						; size = 4
??0C2DMatrix@@QAE@XZ PROC				; C2DMatrix::C2DMatrix, COMDAT
; _this$ = ecx

; 49   :   C2DMatrix()

	push	ebp
	mov	ebp, esp
	push	ecx
	mov	DWORD PTR [ebp-4], -858993460		; ccccccccH
	mov	DWORD PTR _this$[ebp], ecx
	mov	ecx, DWORD PTR _this$[ebp]
	call	??0Matrix@C2DMatrix@@QAE@XZ		; C2DMatrix::Matrix::Matrix

; 50   :   {
; 51   :     //initialize the matrix to an identity matrix
; 52   :     Identity();

	mov	ecx, DWORD PTR _this$[ebp]
	call	?Identity@C2DMatrix@@QAEXXZ		; C2DMatrix::Identity

; 53   :   }

	mov	eax, DWORD PTR _this$[ebp]
	add	esp, 4
	cmp	ebp, esp
	call	__RTC_CheckEsp
	mov	esp, ebp
	pop	ebp
	ret	0
??0C2DMatrix@@QAE@XZ ENDP				; C2DMatrix::C2DMatrix
; Function compile flags: /Odtp /RTCsu
_TEXT	ENDS
;	COMDAT ??0Matrix@C2DMatrix@@QAE@XZ
_TEXT	SEGMENT
_this$ = -4						; size = 4
??0Matrix@C2DMatrix@@QAE@XZ PROC			; C2DMatrix::Matrix::Matrix, COMDAT
; _this$ = ecx

; 32   :     Matrix()

	push	ebp
	mov	ebp, esp
	push	ecx
	mov	DWORD PTR [ebp-4], -858993460		; ccccccccH
	mov	DWORD PTR _this$[ebp], ecx

; 33   :     {
; 34   :       _11=0.0; _12=0.0; _13=0.0;

	mov	eax, DWORD PTR _this$[ebp]
	fldz
	fstp	QWORD PTR [eax]
	mov	ecx, DWORD PTR _this$[ebp]
	fldz
	fstp	QWORD PTR [ecx+8]
	mov	edx, DWORD PTR _this$[ebp]
	fldz
	fstp	QWORD PTR [edx+16]

; 35   :       _21=0.0; _22=0.0; _23=0.0;

	mov	eax, DWORD PTR _this$[ebp]
	fldz
	fstp	QWORD PTR [eax+24]
	mov	ecx, DWORD PTR _this$[ebp]
	fldz
	fstp	QWORD PTR [ecx+32]
	mov	edx, DWORD PTR _this$[ebp]
	fldz
	fstp	QWORD PTR [edx+40]

; 36   :       _31=0.0; _32=0.0; _33=0.0;

	mov	eax, DWORD PTR _this$[ebp]
	fldz
	fstp	QWORD PTR [eax+48]
	mov	ecx, DWORD PTR _this$[ebp]
	fldz
	fstp	QWORD PTR [ecx+56]
	mov	edx, DWORD PTR _this$[ebp]
	fldz
	fstp	QWORD PTR [edx+64]

; 37   :     }

	mov	eax, DWORD PTR _this$[ebp]
	mov	esp, ebp
	pop	ebp
	ret	0
??0Matrix@C2DMatrix@@QAE@XZ ENDP			; C2DMatrix::Matrix::Matrix
; Function compile flags: /Odtp /RTCsu
_TEXT	ENDS
;	COMDAT ?TransformVector2Ds@C2DMatrix@@QAEXAAUVector2D@@@Z
_TEXT	SEGMENT
_tempY$ = -20						; size = 8
_tempX$ = -12						; size = 8
_this$ = -4						; size = 4
_vPoint$ = 8						; size = 4
?TransformVector2Ds@C2DMatrix@@QAEXAAUVector2D@@@Z PROC	; C2DMatrix::TransformVector2Ds, COMDAT
; _this$ = ecx

; 134  : {

	push	ebp
	mov	ebp, esp
	sub	esp, 20					; 00000014H
	mov	eax, -858993460				; ccccccccH
	mov	DWORD PTR [ebp-20], eax
	mov	DWORD PTR [ebp-16], eax
	mov	DWORD PTR [ebp-12], eax
	mov	DWORD PTR [ebp-8], eax
	mov	DWORD PTR [ebp-4], eax
	mov	DWORD PTR _this$[ebp], ecx

; 135  : 
; 136  :   double tempX =(m_Matrix._11*vPoint.x) + (m_Matrix._21*vPoint.y) + (m_Matrix._31);

	mov	eax, DWORD PTR _this$[ebp]
	mov	ecx, DWORD PTR _vPoint$[ebp]
	fld	QWORD PTR [eax]
	fmul	QWORD PTR [ecx]
	mov	edx, DWORD PTR _this$[ebp]
	mov	eax, DWORD PTR _vPoint$[ebp]
	fld	QWORD PTR [edx+24]
	fmul	QWORD PTR [eax+8]
	faddp	ST(1), ST(0)
	mov	ecx, DWORD PTR _this$[ebp]
	fadd	QWORD PTR [ecx+48]
	fstp	QWORD PTR _tempX$[ebp]

; 137  : 
; 138  :   double tempY = (m_Matrix._12*vPoint.x) + (m_Matrix._22*vPoint.y) + (m_Matrix._32);

	mov	edx, DWORD PTR _this$[ebp]
	mov	eax, DWORD PTR _vPoint$[ebp]
	fld	QWORD PTR [edx+8]
	fmul	QWORD PTR [eax]
	mov	ecx, DWORD PTR _this$[ebp]
	mov	edx, DWORD PTR _vPoint$[ebp]
	fld	QWORD PTR [ecx+32]
	fmul	QWORD PTR [edx+8]
	faddp	ST(1), ST(0)
	mov	eax, DWORD PTR _this$[ebp]
	fadd	QWORD PTR [eax+56]
	fstp	QWORD PTR _tempY$[ebp]

; 139  :   
; 140  :   vPoint.x = tempX;

	mov	ecx, DWORD PTR _vPoint$[ebp]
	fld	QWORD PTR _tempX$[ebp]
	fstp	QWORD PTR [ecx]

; 141  : 
; 142  :   vPoint.y = tempY;

	mov	edx, DWORD PTR _vPoint$[ebp]
	fld	QWORD PTR _tempY$[ebp]
	fstp	QWORD PTR [edx+8]

; 143  : }

	mov	esp, ebp
	pop	ebp
	ret	4
?TransformVector2Ds@C2DMatrix@@QAEXAAUVector2D@@@Z ENDP	; C2DMatrix::TransformVector2Ds
_TEXT	ENDS
PUBLIC	__real@3ff0000000000000
;	COMDAT __real@3ff0000000000000
CONST	SEGMENT
__real@3ff0000000000000 DQ 03ff0000000000000r	; 1
; Function compile flags: /Odtp /RTCsu
CONST	ENDS
;	COMDAT ?Identity@C2DMatrix@@QAEXXZ
_TEXT	SEGMENT
_this$ = -4						; size = 4
?Identity@C2DMatrix@@QAEXXZ PROC			; C2DMatrix::Identity, COMDAT
; _this$ = ecx

; 149  : {

	push	ebp
	mov	ebp, esp
	push	ecx
	mov	DWORD PTR [ebp-4], -858993460		; ccccccccH
	mov	DWORD PTR _this$[ebp], ecx

; 150  :   m_Matrix._11 = 1; m_Matrix._12 = 0; m_Matrix._13 = 0;

	mov	eax, DWORD PTR _this$[ebp]
	fld1
	fstp	QWORD PTR [eax]
	mov	ecx, DWORD PTR _this$[ebp]
	fldz
	fstp	QWORD PTR [ecx+8]
	mov	edx, DWORD PTR _this$[ebp]
	fldz
	fstp	QWORD PTR [edx+16]

; 151  : 
; 152  :   m_Matrix._21 = 0; m_Matrix._22 = 1; m_Matrix._23 = 0;

	mov	eax, DWORD PTR _this$[ebp]
	fldz
	fstp	QWORD PTR [eax+24]
	mov	ecx, DWORD PTR _this$[ebp]
	fld1
	fstp	QWORD PTR [ecx+32]
	mov	edx, DWORD PTR _this$[ebp]
	fldz
	fstp	QWORD PTR [edx+40]

; 153  : 
; 154  :   m_Matrix._31 = 0; m_Matrix._32 = 0; m_Matrix._33 = 1;

	mov	eax, DWORD PTR _this$[ebp]
	fldz
	fstp	QWORD PTR [eax+48]
	mov	ecx, DWORD PTR _this$[ebp]
	fldz
	fstp	QWORD PTR [ecx+56]
	mov	edx, DWORD PTR _this$[ebp]
	fld1
	fstp	QWORD PTR [edx+64]

; 155  : 
; 156  :   }

	mov	esp, ebp
	pop	ebp
	ret	0
?Identity@C2DMatrix@@QAEXXZ ENDP			; C2DMatrix::Identity
_TEXT	ENDS
PUBLIC	?MatrixMultiply@C2DMatrix@@AAEXAAUMatrix@1@@Z	; C2DMatrix::MatrixMultiply
; Function compile flags: /Odtp /RTCsu
;	COMDAT ?Translate@C2DMatrix@@QAEXNN@Z
_TEXT	SEGMENT
_mat$ = -80						; size = 72
_this$ = -4						; size = 4
_x$ = 8							; size = 8
_y$ = 16						; size = 8
?Translate@C2DMatrix@@QAEXNN@Z PROC			; C2DMatrix::Translate, COMDAT
; _this$ = ecx

; 160  : {

	push	ebp
	mov	ebp, esp
	sub	esp, 84					; 00000054H
	push	edi
	push	ecx
	lea	edi, DWORD PTR [ebp-84]
	mov	ecx, 21					; 00000015H
	mov	eax, -858993460				; ccccccccH
	rep stosd
	pop	ecx
	mov	DWORD PTR _this$[ebp], ecx

; 161  :   Matrix mat;

	lea	ecx, DWORD PTR _mat$[ebp]
	call	??0Matrix@C2DMatrix@@QAE@XZ		; C2DMatrix::Matrix::Matrix

; 162  :   
; 163  :   mat._11 = 1; mat._12 = 0; mat._13 = 0;

	fld1
	fstp	QWORD PTR _mat$[ebp]
	fldz
	fstp	QWORD PTR _mat$[ebp+8]
	fldz
	fstp	QWORD PTR _mat$[ebp+16]

; 164  :   
; 165  :   mat._21 = 0; mat._22 = 1; mat._23 = 0;

	fldz
	fstp	QWORD PTR _mat$[ebp+24]
	fld1
	fstp	QWORD PTR _mat$[ebp+32]
	fldz
	fstp	QWORD PTR _mat$[ebp+40]

; 166  :   
; 167  :   mat._31 = x;    mat._32 = y;    mat._33 = 1;

	fld	QWORD PTR _x$[ebp]
	fstp	QWORD PTR _mat$[ebp+48]
	fld	QWORD PTR _y$[ebp]
	fstp	QWORD PTR _mat$[ebp+56]
	fld1
	fstp	QWORD PTR _mat$[ebp+64]

; 168  :   
; 169  :   //and multiply
; 170  :   MatrixMultiply(mat);

	lea	eax, DWORD PTR _mat$[ebp]
	push	eax
	mov	ecx, DWORD PTR _this$[ebp]
	call	?MatrixMultiply@C2DMatrix@@AAEXAAUMatrix@1@@Z ; C2DMatrix::MatrixMultiply

; 171  : }

	push	edx
	mov	ecx, ebp
	push	eax
	lea	edx, DWORD PTR $LN5@Translate
	call	@_RTC_CheckStackVars@8
	pop	eax
	pop	edx
	pop	edi
	add	esp, 84					; 00000054H
	cmp	ebp, esp
	call	__RTC_CheckEsp
	mov	esp, ebp
	pop	ebp
	ret	16					; 00000010H
$LN5@Translate:
	DD	1
	DD	$LN4@Translate
$LN4@Translate:
	DD	-80					; ffffffb0H
	DD	72					; 00000048H
	DD	$LN3@Translate
$LN3@Translate:
	DB	109					; 0000006dH
	DB	97					; 00000061H
	DB	116					; 00000074H
	DB	0
?Translate@C2DMatrix@@QAEXNN@Z ENDP			; C2DMatrix::Translate
; Function compile flags: /Odtp /RTCsu
_TEXT	ENDS
;	COMDAT ?MatrixMultiply@C2DMatrix@@AAEXAAUMatrix@1@@Z
_TEXT	SEGMENT
_mat_temp$ = -80					; size = 72
_this$ = -4						; size = 4
_mIn$ = 8						; size = 4
?MatrixMultiply@C2DMatrix@@AAEXAAUMatrix@1@@Z PROC	; C2DMatrix::MatrixMultiply, COMDAT
; _this$ = ecx

; 95   : {

	push	ebp
	mov	ebp, esp
	sub	esp, 84					; 00000054H
	push	esi
	push	edi
	push	ecx
	lea	edi, DWORD PTR [ebp-84]
	mov	ecx, 21					; 00000015H
	mov	eax, -858993460				; ccccccccH
	rep stosd
	pop	ecx
	mov	DWORD PTR _this$[ebp], ecx

; 96   :   C2DMatrix::Matrix mat_temp;

	lea	ecx, DWORD PTR _mat_temp$[ebp]
	call	??0Matrix@C2DMatrix@@QAE@XZ		; C2DMatrix::Matrix::Matrix

; 97   :   
; 98   :   //first row
; 99   :   mat_temp._11 = (m_Matrix._11*mIn._11) + (m_Matrix._12*mIn._21) + (m_Matrix._13*mIn._31);

	mov	eax, DWORD PTR _this$[ebp]
	mov	ecx, DWORD PTR _mIn$[ebp]
	fld	QWORD PTR [eax]
	fmul	QWORD PTR [ecx]
	mov	edx, DWORD PTR _this$[ebp]
	mov	eax, DWORD PTR _mIn$[ebp]
	fld	QWORD PTR [edx+8]
	fmul	QWORD PTR [eax+24]
	faddp	ST(1), ST(0)
	mov	ecx, DWORD PTR _this$[ebp]
	mov	edx, DWORD PTR _mIn$[ebp]
	fld	QWORD PTR [ecx+16]
	fmul	QWORD PTR [edx+48]
	faddp	ST(1), ST(0)
	fstp	QWORD PTR _mat_temp$[ebp]

; 100  :   mat_temp._12 = (m_Matrix._11*mIn._12) + (m_Matrix._12*mIn._22) + (m_Matrix._13*mIn._32);

	mov	eax, DWORD PTR _this$[ebp]
	mov	ecx, DWORD PTR _mIn$[ebp]
	fld	QWORD PTR [eax]
	fmul	QWORD PTR [ecx+8]
	mov	edx, DWORD PTR _this$[ebp]
	mov	eax, DWORD PTR _mIn$[ebp]
	fld	QWORD PTR [edx+8]
	fmul	QWORD PTR [eax+32]
	faddp	ST(1), ST(0)
	mov	ecx, DWORD PTR _this$[ebp]
	mov	edx, DWORD PTR _mIn$[ebp]
	fld	QWORD PTR [ecx+16]
	fmul	QWORD PTR [edx+56]
	faddp	ST(1), ST(0)
	fstp	QWORD PTR _mat_temp$[ebp+8]

; 101  :   mat_temp._13 = (m_Matrix._11*mIn._13) + (m_Matrix._12*mIn._23) + (m_Matrix._13*mIn._33);

	mov	eax, DWORD PTR _this$[ebp]
	mov	ecx, DWORD PTR _mIn$[ebp]
	fld	QWORD PTR [eax]
	fmul	QWORD PTR [ecx+16]
	mov	edx, DWORD PTR _this$[ebp]
	mov	eax, DWORD PTR _mIn$[ebp]
	fld	QWORD PTR [edx+8]
	fmul	QWORD PTR [eax+40]
	faddp	ST(1), ST(0)
	mov	ecx, DWORD PTR _this$[ebp]
	mov	edx, DWORD PTR _mIn$[ebp]
	fld	QWORD PTR [ecx+16]
	fmul	QWORD PTR [edx+64]
	faddp	ST(1), ST(0)
	fstp	QWORD PTR _mat_temp$[ebp+16]

; 102  : 
; 103  :   //second
; 104  :   mat_temp._21 = (m_Matrix._21*mIn._11) + (m_Matrix._22*mIn._21) + (m_Matrix._23*mIn._31);

	mov	eax, DWORD PTR _this$[ebp]
	mov	ecx, DWORD PTR _mIn$[ebp]
	fld	QWORD PTR [eax+24]
	fmul	QWORD PTR [ecx]
	mov	edx, DWORD PTR _this$[ebp]
	mov	eax, DWORD PTR _mIn$[ebp]
	fld	QWORD PTR [edx+32]
	fmul	QWORD PTR [eax+24]
	faddp	ST(1), ST(0)
	mov	ecx, DWORD PTR _this$[ebp]
	mov	edx, DWORD PTR _mIn$[ebp]
	fld	QWORD PTR [ecx+40]
	fmul	QWORD PTR [edx+48]
	faddp	ST(1), ST(0)
	fstp	QWORD PTR _mat_temp$[ebp+24]

; 105  :   mat_temp._22 = (m_Matrix._21*mIn._12) + (m_Matrix._22*mIn._22) + (m_Matrix._23*mIn._32);

	mov	eax, DWORD PTR _this$[ebp]
	mov	ecx, DWORD PTR _mIn$[ebp]
	fld	QWORD PTR [eax+24]
	fmul	QWORD PTR [ecx+8]
	mov	edx, DWORD PTR _this$[ebp]
	mov	eax, DWORD PTR _mIn$[ebp]
	fld	QWORD PTR [edx+32]
	fmul	QWORD PTR [eax+32]
	faddp	ST(1), ST(0)
	mov	ecx, DWORD PTR _this$[ebp]
	mov	edx, DWORD PTR _mIn$[ebp]
	fld	QWORD PTR [ecx+40]
	fmul	QWORD PTR [edx+56]
	faddp	ST(1), ST(0)
	fstp	QWORD PTR _mat_temp$[ebp+32]

; 106  :   mat_temp._23 = (m_Matrix._21*mIn._13) + (m_Matrix._22*mIn._23) + (m_Matrix._23*mIn._33);

	mov	eax, DWORD PTR _this$[ebp]
	mov	ecx, DWORD PTR _mIn$[ebp]
	fld	QWORD PTR [eax+24]
	fmul	QWORD PTR [ecx+16]
	mov	edx, DWORD PTR _this$[ebp]
	mov	eax, DWORD PTR _mIn$[ebp]
	fld	QWORD PTR [edx+32]
	fmul	QWORD PTR [eax+40]
	faddp	ST(1), ST(0)
	mov	ecx, DWORD PTR _this$[ebp]
	mov	edx, DWORD PTR _mIn$[ebp]
	fld	QWORD PTR [ecx+40]
	fmul	QWORD PTR [edx+64]
	faddp	ST(1), ST(0)
	fstp	QWORD PTR _mat_temp$[ebp+40]

; 107  : 
; 108  :   //third
; 109  :   mat_temp._31 = (m_Matrix._31*mIn._11) + (m_Matrix._32*mIn._21) + (m_Matrix._33*mIn._31);

	mov	eax, DWORD PTR _this$[ebp]
	mov	ecx, DWORD PTR _mIn$[ebp]
	fld	QWORD PTR [eax+48]
	fmul	QWORD PTR [ecx]
	mov	edx, DWORD PTR _this$[ebp]
	mov	eax, DWORD PTR _mIn$[ebp]
	fld	QWORD PTR [edx+56]
	fmul	QWORD PTR [eax+24]
	faddp	ST(1), ST(0)
	mov	ecx, DWORD PTR _this$[ebp]
	mov	edx, DWORD PTR _mIn$[ebp]
	fld	QWORD PTR [ecx+64]
	fmul	QWORD PTR [edx+48]
	faddp	ST(1), ST(0)
	fstp	QWORD PTR _mat_temp$[ebp+48]

; 110  :   mat_temp._32 = (m_Matrix._31*mIn._12) + (m_Matrix._32*mIn._22) + (m_Matrix._33*mIn._32);

	mov	eax, DWORD PTR _this$[ebp]
	mov	ecx, DWORD PTR _mIn$[ebp]
	fld	QWORD PTR [eax+48]
	fmul	QWORD PTR [ecx+8]
	mov	edx, DWORD PTR _this$[ebp]
	mov	eax, DWORD PTR _mIn$[ebp]
	fld	QWORD PTR [edx+56]
	fmul	QWORD PTR [eax+32]
	faddp	ST(1), ST(0)
	mov	ecx, DWORD PTR _this$[ebp]
	mov	edx, DWORD PTR _mIn$[ebp]
	fld	QWORD PTR [ecx+64]
	fmul	QWORD PTR [edx+56]
	faddp	ST(1), ST(0)
	fstp	QWORD PTR _mat_temp$[ebp+56]

; 111  :   mat_temp._33 = (m_Matrix._31*mIn._13) + (m_Matrix._32*mIn._23) + (m_Matrix._33*mIn._33);

	mov	eax, DWORD PTR _this$[ebp]
	mov	ecx, DWORD PTR _mIn$[ebp]
	fld	QWORD PTR [eax+48]
	fmul	QWORD PTR [ecx+16]
	mov	edx, DWORD PTR _this$[ebp]
	mov	eax, DWORD PTR _mIn$[ebp]
	fld	QWORD PTR [edx+56]
	fmul	QWORD PTR [eax+40]
	faddp	ST(1), ST(0)
	mov	ecx, DWORD PTR _this$[ebp]
	mov	edx, DWORD PTR _mIn$[ebp]
	fld	QWORD PTR [ecx+64]
	fmul	QWORD PTR [edx+64]
	faddp	ST(1), ST(0)
	fstp	QWORD PTR _mat_temp$[ebp+64]

; 112  : 
; 113  :   m_Matrix = mat_temp;

	mov	ecx, 18					; 00000012H
	lea	esi, DWORD PTR _mat_temp$[ebp]
	mov	edi, DWORD PTR _this$[ebp]
	rep movsd

; 114  : }

	push	edx
	mov	ecx, ebp
	push	eax
	lea	edx, DWORD PTR $LN5@MatrixMult
	call	@_RTC_CheckStackVars@8
	pop	eax
	pop	edx
	pop	edi
	pop	esi
	add	esp, 84					; 00000054H
	cmp	ebp, esp
	call	__RTC_CheckEsp
	mov	esp, ebp
	pop	ebp
	ret	4
	npad	3
$LN5@MatrixMult:
	DD	1
	DD	$LN4@MatrixMult
$LN4@MatrixMult:
	DD	-80					; ffffffb0H
	DD	72					; 00000048H
	DD	$LN3@MatrixMult
$LN3@MatrixMult:
	DB	109					; 0000006dH
	DB	97					; 00000061H
	DB	116					; 00000074H
	DB	95					; 0000005fH
	DB	116					; 00000074H
	DB	101					; 00000065H
	DB	109					; 0000006dH
	DB	112					; 00000070H
	DB	0
?MatrixMultiply@C2DMatrix@@AAEXAAUMatrix@1@@Z ENDP	; C2DMatrix::MatrixMultiply
; Function compile flags: /Odtp /RTCsu
_TEXT	ENDS
;	COMDAT ?Rotate@C2DMatrix@@QAEXABUVector2D@@0@Z
_TEXT	SEGMENT
_mat$ = -80						; size = 72
_this$ = -4						; size = 4
_fwd$ = 8						; size = 4
_side$ = 12						; size = 4
?Rotate@C2DMatrix@@QAEXABUVector2D@@0@Z PROC		; C2DMatrix::Rotate, COMDAT
; _this$ = ecx

; 210  : {

	push	ebp
	mov	ebp, esp
	sub	esp, 84					; 00000054H
	push	edi
	push	ecx
	lea	edi, DWORD PTR [ebp-84]
	mov	ecx, 21					; 00000015H
	mov	eax, -858993460				; ccccccccH
	rep stosd
	pop	ecx
	mov	DWORD PTR _this$[ebp], ecx

; 211  :   C2DMatrix::Matrix mat;

	lea	ecx, DWORD PTR _mat$[ebp]
	call	??0Matrix@C2DMatrix@@QAE@XZ		; C2DMatrix::Matrix::Matrix

; 212  :   
; 213  :   mat._11 = fwd.x;  mat._12 = fwd.y; mat._13 = 0;

	mov	eax, DWORD PTR _fwd$[ebp]
	fld	QWORD PTR [eax]
	fstp	QWORD PTR _mat$[ebp]
	mov	ecx, DWORD PTR _fwd$[ebp]
	fld	QWORD PTR [ecx+8]
	fstp	QWORD PTR _mat$[ebp+8]
	fldz
	fstp	QWORD PTR _mat$[ebp+16]

; 214  :   
; 215  :   mat._21 = side.x; mat._22 = side.y; mat._23 = 0;

	mov	edx, DWORD PTR _side$[ebp]
	fld	QWORD PTR [edx]
	fstp	QWORD PTR _mat$[ebp+24]
	mov	eax, DWORD PTR _side$[ebp]
	fld	QWORD PTR [eax+8]
	fstp	QWORD PTR _mat$[ebp+32]
	fldz
	fstp	QWORD PTR _mat$[ebp+40]

; 216  :   
; 217  :   mat._31 = 0; mat._32 = 0;mat._33 = 1;

	fldz
	fstp	QWORD PTR _mat$[ebp+48]
	fldz
	fstp	QWORD PTR _mat$[ebp+56]
	fld1
	fstp	QWORD PTR _mat$[ebp+64]

; 218  :   
; 219  :   //and multiply
; 220  :   MatrixMultiply(mat);

	lea	ecx, DWORD PTR _mat$[ebp]
	push	ecx
	mov	ecx, DWORD PTR _this$[ebp]
	call	?MatrixMultiply@C2DMatrix@@AAEXAAUMatrix@1@@Z ; C2DMatrix::MatrixMultiply

; 221  : }

	push	edx
	mov	ecx, ebp
	push	eax
	lea	edx, DWORD PTR $LN5@Rotate
	call	@_RTC_CheckStackVars@8
	pop	eax
	pop	edx
	pop	edi
	add	esp, 84					; 00000054H
	cmp	ebp, esp
	call	__RTC_CheckEsp
	mov	esp, ebp
	pop	ebp
	ret	8
$LN5@Rotate:
	DD	1
	DD	$LN4@Rotate
$LN4@Rotate:
	DD	-80					; ffffffb0H
	DD	72					; 00000048H
	DD	$LN3@Rotate
$LN3@Rotate:
	DB	109					; 0000006dH
	DB	97					; 00000061H
	DB	116					; 00000074H
	DB	0
?Rotate@C2DMatrix@@QAEXABUVector2D@@0@Z ENDP		; C2DMatrix::Rotate
_TEXT	ENDS
PUBLIC	?Normal@Wall2D@@QBE?AUVector2D@@XZ		; Wall2D::Normal
PUBLIC	?LineIntersection2D@@YA_NUVector2D@@000AANAAU1@@Z ; LineIntersection2D
PUBLIC	??A?$vector@UVector2D@@V?$allocator@UVector2D@@@std@@@std@@QAEAAUVector2D@@I@Z ; std::vector<Vector2D,std::allocator<Vector2D> >::operator[]
PUBLIC	?From@Wall2D@@QBE?AUVector2D@@XZ		; Wall2D::From
PUBLIC	?To@Wall2D@@QBE?AUVector2D@@XZ			; Wall2D::To
PUBLIC	??A?$vector@PAVWall2D@@V?$allocator@PAVWall2D@@@std@@@std@@QBEABQAVWall2D@@I@Z ; std::vector<Wall2D *,std::allocator<Wall2D *> >::operator[]
PUBLIC	?size@?$vector@PAVWall2D@@V?$allocator@PAVWall2D@@@std@@@std@@QBEIXZ ; std::vector<Wall2D *,std::allocator<Wall2D *> >::size
PUBLIC	?size@?$vector@UVector2D@@V?$allocator@UVector2D@@@std@@@std@@QBEIXZ ; std::vector<Vector2D,std::allocator<Vector2D> >::size
PUBLIC	?CreateFeelers@AbstSteering@@IAEXXZ		; AbstSteering::CreateFeelers
; Function compile flags: /Odtp /RTCsu
; File c:\users\teaja\documents\artificial-fun\labravenprojecttest\raven\abststeeringbehaviors.cpp
_TEXT	SEGMENT
$T146308 = -216						; size = 16
$T146307 = -200						; size = 16
$T146306 = -184						; size = 16
$T146305 = -168						; size = 16
$T146304 = -152						; size = 16
_OverShoot$137096 = -132				; size = 16
_w$137086 = -112					; size = 4
_flr$137082 = -108					; size = 4
_ClosestPoint$ = -100					; size = 16
_point$ = -76						; size = 16
_SteeringForce$ = -52					; size = 16
_ClosestWall$ = -32					; size = 4
_DistToClosestIP$ = -28					; size = 8
_DistToThisIP$ = -16					; size = 8
_this$ = -4						; size = 4
___$ReturnUdt$ = 8					; size = 4
_walls$ = 12						; size = 4
?WallAvoidance@AbstSteering@@MAE?AUVector2D@@ABV?$vector@PAVWall2D@@V?$allocator@PAVWall2D@@@std@@@std@@@Z PROC ; AbstSteering::WallAvoidance
; _this$ = ecx

; 276  : {

	push	ebp
	mov	ebp, esp
	sub	esp, 216				; 000000d8H
	push	edi
	push	ecx
	lea	edi, DWORD PTR [ebp-216]
	mov	ecx, 54					; 00000036H
	mov	eax, -858993460				; ccccccccH
	rep stosd
	pop	ecx
	mov	DWORD PTR _this$[ebp], ecx

; 277  :   //the feelers are contained in a std::vector, m_Feelers
; 278  :   CreateFeelers();

	mov	ecx, DWORD PTR _this$[ebp]
	call	?CreateFeelers@AbstSteering@@IAEXXZ	; AbstSteering::CreateFeelers

; 279  :   
; 280  :   double DistToThisIP    = 0.0;

	fldz
	fstp	QWORD PTR _DistToThisIP$[ebp]

; 281  :   double DistToClosestIP = MaxDouble;

	fld	QWORD PTR _MaxDouble
	fstp	QWORD PTR _DistToClosestIP$[ebp]

; 282  : 
; 283  :   //this will hold an index into the vector of walls
; 284  :   int ClosestWall = -1;

	mov	DWORD PTR _ClosestWall$[ebp], -1

; 285  : 
; 286  :   Vector2D SteeringForce,

	lea	ecx, DWORD PTR _SteeringForce$[ebp]
	call	??0Vector2D@@QAE@XZ			; Vector2D::Vector2D

; 287  :             point,         //used for storing temporary info

	lea	ecx, DWORD PTR _point$[ebp]
	call	??0Vector2D@@QAE@XZ			; Vector2D::Vector2D

; 288  :             ClosestPoint;  //holds the closest intersection point

	lea	ecx, DWORD PTR _ClosestPoint$[ebp]
	call	??0Vector2D@@QAE@XZ			; Vector2D::Vector2D

; 289  : 
; 290  :   //examine each feeler in turn
; 291  :   for (unsigned int flr=0; flr<m_Feelers.size(); ++flr)

	mov	DWORD PTR _flr$137082[ebp], 0
	jmp	SHORT $LN9@WallAvoida
$LN8@WallAvoida:
	mov	eax, DWORD PTR _flr$137082[ebp]
	add	eax, 1
	mov	DWORD PTR _flr$137082[ebp], eax
$LN9@WallAvoida:
	mov	ecx, DWORD PTR _this$[ebp]
	add	ecx, 56					; 00000038H
	call	?size@?$vector@UVector2D@@V?$allocator@UVector2D@@@std@@@std@@QBEIXZ ; std::vector<Vector2D,std::allocator<Vector2D> >::size
	cmp	DWORD PTR _flr$137082[ebp], eax
	jae	$LN7@WallAvoida

; 292  :   {
; 293  :     //run through each wall checking for any intersection points
; 294  :     for (unsigned int w=0; w<walls.size(); ++w)

	mov	DWORD PTR _w$137086[ebp], 0
	jmp	SHORT $LN6@WallAvoida
$LN5@WallAvoida:
	mov	ecx, DWORD PTR _w$137086[ebp]
	add	ecx, 1
	mov	DWORD PTR _w$137086[ebp], ecx
$LN6@WallAvoida:
	mov	ecx, DWORD PTR _walls$[ebp]
	call	?size@?$vector@PAVWall2D@@V?$allocator@PAVWall2D@@@std@@@std@@QBEIXZ ; std::vector<Wall2D *,std::allocator<Wall2D *> >::size
	cmp	DWORD PTR _w$137086[ebp], eax
	jae	$LN4@WallAvoida

; 295  :     {
; 296  :       if (LineIntersection2D(m_pRaven_Bot->Pos(),
; 297  :                              m_Feelers[flr],
; 298  :                              walls[w]->From(),
; 299  :                              walls[w]->To(),
; 300  :                              DistToThisIP,
; 301  :                              point))

	lea	edx, DWORD PTR _point$[ebp]
	push	edx
	lea	eax, DWORD PTR _DistToThisIP$[ebp]
	push	eax
	lea	ecx, DWORD PTR $T146304[ebp]
	push	ecx
	mov	edx, DWORD PTR _w$137086[ebp]
	push	edx
	mov	ecx, DWORD PTR _walls$[ebp]
	call	??A?$vector@PAVWall2D@@V?$allocator@PAVWall2D@@@std@@@std@@QBEABQAVWall2D@@I@Z ; std::vector<Wall2D *,std::allocator<Wall2D *> >::operator[]
	mov	ecx, DWORD PTR [eax]
	call	?To@Wall2D@@QBE?AUVector2D@@XZ		; Wall2D::To
	sub	esp, 16					; 00000010H
	mov	ecx, esp
	mov	edx, DWORD PTR [eax]
	mov	DWORD PTR [ecx], edx
	mov	edx, DWORD PTR [eax+4]
	mov	DWORD PTR [ecx+4], edx
	mov	edx, DWORD PTR [eax+8]
	mov	DWORD PTR [ecx+8], edx
	mov	eax, DWORD PTR [eax+12]
	mov	DWORD PTR [ecx+12], eax
	lea	ecx, DWORD PTR $T146305[ebp]
	push	ecx
	mov	edx, DWORD PTR _w$137086[ebp]
	push	edx
	mov	ecx, DWORD PTR _walls$[ebp]
	call	??A?$vector@PAVWall2D@@V?$allocator@PAVWall2D@@@std@@@std@@QBEABQAVWall2D@@I@Z ; std::vector<Wall2D *,std::allocator<Wall2D *> >::operator[]
	mov	ecx, DWORD PTR [eax]
	call	?From@Wall2D@@QBE?AUVector2D@@XZ	; Wall2D::From
	sub	esp, 16					; 00000010H
	mov	ecx, esp
	mov	edx, DWORD PTR [eax]
	mov	DWORD PTR [ecx], edx
	mov	edx, DWORD PTR [eax+4]
	mov	DWORD PTR [ecx+4], edx
	mov	edx, DWORD PTR [eax+8]
	mov	DWORD PTR [ecx+8], edx
	mov	eax, DWORD PTR [eax+12]
	mov	DWORD PTR [ecx+12], eax
	mov	ecx, DWORD PTR _flr$137082[ebp]
	push	ecx
	mov	ecx, DWORD PTR _this$[ebp]
	add	ecx, 56					; 00000038H
	call	??A?$vector@UVector2D@@V?$allocator@UVector2D@@@std@@@std@@QAEAAUVector2D@@I@Z ; std::vector<Vector2D,std::allocator<Vector2D> >::operator[]
	sub	esp, 16					; 00000010H
	mov	edx, esp
	mov	ecx, DWORD PTR [eax]
	mov	DWORD PTR [edx], ecx
	mov	ecx, DWORD PTR [eax+4]
	mov	DWORD PTR [edx+4], ecx
	mov	ecx, DWORD PTR [eax+8]
	mov	DWORD PTR [edx+8], ecx
	mov	eax, DWORD PTR [eax+12]
	mov	DWORD PTR [edx+12], eax
	lea	ecx, DWORD PTR $T146306[ebp]
	push	ecx
	mov	edx, DWORD PTR _this$[ebp]
	mov	ecx, DWORD PTR [edx+8]
	call	?Pos@BaseGameEntity@@QBE?AUVector2D@@XZ	; BaseGameEntity::Pos
	sub	esp, 16					; 00000010H
	mov	ecx, esp
	mov	edx, DWORD PTR [eax]
	mov	DWORD PTR [ecx], edx
	mov	edx, DWORD PTR [eax+4]
	mov	DWORD PTR [ecx+4], edx
	mov	edx, DWORD PTR [eax+8]
	mov	DWORD PTR [ecx+8], edx
	mov	eax, DWORD PTR [eax+12]
	mov	DWORD PTR [ecx+12], eax
	call	?LineIntersection2D@@YA_NUVector2D@@000AANAAU1@@Z ; LineIntersection2D
	add	esp, 72					; 00000048H
	movzx	ecx, al
	test	ecx, ecx
	je	SHORT $LN2@WallAvoida

; 302  :       {
; 303  :         //is this the closest found so far? If so keep a record
; 304  :         if (DistToThisIP < DistToClosestIP)

	fld	QWORD PTR _DistToClosestIP$[ebp]
	fcomp	QWORD PTR _DistToThisIP$[ebp]
	fnstsw	ax
	test	ah, 65					; 00000041H
	jne	SHORT $LN2@WallAvoida

; 305  :         {
; 306  :           DistToClosestIP = DistToThisIP;

	fld	QWORD PTR _DistToThisIP$[ebp]
	fstp	QWORD PTR _DistToClosestIP$[ebp]

; 307  : 
; 308  :           ClosestWall = w;

	mov	edx, DWORD PTR _w$137086[ebp]
	mov	DWORD PTR _ClosestWall$[ebp], edx

; 309  : 
; 310  :           ClosestPoint = point;

	mov	eax, DWORD PTR _point$[ebp]
	mov	DWORD PTR _ClosestPoint$[ebp], eax
	mov	ecx, DWORD PTR _point$[ebp+4]
	mov	DWORD PTR _ClosestPoint$[ebp+4], ecx
	mov	edx, DWORD PTR _point$[ebp+8]
	mov	DWORD PTR _ClosestPoint$[ebp+8], edx
	mov	eax, DWORD PTR _point$[ebp+12]
	mov	DWORD PTR _ClosestPoint$[ebp+12], eax
$LN2@WallAvoida:

; 311  :         }
; 312  :       }
; 313  :     }//next wall

	jmp	$LN5@WallAvoida
$LN4@WallAvoida:

; 314  : 
; 315  :   
; 316  :     //if an intersection point has been detected, calculate a force  
; 317  :     //that will direct the agent away
; 318  :     if (ClosestWall >=0)

	cmp	DWORD PTR _ClosestWall$[ebp], 0
	jl	SHORT $LN1@WallAvoida

; 319  :     {
; 320  :       //calculate by what distance the projected position of the agent
; 321  :       //will overshoot the wall
; 322  :       Vector2D OverShoot = m_Feelers[flr] - ClosestPoint;

	lea	ecx, DWORD PTR _ClosestPoint$[ebp]
	push	ecx
	mov	edx, DWORD PTR _flr$137082[ebp]
	push	edx
	mov	ecx, DWORD PTR _this$[ebp]
	add	ecx, 56					; 00000038H
	call	??A?$vector@UVector2D@@V?$allocator@UVector2D@@@std@@@std@@QAEAAUVector2D@@I@Z ; std::vector<Vector2D,std::allocator<Vector2D> >::operator[]
	push	eax
	lea	eax, DWORD PTR _OverShoot$137096[ebp]
	push	eax
	call	??G@YA?AUVector2D@@ABU0@0@Z		; operator-
	add	esp, 12					; 0000000cH

; 323  : 
; 324  :       //create a force in the direction of the wall normal, with a 
; 325  :       //magnitude of the overshoot
; 326  :       SteeringForce = walls[ClosestWall]->Normal() * OverShoot.Length();

	lea	ecx, DWORD PTR _OverShoot$137096[ebp]
	call	?Length@Vector2D@@QBENXZ		; Vector2D::Length
	sub	esp, 8
	fstp	QWORD PTR [esp]
	lea	ecx, DWORD PTR $T146307[ebp]
	push	ecx
	mov	edx, DWORD PTR _ClosestWall$[ebp]
	push	edx
	mov	ecx, DWORD PTR _walls$[ebp]
	call	??A?$vector@PAVWall2D@@V?$allocator@PAVWall2D@@@std@@@std@@QBEABQAVWall2D@@I@Z ; std::vector<Wall2D *,std::allocator<Wall2D *> >::operator[]
	mov	ecx, DWORD PTR [eax]
	call	?Normal@Wall2D@@QBE?AUVector2D@@XZ	; Wall2D::Normal
	push	eax
	lea	eax, DWORD PTR $T146308[ebp]
	push	eax
	call	??D@YA?AUVector2D@@ABU0@N@Z		; operator*
	add	esp, 16					; 00000010H
	mov	ecx, DWORD PTR [eax]
	mov	DWORD PTR _SteeringForce$[ebp], ecx
	mov	edx, DWORD PTR [eax+4]
	mov	DWORD PTR _SteeringForce$[ebp+4], edx
	mov	ecx, DWORD PTR [eax+8]
	mov	DWORD PTR _SteeringForce$[ebp+8], ecx
	mov	edx, DWORD PTR [eax+12]
	mov	DWORD PTR _SteeringForce$[ebp+12], edx
$LN1@WallAvoida:

; 327  :     }
; 328  : 
; 329  :   }//next feeler

	jmp	$LN8@WallAvoida
$LN7@WallAvoida:

; 330  : 
; 331  :   return SteeringForce;

	mov	eax, DWORD PTR ___$ReturnUdt$[ebp]
	mov	ecx, DWORD PTR _SteeringForce$[ebp]
	mov	DWORD PTR [eax], ecx
	mov	edx, DWORD PTR _SteeringForce$[ebp+4]
	mov	DWORD PTR [eax+4], edx
	mov	ecx, DWORD PTR _SteeringForce$[ebp+8]
	mov	DWORD PTR [eax+8], ecx
	mov	edx, DWORD PTR _SteeringForce$[ebp+12]
	mov	DWORD PTR [eax+12], edx
	mov	eax, DWORD PTR ___$ReturnUdt$[ebp]

; 332  : }

	push	edx
	mov	ecx, ebp
	push	eax
	lea	edx, DWORD PTR $LN18@WallAvoida
	call	@_RTC_CheckStackVars@8
	pop	eax
	pop	edx
	pop	edi
	add	esp, 216				; 000000d8H
	cmp	ebp, esp
	call	__RTC_CheckEsp
	mov	esp, ebp
	pop	ebp
	ret	8
	npad	1
$LN18@WallAvoida:
	DD	5
	DD	$LN17@WallAvoida
$LN17@WallAvoida:
	DD	-16					; fffffff0H
	DD	8
	DD	$LN12@WallAvoida
	DD	-52					; ffffffccH
	DD	16					; 00000010H
	DD	$LN13@WallAvoida
	DD	-76					; ffffffb4H
	DD	16					; 00000010H
	DD	$LN14@WallAvoida
	DD	-100					; ffffff9cH
	DD	16					; 00000010H
	DD	$LN15@WallAvoida
	DD	-132					; ffffff7cH
	DD	16					; 00000010H
	DD	$LN16@WallAvoida
$LN16@WallAvoida:
	DB	79					; 0000004fH
	DB	118					; 00000076H
	DB	101					; 00000065H
	DB	114					; 00000072H
	DB	83					; 00000053H
	DB	104					; 00000068H
	DB	111					; 0000006fH
	DB	111					; 0000006fH
	DB	116					; 00000074H
	DB	0
$LN15@WallAvoida:
	DB	67					; 00000043H
	DB	108					; 0000006cH
	DB	111					; 0000006fH
	DB	115					; 00000073H
	DB	101					; 00000065H
	DB	115					; 00000073H
	DB	116					; 00000074H
	DB	80					; 00000050H
	DB	111					; 0000006fH
	DB	105					; 00000069H
	DB	110					; 0000006eH
	DB	116					; 00000074H
	DB	0
$LN14@WallAvoida:
	DB	112					; 00000070H
	DB	111					; 0000006fH
	DB	105					; 00000069H
	DB	110					; 0000006eH
	DB	116					; 00000074H
	DB	0
$LN13@WallAvoida:
	DB	83					; 00000053H
	DB	116					; 00000074H
	DB	101					; 00000065H
	DB	101					; 00000065H
	DB	114					; 00000072H
	DB	105					; 00000069H
	DB	110					; 0000006eH
	DB	103					; 00000067H
	DB	70					; 00000046H
	DB	111					; 0000006fH
	DB	114					; 00000072H
	DB	99					; 00000063H
	DB	101					; 00000065H
	DB	0
$LN12@WallAvoida:
	DB	68					; 00000044H
	DB	105					; 00000069H
	DB	115					; 00000073H
	DB	116					; 00000074H
	DB	84					; 00000054H
	DB	111					; 0000006fH
	DB	84					; 00000054H
	DB	104					; 00000068H
	DB	105					; 00000069H
	DB	115					; 00000073H
	DB	73					; 00000049H
	DB	80					; 00000050H
	DB	0
?WallAvoidance@AbstSteering@@MAE?AUVector2D@@ABV?$vector@PAVWall2D@@V?$allocator@PAVWall2D@@@std@@@std@@@Z ENDP ; AbstSteering::WallAvoidance
_TEXT	ENDS
PUBLIC	??D@YA?AUVector2D@@NABU0@@Z			; operator*
PUBLIC	?Vec2DDistance@@YANABUVector2D@@0@Z		; Vec2DDistance
; Function compile flags: /Odtp /RTCsu
; File c:\users\teaja\documents\artificial-fun\labravenprojecttest\common\2d\geometry.h
;	COMDAT ?LineIntersection2D@@YA_NUVector2D@@000AANAAU1@@Z
_TEXT	SEGMENT
$T146319 = -96						; size = 16
$T146318 = -80						; size = 16
$T146317 = -64						; size = 16
_s$ = -48						; size = 8
_r$ = -40						; size = 8
_sBot$ = -32						; size = 8
_sTop$ = -24						; size = 8
_rBot$ = -16						; size = 8
_rTop$ = -8						; size = 8
_A$ = 8							; size = 16
_B$ = 24						; size = 16
_C$ = 40						; size = 16
_D$ = 56						; size = 16
_dist$ = 72						; size = 4
_point$ = 76						; size = 4
?LineIntersection2D@@YA_NUVector2D@@000AANAAU1@@Z PROC	; LineIntersection2D, COMDAT

; 290  : {

	push	ebp
	mov	ebp, esp
	sub	esp, 96					; 00000060H
	push	edi
	lea	edi, DWORD PTR [ebp-96]
	mov	ecx, 24					; 00000018H
	mov	eax, -858993460				; ccccccccH
	rep stosd

; 291  : 
; 292  :   double rTop = (A.y-C.y)*(D.x-C.x)-(A.x-C.x)*(D.y-C.y);

	fld	QWORD PTR _A$[ebp+8]
	fsub	QWORD PTR _C$[ebp+8]
	fld	QWORD PTR _D$[ebp]
	fsub	QWORD PTR _C$[ebp]
	fmulp	ST(1), ST(0)
	fld	QWORD PTR _A$[ebp]
	fsub	QWORD PTR _C$[ebp]
	fld	QWORD PTR _D$[ebp+8]
	fsub	QWORD PTR _C$[ebp+8]
	fmulp	ST(1), ST(0)
	fsubp	ST(1), ST(0)
	fstp	QWORD PTR _rTop$[ebp]

; 293  : 	double rBot = (B.x-A.x)*(D.y-C.y)-(B.y-A.y)*(D.x-C.x);

	fld	QWORD PTR _B$[ebp]
	fsub	QWORD PTR _A$[ebp]
	fld	QWORD PTR _D$[ebp+8]
	fsub	QWORD PTR _C$[ebp+8]
	fmulp	ST(1), ST(0)
	fld	QWORD PTR _B$[ebp+8]
	fsub	QWORD PTR _A$[ebp+8]
	fld	QWORD PTR _D$[ebp]
	fsub	QWORD PTR _C$[ebp]
	fmulp	ST(1), ST(0)
	fsubp	ST(1), ST(0)
	fstp	QWORD PTR _rBot$[ebp]

; 294  : 
; 295  : 	double sTop = (A.y-C.y)*(B.x-A.x)-(A.x-C.x)*(B.y-A.y);

	fld	QWORD PTR _A$[ebp+8]
	fsub	QWORD PTR _C$[ebp+8]
	fld	QWORD PTR _B$[ebp]
	fsub	QWORD PTR _A$[ebp]
	fmulp	ST(1), ST(0)
	fld	QWORD PTR _A$[ebp]
	fsub	QWORD PTR _C$[ebp]
	fld	QWORD PTR _B$[ebp+8]
	fsub	QWORD PTR _A$[ebp+8]
	fmulp	ST(1), ST(0)
	fsubp	ST(1), ST(0)
	fstp	QWORD PTR _sTop$[ebp]

; 296  : 	double sBot = (B.x-A.x)*(D.y-C.y)-(B.y-A.y)*(D.x-C.x);

	fld	QWORD PTR _B$[ebp]
	fsub	QWORD PTR _A$[ebp]
	fld	QWORD PTR _D$[ebp+8]
	fsub	QWORD PTR _C$[ebp+8]
	fmulp	ST(1), ST(0)
	fld	QWORD PTR _B$[ebp+8]
	fsub	QWORD PTR _A$[ebp+8]
	fld	QWORD PTR _D$[ebp]
	fsub	QWORD PTR _C$[ebp]
	fmulp	ST(1), ST(0)
	fsubp	ST(1), ST(0)
	fstp	QWORD PTR _sBot$[ebp]

; 297  : 
; 298  : 	if ( (rBot == 0) || (sBot == 0))

	fld	QWORD PTR _rBot$[ebp]
	fldz
	fucompp
	fnstsw	ax
	test	ah, 68					; 00000044H
	jnp	SHORT $LN3@LineInters
	fld	QWORD PTR _sBot$[ebp]
	fldz
	fucompp
	fnstsw	ax
	test	ah, 68					; 00000044H
	jp	SHORT $LN4@LineInters
$LN3@LineInters:

; 299  : 	{
; 300  : 		//lines are parallel
; 301  : 		return false;

	xor	al, al
	jmp	$LN1@LineInters
$LN4@LineInters:

; 302  : 	}
; 303  : 
; 304  : 	double r = rTop/rBot;

	fld	QWORD PTR _rTop$[ebp]
	fdiv	QWORD PTR _rBot$[ebp]
	fstp	QWORD PTR _r$[ebp]

; 305  : 	double s = sTop/sBot;

	fld	QWORD PTR _sTop$[ebp]
	fdiv	QWORD PTR _sBot$[ebp]
	fstp	QWORD PTR _s$[ebp]

; 306  : 
; 307  : 	if( (r > 0) && (r < 1) && (s > 0) && (s < 1) )

	fldz
	fcomp	QWORD PTR _r$[ebp]
	fnstsw	ax
	test	ah, 5
	jp	$LN2@LineInters
	fld1
	fcomp	QWORD PTR _r$[ebp]
	fnstsw	ax
	test	ah, 65					; 00000041H
	jne	$LN2@LineInters
	fldz
	fcomp	QWORD PTR _s$[ebp]
	fnstsw	ax
	test	ah, 5
	jp	SHORT $LN2@LineInters
	fld1
	fcomp	QWORD PTR _s$[ebp]
	fnstsw	ax
	test	ah, 65					; 00000041H
	jne	SHORT $LN2@LineInters

; 308  :   {
; 309  :   	dist = Vec2DDistance(A,B) * r;

	lea	eax, DWORD PTR _B$[ebp]
	push	eax
	lea	ecx, DWORD PTR _A$[ebp]
	push	ecx
	call	?Vec2DDistance@@YANABUVector2D@@0@Z	; Vec2DDistance
	add	esp, 8
	fmul	QWORD PTR _r$[ebp]
	mov	edx, DWORD PTR _dist$[ebp]
	fstp	QWORD PTR [edx]

; 310  : 
; 311  :     point = A + r * (B - A);

	lea	eax, DWORD PTR _A$[ebp]
	push	eax
	lea	ecx, DWORD PTR _B$[ebp]
	push	ecx
	lea	edx, DWORD PTR $T146317[ebp]
	push	edx
	call	??G@YA?AUVector2D@@ABU0@0@Z		; operator-
	add	esp, 12					; 0000000cH
	push	eax
	sub	esp, 8
	fld	QWORD PTR _r$[ebp]
	fstp	QWORD PTR [esp]
	lea	eax, DWORD PTR $T146318[ebp]
	push	eax
	call	??D@YA?AUVector2D@@NABU0@@Z		; operator*
	add	esp, 16					; 00000010H
	push	eax
	lea	ecx, DWORD PTR _A$[ebp]
	push	ecx
	lea	edx, DWORD PTR $T146319[ebp]
	push	edx
	call	??H@YA?AUVector2D@@ABU0@0@Z		; operator+
	add	esp, 12					; 0000000cH
	mov	ecx, DWORD PTR _point$[ebp]
	mov	edx, DWORD PTR [eax]
	mov	DWORD PTR [ecx], edx
	mov	edx, DWORD PTR [eax+4]
	mov	DWORD PTR [ecx+4], edx
	mov	edx, DWORD PTR [eax+8]
	mov	DWORD PTR [ecx+8], edx
	mov	eax, DWORD PTR [eax+12]
	mov	DWORD PTR [ecx+12], eax

; 312  : 
; 313  :     return true;

	mov	al, 1
	jmp	SHORT $LN1@LineInters

; 314  :   }
; 315  : 
; 316  : 	else

	jmp	SHORT $LN1@LineInters
$LN2@LineInters:

; 317  :   {
; 318  : 		dist = 0;

	mov	ecx, DWORD PTR _dist$[ebp]
	fldz
	fstp	QWORD PTR [ecx]

; 319  : 
; 320  :     return false;

	xor	al, al
$LN1@LineInters:

; 321  :   }
; 322  : }

	pop	edi
	add	esp, 96					; 00000060H
	cmp	ebp, esp
	call	__RTC_CheckEsp
	mov	esp, ebp
	pop	ebp
	ret	0
?LineIntersection2D@@YA_NUVector2D@@000AANAAU1@@Z ENDP	; LineIntersection2D
; Function compile flags: /Odtp /RTCsu
; File c:\users\teaja\documents\artificial-fun\labravenprojecttest\common\2d\vector2d.h
_TEXT	ENDS
;	COMDAT ?Vec2DDistance@@YANABUVector2D@@0@Z
_TEXT	SEGMENT
_xSeparation$ = -16					; size = 8
_ySeparation$ = -8					; size = 8
_v1$ = 8						; size = 4
_v2$ = 12						; size = 4
?Vec2DDistance@@YANABUVector2D@@0@Z PROC		; Vec2DDistance, COMDAT

; 274  : {

	push	ebp
	mov	ebp, esp
	sub	esp, 16					; 00000010H
	mov	eax, -858993460				; ccccccccH
	mov	DWORD PTR [ebp-16], eax
	mov	DWORD PTR [ebp-12], eax
	mov	DWORD PTR [ebp-8], eax
	mov	DWORD PTR [ebp-4], eax

; 275  : 
; 276  :   double ySeparation = v2.y - v1.y;

	mov	eax, DWORD PTR _v2$[ebp]
	mov	ecx, DWORD PTR _v1$[ebp]
	fld	QWORD PTR [eax+8]
	fsub	QWORD PTR [ecx+8]
	fstp	QWORD PTR _ySeparation$[ebp]

; 277  :   double xSeparation = v2.x - v1.x;

	mov	edx, DWORD PTR _v2$[ebp]
	mov	eax, DWORD PTR _v1$[ebp]
	fld	QWORD PTR [edx]
	fsub	QWORD PTR [eax]
	fstp	QWORD PTR _xSeparation$[ebp]

; 278  : 
; 279  :   return sqrt(ySeparation*ySeparation + xSeparation*xSeparation);

	fld	QWORD PTR _ySeparation$[ebp]
	fmul	QWORD PTR _ySeparation$[ebp]
	fld	QWORD PTR _xSeparation$[ebp]
	fmul	QWORD PTR _xSeparation$[ebp]
	faddp	ST(1), ST(0)
	sub	esp, 8
	fstp	QWORD PTR [esp]
	call	_sqrt
	add	esp, 8

; 280  : }

	add	esp, 16					; 00000010H
	cmp	ebp, esp
	call	__RTC_CheckEsp
	mov	esp, ebp
	pop	ebp
	ret	0
?Vec2DDistance@@YANABUVector2D@@0@Z ENDP		; Vec2DDistance
; Function compile flags: /Odtp /RTCsu
_TEXT	ENDS
;	COMDAT ??D@YA?AUVector2D@@NABU0@@Z
_TEXT	SEGMENT
_result$ = -20						; size = 16
___$ReturnUdt$ = 8					; size = 4
_lhs$ = 12						; size = 8
_rhs$ = 20						; size = 4
??D@YA?AUVector2D@@NABU0@@Z PROC			; operator*, COMDAT

; 341  : {

	push	ebp
	mov	ebp, esp
	sub	esp, 24					; 00000018H
	mov	eax, -858993460				; ccccccccH
	mov	DWORD PTR [ebp-24], eax
	mov	DWORD PTR [ebp-20], eax
	mov	DWORD PTR [ebp-16], eax
	mov	DWORD PTR [ebp-12], eax
	mov	DWORD PTR [ebp-8], eax
	mov	DWORD PTR [ebp-4], eax

; 342  :   Vector2D result(rhs);

	mov	eax, DWORD PTR _rhs$[ebp]
	mov	ecx, DWORD PTR [eax]
	mov	DWORD PTR _result$[ebp], ecx
	mov	edx, DWORD PTR [eax+4]
	mov	DWORD PTR _result$[ebp+4], edx
	mov	ecx, DWORD PTR [eax+8]
	mov	DWORD PTR _result$[ebp+8], ecx
	mov	edx, DWORD PTR [eax+12]
	mov	DWORD PTR _result$[ebp+12], edx

; 343  :   result *= lhs;

	lea	eax, DWORD PTR _lhs$[ebp]
	push	eax
	lea	ecx, DWORD PTR _result$[ebp]
	call	??XVector2D@@QAEABU0@ABN@Z		; Vector2D::operator*=

; 344  :   return result;

	mov	ecx, DWORD PTR ___$ReturnUdt$[ebp]
	mov	edx, DWORD PTR _result$[ebp]
	mov	DWORD PTR [ecx], edx
	mov	eax, DWORD PTR _result$[ebp+4]
	mov	DWORD PTR [ecx+4], eax
	mov	edx, DWORD PTR _result$[ebp+8]
	mov	DWORD PTR [ecx+8], edx
	mov	eax, DWORD PTR _result$[ebp+12]
	mov	DWORD PTR [ecx+12], eax
	mov	eax, DWORD PTR ___$ReturnUdt$[ebp]

; 345  : }

	push	edx
	mov	ecx, ebp
	push	eax
	lea	edx, DWORD PTR $LN5@operator@5
	call	@_RTC_CheckStackVars@8
	pop	eax
	pop	edx
	add	esp, 24					; 00000018H
	cmp	ebp, esp
	call	__RTC_CheckEsp
	mov	esp, ebp
	pop	ebp
	ret	0
	npad	1
$LN5@operator@5:
	DD	1
	DD	$LN4@operator@5
$LN4@operator@5:
	DD	-20					; ffffffecH
	DD	16					; 00000010H
	DD	$LN3@operator@5
$LN3@operator@5:
	DB	114					; 00000072H
	DB	101					; 00000065H
	DB	115					; 00000073H
	DB	117					; 00000075H
	DB	108					; 0000006cH
	DB	116					; 00000074H
	DB	0
??D@YA?AUVector2D@@NABU0@@Z ENDP			; operator*
; Function compile flags: /Odtp /RTCsu
; File c:\users\teaja\documents\artificial-fun\labravenprojecttest\common\2d\wall2d.h
_TEXT	ENDS
;	COMDAT ?From@Wall2D@@QBE?AUVector2D@@XZ
_TEXT	SEGMENT
_this$ = -4						; size = 4
___$ReturnUdt$ = 8					; size = 4
?From@Wall2D@@QBE?AUVector2D@@XZ PROC			; Wall2D::From, COMDAT
; _this$ = ecx

; 63   :   Vector2D From()const  {return m_vA;}

	push	ebp
	mov	ebp, esp
	push	ecx
	mov	DWORD PTR [ebp-4], -858993460		; ccccccccH
	mov	DWORD PTR _this$[ebp], ecx
	mov	eax, DWORD PTR _this$[ebp]
	add	eax, 8
	mov	ecx, DWORD PTR ___$ReturnUdt$[ebp]
	mov	edx, DWORD PTR [eax]
	mov	DWORD PTR [ecx], edx
	mov	edx, DWORD PTR [eax+4]
	mov	DWORD PTR [ecx+4], edx
	mov	edx, DWORD PTR [eax+8]
	mov	DWORD PTR [ecx+8], edx
	mov	eax, DWORD PTR [eax+12]
	mov	DWORD PTR [ecx+12], eax
	mov	eax, DWORD PTR ___$ReturnUdt$[ebp]
	mov	esp, ebp
	pop	ebp
	ret	4
?From@Wall2D@@QBE?AUVector2D@@XZ ENDP			; Wall2D::From
; Function compile flags: /Odtp /RTCsu
_TEXT	ENDS
;	COMDAT ?To@Wall2D@@QBE?AUVector2D@@XZ
_TEXT	SEGMENT
_this$ = -4						; size = 4
___$ReturnUdt$ = 8					; size = 4
?To@Wall2D@@QBE?AUVector2D@@XZ PROC			; Wall2D::To, COMDAT
; _this$ = ecx

; 66   :   Vector2D To()const    {return m_vB;}

	push	ebp
	mov	ebp, esp
	push	ecx
	mov	DWORD PTR [ebp-4], -858993460		; ccccccccH
	mov	DWORD PTR _this$[ebp], ecx
	mov	eax, DWORD PTR _this$[ebp]
	add	eax, 24					; 00000018H
	mov	ecx, DWORD PTR ___$ReturnUdt$[ebp]
	mov	edx, DWORD PTR [eax]
	mov	DWORD PTR [ecx], edx
	mov	edx, DWORD PTR [eax+4]
	mov	DWORD PTR [ecx+4], edx
	mov	edx, DWORD PTR [eax+8]
	mov	DWORD PTR [ecx+8], edx
	mov	eax, DWORD PTR [eax+12]
	mov	DWORD PTR [ecx+12], eax
	mov	eax, DWORD PTR ___$ReturnUdt$[ebp]
	mov	esp, ebp
	pop	ebp
	ret	4
?To@Wall2D@@QBE?AUVector2D@@XZ ENDP			; Wall2D::To
; Function compile flags: /Odtp /RTCsu
_TEXT	ENDS
;	COMDAT ?Normal@Wall2D@@QBE?AUVector2D@@XZ
_TEXT	SEGMENT
_this$ = -4						; size = 4
___$ReturnUdt$ = 8					; size = 4
?Normal@Wall2D@@QBE?AUVector2D@@XZ PROC			; Wall2D::Normal, COMDAT
; _this$ = ecx

; 69   :   Vector2D Normal()const{return m_vN;}

	push	ebp
	mov	ebp, esp
	push	ecx
	mov	DWORD PTR [ebp-4], -858993460		; ccccccccH
	mov	DWORD PTR _this$[ebp], ecx
	mov	eax, DWORD PTR _this$[ebp]
	add	eax, 40					; 00000028H
	mov	ecx, DWORD PTR ___$ReturnUdt$[ebp]
	mov	edx, DWORD PTR [eax]
	mov	DWORD PTR [ecx], edx
	mov	edx, DWORD PTR [eax+4]
	mov	DWORD PTR [ecx+4], edx
	mov	edx, DWORD PTR [eax+8]
	mov	DWORD PTR [ecx+8], edx
	mov	eax, DWORD PTR [eax+12]
	mov	DWORD PTR [ecx+12], eax
	mov	eax, DWORD PTR ___$ReturnUdt$[ebp]
	mov	esp, ebp
	pop	ebp
	ret	4
?Normal@Wall2D@@QBE?AUVector2D@@XZ ENDP			; Wall2D::Normal
_TEXT	ENDS
PUBLIC	__real@3fe0000000000000
PUBLIC	__real@4000000000000000
PUBLIC	?Vec2DRotateAroundOrigin@@YAXAAUVector2D@@N@Z	; Vec2DRotateAroundOrigin
PUBLIC	__real@400c000000000000
PUBLIC	?Speed@MovingEntity@@QBENXZ			; MovingEntity::Speed
;	COMDAT __real@3fe0000000000000
; File c:\users\teaja\documents\artificial-fun\labravenprojecttest\raven\abststeeringbehaviors.cpp
CONST	SEGMENT
__real@3fe0000000000000 DQ 03fe0000000000000r	; 0.5
CONST	ENDS
;	COMDAT __real@4000000000000000
CONST	SEGMENT
__real@4000000000000000 DQ 04000000000000000r	; 2
CONST	ENDS
;	COMDAT __real@400c000000000000
CONST	SEGMENT
__real@400c000000000000 DQ 0400c000000000000r	; 3.5
; Function compile flags: /Odtp /RTCsu
CONST	ENDS
_TEXT	SEGMENT
$T146346 = -220						; size = 16
$T146345 = -204						; size = 16
$T146344 = -188						; size = 16
$T146343 = -172						; size = 16
$T146342 = -156						; size = 16
$T146341 = -140						; size = 16
$T146340 = -124						; size = 16
$T146339 = -108						; size = 16
$T146338 = -92						; size = 16
$T146337 = -76						; size = 16
$T146336 = -60						; size = 16
$T146335 = -44						; size = 16
_temp$ = -24						; size = 16
_this$ = -4						; size = 4
?CreateFeelers@AbstSteering@@IAEXXZ PROC		; AbstSteering::CreateFeelers
; _this$ = ecx

; 339  : {

	push	ebp
	mov	ebp, esp
	sub	esp, 220				; 000000dcH
	push	esi
	push	edi
	push	ecx
	lea	edi, DWORD PTR [ebp-220]
	mov	ecx, 55					; 00000037H
	mov	eax, -858993460				; ccccccccH
	rep stosd
	pop	ecx
	mov	DWORD PTR _this$[ebp], ecx

; 340  :   //feeler pointing straight in front
; 341  :   m_Feelers[0] = m_pRaven_Bot->Pos() + m_dWallDetectionFeelerLength *
; 342  :                  m_pRaven_Bot->Heading() * m_pRaven_Bot->Speed();

	mov	eax, DWORD PTR _this$[ebp]
	mov	ecx, DWORD PTR [eax+8]
	call	?Speed@MovingEntity@@QBENXZ		; MovingEntity::Speed
	sub	esp, 8
	fstp	QWORD PTR [esp]
	lea	ecx, DWORD PTR $T146335[ebp]
	push	ecx
	mov	edx, DWORD PTR _this$[ebp]
	mov	ecx, DWORD PTR [edx+8]
	call	?Heading@MovingEntity@@QBE?AUVector2D@@XZ ; MovingEntity::Heading
	push	eax
	mov	eax, DWORD PTR _this$[ebp]
	sub	esp, 8
	fld	QWORD PTR [eax+80]
	fstp	QWORD PTR [esp]
	lea	ecx, DWORD PTR $T146336[ebp]
	push	ecx
	call	??D@YA?AUVector2D@@NABU0@@Z		; operator*
	add	esp, 16					; 00000010H
	push	eax
	lea	edx, DWORD PTR $T146337[ebp]
	push	edx
	call	??D@YA?AUVector2D@@ABU0@N@Z		; operator*
	add	esp, 16					; 00000010H
	push	eax
	lea	eax, DWORD PTR $T146338[ebp]
	push	eax
	mov	ecx, DWORD PTR _this$[ebp]
	mov	ecx, DWORD PTR [ecx+8]
	call	?Pos@BaseGameEntity@@QBE?AUVector2D@@XZ	; BaseGameEntity::Pos
	push	eax
	lea	edx, DWORD PTR $T146339[ebp]
	push	edx
	call	??H@YA?AUVector2D@@ABU0@0@Z		; operator+
	add	esp, 12					; 0000000cH
	mov	esi, eax
	push	0
	mov	ecx, DWORD PTR _this$[ebp]
	add	ecx, 56					; 00000038H
	call	??A?$vector@UVector2D@@V?$allocator@UVector2D@@@std@@@std@@QAEAAUVector2D@@I@Z ; std::vector<Vector2D,std::allocator<Vector2D> >::operator[]
	mov	ecx, DWORD PTR [esi]
	mov	DWORD PTR [eax], ecx
	mov	edx, DWORD PTR [esi+4]
	mov	DWORD PTR [eax+4], edx
	mov	ecx, DWORD PTR [esi+8]
	mov	DWORD PTR [eax+8], ecx
	mov	edx, DWORD PTR [esi+12]
	mov	DWORD PTR [eax+12], edx

; 343  : 
; 344  :   //feeler to left
; 345  :   Vector2D temp = m_pRaven_Bot->Heading();

	lea	eax, DWORD PTR _temp$[ebp]
	push	eax
	mov	ecx, DWORD PTR _this$[ebp]
	mov	ecx, DWORD PTR [ecx+8]
	call	?Heading@MovingEntity@@QBE?AUVector2D@@XZ ; MovingEntity::Heading

; 346  :   Vec2DRotateAroundOrigin(temp, HalfPi * 3.5);

	fld	QWORD PTR _HalfPi
	fmul	QWORD PTR __real@400c000000000000
	sub	esp, 8
	fstp	QWORD PTR [esp]
	lea	edx, DWORD PTR _temp$[ebp]
	push	edx
	call	?Vec2DRotateAroundOrigin@@YAXAAUVector2D@@N@Z ; Vec2DRotateAroundOrigin
	add	esp, 12					; 0000000cH

; 347  :   m_Feelers[1] = m_pRaven_Bot->Pos() + m_dWallDetectionFeelerLength/2.0 * temp;

	lea	eax, DWORD PTR _temp$[ebp]
	push	eax
	mov	ecx, DWORD PTR _this$[ebp]
	fld	QWORD PTR [ecx+80]
	fdiv	QWORD PTR __real@4000000000000000
	sub	esp, 8
	fstp	QWORD PTR [esp]
	lea	edx, DWORD PTR $T146340[ebp]
	push	edx
	call	??D@YA?AUVector2D@@NABU0@@Z		; operator*
	add	esp, 16					; 00000010H
	push	eax
	lea	eax, DWORD PTR $T146341[ebp]
	push	eax
	mov	ecx, DWORD PTR _this$[ebp]
	mov	ecx, DWORD PTR [ecx+8]
	call	?Pos@BaseGameEntity@@QBE?AUVector2D@@XZ	; BaseGameEntity::Pos
	push	eax
	lea	edx, DWORD PTR $T146342[ebp]
	push	edx
	call	??H@YA?AUVector2D@@ABU0@0@Z		; operator+
	add	esp, 12					; 0000000cH
	mov	esi, eax
	push	1
	mov	ecx, DWORD PTR _this$[ebp]
	add	ecx, 56					; 00000038H
	call	??A?$vector@UVector2D@@V?$allocator@UVector2D@@@std@@@std@@QAEAAUVector2D@@I@Z ; std::vector<Vector2D,std::allocator<Vector2D> >::operator[]
	mov	ecx, DWORD PTR [esi]
	mov	DWORD PTR [eax], ecx
	mov	edx, DWORD PTR [esi+4]
	mov	DWORD PTR [eax+4], edx
	mov	ecx, DWORD PTR [esi+8]
	mov	DWORD PTR [eax+8], ecx
	mov	edx, DWORD PTR [esi+12]
	mov	DWORD PTR [eax+12], edx

; 348  : 
; 349  :   //feeler to right
; 350  :   temp = m_pRaven_Bot->Heading();

	lea	eax, DWORD PTR $T146343[ebp]
	push	eax
	mov	ecx, DWORD PTR _this$[ebp]
	mov	ecx, DWORD PTR [ecx+8]
	call	?Heading@MovingEntity@@QBE?AUVector2D@@XZ ; MovingEntity::Heading
	mov	edx, DWORD PTR [eax]
	mov	DWORD PTR _temp$[ebp], edx
	mov	ecx, DWORD PTR [eax+4]
	mov	DWORD PTR _temp$[ebp+4], ecx
	mov	edx, DWORD PTR [eax+8]
	mov	DWORD PTR _temp$[ebp+8], edx
	mov	eax, DWORD PTR [eax+12]
	mov	DWORD PTR _temp$[ebp+12], eax

; 351  :   Vec2DRotateAroundOrigin(temp, HalfPi * 0.5);

	fld	QWORD PTR _HalfPi
	fmul	QWORD PTR __real@3fe0000000000000
	sub	esp, 8
	fstp	QWORD PTR [esp]
	lea	ecx, DWORD PTR _temp$[ebp]
	push	ecx
	call	?Vec2DRotateAroundOrigin@@YAXAAUVector2D@@N@Z ; Vec2DRotateAroundOrigin
	add	esp, 12					; 0000000cH

; 352  :   m_Feelers[2] = m_pRaven_Bot->Pos() + m_dWallDetectionFeelerLength/2.0 * temp;

	lea	edx, DWORD PTR _temp$[ebp]
	push	edx
	mov	eax, DWORD PTR _this$[ebp]
	fld	QWORD PTR [eax+80]
	fdiv	QWORD PTR __real@4000000000000000
	sub	esp, 8
	fstp	QWORD PTR [esp]
	lea	ecx, DWORD PTR $T146344[ebp]
	push	ecx
	call	??D@YA?AUVector2D@@NABU0@@Z		; operator*
	add	esp, 16					; 00000010H
	push	eax
	lea	edx, DWORD PTR $T146345[ebp]
	push	edx
	mov	eax, DWORD PTR _this$[ebp]
	mov	ecx, DWORD PTR [eax+8]
	call	?Pos@BaseGameEntity@@QBE?AUVector2D@@XZ	; BaseGameEntity::Pos
	push	eax
	lea	ecx, DWORD PTR $T146346[ebp]
	push	ecx
	call	??H@YA?AUVector2D@@ABU0@0@Z		; operator+
	add	esp, 12					; 0000000cH
	mov	esi, eax
	push	2
	mov	ecx, DWORD PTR _this$[ebp]
	add	ecx, 56					; 00000038H
	call	??A?$vector@UVector2D@@V?$allocator@UVector2D@@@std@@@std@@QAEAAUVector2D@@I@Z ; std::vector<Vector2D,std::allocator<Vector2D> >::operator[]
	mov	edx, DWORD PTR [esi]
	mov	DWORD PTR [eax], edx
	mov	ecx, DWORD PTR [esi+4]
	mov	DWORD PTR [eax+4], ecx
	mov	edx, DWORD PTR [esi+8]
	mov	DWORD PTR [eax+8], edx
	mov	ecx, DWORD PTR [esi+12]
	mov	DWORD PTR [eax+12], ecx

; 353  : }

	push	edx
	mov	ecx, ebp
	push	eax
	lea	edx, DWORD PTR $LN5@CreateFeel
	call	@_RTC_CheckStackVars@8
	pop	eax
	pop	edx
	pop	edi
	pop	esi
	add	esp, 220				; 000000dcH
	cmp	ebp, esp
	call	__RTC_CheckEsp
	mov	esp, ebp
	pop	ebp
	ret	0
	npad	3
$LN5@CreateFeel:
	DD	1
	DD	$LN4@CreateFeel
$LN4@CreateFeel:
	DD	-24					; ffffffe8H
	DD	16					; 00000010H
	DD	$LN3@CreateFeel
$LN3@CreateFeel:
	DB	116					; 00000074H
	DB	101					; 00000065H
	DB	109					; 0000006dH
	DB	112					; 00000070H
	DB	0
?CreateFeelers@AbstSteering@@IAEXXZ ENDP		; AbstSteering::CreateFeelers
_TEXT	ENDS
PUBLIC	?Rotate@C2DMatrix@@QAEXN@Z			; C2DMatrix::Rotate
; Function compile flags: /Odtp /RTCsu
; File c:\users\teaja\documents\artificial-fun\labravenprojecttest\common\2d\transformations.h
;	COMDAT ?Vec2DRotateAroundOrigin@@YAXAAUVector2D@@N@Z
_TEXT	SEGMENT
_mat$ = -76						; size = 72
_v$ = 8							; size = 4
_ang$ = 12						; size = 8
?Vec2DRotateAroundOrigin@@YAXAAUVector2D@@N@Z PROC	; Vec2DRotateAroundOrigin, COMDAT

; 196  : {

	push	ebp
	mov	ebp, esp
	sub	esp, 80					; 00000050H
	push	edi
	lea	edi, DWORD PTR [ebp-80]
	mov	ecx, 20					; 00000014H
	mov	eax, -858993460				; ccccccccH
	rep stosd

; 197  :   //create a transformation matrix
; 198  :   C2DMatrix mat;

	lea	ecx, DWORD PTR _mat$[ebp]
	call	??0C2DMatrix@@QAE@XZ			; C2DMatrix::C2DMatrix

; 199  : 
; 200  :   //rotate
; 201  :   mat.Rotate(ang);

	sub	esp, 8
	fld	QWORD PTR _ang$[ebp]
	fstp	QWORD PTR [esp]
	lea	ecx, DWORD PTR _mat$[ebp]
	call	?Rotate@C2DMatrix@@QAEXN@Z		; C2DMatrix::Rotate

; 202  : 	
; 203  :   //now transform the object's vertices
; 204  :   mat.TransformVector2Ds(v);

	mov	eax, DWORD PTR _v$[ebp]
	push	eax
	lea	ecx, DWORD PTR _mat$[ebp]
	call	?TransformVector2Ds@C2DMatrix@@QAEXAAUVector2D@@@Z ; C2DMatrix::TransformVector2Ds

; 205  : }

	push	edx
	mov	ecx, ebp
	push	eax
	lea	edx, DWORD PTR $LN5@Vec2DRotat
	call	@_RTC_CheckStackVars@8
	pop	eax
	pop	edx
	pop	edi
	add	esp, 80					; 00000050H
	cmp	ebp, esp
	call	__RTC_CheckEsp
	mov	esp, ebp
	pop	ebp
	ret	0
	npad	1
$LN5@Vec2DRotat:
	DD	1
	DD	$LN4@Vec2DRotat
$LN4@Vec2DRotat:
	DD	-76					; ffffffb4H
	DD	72					; 00000048H
	DD	$LN3@Vec2DRotat
$LN3@Vec2DRotat:
	DB	109					; 0000006dH
	DB	97					; 00000061H
	DB	116					; 00000074H
	DB	0
?Vec2DRotateAroundOrigin@@YAXAAUVector2D@@N@Z ENDP	; Vec2DRotateAroundOrigin
_TEXT	ENDS
EXTRN	_cos:PROC
EXTRN	_sin:PROC
; Function compile flags: /Odtp /RTCsu
; File c:\users\teaja\documents\artificial-fun\labravenprojecttest\common\2d\c2dmatrix.h
;	COMDAT ?Rotate@C2DMatrix@@QAEXN@Z
_TEXT	SEGMENT
_Cos$ = -100						; size = 8
_Sin$ = -92						; size = 8
_mat$ = -80						; size = 72
_this$ = -4						; size = 4
_rot$ = 8						; size = 8
?Rotate@C2DMatrix@@QAEXN@Z PROC				; C2DMatrix::Rotate, COMDAT
; _this$ = ecx

; 191  : {

	push	ebp
	mov	ebp, esp
	sub	esp, 100				; 00000064H
	push	edi
	push	ecx
	lea	edi, DWORD PTR [ebp-100]
	mov	ecx, 25					; 00000019H
	mov	eax, -858993460				; ccccccccH
	rep stosd
	pop	ecx
	mov	DWORD PTR _this$[ebp], ecx

; 192  :   C2DMatrix::Matrix mat;

	lea	ecx, DWORD PTR _mat$[ebp]
	call	??0Matrix@C2DMatrix@@QAE@XZ		; C2DMatrix::Matrix::Matrix

; 193  : 
; 194  :   double Sin = sin(rot);

	sub	esp, 8
	fld	QWORD PTR _rot$[ebp]
	fstp	QWORD PTR [esp]
	call	_sin
	add	esp, 8
	fstp	QWORD PTR _Sin$[ebp]

; 195  :   double Cos = cos(rot);

	sub	esp, 8
	fld	QWORD PTR _rot$[ebp]
	fstp	QWORD PTR [esp]
	call	_cos
	add	esp, 8
	fstp	QWORD PTR _Cos$[ebp]

; 196  :   
; 197  :   mat._11 = Cos;  mat._12 = Sin; mat._13 = 0;

	fld	QWORD PTR _Cos$[ebp]
	fstp	QWORD PTR _mat$[ebp]
	fld	QWORD PTR _Sin$[ebp]
	fstp	QWORD PTR _mat$[ebp+8]
	fldz
	fstp	QWORD PTR _mat$[ebp+16]

; 198  :   
; 199  :   mat._21 = -Sin; mat._22 = Cos; mat._23 = 0;

	fld	QWORD PTR _Sin$[ebp]
	fchs
	fstp	QWORD PTR _mat$[ebp+24]
	fld	QWORD PTR _Cos$[ebp]
	fstp	QWORD PTR _mat$[ebp+32]
	fldz
	fstp	QWORD PTR _mat$[ebp+40]

; 200  :   
; 201  :   mat._31 = 0; mat._32 = 0;mat._33 = 1;

	fldz
	fstp	QWORD PTR _mat$[ebp+48]
	fldz
	fstp	QWORD PTR _mat$[ebp+56]
	fld1
	fstp	QWORD PTR _mat$[ebp+64]

; 202  :   
; 203  :   //and multiply
; 204  :   MatrixMultiply(mat);

	lea	eax, DWORD PTR _mat$[ebp]
	push	eax
	mov	ecx, DWORD PTR _this$[ebp]
	call	?MatrixMultiply@C2DMatrix@@AAEXAAUMatrix@1@@Z ; C2DMatrix::MatrixMultiply

; 205  : }

	push	edx
	mov	ecx, ebp
	push	eax
	lea	edx, DWORD PTR $LN5@Rotate@2
	call	@_RTC_CheckStackVars@8
	pop	eax
	pop	edx
	pop	edi
	add	esp, 100				; 00000064H
	cmp	ebp, esp
	call	__RTC_CheckEsp
	mov	esp, ebp
	pop	ebp
	ret	8
$LN5@Rotate@2:
	DD	1
	DD	$LN4@Rotate@2
$LN4@Rotate@2:
	DD	-80					; ffffffb0H
	DD	72					; 00000048H
	DD	$LN3@Rotate@2
$LN3@Rotate@2:
	DB	109					; 0000006dH
	DB	97					; 00000061H
	DB	116					; 00000074H
	DB	0
?Rotate@C2DMatrix@@QAEXN@Z ENDP				; C2DMatrix::Rotate
; Function compile flags: /Odtp /RTCsu
; File c:\users\teaja\documents\artificial-fun\labravenprojecttest\common\game\movingentity.h
_TEXT	ENDS
;	COMDAT ?Speed@MovingEntity@@QBENXZ
_TEXT	SEGMENT
_this$ = -4						; size = 4
?Speed@MovingEntity@@QBENXZ PROC			; MovingEntity::Speed, COMDAT
; _this$ = ecx

; 89   :   double    Speed()const{return m_vVelocity.Length();}

	push	ebp
	mov	ebp, esp
	push	ecx
	mov	DWORD PTR [ebp-4], -858993460		; ccccccccH
	mov	DWORD PTR _this$[ebp], ecx
	mov	ecx, DWORD PTR _this$[ebp]
	add	ecx, 64					; 00000040H
	call	?Length@Vector2D@@QBENXZ		; Vector2D::Length
	add	esp, 4
	cmp	ebp, esp
	call	__RTC_CheckEsp
	mov	esp, ebp
	pop	ebp
	ret	0
?Speed@MovingEntity@@QBENXZ ENDP			; MovingEntity::Speed
_TEXT	ENDS
PUBLIC	?IsTagged@BaseGameEntity@@QBE_NXZ		; BaseGameEntity::IsTagged
PUBLIC	??D?$_List_const_iterator@V?$_List_val@PAVAbstRaven_Bot@@V?$allocator@PAVAbstRaven_Bot@@@std@@@std@@@std@@QBEABQAVAbstRaven_Bot@@XZ ; std::_List_const_iterator<std::_List_val<AbstRaven_Bot *,std::allocator<AbstRaven_Bot *> > >::operator*
PUBLIC	??1?$_List_const_iterator@V?$_List_val@PAVAbstRaven_Bot@@V?$allocator@PAVAbstRaven_Bot@@@std@@@std@@@std@@QAE@XZ ; std::_List_const_iterator<std::_List_val<AbstRaven_Bot *,std::allocator<AbstRaven_Bot *> > >::~_List_const_iterator<std::_List_val<AbstRaven_Bot *,std::allocator<AbstRaven_Bot *> > >
PUBLIC	??9?$_List_const_iterator@V?$_List_val@PAVAbstRaven_Bot@@V?$allocator@PAVAbstRaven_Bot@@@std@@@std@@@std@@QBE_NABV01@@Z ; std::_List_const_iterator<std::_List_val<AbstRaven_Bot *,std::allocator<AbstRaven_Bot *> > >::operator!=
PUBLIC	?end@?$list@PAVAbstRaven_Bot@@V?$allocator@PAVAbstRaven_Bot@@@std@@@std@@QBE?AV?$_List_const_iterator@V?$_List_val@PAVAbstRaven_Bot@@V?$allocator@PAVAbstRaven_Bot@@@std@@@std@@@2@XZ ; std::list<AbstRaven_Bot *,std::allocator<AbstRaven_Bot *> >::end
PUBLIC	??E?$_List_const_iterator@V?$_List_val@PAVAbstRaven_Bot@@V?$allocator@PAVAbstRaven_Bot@@@std@@@std@@@std@@QAEAAV01@XZ ; std::_List_const_iterator<std::_List_val<AbstRaven_Bot *,std::allocator<AbstRaven_Bot *> > >::operator++
PUBLIC	?begin@?$list@PAVAbstRaven_Bot@@V?$allocator@PAVAbstRaven_Bot@@@std@@@std@@QBE?AV?$_List_const_iterator@V?$_List_val@PAVAbstRaven_Bot@@V?$allocator@PAVAbstRaven_Bot@@@std@@@std@@@2@XZ ; std::list<AbstRaven_Bot *,std::allocator<AbstRaven_Bot *> >::begin
xdata$x	SEGMENT
__unwindtable$?Separation@AbstSteering@@MAE?AUVector2D@@ABV?$list@PAVAbstRaven_Bot@@V?$allocator@PAVAbstRaven_Bot@@@std@@@std@@@Z DD 0ffffffffH
	DD	FLAT:__unwindfunclet$?Separation@AbstSteering@@MAE?AUVector2D@@ABV?$list@PAVAbstRaven_Bot@@V?$allocator@PAVAbstRaven_Bot@@@std@@@std@@@Z$0
	DD	00H
	DD	FLAT:__unwindfunclet$?Separation@AbstSteering@@MAE?AUVector2D@@ABV?$list@PAVAbstRaven_Bot@@V?$allocator@PAVAbstRaven_Bot@@@std@@@std@@@Z$1
__ehfuncinfo$?Separation@AbstSteering@@MAE?AUVector2D@@ABV?$list@PAVAbstRaven_Bot@@V?$allocator@PAVAbstRaven_Bot@@@std@@@std@@@Z DD 019930522H
	DD	02H
	DD	FLAT:__unwindtable$?Separation@AbstSteering@@MAE?AUVector2D@@ABV?$list@PAVAbstRaven_Bot@@V?$allocator@PAVAbstRaven_Bot@@@std@@@std@@@Z
	DD	2 DUP(00H)
	DD	2 DUP(00H)
	DD	00H
	DD	01H
; Function compile flags: /Odtp /RTCsu
; File c:\users\teaja\documents\artificial-fun\labravenprojecttest\raven\abststeeringbehaviors.cpp
xdata$x	ENDS
_TEXT	SEGMENT
tv163 = -172						; size = 4
tv66 = -168						; size = 4
$T146374 = -164						; size = 16
$T146373 = -148						; size = 16
$T146372 = -132						; size = 16
$T146371 = -116						; size = 16
$T146370 = -100						; size = 12
$T146369 = -85						; size = 1
_ToAgent$137269 = -80					; size = 16
_it$ = -56						; size = 12
_SteeringForce$ = -36					; size = 16
_this$ = -16						; size = 4
__$EHRec$ = -12						; size = 12
___$ReturnUdt$ = 8					; size = 4
_neighbors$ = 12					; size = 4
?Separation@AbstSteering@@MAE?AUVector2D@@ABV?$list@PAVAbstRaven_Bot@@V?$allocator@PAVAbstRaven_Bot@@@std@@@std@@@Z PROC ; AbstSteering::Separation
; _this$ = ecx

; 361  : {  

	push	ebp
	mov	ebp, esp
	push	-1
	push	__ehhandler$?Separation@AbstSteering@@MAE?AUVector2D@@ABV?$list@PAVAbstRaven_Bot@@V?$allocator@PAVAbstRaven_Bot@@@std@@@std@@@Z
	mov	eax, DWORD PTR fs:0
	push	eax
	sub	esp, 160				; 000000a0H
	push	edi
	push	ecx
	lea	edi, DWORD PTR [ebp-172]
	mov	ecx, 40					; 00000028H
	mov	eax, -858993460				; ccccccccH
	rep stosd
	pop	ecx
	mov	eax, DWORD PTR ___security_cookie
	xor	eax, ebp
	push	eax
	lea	eax, DWORD PTR __$EHRec$[ebp]
	mov	DWORD PTR fs:0, eax
	mov	DWORD PTR _this$[ebp], ecx

; 362  :   //iterate through all the neighbors and calculate the vector from the
; 363  :   Vector2D SteeringForce;

	lea	ecx, DWORD PTR _SteeringForce$[ebp]
	call	??0Vector2D@@QAE@XZ			; Vector2D::Vector2D

; 364  : 
; 365  :   std::list<AbstRaven_Bot*>::const_iterator it = neighbors.begin();

	lea	eax, DWORD PTR _it$[ebp]
	push	eax
	mov	ecx, DWORD PTR _neighbors$[ebp]
	call	?begin@?$list@PAVAbstRaven_Bot@@V?$allocator@PAVAbstRaven_Bot@@@std@@@std@@QBE?AV?$_List_const_iterator@V?$_List_val@PAVAbstRaven_Bot@@V?$allocator@PAVAbstRaven_Bot@@@std@@@std@@@2@XZ ; std::list<AbstRaven_Bot *,std::allocator<AbstRaven_Bot *> >::begin
	mov	DWORD PTR __$EHRec$[ebp+8], 0
	jmp	SHORT $LN4@Separation
$LN3@Separation:

; 366  :   for (it; it != neighbors.end(); ++it)

	lea	ecx, DWORD PTR _it$[ebp]
	call	??E?$_List_const_iterator@V?$_List_val@PAVAbstRaven_Bot@@V?$allocator@PAVAbstRaven_Bot@@@std@@@std@@@std@@QAEAAV01@XZ ; std::_List_const_iterator<std::_List_val<AbstRaven_Bot *,std::allocator<AbstRaven_Bot *> > >::operator++
$LN4@Separation:
	lea	ecx, DWORD PTR $T146370[ebp]
	push	ecx
	mov	ecx, DWORD PTR _neighbors$[ebp]
	call	?end@?$list@PAVAbstRaven_Bot@@V?$allocator@PAVAbstRaven_Bot@@@std@@@std@@QBE?AV?$_List_const_iterator@V?$_List_val@PAVAbstRaven_Bot@@V?$allocator@PAVAbstRaven_Bot@@@std@@@std@@@2@XZ ; std::list<AbstRaven_Bot *,std::allocator<AbstRaven_Bot *> >::end
	mov	DWORD PTR tv66[ebp], eax
	mov	edx, DWORD PTR tv66[ebp]
	mov	DWORD PTR tv163[ebp], edx
	mov	BYTE PTR __$EHRec$[ebp+8], 1
	mov	eax, DWORD PTR tv163[ebp]
	push	eax
	lea	ecx, DWORD PTR _it$[ebp]
	call	??9?$_List_const_iterator@V?$_List_val@PAVAbstRaven_Bot@@V?$allocator@PAVAbstRaven_Bot@@@std@@@std@@@std@@QBE_NABV01@@Z ; std::_List_const_iterator<std::_List_val<AbstRaven_Bot *,std::allocator<AbstRaven_Bot *> > >::operator!=
	mov	BYTE PTR $T146369[ebp], al
	mov	BYTE PTR __$EHRec$[ebp+8], 0
	lea	ecx, DWORD PTR $T146370[ebp]
	call	??1?$_List_const_iterator@V?$_List_val@PAVAbstRaven_Bot@@V?$allocator@PAVAbstRaven_Bot@@@std@@@std@@@std@@QAE@XZ
	movzx	ecx, BYTE PTR $T146369[ebp]
	test	ecx, ecx
	je	$LN2@Separation

; 367  :   {
; 368  :     //make sure this agent isn't included in the calculations and that
; 369  :     //the agent being examined is close enough. ***also make sure it doesn't
; 370  :     //include the evade target ***
; 371  :     if((*it != m_pRaven_Bot) && (*it)->IsTagged() &&
; 372  :       (*it != m_pTargetAgent1))

	lea	ecx, DWORD PTR _it$[ebp]
	call	??D?$_List_const_iterator@V?$_List_val@PAVAbstRaven_Bot@@V?$allocator@PAVAbstRaven_Bot@@@std@@@std@@@std@@QBEABQAVAbstRaven_Bot@@XZ ; std::_List_const_iterator<std::_List_val<AbstRaven_Bot *,std::allocator<AbstRaven_Bot *> > >::operator*
	mov	edx, DWORD PTR _this$[ebp]
	mov	eax, DWORD PTR [eax]
	cmp	eax, DWORD PTR [edx+8]
	je	$LN1@Separation
	lea	ecx, DWORD PTR _it$[ebp]
	call	??D?$_List_const_iterator@V?$_List_val@PAVAbstRaven_Bot@@V?$allocator@PAVAbstRaven_Bot@@@std@@@std@@@std@@QBEABQAVAbstRaven_Bot@@XZ ; std::_List_const_iterator<std::_List_val<AbstRaven_Bot *,std::allocator<AbstRaven_Bot *> > >::operator*
	mov	ecx, DWORD PTR [eax]
	call	?IsTagged@BaseGameEntity@@QBE_NXZ	; BaseGameEntity::IsTagged
	movzx	ecx, al
	test	ecx, ecx
	je	SHORT $LN1@Separation
	lea	ecx, DWORD PTR _it$[ebp]
	call	??D?$_List_const_iterator@V?$_List_val@PAVAbstRaven_Bot@@V?$allocator@PAVAbstRaven_Bot@@@std@@@std@@@std@@QBEABQAVAbstRaven_Bot@@XZ ; std::_List_const_iterator<std::_List_val<AbstRaven_Bot *,std::allocator<AbstRaven_Bot *> > >::operator*
	mov	edx, DWORD PTR _this$[ebp]
	mov	eax, DWORD PTR [eax]
	cmp	eax, DWORD PTR [edx+32]
	je	SHORT $LN1@Separation

; 373  :     {
; 374  :       Vector2D ToAgent = m_pRaven_Bot->Pos() - (*it)->Pos();

	lea	ecx, DWORD PTR $T146371[ebp]
	push	ecx
	lea	ecx, DWORD PTR _it$[ebp]
	call	??D?$_List_const_iterator@V?$_List_val@PAVAbstRaven_Bot@@V?$allocator@PAVAbstRaven_Bot@@@std@@@std@@@std@@QBEABQAVAbstRaven_Bot@@XZ ; std::_List_const_iterator<std::_List_val<AbstRaven_Bot *,std::allocator<AbstRaven_Bot *> > >::operator*
	mov	ecx, DWORD PTR [eax]
	call	?Pos@BaseGameEntity@@QBE?AUVector2D@@XZ	; BaseGameEntity::Pos
	push	eax
	lea	edx, DWORD PTR $T146372[ebp]
	push	edx
	mov	eax, DWORD PTR _this$[ebp]
	mov	ecx, DWORD PTR [eax+8]
	call	?Pos@BaseGameEntity@@QBE?AUVector2D@@XZ	; BaseGameEntity::Pos
	push	eax
	lea	ecx, DWORD PTR _ToAgent$137269[ebp]
	push	ecx
	call	??G@YA?AUVector2D@@ABU0@0@Z		; operator-
	add	esp, 12					; 0000000cH

; 375  : 
; 376  :       //scale the force inversely proportional to the agents distance  
; 377  :       //from its neighbor.
; 378  :       SteeringForce += Vec2DNormalize(ToAgent)/ToAgent.Length();

	lea	ecx, DWORD PTR _ToAgent$137269[ebp]
	call	?Length@Vector2D@@QBENXZ		; Vector2D::Length
	sub	esp, 8
	fstp	QWORD PTR [esp]
	lea	edx, DWORD PTR _ToAgent$137269[ebp]
	push	edx
	lea	eax, DWORD PTR $T146373[ebp]
	push	eax
	call	?Vec2DNormalize@@YA?AUVector2D@@ABU1@@Z	; Vec2DNormalize
	add	esp, 8
	push	eax
	lea	ecx, DWORD PTR $T146374[ebp]
	push	ecx
	call	??K@YA?AUVector2D@@ABU0@N@Z		; operator/
	add	esp, 16					; 00000010H
	push	eax
	lea	ecx, DWORD PTR _SteeringForce$[ebp]
	call	??YVector2D@@QAEABU0@ABU0@@Z		; Vector2D::operator+=
$LN1@Separation:

; 379  :     }
; 380  :   }

	jmp	$LN3@Separation
$LN2@Separation:

; 381  : 
; 382  :   return SteeringForce;

	mov	edx, DWORD PTR ___$ReturnUdt$[ebp]
	mov	eax, DWORD PTR _SteeringForce$[ebp]
	mov	DWORD PTR [edx], eax
	mov	ecx, DWORD PTR _SteeringForce$[ebp+4]
	mov	DWORD PTR [edx+4], ecx
	mov	eax, DWORD PTR _SteeringForce$[ebp+8]
	mov	DWORD PTR [edx+8], eax
	mov	ecx, DWORD PTR _SteeringForce$[ebp+12]
	mov	DWORD PTR [edx+12], ecx
	mov	DWORD PTR __$EHRec$[ebp+8], -1
	lea	ecx, DWORD PTR _it$[ebp]
	call	??1?$_List_const_iterator@V?$_List_val@PAVAbstRaven_Bot@@V?$allocator@PAVAbstRaven_Bot@@@std@@@std@@@std@@QAE@XZ
	mov	eax, DWORD PTR ___$ReturnUdt$[ebp]

; 383  : }

	push	edx
	mov	ecx, ebp
	push	eax
	lea	edx, DWORD PTR $LN14@Separation
	call	@_RTC_CheckStackVars@8
	pop	eax
	pop	edx
	mov	ecx, DWORD PTR __$EHRec$[ebp]
	mov	DWORD PTR fs:0, ecx
	pop	ecx
	pop	edi
	add	esp, 172				; 000000acH
	cmp	ebp, esp
	call	__RTC_CheckEsp
	mov	esp, ebp
	pop	ebp
	ret	8
	npad	3
$LN14@Separation:
	DD	3
	DD	$LN13@Separation
$LN13@Separation:
	DD	-36					; ffffffdcH
	DD	16					; 00000010H
	DD	$LN9@Separation
	DD	-56					; ffffffc8H
	DD	12					; 0000000cH
	DD	$LN10@Separation
	DD	-80					; ffffffb0H
	DD	16					; 00000010H
	DD	$LN11@Separation
$LN11@Separation:
	DB	84					; 00000054H
	DB	111					; 0000006fH
	DB	65					; 00000041H
	DB	103					; 00000067H
	DB	101					; 00000065H
	DB	110					; 0000006eH
	DB	116					; 00000074H
	DB	0
$LN10@Separation:
	DB	105					; 00000069H
	DB	116					; 00000074H
	DB	0
$LN9@Separation:
	DB	83					; 00000053H
	DB	116					; 00000074H
	DB	101					; 00000065H
	DB	101					; 00000065H
	DB	114					; 00000072H
	DB	105					; 00000069H
	DB	110					; 0000006eH
	DB	103					; 00000067H
	DB	70					; 00000046H
	DB	111					; 0000006fH
	DB	114					; 00000072H
	DB	99					; 00000063H
	DB	101					; 00000065H
	DB	0
_TEXT	ENDS
text$x	SEGMENT
__unwindfunclet$?Separation@AbstSteering@@MAE?AUVector2D@@ABV?$list@PAVAbstRaven_Bot@@V?$allocator@PAVAbstRaven_Bot@@@std@@@std@@@Z$0:
	lea	ecx, DWORD PTR _it$[ebp]
	jmp	??1?$_List_const_iterator@V?$_List_val@PAVAbstRaven_Bot@@V?$allocator@PAVAbstRaven_Bot@@@std@@@std@@@std@@QAE@XZ
__unwindfunclet$?Separation@AbstSteering@@MAE?AUVector2D@@ABV?$list@PAVAbstRaven_Bot@@V?$allocator@PAVAbstRaven_Bot@@@std@@@std@@@Z$1:
	lea	ecx, DWORD PTR $T146370[ebp]
	jmp	??1?$_List_const_iterator@V?$_List_val@PAVAbstRaven_Bot@@V?$allocator@PAVAbstRaven_Bot@@@std@@@std@@@std@@QAE@XZ
__ehhandler$?Separation@AbstSteering@@MAE?AUVector2D@@ABV?$list@PAVAbstRaven_Bot@@V?$allocator@PAVAbstRaven_Bot@@@std@@@std@@@Z:
	mov	edx, DWORD PTR [esp+8]
	lea	eax, DWORD PTR [edx+12]
	mov	ecx, DWORD PTR [edx-168]
	xor	ecx, eax
	call	@__security_check_cookie@4
	mov	eax, OFFSET __ehfuncinfo$?Separation@AbstSteering@@MAE?AUVector2D@@ABV?$list@PAVAbstRaven_Bot@@V?$allocator@PAVAbstRaven_Bot@@@std@@@std@@@Z
	jmp	___CxxFrameHandler3
text$x	ENDS
?Separation@AbstSteering@@MAE?AUVector2D@@ABV?$list@PAVAbstRaven_Bot@@V?$allocator@PAVAbstRaven_Bot@@@std@@@std@@@Z ENDP ; AbstSteering::Separation
; Function compile flags: /Odtp /RTCsu
; File c:\users\teaja\documents\artificial-fun\labravenprojecttest\common\game\basegameentity.h
;	COMDAT ?IsTagged@BaseGameEntity@@QBE_NXZ
_TEXT	SEGMENT
_this$ = -4						; size = 4
?IsTagged@BaseGameEntity@@QBE_NXZ PROC			; BaseGameEntity::IsTagged, COMDAT
; _this$ = ecx

; 96   :   bool         IsTagged()const{return m_bTag;}

	push	ebp
	mov	ebp, esp
	push	ecx
	mov	DWORD PTR [ebp-4], -858993460		; ccccccccH
	mov	DWORD PTR _this$[ebp], ecx
	mov	eax, DWORD PTR _this$[ebp]
	mov	al, BYTE PTR [eax+16]
	mov	esp, ebp
	pop	ebp
	ret	0
?IsTagged@BaseGameEntity@@QBE_NXZ ENDP			; BaseGameEntity::IsTagged
_TEXT	ENDS
PUBLIC	??1?$_List_unchecked_const_iterator@V?$_List_val@PAVAbstRaven_Bot@@V?$allocator@PAVAbstRaven_Bot@@@std@@@std@@U_Iterator_base12@2@@std@@QAE@XZ ; std::_List_unchecked_const_iterator<std::_List_val<AbstRaven_Bot *,std::allocator<AbstRaven_Bot *> >,std::_Iterator_base12>::~_List_unchecked_const_iterator<std::_List_val<AbstRaven_Bot *,std::allocator<AbstRaven_Bot *> >,std::_Iterator_base12>
; Function compile flags: /Odtp /RTCsu
;	COMDAT ??1?$_List_const_iterator@V?$_List_val@PAVAbstRaven_Bot@@V?$allocator@PAVAbstRaven_Bot@@@std@@@std@@@std@@QAE@XZ
_TEXT	SEGMENT
_this$ = -4						; size = 4
??1?$_List_const_iterator@V?$_List_val@PAVAbstRaven_Bot@@V?$allocator@PAVAbstRaven_Bot@@@std@@@std@@@std@@QAE@XZ PROC ; std::_List_const_iterator<std::_List_val<AbstRaven_Bot *,std::allocator<AbstRaven_Bot *> > >::~_List_const_iterator<std::_List_val<AbstRaven_Bot *,std::allocator<AbstRaven_Bot *> > >, COMDAT
; _this$ = ecx
	push	ebp
	mov	ebp, esp
	push	ecx
	mov	DWORD PTR [ebp-4], -858993460		; ccccccccH
	mov	DWORD PTR _this$[ebp], ecx
	mov	ecx, DWORD PTR _this$[ebp]
	call	??1?$_List_unchecked_const_iterator@V?$_List_val@PAVAbstRaven_Bot@@V?$allocator@PAVAbstRaven_Bot@@@std@@@std@@U_Iterator_base12@2@@std@@QAE@XZ
	add	esp, 4
	cmp	ebp, esp
	call	__RTC_CheckEsp
	mov	esp, ebp
	pop	ebp
	ret	0
??1?$_List_const_iterator@V?$_List_val@PAVAbstRaven_Bot@@V?$allocator@PAVAbstRaven_Bot@@@std@@@std@@@std@@QAE@XZ ENDP ; std::_List_const_iterator<std::_List_val<AbstRaven_Bot *,std::allocator<AbstRaven_Bot *> > >::~_List_const_iterator<std::_List_val<AbstRaven_Bot *,std::allocator<AbstRaven_Bot *> > >
_TEXT	ENDS
PUBLIC	??1?$_Iterator012@Ubidirectional_iterator_tag@std@@PAVAbstRaven_Bot@@HPBQAV3@ABQAV3@U_Iterator_base12@2@@std@@QAE@XZ ; std::_Iterator012<std::bidirectional_iterator_tag,AbstRaven_Bot *,int,AbstRaven_Bot * const *,AbstRaven_Bot * const &,std::_Iterator_base12>::~_Iterator012<std::bidirectional_iterator_tag,AbstRaven_Bot *,int,AbstRaven_Bot * const *,AbstRaven_Bot * const &,std::_Iterator_base12>
; Function compile flags: /Odtp /RTCsu
;	COMDAT ??1?$_List_unchecked_const_iterator@V?$_List_val@PAVAbstRaven_Bot@@V?$allocator@PAVAbstRaven_Bot@@@std@@@std@@U_Iterator_base12@2@@std@@QAE@XZ
_TEXT	SEGMENT
_this$ = -4						; size = 4
??1?$_List_unchecked_const_iterator@V?$_List_val@PAVAbstRaven_Bot@@V?$allocator@PAVAbstRaven_Bot@@@std@@@std@@U_Iterator_base12@2@@std@@QAE@XZ PROC ; std::_List_unchecked_const_iterator<std::_List_val<AbstRaven_Bot *,std::allocator<AbstRaven_Bot *> >,std::_Iterator_base12>::~_List_unchecked_const_iterator<std::_List_val<AbstRaven_Bot *,std::allocator<AbstRaven_Bot *> >,std::_Iterator_base12>, COMDAT
; _this$ = ecx
	push	ebp
	mov	ebp, esp
	push	ecx
	mov	DWORD PTR [ebp-4], -858993460		; ccccccccH
	mov	DWORD PTR _this$[ebp], ecx
	mov	ecx, DWORD PTR _this$[ebp]
	call	??1?$_Iterator012@Ubidirectional_iterator_tag@std@@PAVAbstRaven_Bot@@HPBQAV3@ABQAV3@U_Iterator_base12@2@@std@@QAE@XZ
	add	esp, 4
	cmp	ebp, esp
	call	__RTC_CheckEsp
	mov	esp, ebp
	pop	ebp
	ret	0
??1?$_List_unchecked_const_iterator@V?$_List_val@PAVAbstRaven_Bot@@V?$allocator@PAVAbstRaven_Bot@@@std@@@std@@U_Iterator_base12@2@@std@@QAE@XZ ENDP ; std::_List_unchecked_const_iterator<std::_List_val<AbstRaven_Bot *,std::allocator<AbstRaven_Bot *> >,std::_Iterator_base12>::~_List_unchecked_const_iterator<std::_List_val<AbstRaven_Bot *,std::allocator<AbstRaven_Bot *> >,std::_Iterator_base12>
_TEXT	ENDS
PUBLIC	??1_Iterator_base12@std@@QAE@XZ			; std::_Iterator_base12::~_Iterator_base12
; Function compile flags: /Odtp /RTCsu
;	COMDAT ??1?$_Iterator012@Ubidirectional_iterator_tag@std@@PAVAbstRaven_Bot@@HPBQAV3@ABQAV3@U_Iterator_base12@2@@std@@QAE@XZ
_TEXT	SEGMENT
_this$ = -4						; size = 4
??1?$_Iterator012@Ubidirectional_iterator_tag@std@@PAVAbstRaven_Bot@@HPBQAV3@ABQAV3@U_Iterator_base12@2@@std@@QAE@XZ PROC ; std::_Iterator012<std::bidirectional_iterator_tag,AbstRaven_Bot *,int,AbstRaven_Bot * const *,AbstRaven_Bot * const &,std::_Iterator_base12>::~_Iterator012<std::bidirectional_iterator_tag,AbstRaven_Bot *,int,AbstRaven_Bot * const *,AbstRaven_Bot * const &,std::_Iterator_base12>, COMDAT
; _this$ = ecx
	push	ebp
	mov	ebp, esp
	push	ecx
	mov	DWORD PTR [ebp-4], -858993460		; ccccccccH
	mov	DWORD PTR _this$[ebp], ecx
	mov	ecx, DWORD PTR _this$[ebp]
	call	??1_Iterator_base12@std@@QAE@XZ		; std::_Iterator_base12::~_Iterator_base12
	add	esp, 4
	cmp	ebp, esp
	call	__RTC_CheckEsp
	mov	esp, ebp
	pop	ebp
	ret	0
??1?$_Iterator012@Ubidirectional_iterator_tag@std@@PAVAbstRaven_Bot@@HPBQAV3@ABQAV3@U_Iterator_base12@2@@std@@QAE@XZ ENDP ; std::_Iterator012<std::bidirectional_iterator_tag,AbstRaven_Bot *,int,AbstRaven_Bot * const *,AbstRaven_Bot * const &,std::_Iterator_base12>::~_Iterator012<std::bidirectional_iterator_tag,AbstRaven_Bot *,int,AbstRaven_Bot * const *,AbstRaven_Bot * const &,std::_Iterator_base12>
_TEXT	ENDS
PUBLIC	?_Orphan_me@_Iterator_base12@std@@QAEXXZ	; std::_Iterator_base12::_Orphan_me
EXTRN	??1_Lockit@std@@QAE@XZ:PROC			; std::_Lockit::~_Lockit
EXTRN	??0_Lockit@std@@QAE@H@Z:PROC			; std::_Lockit::_Lockit
;	COMDAT xdata$x
; File c:\program files (x86)\microsoft visual studio 10.0\vc\include\xutility
xdata$x	SEGMENT
__unwindtable$??1_Iterator_base12@std@@QAE@XZ DD 0ffffffffH
	DD	FLAT:__unwindfunclet$??1_Iterator_base12@std@@QAE@XZ$0
__ehfuncinfo$??1_Iterator_base12@std@@QAE@XZ DD 019930522H
	DD	01H
	DD	FLAT:__unwindtable$??1_Iterator_base12@std@@QAE@XZ
	DD	2 DUP(00H)
	DD	2 DUP(00H)
	DD	00H
	DD	01H
; Function compile flags: /Odtp /RTCsu
xdata$x	ENDS
;	COMDAT ??1_Iterator_base12@std@@QAE@XZ
_TEXT	SEGMENT
__Lock$ = -24						; size = 4
_this$ = -16						; size = 4
__$EHRec$ = -12						; size = 12
??1_Iterator_base12@std@@QAE@XZ PROC			; std::_Iterator_base12::~_Iterator_base12, COMDAT
; _this$ = ecx

; 135  : 		{	// destroy the iterator

	push	ebp
	mov	ebp, esp
	push	-1
	push	__ehhandler$??1_Iterator_base12@std@@QAE@XZ
	mov	eax, DWORD PTR fs:0
	push	eax
	sub	esp, 16					; 00000010H
	mov	eax, -858993460				; ccccccccH
	mov	DWORD PTR [ebp-28], eax
	mov	DWORD PTR [ebp-24], eax
	mov	DWORD PTR [ebp-20], eax
	mov	DWORD PTR [ebp-16], eax
	mov	eax, DWORD PTR ___security_cookie
	xor	eax, ebp
	push	eax
	lea	eax, DWORD PTR __$EHRec$[ebp]
	mov	DWORD PTR fs:0, eax
	mov	DWORD PTR _this$[ebp], ecx

; 136  :  #if _ITERATOR_DEBUG_LEVEL == 2
; 137  : 		_Lockit _Lock(_LOCK_DEBUG);

	push	3
	lea	ecx, DWORD PTR __Lock$[ebp]
	call	??0_Lockit@std@@QAE@H@Z			; std::_Lockit::_Lockit
	mov	DWORD PTR __$EHRec$[ebp+8], 0

; 138  : 		_Orphan_me();

	mov	ecx, DWORD PTR _this$[ebp]
	call	?_Orphan_me@_Iterator_base12@std@@QAEXXZ ; std::_Iterator_base12::_Orphan_me

; 139  :  #endif /* _ITERATOR_DEBUG_LEVEL == 2 */
; 140  : 		}

	mov	DWORD PTR __$EHRec$[ebp+8], -1
	lea	ecx, DWORD PTR __Lock$[ebp]
	call	??1_Lockit@std@@QAE@XZ			; std::_Lockit::~_Lockit
	push	edx
	mov	ecx, ebp
	push	eax
	lea	edx, DWORD PTR $LN7@Iterator_b
	call	@_RTC_CheckStackVars@8
	pop	eax
	pop	edx
	mov	ecx, DWORD PTR __$EHRec$[ebp]
	mov	DWORD PTR fs:0, ecx
	pop	ecx
	add	esp, 28					; 0000001cH
	cmp	ebp, esp
	call	__RTC_CheckEsp
	mov	esp, ebp
	pop	ebp
	ret	0
	npad	1
$LN7@Iterator_b:
	DD	1
	DD	$LN6@Iterator_b
$LN6@Iterator_b:
	DD	-24					; ffffffe8H
	DD	4
	DD	$LN4@Iterator_b
$LN4@Iterator_b:
	DB	95					; 0000005fH
	DB	76					; 0000004cH
	DB	111					; 0000006fH
	DB	99					; 00000063H
	DB	107					; 0000006bH
	DB	0
_TEXT	ENDS
;	COMDAT text$x
text$x	SEGMENT
__unwindfunclet$??1_Iterator_base12@std@@QAE@XZ$0:
	lea	ecx, DWORD PTR __Lock$[ebp]
	jmp	??1_Lockit@std@@QAE@XZ			; std::_Lockit::~_Lockit
__ehhandler$??1_Iterator_base12@std@@QAE@XZ:
	mov	edx, DWORD PTR [esp+8]
	lea	eax, DWORD PTR [edx+12]
	mov	ecx, DWORD PTR [edx-20]
	xor	ecx, eax
	call	@__security_check_cookie@4
	mov	eax, OFFSET __ehfuncinfo$??1_Iterator_base12@std@@QAE@XZ
	jmp	___CxxFrameHandler3
text$x	ENDS
??1_Iterator_base12@std@@QAE@XZ ENDP			; std::_Iterator_base12::~_Iterator_base12
PUBLIC	??_C@_1DC@POOIKBAO@?$AAI?$AAT?$AAE?$AAR?$AAA?$AAT?$AAO?$AAR?$AA?5?$AAL?$AAI?$AAS?$AAT?$AA?5?$AAC?$AAO?$AAR?$AAR?$AAU?$AAP?$AAT?$AAE?$AAD?$AA?$CB?$AA?$AA@ ; `string'
PUBLIC	??_C@_1JA@HCKHPKJH@?$AAc?$AA?3?$AA?2?$AAP?$AAr?$AAo?$AAg?$AAr?$AAa?$AAm?$AA?5?$AAF?$AAi?$AAl?$AAe?$AAs?$AA?5?$AA?$CI?$AAx?$AA8?$AA6?$AA?$CJ?$AA?2?$AAM?$AAi?$AAc?$AAr?$AAo?$AAs?$AAo?$AAf?$AAt@ ; `string'
EXTRN	?_Debug_message@std@@YAXPB_W0I@Z:PROC		; std::_Debug_message
;	COMDAT ??_C@_1DC@POOIKBAO@?$AAI?$AAT?$AAE?$AAR?$AAA?$AAT?$AAO?$AAR?$AA?5?$AAL?$AAI?$AAS?$AAT?$AA?5?$AAC?$AAO?$AAR?$AAR?$AAU?$AAP?$AAT?$AAE?$AAD?$AA?$CB?$AA?$AA@
CONST	SEGMENT
??_C@_1DC@POOIKBAO@?$AAI?$AAT?$AAE?$AAR?$AAA?$AAT?$AAO?$AAR?$AA?5?$AAL?$AAI?$AAS?$AAT?$AA?5?$AAC?$AAO?$AAR?$AAR?$AAU?$AAP?$AAT?$AAE?$AAD?$AA?$CB?$AA?$AA@ DB 'I'
	DB	00H, 'T', 00H, 'E', 00H, 'R', 00H, 'A', 00H, 'T', 00H, 'O', 00H
	DB	'R', 00H, ' ', 00H, 'L', 00H, 'I', 00H, 'S', 00H, 'T', 00H, ' '
	DB	00H, 'C', 00H, 'O', 00H, 'R', 00H, 'R', 00H, 'U', 00H, 'P', 00H
	DB	'T', 00H, 'E', 00H, 'D', 00H, '!', 00H, 00H, 00H ; `string'
CONST	ENDS
;	COMDAT ??_C@_1JA@HCKHPKJH@?$AAc?$AA?3?$AA?2?$AAP?$AAr?$AAo?$AAg?$AAr?$AAa?$AAm?$AA?5?$AAF?$AAi?$AAl?$AAe?$AAs?$AA?5?$AA?$CI?$AAx?$AA8?$AA6?$AA?$CJ?$AA?2?$AAM?$AAi?$AAc?$AAr?$AAo?$AAs?$AAo?$AAf?$AAt@
CONST	SEGMENT
??_C@_1JA@HCKHPKJH@?$AAc?$AA?3?$AA?2?$AAP?$AAr?$AAo?$AAg?$AAr?$AAa?$AAm?$AA?5?$AAF?$AAi?$AAl?$AAe?$AAs?$AA?5?$AA?$CI?$AAx?$AA8?$AA6?$AA?$CJ?$AA?2?$AAM?$AAi?$AAc?$AAr?$AAo?$AAs?$AAo?$AAf?$AAt@ DB 'c'
	DB	00H, ':', 00H, '\', 00H, 'P', 00H, 'r', 00H, 'o', 00H, 'g', 00H
	DB	'r', 00H, 'a', 00H, 'm', 00H, ' ', 00H, 'F', 00H, 'i', 00H, 'l'
	DB	00H, 'e', 00H, 's', 00H, ' ', 00H, '(', 00H, 'x', 00H, '8', 00H
	DB	'6', 00H, ')', 00H, '\', 00H, 'M', 00H, 'i', 00H, 'c', 00H, 'r'
	DB	00H, 'o', 00H, 's', 00H, 'o', 00H, 'f', 00H, 't', 00H, ' ', 00H
	DB	'V', 00H, 'i', 00H, 's', 00H, 'u', 00H, 'a', 00H, 'l', 00H, ' '
	DB	00H, 'S', 00H, 't', 00H, 'u', 00H, 'd', 00H, 'i', 00H, 'o', 00H
	DB	' ', 00H, '1', 00H, '0', 00H, '.', 00H, '0', 00H, '\', 00H, 'V'
	DB	00H, 'C', 00H, '\', 00H, 'i', 00H, 'n', 00H, 'c', 00H, 'l', 00H
	DB	'u', 00H, 'd', 00H, 'e', 00H, '\', 00H, 'x', 00H, 'u', 00H, 't'
	DB	00H, 'i', 00H, 'l', 00H, 'i', 00H, 't', 00H, 'y', 00H, 00H, 00H ; `string'
; Function compile flags: /Odtp /RTCsu
CONST	ENDS
;	COMDAT ?_Orphan_me@_Iterator_base12@std@@QAEXXZ
_TEXT	SEGMENT
__Pnext$15155 = -8					; size = 4
_this$ = -4						; size = 4
?_Orphan_me@_Iterator_base12@std@@QAEXXZ PROC		; std::_Iterator_base12::_Orphan_me, COMDAT
; _this$ = ecx

; 184  : 		{	// cut ties with parent

	push	ebp
	mov	ebp, esp
	sub	esp, 8
	mov	DWORD PTR [ebp-8], -858993460		; ccccccccH
	mov	DWORD PTR [ebp-4], -858993460		; ccccccccH
	mov	DWORD PTR _this$[ebp], ecx

; 185  :  #if _ITERATOR_DEBUG_LEVEL == 2
; 186  : 		if (_Myproxy != 0)

	mov	eax, DWORD PTR _this$[ebp]
	cmp	DWORD PTR [eax], 0
	je	SHORT $LN5@Orphan_me

; 187  : 			{	// adopted, remove self from list
; 188  : 			_Iterator_base12 **_Pnext = &_Myproxy->_Myfirstiter;

	mov	ecx, DWORD PTR _this$[ebp]
	mov	edx, DWORD PTR [ecx]
	add	edx, 4
	mov	DWORD PTR __Pnext$15155[ebp], edx
$LN3@Orphan_me:

; 189  : 			while (*_Pnext != 0 && *_Pnext != this)

	mov	eax, DWORD PTR __Pnext$15155[ebp]
	cmp	DWORD PTR [eax], 0
	je	SHORT $LN2@Orphan_me
	mov	ecx, DWORD PTR __Pnext$15155[ebp]
	mov	edx, DWORD PTR [ecx]
	cmp	edx, DWORD PTR _this$[ebp]
	je	SHORT $LN2@Orphan_me

; 190  : 				_Pnext = &(*_Pnext)->_Mynextiter;

	mov	eax, DWORD PTR __Pnext$15155[ebp]
	mov	ecx, DWORD PTR [eax]
	add	ecx, 4
	mov	DWORD PTR __Pnext$15155[ebp], ecx
	jmp	SHORT $LN3@Orphan_me
$LN2@Orphan_me:

; 191  : 
; 192  : 			if (*_Pnext == 0)

	mov	edx, DWORD PTR __Pnext$15155[ebp]
	cmp	DWORD PTR [edx], 0
	jne	SHORT $LN1@Orphan_me

; 193  : 				_DEBUG_ERROR("ITERATOR LIST CORRUPTED!");

	push	193					; 000000c1H
	push	OFFSET ??_C@_1JA@HCKHPKJH@?$AAc?$AA?3?$AA?2?$AAP?$AAr?$AAo?$AAg?$AAr?$AAa?$AAm?$AA?5?$AAF?$AAi?$AAl?$AAe?$AAs?$AA?5?$AA?$CI?$AAx?$AA8?$AA6?$AA?$CJ?$AA?2?$AAM?$AAi?$AAc?$AAr?$AAo?$AAs?$AAo?$AAf?$AAt@
	push	OFFSET ??_C@_1DC@POOIKBAO@?$AAI?$AAT?$AAE?$AAR?$AAA?$AAT?$AAO?$AAR?$AA?5?$AAL?$AAI?$AAS?$AAT?$AA?5?$AAC?$AAO?$AAR?$AAR?$AAU?$AAP?$AAT?$AAE?$AAD?$AA?$CB?$AA?$AA@
	call	?_Debug_message@std@@YAXPB_W0I@Z	; std::_Debug_message
	add	esp, 12					; 0000000cH
$LN1@Orphan_me:

; 194  : 			*_Pnext = _Mynextiter;

	mov	eax, DWORD PTR __Pnext$15155[ebp]
	mov	ecx, DWORD PTR _this$[ebp]
	mov	edx, DWORD PTR [ecx+4]
	mov	DWORD PTR [eax], edx

; 195  : 			_Myproxy = 0;

	mov	eax, DWORD PTR _this$[ebp]
	mov	DWORD PTR [eax], 0
$LN5@Orphan_me:

; 196  : 			}
; 197  :  #endif /* _ITERATOR_DEBUG_LEVEL == 2 */
; 198  : 		}

	add	esp, 8
	cmp	ebp, esp
	call	__RTC_CheckEsp
	mov	esp, ebp
	pop	ebp
	ret	0
?_Orphan_me@_Iterator_base12@std@@QAEXXZ ENDP		; std::_Iterator_base12::_Orphan_me
_TEXT	ENDS
PUBLIC	??1?$_Vector_val@UVector2D@@V?$allocator@UVector2D@@@std@@@std@@QAE@XZ ; std::_Vector_val<Vector2D,std::allocator<Vector2D> >::~_Vector_val<Vector2D,std::allocator<Vector2D> >
PUBLIC	?resize@?$vector@UVector2D@@V?$allocator@UVector2D@@@std@@@std@@QAEXI@Z ; std::vector<Vector2D,std::allocator<Vector2D> >::resize
PUBLIC	??0?$_Vector_val@UVector2D@@V?$allocator@UVector2D@@@std@@@std@@QAE@V?$allocator@UVector2D@@@1@@Z ; std::_Vector_val<Vector2D,std::allocator<Vector2D> >::_Vector_val<Vector2D,std::allocator<Vector2D> >
PUBLIC	??0?$allocator@UVector2D@@@std@@QAE@XZ		; std::allocator<Vector2D>::allocator<Vector2D>
;	COMDAT xdata$x
; File c:\program files (x86)\microsoft visual studio 10.0\vc\include\vector
xdata$x	SEGMENT
__unwindtable$??0?$vector@UVector2D@@V?$allocator@UVector2D@@@std@@@std@@QAE@I@Z DD 0ffffffffH
	DD	FLAT:__unwindfunclet$??0?$vector@UVector2D@@V?$allocator@UVector2D@@@std@@@std@@QAE@I@Z$0
__ehfuncinfo$??0?$vector@UVector2D@@V?$allocator@UVector2D@@@std@@@std@@QAE@I@Z DD 019930522H
	DD	01H
	DD	FLAT:__unwindtable$??0?$vector@UVector2D@@V?$allocator@UVector2D@@@std@@@std@@QAE@I@Z
	DD	2 DUP(00H)
	DD	2 DUP(00H)
	DD	00H
	DD	01H
; Function compile flags: /Odtp /RTCsu
xdata$x	ENDS
;	COMDAT ??0?$vector@UVector2D@@V?$allocator@UVector2D@@@std@@@std@@QAE@I@Z
_TEXT	SEGMENT
$T146412 = -20						; size = 4
_this$ = -16						; size = 4
__$EHRec$ = -12						; size = 12
__Count$ = 8						; size = 4
??0?$vector@UVector2D@@V?$allocator@UVector2D@@@std@@@std@@QAE@I@Z PROC ; std::vector<Vector2D,std::allocator<Vector2D> >::vector<Vector2D,std::allocator<Vector2D> >, COMDAT
; _this$ = ecx

; 517  : 		{	// construct from _Count * _Ty()

	push	ebp
	mov	ebp, esp
	push	-1
	push	__ehhandler$??0?$vector@UVector2D@@V?$allocator@UVector2D@@@std@@@std@@QAE@I@Z
	mov	eax, DWORD PTR fs:0
	push	eax
	sub	esp, 8
	mov	DWORD PTR [ebp-20], -858993460		; ccccccccH
	mov	DWORD PTR [ebp-16], -858993460		; ccccccccH
	mov	eax, DWORD PTR ___security_cookie
	xor	eax, ebp
	push	eax
	lea	eax, DWORD PTR __$EHRec$[ebp]
	mov	DWORD PTR fs:0, eax
	mov	DWORD PTR _this$[ebp], ecx
	push	ecx
	mov	ecx, esp
	mov	DWORD PTR $T146412[ebp], esp
	call	??0?$allocator@UVector2D@@@std@@QAE@XZ	; std::allocator<Vector2D>::allocator<Vector2D>
	mov	ecx, DWORD PTR _this$[ebp]
	call	??0?$_Vector_val@UVector2D@@V?$allocator@UVector2D@@@std@@@std@@QAE@V?$allocator@UVector2D@@@1@@Z ; std::_Vector_val<Vector2D,std::allocator<Vector2D> >::_Vector_val<Vector2D,std::allocator<Vector2D> >
	mov	DWORD PTR __$EHRec$[ebp+8], 0

; 518  : 		resize(_Count);

	mov	eax, DWORD PTR __Count$[ebp]
	push	eax
	mov	ecx, DWORD PTR _this$[ebp]
	call	?resize@?$vector@UVector2D@@V?$allocator@UVector2D@@@std@@@std@@QAEXI@Z ; std::vector<Vector2D,std::allocator<Vector2D> >::resize

; 519  : 		}

	mov	DWORD PTR __$EHRec$[ebp+8], -1
	mov	eax, DWORD PTR _this$[ebp]
	mov	ecx, DWORD PTR __$EHRec$[ebp]
	mov	DWORD PTR fs:0, ecx
	pop	ecx
	add	esp, 20					; 00000014H
	cmp	ebp, esp
	call	__RTC_CheckEsp
	mov	esp, ebp
	pop	ebp
	ret	4
_TEXT	ENDS
;	COMDAT text$x
text$x	SEGMENT
__unwindfunclet$??0?$vector@UVector2D@@V?$allocator@UVector2D@@@std@@@std@@QAE@I@Z$0:
	mov	ecx, DWORD PTR _this$[ebp]
	jmp	??1?$_Vector_val@UVector2D@@V?$allocator@UVector2D@@@std@@@std@@QAE@XZ ; std::_Vector_val<Vector2D,std::allocator<Vector2D> >::~_Vector_val<Vector2D,std::allocator<Vector2D> >
__ehhandler$??0?$vector@UVector2D@@V?$allocator@UVector2D@@@std@@@std@@QAE@I@Z:
	mov	edx, DWORD PTR [esp+8]
	lea	eax, DWORD PTR [edx+12]
	mov	ecx, DWORD PTR [edx-12]
	xor	ecx, eax
	call	@__security_check_cookie@4
	mov	eax, OFFSET __ehfuncinfo$??0?$vector@UVector2D@@V?$allocator@UVector2D@@@std@@@std@@QAE@I@Z
	jmp	___CxxFrameHandler3
text$x	ENDS
??0?$vector@UVector2D@@V?$allocator@UVector2D@@@std@@@std@@QAE@I@Z ENDP ; std::vector<Vector2D,std::allocator<Vector2D> >::vector<Vector2D,std::allocator<Vector2D> >
PUBLIC	?_Tidy@?$vector@UVector2D@@V?$allocator@UVector2D@@@std@@@std@@IAEXXZ ; std::vector<Vector2D,std::allocator<Vector2D> >::_Tidy
;	COMDAT xdata$x
xdata$x	SEGMENT
__unwindtable$??1?$vector@UVector2D@@V?$allocator@UVector2D@@@std@@@std@@QAE@XZ DD 0ffffffffH
	DD	FLAT:__unwindfunclet$??1?$vector@UVector2D@@V?$allocator@UVector2D@@@std@@@std@@QAE@XZ$0
__ehfuncinfo$??1?$vector@UVector2D@@V?$allocator@UVector2D@@@std@@@std@@QAE@XZ DD 019930522H
	DD	01H
	DD	FLAT:__unwindtable$??1?$vector@UVector2D@@V?$allocator@UVector2D@@@std@@@std@@QAE@XZ
	DD	2 DUP(00H)
	DD	2 DUP(00H)
	DD	00H
	DD	01H
; Function compile flags: /Odtp /RTCsu
xdata$x	ENDS
;	COMDAT ??1?$vector@UVector2D@@V?$allocator@UVector2D@@@std@@@std@@QAE@XZ
_TEXT	SEGMENT
_this$ = -16						; size = 4
__$EHRec$ = -12						; size = 12
??1?$vector@UVector2D@@V?$allocator@UVector2D@@@std@@@std@@QAE@XZ PROC ; std::vector<Vector2D,std::allocator<Vector2D> >::~vector<Vector2D,std::allocator<Vector2D> >, COMDAT
; _this$ = ecx

; 704  : 		{	// destroy the object

	push	ebp
	mov	ebp, esp
	push	-1
	push	__ehhandler$??1?$vector@UVector2D@@V?$allocator@UVector2D@@@std@@@std@@QAE@XZ
	mov	eax, DWORD PTR fs:0
	push	eax
	push	ecx
	mov	DWORD PTR [ebp-16], -858993460		; ccccccccH
	mov	eax, DWORD PTR ___security_cookie
	xor	eax, ebp
	push	eax
	lea	eax, DWORD PTR __$EHRec$[ebp]
	mov	DWORD PTR fs:0, eax
	mov	DWORD PTR _this$[ebp], ecx
	mov	DWORD PTR __$EHRec$[ebp+8], 0

; 705  : 		_Tidy();

	mov	ecx, DWORD PTR _this$[ebp]
	call	?_Tidy@?$vector@UVector2D@@V?$allocator@UVector2D@@@std@@@std@@IAEXXZ ; std::vector<Vector2D,std::allocator<Vector2D> >::_Tidy

; 706  : 		}

	mov	DWORD PTR __$EHRec$[ebp+8], -1
	mov	ecx, DWORD PTR _this$[ebp]
	call	??1?$_Vector_val@UVector2D@@V?$allocator@UVector2D@@@std@@@std@@QAE@XZ ; std::_Vector_val<Vector2D,std::allocator<Vector2D> >::~_Vector_val<Vector2D,std::allocator<Vector2D> >
	mov	ecx, DWORD PTR __$EHRec$[ebp]
	mov	DWORD PTR fs:0, ecx
	pop	ecx
	add	esp, 16					; 00000010H
	cmp	ebp, esp
	call	__RTC_CheckEsp
	mov	esp, ebp
	pop	ebp
	ret	0
_TEXT	ENDS
;	COMDAT text$x
text$x	SEGMENT
__unwindfunclet$??1?$vector@UVector2D@@V?$allocator@UVector2D@@@std@@@std@@QAE@XZ$0:
	mov	ecx, DWORD PTR _this$[ebp]
	jmp	??1?$_Vector_val@UVector2D@@V?$allocator@UVector2D@@@std@@@std@@QAE@XZ ; std::_Vector_val<Vector2D,std::allocator<Vector2D> >::~_Vector_val<Vector2D,std::allocator<Vector2D> >
__ehhandler$??1?$vector@UVector2D@@V?$allocator@UVector2D@@@std@@@std@@QAE@XZ:
	mov	edx, DWORD PTR [esp+8]
	lea	eax, DWORD PTR [edx+12]
	mov	ecx, DWORD PTR [edx-8]
	xor	ecx, eax
	call	@__security_check_cookie@4
	mov	eax, OFFSET __ehfuncinfo$??1?$vector@UVector2D@@V?$allocator@UVector2D@@@std@@@std@@QAE@XZ
	jmp	___CxxFrameHandler3
text$x	ENDS
??1?$vector@UVector2D@@V?$allocator@UVector2D@@@std@@@std@@QAE@XZ ENDP ; std::vector<Vector2D,std::allocator<Vector2D> >::~vector<Vector2D,std::allocator<Vector2D> >
; Function compile flags: /Odtp /RTCsu
;	COMDAT ?size@?$vector@UVector2D@@V?$allocator@UVector2D@@@std@@@std@@QBEIXZ
_TEXT	SEGMENT
_this$ = -4						; size = 4
?size@?$vector@UVector2D@@V?$allocator@UVector2D@@@std@@@std@@QBEIXZ PROC ; std::vector<Vector2D,std::allocator<Vector2D> >::size, COMDAT
; _this$ = ecx

; 878  : 		{	// return length of sequence

	push	ebp
	mov	ebp, esp
	push	ecx
	mov	DWORD PTR [ebp-4], -858993460		; ccccccccH
	mov	DWORD PTR _this$[ebp], ecx

; 879  : 		return (this->_Mylast - this->_Myfirst);

	mov	eax, DWORD PTR _this$[ebp]
	mov	ecx, DWORD PTR _this$[ebp]
	mov	eax, DWORD PTR [eax+8]
	sub	eax, DWORD PTR [ecx+4]
	sar	eax, 4

; 880  : 		}

	mov	esp, ebp
	pop	ebp
	ret	0
?size@?$vector@UVector2D@@V?$allocator@UVector2D@@@std@@@std@@QBEIXZ ENDP ; std::vector<Vector2D,std::allocator<Vector2D> >::size
_TEXT	ENDS
PUBLIC	??_C@_1BO@MEPPHOO@?$AA?$CC?$AAo?$AAu?$AAt?$AA?5?$AAo?$AAf?$AA?5?$AAr?$AAa?$AAn?$AAg?$AAe?$AA?$CC?$AA?$AA@ ; `string'
PUBLIC	??_C@_1KC@ILGGEGM@?$AAs?$AAt?$AAd?$AA?3?$AA?3?$AAv?$AAe?$AAc?$AAt?$AAo?$AAr?$AA?$DM?$AAs?$AAt?$AAr?$AAu?$AAc?$AAt?$AA?5?$AAV?$AAe?$AAc?$AAt?$AAo?$AAr?$AA2?$AAD?$AA?0?$AAc?$AAl?$AAa?$AAs@ ; `string'
PUBLIC	??_C@_1FG@IBPIFFN@?$AA?$CC?$AAS?$AAt?$AAa?$AAn?$AAd?$AAa?$AAr?$AAd?$AA?5?$AAC?$AA?$CL?$AA?$CL?$AA?5?$AAL?$AAi?$AAb?$AAr?$AAa?$AAr?$AAi?$AAe?$AAs?$AA?5?$AAO?$AAu?$AAt?$AA?5?$AAo?$AAf?$AA?5?$AAR@ ; `string'
PUBLIC	??_C@_0CE@OFMIGAMM@Standard?5C?$CL?$CL?5Libraries?5Out?5of?5Ra@ ; `string'
PUBLIC	??_C@_1DM@LHGCHCBA@?$AAv?$AAe?$AAc?$AAt?$AAo?$AAr?$AA?5?$AAs?$AAu?$AAb?$AAs?$AAc?$AAr?$AAi?$AAp?$AAt?$AA?5?$AAo?$AAu?$AAt?$AA?5?$AAo?$AAf?$AA?5?$AAr?$AAa?$AAn?$AAg?$AAe?$AA?$AA@ ; `string'
PUBLIC	??_C@_1IM@MKOOKKBK@?$AAc?$AA?3?$AA?2?$AAP?$AAr?$AAo?$AAg?$AAr?$AAa?$AAm?$AA?5?$AAF?$AAi?$AAl?$AAe?$AAs?$AA?5?$AA?$CI?$AAx?$AA8?$AA6?$AA?$CJ?$AA?2?$AAM?$AAi?$AAc?$AAr?$AAo?$AAs?$AAo?$AAf?$AAt@ ; `string'
EXTRN	__invalid_parameter:PROC
EXTRN	__CrtDbgReportW:PROC
;	COMDAT ??_C@_1BO@MEPPHOO@?$AA?$CC?$AAo?$AAu?$AAt?$AA?5?$AAo?$AAf?$AA?5?$AAr?$AAa?$AAn?$AAg?$AAe?$AA?$CC?$AA?$AA@
CONST	SEGMENT
??_C@_1BO@MEPPHOO@?$AA?$CC?$AAo?$AAu?$AAt?$AA?5?$AAo?$AAf?$AA?5?$AAr?$AAa?$AAn?$AAg?$AAe?$AA?$CC?$AA?$AA@ DB '"'
	DB	00H, 'o', 00H, 'u', 00H, 't', 00H, ' ', 00H, 'o', 00H, 'f', 00H
	DB	' ', 00H, 'r', 00H, 'a', 00H, 'n', 00H, 'g', 00H, 'e', 00H, '"'
	DB	00H, 00H, 00H				; `string'
CONST	ENDS
;	COMDAT ??_C@_1KC@ILGGEGM@?$AAs?$AAt?$AAd?$AA?3?$AA?3?$AAv?$AAe?$AAc?$AAt?$AAo?$AAr?$AA?$DM?$AAs?$AAt?$AAr?$AAu?$AAc?$AAt?$AA?5?$AAV?$AAe?$AAc?$AAt?$AAo?$AAr?$AA2?$AAD?$AA?0?$AAc?$AAl?$AAa?$AAs@
CONST	SEGMENT
??_C@_1KC@ILGGEGM@?$AAs?$AAt?$AAd?$AA?3?$AA?3?$AAv?$AAe?$AAc?$AAt?$AAo?$AAr?$AA?$DM?$AAs?$AAt?$AAr?$AAu?$AAc?$AAt?$AA?5?$AAV?$AAe?$AAc?$AAt?$AAo?$AAr?$AA2?$AAD?$AA?0?$AAc?$AAl?$AAa?$AAs@ DB 's'
	DB	00H, 't', 00H, 'd', 00H, ':', 00H, ':', 00H, 'v', 00H, 'e', 00H
	DB	'c', 00H, 't', 00H, 'o', 00H, 'r', 00H, '<', 00H, 's', 00H, 't'
	DB	00H, 'r', 00H, 'u', 00H, 'c', 00H, 't', 00H, ' ', 00H, 'V', 00H
	DB	'e', 00H, 'c', 00H, 't', 00H, 'o', 00H, 'r', 00H, '2', 00H, 'D'
	DB	00H, ',', 00H, 'c', 00H, 'l', 00H, 'a', 00H, 's', 00H, 's', 00H
	DB	' ', 00H, 's', 00H, 't', 00H, 'd', 00H, ':', 00H, ':', 00H, 'a'
	DB	00H, 'l', 00H, 'l', 00H, 'o', 00H, 'c', 00H, 'a', 00H, 't', 00H
	DB	'o', 00H, 'r', 00H, '<', 00H, 's', 00H, 't', 00H, 'r', 00H, 'u'
	DB	00H, 'c', 00H, 't', 00H, ' ', 00H, 'V', 00H, 'e', 00H, 'c', 00H
	DB	't', 00H, 'o', 00H, 'r', 00H, '2', 00H, 'D', 00H, '>', 00H, ' '
	DB	00H, '>', 00H, ':', 00H, ':', 00H, 'o', 00H, 'p', 00H, 'e', 00H
	DB	'r', 00H, 'a', 00H, 't', 00H, 'o', 00H, 'r', 00H, ' ', 00H, '['
	DB	00H, ']', 00H, 00H, 00H			; `string'
CONST	ENDS
;	COMDAT ??_C@_1FG@IBPIFFN@?$AA?$CC?$AAS?$AAt?$AAa?$AAn?$AAd?$AAa?$AAr?$AAd?$AA?5?$AAC?$AA?$CL?$AA?$CL?$AA?5?$AAL?$AAi?$AAb?$AAr?$AAa?$AAr?$AAi?$AAe?$AAs?$AA?5?$AAO?$AAu?$AAt?$AA?5?$AAo?$AAf?$AA?5?$AAR@
CONST	SEGMENT
??_C@_1FG@IBPIFFN@?$AA?$CC?$AAS?$AAt?$AAa?$AAn?$AAd?$AAa?$AAr?$AAd?$AA?5?$AAC?$AA?$CL?$AA?$CL?$AA?5?$AAL?$AAi?$AAb?$AAr?$AAa?$AAr?$AAi?$AAe?$AAs?$AA?5?$AAO?$AAu?$AAt?$AA?5?$AAo?$AAf?$AA?5?$AAR@ DB '"'
	DB	00H, 'S', 00H, 't', 00H, 'a', 00H, 'n', 00H, 'd', 00H, 'a', 00H
	DB	'r', 00H, 'd', 00H, ' ', 00H, 'C', 00H, '+', 00H, '+', 00H, ' '
	DB	00H, 'L', 00H, 'i', 00H, 'b', 00H, 'r', 00H, 'a', 00H, 'r', 00H
	DB	'i', 00H, 'e', 00H, 's', 00H, ' ', 00H, 'O', 00H, 'u', 00H, 't'
	DB	00H, ' ', 00H, 'o', 00H, 'f', 00H, ' ', 00H, 'R', 00H, 'a', 00H
	DB	'n', 00H, 'g', 00H, 'e', 00H, '"', 00H, ' ', 00H, '&', 00H, '&'
	DB	00H, ' ', 00H, '0', 00H, 00H, 00H		; `string'
CONST	ENDS
;	COMDAT ??_C@_0CE@OFMIGAMM@Standard?5C?$CL?$CL?5Libraries?5Out?5of?5Ra@
CONST	SEGMENT
??_C@_0CE@OFMIGAMM@Standard?5C?$CL?$CL?5Libraries?5Out?5of?5Ra@ DB 'Stand'
	DB	'ard C++ Libraries Out of Range', 00H	; `string'
CONST	ENDS
;	COMDAT ??_C@_1DM@LHGCHCBA@?$AAv?$AAe?$AAc?$AAt?$AAo?$AAr?$AA?5?$AAs?$AAu?$AAb?$AAs?$AAc?$AAr?$AAi?$AAp?$AAt?$AA?5?$AAo?$AAu?$AAt?$AA?5?$AAo?$AAf?$AA?5?$AAr?$AAa?$AAn?$AAg?$AAe?$AA?$AA@
CONST	SEGMENT
??_C@_1DM@LHGCHCBA@?$AAv?$AAe?$AAc?$AAt?$AAo?$AAr?$AA?5?$AAs?$AAu?$AAb?$AAs?$AAc?$AAr?$AAi?$AAp?$AAt?$AA?5?$AAo?$AAu?$AAt?$AA?5?$AAo?$AAf?$AA?5?$AAr?$AAa?$AAn?$AAg?$AAe?$AA?$AA@ DB 'v'
	DB	00H, 'e', 00H, 'c', 00H, 't', 00H, 'o', 00H, 'r', 00H, ' ', 00H
	DB	's', 00H, 'u', 00H, 'b', 00H, 's', 00H, 'c', 00H, 'r', 00H, 'i'
	DB	00H, 'p', 00H, 't', 00H, ' ', 00H, 'o', 00H, 'u', 00H, 't', 00H
	DB	' ', 00H, 'o', 00H, 'f', 00H, ' ', 00H, 'r', 00H, 'a', 00H, 'n'
	DB	00H, 'g', 00H, 'e', 00H, 00H, 00H		; `string'
CONST	ENDS
;	COMDAT ??_C@_1IM@MKOOKKBK@?$AAc?$AA?3?$AA?2?$AAP?$AAr?$AAo?$AAg?$AAr?$AAa?$AAm?$AA?5?$AAF?$AAi?$AAl?$AAe?$AAs?$AA?5?$AA?$CI?$AAx?$AA8?$AA6?$AA?$CJ?$AA?2?$AAM?$AAi?$AAc?$AAr?$AAo?$AAs?$AAo?$AAf?$AAt@
CONST	SEGMENT
??_C@_1IM@MKOOKKBK@?$AAc?$AA?3?$AA?2?$AAP?$AAr?$AAo?$AAg?$AAr?$AAa?$AAm?$AA?5?$AAF?$AAi?$AAl?$AAe?$AAs?$AA?5?$AA?$CI?$AAx?$AA8?$AA6?$AA?$CJ?$AA?2?$AAM?$AAi?$AAc?$AAr?$AAo?$AAs?$AAo?$AAf?$AAt@ DB 'c'
	DB	00H, ':', 00H, '\', 00H, 'P', 00H, 'r', 00H, 'o', 00H, 'g', 00H
	DB	'r', 00H, 'a', 00H, 'm', 00H, ' ', 00H, 'F', 00H, 'i', 00H, 'l'
	DB	00H, 'e', 00H, 's', 00H, ' ', 00H, '(', 00H, 'x', 00H, '8', 00H
	DB	'6', 00H, ')', 00H, '\', 00H, 'M', 00H, 'i', 00H, 'c', 00H, 'r'
	DB	00H, 'o', 00H, 's', 00H, 'o', 00H, 'f', 00H, 't', 00H, ' ', 00H
	DB	'V', 00H, 'i', 00H, 's', 00H, 'u', 00H, 'a', 00H, 'l', 00H, ' '
	DB	00H, 'S', 00H, 't', 00H, 'u', 00H, 'd', 00H, 'i', 00H, 'o', 00H
	DB	' ', 00H, '1', 00H, '0', 00H, '.', 00H, '0', 00H, '\', 00H, 'V'
	DB	00H, 'C', 00H, '\', 00H, 'i', 00H, 'n', 00H, 'c', 00H, 'l', 00H
	DB	'u', 00H, 'd', 00H, 'e', 00H, '\', 00H, 'v', 00H, 'e', 00H, 'c'
	DB	00H, 't', 00H, 'o', 00H, 'r', 00H, 00H, 00H	; `string'
; Function compile flags: /Odtp /RTCsu
CONST	ENDS
;	COMDAT ??A?$vector@UVector2D@@V?$allocator@UVector2D@@@std@@@std@@QAEAAUVector2D@@I@Z
_TEXT	SEGMENT
_this$ = -4						; size = 4
__Pos$ = 8						; size = 4
??A?$vector@UVector2D@@V?$allocator@UVector2D@@@std@@@std@@QAEAAUVector2D@@I@Z PROC ; std::vector<Vector2D,std::allocator<Vector2D> >::operator[], COMDAT
; _this$ = ecx

; 928  : 		{	// subscript mutable sequence

	push	ebp
	mov	ebp, esp
	push	ecx
	mov	DWORD PTR [ebp-4], -858993460		; ccccccccH
	mov	DWORD PTR _this$[ebp], ecx

; 929  :  #if _ITERATOR_DEBUG_LEVEL == 2
; 930  : 		if (size() <= _Pos)

	mov	ecx, DWORD PTR _this$[ebp]
	call	?size@?$vector@UVector2D@@V?$allocator@UVector2D@@@std@@@std@@QBEIXZ ; std::vector<Vector2D,std::allocator<Vector2D> >::size
	cmp	eax, DWORD PTR __Pos$[ebp]
	ja	SHORT $LN1@operator@6

; 931  : 			{	// report error
; 932  : 			_DEBUG_ERROR("vector subscript out of range");

	push	932					; 000003a4H
	push	OFFSET ??_C@_1IM@MKOOKKBK@?$AAc?$AA?3?$AA?2?$AAP?$AAr?$AAo?$AAg?$AAr?$AAa?$AAm?$AA?5?$AAF?$AAi?$AAl?$AAe?$AAs?$AA?5?$AA?$CI?$AAx?$AA8?$AA6?$AA?$CJ?$AA?2?$AAM?$AAi?$AAc?$AAr?$AAo?$AAs?$AAo?$AAf?$AAt@
	push	OFFSET ??_C@_1DM@LHGCHCBA@?$AAv?$AAe?$AAc?$AAt?$AAo?$AAr?$AA?5?$AAs?$AAu?$AAb?$AAs?$AAc?$AAr?$AAi?$AAp?$AAt?$AA?5?$AAo?$AAu?$AAt?$AA?5?$AAo?$AAf?$AA?5?$AAr?$AAa?$AAn?$AAg?$AAe?$AA?$AA@
	call	?_Debug_message@std@@YAXPB_W0I@Z	; std::_Debug_message
	add	esp, 12					; 0000000cH

; 933  : 			_SCL_SECURE_OUT_OF_RANGE;

	mov	eax, OFFSET ??_C@_0CE@OFMIGAMM@Standard?5C?$CL?$CL?5Libraries?5Out?5of?5Ra@
	test	eax, eax
	je	SHORT $LN4@operator@6
	xor	ecx, ecx
	jne	SHORT $LN5@operator@6
$LN4@operator@6:
	push	OFFSET ??_C@_1FG@IBPIFFN@?$AA?$CC?$AAS?$AAt?$AAa?$AAn?$AAd?$AAa?$AAr?$AAd?$AA?5?$AAC?$AA?$CL?$AA?$CL?$AA?5?$AAL?$AAi?$AAb?$AAr?$AAa?$AAr?$AAi?$AAe?$AAs?$AA?5?$AAO?$AAu?$AAt?$AA?5?$AAo?$AAf?$AA?5?$AAR@
	push	0
	push	933					; 000003a5H
	push	OFFSET ??_C@_1IM@MKOOKKBK@?$AAc?$AA?3?$AA?2?$AAP?$AAr?$AAo?$AAg?$AAr?$AAa?$AAm?$AA?5?$AAF?$AAi?$AAl?$AAe?$AAs?$AA?5?$AA?$CI?$AAx?$AA8?$AA6?$AA?$CJ?$AA?2?$AAM?$AAi?$AAc?$AAr?$AAo?$AAs?$AAo?$AAf?$AAt@
	push	2
	call	__CrtDbgReportW
	add	esp, 20					; 00000014H
	cmp	eax, 1
	jne	SHORT $LN5@operator@6
	int	3
$LN5@operator@6:
	push	0
	push	933					; 000003a5H
	push	OFFSET ??_C@_1IM@MKOOKKBK@?$AAc?$AA?3?$AA?2?$AAP?$AAr?$AAo?$AAg?$AAr?$AAa?$AAm?$AA?5?$AAF?$AAi?$AAl?$AAe?$AAs?$AA?5?$AA?$CI?$AAx?$AA8?$AA6?$AA?$CJ?$AA?2?$AAM?$AAi?$AAc?$AAr?$AAo?$AAs?$AAo?$AAf?$AAt@
	push	OFFSET ??_C@_1KC@ILGGEGM@?$AAs?$AAt?$AAd?$AA?3?$AA?3?$AAv?$AAe?$AAc?$AAt?$AAo?$AAr?$AA?$DM?$AAs?$AAt?$AAr?$AAu?$AAc?$AAt?$AA?5?$AAV?$AAe?$AAc?$AAt?$AAo?$AAr?$AA2?$AAD?$AA?0?$AAc?$AAl?$AAa?$AAs@
	push	OFFSET ??_C@_1BO@MEPPHOO@?$AA?$CC?$AAo?$AAu?$AAt?$AA?5?$AAo?$AAf?$AA?5?$AAr?$AAa?$AAn?$AAg?$AAe?$AA?$CC?$AA?$AA@
	call	__invalid_parameter
	add	esp, 20					; 00000014H
$LN1@operator@6:

; 934  : 			}
; 935  : 
; 936  :  #elif _ITERATOR_DEBUG_LEVEL == 1
; 937  : 		_SCL_SECURE_VALIDATE_RANGE(_Pos < size());
; 938  :  #endif /* _ITERATOR_DEBUG_LEVEL */
; 939  : 
; 940  : 		return (*(this->_Myfirst + _Pos));

	mov	eax, DWORD PTR __Pos$[ebp]
	shl	eax, 4
	mov	ecx, DWORD PTR _this$[ebp]
	add	eax, DWORD PTR [ecx+4]

; 941  : 		}

	add	esp, 4
	cmp	ebp, esp
	call	__RTC_CheckEsp
	mov	esp, ebp
	pop	ebp
	ret	4
??A?$vector@UVector2D@@V?$allocator@UVector2D@@@std@@@std@@QAEAAUVector2D@@I@Z ENDP ; std::vector<Vector2D,std::allocator<Vector2D> >::operator[]
_TEXT	ENDS
PUBLIC	??0?$_List_const_iterator@V?$_List_val@PAVAbstRaven_Bot@@V?$allocator@PAVAbstRaven_Bot@@@std@@@std@@@std@@QAE@PAU_Node@?$_List_nod@PAVAbstRaven_Bot@@V?$allocator@PAVAbstRaven_Bot@@@std@@@1@PBV?$_List_val@PAVAbstRaven_Bot@@V?$allocator@PAVAbstRaven_Bot@@@std@@@1@@Z ; std::_List_const_iterator<std::_List_val<AbstRaven_Bot *,std::allocator<AbstRaven_Bot *> > >::_List_const_iterator<std::_List_val<AbstRaven_Bot *,std::allocator<AbstRaven_Bot *> > >
PUBLIC	?_Nextnode@?$_List_val@PAVAbstRaven_Bot@@V?$allocator@PAVAbstRaven_Bot@@@std@@@std@@SAAAPAU_Node@?$_List_nod@PAVAbstRaven_Bot@@V?$allocator@PAVAbstRaven_Bot@@@std@@@2@PAU342@@Z ; std::_List_val<AbstRaven_Bot *,std::allocator<AbstRaven_Bot *> >::_Nextnode
; Function compile flags: /Odtp /RTCsu
; File c:\program files (x86)\microsoft visual studio 10.0\vc\include\list
;	COMDAT ?begin@?$list@PAVAbstRaven_Bot@@V?$allocator@PAVAbstRaven_Bot@@@std@@@std@@QBE?AV?$_List_const_iterator@V?$_List_val@PAVAbstRaven_Bot@@V?$allocator@PAVAbstRaven_Bot@@@std@@@std@@@2@XZ
_TEXT	SEGMENT
$T146438 = -8						; size = 4
_this$ = -4						; size = 4
___$ReturnUdt$ = 8					; size = 4
?begin@?$list@PAVAbstRaven_Bot@@V?$allocator@PAVAbstRaven_Bot@@@std@@@std@@QBE?AV?$_List_const_iterator@V?$_List_val@PAVAbstRaven_Bot@@V?$allocator@PAVAbstRaven_Bot@@@std@@@std@@@2@XZ PROC ; std::list<AbstRaven_Bot *,std::allocator<AbstRaven_Bot *> >::begin, COMDAT
; _this$ = ecx

; 786  : 		{	// return iterator for beginning of nonmutable sequence

	push	ebp
	mov	ebp, esp
	sub	esp, 8
	mov	DWORD PTR [ebp-8], -858993460		; ccccccccH
	mov	DWORD PTR [ebp-4], -858993460		; ccccccccH
	mov	DWORD PTR _this$[ebp], ecx
	mov	DWORD PTR $T146438[ebp], 0

; 787  : 		return (const_iterator(this->_Nextnode(this->_Myhead), this));

	mov	eax, DWORD PTR _this$[ebp]
	push	eax
	mov	ecx, DWORD PTR _this$[ebp]
	mov	edx, DWORD PTR [ecx+4]
	push	edx
	call	?_Nextnode@?$_List_val@PAVAbstRaven_Bot@@V?$allocator@PAVAbstRaven_Bot@@@std@@@std@@SAAAPAU_Node@?$_List_nod@PAVAbstRaven_Bot@@V?$allocator@PAVAbstRaven_Bot@@@std@@@2@PAU342@@Z ; std::_List_val<AbstRaven_Bot *,std::allocator<AbstRaven_Bot *> >::_Nextnode
	add	esp, 4
	mov	eax, DWORD PTR [eax]
	push	eax
	mov	ecx, DWORD PTR ___$ReturnUdt$[ebp]
	call	??0?$_List_const_iterator@V?$_List_val@PAVAbstRaven_Bot@@V?$allocator@PAVAbstRaven_Bot@@@std@@@std@@@std@@QAE@PAU_Node@?$_List_nod@PAVAbstRaven_Bot@@V?$allocator@PAVAbstRaven_Bot@@@std@@@1@PBV?$_List_val@PAVAbstRaven_Bot@@V?$allocator@PAVAbstRaven_Bot@@@std@@@1@@Z ; std::_List_const_iterator<std::_List_val<AbstRaven_Bot *,std::allocator<AbstRaven_Bot *> > >::_List_const_iterator<std::_List_val<AbstRaven_Bot *,std::allocator<AbstRaven_Bot *> > >
	mov	ecx, DWORD PTR $T146438[ebp]
	or	ecx, 1
	mov	DWORD PTR $T146438[ebp], ecx
	mov	eax, DWORD PTR ___$ReturnUdt$[ebp]

; 788  : 		}

	add	esp, 8
	cmp	ebp, esp
	call	__RTC_CheckEsp
	mov	esp, ebp
	pop	ebp
	ret	4
?begin@?$list@PAVAbstRaven_Bot@@V?$allocator@PAVAbstRaven_Bot@@@std@@@std@@QBE?AV?$_List_const_iterator@V?$_List_val@PAVAbstRaven_Bot@@V?$allocator@PAVAbstRaven_Bot@@@std@@@std@@@2@XZ ENDP ; std::list<AbstRaven_Bot *,std::allocator<AbstRaven_Bot *> >::begin
; Function compile flags: /Odtp /RTCsu
_TEXT	ENDS
;	COMDAT ?end@?$list@PAVAbstRaven_Bot@@V?$allocator@PAVAbstRaven_Bot@@@std@@@std@@QBE?AV?$_List_const_iterator@V?$_List_val@PAVAbstRaven_Bot@@V?$allocator@PAVAbstRaven_Bot@@@std@@@std@@@2@XZ
_TEXT	SEGMENT
$T146443 = -8						; size = 4
_this$ = -4						; size = 4
___$ReturnUdt$ = 8					; size = 4
?end@?$list@PAVAbstRaven_Bot@@V?$allocator@PAVAbstRaven_Bot@@@std@@@std@@QBE?AV?$_List_const_iterator@V?$_List_val@PAVAbstRaven_Bot@@V?$allocator@PAVAbstRaven_Bot@@@std@@@std@@@2@XZ PROC ; std::list<AbstRaven_Bot *,std::allocator<AbstRaven_Bot *> >::end, COMDAT
; _this$ = ecx

; 796  : 		{	// return iterator for end of nonmutable sequence

	push	ebp
	mov	ebp, esp
	sub	esp, 8
	mov	DWORD PTR [ebp-8], -858993460		; ccccccccH
	mov	DWORD PTR [ebp-4], -858993460		; ccccccccH
	mov	DWORD PTR _this$[ebp], ecx
	mov	DWORD PTR $T146443[ebp], 0

; 797  : 		return (const_iterator(this->_Myhead, this));

	mov	eax, DWORD PTR _this$[ebp]
	push	eax
	mov	ecx, DWORD PTR _this$[ebp]
	mov	edx, DWORD PTR [ecx+4]
	push	edx
	mov	ecx, DWORD PTR ___$ReturnUdt$[ebp]
	call	??0?$_List_const_iterator@V?$_List_val@PAVAbstRaven_Bot@@V?$allocator@PAVAbstRaven_Bot@@@std@@@std@@@std@@QAE@PAU_Node@?$_List_nod@PAVAbstRaven_Bot@@V?$allocator@PAVAbstRaven_Bot@@@std@@@1@PBV?$_List_val@PAVAbstRaven_Bot@@V?$allocator@PAVAbstRaven_Bot@@@std@@@1@@Z ; std::_List_const_iterator<std::_List_val<AbstRaven_Bot *,std::allocator<AbstRaven_Bot *> > >::_List_const_iterator<std::_List_val<AbstRaven_Bot *,std::allocator<AbstRaven_Bot *> > >
	mov	eax, DWORD PTR $T146443[ebp]
	or	eax, 1
	mov	DWORD PTR $T146443[ebp], eax
	mov	eax, DWORD PTR ___$ReturnUdt$[ebp]

; 798  : 		}

	add	esp, 8
	cmp	ebp, esp
	call	__RTC_CheckEsp
	mov	esp, ebp
	pop	ebp
	ret	4
?end@?$list@PAVAbstRaven_Bot@@V?$allocator@PAVAbstRaven_Bot@@@std@@@std@@QBE?AV?$_List_const_iterator@V?$_List_val@PAVAbstRaven_Bot@@V?$allocator@PAVAbstRaven_Bot@@@std@@@std@@@2@XZ ENDP ; std::list<AbstRaven_Bot *,std::allocator<AbstRaven_Bot *> >::end
; Function compile flags: /Odtp /RTCsu
; File c:\program files (x86)\microsoft visual studio 10.0\vc\include\vector
_TEXT	ENDS
;	COMDAT ?size@?$vector@PAVWall2D@@V?$allocator@PAVWall2D@@@std@@@std@@QBEIXZ
_TEXT	SEGMENT
_this$ = -4						; size = 4
?size@?$vector@PAVWall2D@@V?$allocator@PAVWall2D@@@std@@@std@@QBEIXZ PROC ; std::vector<Wall2D *,std::allocator<Wall2D *> >::size, COMDAT
; _this$ = ecx

; 878  : 		{	// return length of sequence

	push	ebp
	mov	ebp, esp
	push	ecx
	mov	DWORD PTR [ebp-4], -858993460		; ccccccccH
	mov	DWORD PTR _this$[ebp], ecx

; 879  : 		return (this->_Mylast - this->_Myfirst);

	mov	eax, DWORD PTR _this$[ebp]
	mov	ecx, DWORD PTR _this$[ebp]
	mov	eax, DWORD PTR [eax+8]
	sub	eax, DWORD PTR [ecx+4]
	sar	eax, 2

; 880  : 		}

	mov	esp, ebp
	pop	ebp
	ret	0
?size@?$vector@PAVWall2D@@V?$allocator@PAVWall2D@@@std@@@std@@QBEIXZ ENDP ; std::vector<Wall2D *,std::allocator<Wall2D *> >::size
_TEXT	ENDS
PUBLIC	??_C@_1JO@KOMOHDBM@?$AAs?$AAt?$AAd?$AA?3?$AA?3?$AAv?$AAe?$AAc?$AAt?$AAo?$AAr?$AA?$DM?$AAc?$AAl?$AAa?$AAs?$AAs?$AA?5?$AAW?$AAa?$AAl?$AAl?$AA2?$AAD?$AA?5?$AA?$CK?$AA?0?$AAc?$AAl?$AAa?$AAs?$AAs@ ; `string'
;	COMDAT ??_C@_1JO@KOMOHDBM@?$AAs?$AAt?$AAd?$AA?3?$AA?3?$AAv?$AAe?$AAc?$AAt?$AAo?$AAr?$AA?$DM?$AAc?$AAl?$AAa?$AAs?$AAs?$AA?5?$AAW?$AAa?$AAl?$AAl?$AA2?$AAD?$AA?5?$AA?$CK?$AA?0?$AAc?$AAl?$AAa?$AAs?$AAs@
CONST	SEGMENT
??_C@_1JO@KOMOHDBM@?$AAs?$AAt?$AAd?$AA?3?$AA?3?$AAv?$AAe?$AAc?$AAt?$AAo?$AAr?$AA?$DM?$AAc?$AAl?$AAa?$AAs?$AAs?$AA?5?$AAW?$AAa?$AAl?$AAl?$AA2?$AAD?$AA?5?$AA?$CK?$AA?0?$AAc?$AAl?$AAa?$AAs?$AAs@ DB 's'
	DB	00H, 't', 00H, 'd', 00H, ':', 00H, ':', 00H, 'v', 00H, 'e', 00H
	DB	'c', 00H, 't', 00H, 'o', 00H, 'r', 00H, '<', 00H, 'c', 00H, 'l'
	DB	00H, 'a', 00H, 's', 00H, 's', 00H, ' ', 00H, 'W', 00H, 'a', 00H
	DB	'l', 00H, 'l', 00H, '2', 00H, 'D', 00H, ' ', 00H, '*', 00H, ','
	DB	00H, 'c', 00H, 'l', 00H, 'a', 00H, 's', 00H, 's', 00H, ' ', 00H
	DB	's', 00H, 't', 00H, 'd', 00H, ':', 00H, ':', 00H, 'a', 00H, 'l'
	DB	00H, 'l', 00H, 'o', 00H, 'c', 00H, 'a', 00H, 't', 00H, 'o', 00H
	DB	'r', 00H, '<', 00H, 'c', 00H, 'l', 00H, 'a', 00H, 's', 00H, 's'
	DB	00H, ' ', 00H, 'W', 00H, 'a', 00H, 'l', 00H, 'l', 00H, '2', 00H
	DB	'D', 00H, ' ', 00H, '*', 00H, '>', 00H, ' ', 00H, '>', 00H, ':'
	DB	00H, ':', 00H, 'o', 00H, 'p', 00H, 'e', 00H, 'r', 00H, 'a', 00H
	DB	't', 00H, 'o', 00H, 'r', 00H, ' ', 00H, '[', 00H, ']', 00H, 00H
	DB	00H						; `string'
; Function compile flags: /Odtp /RTCsu
CONST	ENDS
;	COMDAT ??A?$vector@PAVWall2D@@V?$allocator@PAVWall2D@@@std@@@std@@QBEABQAVWall2D@@I@Z
_TEXT	SEGMENT
_this$ = -4						; size = 4
__Pos$ = 8						; size = 4
??A?$vector@PAVWall2D@@V?$allocator@PAVWall2D@@@std@@@std@@QBEABQAVWall2D@@I@Z PROC ; std::vector<Wall2D *,std::allocator<Wall2D *> >::operator[], COMDAT
; _this$ = ecx

; 912  : 		{	// subscript nonmutable sequence

	push	ebp
	mov	ebp, esp
	push	ecx
	mov	DWORD PTR [ebp-4], -858993460		; ccccccccH
	mov	DWORD PTR _this$[ebp], ecx

; 913  :  #if _ITERATOR_DEBUG_LEVEL == 2
; 914  : 		if (size() <= _Pos)

	mov	ecx, DWORD PTR _this$[ebp]
	call	?size@?$vector@PAVWall2D@@V?$allocator@PAVWall2D@@@std@@@std@@QBEIXZ ; std::vector<Wall2D *,std::allocator<Wall2D *> >::size
	cmp	eax, DWORD PTR __Pos$[ebp]
	ja	SHORT $LN1@operator@7

; 915  : 			{	// report error
; 916  : 			_DEBUG_ERROR("vector subscript out of range");

	push	916					; 00000394H
	push	OFFSET ??_C@_1IM@MKOOKKBK@?$AAc?$AA?3?$AA?2?$AAP?$AAr?$AAo?$AAg?$AAr?$AAa?$AAm?$AA?5?$AAF?$AAi?$AAl?$AAe?$AAs?$AA?5?$AA?$CI?$AAx?$AA8?$AA6?$AA?$CJ?$AA?2?$AAM?$AAi?$AAc?$AAr?$AAo?$AAs?$AAo?$AAf?$AAt@
	push	OFFSET ??_C@_1DM@LHGCHCBA@?$AAv?$AAe?$AAc?$AAt?$AAo?$AAr?$AA?5?$AAs?$AAu?$AAb?$AAs?$AAc?$AAr?$AAi?$AAp?$AAt?$AA?5?$AAo?$AAu?$AAt?$AA?5?$AAo?$AAf?$AA?5?$AAr?$AAa?$AAn?$AAg?$AAe?$AA?$AA@
	call	?_Debug_message@std@@YAXPB_W0I@Z	; std::_Debug_message
	add	esp, 12					; 0000000cH

; 917  : 			_SCL_SECURE_OUT_OF_RANGE;

	mov	eax, OFFSET ??_C@_0CE@OFMIGAMM@Standard?5C?$CL?$CL?5Libraries?5Out?5of?5Ra@
	test	eax, eax
	je	SHORT $LN4@operator@7
	xor	ecx, ecx
	jne	SHORT $LN5@operator@7
$LN4@operator@7:
	push	OFFSET ??_C@_1FG@IBPIFFN@?$AA?$CC?$AAS?$AAt?$AAa?$AAn?$AAd?$AAa?$AAr?$AAd?$AA?5?$AAC?$AA?$CL?$AA?$CL?$AA?5?$AAL?$AAi?$AAb?$AAr?$AAa?$AAr?$AAi?$AAe?$AAs?$AA?5?$AAO?$AAu?$AAt?$AA?5?$AAo?$AAf?$AA?5?$AAR@
	push	0
	push	917					; 00000395H
	push	OFFSET ??_C@_1IM@MKOOKKBK@?$AAc?$AA?3?$AA?2?$AAP?$AAr?$AAo?$AAg?$AAr?$AAa?$AAm?$AA?5?$AAF?$AAi?$AAl?$AAe?$AAs?$AA?5?$AA?$CI?$AAx?$AA8?$AA6?$AA?$CJ?$AA?2?$AAM?$AAi?$AAc?$AAr?$AAo?$AAs?$AAo?$AAf?$AAt@
	push	2
	call	__CrtDbgReportW
	add	esp, 20					; 00000014H
	cmp	eax, 1
	jne	SHORT $LN5@operator@7
	int	3
$LN5@operator@7:
	push	0
	push	917					; 00000395H
	push	OFFSET ??_C@_1IM@MKOOKKBK@?$AAc?$AA?3?$AA?2?$AAP?$AAr?$AAo?$AAg?$AAr?$AAa?$AAm?$AA?5?$AAF?$AAi?$AAl?$AAe?$AAs?$AA?5?$AA?$CI?$AAx?$AA8?$AA6?$AA?$CJ?$AA?2?$AAM?$AAi?$AAc?$AAr?$AAo?$AAs?$AAo?$AAf?$AAt@
	push	OFFSET ??_C@_1JO@KOMOHDBM@?$AAs?$AAt?$AAd?$AA?3?$AA?3?$AAv?$AAe?$AAc?$AAt?$AAo?$AAr?$AA?$DM?$AAc?$AAl?$AAa?$AAs?$AAs?$AA?5?$AAW?$AAa?$AAl?$AAl?$AA2?$AAD?$AA?5?$AA?$CK?$AA?0?$AAc?$AAl?$AAa?$AAs?$AAs@
	push	OFFSET ??_C@_1BO@MEPPHOO@?$AA?$CC?$AAo?$AAu?$AAt?$AA?5?$AAo?$AAf?$AA?5?$AAr?$AAa?$AAn?$AAg?$AAe?$AA?$CC?$AA?$AA@
	call	__invalid_parameter
	add	esp, 20					; 00000014H
$LN1@operator@7:

; 918  : 			}
; 919  : 
; 920  :  #elif _ITERATOR_DEBUG_LEVEL == 1
; 921  : 		_SCL_SECURE_VALIDATE_RANGE(_Pos < size());
; 922  :  #endif /* _ITERATOR_DEBUG_LEVEL */
; 923  : 
; 924  : 		return (*(this->_Myfirst + _Pos));

	mov	eax, DWORD PTR _this$[ebp]
	mov	ecx, DWORD PTR [eax+4]
	mov	edx, DWORD PTR __Pos$[ebp]
	lea	eax, DWORD PTR [ecx+edx*4]

; 925  : 		}

	add	esp, 4
	cmp	ebp, esp
	call	__RTC_CheckEsp
	mov	esp, ebp
	pop	ebp
	ret	4
??A?$vector@PAVWall2D@@V?$allocator@PAVWall2D@@@std@@@std@@QBEABQAVWall2D@@I@Z ENDP ; std::vector<Wall2D *,std::allocator<Wall2D *> >::operator[]
_TEXT	ENDS
PUBLIC	?_Myval@?$_List_val@PAVAbstRaven_Bot@@V?$allocator@PAVAbstRaven_Bot@@@std@@@std@@SAAAPAVAbstRaven_Bot@@PAU_Node@?$_List_nod@PAVAbstRaven_Bot@@V?$allocator@PAVAbstRaven_Bot@@@std@@@2@@Z ; std::_List_val<AbstRaven_Bot *,std::allocator<AbstRaven_Bot *> >::_Myval
PUBLIC	??_C@_1BAC@LPCGLNFD@?$AAs?$AAt?$AAd?$AA?3?$AA?3?$AA_?$AAL?$AAi?$AAs?$AAt?$AA_?$AAc?$AAo?$AAn?$AAs?$AAt?$AA_?$AAi?$AAt?$AAe?$AAr?$AAa?$AAt?$AAo?$AAr?$AA?$DM?$AAc?$AAl?$AAa?$AAs?$AAs?$AA?5@ ; `string'
PUBLIC	??_C@_1EC@HILJLMMC@?$AAl?$AAi?$AAs?$AAt?$AA?5?$AAi?$AAt?$AAe?$AAr?$AAa?$AAt?$AAo?$AAr?$AA?5?$AAn?$AAo?$AAt?$AA?5?$AAd?$AAe?$AAr?$AAe?$AAf?$AAe?$AAr?$AAe?$AAn?$AAc?$AAa?$AAb?$AAl?$AAe@ ; `string'
PUBLIC	??_C@_1II@KCMIDAEO@?$AAc?$AA?3?$AA?2?$AAP?$AAr?$AAo?$AAg?$AAr?$AAa?$AAm?$AA?5?$AAF?$AAi?$AAl?$AAe?$AAs?$AA?5?$AA?$CI?$AAx?$AA8?$AA6?$AA?$CJ?$AA?2?$AAM?$AAi?$AAc?$AAr?$AAo?$AAs?$AAo?$AAf?$AAt@ ; `string'
PUBLIC	?_Getcont@_Iterator_base12@std@@QBEPBU_Container_base12@2@XZ ; std::_Iterator_base12::_Getcont
;	COMDAT ??_C@_1BAC@LPCGLNFD@?$AAs?$AAt?$AAd?$AA?3?$AA?3?$AA_?$AAL?$AAi?$AAs?$AAt?$AA_?$AAc?$AAo?$AAn?$AAs?$AAt?$AA_?$AAi?$AAt?$AAe?$AAr?$AAa?$AAt?$AAo?$AAr?$AA?$DM?$AAc?$AAl?$AAa?$AAs?$AAs?$AA?5@
; File c:\program files (x86)\microsoft visual studio 10.0\vc\include\list
CONST	SEGMENT
??_C@_1BAC@LPCGLNFD@?$AAs?$AAt?$AAd?$AA?3?$AA?3?$AA_?$AAL?$AAi?$AAs?$AAt?$AA_?$AAc?$AAo?$AAn?$AAs?$AAt?$AA_?$AAi?$AAt?$AAe?$AAr?$AAa?$AAt?$AAo?$AAr?$AA?$DM?$AAc?$AAl?$AAa?$AAs?$AAs?$AA?5@ DB 's'
	DB	00H, 't', 00H, 'd', 00H, ':', 00H, ':', 00H, '_', 00H, 'L', 00H
	DB	'i', 00H, 's', 00H, 't', 00H, '_', 00H, 'c', 00H, 'o', 00H, 'n'
	DB	00H, 's', 00H, 't', 00H, '_', 00H, 'i', 00H, 't', 00H, 'e', 00H
	DB	'r', 00H, 'a', 00H, 't', 00H, 'o', 00H, 'r', 00H, '<', 00H, 'c'
	DB	00H, 'l', 00H, 'a', 00H, 's', 00H, 's', 00H, ' ', 00H, 's', 00H
	DB	't', 00H, 'd', 00H, ':', 00H, ':', 00H, '_', 00H, 'L', 00H, 'i'
	DB	00H, 's', 00H, 't', 00H, '_', 00H, 'v', 00H, 'a', 00H, 'l', 00H
	DB	'<', 00H, 'c', 00H, 'l', 00H, 'a', 00H, 's', 00H, 's', 00H, ' '
	DB	00H, 'A', 00H, 'b', 00H, 's', 00H, 't', 00H, 'R', 00H, 'a', 00H
	DB	'v', 00H, 'e', 00H, 'n', 00H, '_', 00H, 'B', 00H, 'o', 00H, 't'
	DB	00H, ' ', 00H, '*', 00H, ',', 00H, 'c', 00H, 'l', 00H, 'a', 00H
	DB	's', 00H, 's', 00H, ' ', 00H, 's', 00H, 't', 00H, 'd', 00H, ':'
	DB	00H, ':', 00H, 'a', 00H, 'l', 00H, 'l', 00H, 'o', 00H, 'c', 00H
	DB	'a', 00H, 't', 00H, 'o', 00H, 'r', 00H, '<', 00H, 'c', 00H, 'l'
	DB	00H, 'a', 00H, 's', 00H, 's', 00H, ' ', 00H, 'A', 00H, 'b', 00H
	DB	's', 00H, 't', 00H, 'R', 00H, 'a', 00H, 'v', 00H, 'e', 00H, 'n'
	DB	00H, '_', 00H, 'B', 00H, 'o', 00H, 't', 00H, ' ', 00H, '*', 00H
	DB	'>', 00H, ' ', 00H, '>', 00H, ' ', 00H, '>', 00H, ':', 00H, ':'
	DB	00H, 'o', 00H, 'p', 00H, 'e', 00H, 'r', 00H, 'a', 00H, 't', 00H
	DB	'o', 00H, 'r', 00H, ' ', 00H, '*', 00H, 00H, 00H ; `string'
CONST	ENDS
;	COMDAT ??_C@_1EC@HILJLMMC@?$AAl?$AAi?$AAs?$AAt?$AA?5?$AAi?$AAt?$AAe?$AAr?$AAa?$AAt?$AAo?$AAr?$AA?5?$AAn?$AAo?$AAt?$AA?5?$AAd?$AAe?$AAr?$AAe?$AAf?$AAe?$AAr?$AAe?$AAn?$AAc?$AAa?$AAb?$AAl?$AAe@
CONST	SEGMENT
??_C@_1EC@HILJLMMC@?$AAl?$AAi?$AAs?$AAt?$AA?5?$AAi?$AAt?$AAe?$AAr?$AAa?$AAt?$AAo?$AAr?$AA?5?$AAn?$AAo?$AAt?$AA?5?$AAd?$AAe?$AAr?$AAe?$AAf?$AAe?$AAr?$AAe?$AAn?$AAc?$AAa?$AAb?$AAl?$AAe@ DB 'l'
	DB	00H, 'i', 00H, 's', 00H, 't', 00H, ' ', 00H, 'i', 00H, 't', 00H
	DB	'e', 00H, 'r', 00H, 'a', 00H, 't', 00H, 'o', 00H, 'r', 00H, ' '
	DB	00H, 'n', 00H, 'o', 00H, 't', 00H, ' ', 00H, 'd', 00H, 'e', 00H
	DB	'r', 00H, 'e', 00H, 'f', 00H, 'e', 00H, 'r', 00H, 'e', 00H, 'n'
	DB	00H, 'c', 00H, 'a', 00H, 'b', 00H, 'l', 00H, 'e', 00H, 00H, 00H ; `string'
CONST	ENDS
;	COMDAT ??_C@_1II@KCMIDAEO@?$AAc?$AA?3?$AA?2?$AAP?$AAr?$AAo?$AAg?$AAr?$AAa?$AAm?$AA?5?$AAF?$AAi?$AAl?$AAe?$AAs?$AA?5?$AA?$CI?$AAx?$AA8?$AA6?$AA?$CJ?$AA?2?$AAM?$AAi?$AAc?$AAr?$AAo?$AAs?$AAo?$AAf?$AAt@
CONST	SEGMENT
??_C@_1II@KCMIDAEO@?$AAc?$AA?3?$AA?2?$AAP?$AAr?$AAo?$AAg?$AAr?$AAa?$AAm?$AA?5?$AAF?$AAi?$AAl?$AAe?$AAs?$AA?5?$AA?$CI?$AAx?$AA8?$AA6?$AA?$CJ?$AA?2?$AAM?$AAi?$AAc?$AAr?$AAo?$AAs?$AAo?$AAf?$AAt@ DB 'c'
	DB	00H, ':', 00H, '\', 00H, 'P', 00H, 'r', 00H, 'o', 00H, 'g', 00H
	DB	'r', 00H, 'a', 00H, 'm', 00H, ' ', 00H, 'F', 00H, 'i', 00H, 'l'
	DB	00H, 'e', 00H, 's', 00H, ' ', 00H, '(', 00H, 'x', 00H, '8', 00H
	DB	'6', 00H, ')', 00H, '\', 00H, 'M', 00H, 'i', 00H, 'c', 00H, 'r'
	DB	00H, 'o', 00H, 's', 00H, 'o', 00H, 'f', 00H, 't', 00H, ' ', 00H
	DB	'V', 00H, 'i', 00H, 's', 00H, 'u', 00H, 'a', 00H, 'l', 00H, ' '
	DB	00H, 'S', 00H, 't', 00H, 'u', 00H, 'd', 00H, 'i', 00H, 'o', 00H
	DB	' ', 00H, '1', 00H, '0', 00H, '.', 00H, '0', 00H, '\', 00H, 'V'
	DB	00H, 'C', 00H, '\', 00H, 'i', 00H, 'n', 00H, 'c', 00H, 'l', 00H
	DB	'u', 00H, 'd', 00H, 'e', 00H, '\', 00H, 'l', 00H, 'i', 00H, 's'
	DB	00H, 't', 00H, 00H, 00H			; `string'
; Function compile flags: /Odtp /RTCsu
CONST	ENDS
;	COMDAT ??D?$_List_const_iterator@V?$_List_val@PAVAbstRaven_Bot@@V?$allocator@PAVAbstRaven_Bot@@@std@@@std@@@std@@QBEABQAVAbstRaven_Bot@@XZ
_TEXT	SEGMENT
_this$ = -4						; size = 4
??D?$_List_const_iterator@V?$_List_val@PAVAbstRaven_Bot@@V?$allocator@PAVAbstRaven_Bot@@@std@@@std@@@std@@QBEABQAVAbstRaven_Bot@@XZ PROC ; std::_List_const_iterator<std::_List_val<AbstRaven_Bot *,std::allocator<AbstRaven_Bot *> > >::operator*, COMDAT
; _this$ = ecx

; 201  : 		{	// return designated value

	push	ebp
	mov	ebp, esp
	push	ecx
	mov	DWORD PTR [ebp-4], -858993460		; ccccccccH
	mov	DWORD PTR _this$[ebp], ecx

; 202  :  #if _ITERATOR_DEBUG_LEVEL == 2
; 203  : 		if (this->_Getcont() == 0
; 204  : 			|| this->_Ptr == 0
; 205  : 			|| this->_Ptr == ((_Mylist *)this->_Getcont())->_Myhead)

	mov	ecx, DWORD PTR _this$[ebp]
	call	?_Getcont@_Iterator_base12@std@@QBEPBU_Container_base12@2@XZ ; std::_Iterator_base12::_Getcont
	test	eax, eax
	je	SHORT $LN1@operator@8
	mov	eax, DWORD PTR _this$[ebp]
	cmp	DWORD PTR [eax+8], 0
	je	SHORT $LN1@operator@8
	mov	ecx, DWORD PTR _this$[ebp]
	call	?_Getcont@_Iterator_base12@std@@QBEPBU_Container_base12@2@XZ ; std::_Iterator_base12::_Getcont
	mov	ecx, DWORD PTR _this$[ebp]
	mov	edx, DWORD PTR [ecx+8]
	cmp	edx, DWORD PTR [eax+4]
	jne	SHORT $LN2@operator@8
$LN1@operator@8:

; 206  : 			{	// report error
; 207  : 			_DEBUG_ERROR("list iterator not dereferencable");

	push	207					; 000000cfH
	push	OFFSET ??_C@_1II@KCMIDAEO@?$AAc?$AA?3?$AA?2?$AAP?$AAr?$AAo?$AAg?$AAr?$AAa?$AAm?$AA?5?$AAF?$AAi?$AAl?$AAe?$AAs?$AA?5?$AA?$CI?$AAx?$AA8?$AA6?$AA?$CJ?$AA?2?$AAM?$AAi?$AAc?$AAr?$AAo?$AAs?$AAo?$AAf?$AAt@
	push	OFFSET ??_C@_1EC@HILJLMMC@?$AAl?$AAi?$AAs?$AAt?$AA?5?$AAi?$AAt?$AAe?$AAr?$AAa?$AAt?$AAo?$AAr?$AA?5?$AAn?$AAo?$AAt?$AA?5?$AAd?$AAe?$AAr?$AAe?$AAf?$AAe?$AAr?$AAe?$AAn?$AAc?$AAa?$AAb?$AAl?$AAe@
	call	?_Debug_message@std@@YAXPB_W0I@Z	; std::_Debug_message
	add	esp, 12					; 0000000cH

; 208  : 			_SCL_SECURE_OUT_OF_RANGE;

	mov	eax, OFFSET ??_C@_0CE@OFMIGAMM@Standard?5C?$CL?$CL?5Libraries?5Out?5of?5Ra@
	test	eax, eax
	je	SHORT $LN5@operator@8
	xor	ecx, ecx
	jne	SHORT $LN6@operator@8
$LN5@operator@8:
	push	OFFSET ??_C@_1FG@IBPIFFN@?$AA?$CC?$AAS?$AAt?$AAa?$AAn?$AAd?$AAa?$AAr?$AAd?$AA?5?$AAC?$AA?$CL?$AA?$CL?$AA?5?$AAL?$AAi?$AAb?$AAr?$AAa?$AAr?$AAi?$AAe?$AAs?$AA?5?$AAO?$AAu?$AAt?$AA?5?$AAo?$AAf?$AA?5?$AAR@
	push	0
	push	208					; 000000d0H
	push	OFFSET ??_C@_1II@KCMIDAEO@?$AAc?$AA?3?$AA?2?$AAP?$AAr?$AAo?$AAg?$AAr?$AAa?$AAm?$AA?5?$AAF?$AAi?$AAl?$AAe?$AAs?$AA?5?$AA?$CI?$AAx?$AA8?$AA6?$AA?$CJ?$AA?2?$AAM?$AAi?$AAc?$AAr?$AAo?$AAs?$AAo?$AAf?$AAt@
	push	2
	call	__CrtDbgReportW
	add	esp, 20					; 00000014H
	cmp	eax, 1
	jne	SHORT $LN6@operator@8
	int	3
$LN6@operator@8:
	push	0
	push	208					; 000000d0H
	push	OFFSET ??_C@_1II@KCMIDAEO@?$AAc?$AA?3?$AA?2?$AAP?$AAr?$AAo?$AAg?$AAr?$AAa?$AAm?$AA?5?$AAF?$AAi?$AAl?$AAe?$AAs?$AA?5?$AA?$CI?$AAx?$AA8?$AA6?$AA?$CJ?$AA?2?$AAM?$AAi?$AAc?$AAr?$AAo?$AAs?$AAo?$AAf?$AAt@
	push	OFFSET ??_C@_1BAC@LPCGLNFD@?$AAs?$AAt?$AAd?$AA?3?$AA?3?$AA_?$AAL?$AAi?$AAs?$AAt?$AA_?$AAc?$AAo?$AAn?$AAs?$AAt?$AA_?$AAi?$AAt?$AAe?$AAr?$AAa?$AAt?$AAo?$AAr?$AA?$DM?$AAc?$AAl?$AAa?$AAs?$AAs?$AA?5@
	push	OFFSET ??_C@_1BO@MEPPHOO@?$AA?$CC?$AAo?$AAu?$AAt?$AA?5?$AAo?$AAf?$AA?5?$AAr?$AAa?$AAn?$AAg?$AAe?$AA?$CC?$AA?$AA@
	call	__invalid_parameter
	add	esp, 20					; 00000014H
$LN2@operator@8:

; 209  : 			}
; 210  : 
; 211  :  #elif _ITERATOR_DEBUG_LEVEL == 1
; 212  : 		_SCL_SECURE_VALIDATE(this->_Getcont() != 0 && this->_Ptr != 0);
; 213  : 		_SCL_SECURE_VALIDATE_RANGE(this->_Ptr !=
; 214  : 			((_Mylist *)this->_Getcont())->_Myhead);
; 215  :  #endif /* _ITERATOR_DEBUG_LEVEL */
; 216  : 
; 217  : 		return (_Mylist::_Myval(this->_Ptr));

	mov	eax, DWORD PTR _this$[ebp]
	mov	ecx, DWORD PTR [eax+8]
	push	ecx
	call	?_Myval@?$_List_val@PAVAbstRaven_Bot@@V?$allocator@PAVAbstRaven_Bot@@@std@@@std@@SAAAPAVAbstRaven_Bot@@PAU_Node@?$_List_nod@PAVAbstRaven_Bot@@V?$allocator@PAVAbstRaven_Bot@@@std@@@2@@Z ; std::_List_val<AbstRaven_Bot *,std::allocator<AbstRaven_Bot *> >::_Myval
	add	esp, 4

; 218  : 		}

	add	esp, 4
	cmp	ebp, esp
	call	__RTC_CheckEsp
	mov	esp, ebp
	pop	ebp
	ret	0
??D?$_List_const_iterator@V?$_List_val@PAVAbstRaven_Bot@@V?$allocator@PAVAbstRaven_Bot@@@std@@@std@@@std@@QBEABQAVAbstRaven_Bot@@XZ ENDP ; std::_List_const_iterator<std::_List_val<AbstRaven_Bot *,std::allocator<AbstRaven_Bot *> > >::operator*
; Function compile flags: /Odtp /RTCsu
; File c:\program files (x86)\microsoft visual studio 10.0\vc\include\xutility
_TEXT	ENDS
;	COMDAT ?_Getcont@_Iterator_base12@std@@QBEPBU_Container_base12@2@XZ
_TEXT	SEGMENT
tv66 = -8						; size = 4
_this$ = -4						; size = 4
?_Getcont@_Iterator_base12@std@@QBEPBU_Container_base12@2@XZ PROC ; std::_Iterator_base12::_Getcont, COMDAT
; _this$ = ecx

; 174  : 		{	// get owning container

	push	ebp
	mov	ebp, esp
	sub	esp, 8
	mov	DWORD PTR [ebp-8], -858993460		; ccccccccH
	mov	DWORD PTR [ebp-4], -858993460		; ccccccccH
	mov	DWORD PTR _this$[ebp], ecx

; 175  : 		return (_Myproxy == 0 ? 0 : _Myproxy->_Mycont);

	mov	eax, DWORD PTR _this$[ebp]
	cmp	DWORD PTR [eax], 0
	jne	SHORT $LN3@Getcont
	mov	DWORD PTR tv66[ebp], 0
	jmp	SHORT $LN4@Getcont
$LN3@Getcont:
	mov	ecx, DWORD PTR _this$[ebp]
	mov	edx, DWORD PTR [ecx]
	mov	eax, DWORD PTR [edx]
	mov	DWORD PTR tv66[ebp], eax
$LN4@Getcont:
	mov	eax, DWORD PTR tv66[ebp]

; 176  : 		}

	mov	esp, ebp
	pop	ebp
	ret	0
?_Getcont@_Iterator_base12@std@@QBEPBU_Container_base12@2@XZ ENDP ; std::_Iterator_base12::_Getcont
_TEXT	ENDS
PUBLIC	??_C@_1BAE@JICJIFBK@?$AAs?$AAt?$AAd?$AA?3?$AA?3?$AA_?$AAL?$AAi?$AAs?$AAt?$AA_?$AAc?$AAo?$AAn?$AAs?$AAt?$AA_?$AAi?$AAt?$AAe?$AAr?$AAa?$AAt?$AAo?$AAr?$AA?$DM?$AAc?$AAl?$AAa?$AAs?$AAs?$AA?5@ ; `string'
PUBLIC	??_C@_1EA@DOGAGKDH@?$AAl?$AAi?$AAs?$AAt?$AA?5?$AAi?$AAt?$AAe?$AAr?$AAa?$AAt?$AAo?$AAr?$AA?5?$AAn?$AAo?$AAt?$AA?5?$AAi?$AAn?$AAc?$AAr?$AAe?$AAm?$AAe?$AAn?$AAt?$AAa?$AAb?$AAl?$AAe?$AA?$AA@ ; `string'
;	COMDAT ??_C@_1BAE@JICJIFBK@?$AAs?$AAt?$AAd?$AA?3?$AA?3?$AA_?$AAL?$AAi?$AAs?$AAt?$AA_?$AAc?$AAo?$AAn?$AAs?$AAt?$AA_?$AAi?$AAt?$AAe?$AAr?$AAa?$AAt?$AAo?$AAr?$AA?$DM?$AAc?$AAl?$AAa?$AAs?$AAs?$AA?5@
; File c:\program files (x86)\microsoft visual studio 10.0\vc\include\list
CONST	SEGMENT
??_C@_1BAE@JICJIFBK@?$AAs?$AAt?$AAd?$AA?3?$AA?3?$AA_?$AAL?$AAi?$AAs?$AAt?$AA_?$AAc?$AAo?$AAn?$AAs?$AAt?$AA_?$AAi?$AAt?$AAe?$AAr?$AAa?$AAt?$AAo?$AAr?$AA?$DM?$AAc?$AAl?$AAa?$AAs?$AAs?$AA?5@ DB 's'
	DB	00H, 't', 00H, 'd', 00H, ':', 00H, ':', 00H, '_', 00H, 'L', 00H
	DB	'i', 00H, 's', 00H, 't', 00H, '_', 00H, 'c', 00H, 'o', 00H, 'n'
	DB	00H, 's', 00H, 't', 00H, '_', 00H, 'i', 00H, 't', 00H, 'e', 00H
	DB	'r', 00H, 'a', 00H, 't', 00H, 'o', 00H, 'r', 00H, '<', 00H, 'c'
	DB	00H, 'l', 00H, 'a', 00H, 's', 00H, 's', 00H, ' ', 00H, 's', 00H
	DB	't', 00H, 'd', 00H, ':', 00H, ':', 00H, '_', 00H, 'L', 00H, 'i'
	DB	00H, 's', 00H, 't', 00H, '_', 00H, 'v', 00H, 'a', 00H, 'l', 00H
	DB	'<', 00H, 'c', 00H, 'l', 00H, 'a', 00H, 's', 00H, 's', 00H, ' '
	DB	00H, 'A', 00H, 'b', 00H, 's', 00H, 't', 00H, 'R', 00H, 'a', 00H
	DB	'v', 00H, 'e', 00H, 'n', 00H, '_', 00H, 'B', 00H, 'o', 00H, 't'
	DB	00H, ' ', 00H, '*', 00H, ',', 00H, 'c', 00H, 'l', 00H, 'a', 00H
	DB	's', 00H, 's', 00H, ' ', 00H, 's', 00H, 't', 00H, 'd', 00H, ':'
	DB	00H, ':', 00H, 'a', 00H, 'l', 00H, 'l', 00H, 'o', 00H, 'c', 00H
	DB	'a', 00H, 't', 00H, 'o', 00H, 'r', 00H, '<', 00H, 'c', 00H, 'l'
	DB	00H, 'a', 00H, 's', 00H, 's', 00H, ' ', 00H, 'A', 00H, 'b', 00H
	DB	's', 00H, 't', 00H, 'R', 00H, 'a', 00H, 'v', 00H, 'e', 00H, 'n'
	DB	00H, '_', 00H, 'B', 00H, 'o', 00H, 't', 00H, ' ', 00H, '*', 00H
	DB	'>', 00H, ' ', 00H, '>', 00H, ' ', 00H, '>', 00H, ':', 00H, ':'
	DB	00H, 'o', 00H, 'p', 00H, 'e', 00H, 'r', 00H, 'a', 00H, 't', 00H
	DB	'o', 00H, 'r', 00H, ' ', 00H, '+', 00H, '+', 00H, 00H, 00H ; `string'
CONST	ENDS
;	COMDAT ??_C@_1EA@DOGAGKDH@?$AAl?$AAi?$AAs?$AAt?$AA?5?$AAi?$AAt?$AAe?$AAr?$AAa?$AAt?$AAo?$AAr?$AA?5?$AAn?$AAo?$AAt?$AA?5?$AAi?$AAn?$AAc?$AAr?$AAe?$AAm?$AAe?$AAn?$AAt?$AAa?$AAb?$AAl?$AAe?$AA?$AA@
CONST	SEGMENT
??_C@_1EA@DOGAGKDH@?$AAl?$AAi?$AAs?$AAt?$AA?5?$AAi?$AAt?$AAe?$AAr?$AAa?$AAt?$AAo?$AAr?$AA?5?$AAn?$AAo?$AAt?$AA?5?$AAi?$AAn?$AAc?$AAr?$AAe?$AAm?$AAe?$AAn?$AAt?$AAa?$AAb?$AAl?$AAe?$AA?$AA@ DB 'l'
	DB	00H, 'i', 00H, 's', 00H, 't', 00H, ' ', 00H, 'i', 00H, 't', 00H
	DB	'e', 00H, 'r', 00H, 'a', 00H, 't', 00H, 'o', 00H, 'r', 00H, ' '
	DB	00H, 'n', 00H, 'o', 00H, 't', 00H, ' ', 00H, 'i', 00H, 'n', 00H
	DB	'c', 00H, 'r', 00H, 'e', 00H, 'm', 00H, 'e', 00H, 'n', 00H, 't'
	DB	00H, 'a', 00H, 'b', 00H, 'l', 00H, 'e', 00H, 00H, 00H ; `string'
; Function compile flags: /Odtp /RTCsu
CONST	ENDS
;	COMDAT ??E?$_List_const_iterator@V?$_List_val@PAVAbstRaven_Bot@@V?$allocator@PAVAbstRaven_Bot@@@std@@@std@@@std@@QAEAAV01@XZ
_TEXT	SEGMENT
_this$ = -4						; size = 4
??E?$_List_const_iterator@V?$_List_val@PAVAbstRaven_Bot@@V?$allocator@PAVAbstRaven_Bot@@@std@@@std@@@std@@QAEAAV01@XZ PROC ; std::_List_const_iterator<std::_List_val<AbstRaven_Bot *,std::allocator<AbstRaven_Bot *> > >::operator++, COMDAT
; _this$ = ecx

; 221  : 		{	// preincrement

	push	ebp
	mov	ebp, esp
	push	ecx
	mov	DWORD PTR [ebp-4], -858993460		; ccccccccH
	mov	DWORD PTR _this$[ebp], ecx

; 222  :  #if _ITERATOR_DEBUG_LEVEL == 2
; 223  : 		if (this->_Getcont() == 0
; 224  : 			|| this->_Ptr == 0
; 225  : 			|| this->_Ptr == ((_Mylist *)this->_Getcont())->_Myhead)

	mov	ecx, DWORD PTR _this$[ebp]
	call	?_Getcont@_Iterator_base12@std@@QBEPBU_Container_base12@2@XZ ; std::_Iterator_base12::_Getcont
	test	eax, eax
	je	SHORT $LN1@operator@9
	mov	eax, DWORD PTR _this$[ebp]
	cmp	DWORD PTR [eax+8], 0
	je	SHORT $LN1@operator@9
	mov	ecx, DWORD PTR _this$[ebp]
	call	?_Getcont@_Iterator_base12@std@@QBEPBU_Container_base12@2@XZ ; std::_Iterator_base12::_Getcont
	mov	ecx, DWORD PTR _this$[ebp]
	mov	edx, DWORD PTR [ecx+8]
	cmp	edx, DWORD PTR [eax+4]
	jne	SHORT $LN2@operator@9
$LN1@operator@9:

; 226  : 			{	// report error
; 227  : 			_DEBUG_ERROR("list iterator not incrementable");

	push	227					; 000000e3H
	push	OFFSET ??_C@_1II@KCMIDAEO@?$AAc?$AA?3?$AA?2?$AAP?$AAr?$AAo?$AAg?$AAr?$AAa?$AAm?$AA?5?$AAF?$AAi?$AAl?$AAe?$AAs?$AA?5?$AA?$CI?$AAx?$AA8?$AA6?$AA?$CJ?$AA?2?$AAM?$AAi?$AAc?$AAr?$AAo?$AAs?$AAo?$AAf?$AAt@
	push	OFFSET ??_C@_1EA@DOGAGKDH@?$AAl?$AAi?$AAs?$AAt?$AA?5?$AAi?$AAt?$AAe?$AAr?$AAa?$AAt?$AAo?$AAr?$AA?5?$AAn?$AAo?$AAt?$AA?5?$AAi?$AAn?$AAc?$AAr?$AAe?$AAm?$AAe?$AAn?$AAt?$AAa?$AAb?$AAl?$AAe?$AA?$AA@
	call	?_Debug_message@std@@YAXPB_W0I@Z	; std::_Debug_message
	add	esp, 12					; 0000000cH

; 228  : 			_SCL_SECURE_OUT_OF_RANGE;

	mov	eax, OFFSET ??_C@_0CE@OFMIGAMM@Standard?5C?$CL?$CL?5Libraries?5Out?5of?5Ra@
	test	eax, eax
	je	SHORT $LN5@operator@9
	xor	ecx, ecx
	jne	SHORT $LN6@operator@9
$LN5@operator@9:
	push	OFFSET ??_C@_1FG@IBPIFFN@?$AA?$CC?$AAS?$AAt?$AAa?$AAn?$AAd?$AAa?$AAr?$AAd?$AA?5?$AAC?$AA?$CL?$AA?$CL?$AA?5?$AAL?$AAi?$AAb?$AAr?$AAa?$AAr?$AAi?$AAe?$AAs?$AA?5?$AAO?$AAu?$AAt?$AA?5?$AAo?$AAf?$AA?5?$AAR@
	push	0
	push	228					; 000000e4H
	push	OFFSET ??_C@_1II@KCMIDAEO@?$AAc?$AA?3?$AA?2?$AAP?$AAr?$AAo?$AAg?$AAr?$AAa?$AAm?$AA?5?$AAF?$AAi?$AAl?$AAe?$AAs?$AA?5?$AA?$CI?$AAx?$AA8?$AA6?$AA?$CJ?$AA?2?$AAM?$AAi?$AAc?$AAr?$AAo?$AAs?$AAo?$AAf?$AAt@
	push	2
	call	__CrtDbgReportW
	add	esp, 20					; 00000014H
	cmp	eax, 1
	jne	SHORT $LN6@operator@9
	int	3
$LN6@operator@9:
	push	0
	push	228					; 000000e4H
	push	OFFSET ??_C@_1II@KCMIDAEO@?$AAc?$AA?3?$AA?2?$AAP?$AAr?$AAo?$AAg?$AAr?$AAa?$AAm?$AA?5?$AAF?$AAi?$AAl?$AAe?$AAs?$AA?5?$AA?$CI?$AAx?$AA8?$AA6?$AA?$CJ?$AA?2?$AAM?$AAi?$AAc?$AAr?$AAo?$AAs?$AAo?$AAf?$AAt@
	push	OFFSET ??_C@_1BAE@JICJIFBK@?$AAs?$AAt?$AAd?$AA?3?$AA?3?$AA_?$AAL?$AAi?$AAs?$AAt?$AA_?$AAc?$AAo?$AAn?$AAs?$AAt?$AA_?$AAi?$AAt?$AAe?$AAr?$AAa?$AAt?$AAo?$AAr?$AA?$DM?$AAc?$AAl?$AAa?$AAs?$AAs?$AA?5@
	push	OFFSET ??_C@_1BO@MEPPHOO@?$AA?$CC?$AAo?$AAu?$AAt?$AA?5?$AAo?$AAf?$AA?5?$AAr?$AAa?$AAn?$AAg?$AAe?$AA?$CC?$AA?$AA@
	call	__invalid_parameter
	add	esp, 20					; 00000014H
$LN2@operator@9:

; 229  : 			}
; 230  : 
; 231  :  #elif _ITERATOR_DEBUG_LEVEL == 1
; 232  : 		_SCL_SECURE_VALIDATE(this->_Getcont() != 0 && this->_Ptr != 0);
; 233  : 		_SCL_SECURE_VALIDATE_RANGE(this->_Ptr !=
; 234  : 			((_Mylist *)this->_Getcont())->_Myhead);
; 235  :  #endif /* _ITERATOR_DEBUG_LEVEL */
; 236  : 
; 237  : 		this->_Ptr = _Mylist::_Nextnode(this->_Ptr);

	mov	eax, DWORD PTR _this$[ebp]
	mov	ecx, DWORD PTR [eax+8]
	push	ecx
	call	?_Nextnode@?$_List_val@PAVAbstRaven_Bot@@V?$allocator@PAVAbstRaven_Bot@@@std@@@std@@SAAAPAU_Node@?$_List_nod@PAVAbstRaven_Bot@@V?$allocator@PAVAbstRaven_Bot@@@std@@@2@PAU342@@Z ; std::_List_val<AbstRaven_Bot *,std::allocator<AbstRaven_Bot *> >::_Nextnode
	add	esp, 4
	mov	edx, DWORD PTR _this$[ebp]
	mov	eax, DWORD PTR [eax]
	mov	DWORD PTR [edx+8], eax

; 238  : 		return (*this);

	mov	eax, DWORD PTR _this$[ebp]

; 239  : 		}

	add	esp, 4
	cmp	ebp, esp
	call	__RTC_CheckEsp
	mov	esp, ebp
	pop	ebp
	ret	0
??E?$_List_const_iterator@V?$_List_val@PAVAbstRaven_Bot@@V?$allocator@PAVAbstRaven_Bot@@@std@@@std@@@std@@QAEAAV01@XZ ENDP ; std::_List_const_iterator<std::_List_val<AbstRaven_Bot *,std::allocator<AbstRaven_Bot *> > >::operator++
_TEXT	ENDS
PUBLIC	??8?$_List_const_iterator@V?$_List_val@PAVAbstRaven_Bot@@V?$allocator@PAVAbstRaven_Bot@@@std@@@std@@@std@@QBE_NABV01@@Z ; std::_List_const_iterator<std::_List_val<AbstRaven_Bot *,std::allocator<AbstRaven_Bot *> > >::operator==
; Function compile flags: /Odtp /RTCsu
;	COMDAT ??9?$_List_const_iterator@V?$_List_val@PAVAbstRaven_Bot@@V?$allocator@PAVAbstRaven_Bot@@@std@@@std@@@std@@QBE_NABV01@@Z
_TEXT	SEGMENT
_this$ = -4						; size = 4
__Right$ = 8						; size = 4
??9?$_List_const_iterator@V?$_List_val@PAVAbstRaven_Bot@@V?$allocator@PAVAbstRaven_Bot@@@std@@@std@@@std@@QBE_NABV01@@Z PROC ; std::_List_const_iterator<std::_List_val<AbstRaven_Bot *,std::allocator<AbstRaven_Bot *> > >::operator!=, COMDAT
; _this$ = ecx

; 299  : 		{	// test for iterator inequality

	push	ebp
	mov	ebp, esp
	push	ecx
	mov	DWORD PTR [ebp-4], -858993460		; ccccccccH
	mov	DWORD PTR _this$[ebp], ecx

; 300  : 		return (!(*this == _Right));

	mov	eax, DWORD PTR __Right$[ebp]
	push	eax
	mov	ecx, DWORD PTR _this$[ebp]
	call	??8?$_List_const_iterator@V?$_List_val@PAVAbstRaven_Bot@@V?$allocator@PAVAbstRaven_Bot@@@std@@@std@@@std@@QBE_NABV01@@Z ; std::_List_const_iterator<std::_List_val<AbstRaven_Bot *,std::allocator<AbstRaven_Bot *> > >::operator==
	movzx	eax, al
	neg	eax
	sbb	eax, eax
	add	eax, 1

; 301  : 		}

	add	esp, 4
	cmp	ebp, esp
	call	__RTC_CheckEsp
	mov	esp, ebp
	pop	ebp
	ret	4
??9?$_List_const_iterator@V?$_List_val@PAVAbstRaven_Bot@@V?$allocator@PAVAbstRaven_Bot@@@std@@@std@@@std@@QBE_NABV01@@Z ENDP ; std::_List_const_iterator<std::_List_val<AbstRaven_Bot *,std::allocator<AbstRaven_Bot *> > >::operator!=
_TEXT	ENDS
PUBLIC	??1?$_Vector_const_iterator@V?$_Vector_val@UVector2D@@V?$allocator@UVector2D@@@std@@@std@@@std@@QAE@XZ ; std::_Vector_const_iterator<std::_Vector_val<Vector2D,std::allocator<Vector2D> > >::~_Vector_const_iterator<std::_Vector_val<Vector2D,std::allocator<Vector2D> > >
PUBLIC	??$_Uninitialized_default_fill_n@PAUVector2D@@IU1@V?$allocator@UVector2D@@@std@@@std@@YAXPAUVector2D@@IPBU1@AAV?$allocator@UVector2D@@@0@@Z ; std::_Uninitialized_default_fill_n<Vector2D *,unsigned int,Vector2D,std::allocator<Vector2D> >
PUBLIC	?_Reserve@?$vector@UVector2D@@V?$allocator@UVector2D@@@std@@@std@@IAEXI@Z ; std::vector<Vector2D,std::allocator<Vector2D> >::_Reserve
PUBLIC	??1?$_Vector_iterator@V?$_Vector_val@UVector2D@@V?$allocator@UVector2D@@@std@@@std@@@std@@QAE@XZ ; std::_Vector_iterator<std::_Vector_val<Vector2D,std::allocator<Vector2D> > >::~_Vector_iterator<std::_Vector_val<Vector2D,std::allocator<Vector2D> > >
PUBLIC	?erase@?$vector@UVector2D@@V?$allocator@UVector2D@@@std@@@std@@QAE?AV?$_Vector_iterator@V?$_Vector_val@UVector2D@@V?$allocator@UVector2D@@@std@@@std@@@2@V?$_Vector_const_iterator@V?$_Vector_val@UVector2D@@V?$allocator@UVector2D@@@std@@@std@@@2@0@Z ; std::vector<Vector2D,std::allocator<Vector2D> >::erase
PUBLIC	??H?$_Vector_iterator@V?$_Vector_val@UVector2D@@V?$allocator@UVector2D@@@std@@@std@@@std@@QBE?AV01@H@Z ; std::_Vector_iterator<std::_Vector_val<Vector2D,std::allocator<Vector2D> > >::operator+
PUBLIC	?begin@?$vector@UVector2D@@V?$allocator@UVector2D@@@std@@@std@@QAE?AV?$_Vector_iterator@V?$_Vector_val@UVector2D@@V?$allocator@UVector2D@@@std@@@std@@@2@XZ ; std::vector<Vector2D,std::allocator<Vector2D> >::begin
PUBLIC	??0?$_Vector_const_iterator@V?$_Vector_val@UVector2D@@V?$allocator@UVector2D@@@std@@@std@@@std@@QAE@ABV01@@Z ; std::_Vector_const_iterator<std::_Vector_val<Vector2D,std::allocator<Vector2D> > >::_Vector_const_iterator<std::_Vector_val<Vector2D,std::allocator<Vector2D> > >
PUBLIC	?end@?$vector@UVector2D@@V?$allocator@UVector2D@@@std@@@std@@QAE?AV?$_Vector_iterator@V?$_Vector_val@UVector2D@@V?$allocator@UVector2D@@@std@@@std@@@2@XZ ; std::vector<Vector2D,std::allocator<Vector2D> >::end
;	COMDAT xdata$x
; File c:\program files (x86)\microsoft visual studio 10.0\vc\include\vector
xdata$x	SEGMENT
__ehfuncinfo$?resize@?$vector@UVector2D@@V?$allocator@UVector2D@@@std@@@std@@QAEXI@Z DD 019930522H
	DD	06H
	DD	FLAT:__unwindtable$?resize@?$vector@UVector2D@@V?$allocator@UVector2D@@@std@@@std@@QAEXI@Z
	DD	2 DUP(00H)
	DD	2 DUP(00H)
	DD	00H
	DD	01H
__unwindtable$?resize@?$vector@UVector2D@@V?$allocator@UVector2D@@@std@@@std@@QAEXI@Z DD 0ffffffffH
	DD	FLAT:__unwindfunclet$?resize@?$vector@UVector2D@@V?$allocator@UVector2D@@@std@@@std@@QAEXI@Z$0
	DD	00H
	DD	FLAT:__unwindfunclet$?resize@?$vector@UVector2D@@V?$allocator@UVector2D@@@std@@@std@@QAEXI@Z$1
	DD	01H
	DD	FLAT:__unwindfunclet$?resize@?$vector@UVector2D@@V?$allocator@UVector2D@@@std@@@std@@QAEXI@Z$2
	DD	02H
	DD	FLAT:__unwindfunclet$?resize@?$vector@UVector2D@@V?$allocator@UVector2D@@@std@@@std@@QAEXI@Z$3
	DD	00H
	DD	FLAT:__unwindfunclet$?resize@?$vector@UVector2D@@V?$allocator@UVector2D@@@std@@@std@@QAEXI@Z$2
	DD	04H
	DD	FLAT:__unwindfunclet$?resize@?$vector@UVector2D@@V?$allocator@UVector2D@@@std@@@std@@QAEXI@Z$3
; Function compile flags: /Odtp /RTCsu
xdata$x	ENDS
;	COMDAT ?resize@?$vector@UVector2D@@V?$allocator@UVector2D@@@std@@@std@@QAEXI@Z
_TEXT	SEGMENT
tv194 = -112						; size = 4
tv201 = -108						; size = 4
tv198 = -104						; size = 4
tv206 = -100						; size = 4
tv196 = -96						; size = 4
tv205 = -92						; size = 4
tv193 = -88						; size = 4
tv204 = -84						; size = 4
tv191 = -80						; size = 4
tv203 = -76						; size = 4
$T146472 = -72						; size = 12
$T146471 = -60						; size = 12
$T146470 = -48						; size = 12
$T146469 = -36						; size = 4
$T146468 = -32						; size = 12
$T146467 = -20						; size = 4
_this$ = -16						; size = 4
__$EHRec$ = -12						; size = 12
__Newsize$ = 8						; size = 4
?resize@?$vector@UVector2D@@V?$allocator@UVector2D@@@std@@@std@@QAEXI@Z PROC ; std::vector<Vector2D,std::allocator<Vector2D> >::resize, COMDAT
; _this$ = ecx

; 857  : 		{	// determine new length, padding with _Ty() elements as needed

	push	ebp
	mov	ebp, esp
	push	-1
	push	__ehhandler$?resize@?$vector@UVector2D@@V?$allocator@UVector2D@@@std@@@std@@QAEXI@Z
	mov	eax, DWORD PTR fs:0
	push	eax
	sub	esp, 100				; 00000064H
	push	edi
	push	ecx
	lea	edi, DWORD PTR [ebp-112]
	mov	ecx, 25					; 00000019H
	mov	eax, -858993460				; ccccccccH
	rep stosd
	pop	ecx
	mov	eax, DWORD PTR ___security_cookie
	xor	eax, ebp
	push	eax
	lea	eax, DWORD PTR __$EHRec$[ebp]
	mov	DWORD PTR fs:0, eax
	mov	DWORD PTR _this$[ebp], ecx

; 858  : 		if (_Newsize < size())

	mov	ecx, DWORD PTR _this$[ebp]
	call	?size@?$vector@UVector2D@@V?$allocator@UVector2D@@@std@@@std@@QBEIXZ ; std::vector<Vector2D,std::allocator<Vector2D> >::size
	cmp	DWORD PTR __Newsize$[ebp], eax
	jae	$LN3@resize

; 859  : 			erase(begin() + _Newsize, end());

	lea	eax, DWORD PTR $T146468[ebp]
	push	eax
	mov	ecx, DWORD PTR _this$[ebp]
	call	?end@?$vector@UVector2D@@V?$allocator@UVector2D@@@std@@@std@@QAE?AV?$_Vector_iterator@V?$_Vector_val@UVector2D@@V?$allocator@UVector2D@@@std@@@std@@@2@XZ ; std::vector<Vector2D,std::allocator<Vector2D> >::end
	mov	DWORD PTR tv203[ebp], eax
	mov	ecx, DWORD PTR tv203[ebp]
	mov	DWORD PTR tv191[ebp], ecx
	mov	DWORD PTR __$EHRec$[ebp+8], 0
	sub	esp, 12					; 0000000cH
	mov	ecx, esp
	mov	DWORD PTR $T146467[ebp], esp
	mov	edx, DWORD PTR tv191[ebp]
	push	edx
	call	??0?$_Vector_const_iterator@V?$_Vector_val@UVector2D@@V?$allocator@UVector2D@@@std@@@std@@@std@@QAE@ABV01@@Z
	mov	DWORD PTR tv204[ebp], eax
	mov	eax, DWORD PTR tv204[ebp]
	mov	DWORD PTR tv193[ebp], eax
	mov	BYTE PTR __$EHRec$[ebp+8], 1
	mov	ecx, DWORD PTR __Newsize$[ebp]
	push	ecx
	lea	edx, DWORD PTR $T146471[ebp]
	push	edx
	lea	eax, DWORD PTR $T146470[ebp]
	push	eax
	mov	ecx, DWORD PTR _this$[ebp]
	call	?begin@?$vector@UVector2D@@V?$allocator@UVector2D@@@std@@@std@@QAE?AV?$_Vector_iterator@V?$_Vector_val@UVector2D@@V?$allocator@UVector2D@@@std@@@std@@@2@XZ ; std::vector<Vector2D,std::allocator<Vector2D> >::begin
	mov	DWORD PTR tv205[ebp], eax
	mov	ecx, DWORD PTR tv205[ebp]
	mov	DWORD PTR tv196[ebp], ecx
	mov	BYTE PTR __$EHRec$[ebp+8], 2
	mov	ecx, DWORD PTR tv196[ebp]
	call	??H?$_Vector_iterator@V?$_Vector_val@UVector2D@@V?$allocator@UVector2D@@@std@@@std@@@std@@QBE?AV01@H@Z ; std::_Vector_iterator<std::_Vector_val<Vector2D,std::allocator<Vector2D> > >::operator+
	mov	DWORD PTR tv206[ebp], eax
	mov	edx, DWORD PTR tv206[ebp]
	mov	DWORD PTR tv198[ebp], edx
	mov	BYTE PTR __$EHRec$[ebp+8], 3
	sub	esp, 12					; 0000000cH
	mov	ecx, esp
	mov	DWORD PTR $T146469[ebp], esp
	mov	eax, DWORD PTR tv198[ebp]
	push	eax
	call	??0?$_Vector_const_iterator@V?$_Vector_val@UVector2D@@V?$allocator@UVector2D@@@std@@@std@@@std@@QAE@ABV01@@Z
	mov	DWORD PTR tv201[ebp], eax
	lea	ecx, DWORD PTR $T146472[ebp]
	push	ecx
	mov	BYTE PTR __$EHRec$[ebp+8], 5
	mov	ecx, DWORD PTR _this$[ebp]
	call	?erase@?$vector@UVector2D@@V?$allocator@UVector2D@@@std@@@std@@QAE?AV?$_Vector_iterator@V?$_Vector_val@UVector2D@@V?$allocator@UVector2D@@@std@@@std@@@2@V?$_Vector_const_iterator@V?$_Vector_val@UVector2D@@V?$allocator@UVector2D@@@std@@@std@@@2@0@Z ; std::vector<Vector2D,std::allocator<Vector2D> >::erase
	mov	DWORD PTR tv194[ebp], eax
	lea	ecx, DWORD PTR $T146472[ebp]
	call	??1?$_Vector_iterator@V?$_Vector_val@UVector2D@@V?$allocator@UVector2D@@@std@@@std@@@std@@QAE@XZ
	mov	BYTE PTR __$EHRec$[ebp+8], 4
	lea	ecx, DWORD PTR $T146471[ebp]
	call	??1?$_Vector_iterator@V?$_Vector_val@UVector2D@@V?$allocator@UVector2D@@@std@@@std@@@std@@QAE@XZ
	mov	BYTE PTR __$EHRec$[ebp+8], 0
	lea	ecx, DWORD PTR $T146470[ebp]
	call	??1?$_Vector_iterator@V?$_Vector_val@UVector2D@@V?$allocator@UVector2D@@@std@@@std@@@std@@QAE@XZ
	mov	DWORD PTR __$EHRec$[ebp+8], -1
	lea	ecx, DWORD PTR $T146468[ebp]
	call	??1?$_Vector_iterator@V?$_Vector_val@UVector2D@@V?$allocator@UVector2D@@@std@@@std@@@std@@QAE@XZ
	jmp	SHORT $LN4@resize
$LN3@resize:

; 860  : 		else if (size() < _Newsize)

	mov	ecx, DWORD PTR _this$[ebp]
	call	?size@?$vector@UVector2D@@V?$allocator@UVector2D@@@std@@@std@@QBEIXZ ; std::vector<Vector2D,std::allocator<Vector2D> >::size
	cmp	eax, DWORD PTR __Newsize$[ebp]
	jae	SHORT $LN4@resize

; 861  : 			{	// pad as needed
; 862  : 			_Reserve(_Newsize - size());

	mov	ecx, DWORD PTR _this$[ebp]
	call	?size@?$vector@UVector2D@@V?$allocator@UVector2D@@@std@@@std@@QBEIXZ ; std::vector<Vector2D,std::allocator<Vector2D> >::size
	mov	edx, DWORD PTR __Newsize$[ebp]
	sub	edx, eax
	push	edx
	mov	ecx, DWORD PTR _this$[ebp]
	call	?_Reserve@?$vector@UVector2D@@V?$allocator@UVector2D@@@std@@@std@@IAEXI@Z ; std::vector<Vector2D,std::allocator<Vector2D> >::_Reserve

; 863  : 			_Uninitialized_default_fill_n(this->_Mylast, _Newsize - size(),
; 864  : 				(_Ty *)0, this->_Alval);

	mov	eax, DWORD PTR _this$[ebp]
	add	eax, 16					; 00000010H
	push	eax
	push	0
	mov	ecx, DWORD PTR _this$[ebp]
	call	?size@?$vector@UVector2D@@V?$allocator@UVector2D@@@std@@@std@@QBEIXZ ; std::vector<Vector2D,std::allocator<Vector2D> >::size
	mov	ecx, DWORD PTR __Newsize$[ebp]
	sub	ecx, eax
	push	ecx
	mov	edx, DWORD PTR _this$[ebp]
	mov	eax, DWORD PTR [edx+8]
	push	eax
	call	??$_Uninitialized_default_fill_n@PAUVector2D@@IU1@V?$allocator@UVector2D@@@std@@@std@@YAXPAUVector2D@@IPBU1@AAV?$allocator@UVector2D@@@0@@Z ; std::_Uninitialized_default_fill_n<Vector2D *,unsigned int,Vector2D,std::allocator<Vector2D> >
	add	esp, 16					; 00000010H

; 865  : 			this->_Mylast += _Newsize - size();

	mov	ecx, DWORD PTR _this$[ebp]
	call	?size@?$vector@UVector2D@@V?$allocator@UVector2D@@@std@@@std@@QBEIXZ ; std::vector<Vector2D,std::allocator<Vector2D> >::size
	mov	ecx, DWORD PTR __Newsize$[ebp]
	sub	ecx, eax
	shl	ecx, 4
	mov	edx, DWORD PTR _this$[ebp]
	add	ecx, DWORD PTR [edx+8]
	mov	eax, DWORD PTR _this$[ebp]
	mov	DWORD PTR [eax+8], ecx
$LN4@resize:

; 866  : 			}
; 867  : 		}

	mov	ecx, DWORD PTR __$EHRec$[ebp]
	mov	DWORD PTR fs:0, ecx
	pop	ecx
	pop	edi
	add	esp, 112				; 00000070H
	cmp	ebp, esp
	call	__RTC_CheckEsp
	mov	esp, ebp
	pop	ebp
	ret	4
_TEXT	ENDS
;	COMDAT text$x
text$x	SEGMENT
__unwindfunclet$?resize@?$vector@UVector2D@@V?$allocator@UVector2D@@@std@@@std@@QAEXI@Z$0:
	lea	ecx, DWORD PTR $T146468[ebp]
	jmp	??1?$_Vector_iterator@V?$_Vector_val@UVector2D@@V?$allocator@UVector2D@@@std@@@std@@@std@@QAE@XZ
__unwindfunclet$?resize@?$vector@UVector2D@@V?$allocator@UVector2D@@@std@@@std@@QAEXI@Z$1:
	mov	ecx, DWORD PTR $T146467[ebp]
	jmp	??1?$_Vector_const_iterator@V?$_Vector_val@UVector2D@@V?$allocator@UVector2D@@@std@@@std@@@std@@QAE@XZ
__unwindfunclet$?resize@?$vector@UVector2D@@V?$allocator@UVector2D@@@std@@@std@@QAEXI@Z$2:
	lea	ecx, DWORD PTR $T146470[ebp]
	jmp	??1?$_Vector_iterator@V?$_Vector_val@UVector2D@@V?$allocator@UVector2D@@@std@@@std@@@std@@QAE@XZ
__unwindfunclet$?resize@?$vector@UVector2D@@V?$allocator@UVector2D@@@std@@@std@@QAEXI@Z$3:
	lea	ecx, DWORD PTR $T146471[ebp]
	jmp	??1?$_Vector_iterator@V?$_Vector_val@UVector2D@@V?$allocator@UVector2D@@@std@@@std@@@std@@QAE@XZ
__ehhandler$?resize@?$vector@UVector2D@@V?$allocator@UVector2D@@@std@@@std@@QAEXI@Z:
	mov	edx, DWORD PTR [esp+8]
	lea	eax, DWORD PTR [edx+12]
	mov	ecx, DWORD PTR [edx-108]
	xor	ecx, eax
	call	@__security_check_cookie@4
	mov	eax, OFFSET __ehfuncinfo$?resize@?$vector@UVector2D@@V?$allocator@UVector2D@@@std@@@std@@QAEXI@Z
	jmp	___CxxFrameHandler3
text$x	ENDS
?resize@?$vector@UVector2D@@V?$allocator@UVector2D@@@std@@@std@@QAEXI@Z ENDP ; std::vector<Vector2D,std::allocator<Vector2D> >::resize
PUBLIC	??1?$_Iterator012@Urandom_access_iterator_tag@std@@UVector2D@@HPBU3@ABU3@U_Iterator_base12@2@@std@@QAE@XZ ; std::_Iterator012<std::random_access_iterator_tag,Vector2D,int,Vector2D const *,Vector2D const &,std::_Iterator_base12>::~_Iterator012<std::random_access_iterator_tag,Vector2D,int,Vector2D const *,Vector2D const &,std::_Iterator_base12>
; Function compile flags: /Odtp /RTCsu
;	COMDAT ??1?$_Vector_const_iterator@V?$_Vector_val@UVector2D@@V?$allocator@UVector2D@@@std@@@std@@@std@@QAE@XZ
_TEXT	SEGMENT
_this$ = -4						; size = 4
??1?$_Vector_const_iterator@V?$_Vector_val@UVector2D@@V?$allocator@UVector2D@@@std@@@std@@@std@@QAE@XZ PROC ; std::_Vector_const_iterator<std::_Vector_val<Vector2D,std::allocator<Vector2D> > >::~_Vector_const_iterator<std::_Vector_val<Vector2D,std::allocator<Vector2D> > >, COMDAT
; _this$ = ecx
	push	ebp
	mov	ebp, esp
	push	ecx
	mov	DWORD PTR [ebp-4], -858993460		; ccccccccH
	mov	DWORD PTR _this$[ebp], ecx
	mov	ecx, DWORD PTR _this$[ebp]
	call	??1?$_Iterator012@Urandom_access_iterator_tag@std@@UVector2D@@HPBU3@ABU3@U_Iterator_base12@2@@std@@QAE@XZ
	add	esp, 4
	cmp	ebp, esp
	call	__RTC_CheckEsp
	mov	esp, ebp
	pop	ebp
	ret	0
??1?$_Vector_const_iterator@V?$_Vector_val@UVector2D@@V?$allocator@UVector2D@@@std@@@std@@@std@@QAE@XZ ENDP ; std::_Vector_const_iterator<std::_Vector_val<Vector2D,std::allocator<Vector2D> > >::~_Vector_const_iterator<std::_Vector_val<Vector2D,std::allocator<Vector2D> > >
; Function compile flags: /Odtp /RTCsu
_TEXT	ENDS
;	COMDAT ??1?$_Iterator012@Urandom_access_iterator_tag@std@@UVector2D@@HPBU3@ABU3@U_Iterator_base12@2@@std@@QAE@XZ
_TEXT	SEGMENT
_this$ = -4						; size = 4
??1?$_Iterator012@Urandom_access_iterator_tag@std@@UVector2D@@HPBU3@ABU3@U_Iterator_base12@2@@std@@QAE@XZ PROC ; std::_Iterator012<std::random_access_iterator_tag,Vector2D,int,Vector2D const *,Vector2D const &,std::_Iterator_base12>::~_Iterator012<std::random_access_iterator_tag,Vector2D,int,Vector2D const *,Vector2D const &,std::_Iterator_base12>, COMDAT
; _this$ = ecx
	push	ebp
	mov	ebp, esp
	push	ecx
	mov	DWORD PTR [ebp-4], -858993460		; ccccccccH
	mov	DWORD PTR _this$[ebp], ecx
	mov	ecx, DWORD PTR _this$[ebp]
	call	??1_Iterator_base12@std@@QAE@XZ		; std::_Iterator_base12::~_Iterator_base12
	add	esp, 4
	cmp	ebp, esp
	call	__RTC_CheckEsp
	mov	esp, ebp
	pop	ebp
	ret	0
??1?$_Iterator012@Urandom_access_iterator_tag@std@@UVector2D@@HPBU3@ABU3@U_Iterator_base12@2@@std@@QAE@XZ ENDP ; std::_Iterator012<std::random_access_iterator_tag,Vector2D,int,Vector2D const *,Vector2D const &,std::_Iterator_base12>::~_Iterator012<std::random_access_iterator_tag,Vector2D,int,Vector2D const *,Vector2D const &,std::_Iterator_base12>
_TEXT	ENDS
PUBLIC	?reserve@?$vector@UVector2D@@V?$allocator@UVector2D@@@std@@@std@@QAEXI@Z ; std::vector<Vector2D,std::allocator<Vector2D> >::reserve
PUBLIC	?_Grow_to@?$vector@UVector2D@@V?$allocator@UVector2D@@@std@@@std@@IBEII@Z ; std::vector<Vector2D,std::allocator<Vector2D> >::_Grow_to
PUBLIC	?capacity@?$vector@UVector2D@@V?$allocator@UVector2D@@@std@@@std@@QBEIXZ ; std::vector<Vector2D,std::allocator<Vector2D> >::capacity
PUBLIC	?_Xlen@?$vector@UVector2D@@V?$allocator@UVector2D@@@std@@@std@@IBEXXZ ; std::vector<Vector2D,std::allocator<Vector2D> >::_Xlen
PUBLIC	?max_size@?$vector@UVector2D@@V?$allocator@UVector2D@@@std@@@std@@QBEIXZ ; std::vector<Vector2D,std::allocator<Vector2D> >::max_size
; Function compile flags: /Odtp /RTCsu
;	COMDAT ?_Reserve@?$vector@UVector2D@@V?$allocator@UVector2D@@@std@@@std@@IAEXI@Z
_TEXT	SEGMENT
__Size$ = -8						; size = 4
_this$ = -4						; size = 4
__Count$ = 8						; size = 4
?_Reserve@?$vector@UVector2D@@V?$allocator@UVector2D@@@std@@@std@@IAEXI@Z PROC ; std::vector<Vector2D,std::allocator<Vector2D> >::_Reserve, COMDAT
; _this$ = ecx

; 1290 : 		{	// ensure room for _Count new elements, grow exponentially

	push	ebp
	mov	ebp, esp
	sub	esp, 8
	mov	DWORD PTR [ebp-8], -858993460		; ccccccccH
	mov	DWORD PTR [ebp-4], -858993460		; ccccccccH
	mov	DWORD PTR _this$[ebp], ecx

; 1291 : 		size_type _Size = size();

	mov	ecx, DWORD PTR _this$[ebp]
	call	?size@?$vector@UVector2D@@V?$allocator@UVector2D@@@std@@@std@@QBEIXZ ; std::vector<Vector2D,std::allocator<Vector2D> >::size
	mov	DWORD PTR __Size$[ebp], eax

; 1292 : 		if (max_size() - _Count < _Size)

	mov	ecx, DWORD PTR _this$[ebp]
	call	?max_size@?$vector@UVector2D@@V?$allocator@UVector2D@@@std@@@std@@QBEIXZ ; std::vector<Vector2D,std::allocator<Vector2D> >::max_size
	sub	eax, DWORD PTR __Count$[ebp]
	cmp	eax, DWORD PTR __Size$[ebp]
	jae	SHORT $LN4@Reserve

; 1293 : 			_Xlen();

	mov	ecx, DWORD PTR _this$[ebp]
	call	?_Xlen@?$vector@UVector2D@@V?$allocator@UVector2D@@@std@@@std@@IBEXXZ ; std::vector<Vector2D,std::allocator<Vector2D> >::_Xlen
	jmp	SHORT $LN6@Reserve
$LN4@Reserve:

; 1294 : 		else if ((_Size += _Count) <= capacity())

	mov	eax, DWORD PTR __Size$[ebp]
	add	eax, DWORD PTR __Count$[ebp]
	mov	DWORD PTR __Size$[ebp], eax
	mov	ecx, DWORD PTR _this$[ebp]
	call	?capacity@?$vector@UVector2D@@V?$allocator@UVector2D@@@std@@@std@@QBEIXZ ; std::vector<Vector2D,std::allocator<Vector2D> >::capacity
	cmp	DWORD PTR __Size$[ebp], eax
	ja	SHORT $LN2@Reserve

; 1295 : 			;
; 1296 : 		else

	jmp	SHORT $LN6@Reserve
$LN2@Reserve:

; 1297 : 			reserve(_Grow_to(_Size));

	mov	ecx, DWORD PTR __Size$[ebp]
	push	ecx
	mov	ecx, DWORD PTR _this$[ebp]
	call	?_Grow_to@?$vector@UVector2D@@V?$allocator@UVector2D@@@std@@@std@@IBEII@Z ; std::vector<Vector2D,std::allocator<Vector2D> >::_Grow_to
	push	eax
	mov	ecx, DWORD PTR _this$[ebp]
	call	?reserve@?$vector@UVector2D@@V?$allocator@UVector2D@@@std@@@std@@QAEXI@Z ; std::vector<Vector2D,std::allocator<Vector2D> >::reserve
$LN6@Reserve:

; 1298 : 		}

	add	esp, 8
	cmp	ebp, esp
	call	__RTC_CheckEsp
	mov	esp, ebp
	pop	ebp
	ret	4
?_Reserve@?$vector@UVector2D@@V?$allocator@UVector2D@@@std@@@std@@IAEXI@Z ENDP ; std::vector<Vector2D,std::allocator<Vector2D> >::_Reserve
_TEXT	ENDS
PUBLIC	?deallocate@?$allocator@UVector2D@@@std@@QAEXPAUVector2D@@I@Z ; std::allocator<Vector2D>::deallocate
PUBLIC	?_Destroy@?$vector@UVector2D@@V?$allocator@UVector2D@@@std@@@std@@IAEXPAUVector2D@@0@Z ; std::vector<Vector2D,std::allocator<Vector2D> >::_Destroy
PUBLIC	?_Orphan_all@_Container_base12@std@@QAEXXZ	; std::_Container_base12::_Orphan_all
; Function compile flags: /Odtp /RTCsu
;	COMDAT ?_Tidy@?$vector@UVector2D@@V?$allocator@UVector2D@@@std@@@std@@IAEXXZ
_TEXT	SEGMENT
_this$ = -4						; size = 4
?_Tidy@?$vector@UVector2D@@V?$allocator@UVector2D@@@std@@@std@@IAEXXZ PROC ; std::vector<Vector2D,std::allocator<Vector2D> >::_Tidy, COMDAT
; _this$ = ecx

; 1301 : 		{	// free all storage

	push	ebp
	mov	ebp, esp
	push	ecx
	mov	DWORD PTR [ebp-4], -858993460		; ccccccccH
	mov	DWORD PTR _this$[ebp], ecx

; 1302 : 		if (this->_Myfirst != 0)

	mov	eax, DWORD PTR _this$[ebp]
	cmp	DWORD PTR [eax+4], 0
	je	SHORT $LN1@Tidy

; 1303 : 			{	// something to free, destroy and deallocate it
; 1304 : 			this->_Orphan_all();

	mov	ecx, DWORD PTR _this$[ebp]
	call	?_Orphan_all@_Container_base12@std@@QAEXXZ ; std::_Container_base12::_Orphan_all

; 1305 : 			_Destroy(this->_Myfirst, this->_Mylast);

	mov	ecx, DWORD PTR _this$[ebp]
	mov	edx, DWORD PTR [ecx+8]
	push	edx
	mov	eax, DWORD PTR _this$[ebp]
	mov	ecx, DWORD PTR [eax+4]
	push	ecx
	mov	ecx, DWORD PTR _this$[ebp]
	call	?_Destroy@?$vector@UVector2D@@V?$allocator@UVector2D@@@std@@@std@@IAEXPAUVector2D@@0@Z ; std::vector<Vector2D,std::allocator<Vector2D> >::_Destroy

; 1306 : 			this->_Alval.deallocate(this->_Myfirst,
; 1307 : 				this->_Myend - this->_Myfirst);

	mov	edx, DWORD PTR _this$[ebp]
	mov	eax, DWORD PTR _this$[ebp]
	mov	ecx, DWORD PTR [edx+12]
	sub	ecx, DWORD PTR [eax+4]
	sar	ecx, 4
	push	ecx
	mov	edx, DWORD PTR _this$[ebp]
	mov	eax, DWORD PTR [edx+4]
	push	eax
	mov	ecx, DWORD PTR _this$[ebp]
	add	ecx, 16					; 00000010H
	call	?deallocate@?$allocator@UVector2D@@@std@@QAEXPAUVector2D@@I@Z ; std::allocator<Vector2D>::deallocate
$LN1@Tidy:

; 1308 : 			}
; 1309 : 		this->_Myfirst = 0;

	mov	ecx, DWORD PTR _this$[ebp]
	mov	DWORD PTR [ecx+4], 0

; 1310 : 		this->_Mylast = 0;

	mov	edx, DWORD PTR _this$[ebp]
	mov	DWORD PTR [edx+8], 0

; 1311 : 		this->_Myend = 0;

	mov	eax, DWORD PTR _this$[ebp]
	mov	DWORD PTR [eax+12], 0

; 1312 : 		}

	add	esp, 4
	cmp	ebp, esp
	call	__RTC_CheckEsp
	mov	esp, ebp
	pop	ebp
	ret	0
?_Tidy@?$vector@UVector2D@@V?$allocator@UVector2D@@@std@@@std@@IAEXXZ ENDP ; std::vector<Vector2D,std::allocator<Vector2D> >::_Tidy
; Function compile flags: /Odtp /RTCsu
; File c:\program files (x86)\microsoft visual studio 10.0\vc\include\xutility
_TEXT	ENDS
;	COMDAT ?_Orphan_all@_Container_base12@std@@QAEXXZ
_TEXT	SEGMENT
__Pnext$15167 = -20					; size = 4
__Lock$15166 = -12					; size = 4
_this$ = -4						; size = 4
?_Orphan_all@_Container_base12@std@@QAEXXZ PROC		; std::_Container_base12::_Orphan_all, COMDAT
; _this$ = ecx

; 206  : 	{	// orphan all iterators

	push	ebp
	mov	ebp, esp
	sub	esp, 20					; 00000014H
	mov	eax, -858993460				; ccccccccH
	mov	DWORD PTR [ebp-20], eax
	mov	DWORD PTR [ebp-16], eax
	mov	DWORD PTR [ebp-12], eax
	mov	DWORD PTR [ebp-8], eax
	mov	DWORD PTR [ebp-4], eax
	mov	DWORD PTR _this$[ebp], ecx

; 207  :  #if _ITERATOR_DEBUG_LEVEL == 2
; 208  : 	if (_Myproxy != 0)

	mov	eax, DWORD PTR _this$[ebp]
	cmp	DWORD PTR [eax], 0
	je	SHORT $LN5@Orphan_all

; 209  : 		{	// proxy allocated, drain it
; 210  : 		_Lockit _Lock(_LOCK_DEBUG);

	push	3
	lea	ecx, DWORD PTR __Lock$15166[ebp]
	call	??0_Lockit@std@@QAE@H@Z			; std::_Lockit::_Lockit

; 211  : 
; 212  : 		for (_Iterator_base12 **_Pnext = &_Myproxy->_Myfirstiter;

	mov	ecx, DWORD PTR _this$[ebp]
	mov	edx, DWORD PTR [ecx]
	add	edx, 4
	mov	DWORD PTR __Pnext$15167[ebp], edx

; 213  : 			*_Pnext != 0; *_Pnext = (*_Pnext)->_Mynextiter)

	jmp	SHORT $LN3@Orphan_all
$LN2@Orphan_all:
	mov	eax, DWORD PTR __Pnext$15167[ebp]
	mov	ecx, DWORD PTR [eax]
	mov	edx, DWORD PTR __Pnext$15167[ebp]
	mov	eax, DWORD PTR [ecx+4]
	mov	DWORD PTR [edx], eax
$LN3@Orphan_all:
	mov	ecx, DWORD PTR __Pnext$15167[ebp]
	cmp	DWORD PTR [ecx], 0
	je	SHORT $LN1@Orphan_all

; 214  : 			(*_Pnext)->_Myproxy = 0;

	mov	edx, DWORD PTR __Pnext$15167[ebp]
	mov	eax, DWORD PTR [edx]
	mov	DWORD PTR [eax], 0
	jmp	SHORT $LN2@Orphan_all
$LN1@Orphan_all:

; 215  : 		_Myproxy->_Myfirstiter = 0;

	mov	ecx, DWORD PTR _this$[ebp]
	mov	edx, DWORD PTR [ecx]
	mov	DWORD PTR [edx+4], 0

; 216  : 		}

	lea	ecx, DWORD PTR __Lock$15166[ebp]
	call	??1_Lockit@std@@QAE@XZ			; std::_Lockit::~_Lockit
$LN5@Orphan_all:

; 217  :  #endif /* _ITERATOR_DEBUG_LEVEL == 2 */
; 218  : 	}

	push	edx
	mov	ecx, ebp
	push	eax
	lea	edx, DWORD PTR $LN10@Orphan_all
	call	@_RTC_CheckStackVars@8
	pop	eax
	pop	edx
	add	esp, 20					; 00000014H
	cmp	ebp, esp
	call	__RTC_CheckEsp
	mov	esp, ebp
	pop	ebp
	ret	0
	npad	3
$LN10@Orphan_all:
	DD	1
	DD	$LN9@Orphan_all
$LN9@Orphan_all:
	DD	-12					; fffffff4H
	DD	4
	DD	$LN8@Orphan_all
$LN8@Orphan_all:
	DB	95					; 0000005fH
	DB	76					; 0000004cH
	DB	111					; 0000006fH
	DB	99					; 00000063H
	DB	107					; 0000006bH
	DB	0
?_Orphan_all@_Container_base12@std@@QAEXXZ ENDP		; std::_Container_base12::_Orphan_all
_TEXT	ENDS
PUBLIC	??1_Container_base12@std@@QAE@XZ		; std::_Container_base12::~_Container_base12
PUBLIC	??$_Cons_val@V?$allocator@U_Container_proxy@std@@@std@@U_Container_proxy@2@U32@@std@@YAXAAV?$allocator@U_Container_proxy@std@@@0@PAU_Container_proxy@0@$$QAU20@@Z ; std::_Cons_val<std::allocator<std::_Container_proxy>,std::_Container_proxy,std::_Container_proxy>
PUBLIC	??0_Container_proxy@std@@QAE@XZ			; std::_Container_proxy::_Container_proxy
PUBLIC	?allocate@?$allocator@U_Container_proxy@std@@@std@@QAEPAU_Container_proxy@2@I@Z ; std::allocator<std::_Container_proxy>::allocate
PUBLIC	??$?0UVector2D@@@?$allocator@U_Container_proxy@std@@@std@@QAE@ABV?$allocator@UVector2D@@@1@@Z ; std::allocator<std::_Container_proxy>::allocator<std::_Container_proxy><Vector2D>
PUBLIC	??0?$allocator@UVector2D@@@std@@QAE@ABV01@@Z	; std::allocator<Vector2D>::allocator<Vector2D>
PUBLIC	??0_Container_base12@std@@QAE@XZ		; std::_Container_base12::_Container_base12
;	COMDAT xdata$x
; File c:\program files (x86)\microsoft visual studio 10.0\vc\include\vector
xdata$x	SEGMENT
__unwindtable$??0?$_Vector_val@UVector2D@@V?$allocator@UVector2D@@@std@@@std@@QAE@V?$allocator@UVector2D@@@1@@Z DD 0ffffffffH
	DD	FLAT:__unwindfunclet$??0?$_Vector_val@UVector2D@@V?$allocator@UVector2D@@@std@@@std@@QAE@V?$allocator@UVector2D@@@1@@Z$0
__ehfuncinfo$??0?$_Vector_val@UVector2D@@V?$allocator@UVector2D@@@std@@@std@@QAE@V?$allocator@UVector2D@@@1@@Z DD 019930522H
	DD	01H
	DD	FLAT:__unwindtable$??0?$_Vector_val@UVector2D@@V?$allocator@UVector2D@@@std@@@std@@QAE@V?$allocator@UVector2D@@@1@@Z
	DD	2 DUP(00H)
	DD	2 DUP(00H)
	DD	00H
	DD	01H
; Function compile flags: /Odtp /RTCsu
xdata$x	ENDS
;	COMDAT ??0?$_Vector_val@UVector2D@@V?$allocator@UVector2D@@@std@@@std@@QAE@V?$allocator@UVector2D@@@1@@Z
_TEXT	SEGMENT
$T146503 = -36						; size = 8
__Alproxy$ = -21					; size = 1
_this$ = -16						; size = 4
__$EHRec$ = -12						; size = 12
__Al$ = 8						; size = 1
??0?$_Vector_val@UVector2D@@V?$allocator@UVector2D@@@std@@@std@@QAE@V?$allocator@UVector2D@@@1@@Z PROC ; std::_Vector_val<Vector2D,std::allocator<Vector2D> >::_Vector_val<Vector2D,std::allocator<Vector2D> >, COMDAT
; _this$ = ecx

; 439  : 		{	// construct allocator from _Al

	push	ebp
	mov	ebp, esp
	push	-1
	push	__ehhandler$??0?$_Vector_val@UVector2D@@V?$allocator@UVector2D@@@std@@@std@@QAE@V?$allocator@UVector2D@@@1@@Z
	mov	eax, DWORD PTR fs:0
	push	eax
	sub	esp, 24					; 00000018H
	mov	eax, -858993460				; ccccccccH
	mov	DWORD PTR [ebp-36], eax
	mov	DWORD PTR [ebp-32], eax
	mov	DWORD PTR [ebp-28], eax
	mov	DWORD PTR [ebp-24], eax
	mov	DWORD PTR [ebp-20], eax
	mov	DWORD PTR [ebp-16], eax
	mov	eax, DWORD PTR ___security_cookie
	xor	eax, ebp
	push	eax
	lea	eax, DWORD PTR __$EHRec$[ebp]
	mov	DWORD PTR fs:0, eax
	mov	DWORD PTR _this$[ebp], ecx
	mov	ecx, DWORD PTR _this$[ebp]
	call	??0_Container_base12@std@@QAE@XZ	; std::_Container_base12::_Container_base12
	mov	DWORD PTR __$EHRec$[ebp+8], 0
	lea	eax, DWORD PTR __Al$[ebp]
	push	eax
	mov	ecx, DWORD PTR _this$[ebp]
	add	ecx, 16					; 00000010H
	call	??0?$allocator@UVector2D@@@std@@QAE@ABV01@@Z ; std::allocator<Vector2D>::allocator<Vector2D>

; 440  : 		typename _Alloc::template rebind<_Container_proxy>::other
; 441  : 			_Alproxy(_Alval);

	mov	ecx, DWORD PTR _this$[ebp]
	add	ecx, 16					; 00000010H
	push	ecx
	lea	ecx, DWORD PTR __Alproxy$[ebp]
	call	??$?0UVector2D@@@?$allocator@U_Container_proxy@std@@@std@@QAE@ABV?$allocator@UVector2D@@@1@@Z ; std::allocator<std::_Container_proxy>::allocator<std::_Container_proxy><Vector2D>

; 442  : 		this->_Myproxy = _Alproxy.allocate(1);

	push	1
	lea	ecx, DWORD PTR __Alproxy$[ebp]
	call	?allocate@?$allocator@U_Container_proxy@std@@@std@@QAEPAU_Container_proxy@2@I@Z ; std::allocator<std::_Container_proxy>::allocate
	mov	edx, DWORD PTR _this$[ebp]
	mov	DWORD PTR [edx], eax

; 443  : 		_Cons_val(_Alproxy, this->_Myproxy, _Container_proxy());

	lea	ecx, DWORD PTR $T146503[ebp]
	call	??0_Container_proxy@std@@QAE@XZ		; std::_Container_proxy::_Container_proxy
	push	eax
	mov	eax, DWORD PTR _this$[ebp]
	mov	ecx, DWORD PTR [eax]
	push	ecx
	lea	edx, DWORD PTR __Alproxy$[ebp]
	push	edx
	call	??$_Cons_val@V?$allocator@U_Container_proxy@std@@@std@@U_Container_proxy@2@U32@@std@@YAXAAV?$allocator@U_Container_proxy@std@@@0@PAU_Container_proxy@0@$$QAU20@@Z ; std::_Cons_val<std::allocator<std::_Container_proxy>,std::_Container_proxy,std::_Container_proxy>
	add	esp, 12					; 0000000cH

; 444  : 		this->_Myproxy->_Mycont = this;

	mov	eax, DWORD PTR _this$[ebp]
	mov	ecx, DWORD PTR [eax]
	mov	edx, DWORD PTR _this$[ebp]
	mov	DWORD PTR [ecx], edx

; 445  : 
; 446  : 		_Myfirst = 0;

	mov	eax, DWORD PTR _this$[ebp]
	mov	DWORD PTR [eax+4], 0

; 447  : 		_Mylast = 0;

	mov	ecx, DWORD PTR _this$[ebp]
	mov	DWORD PTR [ecx+8], 0

; 448  : 		_Myend = 0;

	mov	edx, DWORD PTR _this$[ebp]
	mov	DWORD PTR [edx+12], 0

; 449  : 		}

	mov	DWORD PTR __$EHRec$[ebp+8], -1
	mov	eax, DWORD PTR _this$[ebp]
	push	edx
	mov	ecx, ebp
	push	eax
	lea	edx, DWORD PTR $LN7@Vector_val
	call	@_RTC_CheckStackVars@8
	pop	eax
	pop	edx
	mov	ecx, DWORD PTR __$EHRec$[ebp]
	mov	DWORD PTR fs:0, ecx
	pop	ecx
	add	esp, 36					; 00000024H
	cmp	ebp, esp
	call	__RTC_CheckEsp
	mov	esp, ebp
	pop	ebp
	ret	4
$LN7@Vector_val:
	DD	1
	DD	$LN6@Vector_val
$LN6@Vector_val:
	DD	-21					; ffffffebH
	DD	1
	DD	$LN4@Vector_val
$LN4@Vector_val:
	DB	95					; 0000005fH
	DB	65					; 00000041H
	DB	108					; 0000006cH
	DB	112					; 00000070H
	DB	114					; 00000072H
	DB	111					; 0000006fH
	DB	120					; 00000078H
	DB	121					; 00000079H
	DB	0
_TEXT	ENDS
;	COMDAT text$x
text$x	SEGMENT
__unwindfunclet$??0?$_Vector_val@UVector2D@@V?$allocator@UVector2D@@@std@@@std@@QAE@V?$allocator@UVector2D@@@1@@Z$0:
	mov	ecx, DWORD PTR _this$[ebp]
	jmp	??1_Container_base12@std@@QAE@XZ	; std::_Container_base12::~_Container_base12
__ehhandler$??0?$_Vector_val@UVector2D@@V?$allocator@UVector2D@@@std@@@std@@QAE@V?$allocator@UVector2D@@@1@@Z:
	mov	edx, DWORD PTR [esp+8]
	lea	eax, DWORD PTR [edx+12]
	mov	ecx, DWORD PTR [edx-28]
	xor	ecx, eax
	call	@__security_check_cookie@4
	mov	eax, OFFSET __ehfuncinfo$??0?$_Vector_val@UVector2D@@V?$allocator@UVector2D@@@std@@@std@@QAE@V?$allocator@UVector2D@@@1@@Z
	jmp	___CxxFrameHandler3
text$x	ENDS
??0?$_Vector_val@UVector2D@@V?$allocator@UVector2D@@@std@@@std@@QAE@V?$allocator@UVector2D@@@1@@Z ENDP ; std::_Vector_val<Vector2D,std::allocator<Vector2D> >::_Vector_val<Vector2D,std::allocator<Vector2D> >
; Function compile flags: /Odtp /RTCsu
; File c:\program files (x86)\microsoft visual studio 10.0\vc\include\xutility
;	COMDAT ??0_Container_proxy@std@@QAE@XZ
_TEXT	SEGMENT
_this$ = -4						; size = 4
??0_Container_proxy@std@@QAE@XZ PROC			; std::_Container_proxy::_Container_proxy, COMDAT
; _this$ = ecx

; 65   : 		{	// construct from pointers

	push	ebp
	mov	ebp, esp
	push	ecx
	mov	DWORD PTR [ebp-4], -858993460		; ccccccccH
	mov	DWORD PTR _this$[ebp], ecx
	mov	eax, DWORD PTR _this$[ebp]
	mov	DWORD PTR [eax], 0
	mov	ecx, DWORD PTR _this$[ebp]
	mov	DWORD PTR [ecx+4], 0

; 66   : 		}

	mov	eax, DWORD PTR _this$[ebp]
	mov	esp, ebp
	pop	ebp
	ret	0
??0_Container_proxy@std@@QAE@XZ ENDP			; std::_Container_proxy::_Container_proxy
; Function compile flags: /Odtp /RTCsu
_TEXT	ENDS
;	COMDAT ??0_Container_base12@std@@QAE@XZ
_TEXT	SEGMENT
_this$ = -4						; size = 4
??0_Container_base12@std@@QAE@XZ PROC			; std::_Container_base12::_Container_base12, COMDAT
; _this$ = ecx

; 77   : 		{	// construct childless container

	push	ebp
	mov	ebp, esp
	push	ecx
	mov	DWORD PTR [ebp-4], -858993460		; ccccccccH
	mov	DWORD PTR _this$[ebp], ecx
	mov	eax, DWORD PTR _this$[ebp]
	mov	DWORD PTR [eax], 0

; 78   : 		}

	mov	eax, DWORD PTR _this$[ebp]
	mov	esp, ebp
	pop	ebp
	ret	0
??0_Container_base12@std@@QAE@XZ ENDP			; std::_Container_base12::_Container_base12
; Function compile flags: /Odtp /RTCsu
_TEXT	ENDS
;	COMDAT ??1_Container_base12@std@@QAE@XZ
_TEXT	SEGMENT
_this$ = -4						; size = 4
??1_Container_base12@std@@QAE@XZ PROC			; std::_Container_base12::~_Container_base12, COMDAT
; _this$ = ecx

; 91   : 		{	// destroy the container

	push	ebp
	mov	ebp, esp
	push	ecx
	mov	DWORD PTR [ebp-4], -858993460		; ccccccccH
	mov	DWORD PTR _this$[ebp], ecx

; 92   : 		_Orphan_all();

	mov	ecx, DWORD PTR _this$[ebp]
	call	?_Orphan_all@_Container_base12@std@@QAEXXZ ; std::_Container_base12::_Orphan_all

; 93   : 		}

	add	esp, 4
	cmp	ebp, esp
	call	__RTC_CheckEsp
	mov	esp, ebp
	pop	ebp
	ret	0
??1_Container_base12@std@@QAE@XZ ENDP			; std::_Container_base12::~_Container_base12
_TEXT	ENDS
PUBLIC	?deallocate@?$allocator@U_Container_proxy@std@@@std@@QAEXPAU_Container_proxy@2@I@Z ; std::allocator<std::_Container_proxy>::deallocate
PUBLIC	??$_Dest_val@V?$allocator@U_Container_proxy@std@@@std@@U_Container_proxy@2@@std@@YAXAAV?$allocator@U_Container_proxy@std@@@0@PAU_Container_proxy@0@@Z ; std::_Dest_val<std::allocator<std::_Container_proxy>,std::_Container_proxy>
;	COMDAT xdata$x
; File c:\program files (x86)\microsoft visual studio 10.0\vc\include\vector
xdata$x	SEGMENT
__unwindtable$??1?$_Vector_val@UVector2D@@V?$allocator@UVector2D@@@std@@@std@@QAE@XZ DD 0ffffffffH
	DD	FLAT:__unwindfunclet$??1?$_Vector_val@UVector2D@@V?$allocator@UVector2D@@@std@@@std@@QAE@XZ$0
__ehfuncinfo$??1?$_Vector_val@UVector2D@@V?$allocator@UVector2D@@@std@@@std@@QAE@XZ DD 019930522H
	DD	01H
	DD	FLAT:__unwindtable$??1?$_Vector_val@UVector2D@@V?$allocator@UVector2D@@@std@@@std@@QAE@XZ
	DD	2 DUP(00H)
	DD	2 DUP(00H)
	DD	00H
	DD	01H
; Function compile flags: /Odtp /RTCsu
xdata$x	ENDS
;	COMDAT ??1?$_Vector_val@UVector2D@@V?$allocator@UVector2D@@@std@@@std@@QAE@XZ
_TEXT	SEGMENT
__Alproxy$ = -21					; size = 1
_this$ = -16						; size = 4
__$EHRec$ = -12						; size = 12
??1?$_Vector_val@UVector2D@@V?$allocator@UVector2D@@@std@@@std@@QAE@XZ PROC ; std::_Vector_val<Vector2D,std::allocator<Vector2D> >::~_Vector_val<Vector2D,std::allocator<Vector2D> >, COMDAT
; _this$ = ecx

; 452  : 		{	// destroy proxy

	push	ebp
	mov	ebp, esp
	push	-1
	push	__ehhandler$??1?$_Vector_val@UVector2D@@V?$allocator@UVector2D@@@std@@@std@@QAE@XZ
	mov	eax, DWORD PTR fs:0
	push	eax
	sub	esp, 16					; 00000010H
	mov	eax, -858993460				; ccccccccH
	mov	DWORD PTR [ebp-28], eax
	mov	DWORD PTR [ebp-24], eax
	mov	DWORD PTR [ebp-20], eax
	mov	DWORD PTR [ebp-16], eax
	mov	eax, DWORD PTR ___security_cookie
	xor	eax, ebp
	push	eax
	lea	eax, DWORD PTR __$EHRec$[ebp]
	mov	DWORD PTR fs:0, eax
	mov	DWORD PTR _this$[ebp], ecx
	mov	DWORD PTR __$EHRec$[ebp+8], 0

; 453  : 		typename _Alloc::template rebind<_Container_proxy>::other
; 454  : 			_Alproxy(_Alval);

	mov	eax, DWORD PTR _this$[ebp]
	add	eax, 16					; 00000010H
	push	eax
	lea	ecx, DWORD PTR __Alproxy$[ebp]
	call	??$?0UVector2D@@@?$allocator@U_Container_proxy@std@@@std@@QAE@ABV?$allocator@UVector2D@@@1@@Z ; std::allocator<std::_Container_proxy>::allocator<std::_Container_proxy><Vector2D>

; 455  : 		this->_Orphan_all();

	mov	ecx, DWORD PTR _this$[ebp]
	call	?_Orphan_all@_Container_base12@std@@QAEXXZ ; std::_Container_base12::_Orphan_all

; 456  : 		_Dest_val(_Alproxy, this->_Myproxy);

	mov	ecx, DWORD PTR _this$[ebp]
	mov	edx, DWORD PTR [ecx]
	push	edx
	lea	eax, DWORD PTR __Alproxy$[ebp]
	push	eax
	call	??$_Dest_val@V?$allocator@U_Container_proxy@std@@@std@@U_Container_proxy@2@@std@@YAXAAV?$allocator@U_Container_proxy@std@@@0@PAU_Container_proxy@0@@Z ; std::_Dest_val<std::allocator<std::_Container_proxy>,std::_Container_proxy>
	add	esp, 8

; 457  : 		_Alproxy.deallocate(this->_Myproxy, 1);

	push	1
	mov	ecx, DWORD PTR _this$[ebp]
	mov	edx, DWORD PTR [ecx]
	push	edx
	lea	ecx, DWORD PTR __Alproxy$[ebp]
	call	?deallocate@?$allocator@U_Container_proxy@std@@@std@@QAEXPAU_Container_proxy@2@I@Z ; std::allocator<std::_Container_proxy>::deallocate

; 458  : 		this->_Myproxy = 0;

	mov	eax, DWORD PTR _this$[ebp]
	mov	DWORD PTR [eax], 0

; 459  : 		}

	mov	DWORD PTR __$EHRec$[ebp+8], -1
	mov	ecx, DWORD PTR _this$[ebp]
	call	??1_Container_base12@std@@QAE@XZ	; std::_Container_base12::~_Container_base12
	push	edx
	mov	ecx, ebp
	push	eax
	lea	edx, DWORD PTR $LN7@Vector_val@2
	call	@_RTC_CheckStackVars@8
	pop	eax
	pop	edx
	mov	ecx, DWORD PTR __$EHRec$[ebp]
	mov	DWORD PTR fs:0, ecx
	pop	ecx
	add	esp, 28					; 0000001cH
	cmp	ebp, esp
	call	__RTC_CheckEsp
	mov	esp, ebp
	pop	ebp
	ret	0
	npad	1
$LN7@Vector_val@2:
	DD	1
	DD	$LN6@Vector_val@2
$LN6@Vector_val@2:
	DD	-21					; ffffffebH
	DD	1
	DD	$LN4@Vector_val@2
$LN4@Vector_val@2:
	DB	95					; 0000005fH
	DB	65					; 00000041H
	DB	108					; 0000006cH
	DB	112					; 00000070H
	DB	114					; 00000072H
	DB	111					; 0000006fH
	DB	120					; 00000078H
	DB	121					; 00000079H
	DB	0
_TEXT	ENDS
;	COMDAT text$x
text$x	SEGMENT
__unwindfunclet$??1?$_Vector_val@UVector2D@@V?$allocator@UVector2D@@@std@@@std@@QAE@XZ$0:
	mov	ecx, DWORD PTR _this$[ebp]
	jmp	??1_Container_base12@std@@QAE@XZ	; std::_Container_base12::~_Container_base12
__ehhandler$??1?$_Vector_val@UVector2D@@V?$allocator@UVector2D@@@std@@@std@@QAE@XZ:
	mov	edx, DWORD PTR [esp+8]
	lea	eax, DWORD PTR [edx+12]
	mov	ecx, DWORD PTR [edx-20]
	xor	ecx, eax
	call	@__security_check_cookie@4
	mov	eax, OFFSET __ehfuncinfo$??1?$_Vector_val@UVector2D@@V?$allocator@UVector2D@@@std@@@std@@QAE@XZ
	jmp	___CxxFrameHandler3
text$x	ENDS
??1?$_Vector_val@UVector2D@@V?$allocator@UVector2D@@@std@@@std@@QAE@XZ ENDP ; std::_Vector_val<Vector2D,std::allocator<Vector2D> >::~_Vector_val<Vector2D,std::allocator<Vector2D> >
; Function compile flags: /Odtp /RTCsu
; File c:\program files (x86)\microsoft visual studio 10.0\vc\include\xmemory
;	COMDAT ??0?$allocator@UVector2D@@@std@@QAE@XZ
_TEXT	SEGMENT
_this$ = -4						; size = 4
??0?$allocator@UVector2D@@@std@@QAE@XZ PROC		; std::allocator<Vector2D>::allocator<Vector2D>, COMDAT
; _this$ = ecx

; 161  : 	_ALLOCATOR() _THROW0()

	push	ebp
	mov	ebp, esp
	push	ecx
	mov	DWORD PTR [ebp-4], -858993460		; ccccccccH
	mov	DWORD PTR _this$[ebp], ecx

; 162  : 		{	// construct default allocator (do nothing)
; 163  : 		}

	mov	eax, DWORD PTR _this$[ebp]
	mov	esp, ebp
	pop	ebp
	ret	0
??0?$allocator@UVector2D@@@std@@QAE@XZ ENDP		; std::allocator<Vector2D>::allocator<Vector2D>
; Function compile flags: /Odtp /RTCsu
_TEXT	ENDS
;	COMDAT ??0?$allocator@UVector2D@@@std@@QAE@ABV01@@Z
_TEXT	SEGMENT
_this$ = -4						; size = 4
___formal$ = 8						; size = 4
??0?$allocator@UVector2D@@@std@@QAE@ABV01@@Z PROC	; std::allocator<Vector2D>::allocator<Vector2D>, COMDAT
; _this$ = ecx

; 165  : 	_ALLOCATOR(const _ALLOCATOR<_Ty>&) _THROW0()

	push	ebp
	mov	ebp, esp
	push	ecx
	mov	DWORD PTR [ebp-4], -858993460		; ccccccccH
	mov	DWORD PTR _this$[ebp], ecx

; 166  : 		{	// construct by copying (do nothing)
; 167  : 		}

	mov	eax, DWORD PTR _this$[ebp]
	mov	esp, ebp
	pop	ebp
	ret	4
??0?$allocator@UVector2D@@@std@@QAE@ABV01@@Z ENDP	; std::allocator<Vector2D>::allocator<Vector2D>
; Function compile flags: /Odtp /RTCsu
; File c:\program files (x86)\microsoft visual studio 10.0\vc\include\list
_TEXT	ENDS
;	COMDAT ?_Nextnode@?$_List_val@PAVAbstRaven_Bot@@V?$allocator@PAVAbstRaven_Bot@@@std@@@std@@SAAAPAU_Node@?$_List_nod@PAVAbstRaven_Bot@@V?$allocator@PAVAbstRaven_Bot@@@std@@@2@PAU342@@Z
_TEXT	SEGMENT
__Pnode$ = 8						; size = 4
?_Nextnode@?$_List_val@PAVAbstRaven_Bot@@V?$allocator@PAVAbstRaven_Bot@@@std@@@std@@SAAAPAU_Node@?$_List_nod@PAVAbstRaven_Bot@@V?$allocator@PAVAbstRaven_Bot@@@std@@@2@PAU342@@Z PROC ; std::_List_val<AbstRaven_Bot *,std::allocator<AbstRaven_Bot *> >::_Nextnode, COMDAT

; 560  : 		{	// return reference to successor pointer in node

	push	ebp
	mov	ebp, esp

; 561  : 		return ((_Nodepref)(*_Pnode)._Next);

	mov	eax, DWORD PTR __Pnode$[ebp]

; 562  : 		}

	pop	ebp
	ret	0
?_Nextnode@?$_List_val@PAVAbstRaven_Bot@@V?$allocator@PAVAbstRaven_Bot@@@std@@@std@@SAAAPAU_Node@?$_List_nod@PAVAbstRaven_Bot@@V?$allocator@PAVAbstRaven_Bot@@@std@@@2@PAU342@@Z ENDP ; std::_List_val<AbstRaven_Bot *,std::allocator<AbstRaven_Bot *> >::_Nextnode
; Function compile flags: /Odtp /RTCsu
_TEXT	ENDS
;	COMDAT ?_Myval@?$_List_val@PAVAbstRaven_Bot@@V?$allocator@PAVAbstRaven_Bot@@@std@@@std@@SAAAPAVAbstRaven_Bot@@PAU_Node@?$_List_nod@PAVAbstRaven_Bot@@V?$allocator@PAVAbstRaven_Bot@@@std@@@2@@Z
_TEXT	SEGMENT
__Pnode$ = 8						; size = 4
?_Myval@?$_List_val@PAVAbstRaven_Bot@@V?$allocator@PAVAbstRaven_Bot@@@std@@@std@@SAAAPAVAbstRaven_Bot@@PAU_Node@?$_List_nod@PAVAbstRaven_Bot@@V?$allocator@PAVAbstRaven_Bot@@@std@@@2@@Z PROC ; std::_List_val<AbstRaven_Bot *,std::allocator<AbstRaven_Bot *> >::_Myval, COMDAT

; 570  : 		{	// return reference to value in node

	push	ebp
	mov	ebp, esp

; 571  : 		return ((reference)(*_Pnode)._Myval);

	mov	eax, DWORD PTR __Pnode$[ebp]
	add	eax, 8

; 572  : 		}

	pop	ebp
	ret	0
?_Myval@?$_List_val@PAVAbstRaven_Bot@@V?$allocator@PAVAbstRaven_Bot@@@std@@@std@@SAAAPAVAbstRaven_Bot@@PAU_Node@?$_List_nod@PAVAbstRaven_Bot@@V?$allocator@PAVAbstRaven_Bot@@@std@@@2@@Z ENDP ; std::_List_val<AbstRaven_Bot *,std::allocator<AbstRaven_Bot *> >::_Myval
_TEXT	ENDS
PUBLIC	??0?$_List_unchecked_const_iterator@V?$_List_val@PAVAbstRaven_Bot@@V?$allocator@PAVAbstRaven_Bot@@@std@@@std@@U_Iterator_base12@2@@std@@QAE@PAU_Node@?$_List_nod@PAVAbstRaven_Bot@@V?$allocator@PAVAbstRaven_Bot@@@std@@@1@PBV?$_List_val@PAVAbstRaven_Bot@@V?$allocator@PAVAbstRaven_Bot@@@std@@@1@@Z ; std::_List_unchecked_const_iterator<std::_List_val<AbstRaven_Bot *,std::allocator<AbstRaven_Bot *> >,std::_Iterator_base12>::_List_unchecked_const_iterator<std::_List_val<AbstRaven_Bot *,std::allocator<AbstRaven_Bot *> >,std::_Iterator_base12>
; Function compile flags: /Odtp /RTCsu
;	COMDAT ??0?$_List_const_iterator@V?$_List_val@PAVAbstRaven_Bot@@V?$allocator@PAVAbstRaven_Bot@@@std@@@std@@@std@@QAE@PAU_Node@?$_List_nod@PAVAbstRaven_Bot@@V?$allocator@PAVAbstRaven_Bot@@@std@@@1@PBV?$_List_val@PAVAbstRaven_Bot@@V?$allocator@PAVAbstRaven_Bot@@@std@@@1@@Z
_TEXT	SEGMENT
_this$ = -4						; size = 4
__Pnode$ = 8						; size = 4
__Plist$ = 12						; size = 4
??0?$_List_const_iterator@V?$_List_val@PAVAbstRaven_Bot@@V?$allocator@PAVAbstRaven_Bot@@@std@@@std@@@std@@QAE@PAU_Node@?$_List_nod@PAVAbstRaven_Bot@@V?$allocator@PAVAbstRaven_Bot@@@std@@@1@PBV?$_List_val@PAVAbstRaven_Bot@@V?$allocator@PAVAbstRaven_Bot@@@std@@@1@@Z PROC ; std::_List_const_iterator<std::_List_val<AbstRaven_Bot *,std::allocator<AbstRaven_Bot *> > >::_List_const_iterator<std::_List_val<AbstRaven_Bot *,std::allocator<AbstRaven_Bot *> > >, COMDAT
; _this$ = ecx

; 184  : 		{	// construct with node pointer _Pnode

	push	ebp
	mov	ebp, esp
	push	ecx
	mov	DWORD PTR [ebp-4], -858993460		; ccccccccH
	mov	DWORD PTR _this$[ebp], ecx
	mov	eax, DWORD PTR __Plist$[ebp]
	push	eax
	mov	ecx, DWORD PTR __Pnode$[ebp]
	push	ecx
	mov	ecx, DWORD PTR _this$[ebp]
	call	??0?$_List_unchecked_const_iterator@V?$_List_val@PAVAbstRaven_Bot@@V?$allocator@PAVAbstRaven_Bot@@@std@@@std@@U_Iterator_base12@2@@std@@QAE@PAU_Node@?$_List_nod@PAVAbstRaven_Bot@@V?$allocator@PAVAbstRaven_Bot@@@std@@@1@PBV?$_List_val@PAVAbstRaven_Bot@@V?$allocator@PAVAbstRaven_Bot@@@std@@@1@@Z ; std::_List_unchecked_const_iterator<std::_List_val<AbstRaven_Bot *,std::allocator<AbstRaven_Bot *> >,std::_Iterator_base12>::_List_unchecked_const_iterator<std::_List_val<AbstRaven_Bot *,std::allocator<AbstRaven_Bot *> >,std::_Iterator_base12>

; 185  : 		}

	mov	eax, DWORD PTR _this$[ebp]
	add	esp, 4
	cmp	ebp, esp
	call	__RTC_CheckEsp
	mov	esp, ebp
	pop	ebp
	ret	8
??0?$_List_const_iterator@V?$_List_val@PAVAbstRaven_Bot@@V?$allocator@PAVAbstRaven_Bot@@@std@@@std@@@std@@QAE@PAU_Node@?$_List_nod@PAVAbstRaven_Bot@@V?$allocator@PAVAbstRaven_Bot@@@std@@@1@PBV?$_List_val@PAVAbstRaven_Bot@@V?$allocator@PAVAbstRaven_Bot@@@std@@@1@@Z ENDP ; std::_List_const_iterator<std::_List_val<AbstRaven_Bot *,std::allocator<AbstRaven_Bot *> > >::_List_const_iterator<std::_List_val<AbstRaven_Bot *,std::allocator<AbstRaven_Bot *> > >
_TEXT	ENDS
PUBLIC	??_C@_1CG@JNLFBNGN@?$AA?$CC?$AAi?$AAn?$AAv?$AAa?$AAl?$AAi?$AAd?$AA?5?$AAa?$AAr?$AAg?$AAu?$AAm?$AAe?$AAn?$AAt?$AA?$CC?$AA?$AA@ ; `string'
PUBLIC	??_C@_1BAE@DINEGMNP@?$AAs?$AAt?$AAd?$AA?3?$AA?3?$AA_?$AAL?$AAi?$AAs?$AAt?$AA_?$AAc?$AAo?$AAn?$AAs?$AAt?$AA_?$AAi?$AAt?$AAe?$AAr?$AAa?$AAt?$AAo?$AAr?$AA?$DM?$AAc?$AAl?$AAa?$AAs?$AAs?$AA?5@ ; `string'
PUBLIC	??_C@_1FO@GJIHNDLM@?$AA?$CC?$AAS?$AAt?$AAa?$AAn?$AAd?$AAa?$AAr?$AAd?$AA?5?$AAC?$AA?$CL?$AA?$CL?$AA?5?$AAL?$AAi?$AAb?$AAr?$AAa?$AAr?$AAi?$AAe?$AAs?$AA?5?$AAI?$AAn?$AAv?$AAa?$AAl?$AAi?$AAd?$AA?5@ ; `string'
PUBLIC	??_C@_0CI@FNPHFCCM@Standard?5C?$CL?$CL?5Libraries?5Invalid?5A@ ; `string'
PUBLIC	??_C@_1DI@MDELDGPI@?$AAl?$AAi?$AAs?$AAt?$AA?5?$AAi?$AAt?$AAe?$AAr?$AAa?$AAt?$AAo?$AAr?$AAs?$AA?5?$AAi?$AAn?$AAc?$AAo?$AAm?$AAp?$AAa?$AAt?$AAi?$AAb?$AAl?$AAe?$AA?$AA@ ; `string'
;	COMDAT ??_C@_1CG@JNLFBNGN@?$AA?$CC?$AAi?$AAn?$AAv?$AAa?$AAl?$AAi?$AAd?$AA?5?$AAa?$AAr?$AAg?$AAu?$AAm?$AAe?$AAn?$AAt?$AA?$CC?$AA?$AA@
CONST	SEGMENT
??_C@_1CG@JNLFBNGN@?$AA?$CC?$AAi?$AAn?$AAv?$AAa?$AAl?$AAi?$AAd?$AA?5?$AAa?$AAr?$AAg?$AAu?$AAm?$AAe?$AAn?$AAt?$AA?$CC?$AA?$AA@ DB '"'
	DB	00H, 'i', 00H, 'n', 00H, 'v', 00H, 'a', 00H, 'l', 00H, 'i', 00H
	DB	'd', 00H, ' ', 00H, 'a', 00H, 'r', 00H, 'g', 00H, 'u', 00H, 'm'
	DB	00H, 'e', 00H, 'n', 00H, 't', 00H, '"', 00H, 00H, 00H ; `string'
CONST	ENDS
;	COMDAT ??_C@_1BAE@DINEGMNP@?$AAs?$AAt?$AAd?$AA?3?$AA?3?$AA_?$AAL?$AAi?$AAs?$AAt?$AA_?$AAc?$AAo?$AAn?$AAs?$AAt?$AA_?$AAi?$AAt?$AAe?$AAr?$AAa?$AAt?$AAo?$AAr?$AA?$DM?$AAc?$AAl?$AAa?$AAs?$AAs?$AA?5@
CONST	SEGMENT
??_C@_1BAE@DINEGMNP@?$AAs?$AAt?$AAd?$AA?3?$AA?3?$AA_?$AAL?$AAi?$AAs?$AAt?$AA_?$AAc?$AAo?$AAn?$AAs?$AAt?$AA_?$AAi?$AAt?$AAe?$AAr?$AAa?$AAt?$AAo?$AAr?$AA?$DM?$AAc?$AAl?$AAa?$AAs?$AAs?$AA?5@ DB 's'
	DB	00H, 't', 00H, 'd', 00H, ':', 00H, ':', 00H, '_', 00H, 'L', 00H
	DB	'i', 00H, 's', 00H, 't', 00H, '_', 00H, 'c', 00H, 'o', 00H, 'n'
	DB	00H, 's', 00H, 't', 00H, '_', 00H, 'i', 00H, 't', 00H, 'e', 00H
	DB	'r', 00H, 'a', 00H, 't', 00H, 'o', 00H, 'r', 00H, '<', 00H, 'c'
	DB	00H, 'l', 00H, 'a', 00H, 's', 00H, 's', 00H, ' ', 00H, 's', 00H
	DB	't', 00H, 'd', 00H, ':', 00H, ':', 00H, '_', 00H, 'L', 00H, 'i'
	DB	00H, 's', 00H, 't', 00H, '_', 00H, 'v', 00H, 'a', 00H, 'l', 00H
	DB	'<', 00H, 'c', 00H, 'l', 00H, 'a', 00H, 's', 00H, 's', 00H, ' '
	DB	00H, 'A', 00H, 'b', 00H, 's', 00H, 't', 00H, 'R', 00H, 'a', 00H
	DB	'v', 00H, 'e', 00H, 'n', 00H, '_', 00H, 'B', 00H, 'o', 00H, 't'
	DB	00H, ' ', 00H, '*', 00H, ',', 00H, 'c', 00H, 'l', 00H, 'a', 00H
	DB	's', 00H, 's', 00H, ' ', 00H, 's', 00H, 't', 00H, 'd', 00H, ':'
	DB	00H, ':', 00H, 'a', 00H, 'l', 00H, 'l', 00H, 'o', 00H, 'c', 00H
	DB	'a', 00H, 't', 00H, 'o', 00H, 'r', 00H, '<', 00H, 'c', 00H, 'l'
	DB	00H, 'a', 00H, 's', 00H, 's', 00H, ' ', 00H, 'A', 00H, 'b', 00H
	DB	's', 00H, 't', 00H, 'R', 00H, 'a', 00H, 'v', 00H, 'e', 00H, 'n'
	DB	00H, '_', 00H, 'B', 00H, 'o', 00H, 't', 00H, ' ', 00H, '*', 00H
	DB	'>', 00H, ' ', 00H, '>', 00H, ' ', 00H, '>', 00H, ':', 00H, ':'
	DB	00H, 'o', 00H, 'p', 00H, 'e', 00H, 'r', 00H, 'a', 00H, 't', 00H
	DB	'o', 00H, 'r', 00H, ' ', 00H, '=', 00H, '=', 00H, 00H, 00H ; `string'
CONST	ENDS
;	COMDAT ??_C@_1FO@GJIHNDLM@?$AA?$CC?$AAS?$AAt?$AAa?$AAn?$AAd?$AAa?$AAr?$AAd?$AA?5?$AAC?$AA?$CL?$AA?$CL?$AA?5?$AAL?$AAi?$AAb?$AAr?$AAa?$AAr?$AAi?$AAe?$AAs?$AA?5?$AAI?$AAn?$AAv?$AAa?$AAl?$AAi?$AAd?$AA?5@
CONST	SEGMENT
??_C@_1FO@GJIHNDLM@?$AA?$CC?$AAS?$AAt?$AAa?$AAn?$AAd?$AAa?$AAr?$AAd?$AA?5?$AAC?$AA?$CL?$AA?$CL?$AA?5?$AAL?$AAi?$AAb?$AAr?$AAa?$AAr?$AAi?$AAe?$AAs?$AA?5?$AAI?$AAn?$AAv?$AAa?$AAl?$AAi?$AAd?$AA?5@ DB '"'
	DB	00H, 'S', 00H, 't', 00H, 'a', 00H, 'n', 00H, 'd', 00H, 'a', 00H
	DB	'r', 00H, 'd', 00H, ' ', 00H, 'C', 00H, '+', 00H, '+', 00H, ' '
	DB	00H, 'L', 00H, 'i', 00H, 'b', 00H, 'r', 00H, 'a', 00H, 'r', 00H
	DB	'i', 00H, 'e', 00H, 's', 00H, ' ', 00H, 'I', 00H, 'n', 00H, 'v'
	DB	00H, 'a', 00H, 'l', 00H, 'i', 00H, 'd', 00H, ' ', 00H, 'A', 00H
	DB	'r', 00H, 'g', 00H, 'u', 00H, 'm', 00H, 'e', 00H, 'n', 00H, 't'
	DB	00H, '"', 00H, ' ', 00H, '&', 00H, '&', 00H, ' ', 00H, '0', 00H
	DB	00H, 00H					; `string'
CONST	ENDS
;	COMDAT ??_C@_0CI@FNPHFCCM@Standard?5C?$CL?$CL?5Libraries?5Invalid?5A@
CONST	SEGMENT
??_C@_0CI@FNPHFCCM@Standard?5C?$CL?$CL?5Libraries?5Invalid?5A@ DB 'Standa'
	DB	'rd C++ Libraries Invalid Argument', 00H	; `string'
CONST	ENDS
;	COMDAT ??_C@_1DI@MDELDGPI@?$AAl?$AAi?$AAs?$AAt?$AA?5?$AAi?$AAt?$AAe?$AAr?$AAa?$AAt?$AAo?$AAr?$AAs?$AA?5?$AAi?$AAn?$AAc?$AAo?$AAm?$AAp?$AAa?$AAt?$AAi?$AAb?$AAl?$AAe?$AA?$AA@
CONST	SEGMENT
??_C@_1DI@MDELDGPI@?$AAl?$AAi?$AAs?$AAt?$AA?5?$AAi?$AAt?$AAe?$AAr?$AAa?$AAt?$AAo?$AAr?$AAs?$AA?5?$AAi?$AAn?$AAc?$AAo?$AAm?$AAp?$AAa?$AAt?$AAi?$AAb?$AAl?$AAe?$AA?$AA@ DB 'l'
	DB	00H, 'i', 00H, 's', 00H, 't', 00H, ' ', 00H, 'i', 00H, 't', 00H
	DB	'e', 00H, 'r', 00H, 'a', 00H, 't', 00H, 'o', 00H, 'r', 00H, 's'
	DB	00H, ' ', 00H, 'i', 00H, 'n', 00H, 'c', 00H, 'o', 00H, 'm', 00H
	DB	'p', 00H, 'a', 00H, 't', 00H, 'i', 00H, 'b', 00H, 'l', 00H, 'e'
	DB	00H, 00H, 00H				; `string'
; Function compile flags: /Odtp /RTCsu
CONST	ENDS
;	COMDAT ??8?$_List_const_iterator@V?$_List_val@PAVAbstRaven_Bot@@V?$allocator@PAVAbstRaven_Bot@@@std@@@std@@@std@@QBE_NABV01@@Z
_TEXT	SEGMENT
_this$ = -4						; size = 4
__Right$ = 8						; size = 4
??8?$_List_const_iterator@V?$_List_val@PAVAbstRaven_Bot@@V?$allocator@PAVAbstRaven_Bot@@@std@@@std@@@std@@QBE_NABV01@@Z PROC ; std::_List_const_iterator<std::_List_val<AbstRaven_Bot *,std::allocator<AbstRaven_Bot *> > >::operator==, COMDAT
; _this$ = ecx

; 281  : 		{	// test for iterator equality

	push	ebp
	mov	ebp, esp
	push	ecx
	push	esi
	mov	DWORD PTR [ebp-4], -858993460		; ccccccccH
	mov	DWORD PTR _this$[ebp], ecx

; 282  :  #if _ITERATOR_DEBUG_LEVEL == 2
; 283  : 		if (this->_Getcont() == 0
; 284  : 			|| this->_Getcont() != _Right._Getcont())

	mov	ecx, DWORD PTR _this$[ebp]
	call	?_Getcont@_Iterator_base12@std@@QBEPBU_Container_base12@2@XZ ; std::_Iterator_base12::_Getcont
	test	eax, eax
	je	SHORT $LN1@operator@10
	mov	ecx, DWORD PTR _this$[ebp]
	call	?_Getcont@_Iterator_base12@std@@QBEPBU_Container_base12@2@XZ ; std::_Iterator_base12::_Getcont
	mov	esi, eax
	mov	ecx, DWORD PTR __Right$[ebp]
	call	?_Getcont@_Iterator_base12@std@@QBEPBU_Container_base12@2@XZ ; std::_Iterator_base12::_Getcont
	cmp	esi, eax
	je	SHORT $LN2@operator@10
$LN1@operator@10:

; 285  : 			{	// report error
; 286  : 			_DEBUG_ERROR("list iterators incompatible");

	push	286					; 0000011eH
	push	OFFSET ??_C@_1II@KCMIDAEO@?$AAc?$AA?3?$AA?2?$AAP?$AAr?$AAo?$AAg?$AAr?$AAa?$AAm?$AA?5?$AAF?$AAi?$AAl?$AAe?$AAs?$AA?5?$AA?$CI?$AAx?$AA8?$AA6?$AA?$CJ?$AA?2?$AAM?$AAi?$AAc?$AAr?$AAo?$AAs?$AAo?$AAf?$AAt@
	push	OFFSET ??_C@_1DI@MDELDGPI@?$AAl?$AAi?$AAs?$AAt?$AA?5?$AAi?$AAt?$AAe?$AAr?$AAa?$AAt?$AAo?$AAr?$AAs?$AA?5?$AAi?$AAn?$AAc?$AAo?$AAm?$AAp?$AAa?$AAt?$AAi?$AAb?$AAl?$AAe?$AA?$AA@
	call	?_Debug_message@std@@YAXPB_W0I@Z	; std::_Debug_message
	add	esp, 12					; 0000000cH

; 287  : 			_SCL_SECURE_INVALID_ARGUMENT;

	mov	eax, OFFSET ??_C@_0CI@FNPHFCCM@Standard?5C?$CL?$CL?5Libraries?5Invalid?5A@
	test	eax, eax
	je	SHORT $LN5@operator@10
	xor	ecx, ecx
	jne	SHORT $LN6@operator@10
$LN5@operator@10:
	push	OFFSET ??_C@_1FO@GJIHNDLM@?$AA?$CC?$AAS?$AAt?$AAa?$AAn?$AAd?$AAa?$AAr?$AAd?$AA?5?$AAC?$AA?$CL?$AA?$CL?$AA?5?$AAL?$AAi?$AAb?$AAr?$AAa?$AAr?$AAi?$AAe?$AAs?$AA?5?$AAI?$AAn?$AAv?$AAa?$AAl?$AAi?$AAd?$AA?5@
	push	0
	push	287					; 0000011fH
	push	OFFSET ??_C@_1II@KCMIDAEO@?$AAc?$AA?3?$AA?2?$AAP?$AAr?$AAo?$AAg?$AAr?$AAa?$AAm?$AA?5?$AAF?$AAi?$AAl?$AAe?$AAs?$AA?5?$AA?$CI?$AAx?$AA8?$AA6?$AA?$CJ?$AA?2?$AAM?$AAi?$AAc?$AAr?$AAo?$AAs?$AAo?$AAf?$AAt@
	push	2
	call	__CrtDbgReportW
	add	esp, 20					; 00000014H
	cmp	eax, 1
	jne	SHORT $LN6@operator@10
	int	3
$LN6@operator@10:
	push	0
	push	287					; 0000011fH
	push	OFFSET ??_C@_1II@KCMIDAEO@?$AAc?$AA?3?$AA?2?$AAP?$AAr?$AAo?$AAg?$AAr?$AAa?$AAm?$AA?5?$AAF?$AAi?$AAl?$AAe?$AAs?$AA?5?$AA?$CI?$AAx?$AA8?$AA6?$AA?$CJ?$AA?2?$AAM?$AAi?$AAc?$AAr?$AAo?$AAs?$AAo?$AAf?$AAt@
	push	OFFSET ??_C@_1BAE@DINEGMNP@?$AAs?$AAt?$AAd?$AA?3?$AA?3?$AA_?$AAL?$AAi?$AAs?$AAt?$AA_?$AAc?$AAo?$AAn?$AAs?$AAt?$AA_?$AAi?$AAt?$AAe?$AAr?$AAa?$AAt?$AAo?$AAr?$AA?$DM?$AAc?$AAl?$AAa?$AAs?$AAs?$AA?5@
	push	OFFSET ??_C@_1CG@JNLFBNGN@?$AA?$CC?$AAi?$AAn?$AAv?$AAa?$AAl?$AAi?$AAd?$AA?5?$AAa?$AAr?$AAg?$AAu?$AAm?$AAe?$AAn?$AAt?$AA?$CC?$AA?$AA@
	call	__invalid_parameter
	add	esp, 20					; 00000014H
$LN2@operator@10:

; 288  : 			}
; 289  : 
; 290  :  #elif _ITERATOR_DEBUG_LEVEL == 1
; 291  : 		_SCL_SECURE_VALIDATE(this->_Getcont() != 0
; 292  : 			&& this->_Getcont() == _Right._Getcont());
; 293  :  #endif /* _ITERATOR_DEBUG_LEVEL */
; 294  : 
; 295  : 		return (this->_Ptr == _Right._Ptr);

	mov	eax, DWORD PTR _this$[ebp]
	mov	ecx, DWORD PTR __Right$[ebp]
	mov	edx, DWORD PTR [eax+8]
	xor	eax, eax
	cmp	edx, DWORD PTR [ecx+8]
	sete	al

; 296  : 		}

	pop	esi
	add	esp, 4
	cmp	ebp, esp
	call	__RTC_CheckEsp
	mov	esp, ebp
	pop	ebp
	ret	4
??8?$_List_const_iterator@V?$_List_val@PAVAbstRaven_Bot@@V?$allocator@PAVAbstRaven_Bot@@@std@@@std@@@std@@QBE_NABV01@@Z ENDP ; std::_List_const_iterator<std::_List_val<AbstRaven_Bot *,std::allocator<AbstRaven_Bot *> > >::operator==
; Function compile flags: /Odtp /RTCsu
_TEXT	ENDS
;	COMDAT ??1?$_Vector_iterator@V?$_Vector_val@UVector2D@@V?$allocator@UVector2D@@@std@@@std@@@std@@QAE@XZ
_TEXT	SEGMENT
_this$ = -4						; size = 4
??1?$_Vector_iterator@V?$_Vector_val@UVector2D@@V?$allocator@UVector2D@@@std@@@std@@@std@@QAE@XZ PROC ; std::_Vector_iterator<std::_Vector_val<Vector2D,std::allocator<Vector2D> > >::~_Vector_iterator<std::_Vector_val<Vector2D,std::allocator<Vector2D> > >, COMDAT
; _this$ = ecx
	push	ebp
	mov	ebp, esp
	push	ecx
	mov	DWORD PTR [ebp-4], -858993460		; ccccccccH
	mov	DWORD PTR _this$[ebp], ecx
	mov	ecx, DWORD PTR _this$[ebp]
	call	??1?$_Vector_const_iterator@V?$_Vector_val@UVector2D@@V?$allocator@UVector2D@@@std@@@std@@@std@@QAE@XZ
	add	esp, 4
	cmp	ebp, esp
	call	__RTC_CheckEsp
	mov	esp, ebp
	pop	ebp
	ret	0
??1?$_Vector_iterator@V?$_Vector_val@UVector2D@@V?$allocator@UVector2D@@@std@@@std@@@std@@QAE@XZ ENDP ; std::_Vector_iterator<std::_Vector_val<Vector2D,std::allocator<Vector2D> > >::~_Vector_iterator<std::_Vector_val<Vector2D,std::allocator<Vector2D> > >
_TEXT	ENDS
PUBLIC	??0?$_Iterator012@Urandom_access_iterator_tag@std@@UVector2D@@HPBU3@ABU3@U_Iterator_base12@2@@std@@QAE@ABU01@@Z ; std::_Iterator012<std::random_access_iterator_tag,Vector2D,int,Vector2D const *,Vector2D const &,std::_Iterator_base12>::_Iterator012<std::random_access_iterator_tag,Vector2D,int,Vector2D const *,Vector2D const &,std::_Iterator_base12>
; Function compile flags: /Odtp /RTCsu
;	COMDAT ??0?$_Vector_const_iterator@V?$_Vector_val@UVector2D@@V?$allocator@UVector2D@@@std@@@std@@@std@@QAE@ABV01@@Z
_TEXT	SEGMENT
_this$ = -4						; size = 4
___that$ = 8						; size = 4
??0?$_Vector_const_iterator@V?$_Vector_val@UVector2D@@V?$allocator@UVector2D@@@std@@@std@@@std@@QAE@ABV01@@Z PROC ; std::_Vector_const_iterator<std::_Vector_val<Vector2D,std::allocator<Vector2D> > >::_Vector_const_iterator<std::_Vector_val<Vector2D,std::allocator<Vector2D> > >, COMDAT
; _this$ = ecx
	push	ebp
	mov	ebp, esp
	push	ecx
	mov	DWORD PTR [ebp-4], -858993460		; ccccccccH
	mov	DWORD PTR _this$[ebp], ecx
	mov	eax, DWORD PTR ___that$[ebp]
	push	eax
	mov	ecx, DWORD PTR _this$[ebp]
	call	??0?$_Iterator012@Urandom_access_iterator_tag@std@@UVector2D@@HPBU3@ABU3@U_Iterator_base12@2@@std@@QAE@ABU01@@Z
	mov	ecx, DWORD PTR _this$[ebp]
	mov	edx, DWORD PTR ___that$[ebp]
	mov	eax, DWORD PTR [edx+8]
	mov	DWORD PTR [ecx+8], eax
	mov	eax, DWORD PTR _this$[ebp]
	add	esp, 4
	cmp	ebp, esp
	call	__RTC_CheckEsp
	mov	esp, ebp
	pop	ebp
	ret	4
??0?$_Vector_const_iterator@V?$_Vector_val@UVector2D@@V?$allocator@UVector2D@@@std@@@std@@@std@@QAE@ABV01@@Z ENDP ; std::_Vector_const_iterator<std::_Vector_val<Vector2D,std::allocator<Vector2D> > >::_Vector_const_iterator<std::_Vector_val<Vector2D,std::allocator<Vector2D> > >
_TEXT	ENDS
PUBLIC	??0_Iterator_base12@std@@QAE@ABU01@@Z		; std::_Iterator_base12::_Iterator_base12
; Function compile flags: /Odtp /RTCsu
;	COMDAT ??0?$_Iterator012@Urandom_access_iterator_tag@std@@UVector2D@@HPBU3@ABU3@U_Iterator_base12@2@@std@@QAE@ABU01@@Z
_TEXT	SEGMENT
_this$ = -4						; size = 4
___that$ = 8						; size = 4
??0?$_Iterator012@Urandom_access_iterator_tag@std@@UVector2D@@HPBU3@ABU3@U_Iterator_base12@2@@std@@QAE@ABU01@@Z PROC ; std::_Iterator012<std::random_access_iterator_tag,Vector2D,int,Vector2D const *,Vector2D const &,std::_Iterator_base12>::_Iterator012<std::random_access_iterator_tag,Vector2D,int,Vector2D const *,Vector2D const &,std::_Iterator_base12>, COMDAT
; _this$ = ecx
	push	ebp
	mov	ebp, esp
	push	ecx
	mov	DWORD PTR [ebp-4], -858993460		; ccccccccH
	mov	DWORD PTR _this$[ebp], ecx
	mov	eax, DWORD PTR ___that$[ebp]
	push	eax
	mov	ecx, DWORD PTR _this$[ebp]
	call	??0_Iterator_base12@std@@QAE@ABU01@@Z	; std::_Iterator_base12::_Iterator_base12
	mov	eax, DWORD PTR _this$[ebp]
	add	esp, 4
	cmp	ebp, esp
	call	__RTC_CheckEsp
	mov	esp, ebp
	pop	ebp
	ret	4
??0?$_Iterator012@Urandom_access_iterator_tag@std@@UVector2D@@HPBU3@ABU3@U_Iterator_base12@2@@std@@QAE@ABU01@@Z ENDP ; std::_Iterator012<std::random_access_iterator_tag,Vector2D,int,Vector2D const *,Vector2D const &,std::_Iterator_base12>::_Iterator012<std::random_access_iterator_tag,Vector2D,int,Vector2D const *,Vector2D const &,std::_Iterator_base12>
_TEXT	ENDS
PUBLIC	??4_Iterator_base12@std@@QAEAAU01@ABU01@@Z	; std::_Iterator_base12::operator=
; Function compile flags: /Odtp /RTCsu
; File c:\program files (x86)\microsoft visual studio 10.0\vc\include\xutility
;	COMDAT ??0_Iterator_base12@std@@QAE@ABU01@@Z
_TEXT	SEGMENT
_this$ = -4						; size = 4
__Right$ = 8						; size = 4
??0_Iterator_base12@std@@QAE@ABU01@@Z PROC		; std::_Iterator_base12::_Iterator_base12, COMDAT
; _this$ = ecx

; 116  : 		{	// copy an iterator

	push	ebp
	mov	ebp, esp
	push	ecx
	mov	DWORD PTR [ebp-4], -858993460		; ccccccccH
	mov	DWORD PTR _this$[ebp], ecx
	mov	eax, DWORD PTR _this$[ebp]
	mov	DWORD PTR [eax], 0
	mov	ecx, DWORD PTR _this$[ebp]
	mov	DWORD PTR [ecx+4], 0

; 117  : 		*this = _Right;

	mov	edx, DWORD PTR __Right$[ebp]
	push	edx
	mov	ecx, DWORD PTR _this$[ebp]
	call	??4_Iterator_base12@std@@QAEAAU01@ABU01@@Z ; std::_Iterator_base12::operator=

; 118  : 		}

	mov	eax, DWORD PTR _this$[ebp]
	add	esp, 4
	cmp	ebp, esp
	call	__RTC_CheckEsp
	mov	esp, ebp
	pop	ebp
	ret	4
??0_Iterator_base12@std@@QAE@ABU01@@Z ENDP		; std::_Iterator_base12::_Iterator_base12
_TEXT	ENDS
PUBLIC	?_Adopt@_Iterator_base12@std@@QAEXPBU_Container_base12@2@@Z ; std::_Iterator_base12::_Adopt
;	COMDAT xdata$x
xdata$x	SEGMENT
__unwindtable$??4_Iterator_base12@std@@QAEAAU01@ABU01@@Z DD 0ffffffffH
	DD	FLAT:__unwindfunclet$??4_Iterator_base12@std@@QAEAAU01@ABU01@@Z$0
__ehfuncinfo$??4_Iterator_base12@std@@QAEAAU01@ABU01@@Z DD 019930522H
	DD	01H
	DD	FLAT:__unwindtable$??4_Iterator_base12@std@@QAEAAU01@ABU01@@Z
	DD	2 DUP(00H)
	DD	2 DUP(00H)
	DD	00H
	DD	01H
; Function compile flags: /Odtp /RTCsu
xdata$x	ENDS
;	COMDAT ??4_Iterator_base12@std@@QAEAAU01@ABU01@@Z
_TEXT	SEGMENT
__Lock$15134 = -24					; size = 4
_this$ = -16						; size = 4
__$EHRec$ = -12						; size = 12
__Right$ = 8						; size = 4
??4_Iterator_base12@std@@QAEAAU01@ABU01@@Z PROC		; std::_Iterator_base12::operator=, COMDAT
; _this$ = ecx

; 121  : 		{	// assign an iterator

	push	ebp
	mov	ebp, esp
	push	-1
	push	__ehhandler$??4_Iterator_base12@std@@QAEAAU01@ABU01@@Z
	mov	eax, DWORD PTR fs:0
	push	eax
	sub	esp, 16					; 00000010H
	mov	eax, -858993460				; ccccccccH
	mov	DWORD PTR [ebp-28], eax
	mov	DWORD PTR [ebp-24], eax
	mov	DWORD PTR [ebp-20], eax
	mov	DWORD PTR [ebp-16], eax
	mov	eax, DWORD PTR ___security_cookie
	xor	eax, ebp
	push	eax
	lea	eax, DWORD PTR __$EHRec$[ebp]
	mov	DWORD PTR fs:0, eax
	mov	DWORD PTR _this$[ebp], ecx

; 122  : 		if (_Myproxy == _Right._Myproxy)

	mov	eax, DWORD PTR _this$[ebp]
	mov	ecx, DWORD PTR __Right$[ebp]
	mov	edx, DWORD PTR [eax]
	cmp	edx, DWORD PTR [ecx]
	jne	SHORT $LN4@operator@11
	jmp	SHORT $LN3@operator@11
$LN4@operator@11:

; 123  : 			;
; 124  : 		else if (_Right._Myproxy != 0)

	mov	eax, DWORD PTR __Right$[ebp]
	cmp	DWORD PTR [eax], 0
	je	SHORT $LN2@operator@11

; 125  : 			_Adopt(_Right._Myproxy->_Mycont);

	mov	ecx, DWORD PTR __Right$[ebp]
	mov	edx, DWORD PTR [ecx]
	mov	eax, DWORD PTR [edx]
	push	eax
	mov	ecx, DWORD PTR _this$[ebp]
	call	?_Adopt@_Iterator_base12@std@@QAEXPBU_Container_base12@2@@Z ; std::_Iterator_base12::_Adopt

; 126  : 		else

	jmp	SHORT $LN3@operator@11
$LN2@operator@11:

; 127  : 			{	// becoming invalid, disown current parent
; 128  : 			_Lockit _Lock(_LOCK_DEBUG);

	push	3
	lea	ecx, DWORD PTR __Lock$15134[ebp]
	call	??0_Lockit@std@@QAE@H@Z			; std::_Lockit::_Lockit
	mov	DWORD PTR __$EHRec$[ebp+8], 0

; 129  : 			_Orphan_me();

	mov	ecx, DWORD PTR _this$[ebp]
	call	?_Orphan_me@_Iterator_base12@std@@QAEXXZ ; std::_Iterator_base12::_Orphan_me

; 130  : 			}

	mov	DWORD PTR __$EHRec$[ebp+8], -1
	lea	ecx, DWORD PTR __Lock$15134[ebp]
	call	??1_Lockit@std@@QAE@XZ			; std::_Lockit::~_Lockit
$LN3@operator@11:

; 131  : 		return (*this);

	mov	eax, DWORD PTR _this$[ebp]

; 132  : 		}

	push	edx
	mov	ecx, ebp
	push	eax
	lea	edx, DWORD PTR $LN11@operator@11
	call	@_RTC_CheckStackVars@8
	pop	eax
	pop	edx
	mov	ecx, DWORD PTR __$EHRec$[ebp]
	mov	DWORD PTR fs:0, ecx
	pop	ecx
	add	esp, 28					; 0000001cH
	cmp	ebp, esp
	call	__RTC_CheckEsp
	mov	esp, ebp
	pop	ebp
	ret	4
$LN11@operator@11:
	DD	1
	DD	$LN10@operator@11
$LN10@operator@11:
	DD	-24					; ffffffe8H
	DD	4
	DD	$LN8@operator@11
$LN8@operator@11:
	DB	95					; 0000005fH
	DB	76					; 0000004cH
	DB	111					; 0000006fH
	DB	99					; 00000063H
	DB	107					; 0000006bH
	DB	0
_TEXT	ENDS
;	COMDAT text$x
text$x	SEGMENT
__unwindfunclet$??4_Iterator_base12@std@@QAEAAU01@ABU01@@Z$0:
	lea	ecx, DWORD PTR __Lock$15134[ebp]
	jmp	??1_Lockit@std@@QAE@XZ			; std::_Lockit::~_Lockit
__ehhandler$??4_Iterator_base12@std@@QAEAAU01@ABU01@@Z:
	mov	edx, DWORD PTR [esp+8]
	lea	eax, DWORD PTR [edx+12]
	mov	ecx, DWORD PTR [edx-20]
	xor	ecx, eax
	call	@__security_check_cookie@4
	mov	eax, OFFSET __ehfuncinfo$??4_Iterator_base12@std@@QAEAAU01@ABU01@@Z
	jmp	___CxxFrameHandler3
text$x	ENDS
??4_Iterator_base12@std@@QAEAAU01@ABU01@@Z ENDP		; std::_Iterator_base12::operator=
;	COMDAT xdata$x
xdata$x	SEGMENT
__unwindtable$?_Adopt@_Iterator_base12@std@@QAEXPBU_Container_base12@2@@Z DD 0ffffffffH
	DD	FLAT:__unwindfunclet$?_Adopt@_Iterator_base12@std@@QAEXPBU_Container_base12@2@@Z$0
	DD	0ffffffffH
	DD	FLAT:__unwindfunclet$?_Adopt@_Iterator_base12@std@@QAEXPBU_Container_base12@2@@Z$1
__ehfuncinfo$?_Adopt@_Iterator_base12@std@@QAEXPBU_Container_base12@2@@Z DD 019930522H
	DD	02H
	DD	FLAT:__unwindtable$?_Adopt@_Iterator_base12@std@@QAEXPBU_Container_base12@2@@Z
	DD	2 DUP(00H)
	DD	2 DUP(00H)
	DD	00H
	DD	01H
; Function compile flags: /Odtp /RTCsu
xdata$x	ENDS
;	COMDAT ?_Adopt@_Iterator_base12@std@@QAEXPBU_Container_base12@2@@Z
_TEXT	SEGMENT
__Lock$15145 = -40					; size = 4
__Parent_proxy$15143 = -32				; size = 4
__Lock$15141 = -24					; size = 4
_this$ = -16						; size = 4
__$EHRec$ = -12						; size = 12
__Parent$ = 8						; size = 4
?_Adopt@_Iterator_base12@std@@QAEXPBU_Container_base12@2@@Z PROC ; std::_Iterator_base12::_Adopt, COMDAT
; _this$ = ecx

; 143  : 		{	// adopt this iterator by parent

	push	ebp
	mov	ebp, esp
	push	-1
	push	__ehhandler$?_Adopt@_Iterator_base12@std@@QAEXPBU_Container_base12@2@@Z
	mov	eax, DWORD PTR fs:0
	push	eax
	sub	esp, 32					; 00000020H
	mov	eax, -858993460				; ccccccccH
	mov	DWORD PTR [ebp-44], eax
	mov	DWORD PTR [ebp-40], eax
	mov	DWORD PTR [ebp-36], eax
	mov	DWORD PTR [ebp-32], eax
	mov	DWORD PTR [ebp-28], eax
	mov	DWORD PTR [ebp-24], eax
	mov	DWORD PTR [ebp-20], eax
	mov	DWORD PTR [ebp-16], eax
	mov	eax, DWORD PTR ___security_cookie
	xor	eax, ebp
	push	eax
	lea	eax, DWORD PTR __$EHRec$[ebp]
	mov	DWORD PTR fs:0, eax
	mov	DWORD PTR _this$[ebp], ecx

; 144  : 		if (_Parent == 0)

	cmp	DWORD PTR __Parent$[ebp], 0
	jne	SHORT $LN3@Adopt

; 145  : 			{	// no future parent, just disown current parent
; 146  : 			_Lockit _Lock(_LOCK_DEBUG);

	push	3
	lea	ecx, DWORD PTR __Lock$15141[ebp]
	call	??0_Lockit@std@@QAE@H@Z			; std::_Lockit::_Lockit
	mov	DWORD PTR __$EHRec$[ebp+8], 0

; 147  : 			_Orphan_me();

	mov	ecx, DWORD PTR _this$[ebp]
	call	?_Orphan_me@_Iterator_base12@std@@QAEXXZ ; std::_Iterator_base12::_Orphan_me

; 148  : 			}

	mov	DWORD PTR __$EHRec$[ebp+8], -1
	lea	ecx, DWORD PTR __Lock$15141[ebp]
	call	??1_Lockit@std@@QAE@XZ			; std::_Lockit::~_Lockit

; 149  : 		else

	jmp	SHORT $LN4@Adopt
$LN3@Adopt:

; 150  : 			{	// have a parent, do adoption
; 151  : 			_Container_proxy *_Parent_proxy = _Parent->_Myproxy;

	mov	eax, DWORD PTR __Parent$[ebp]
	mov	ecx, DWORD PTR [eax]
	mov	DWORD PTR __Parent_proxy$15143[ebp], ecx

; 152  : 
; 153  :  #if _ITERATOR_DEBUG_LEVEL == 2
; 154  : 			if (_Myproxy != _Parent_proxy)

	mov	edx, DWORD PTR _this$[ebp]
	mov	eax, DWORD PTR [edx]
	cmp	eax, DWORD PTR __Parent_proxy$15143[ebp]
	je	SHORT $LN4@Adopt

; 155  : 				{	// change parentage
; 156  : 				_Lockit _Lock(_LOCK_DEBUG);

	push	3
	lea	ecx, DWORD PTR __Lock$15145[ebp]
	call	??0_Lockit@std@@QAE@H@Z			; std::_Lockit::_Lockit
	mov	DWORD PTR __$EHRec$[ebp+8], 1

; 157  : 				_Orphan_me();

	mov	ecx, DWORD PTR _this$[ebp]
	call	?_Orphan_me@_Iterator_base12@std@@QAEXXZ ; std::_Iterator_base12::_Orphan_me

; 158  : 				_Mynextiter = _Parent_proxy->_Myfirstiter;

	mov	ecx, DWORD PTR _this$[ebp]
	mov	edx, DWORD PTR __Parent_proxy$15143[ebp]
	mov	eax, DWORD PTR [edx+4]
	mov	DWORD PTR [ecx+4], eax

; 159  : 				_Parent_proxy->_Myfirstiter = this;

	mov	ecx, DWORD PTR __Parent_proxy$15143[ebp]
	mov	edx, DWORD PTR _this$[ebp]
	mov	DWORD PTR [ecx+4], edx

; 160  : 				_Myproxy = _Parent_proxy;

	mov	eax, DWORD PTR _this$[ebp]
	mov	ecx, DWORD PTR __Parent_proxy$15143[ebp]
	mov	DWORD PTR [eax], ecx

; 161  : 				}

	mov	DWORD PTR __$EHRec$[ebp+8], -1
	lea	ecx, DWORD PTR __Lock$15145[ebp]
	call	??1_Lockit@std@@QAE@XZ			; std::_Lockit::~_Lockit
$LN4@Adopt:

; 162  :  #else /* _ITERATOR_DEBUG_LEVEL == 2 */
; 163  : 			_Myproxy = _Parent_proxy;
; 164  :  #endif /* _ITERATOR_DEBUG_LEVEL == 2 */
; 165  : 			}
; 166  : 		}

	push	edx
	mov	ecx, ebp
	push	eax
	lea	edx, DWORD PTR $LN12@Adopt
	call	@_RTC_CheckStackVars@8
	pop	eax
	pop	edx
	mov	ecx, DWORD PTR __$EHRec$[ebp]
	mov	DWORD PTR fs:0, ecx
	pop	ecx
	add	esp, 44					; 0000002cH
	cmp	ebp, esp
	call	__RTC_CheckEsp
	mov	esp, ebp
	pop	ebp
	ret	4
$LN12@Adopt:
	DD	2
	DD	$LN11@Adopt
$LN11@Adopt:
	DD	-24					; ffffffe8H
	DD	4
	DD	$LN8@Adopt
	DD	-40					; ffffffd8H
	DD	4
	DD	$LN9@Adopt
$LN9@Adopt:
	DB	95					; 0000005fH
	DB	76					; 0000004cH
	DB	111					; 0000006fH
	DB	99					; 00000063H
	DB	107					; 0000006bH
	DB	0
$LN8@Adopt:
	DB	95					; 0000005fH
	DB	76					; 0000004cH
	DB	111					; 0000006fH
	DB	99					; 00000063H
	DB	107					; 0000006bH
	DB	0
_TEXT	ENDS
;	COMDAT text$x
text$x	SEGMENT
__unwindfunclet$?_Adopt@_Iterator_base12@std@@QAEXPBU_Container_base12@2@@Z$0:
	lea	ecx, DWORD PTR __Lock$15141[ebp]
	jmp	??1_Lockit@std@@QAE@XZ			; std::_Lockit::~_Lockit
__unwindfunclet$?_Adopt@_Iterator_base12@std@@QAEXPBU_Container_base12@2@@Z$1:
	lea	ecx, DWORD PTR __Lock$15145[ebp]
	jmp	??1_Lockit@std@@QAE@XZ			; std::_Lockit::~_Lockit
__ehhandler$?_Adopt@_Iterator_base12@std@@QAEXPBU_Container_base12@2@@Z:
	mov	edx, DWORD PTR [esp+8]
	lea	eax, DWORD PTR [edx+12]
	mov	ecx, DWORD PTR [edx-36]
	xor	ecx, eax
	call	@__security_check_cookie@4
	mov	eax, OFFSET __ehfuncinfo$?_Adopt@_Iterator_base12@std@@QAEXPBU_Container_base12@2@@Z
	jmp	___CxxFrameHandler3
text$x	ENDS
?_Adopt@_Iterator_base12@std@@QAEXPBU_Container_base12@2@@Z ENDP ; std::_Iterator_base12::_Adopt
PUBLIC	??$_Umove@PAUVector2D@@@?$vector@UVector2D@@V?$allocator@UVector2D@@@std@@@std@@IAEPAUVector2D@@PAU2@00@Z ; std::vector<Vector2D,std::allocator<Vector2D> >::_Umove<Vector2D *>
PUBLIC	?allocate@?$allocator@UVector2D@@@std@@QAEPAUVector2D@@I@Z ; std::allocator<Vector2D>::allocate
EXTRN	__CxxThrowException@8:PROC
;	COMDAT xdata$x
; File c:\program files (x86)\microsoft visual studio 10.0\vc\include\vector
xdata$x	SEGMENT
__catchsym$?reserve@?$vector@UVector2D@@V?$allocator@UVector2D@@@std@@@std@@QAEXI@Z$2 DD 040H
	DD	00H
	DD	00H
	DD	FLAT:__catch$?reserve@?$vector@UVector2D@@V?$allocator@UVector2D@@@std@@@std@@QAEXI@Z$0
__unwindtable$?reserve@?$vector@UVector2D@@V?$allocator@UVector2D@@@std@@@std@@QAEXI@Z DD 0ffffffffH
	DD	00H
	DD	0ffffffffH
	DD	00H
__tryblocktable$?reserve@?$vector@UVector2D@@V?$allocator@UVector2D@@@std@@@std@@QAEXI@Z DD 00H
	DD	00H
	DD	01H
	DD	01H
	DD	FLAT:__catchsym$?reserve@?$vector@UVector2D@@V?$allocator@UVector2D@@@std@@@std@@QAEXI@Z$2
__ehfuncinfo$?reserve@?$vector@UVector2D@@V?$allocator@UVector2D@@@std@@@std@@QAEXI@Z DD 019930522H
	DD	02H
	DD	FLAT:__unwindtable$?reserve@?$vector@UVector2D@@V?$allocator@UVector2D@@@std@@@std@@QAEXI@Z
	DD	01H
	DD	FLAT:__tryblocktable$?reserve@?$vector@UVector2D@@V?$allocator@UVector2D@@@std@@@std@@QAEXI@Z
	DD	2 DUP(00H)
	DD	00H
	DD	01H
; Function compile flags: /Odtp /RTCsu
xdata$x	ENDS
;	COMDAT ?reserve@?$vector@UVector2D@@V?$allocator@UVector2D@@@std@@@std@@QAEXI@Z
_TEXT	SEGMENT
__Size$140537 = -28					; size = 4
__Ptr$140530 = -24					; size = 4
_this$ = -20						; size = 4
__$EHRec$ = -16						; size = 16
__Count$ = 8						; size = 4
?reserve@?$vector@UVector2D@@V?$allocator@UVector2D@@@std@@@std@@QAEXI@Z PROC ; std::vector<Vector2D,std::allocator<Vector2D> >::reserve, COMDAT
; _this$ = ecx

; 746  : 		{	// determine new minimum length of allocated storage

	push	ebp
	mov	ebp, esp
	push	-1
	push	__ehhandler$?reserve@?$vector@UVector2D@@V?$allocator@UVector2D@@@std@@@std@@QAEXI@Z
	mov	eax, DWORD PTR fs:0
	push	eax
	push	ecx
	sub	esp, 12					; 0000000cH
	push	ebx
	push	esi
	push	edi
	mov	DWORD PTR [ebp-28], -858993460		; ccccccccH
	mov	DWORD PTR [ebp-24], -858993460		; ccccccccH
	mov	DWORD PTR [ebp-20], -858993460		; ccccccccH
	mov	eax, DWORD PTR ___security_cookie
	xor	eax, ebp
	push	eax
	lea	eax, DWORD PTR __$EHRec$[ebp+4]
	mov	DWORD PTR fs:0, eax
	mov	DWORD PTR __$EHRec$[ebp], esp
	mov	DWORD PTR _this$[ebp], ecx

; 747  : 		if (max_size() < _Count)

	mov	ecx, DWORD PTR _this$[ebp]
	call	?max_size@?$vector@UVector2D@@V?$allocator@UVector2D@@@std@@@std@@QBEIXZ ; std::vector<Vector2D,std::allocator<Vector2D> >::max_size
	cmp	eax, DWORD PTR __Count$[ebp]
	jae	SHORT $LN5@reserve

; 748  : 			_Xlen();	// result too long

	mov	ecx, DWORD PTR _this$[ebp]
	call	?_Xlen@?$vector@UVector2D@@V?$allocator@UVector2D@@@std@@@std@@IBEXXZ ; std::vector<Vector2D,std::allocator<Vector2D> >::_Xlen
	jmp	$LN7@reserve
$LN5@reserve:

; 749  : 		else if (capacity() < _Count)

	mov	ecx, DWORD PTR _this$[ebp]
	call	?capacity@?$vector@UVector2D@@V?$allocator@UVector2D@@@std@@@std@@QBEIXZ ; std::vector<Vector2D,std::allocator<Vector2D> >::capacity
	cmp	eax, DWORD PTR __Count$[ebp]
	jae	$LN7@reserve

; 750  : 			{	// not enough room, reallocate
; 751  : 			pointer _Ptr = this->_Alval.allocate(_Count);

	mov	eax, DWORD PTR __Count$[ebp]
	push	eax
	mov	ecx, DWORD PTR _this$[ebp]
	add	ecx, 16					; 00000010H
	call	?allocate@?$allocator@UVector2D@@@std@@QAEPAUVector2D@@I@Z ; std::allocator<Vector2D>::allocate
	mov	DWORD PTR __Ptr$140530[ebp], eax

; 752  : 
; 753  : 			_TRY_BEGIN

	mov	DWORD PTR __$EHRec$[ebp+12], 0

; 754  : 			_Umove(this->_Myfirst, this->_Mylast, _Ptr);

	mov	ecx, DWORD PTR __Ptr$140530[ebp]
	push	ecx
	mov	edx, DWORD PTR _this$[ebp]
	mov	eax, DWORD PTR [edx+8]
	push	eax
	mov	ecx, DWORD PTR _this$[ebp]
	mov	edx, DWORD PTR [ecx+4]
	push	edx
	mov	ecx, DWORD PTR _this$[ebp]
	call	??$_Umove@PAUVector2D@@@?$vector@UVector2D@@V?$allocator@UVector2D@@@std@@@std@@IAEPAUVector2D@@PAU2@00@Z ; std::vector<Vector2D,std::allocator<Vector2D> >::_Umove<Vector2D *>
	jmp	SHORT $LN8@reserve
__catch$?reserve@?$vector@UVector2D@@V?$allocator@UVector2D@@@std@@@std@@QAEXI@Z$0:

; 755  : 			_CATCH_ALL
; 756  : 			this->_Alval.deallocate(_Ptr, _Count);

	mov	eax, DWORD PTR __Count$[ebp]
	push	eax
	mov	ecx, DWORD PTR __Ptr$140530[ebp]
	push	ecx
	mov	ecx, DWORD PTR _this$[ebp]
	add	ecx, 16					; 00000010H
	call	?deallocate@?$allocator@UVector2D@@@std@@QAEXPAUVector2D@@I@Z ; std::allocator<Vector2D>::deallocate

; 757  : 			_RERAISE;

	push	0
	push	0
	call	__CxxThrowException@8

; 758  : 			_CATCH_END

	mov	DWORD PTR __$EHRec$[ebp+12], -1
	mov	eax, __tryend$?reserve@?$vector@UVector2D@@V?$allocator@UVector2D@@@std@@@std@@QAEXI@Z$1
	ret	0
$LN8@reserve:
	mov	DWORD PTR __$EHRec$[ebp+12], -1
__tryend$?reserve@?$vector@UVector2D@@V?$allocator@UVector2D@@@std@@@std@@QAEXI@Z$1:

; 759  : 
; 760  : 			size_type _Size = size();

	mov	ecx, DWORD PTR _this$[ebp]
	call	?size@?$vector@UVector2D@@V?$allocator@UVector2D@@@std@@@std@@QBEIXZ ; std::vector<Vector2D,std::allocator<Vector2D> >::size
	mov	DWORD PTR __Size$140537[ebp], eax

; 761  : 			if (this->_Myfirst != 0)

	mov	edx, DWORD PTR _this$[ebp]
	cmp	DWORD PTR [edx+4], 0
	je	SHORT $LN1@reserve

; 762  : 				{	// destroy and deallocate old array
; 763  : 				_Destroy(this->_Myfirst, this->_Mylast);

	mov	eax, DWORD PTR _this$[ebp]
	mov	ecx, DWORD PTR [eax+8]
	push	ecx
	mov	edx, DWORD PTR _this$[ebp]
	mov	eax, DWORD PTR [edx+4]
	push	eax
	mov	ecx, DWORD PTR _this$[ebp]
	call	?_Destroy@?$vector@UVector2D@@V?$allocator@UVector2D@@@std@@@std@@IAEXPAUVector2D@@0@Z ; std::vector<Vector2D,std::allocator<Vector2D> >::_Destroy

; 764  : 				this->_Alval.deallocate(this->_Myfirst,
; 765  : 					this->_Myend - this->_Myfirst);

	mov	ecx, DWORD PTR _this$[ebp]
	mov	edx, DWORD PTR _this$[ebp]
	mov	eax, DWORD PTR [ecx+12]
	sub	eax, DWORD PTR [edx+4]
	sar	eax, 4
	push	eax
	mov	ecx, DWORD PTR _this$[ebp]
	mov	edx, DWORD PTR [ecx+4]
	push	edx
	mov	ecx, DWORD PTR _this$[ebp]
	add	ecx, 16					; 00000010H
	call	?deallocate@?$allocator@UVector2D@@@std@@QAEXPAUVector2D@@I@Z ; std::allocator<Vector2D>::deallocate
$LN1@reserve:

; 766  : 				}
; 767  : 
; 768  : 			this->_Orphan_all();

	mov	ecx, DWORD PTR _this$[ebp]
	call	?_Orphan_all@_Container_base12@std@@QAEXXZ ; std::_Container_base12::_Orphan_all

; 769  : 			this->_Myend = _Ptr + _Count;

	mov	eax, DWORD PTR __Count$[ebp]
	shl	eax, 4
	add	eax, DWORD PTR __Ptr$140530[ebp]
	mov	ecx, DWORD PTR _this$[ebp]
	mov	DWORD PTR [ecx+12], eax

; 770  : 			this->_Mylast = _Ptr + _Size;

	mov	edx, DWORD PTR __Size$140537[ebp]
	shl	edx, 4
	add	edx, DWORD PTR __Ptr$140530[ebp]
	mov	eax, DWORD PTR _this$[ebp]
	mov	DWORD PTR [eax+8], edx

; 771  : 			this->_Myfirst = _Ptr;

	mov	ecx, DWORD PTR _this$[ebp]
	mov	edx, DWORD PTR __Ptr$140530[ebp]
	mov	DWORD PTR [ecx+4], edx
$LN7@reserve:

; 772  : 			}
; 773  : 		}

	mov	ecx, DWORD PTR __$EHRec$[ebp+4]
	mov	DWORD PTR fs:0, ecx
	pop	ecx
	pop	edi
	pop	esi
	pop	ebx
	add	esp, 28					; 0000001cH
	cmp	ebp, esp
	call	__RTC_CheckEsp
	mov	esp, ebp
	pop	ebp
	ret	4
_TEXT	ENDS
;	COMDAT text$x
text$x	SEGMENT
__ehhandler$?reserve@?$vector@UVector2D@@V?$allocator@UVector2D@@@std@@@std@@QAEXI@Z:
	mov	edx, DWORD PTR [esp+8]
	lea	eax, DWORD PTR [edx+12]
	mov	ecx, DWORD PTR [edx-32]
	xor	ecx, eax
	call	@__security_check_cookie@4
	mov	eax, OFFSET __ehfuncinfo$?reserve@?$vector@UVector2D@@V?$allocator@UVector2D@@@std@@@std@@QAEXI@Z
	jmp	___CxxFrameHandler3
text$x	ENDS
?reserve@?$vector@UVector2D@@V?$allocator@UVector2D@@@std@@@std@@QAEXI@Z ENDP ; std::vector<Vector2D,std::allocator<Vector2D> >::reserve
; Function compile flags: /Odtp /RTCsu
;	COMDAT ?capacity@?$vector@UVector2D@@V?$allocator@UVector2D@@@std@@@std@@QBEIXZ
_TEXT	SEGMENT
_this$ = -4						; size = 4
?capacity@?$vector@UVector2D@@V?$allocator@UVector2D@@@std@@@std@@QBEIXZ PROC ; std::vector<Vector2D,std::allocator<Vector2D> >::capacity, COMDAT
; _this$ = ecx

; 776  : 		{	// return current length of allocated storage

	push	ebp
	mov	ebp, esp
	push	ecx
	mov	DWORD PTR [ebp-4], -858993460		; ccccccccH
	mov	DWORD PTR _this$[ebp], ecx

; 777  : 		return (this->_Myend - this->_Myfirst);

	mov	eax, DWORD PTR _this$[ebp]
	mov	ecx, DWORD PTR _this$[ebp]
	mov	eax, DWORD PTR [eax+12]
	sub	eax, DWORD PTR [ecx+4]
	sar	eax, 4

; 778  : 		}

	mov	esp, ebp
	pop	ebp
	ret	0
?capacity@?$vector@UVector2D@@V?$allocator@UVector2D@@@std@@@std@@QBEIXZ ENDP ; std::vector<Vector2D,std::allocator<Vector2D> >::capacity
_TEXT	ENDS
PUBLIC	??0?$_Vector_iterator@V?$_Vector_val@UVector2D@@V?$allocator@UVector2D@@@std@@@std@@@std@@QAE@PAUVector2D@@PBU_Container_base12@1@@Z ; std::_Vector_iterator<std::_Vector_val<Vector2D,std::allocator<Vector2D> > >::_Vector_iterator<std::_Vector_val<Vector2D,std::allocator<Vector2D> > >
; Function compile flags: /Odtp /RTCsu
;	COMDAT ?begin@?$vector@UVector2D@@V?$allocator@UVector2D@@@std@@@std@@QAE?AV?$_Vector_iterator@V?$_Vector_val@UVector2D@@V?$allocator@UVector2D@@@std@@@std@@@2@XZ
_TEXT	SEGMENT
$T146605 = -8						; size = 4
_this$ = -4						; size = 4
___$ReturnUdt$ = 8					; size = 4
?begin@?$vector@UVector2D@@V?$allocator@UVector2D@@@std@@@std@@QAE?AV?$_Vector_iterator@V?$_Vector_val@UVector2D@@V?$allocator@UVector2D@@@std@@@std@@@2@XZ PROC ; std::vector<Vector2D,std::allocator<Vector2D> >::begin, COMDAT
; _this$ = ecx

; 781  : 		{	// return iterator for beginning of mutable sequence

	push	ebp
	mov	ebp, esp
	sub	esp, 8
	mov	DWORD PTR [ebp-8], -858993460		; ccccccccH
	mov	DWORD PTR [ebp-4], -858993460		; ccccccccH
	mov	DWORD PTR _this$[ebp], ecx
	mov	DWORD PTR $T146605[ebp], 0

; 782  : 		return (iterator(this->_Myfirst, this));

	mov	eax, DWORD PTR _this$[ebp]
	push	eax
	mov	ecx, DWORD PTR _this$[ebp]
	mov	edx, DWORD PTR [ecx+4]
	push	edx
	mov	ecx, DWORD PTR ___$ReturnUdt$[ebp]
	call	??0?$_Vector_iterator@V?$_Vector_val@UVector2D@@V?$allocator@UVector2D@@@std@@@std@@@std@@QAE@PAUVector2D@@PBU_Container_base12@1@@Z ; std::_Vector_iterator<std::_Vector_val<Vector2D,std::allocator<Vector2D> > >::_Vector_iterator<std::_Vector_val<Vector2D,std::allocator<Vector2D> > >
	mov	eax, DWORD PTR $T146605[ebp]
	or	eax, 1
	mov	DWORD PTR $T146605[ebp], eax
	mov	eax, DWORD PTR ___$ReturnUdt$[ebp]

; 783  : 		}

	add	esp, 8
	cmp	ebp, esp
	call	__RTC_CheckEsp
	mov	esp, ebp
	pop	ebp
	ret	4
?begin@?$vector@UVector2D@@V?$allocator@UVector2D@@@std@@@std@@QAE?AV?$_Vector_iterator@V?$_Vector_val@UVector2D@@V?$allocator@UVector2D@@@std@@@std@@@2@XZ ENDP ; std::vector<Vector2D,std::allocator<Vector2D> >::begin
; Function compile flags: /Odtp /RTCsu
_TEXT	ENDS
;	COMDAT ?end@?$vector@UVector2D@@V?$allocator@UVector2D@@@std@@@std@@QAE?AV?$_Vector_iterator@V?$_Vector_val@UVector2D@@V?$allocator@UVector2D@@@std@@@std@@@2@XZ
_TEXT	SEGMENT
$T146610 = -8						; size = 4
_this$ = -4						; size = 4
___$ReturnUdt$ = 8					; size = 4
?end@?$vector@UVector2D@@V?$allocator@UVector2D@@@std@@@std@@QAE?AV?$_Vector_iterator@V?$_Vector_val@UVector2D@@V?$allocator@UVector2D@@@std@@@std@@@2@XZ PROC ; std::vector<Vector2D,std::allocator<Vector2D> >::end, COMDAT
; _this$ = ecx

; 791  : 		{	// return iterator for end of mutable sequence

	push	ebp
	mov	ebp, esp
	sub	esp, 8
	mov	DWORD PTR [ebp-8], -858993460		; ccccccccH
	mov	DWORD PTR [ebp-4], -858993460		; ccccccccH
	mov	DWORD PTR _this$[ebp], ecx
	mov	DWORD PTR $T146610[ebp], 0

; 792  : 		return (iterator(this->_Mylast, this));

	mov	eax, DWORD PTR _this$[ebp]
	push	eax
	mov	ecx, DWORD PTR _this$[ebp]
	mov	edx, DWORD PTR [ecx+8]
	push	edx
	mov	ecx, DWORD PTR ___$ReturnUdt$[ebp]
	call	??0?$_Vector_iterator@V?$_Vector_val@UVector2D@@V?$allocator@UVector2D@@@std@@@std@@@std@@QAE@PAUVector2D@@PBU_Container_base12@1@@Z ; std::_Vector_iterator<std::_Vector_val<Vector2D,std::allocator<Vector2D> > >::_Vector_iterator<std::_Vector_val<Vector2D,std::allocator<Vector2D> > >
	mov	eax, DWORD PTR $T146610[ebp]
	or	eax, 1
	mov	DWORD PTR $T146610[ebp], eax
	mov	eax, DWORD PTR ___$ReturnUdt$[ebp]

; 793  : 		}

	add	esp, 8
	cmp	ebp, esp
	call	__RTC_CheckEsp
	mov	esp, ebp
	pop	ebp
	ret	4
?end@?$vector@UVector2D@@V?$allocator@UVector2D@@@std@@@std@@QAE?AV?$_Vector_iterator@V?$_Vector_val@UVector2D@@V?$allocator@UVector2D@@@std@@@std@@@2@XZ ENDP ; std::vector<Vector2D,std::allocator<Vector2D> >::end
_TEXT	ENDS
PUBLIC	?max_size@?$allocator@UVector2D@@@std@@QBEIXZ	; std::allocator<Vector2D>::max_size
; Function compile flags: /Odtp /RTCsu
;	COMDAT ?max_size@?$vector@UVector2D@@V?$allocator@UVector2D@@@std@@@std@@QBEIXZ
_TEXT	SEGMENT
_this$ = -4						; size = 4
?max_size@?$vector@UVector2D@@V?$allocator@UVector2D@@@std@@@std@@QBEIXZ PROC ; std::vector<Vector2D,std::allocator<Vector2D> >::max_size, COMDAT
; _this$ = ecx

; 883  : 		{	// return maximum possible length of sequence

	push	ebp
	mov	ebp, esp
	push	ecx
	mov	DWORD PTR [ebp-4], -858993460		; ccccccccH
	mov	DWORD PTR _this$[ebp], ecx

; 884  : 		return (this->_Alval.max_size());

	mov	ecx, DWORD PTR _this$[ebp]
	add	ecx, 16					; 00000010H
	call	?max_size@?$allocator@UVector2D@@@std@@QBEIXZ ; std::allocator<Vector2D>::max_size

; 885  : 		}

	add	esp, 4
	cmp	ebp, esp
	call	__RTC_CheckEsp
	mov	esp, ebp
	pop	ebp
	ret	0
?max_size@?$vector@UVector2D@@V?$allocator@UVector2D@@@std@@@std@@QBEIXZ ENDP ; std::vector<Vector2D,std::allocator<Vector2D> >::max_size
_TEXT	ENDS
PUBLIC	?_Orphan_range@?$vector@UVector2D@@V?$allocator@UVector2D@@@std@@@std@@IBEXPAUVector2D@@0@Z ; std::vector<Vector2D,std::allocator<Vector2D> >::_Orphan_range
PUBLIC	??$_Move@PAUVector2D@@PAU1@@std@@YAPAUVector2D@@PAU1@00@Z ; std::_Move<Vector2D *,Vector2D *>
PUBLIC	??_C@_1EI@HGIDLLCM@?$AAv?$AAe?$AAc?$AAt?$AAo?$AAr?$AA?5?$AAe?$AAr?$AAa?$AAs?$AAe?$AA?5?$AAi?$AAt?$AAe?$AAr?$AAa?$AAt?$AAo?$AAr?$AA?5?$AAo?$AAu?$AAt?$AAs?$AAi?$AAd?$AAe?$AA?5?$AAr?$AAa@ ; `string'
PUBLIC	??M?$_Vector_const_iterator@V?$_Vector_val@UVector2D@@V?$allocator@UVector2D@@@std@@@std@@@std@@QBE_NABV01@@Z ; std::_Vector_const_iterator<std::_Vector_val<Vector2D,std::allocator<Vector2D> > >::operator<
PUBLIC	??9?$_Vector_const_iterator@V?$_Vector_val@UVector2D@@V?$allocator@UVector2D@@@std@@@std@@@std@@QBE_NABV01@@Z ; std::_Vector_const_iterator<std::_Vector_val<Vector2D,std::allocator<Vector2D> > >::operator!=
PUBLIC	?_Make_iter@?$vector@UVector2D@@V?$allocator@UVector2D@@@std@@@std@@QBE?AV?$_Vector_iterator@V?$_Vector_val@UVector2D@@V?$allocator@UVector2D@@@std@@@std@@@2@V?$_Vector_const_iterator@V?$_Vector_val@UVector2D@@V?$allocator@UVector2D@@@std@@@std@@@2@@Z ; std::vector<Vector2D,std::allocator<Vector2D> >::_Make_iter
;	COMDAT ??_C@_1EI@HGIDLLCM@?$AAv?$AAe?$AAc?$AAt?$AAo?$AAr?$AA?5?$AAe?$AAr?$AAa?$AAs?$AAe?$AA?5?$AAi?$AAt?$AAe?$AAr?$AAa?$AAt?$AAo?$AAr?$AA?5?$AAo?$AAu?$AAt?$AAs?$AAi?$AAd?$AAe?$AA?5?$AAr?$AAa@
CONST	SEGMENT
??_C@_1EI@HGIDLLCM@?$AAv?$AAe?$AAc?$AAt?$AAo?$AAr?$AA?5?$AAe?$AAr?$AAa?$AAs?$AAe?$AA?5?$AAi?$AAt?$AAe?$AAr?$AAa?$AAt?$AAo?$AAr?$AA?5?$AAo?$AAu?$AAt?$AAs?$AAi?$AAd?$AAe?$AA?5?$AAr?$AAa@ DB 'v'
	DB	00H, 'e', 00H, 'c', 00H, 't', 00H, 'o', 00H, 'r', 00H, ' ', 00H
	DB	'e', 00H, 'r', 00H, 'a', 00H, 's', 00H, 'e', 00H, ' ', 00H, 'i'
	DB	00H, 't', 00H, 'e', 00H, 'r', 00H, 'a', 00H, 't', 00H, 'o', 00H
	DB	'r', 00H, ' ', 00H, 'o', 00H, 'u', 00H, 't', 00H, 's', 00H, 'i'
	DB	00H, 'd', 00H, 'e', 00H, ' ', 00H, 'r', 00H, 'a', 00H, 'n', 00H
	DB	'g', 00H, 'e', 00H, 00H, 00H			; `string'
CONST	ENDS
;	COMDAT xdata$x
xdata$x	SEGMENT
__ehfuncinfo$?erase@?$vector@UVector2D@@V?$allocator@UVector2D@@@std@@@std@@QAE?AV?$_Vector_iterator@V?$_Vector_val@UVector2D@@V?$allocator@UVector2D@@@std@@@std@@@2@V?$_Vector_const_iterator@V?$_Vector_val@UVector2D@@V?$allocator@UVector2D@@@std@@@std@@@2@0@Z DD 019930522H
	DD	05H
	DD	FLAT:__unwindtable$?erase@?$vector@UVector2D@@V?$allocator@UVector2D@@@std@@@std@@QAE?AV?$_Vector_iterator@V?$_Vector_val@UVector2D@@V?$allocator@UVector2D@@@std@@@std@@@2@V?$_Vector_const_iterator@V?$_Vector_val@UVector2D@@V?$allocator@UVector2D@@@std@@@std@@@2@0@Z
	DD	2 DUP(00H)
	DD	2 DUP(00H)
	DD	00H
	DD	01H
__unwindtable$?erase@?$vector@UVector2D@@V?$allocator@UVector2D@@@std@@@std@@QAE?AV?$_Vector_iterator@V?$_Vector_val@UVector2D@@V?$allocator@UVector2D@@@std@@@std@@@2@V?$_Vector_const_iterator@V?$_Vector_val@UVector2D@@V?$allocator@UVector2D@@@std@@@std@@@2@0@Z DD 0ffffffffH
	DD	FLAT:__unwindfunclet$?erase@?$vector@UVector2D@@V?$allocator@UVector2D@@@std@@@std@@QAE?AV?$_Vector_iterator@V?$_Vector_val@UVector2D@@V?$allocator@UVector2D@@@std@@@std@@@2@V?$_Vector_const_iterator@V?$_Vector_val@UVector2D@@V?$allocator@UVector2D@@@std@@@std@@@2@0@Z$7
	DD	00H
	DD	FLAT:__unwindfunclet$?erase@?$vector@UVector2D@@V?$allocator@UVector2D@@@std@@@std@@QAE?AV?$_Vector_iterator@V?$_Vector_val@UVector2D@@V?$allocator@UVector2D@@@std@@@std@@@2@V?$_Vector_const_iterator@V?$_Vector_val@UVector2D@@V?$allocator@UVector2D@@@std@@@std@@@2@0@Z$0
	DD	01H
	DD	FLAT:__unwindfunclet$?erase@?$vector@UVector2D@@V?$allocator@UVector2D@@@std@@@std@@QAE?AV?$_Vector_iterator@V?$_Vector_val@UVector2D@@V?$allocator@UVector2D@@@std@@@std@@@2@V?$_Vector_const_iterator@V?$_Vector_val@UVector2D@@V?$allocator@UVector2D@@@std@@@std@@@2@0@Z$1
	DD	02H
	DD	FLAT:__unwindfunclet$?erase@?$vector@UVector2D@@V?$allocator@UVector2D@@@std@@@std@@QAE?AV?$_Vector_iterator@V?$_Vector_val@UVector2D@@V?$allocator@UVector2D@@@std@@@std@@@2@V?$_Vector_const_iterator@V?$_Vector_val@UVector2D@@V?$allocator@UVector2D@@@std@@@std@@@2@0@Z$3
	DD	03H
	DD	FLAT:__unwindfunclet$?erase@?$vector@UVector2D@@V?$allocator@UVector2D@@@std@@@std@@QAE?AV?$_Vector_iterator@V?$_Vector_val@UVector2D@@V?$allocator@UVector2D@@@std@@@std@@@2@V?$_Vector_const_iterator@V?$_Vector_val@UVector2D@@V?$allocator@UVector2D@@@std@@@std@@@2@0@Z$5
; Function compile flags: /Odtp /RTCsu
xdata$x	ENDS
;	COMDAT ?erase@?$vector@UVector2D@@V?$allocator@UVector2D@@@std@@@std@@QAE?AV?$_Vector_iterator@V?$_Vector_val@UVector2D@@V?$allocator@UVector2D@@@std@@@std@@@2@V?$_Vector_const_iterator@V?$_Vector_val@UVector2D@@V?$allocator@UVector2D@@@std@@@std@@@2@0@Z
_TEXT	SEGMENT
tv275 = -100						; size = 4
tv274 = -96						; size = 4
tv271 = -92						; size = 4
tv270 = -88						; size = 4
tv267 = -84						; size = 4
tv266 = -80						; size = 4
$T146627 = -76						; size = 4
$T146618 = -72						; size = 4
$T146617 = -68						; size = 4
$T146616 = -64						; size = 4
__Ptr$140567 = -60					; size = 4
__Last$ = -52						; size = 12
__First$ = -32						; size = 12
_this$ = -16						; size = 4
__$EHRec$ = -12						; size = 12
___$ReturnUdt$ = 8					; size = 4
__First_arg$ = 12					; size = 12
__Last_arg$ = 24					; size = 12
?erase@?$vector@UVector2D@@V?$allocator@UVector2D@@@std@@@std@@QAE?AV?$_Vector_iterator@V?$_Vector_val@UVector2D@@V?$allocator@UVector2D@@@std@@@std@@@2@V?$_Vector_const_iterator@V?$_Vector_val@UVector2D@@V?$allocator@UVector2D@@@std@@@std@@@2@0@Z PROC ; std::vector<Vector2D,std::allocator<Vector2D> >::erase, COMDAT
; _this$ = ecx

; 1190 : 		{	// erase [_First, _Last)

	push	ebp
	mov	ebp, esp
	push	-1
	push	__ehhandler$?erase@?$vector@UVector2D@@V?$allocator@UVector2D@@@std@@@std@@QAE?AV?$_Vector_iterator@V?$_Vector_val@UVector2D@@V?$allocator@UVector2D@@@std@@@std@@@2@V?$_Vector_const_iterator@V?$_Vector_val@UVector2D@@V?$allocator@UVector2D@@@std@@@std@@@2@0@Z
	mov	eax, DWORD PTR fs:0
	push	eax
	sub	esp, 88					; 00000058H
	push	edi
	push	ecx
	lea	edi, DWORD PTR [ebp-100]
	mov	ecx, 22					; 00000016H
	mov	eax, -858993460				; ccccccccH
	rep stosd
	pop	ecx
	mov	eax, DWORD PTR ___security_cookie
	xor	eax, ebp
	push	eax
	lea	eax, DWORD PTR __$EHRec$[ebp]
	mov	DWORD PTR fs:0, eax
	mov	DWORD PTR _this$[ebp], ecx
	mov	DWORD PTR $T146627[ebp], 0
	mov	DWORD PTR __$EHRec$[ebp+8], 2

; 1191 : 		iterator _First = _Make_iter(_First_arg);

	sub	esp, 12					; 0000000cH
	mov	ecx, esp
	mov	DWORD PTR $T146616[ebp], esp
	lea	eax, DWORD PTR __First_arg$[ebp]
	push	eax
	call	??0?$_Vector_const_iterator@V?$_Vector_val@UVector2D@@V?$allocator@UVector2D@@@std@@@std@@@std@@QAE@ABV01@@Z
	mov	DWORD PTR tv266[ebp], eax
	lea	ecx, DWORD PTR __First$[ebp]
	push	ecx
	mov	ecx, DWORD PTR _this$[ebp]
	call	?_Make_iter@?$vector@UVector2D@@V?$allocator@UVector2D@@@std@@@std@@QBE?AV?$_Vector_iterator@V?$_Vector_val@UVector2D@@V?$allocator@UVector2D@@@std@@@std@@@2@V?$_Vector_const_iterator@V?$_Vector_val@UVector2D@@V?$allocator@UVector2D@@@std@@@std@@@2@@Z ; std::vector<Vector2D,std::allocator<Vector2D> >::_Make_iter
	mov	DWORD PTR tv267[ebp], eax
	mov	BYTE PTR __$EHRec$[ebp+8], 3

; 1192 : 		iterator _Last = _Make_iter(_Last_arg);

	sub	esp, 12					; 0000000cH
	mov	ecx, esp
	mov	DWORD PTR $T146617[ebp], esp
	lea	edx, DWORD PTR __Last_arg$[ebp]
	push	edx
	call	??0?$_Vector_const_iterator@V?$_Vector_val@UVector2D@@V?$allocator@UVector2D@@@std@@@std@@@std@@QAE@ABV01@@Z
	mov	DWORD PTR tv270[ebp], eax
	lea	eax, DWORD PTR __Last$[ebp]
	push	eax
	mov	ecx, DWORD PTR _this$[ebp]
	call	?_Make_iter@?$vector@UVector2D@@V?$allocator@UVector2D@@@std@@@std@@QBE?AV?$_Vector_iterator@V?$_Vector_val@UVector2D@@V?$allocator@UVector2D@@@std@@@std@@@2@V?$_Vector_const_iterator@V?$_Vector_val@UVector2D@@V?$allocator@UVector2D@@@std@@@std@@@2@@Z ; std::vector<Vector2D,std::allocator<Vector2D> >::_Make_iter
	mov	DWORD PTR tv271[ebp], eax
	mov	BYTE PTR __$EHRec$[ebp+8], 4

; 1193 : 
; 1194 : 		if (_First != _Last)

	lea	ecx, DWORD PTR __Last$[ebp]
	push	ecx
	lea	ecx, DWORD PTR __First$[ebp]
	call	??9?$_Vector_const_iterator@V?$_Vector_val@UVector2D@@V?$allocator@UVector2D@@@std@@@std@@@std@@QBE_NABV01@@Z ; std::_Vector_const_iterator<std::_Vector_val<Vector2D,std::allocator<Vector2D> > >::operator!=
	movzx	edx, al
	test	edx, edx
	je	$LN3@erase

; 1195 : 			{	// worth doing, copy down over hole
; 1196 :  #if _ITERATOR_DEBUG_LEVEL == 2
; 1197 : 			if (_Last < _First || _VICONT(_First) != this
; 1198 : 				|| _VIPTR(_First) < this->_Myfirst
; 1199 : 				|| this->_Mylast < _VIPTR(_Last))

	lea	eax, DWORD PTR __First$[ebp]
	push	eax
	lea	ecx, DWORD PTR __Last$[ebp]
	call	??M?$_Vector_const_iterator@V?$_Vector_val@UVector2D@@V?$allocator@UVector2D@@@std@@@std@@@std@@QBE_NABV01@@Z ; std::_Vector_const_iterator<std::_Vector_val<Vector2D,std::allocator<Vector2D> > >::operator<
	movzx	ecx, al
	test	ecx, ecx
	jne	SHORT $LN1@erase
	lea	ecx, DWORD PTR __First$[ebp]
	call	?_Getcont@_Iterator_base12@std@@QBEPBU_Container_base12@2@XZ ; std::_Iterator_base12::_Getcont
	cmp	eax, DWORD PTR _this$[ebp]
	jne	SHORT $LN1@erase
	mov	edx, DWORD PTR _this$[ebp]
	mov	eax, DWORD PTR __First$[ebp+8]
	cmp	eax, DWORD PTR [edx+4]
	jb	SHORT $LN1@erase
	mov	ecx, DWORD PTR _this$[ebp]
	mov	edx, DWORD PTR [ecx+8]
	cmp	edx, DWORD PTR __Last$[ebp+8]
	jae	SHORT $LN2@erase
$LN1@erase:

; 1200 : 				_DEBUG_ERROR("vector erase iterator outside range");

	push	1200					; 000004b0H
	push	OFFSET ??_C@_1IM@MKOOKKBK@?$AAc?$AA?3?$AA?2?$AAP?$AAr?$AAo?$AAg?$AAr?$AAa?$AAm?$AA?5?$AAF?$AAi?$AAl?$AAe?$AAs?$AA?5?$AA?$CI?$AAx?$AA8?$AA6?$AA?$CJ?$AA?2?$AAM?$AAi?$AAc?$AAr?$AAo?$AAs?$AAo?$AAf?$AAt@
	push	OFFSET ??_C@_1EI@HGIDLLCM@?$AAv?$AAe?$AAc?$AAt?$AAo?$AAr?$AA?5?$AAe?$AAr?$AAa?$AAs?$AAe?$AA?5?$AAi?$AAt?$AAe?$AAr?$AAa?$AAt?$AAo?$AAr?$AA?5?$AAo?$AAu?$AAt?$AAs?$AAi?$AAd?$AAe?$AA?5?$AAr?$AAa@
	call	?_Debug_message@std@@YAXPB_W0I@Z	; std::_Debug_message
	add	esp, 12					; 0000000cH
$LN2@erase:

; 1201 : 			pointer _Ptr = _Move(_VIPTR(_Last), this->_Mylast,
; 1202 : 				_VIPTR(_First));

	mov	eax, DWORD PTR __First$[ebp+8]
	push	eax
	mov	ecx, DWORD PTR _this$[ebp]
	mov	edx, DWORD PTR [ecx+8]
	push	edx
	mov	eax, DWORD PTR __Last$[ebp+8]
	push	eax
	call	??$_Move@PAUVector2D@@PAU1@@std@@YAPAUVector2D@@PAU1@00@Z ; std::_Move<Vector2D *,Vector2D *>
	add	esp, 12					; 0000000cH
	mov	DWORD PTR __Ptr$140567[ebp], eax

; 1203 : 			_Orphan_range(_VIPTR(_First), this->_Mylast);

	mov	ecx, DWORD PTR _this$[ebp]
	mov	edx, DWORD PTR [ecx+8]
	push	edx
	mov	eax, DWORD PTR __First$[ebp+8]
	push	eax
	mov	ecx, DWORD PTR _this$[ebp]
	call	?_Orphan_range@?$vector@UVector2D@@V?$allocator@UVector2D@@@std@@@std@@IBEXPAUVector2D@@0@Z ; std::vector<Vector2D,std::allocator<Vector2D> >::_Orphan_range

; 1204 : 
; 1205 :  #else /* _ITERATOR_DEBUG_LEVEL == 2 */
; 1206 : 			pointer _Ptr = _Move(_VIPTR(_Last), this->_Mylast,
; 1207 : 				_VIPTR(_First));
; 1208 :  #endif /* _ITERATOR_DEBUG_LEVEL == 2 */
; 1209 : 
; 1210 : 			_Destroy(_Ptr, this->_Mylast);

	mov	ecx, DWORD PTR _this$[ebp]
	mov	edx, DWORD PTR [ecx+8]
	push	edx
	mov	eax, DWORD PTR __Ptr$140567[ebp]
	push	eax
	mov	ecx, DWORD PTR _this$[ebp]
	call	?_Destroy@?$vector@UVector2D@@V?$allocator@UVector2D@@@std@@@std@@IAEXPAUVector2D@@0@Z ; std::vector<Vector2D,std::allocator<Vector2D> >::_Destroy

; 1211 : 			this->_Mylast = _Ptr;

	mov	ecx, DWORD PTR _this$[ebp]
	mov	edx, DWORD PTR __Ptr$140567[ebp]
	mov	DWORD PTR [ecx+8], edx
$LN3@erase:

; 1212 : 			}
; 1213 : 		return (_Make_iter(_First));

	sub	esp, 12					; 0000000cH
	mov	ecx, esp
	mov	DWORD PTR $T146618[ebp], esp
	lea	eax, DWORD PTR __First$[ebp]
	push	eax
	call	??0?$_Vector_const_iterator@V?$_Vector_val@UVector2D@@V?$allocator@UVector2D@@@std@@@std@@@std@@QAE@ABV01@@Z
	mov	DWORD PTR tv274[ebp], eax
	mov	ecx, DWORD PTR ___$ReturnUdt$[ebp]
	push	ecx
	mov	ecx, DWORD PTR _this$[ebp]
	call	?_Make_iter@?$vector@UVector2D@@V?$allocator@UVector2D@@@std@@@std@@QBE?AV?$_Vector_iterator@V?$_Vector_val@UVector2D@@V?$allocator@UVector2D@@@std@@@std@@@2@V?$_Vector_const_iterator@V?$_Vector_val@UVector2D@@V?$allocator@UVector2D@@@std@@@std@@@2@@Z ; std::vector<Vector2D,std::allocator<Vector2D> >::_Make_iter
	mov	DWORD PTR tv275[ebp], eax
	mov	edx, DWORD PTR $T146627[ebp]
	or	edx, 1
	mov	DWORD PTR $T146627[ebp], edx
	mov	BYTE PTR __$EHRec$[ebp+8], 3
	lea	ecx, DWORD PTR __Last$[ebp]
	call	??1?$_Vector_iterator@V?$_Vector_val@UVector2D@@V?$allocator@UVector2D@@@std@@@std@@@std@@QAE@XZ
	mov	BYTE PTR __$EHRec$[ebp+8], 2
	lea	ecx, DWORD PTR __First$[ebp]
	call	??1?$_Vector_iterator@V?$_Vector_val@UVector2D@@V?$allocator@UVector2D@@@std@@@std@@@std@@QAE@XZ
	mov	BYTE PTR __$EHRec$[ebp+8], 1
	lea	ecx, DWORD PTR __First_arg$[ebp]
	call	??1?$_Vector_const_iterator@V?$_Vector_val@UVector2D@@V?$allocator@UVector2D@@@std@@@std@@@std@@QAE@XZ
	mov	BYTE PTR __$EHRec$[ebp+8], 0
	lea	ecx, DWORD PTR __Last_arg$[ebp]
	call	??1?$_Vector_const_iterator@V?$_Vector_val@UVector2D@@V?$allocator@UVector2D@@@std@@@std@@@std@@QAE@XZ
	mov	eax, DWORD PTR ___$ReturnUdt$[ebp]

; 1214 : 		}

	push	edx
	mov	ecx, ebp
	push	eax
	lea	edx, DWORD PTR $LN19@erase
	call	@_RTC_CheckStackVars@8
	pop	eax
	pop	edx
	mov	ecx, DWORD PTR __$EHRec$[ebp]
	mov	DWORD PTR fs:0, ecx
	pop	ecx
	pop	edi
	add	esp, 100				; 00000064H
	cmp	ebp, esp
	call	__RTC_CheckEsp
	mov	esp, ebp
	pop	ebp
	ret	28					; 0000001cH
	npad	1
$LN19@erase:
	DD	2
	DD	$LN18@erase
$LN18@erase:
	DD	-32					; ffffffe0H
	DD	12					; 0000000cH
	DD	$LN15@erase
	DD	-52					; ffffffccH
	DD	12					; 0000000cH
	DD	$LN16@erase
$LN16@erase:
	DB	95					; 0000005fH
	DB	76					; 0000004cH
	DB	97					; 00000061H
	DB	115					; 00000073H
	DB	116					; 00000074H
	DB	0
$LN15@erase:
	DB	95					; 0000005fH
	DB	70					; 00000046H
	DB	105					; 00000069H
	DB	114					; 00000072H
	DB	115					; 00000073H
	DB	116					; 00000074H
	DB	0
_TEXT	ENDS
;	COMDAT text$x
text$x	SEGMENT
__unwindfunclet$?erase@?$vector@UVector2D@@V?$allocator@UVector2D@@@std@@@std@@QAE?AV?$_Vector_iterator@V?$_Vector_val@UVector2D@@V?$allocator@UVector2D@@@std@@@std@@@2@V?$_Vector_const_iterator@V?$_Vector_val@UVector2D@@V?$allocator@UVector2D@@@std@@@std@@@2@0@Z$0:
	lea	ecx, DWORD PTR __Last_arg$[ebp]
	jmp	??1?$_Vector_const_iterator@V?$_Vector_val@UVector2D@@V?$allocator@UVector2D@@@std@@@std@@@std@@QAE@XZ
__unwindfunclet$?erase@?$vector@UVector2D@@V?$allocator@UVector2D@@@std@@@std@@QAE?AV?$_Vector_iterator@V?$_Vector_val@UVector2D@@V?$allocator@UVector2D@@@std@@@std@@@2@V?$_Vector_const_iterator@V?$_Vector_val@UVector2D@@V?$allocator@UVector2D@@@std@@@std@@@2@0@Z$1:
	lea	ecx, DWORD PTR __First_arg$[ebp]
	jmp	??1?$_Vector_const_iterator@V?$_Vector_val@UVector2D@@V?$allocator@UVector2D@@@std@@@std@@@std@@QAE@XZ
__unwindfunclet$?erase@?$vector@UVector2D@@V?$allocator@UVector2D@@@std@@@std@@QAE?AV?$_Vector_iterator@V?$_Vector_val@UVector2D@@V?$allocator@UVector2D@@@std@@@std@@@2@V?$_Vector_const_iterator@V?$_Vector_val@UVector2D@@V?$allocator@UVector2D@@@std@@@std@@@2@0@Z$3:
	lea	ecx, DWORD PTR __First$[ebp]
	jmp	??1?$_Vector_iterator@V?$_Vector_val@UVector2D@@V?$allocator@UVector2D@@@std@@@std@@@std@@QAE@XZ
__unwindfunclet$?erase@?$vector@UVector2D@@V?$allocator@UVector2D@@@std@@@std@@QAE?AV?$_Vector_iterator@V?$_Vector_val@UVector2D@@V?$allocator@UVector2D@@@std@@@std@@@2@V?$_Vector_const_iterator@V?$_Vector_val@UVector2D@@V?$allocator@UVector2D@@@std@@@std@@@2@0@Z$5:
	lea	ecx, DWORD PTR __Last$[ebp]
	jmp	??1?$_Vector_iterator@V?$_Vector_val@UVector2D@@V?$allocator@UVector2D@@@std@@@std@@@std@@QAE@XZ
__unwindfunclet$?erase@?$vector@UVector2D@@V?$allocator@UVector2D@@@std@@@std@@QAE?AV?$_Vector_iterator@V?$_Vector_val@UVector2D@@V?$allocator@UVector2D@@@std@@@std@@@2@V?$_Vector_const_iterator@V?$_Vector_val@UVector2D@@V?$allocator@UVector2D@@@std@@@std@@@2@0@Z$7:
	mov	eax, DWORD PTR $T146627[ebp]
	and	eax, 1
	je	$LN14@erase
	and	DWORD PTR $T146627[ebp], -2		; fffffffeH
	mov	ecx, DWORD PTR ___$ReturnUdt$[ebp]
	jmp	??1?$_Vector_iterator@V?$_Vector_val@UVector2D@@V?$allocator@UVector2D@@@std@@@std@@@std@@QAE@XZ
$LN14@erase:
	ret	0
__ehhandler$?erase@?$vector@UVector2D@@V?$allocator@UVector2D@@@std@@@std@@QAE?AV?$_Vector_iterator@V?$_Vector_val@UVector2D@@V?$allocator@UVector2D@@@std@@@std@@@2@V?$_Vector_const_iterator@V?$_Vector_val@UVector2D@@V?$allocator@UVector2D@@@std@@@std@@@2@0@Z:
	mov	edx, DWORD PTR [esp+8]
	lea	eax, DWORD PTR [edx+12]
	mov	ecx, DWORD PTR [edx-96]
	xor	ecx, eax
	call	@__security_check_cookie@4
	mov	eax, OFFSET __ehfuncinfo$?erase@?$vector@UVector2D@@V?$allocator@UVector2D@@@std@@@std@@QAE?AV?$_Vector_iterator@V?$_Vector_val@UVector2D@@V?$allocator@UVector2D@@@std@@@std@@@2@V?$_Vector_const_iterator@V?$_Vector_val@UVector2D@@V?$allocator@UVector2D@@@std@@@std@@@2@0@Z
	jmp	___CxxFrameHandler3
text$x	ENDS
?erase@?$vector@UVector2D@@V?$allocator@UVector2D@@@std@@@std@@QAE?AV?$_Vector_iterator@V?$_Vector_val@UVector2D@@V?$allocator@UVector2D@@@std@@@std@@@2@V?$_Vector_const_iterator@V?$_Vector_val@UVector2D@@V?$allocator@UVector2D@@@std@@@std@@@2@0@Z ENDP ; std::vector<Vector2D,std::allocator<Vector2D> >::erase
PUBLIC	?_Clrcont@_Iterator_base12@std@@QAEXXZ		; std::_Iterator_base12::_Clrcont
PUBLIC	?_Getpnext@_Iterator_base12@std@@QAEPAPAU12@XZ	; std::_Iterator_base12::_Getpnext
PUBLIC	?_Getpfirst@_Container_base12@std@@QBEPAPAU_Iterator_base12@2@XZ ; std::_Container_base12::_Getpfirst
;	COMDAT xdata$x
xdata$x	SEGMENT
__unwindtable$?_Orphan_range@?$vector@UVector2D@@V?$allocator@UVector2D@@@std@@@std@@IBEXPAUVector2D@@0@Z DD 0ffffffffH
	DD	FLAT:__unwindfunclet$?_Orphan_range@?$vector@UVector2D@@V?$allocator@UVector2D@@@std@@@std@@IBEXPAUVector2D@@0@Z$0
__ehfuncinfo$?_Orphan_range@?$vector@UVector2D@@V?$allocator@UVector2D@@@std@@@std@@IBEXPAUVector2D@@0@Z DD 019930522H
	DD	01H
	DD	FLAT:__unwindtable$?_Orphan_range@?$vector@UVector2D@@V?$allocator@UVector2D@@@std@@@std@@IBEXPAUVector2D@@0@Z
	DD	2 DUP(00H)
	DD	2 DUP(00H)
	DD	00H
	DD	01H
; Function compile flags: /Odtp /RTCsu
xdata$x	ENDS
;	COMDAT ?_Orphan_range@?$vector@UVector2D@@V?$allocator@UVector2D@@@std@@@std@@IBEXPAUVector2D@@0@Z
_TEXT	SEGMENT
__Pnext$ = -32						; size = 4
__Lock$ = -24						; size = 4
_this$ = -16						; size = 4
__$EHRec$ = -12						; size = 12
__First$ = 8						; size = 4
__Last$ = 12						; size = 4
?_Orphan_range@?$vector@UVector2D@@V?$allocator@UVector2D@@@std@@@std@@IBEXPAUVector2D@@0@Z PROC ; std::vector<Vector2D,std::allocator<Vector2D> >::_Orphan_range, COMDAT
; _this$ = ecx

; 1437 : 		{	// orphan iterators within specified (inclusive) range

	push	ebp
	mov	ebp, esp
	push	-1
	push	__ehhandler$?_Orphan_range@?$vector@UVector2D@@V?$allocator@UVector2D@@@std@@@std@@IBEXPAUVector2D@@0@Z
	mov	eax, DWORD PTR fs:0
	push	eax
	sub	esp, 20					; 00000014H
	mov	eax, -858993460				; ccccccccH
	mov	DWORD PTR [ebp-32], eax
	mov	DWORD PTR [ebp-28], eax
	mov	DWORD PTR [ebp-24], eax
	mov	DWORD PTR [ebp-20], eax
	mov	DWORD PTR [ebp-16], eax
	mov	eax, DWORD PTR ___security_cookie
	xor	eax, ebp
	push	eax
	lea	eax, DWORD PTR __$EHRec$[ebp]
	mov	DWORD PTR fs:0, eax
	mov	DWORD PTR _this$[ebp], ecx

; 1438 : 		_Lockit _Lock(_LOCK_DEBUG);

	push	3
	lea	ecx, DWORD PTR __Lock$[ebp]
	call	??0_Lockit@std@@QAE@H@Z			; std::_Lockit::_Lockit
	mov	DWORD PTR __$EHRec$[ebp+8], 0

; 1439 : 		const_iterator **_Pnext = (const_iterator **)this->_Getpfirst();

	mov	ecx, DWORD PTR _this$[ebp]
	call	?_Getpfirst@_Container_base12@std@@QBEPAPAU_Iterator_base12@2@XZ ; std::_Container_base12::_Getpfirst
	mov	DWORD PTR __Pnext$[ebp], eax

; 1440 : 		if (_Pnext != 0)

	cmp	DWORD PTR __Pnext$[ebp], 0
	je	SHORT $LN6@Orphan_ran
$LN5@Orphan_ran:

; 1441 : 			while (*_Pnext != 0)

	mov	eax, DWORD PTR __Pnext$[ebp]
	cmp	DWORD PTR [eax], 0
	je	SHORT $LN6@Orphan_ran

; 1442 : 				if ((*_Pnext)->_Ptr < _First || _Last < (*_Pnext)->_Ptr)

	mov	ecx, DWORD PTR __Pnext$[ebp]
	mov	edx, DWORD PTR [ecx]
	mov	eax, DWORD PTR [edx+8]
	cmp	eax, DWORD PTR __First$[ebp]
	jb	SHORT $LN2@Orphan_ran
	mov	ecx, DWORD PTR __Pnext$[ebp]
	mov	edx, DWORD PTR [ecx]
	mov	eax, DWORD PTR __Last$[ebp]
	cmp	eax, DWORD PTR [edx+8]
	jae	SHORT $LN3@Orphan_ran
$LN2@Orphan_ran:

; 1443 : 					_Pnext = (const_iterator **)(*_Pnext)->_Getpnext();

	mov	ecx, DWORD PTR __Pnext$[ebp]
	mov	ecx, DWORD PTR [ecx]
	call	?_Getpnext@_Iterator_base12@std@@QAEPAPAU12@XZ ; std::_Iterator_base12::_Getpnext
	mov	DWORD PTR __Pnext$[ebp], eax

; 1444 : 				else

	jmp	SHORT $LN1@Orphan_ran
$LN3@Orphan_ran:

; 1445 : 					{	// orphan the iterator
; 1446 : 					(*_Pnext)->_Clrcont();

	mov	edx, DWORD PTR __Pnext$[ebp]
	mov	ecx, DWORD PTR [edx]
	call	?_Clrcont@_Iterator_base12@std@@QAEXXZ	; std::_Iterator_base12::_Clrcont

; 1447 : 					*_Pnext = *(const_iterator **)(*_Pnext)->_Getpnext();

	mov	eax, DWORD PTR __Pnext$[ebp]
	mov	ecx, DWORD PTR [eax]
	call	?_Getpnext@_Iterator_base12@std@@QAEPAPAU12@XZ ; std::_Iterator_base12::_Getpnext
	mov	ecx, DWORD PTR __Pnext$[ebp]
	mov	edx, DWORD PTR [eax]
	mov	DWORD PTR [ecx], edx
$LN1@Orphan_ran:

; 1448 : 					}

	jmp	SHORT $LN5@Orphan_ran
$LN6@Orphan_ran:

; 1449 : 		}

	mov	DWORD PTR __$EHRec$[ebp+8], -1
	lea	ecx, DWORD PTR __Lock$[ebp]
	call	??1_Lockit@std@@QAE@XZ			; std::_Lockit::~_Lockit
	push	edx
	mov	ecx, ebp
	push	eax
	lea	edx, DWORD PTR $LN13@Orphan_ran
	call	@_RTC_CheckStackVars@8
	pop	eax
	pop	edx
	mov	ecx, DWORD PTR __$EHRec$[ebp]
	mov	DWORD PTR fs:0, ecx
	pop	ecx
	add	esp, 32					; 00000020H
	cmp	ebp, esp
	call	__RTC_CheckEsp
	mov	esp, ebp
	pop	ebp
	ret	8
	npad	1
$LN13@Orphan_ran:
	DD	1
	DD	$LN12@Orphan_ran
$LN12@Orphan_ran:
	DD	-24					; ffffffe8H
	DD	4
	DD	$LN10@Orphan_ran
$LN10@Orphan_ran:
	DB	95					; 0000005fH
	DB	76					; 0000004cH
	DB	111					; 0000006fH
	DB	99					; 00000063H
	DB	107					; 0000006bH
	DB	0
_TEXT	ENDS
;	COMDAT text$x
text$x	SEGMENT
__unwindfunclet$?_Orphan_range@?$vector@UVector2D@@V?$allocator@UVector2D@@@std@@@std@@IBEXPAUVector2D@@0@Z$0:
	lea	ecx, DWORD PTR __Lock$[ebp]
	jmp	??1_Lockit@std@@QAE@XZ			; std::_Lockit::~_Lockit
__ehhandler$?_Orphan_range@?$vector@UVector2D@@V?$allocator@UVector2D@@@std@@@std@@IBEXPAUVector2D@@0@Z:
	mov	edx, DWORD PTR [esp+8]
	lea	eax, DWORD PTR [edx+12]
	mov	ecx, DWORD PTR [edx-24]
	xor	ecx, eax
	call	@__security_check_cookie@4
	mov	eax, OFFSET __ehfuncinfo$?_Orphan_range@?$vector@UVector2D@@V?$allocator@UVector2D@@@std@@@std@@IBEXPAUVector2D@@0@Z
	jmp	___CxxFrameHandler3
text$x	ENDS
?_Orphan_range@?$vector@UVector2D@@V?$allocator@UVector2D@@@std@@@std@@IBEXPAUVector2D@@0@Z ENDP ; std::vector<Vector2D,std::allocator<Vector2D> >::_Orphan_range
; Function compile flags: /Odtp /RTCsu
; File c:\program files (x86)\microsoft visual studio 10.0\vc\include\xutility
;	COMDAT ?_Getpfirst@_Container_base12@std@@QBEPAPAU_Iterator_base12@2@XZ
_TEXT	SEGMENT
tv66 = -8						; size = 4
_this$ = -4						; size = 4
?_Getpfirst@_Container_base12@std@@QBEPAPAU_Iterator_base12@2@XZ PROC ; std::_Container_base12::_Getpfirst, COMDAT
; _this$ = ecx

; 96   : 		{	// get address of iterator chain

	push	ebp
	mov	ebp, esp
	sub	esp, 8
	mov	DWORD PTR [ebp-8], -858993460		; ccccccccH
	mov	DWORD PTR [ebp-4], -858993460		; ccccccccH
	mov	DWORD PTR _this$[ebp], ecx

; 97   : 		return (_Myproxy == 0 ? 0 : &_Myproxy->_Myfirstiter);

	mov	eax, DWORD PTR _this$[ebp]
	cmp	DWORD PTR [eax], 0
	jne	SHORT $LN3@Getpfirst
	mov	DWORD PTR tv66[ebp], 0
	jmp	SHORT $LN4@Getpfirst
$LN3@Getpfirst:
	mov	ecx, DWORD PTR _this$[ebp]
	mov	edx, DWORD PTR [ecx]
	add	edx, 4
	mov	DWORD PTR tv66[ebp], edx
$LN4@Getpfirst:
	mov	eax, DWORD PTR tv66[ebp]

; 98   : 		}

	mov	esp, ebp
	pop	ebp
	ret	0
?_Getpfirst@_Container_base12@std@@QBEPAPAU_Iterator_base12@2@XZ ENDP ; std::_Container_base12::_Getpfirst
; Function compile flags: /Odtp /RTCsu
_TEXT	ENDS
;	COMDAT ?_Clrcont@_Iterator_base12@std@@QAEXXZ
_TEXT	SEGMENT
_this$ = -4						; size = 4
?_Clrcont@_Iterator_base12@std@@QAEXXZ PROC		; std::_Iterator_base12::_Clrcont, COMDAT
; _this$ = ecx

; 169  : 		{	// disown owning container

	push	ebp
	mov	ebp, esp
	push	ecx
	mov	DWORD PTR [ebp-4], -858993460		; ccccccccH
	mov	DWORD PTR _this$[ebp], ecx

; 170  : 		_Myproxy = 0;

	mov	eax, DWORD PTR _this$[ebp]
	mov	DWORD PTR [eax], 0

; 171  : 		}

	mov	esp, ebp
	pop	ebp
	ret	0
?_Clrcont@_Iterator_base12@std@@QAEXXZ ENDP		; std::_Iterator_base12::_Clrcont
; Function compile flags: /Odtp /RTCsu
_TEXT	ENDS
;	COMDAT ?_Getpnext@_Iterator_base12@std@@QAEPAPAU12@XZ
_TEXT	SEGMENT
_this$ = -4						; size = 4
?_Getpnext@_Iterator_base12@std@@QAEPAPAU12@XZ PROC	; std::_Iterator_base12::_Getpnext, COMDAT
; _this$ = ecx

; 179  : 		{	// get address of remaining iterator chain

	push	ebp
	mov	ebp, esp
	push	ecx
	mov	DWORD PTR [ebp-4], -858993460		; ccccccccH
	mov	DWORD PTR _this$[ebp], ecx

; 180  : 		return (&_Mynextiter);

	mov	eax, DWORD PTR _this$[ebp]
	add	eax, 4

; 181  : 		}

	mov	esp, ebp
	pop	ebp
	ret	0
?_Getpnext@_Iterator_base12@std@@QAEPAPAU12@XZ ENDP	; std::_Iterator_base12::_Getpnext
_TEXT	ENDS
PUBLIC	??$_Destroy_range@V?$allocator@UVector2D@@@std@@@std@@YAXPAUVector2D@@0AAV?$allocator@UVector2D@@@0@@Z ; std::_Destroy_range<std::allocator<Vector2D> >
; Function compile flags: /Odtp /RTCsu
; File c:\program files (x86)\microsoft visual studio 10.0\vc\include\vector
;	COMDAT ?_Destroy@?$vector@UVector2D@@V?$allocator@UVector2D@@@std@@@std@@IAEXPAUVector2D@@0@Z
_TEXT	SEGMENT
_this$ = -4						; size = 4
__First$ = 8						; size = 4
__Last$ = 12						; size = 4
?_Destroy@?$vector@UVector2D@@V?$allocator@UVector2D@@@std@@@std@@IAEXPAUVector2D@@0@Z PROC ; std::vector<Vector2D,std::allocator<Vector2D> >::_Destroy, COMDAT
; _this$ = ecx

; 1269 : 		{	// destroy [_First, _Last) using allocator

	push	ebp
	mov	ebp, esp
	push	ecx
	mov	DWORD PTR [ebp-4], -858993460		; ccccccccH
	mov	DWORD PTR _this$[ebp], ecx

; 1270 : 		_Destroy_range(_First, _Last, this->_Alval);

	mov	eax, DWORD PTR _this$[ebp]
	add	eax, 16					; 00000010H
	push	eax
	mov	ecx, DWORD PTR __Last$[ebp]
	push	ecx
	mov	edx, DWORD PTR __First$[ebp]
	push	edx
	call	??$_Destroy_range@V?$allocator@UVector2D@@@std@@@std@@YAXPAUVector2D@@0AAV?$allocator@UVector2D@@@0@@Z ; std::_Destroy_range<std::allocator<Vector2D> >
	add	esp, 12					; 0000000cH

; 1271 : 		}

	add	esp, 4
	cmp	ebp, esp
	call	__RTC_CheckEsp
	mov	esp, ebp
	pop	ebp
	ret	8
?_Destroy@?$vector@UVector2D@@V?$allocator@UVector2D@@@std@@@std@@IAEXPAUVector2D@@0@Z ENDP ; std::vector<Vector2D,std::allocator<Vector2D> >::_Destroy
; Function compile flags: /Odtp /RTCsu
_TEXT	ENDS
;	COMDAT ?_Grow_to@?$vector@UVector2D@@V?$allocator@UVector2D@@@std@@@std@@IBEII@Z
_TEXT	SEGMENT
tv73 = -12						; size = 4
__Capacity$ = -8					; size = 4
_this$ = -4						; size = 4
__Count$ = 8						; size = 4
?_Grow_to@?$vector@UVector2D@@V?$allocator@UVector2D@@@std@@@std@@IBEII@Z PROC ; std::vector<Vector2D,std::allocator<Vector2D> >::_Grow_to, COMDAT
; _this$ = ecx

; 1274 : 		{	// grow by 50% or at least to _Count

	push	ebp
	mov	ebp, esp
	sub	esp, 12					; 0000000cH
	mov	DWORD PTR [ebp-12], -858993460		; ccccccccH
	mov	DWORD PTR [ebp-8], -858993460		; ccccccccH
	mov	DWORD PTR [ebp-4], -858993460		; ccccccccH
	mov	DWORD PTR _this$[ebp], ecx

; 1275 : 		size_type _Capacity = capacity();

	mov	ecx, DWORD PTR _this$[ebp]
	call	?capacity@?$vector@UVector2D@@V?$allocator@UVector2D@@@std@@@std@@QBEIXZ ; std::vector<Vector2D,std::allocator<Vector2D> >::capacity
	mov	DWORD PTR __Capacity$[ebp], eax

; 1276 : 
; 1277 : 		_Capacity = max_size() - _Capacity / 2 < _Capacity
; 1278 : 			? 0 : _Capacity + _Capacity / 2;	// try to grow by 50%

	mov	ecx, DWORD PTR _this$[ebp]
	call	?max_size@?$vector@UVector2D@@V?$allocator@UVector2D@@@std@@@std@@QBEIXZ ; std::vector<Vector2D,std::allocator<Vector2D> >::max_size
	mov	ecx, DWORD PTR __Capacity$[ebp]
	shr	ecx, 1
	sub	eax, ecx
	cmp	eax, DWORD PTR __Capacity$[ebp]
	jae	SHORT $LN4@Grow_to
	mov	DWORD PTR tv73[ebp], 0
	jmp	SHORT $LN5@Grow_to
$LN4@Grow_to:
	mov	edx, DWORD PTR __Capacity$[ebp]
	shr	edx, 1
	add	edx, DWORD PTR __Capacity$[ebp]
	mov	DWORD PTR tv73[ebp], edx
$LN5@Grow_to:
	mov	eax, DWORD PTR tv73[ebp]
	mov	DWORD PTR __Capacity$[ebp], eax

; 1279 : 		if (_Capacity < _Count)

	mov	ecx, DWORD PTR __Capacity$[ebp]
	cmp	ecx, DWORD PTR __Count$[ebp]
	jae	SHORT $LN1@Grow_to

; 1280 : 			_Capacity = _Count;

	mov	edx, DWORD PTR __Count$[ebp]
	mov	DWORD PTR __Capacity$[ebp], edx
$LN1@Grow_to:

; 1281 : 		return (_Capacity);

	mov	eax, DWORD PTR __Capacity$[ebp]

; 1282 : 		}

	add	esp, 12					; 0000000cH
	cmp	ebp, esp
	call	__RTC_CheckEsp
	mov	esp, ebp
	pop	ebp
	ret	4
?_Grow_to@?$vector@UVector2D@@V?$allocator@UVector2D@@@std@@@std@@IBEII@Z ENDP ; std::vector<Vector2D,std::allocator<Vector2D> >::_Grow_to
_TEXT	ENDS
PUBLIC	??_C@_0BD@OLBABOEK@vector?$DMT?$DO?5too?5long?$AA@ ; `string'
EXTRN	?_Xlength_error@std@@YAXPBD@Z:PROC		; std::_Xlength_error
;	COMDAT ??_C@_0BD@OLBABOEK@vector?$DMT?$DO?5too?5long?$AA@
CONST	SEGMENT
??_C@_0BD@OLBABOEK@vector?$DMT?$DO?5too?5long?$AA@ DB 'vector<T> too long'
	DB	00H						; `string'
; Function compile flags: /Odtp /RTCsu
CONST	ENDS
;	COMDAT ?_Xlen@?$vector@UVector2D@@V?$allocator@UVector2D@@@std@@@std@@IBEXXZ
_TEXT	SEGMENT
_this$ = -4						; size = 4
?_Xlen@?$vector@UVector2D@@V?$allocator@UVector2D@@@std@@@std@@IBEXXZ PROC ; std::vector<Vector2D,std::allocator<Vector2D> >::_Xlen, COMDAT
; _this$ = ecx

; 1426 : 		{	// report a length_error

	push	ebp
	mov	ebp, esp
	push	ecx
	mov	DWORD PTR [ebp-4], -858993460		; ccccccccH
	mov	DWORD PTR _this$[ebp], ecx

; 1427 : 		_Xlength_error("vector<T> too long");

	push	OFFSET ??_C@_0BD@OLBABOEK@vector?$DMT?$DO?5too?5long?$AA@
	call	?_Xlength_error@std@@YAXPBD@Z		; std::_Xlength_error
$LN2@Xlen:

; 1428 : 		}

	add	esp, 4
	cmp	ebp, esp
	call	__RTC_CheckEsp
	mov	esp, ebp
	pop	ebp
	ret	0
?_Xlen@?$vector@UVector2D@@V?$allocator@UVector2D@@@std@@@std@@IBEXXZ ENDP ; std::vector<Vector2D,std::allocator<Vector2D> >::_Xlen
; Function compile flags: /Odtp /RTCsu
; File c:\program files (x86)\microsoft visual studio 10.0\vc\include\xmemory
_TEXT	ENDS
;	COMDAT ?deallocate@?$allocator@UVector2D@@@std@@QAEXPAUVector2D@@I@Z
_TEXT	SEGMENT
_this$ = -4						; size = 4
__Ptr$ = 8						; size = 4
___formal$ = 12						; size = 4
?deallocate@?$allocator@UVector2D@@@std@@QAEXPAUVector2D@@I@Z PROC ; std::allocator<Vector2D>::deallocate, COMDAT
; _this$ = ecx

; 181  : 		{	// deallocate object at _Ptr, ignore size

	push	ebp
	mov	ebp, esp
	push	ecx
	mov	DWORD PTR [ebp-4], -858993460		; ccccccccH
	mov	DWORD PTR _this$[ebp], ecx

; 182  : 		::operator delete(_Ptr);

	mov	eax, DWORD PTR __Ptr$[ebp]
	push	eax
	call	??3@YAXPAX@Z				; operator delete
	add	esp, 4

; 183  : 		}

	add	esp, 4
	cmp	ebp, esp
	call	__RTC_CheckEsp
	mov	esp, ebp
	pop	ebp
	ret	8
?deallocate@?$allocator@UVector2D@@@std@@QAEXPAUVector2D@@I@Z ENDP ; std::allocator<Vector2D>::deallocate
_TEXT	ENDS
PUBLIC	??$_Allocate@UVector2D@@@std@@YAPAUVector2D@@IPAU1@@Z ; std::_Allocate<Vector2D>
; Function compile flags: /Odtp /RTCsu
;	COMDAT ?allocate@?$allocator@UVector2D@@@std@@QAEPAUVector2D@@I@Z
_TEXT	SEGMENT
_this$ = -4						; size = 4
__Count$ = 8						; size = 4
?allocate@?$allocator@UVector2D@@@std@@QAEPAUVector2D@@I@Z PROC ; std::allocator<Vector2D>::allocate, COMDAT
; _this$ = ecx

; 186  : 		{	// allocate array of _Count elements

	push	ebp
	mov	ebp, esp
	push	ecx
	mov	DWORD PTR [ebp-4], -858993460		; ccccccccH
	mov	DWORD PTR _this$[ebp], ecx

; 187  : 		return (_Allocate(_Count, (pointer)0));

	push	0
	mov	eax, DWORD PTR __Count$[ebp]
	push	eax
	call	??$_Allocate@UVector2D@@@std@@YAPAUVector2D@@IPAU1@@Z ; std::_Allocate<Vector2D>
	add	esp, 8

; 188  : 		}

	add	esp, 4
	cmp	ebp, esp
	call	__RTC_CheckEsp
	mov	esp, ebp
	pop	ebp
	ret	4
?allocate@?$allocator@UVector2D@@@std@@QAEPAUVector2D@@I@Z ENDP ; std::allocator<Vector2D>::allocate
_TEXT	ENDS
PUBLIC	??0?$_Iterator012@Ubidirectional_iterator_tag@std@@PAVAbstRaven_Bot@@HPBQAV3@ABQAV3@U_Iterator_base12@2@@std@@QAE@XZ ; std::_Iterator012<std::bidirectional_iterator_tag,AbstRaven_Bot *,int,AbstRaven_Bot * const *,AbstRaven_Bot * const &,std::_Iterator_base12>::_Iterator012<std::bidirectional_iterator_tag,AbstRaven_Bot *,int,AbstRaven_Bot * const *,AbstRaven_Bot * const &,std::_Iterator_base12>
;	COMDAT xdata$x
; File c:\program files (x86)\microsoft visual studio 10.0\vc\include\list
xdata$x	SEGMENT
__unwindtable$??0?$_List_unchecked_const_iterator@V?$_List_val@PAVAbstRaven_Bot@@V?$allocator@PAVAbstRaven_Bot@@@std@@@std@@U_Iterator_base12@2@@std@@QAE@PAU_Node@?$_List_nod@PAVAbstRaven_Bot@@V?$allocator@PAVAbstRaven_Bot@@@std@@@1@PBV?$_List_val@PAVAbstRaven_Bot@@V?$allocator@PAVAbstRaven_Bot@@@std@@@1@@Z DD 0ffffffffH
	DD	FLAT:__unwindfunclet$??0?$_List_unchecked_const_iterator@V?$_List_val@PAVAbstRaven_Bot@@V?$allocator@PAVAbstRaven_Bot@@@std@@@std@@U_Iterator_base12@2@@std@@QAE@PAU_Node@?$_List_nod@PAVAbstRaven_Bot@@V?$allocator@PAVAbstRaven_Bot@@@std@@@1@PBV?$_List_val@PAVAbstRaven_Bot@@V?$allocator@PAVAbstRaven_Bot@@@std@@@1@@Z$0
__ehfuncinfo$??0?$_List_unchecked_const_iterator@V?$_List_val@PAVAbstRaven_Bot@@V?$allocator@PAVAbstRaven_Bot@@@std@@@std@@U_Iterator_base12@2@@std@@QAE@PAU_Node@?$_List_nod@PAVAbstRaven_Bot@@V?$allocator@PAVAbstRaven_Bot@@@std@@@1@PBV?$_List_val@PAVAbstRaven_Bot@@V?$allocator@PAVAbstRaven_Bot@@@std@@@1@@Z DD 019930522H
	DD	01H
	DD	FLAT:__unwindtable$??0?$_List_unchecked_const_iterator@V?$_List_val@PAVAbstRaven_Bot@@V?$allocator@PAVAbstRaven_Bot@@@std@@@std@@U_Iterator_base12@2@@std@@QAE@PAU_Node@?$_List_nod@PAVAbstRaven_Bot@@V?$allocator@PAVAbstRaven_Bot@@@std@@@1@PBV?$_List_val@PAVAbstRaven_Bot@@V?$allocator@PAVAbstRaven_Bot@@@std@@@1@@Z
	DD	2 DUP(00H)
	DD	2 DUP(00H)
	DD	00H
	DD	01H
; Function compile flags: /Odtp /RTCsu
xdata$x	ENDS
;	COMDAT ??0?$_List_unchecked_const_iterator@V?$_List_val@PAVAbstRaven_Bot@@V?$allocator@PAVAbstRaven_Bot@@@std@@@std@@U_Iterator_base12@2@@std@@QAE@PAU_Node@?$_List_nod@PAVAbstRaven_Bot@@V?$allocator@PAVAbstRaven_Bot@@@std@@@1@PBV?$_List_val@PAVAbstRaven_Bot@@V?$allocator@PAVAbstRaven_Bot@@@std@@@1@@Z
_TEXT	SEGMENT
_this$ = -16						; size = 4
__$EHRec$ = -12						; size = 12
__Pnode$ = 8						; size = 4
__Plist$ = 12						; size = 4
??0?$_List_unchecked_const_iterator@V?$_List_val@PAVAbstRaven_Bot@@V?$allocator@PAVAbstRaven_Bot@@@std@@@std@@U_Iterator_base12@2@@std@@QAE@PAU_Node@?$_List_nod@PAVAbstRaven_Bot@@V?$allocator@PAVAbstRaven_Bot@@@std@@@1@PBV?$_List_val@PAVAbstRaven_Bot@@V?$allocator@PAVAbstRaven_Bot@@@std@@@1@@Z PROC ; std::_List_unchecked_const_iterator<std::_List_val<AbstRaven_Bot *,std::allocator<AbstRaven_Bot *> >,std::_Iterator_base12>::_List_unchecked_const_iterator<std::_List_val<AbstRaven_Bot *,std::allocator<AbstRaven_Bot *> >,std::_Iterator_base12>, COMDAT
; _this$ = ecx

; 41   : 		{	// construct with node pointer _Pnode

	push	ebp
	mov	ebp, esp
	push	-1
	push	__ehhandler$??0?$_List_unchecked_const_iterator@V?$_List_val@PAVAbstRaven_Bot@@V?$allocator@PAVAbstRaven_Bot@@@std@@@std@@U_Iterator_base12@2@@std@@QAE@PAU_Node@?$_List_nod@PAVAbstRaven_Bot@@V?$allocator@PAVAbstRaven_Bot@@@std@@@1@PBV?$_List_val@PAVAbstRaven_Bot@@V?$allocator@PAVAbstRaven_Bot@@@std@@@1@@Z
	mov	eax, DWORD PTR fs:0
	push	eax
	push	ecx
	mov	DWORD PTR [ebp-16], -858993460		; ccccccccH
	mov	eax, DWORD PTR ___security_cookie
	xor	eax, ebp
	push	eax
	lea	eax, DWORD PTR __$EHRec$[ebp]
	mov	DWORD PTR fs:0, eax
	mov	DWORD PTR _this$[ebp], ecx
	mov	ecx, DWORD PTR _this$[ebp]
	call	??0?$_Iterator012@Ubidirectional_iterator_tag@std@@PAVAbstRaven_Bot@@HPBQAV3@ABQAV3@U_Iterator_base12@2@@std@@QAE@XZ
	mov	DWORD PTR __$EHRec$[ebp+8], 0
	mov	eax, DWORD PTR _this$[ebp]
	mov	ecx, DWORD PTR __Pnode$[ebp]
	mov	DWORD PTR [eax+8], ecx

; 42   : 		this->_Adopt(_Plist);

	mov	edx, DWORD PTR __Plist$[ebp]
	push	edx
	mov	ecx, DWORD PTR _this$[ebp]
	call	?_Adopt@_Iterator_base12@std@@QAEXPBU_Container_base12@2@@Z ; std::_Iterator_base12::_Adopt

; 43   : 		}

	mov	DWORD PTR __$EHRec$[ebp+8], -1
	mov	eax, DWORD PTR _this$[ebp]
	mov	ecx, DWORD PTR __$EHRec$[ebp]
	mov	DWORD PTR fs:0, ecx
	pop	ecx
	add	esp, 16					; 00000010H
	cmp	ebp, esp
	call	__RTC_CheckEsp
	mov	esp, ebp
	pop	ebp
	ret	8
_TEXT	ENDS
;	COMDAT text$x
text$x	SEGMENT
__unwindfunclet$??0?$_List_unchecked_const_iterator@V?$_List_val@PAVAbstRaven_Bot@@V?$allocator@PAVAbstRaven_Bot@@@std@@@std@@U_Iterator_base12@2@@std@@QAE@PAU_Node@?$_List_nod@PAVAbstRaven_Bot@@V?$allocator@PAVAbstRaven_Bot@@@std@@@1@PBV?$_List_val@PAVAbstRaven_Bot@@V?$allocator@PAVAbstRaven_Bot@@@std@@@1@@Z$0:
	mov	ecx, DWORD PTR _this$[ebp]
	jmp	??1?$_Iterator012@Ubidirectional_iterator_tag@std@@PAVAbstRaven_Bot@@HPBQAV3@ABQAV3@U_Iterator_base12@2@@std@@QAE@XZ
__ehhandler$??0?$_List_unchecked_const_iterator@V?$_List_val@PAVAbstRaven_Bot@@V?$allocator@PAVAbstRaven_Bot@@@std@@@std@@U_Iterator_base12@2@@std@@QAE@PAU_Node@?$_List_nod@PAVAbstRaven_Bot@@V?$allocator@PAVAbstRaven_Bot@@@std@@@1@PBV?$_List_val@PAVAbstRaven_Bot@@V?$allocator@PAVAbstRaven_Bot@@@std@@@1@@Z:
	mov	edx, DWORD PTR [esp+8]
	lea	eax, DWORD PTR [edx+12]
	mov	ecx, DWORD PTR [edx-8]
	xor	ecx, eax
	call	@__security_check_cookie@4
	mov	eax, OFFSET __ehfuncinfo$??0?$_List_unchecked_const_iterator@V?$_List_val@PAVAbstRaven_Bot@@V?$allocator@PAVAbstRaven_Bot@@@std@@@std@@U_Iterator_base12@2@@std@@QAE@PAU_Node@?$_List_nod@PAVAbstRaven_Bot@@V?$allocator@PAVAbstRaven_Bot@@@std@@@1@PBV?$_List_val@PAVAbstRaven_Bot@@V?$allocator@PAVAbstRaven_Bot@@@std@@@1@@Z
	jmp	___CxxFrameHandler3
text$x	ENDS
??0?$_List_unchecked_const_iterator@V?$_List_val@PAVAbstRaven_Bot@@V?$allocator@PAVAbstRaven_Bot@@@std@@@std@@U_Iterator_base12@2@@std@@QAE@PAU_Node@?$_List_nod@PAVAbstRaven_Bot@@V?$allocator@PAVAbstRaven_Bot@@@std@@@1@PBV?$_List_val@PAVAbstRaven_Bot@@V?$allocator@PAVAbstRaven_Bot@@@std@@@1@@Z ENDP ; std::_List_unchecked_const_iterator<std::_List_val<AbstRaven_Bot *,std::allocator<AbstRaven_Bot *> >,std::_Iterator_base12>::_List_unchecked_const_iterator<std::_List_val<AbstRaven_Bot *,std::allocator<AbstRaven_Bot *> >,std::_Iterator_base12>
PUBLIC	??8?$_Vector_const_iterator@V?$_Vector_val@UVector2D@@V?$allocator@UVector2D@@@std@@@std@@@std@@QBE_NABV01@@Z ; std::_Vector_const_iterator<std::_Vector_val<Vector2D,std::allocator<Vector2D> > >::operator==
; Function compile flags: /Odtp /RTCsu
; File c:\program files (x86)\microsoft visual studio 10.0\vc\include\vector
;	COMDAT ??9?$_Vector_const_iterator@V?$_Vector_val@UVector2D@@V?$allocator@UVector2D@@@std@@@std@@@std@@QBE_NABV01@@Z
_TEXT	SEGMENT
_this$ = -4						; size = 4
__Right$ = 8						; size = 4
??9?$_Vector_const_iterator@V?$_Vector_val@UVector2D@@V?$allocator@UVector2D@@@std@@@std@@@std@@QBE_NABV01@@Z PROC ; std::_Vector_const_iterator<std::_Vector_val<Vector2D,std::allocator<Vector2D> > >::operator!=, COMDAT
; _this$ = ecx

; 207  : 		{	// test for iterator inequality

	push	ebp
	mov	ebp, esp
	push	ecx
	mov	DWORD PTR [ebp-4], -858993460		; ccccccccH
	mov	DWORD PTR _this$[ebp], ecx

; 208  : 		return (!(*this == _Right));

	mov	eax, DWORD PTR __Right$[ebp]
	push	eax
	mov	ecx, DWORD PTR _this$[ebp]
	call	??8?$_Vector_const_iterator@V?$_Vector_val@UVector2D@@V?$allocator@UVector2D@@@std@@@std@@@std@@QBE_NABV01@@Z ; std::_Vector_const_iterator<std::_Vector_val<Vector2D,std::allocator<Vector2D> > >::operator==
	movzx	eax, al
	neg	eax
	sbb	eax, eax
	add	eax, 1

; 209  : 		}

	add	esp, 4
	cmp	ebp, esp
	call	__RTC_CheckEsp
	mov	esp, ebp
	pop	ebp
	ret	4
??9?$_Vector_const_iterator@V?$_Vector_val@UVector2D@@V?$allocator@UVector2D@@@std@@@std@@@std@@QBE_NABV01@@Z ENDP ; std::_Vector_const_iterator<std::_Vector_val<Vector2D,std::allocator<Vector2D> > >::operator!=
; Function compile flags: /Odtp /RTCsu
; File c:\program files (x86)\microsoft visual studio 10.0\vc\include\xmemory
_TEXT	ENDS
;	COMDAT ?deallocate@?$allocator@U_Container_proxy@std@@@std@@QAEXPAU_Container_proxy@2@I@Z
_TEXT	SEGMENT
_this$ = -4						; size = 4
__Ptr$ = 8						; size = 4
___formal$ = 12						; size = 4
?deallocate@?$allocator@U_Container_proxy@std@@@std@@QAEXPAU_Container_proxy@2@I@Z PROC ; std::allocator<std::_Container_proxy>::deallocate, COMDAT
; _this$ = ecx

; 181  : 		{	// deallocate object at _Ptr, ignore size

	push	ebp
	mov	ebp, esp
	push	ecx
	mov	DWORD PTR [ebp-4], -858993460		; ccccccccH
	mov	DWORD PTR _this$[ebp], ecx

; 182  : 		::operator delete(_Ptr);

	mov	eax, DWORD PTR __Ptr$[ebp]
	push	eax
	call	??3@YAXPAX@Z				; operator delete
	add	esp, 4

; 183  : 		}

	add	esp, 4
	cmp	ebp, esp
	call	__RTC_CheckEsp
	mov	esp, ebp
	pop	ebp
	ret	8
?deallocate@?$allocator@U_Container_proxy@std@@@std@@QAEXPAU_Container_proxy@2@I@Z ENDP ; std::allocator<std::_Container_proxy>::deallocate
_TEXT	ENDS
PUBLIC	??$_Allocate@U_Container_proxy@std@@@std@@YAPAU_Container_proxy@0@IPAU10@@Z ; std::_Allocate<std::_Container_proxy>
; Function compile flags: /Odtp /RTCsu
;	COMDAT ?allocate@?$allocator@U_Container_proxy@std@@@std@@QAEPAU_Container_proxy@2@I@Z
_TEXT	SEGMENT
_this$ = -4						; size = 4
__Count$ = 8						; size = 4
?allocate@?$allocator@U_Container_proxy@std@@@std@@QAEPAU_Container_proxy@2@I@Z PROC ; std::allocator<std::_Container_proxy>::allocate, COMDAT
; _this$ = ecx

; 186  : 		{	// allocate array of _Count elements

	push	ebp
	mov	ebp, esp
	push	ecx
	mov	DWORD PTR [ebp-4], -858993460		; ccccccccH
	mov	DWORD PTR _this$[ebp], ecx

; 187  : 		return (_Allocate(_Count, (pointer)0));

	push	0
	mov	eax, DWORD PTR __Count$[ebp]
	push	eax
	call	??$_Allocate@U_Container_proxy@std@@@std@@YAPAU_Container_proxy@0@IPAU10@@Z ; std::_Allocate<std::_Container_proxy>
	add	esp, 8

; 188  : 		}

	add	esp, 4
	cmp	ebp, esp
	call	__RTC_CheckEsp
	mov	esp, ebp
	pop	ebp
	ret	4
?allocate@?$allocator@U_Container_proxy@std@@@std@@QAEPAU_Container_proxy@2@I@Z ENDP ; std::allocator<std::_Container_proxy>::allocate
_TEXT	ENDS
PUBLIC	??Y?$_Vector_iterator@V?$_Vector_val@UVector2D@@V?$allocator@UVector2D@@@std@@@std@@@std@@QAEAAV01@H@Z ; std::_Vector_iterator<std::_Vector_val<Vector2D,std::allocator<Vector2D> > >::operator+=
PUBLIC	??0?$_Vector_iterator@V?$_Vector_val@UVector2D@@V?$allocator@UVector2D@@@std@@@std@@@std@@QAE@ABV01@@Z ; std::_Vector_iterator<std::_Vector_val<Vector2D,std::allocator<Vector2D> > >::_Vector_iterator<std::_Vector_val<Vector2D,std::allocator<Vector2D> > >
;	COMDAT xdata$x
; File c:\program files (x86)\microsoft visual studio 10.0\vc\include\vector
xdata$x	SEGMENT
__unwindtable$??H?$_Vector_iterator@V?$_Vector_val@UVector2D@@V?$allocator@UVector2D@@@std@@@std@@@std@@QBE?AV01@H@Z DD 0ffffffffH
	DD	FLAT:__unwindfunclet$??H?$_Vector_iterator@V?$_Vector_val@UVector2D@@V?$allocator@UVector2D@@@std@@@std@@@std@@QBE?AV01@H@Z$1
	DD	00H
	DD	FLAT:__unwindfunclet$??H?$_Vector_iterator@V?$_Vector_val@UVector2D@@V?$allocator@UVector2D@@@std@@@std@@@std@@QBE?AV01@H@Z$0
__ehfuncinfo$??H?$_Vector_iterator@V?$_Vector_val@UVector2D@@V?$allocator@UVector2D@@@std@@@std@@@std@@QBE?AV01@H@Z DD 019930522H
	DD	02H
	DD	FLAT:__unwindtable$??H?$_Vector_iterator@V?$_Vector_val@UVector2D@@V?$allocator@UVector2D@@@std@@@std@@@std@@QBE?AV01@H@Z
	DD	2 DUP(00H)
	DD	2 DUP(00H)
	DD	00H
	DD	01H
; Function compile flags: /Odtp /RTCsu
xdata$x	ENDS
;	COMDAT ??H?$_Vector_iterator@V?$_Vector_val@UVector2D@@V?$allocator@UVector2D@@@std@@@std@@@std@@QBE?AV01@H@Z
_TEXT	SEGMENT
$T146690 = -40						; size = 4
__Tmp$ = -32						; size = 12
_this$ = -16						; size = 4
__$EHRec$ = -12						; size = 12
___$ReturnUdt$ = 8					; size = 4
__Off$ = 12						; size = 4
??H?$_Vector_iterator@V?$_Vector_val@UVector2D@@V?$allocator@UVector2D@@@std@@@std@@@std@@QBE?AV01@H@Z PROC ; std::_Vector_iterator<std::_Vector_val<Vector2D,std::allocator<Vector2D> > >::operator+, COMDAT
; _this$ = ecx

; 363  : 		{	// return this + integer

	push	ebp
	mov	ebp, esp
	push	-1
	push	__ehhandler$??H?$_Vector_iterator@V?$_Vector_val@UVector2D@@V?$allocator@UVector2D@@@std@@@std@@@std@@QBE?AV01@H@Z
	mov	eax, DWORD PTR fs:0
	push	eax
	sub	esp, 28					; 0000001cH
	mov	eax, -858993460				; ccccccccH
	mov	DWORD PTR [ebp-40], eax
	mov	DWORD PTR [ebp-36], eax
	mov	DWORD PTR [ebp-32], eax
	mov	DWORD PTR [ebp-28], eax
	mov	DWORD PTR [ebp-24], eax
	mov	DWORD PTR [ebp-20], eax
	mov	DWORD PTR [ebp-16], eax
	mov	eax, DWORD PTR ___security_cookie
	xor	eax, ebp
	push	eax
	lea	eax, DWORD PTR __$EHRec$[ebp]
	mov	DWORD PTR fs:0, eax
	mov	DWORD PTR _this$[ebp], ecx
	mov	DWORD PTR $T146690[ebp], 0

; 364  : 		_Myiter _Tmp = *this;

	mov	eax, DWORD PTR _this$[ebp]
	push	eax
	lea	ecx, DWORD PTR __Tmp$[ebp]
	call	??0?$_Vector_iterator@V?$_Vector_val@UVector2D@@V?$allocator@UVector2D@@@std@@@std@@@std@@QAE@ABV01@@Z
	mov	DWORD PTR __$EHRec$[ebp+8], 1

; 365  : 		return (_Tmp += _Off);

	mov	ecx, DWORD PTR __Off$[ebp]
	push	ecx
	lea	ecx, DWORD PTR __Tmp$[ebp]
	call	??Y?$_Vector_iterator@V?$_Vector_val@UVector2D@@V?$allocator@UVector2D@@@std@@@std@@@std@@QAEAAV01@H@Z ; std::_Vector_iterator<std::_Vector_val<Vector2D,std::allocator<Vector2D> > >::operator+=
	push	eax
	mov	ecx, DWORD PTR ___$ReturnUdt$[ebp]
	call	??0?$_Vector_iterator@V?$_Vector_val@UVector2D@@V?$allocator@UVector2D@@@std@@@std@@@std@@QAE@ABV01@@Z
	mov	edx, DWORD PTR $T146690[ebp]
	or	edx, 1
	mov	DWORD PTR $T146690[ebp], edx
	mov	BYTE PTR __$EHRec$[ebp+8], 0
	lea	ecx, DWORD PTR __Tmp$[ebp]
	call	??1?$_Vector_iterator@V?$_Vector_val@UVector2D@@V?$allocator@UVector2D@@@std@@@std@@@std@@QAE@XZ
	mov	eax, DWORD PTR ___$ReturnUdt$[ebp]

; 366  : 		}

	push	edx
	mov	ecx, ebp
	push	eax
	lea	edx, DWORD PTR $LN9@operator@12
	call	@_RTC_CheckStackVars@8
	pop	eax
	pop	edx
	mov	ecx, DWORD PTR __$EHRec$[ebp]
	mov	DWORD PTR fs:0, ecx
	pop	ecx
	add	esp, 40					; 00000028H
	cmp	ebp, esp
	call	__RTC_CheckEsp
	mov	esp, ebp
	pop	ebp
	ret	8
	npad	3
$LN9@operator@12:
	DD	1
	DD	$LN8@operator@12
$LN8@operator@12:
	DD	-32					; ffffffe0H
	DD	12					; 0000000cH
	DD	$LN6@operator@12
$LN6@operator@12:
	DB	95					; 0000005fH
	DB	84					; 00000054H
	DB	109					; 0000006dH
	DB	112					; 00000070H
	DB	0
_TEXT	ENDS
;	COMDAT text$x
text$x	SEGMENT
__unwindfunclet$??H?$_Vector_iterator@V?$_Vector_val@UVector2D@@V?$allocator@UVector2D@@@std@@@std@@@std@@QBE?AV01@H@Z$0:
	lea	ecx, DWORD PTR __Tmp$[ebp]
	jmp	??1?$_Vector_iterator@V?$_Vector_val@UVector2D@@V?$allocator@UVector2D@@@std@@@std@@@std@@QAE@XZ
__unwindfunclet$??H?$_Vector_iterator@V?$_Vector_val@UVector2D@@V?$allocator@UVector2D@@@std@@@std@@@std@@QBE?AV01@H@Z$1:
	mov	eax, DWORD PTR $T146690[ebp]
	and	eax, 1
	je	$LN5@operator@12
	and	DWORD PTR $T146690[ebp], -2		; fffffffeH
	mov	ecx, DWORD PTR ___$ReturnUdt$[ebp]
	jmp	??1?$_Vector_iterator@V?$_Vector_val@UVector2D@@V?$allocator@UVector2D@@@std@@@std@@@std@@QAE@XZ
$LN5@operator@12:
	ret	0
__ehhandler$??H?$_Vector_iterator@V?$_Vector_val@UVector2D@@V?$allocator@UVector2D@@@std@@@std@@@std@@QBE?AV01@H@Z:
	mov	edx, DWORD PTR [esp+8]
	lea	eax, DWORD PTR [edx+12]
	mov	ecx, DWORD PTR [edx-32]
	xor	ecx, eax
	call	@__security_check_cookie@4
	mov	eax, OFFSET __ehfuncinfo$??H?$_Vector_iterator@V?$_Vector_val@UVector2D@@V?$allocator@UVector2D@@@std@@@std@@@std@@QBE?AV01@H@Z
	jmp	___CxxFrameHandler3
text$x	ENDS
??H?$_Vector_iterator@V?$_Vector_val@UVector2D@@V?$allocator@UVector2D@@@std@@@std@@@std@@QBE?AV01@H@Z ENDP ; std::_Vector_iterator<std::_Vector_val<Vector2D,std::allocator<Vector2D> > >::operator+
PUBLIC	??0_Iterator_base12@std@@QAE@XZ			; std::_Iterator_base12::_Iterator_base12
; Function compile flags: /Odtp /RTCsu
;	COMDAT ??0?$_Iterator012@Ubidirectional_iterator_tag@std@@PAVAbstRaven_Bot@@HPBQAV3@ABQAV3@U_Iterator_base12@2@@std@@QAE@XZ
_TEXT	SEGMENT
_this$ = -4						; size = 4
??0?$_Iterator012@Ubidirectional_iterator_tag@std@@PAVAbstRaven_Bot@@HPBQAV3@ABQAV3@U_Iterator_base12@2@@std@@QAE@XZ PROC ; std::_Iterator012<std::bidirectional_iterator_tag,AbstRaven_Bot *,int,AbstRaven_Bot * const *,AbstRaven_Bot * const &,std::_Iterator_base12>::_Iterator012<std::bidirectional_iterator_tag,AbstRaven_Bot *,int,AbstRaven_Bot * const *,AbstRaven_Bot * const &,std::_Iterator_base12>, COMDAT
; _this$ = ecx
	push	ebp
	mov	ebp, esp
	push	ecx
	mov	DWORD PTR [ebp-4], -858993460		; ccccccccH
	mov	DWORD PTR _this$[ebp], ecx
	mov	ecx, DWORD PTR _this$[ebp]
	call	??0_Iterator_base12@std@@QAE@XZ		; std::_Iterator_base12::_Iterator_base12
	mov	eax, DWORD PTR _this$[ebp]
	add	esp, 4
	cmp	ebp, esp
	call	__RTC_CheckEsp
	mov	esp, ebp
	pop	ebp
	ret	0
??0?$_Iterator012@Ubidirectional_iterator_tag@std@@PAVAbstRaven_Bot@@HPBQAV3@ABQAV3@U_Iterator_base12@2@@std@@QAE@XZ ENDP ; std::_Iterator012<std::bidirectional_iterator_tag,AbstRaven_Bot *,int,AbstRaven_Bot * const *,AbstRaven_Bot * const &,std::_Iterator_base12>::_Iterator012<std::bidirectional_iterator_tag,AbstRaven_Bot *,int,AbstRaven_Bot * const *,AbstRaven_Bot * const &,std::_Iterator_base12>
; Function compile flags: /Odtp /RTCsu
; File c:\program files (x86)\microsoft visual studio 10.0\vc\include\xutility
_TEXT	ENDS
;	COMDAT ??0_Iterator_base12@std@@QAE@XZ
_TEXT	SEGMENT
_this$ = -4						; size = 4
??0_Iterator_base12@std@@QAE@XZ PROC			; std::_Iterator_base12::_Iterator_base12, COMDAT
; _this$ = ecx

; 111  : 		{	// construct orphaned iterator

	push	ebp
	mov	ebp, esp
	push	ecx
	mov	DWORD PTR [ebp-4], -858993460		; ccccccccH
	mov	DWORD PTR _this$[ebp], ecx
	mov	eax, DWORD PTR _this$[ebp]
	mov	DWORD PTR [eax], 0
	mov	ecx, DWORD PTR _this$[ebp]
	mov	DWORD PTR [ecx+4], 0

; 112  : 		}

	mov	eax, DWORD PTR _this$[ebp]
	mov	esp, ebp
	pop	ebp
	ret	0
??0_Iterator_base12@std@@QAE@XZ ENDP			; std::_Iterator_base12::_Iterator_base12
; Function compile flags: /Odtp /RTCsu
_TEXT	ENDS
;	COMDAT ??0?$_Vector_iterator@V?$_Vector_val@UVector2D@@V?$allocator@UVector2D@@@std@@@std@@@std@@QAE@ABV01@@Z
_TEXT	SEGMENT
_this$ = -4						; size = 4
___that$ = 8						; size = 4
??0?$_Vector_iterator@V?$_Vector_val@UVector2D@@V?$allocator@UVector2D@@@std@@@std@@@std@@QAE@ABV01@@Z PROC ; std::_Vector_iterator<std::_Vector_val<Vector2D,std::allocator<Vector2D> > >::_Vector_iterator<std::_Vector_val<Vector2D,std::allocator<Vector2D> > >, COMDAT
; _this$ = ecx
	push	ebp
	mov	ebp, esp
	push	ecx
	mov	DWORD PTR [ebp-4], -858993460		; ccccccccH
	mov	DWORD PTR _this$[ebp], ecx
	mov	eax, DWORD PTR ___that$[ebp]
	push	eax
	mov	ecx, DWORD PTR _this$[ebp]
	call	??0?$_Vector_const_iterator@V?$_Vector_val@UVector2D@@V?$allocator@UVector2D@@@std@@@std@@@std@@QAE@ABV01@@Z
	mov	eax, DWORD PTR _this$[ebp]
	add	esp, 4
	cmp	ebp, esp
	call	__RTC_CheckEsp
	mov	esp, ebp
	pop	ebp
	ret	4
??0?$_Vector_iterator@V?$_Vector_val@UVector2D@@V?$allocator@UVector2D@@@std@@@std@@@std@@QAE@ABV01@@Z ENDP ; std::_Vector_iterator<std::_Vector_val<Vector2D,std::allocator<Vector2D> > >::_Vector_iterator<std::_Vector_val<Vector2D,std::allocator<Vector2D> > >
_TEXT	ENDS
;	COMDAT xdata$x
; File c:\program files (x86)\microsoft visual studio 10.0\vc\include\vector
xdata$x	SEGMENT
__unwindtable$?_Make_iter@?$vector@UVector2D@@V?$allocator@UVector2D@@@std@@@std@@QBE?AV?$_Vector_iterator@V?$_Vector_val@UVector2D@@V?$allocator@UVector2D@@@std@@@std@@@2@V?$_Vector_const_iterator@V?$_Vector_val@UVector2D@@V?$allocator@UVector2D@@@std@@@std@@@2@@Z DD 0ffffffffH
	DD	FLAT:__unwindfunclet$?_Make_iter@?$vector@UVector2D@@V?$allocator@UVector2D@@@std@@@std@@QBE?AV?$_Vector_iterator@V?$_Vector_val@UVector2D@@V?$allocator@UVector2D@@@std@@@std@@@2@V?$_Vector_const_iterator@V?$_Vector_val@UVector2D@@V?$allocator@UVector2D@@@std@@@std@@@2@@Z$1
	DD	00H
	DD	FLAT:__unwindfunclet$?_Make_iter@?$vector@UVector2D@@V?$allocator@UVector2D@@@std@@@std@@QBE?AV?$_Vector_iterator@V?$_Vector_val@UVector2D@@V?$allocator@UVector2D@@@std@@@std@@@2@V?$_Vector_const_iterator@V?$_Vector_val@UVector2D@@V?$allocator@UVector2D@@@std@@@std@@@2@@Z$0
__ehfuncinfo$?_Make_iter@?$vector@UVector2D@@V?$allocator@UVector2D@@@std@@@std@@QBE?AV?$_Vector_iterator@V?$_Vector_val@UVector2D@@V?$allocator@UVector2D@@@std@@@std@@@2@V?$_Vector_const_iterator@V?$_Vector_val@UVector2D@@V?$allocator@UVector2D@@@std@@@std@@@2@@Z DD 019930522H
	DD	02H
	DD	FLAT:__unwindtable$?_Make_iter@?$vector@UVector2D@@V?$allocator@UVector2D@@@std@@@std@@QBE?AV?$_Vector_iterator@V?$_Vector_val@UVector2D@@V?$allocator@UVector2D@@@std@@@std@@@2@V?$_Vector_const_iterator@V?$_Vector_val@UVector2D@@V?$allocator@UVector2D@@@std@@@std@@@2@@Z
	DD	2 DUP(00H)
	DD	2 DUP(00H)
	DD	00H
	DD	01H
; Function compile flags: /Odtp /RTCsu
xdata$x	ENDS
;	COMDAT ?_Make_iter@?$vector@UVector2D@@V?$allocator@UVector2D@@@std@@@std@@QBE?AV?$_Vector_iterator@V?$_Vector_val@UVector2D@@V?$allocator@UVector2D@@@std@@@std@@@2@V?$_Vector_const_iterator@V?$_Vector_val@UVector2D@@V?$allocator@UVector2D@@@std@@@std@@@2@@Z
_TEXT	SEGMENT
$T146713 = -20						; size = 4
_this$ = -16						; size = 4
__$EHRec$ = -12						; size = 12
___$ReturnUdt$ = 8					; size = 4
__Where$ = 12						; size = 12
?_Make_iter@?$vector@UVector2D@@V?$allocator@UVector2D@@@std@@@std@@QBE?AV?$_Vector_iterator@V?$_Vector_val@UVector2D@@V?$allocator@UVector2D@@@std@@@std@@@2@V?$_Vector_const_iterator@V?$_Vector_val@UVector2D@@V?$allocator@UVector2D@@@std@@@std@@@2@@Z PROC ; std::vector<Vector2D,std::allocator<Vector2D> >::_Make_iter, COMDAT
; _this$ = ecx

; 801  : 		{	// make iterator from const_iterator

	push	ebp
	mov	ebp, esp
	push	-1
	push	__ehhandler$?_Make_iter@?$vector@UVector2D@@V?$allocator@UVector2D@@@std@@@std@@QBE?AV?$_Vector_iterator@V?$_Vector_val@UVector2D@@V?$allocator@UVector2D@@@std@@@std@@@2@V?$_Vector_const_iterator@V?$_Vector_val@UVector2D@@V?$allocator@UVector2D@@@std@@@std@@@2@@Z
	mov	eax, DWORD PTR fs:0
	push	eax
	sub	esp, 8
	mov	DWORD PTR [ebp-20], -858993460		; ccccccccH
	mov	DWORD PTR [ebp-16], -858993460		; ccccccccH
	mov	eax, DWORD PTR ___security_cookie
	xor	eax, ebp
	push	eax
	lea	eax, DWORD PTR __$EHRec$[ebp]
	mov	DWORD PTR fs:0, eax
	mov	DWORD PTR _this$[ebp], ecx
	mov	DWORD PTR $T146713[ebp], 0
	mov	DWORD PTR __$EHRec$[ebp+8], 1

; 802  : 		return (iterator(_Where._Ptr, this));

	mov	eax, DWORD PTR _this$[ebp]
	push	eax
	mov	ecx, DWORD PTR __Where$[ebp+8]
	push	ecx
	mov	ecx, DWORD PTR ___$ReturnUdt$[ebp]
	call	??0?$_Vector_iterator@V?$_Vector_val@UVector2D@@V?$allocator@UVector2D@@@std@@@std@@@std@@QAE@PAUVector2D@@PBU_Container_base12@1@@Z ; std::_Vector_iterator<std::_Vector_val<Vector2D,std::allocator<Vector2D> > >::_Vector_iterator<std::_Vector_val<Vector2D,std::allocator<Vector2D> > >
	mov	edx, DWORD PTR $T146713[ebp]
	or	edx, 1
	mov	DWORD PTR $T146713[ebp], edx
	mov	BYTE PTR __$EHRec$[ebp+8], 0
	lea	ecx, DWORD PTR __Where$[ebp]
	call	??1?$_Vector_const_iterator@V?$_Vector_val@UVector2D@@V?$allocator@UVector2D@@@std@@@std@@@std@@QAE@XZ
	mov	eax, DWORD PTR ___$ReturnUdt$[ebp]

; 803  : 		}

	mov	ecx, DWORD PTR __$EHRec$[ebp]
	mov	DWORD PTR fs:0, ecx
	pop	ecx
	add	esp, 20					; 00000014H
	cmp	ebp, esp
	call	__RTC_CheckEsp
	mov	esp, ebp
	pop	ebp
	ret	16					; 00000010H
_TEXT	ENDS
;	COMDAT text$x
text$x	SEGMENT
__unwindfunclet$?_Make_iter@?$vector@UVector2D@@V?$allocator@UVector2D@@@std@@@std@@QBE?AV?$_Vector_iterator@V?$_Vector_val@UVector2D@@V?$allocator@UVector2D@@@std@@@std@@@2@V?$_Vector_const_iterator@V?$_Vector_val@UVector2D@@V?$allocator@UVector2D@@@std@@@std@@@2@@Z$0:
	lea	ecx, DWORD PTR __Where$[ebp]
	jmp	??1?$_Vector_const_iterator@V?$_Vector_val@UVector2D@@V?$allocator@UVector2D@@@std@@@std@@@std@@QAE@XZ
__unwindfunclet$?_Make_iter@?$vector@UVector2D@@V?$allocator@UVector2D@@@std@@@std@@QBE?AV?$_Vector_iterator@V?$_Vector_val@UVector2D@@V?$allocator@UVector2D@@@std@@@std@@@2@V?$_Vector_const_iterator@V?$_Vector_val@UVector2D@@V?$allocator@UVector2D@@@std@@@std@@@2@@Z$1:
	mov	eax, DWORD PTR $T146713[ebp]
	and	eax, 1
	je	$LN5@Make_iter
	and	DWORD PTR $T146713[ebp], -2		; fffffffeH
	mov	ecx, DWORD PTR ___$ReturnUdt$[ebp]
	jmp	??1?$_Vector_iterator@V?$_Vector_val@UVector2D@@V?$allocator@UVector2D@@@std@@@std@@@std@@QAE@XZ
$LN5@Make_iter:
	ret	0
__ehhandler$?_Make_iter@?$vector@UVector2D@@V?$allocator@UVector2D@@@std@@@std@@QBE?AV?$_Vector_iterator@V?$_Vector_val@UVector2D@@V?$allocator@UVector2D@@@std@@@std@@@2@V?$_Vector_const_iterator@V?$_Vector_val@UVector2D@@V?$allocator@UVector2D@@@std@@@std@@@2@@Z:
	mov	edx, DWORD PTR [esp+8]
	lea	eax, DWORD PTR [edx+12]
	mov	ecx, DWORD PTR [edx-12]
	xor	ecx, eax
	call	@__security_check_cookie@4
	mov	eax, OFFSET __ehfuncinfo$?_Make_iter@?$vector@UVector2D@@V?$allocator@UVector2D@@@std@@@std@@QBE?AV?$_Vector_iterator@V?$_Vector_val@UVector2D@@V?$allocator@UVector2D@@@std@@@std@@@2@V?$_Vector_const_iterator@V?$_Vector_val@UVector2D@@V?$allocator@UVector2D@@@std@@@std@@@2@@Z
	jmp	___CxxFrameHandler3
text$x	ENDS
?_Make_iter@?$vector@UVector2D@@V?$allocator@UVector2D@@@std@@@std@@QBE?AV?$_Vector_iterator@V?$_Vector_val@UVector2D@@V?$allocator@UVector2D@@@std@@@std@@@2@V?$_Vector_const_iterator@V?$_Vector_val@UVector2D@@V?$allocator@UVector2D@@@std@@@std@@@2@@Z ENDP ; std::vector<Vector2D,std::allocator<Vector2D> >::_Make_iter
; Function compile flags: /Odtp /RTCsu
; File c:\program files (x86)\microsoft visual studio 10.0\vc\include\xmemory
;	COMDAT ?max_size@?$allocator@UVector2D@@@std@@QBEIXZ
_TEXT	SEGMENT
tv65 = -12						; size = 4
__Count$ = -8						; size = 4
_this$ = -4						; size = 4
?max_size@?$allocator@UVector2D@@@std@@QBEIXZ PROC	; std::allocator<Vector2D>::max_size, COMDAT
; _this$ = ecx

; 217  : 		{	// estimate maximum array size

	push	ebp
	mov	ebp, esp
	sub	esp, 12					; 0000000cH
	mov	DWORD PTR [ebp-12], -858993460		; ccccccccH
	mov	DWORD PTR [ebp-8], -858993460		; ccccccccH
	mov	DWORD PTR [ebp-4], -858993460		; ccccccccH
	mov	DWORD PTR _this$[ebp], ecx

; 218  : 		_SIZT _Count = (_SIZT)(-1) / sizeof (_Ty);

	mov	DWORD PTR __Count$[ebp], 268435455	; 0fffffffH

; 219  : 		return (0 < _Count ? _Count : 1);

	cmp	DWORD PTR __Count$[ebp], 0
	jbe	SHORT $LN3@max_size
	mov	eax, DWORD PTR __Count$[ebp]
	mov	DWORD PTR tv65[ebp], eax
	jmp	SHORT $LN4@max_size
$LN3@max_size:
	mov	DWORD PTR tv65[ebp], 1
$LN4@max_size:
	mov	eax, DWORD PTR tv65[ebp]

; 220  : 		}

	mov	esp, ebp
	pop	ebp
	ret	0
?max_size@?$allocator@UVector2D@@@std@@QBEIXZ ENDP	; std::allocator<Vector2D>::max_size
_TEXT	ENDS
PUBLIC	?_Compat@?$_Vector_const_iterator@V?$_Vector_val@UVector2D@@V?$allocator@UVector2D@@@std@@@std@@@std@@QBEXABV12@@Z ; std::_Vector_const_iterator<std::_Vector_val<Vector2D,std::allocator<Vector2D> > >::_Compat
; Function compile flags: /Odtp /RTCsu
; File c:\program files (x86)\microsoft visual studio 10.0\vc\include\vector
;	COMDAT ??8?$_Vector_const_iterator@V?$_Vector_val@UVector2D@@V?$allocator@UVector2D@@@std@@@std@@@std@@QBE_NABV01@@Z
_TEXT	SEGMENT
_this$ = -4						; size = 4
__Right$ = 8						; size = 4
??8?$_Vector_const_iterator@V?$_Vector_val@UVector2D@@V?$allocator@UVector2D@@@std@@@std@@@std@@QBE_NABV01@@Z PROC ; std::_Vector_const_iterator<std::_Vector_val<Vector2D,std::allocator<Vector2D> > >::operator==, COMDAT
; _this$ = ecx

; 201  : 		{	// test for iterator equality

	push	ebp
	mov	ebp, esp
	push	ecx
	mov	DWORD PTR [ebp-4], -858993460		; ccccccccH
	mov	DWORD PTR _this$[ebp], ecx

; 202  : 		_Compat(_Right);

	mov	eax, DWORD PTR __Right$[ebp]
	push	eax
	mov	ecx, DWORD PTR _this$[ebp]
	call	?_Compat@?$_Vector_const_iterator@V?$_Vector_val@UVector2D@@V?$allocator@UVector2D@@@std@@@std@@@std@@QBEXABV12@@Z ; std::_Vector_const_iterator<std::_Vector_val<Vector2D,std::allocator<Vector2D> > >::_Compat

; 203  : 		return (this->_Ptr == _Right._Ptr);

	mov	ecx, DWORD PTR _this$[ebp]
	mov	edx, DWORD PTR __Right$[ebp]
	mov	eax, DWORD PTR [ecx+8]
	xor	ecx, ecx
	cmp	eax, DWORD PTR [edx+8]
	sete	cl
	mov	al, cl

; 204  : 		}

	add	esp, 4
	cmp	ebp, esp
	call	__RTC_CheckEsp
	mov	esp, ebp
	pop	ebp
	ret	4
??8?$_Vector_const_iterator@V?$_Vector_val@UVector2D@@V?$allocator@UVector2D@@@std@@@std@@@std@@QBE_NABV01@@Z ENDP ; std::_Vector_const_iterator<std::_Vector_val<Vector2D,std::allocator<Vector2D> > >::operator==
; Function compile flags: /Odtp /RTCsu
_TEXT	ENDS
;	COMDAT ??M?$_Vector_const_iterator@V?$_Vector_val@UVector2D@@V?$allocator@UVector2D@@@std@@@std@@@std@@QBE_NABV01@@Z
_TEXT	SEGMENT
_this$ = -4						; size = 4
__Right$ = 8						; size = 4
??M?$_Vector_const_iterator@V?$_Vector_val@UVector2D@@V?$allocator@UVector2D@@@std@@@std@@@std@@QBE_NABV01@@Z PROC ; std::_Vector_const_iterator<std::_Vector_val<Vector2D,std::allocator<Vector2D> > >::operator<, COMDAT
; _this$ = ecx

; 212  : 		{	// test if this < _Right

	push	ebp
	mov	ebp, esp
	push	ecx
	mov	DWORD PTR [ebp-4], -858993460		; ccccccccH
	mov	DWORD PTR _this$[ebp], ecx

; 213  : 		_Compat(_Right);

	mov	eax, DWORD PTR __Right$[ebp]
	push	eax
	mov	ecx, DWORD PTR _this$[ebp]
	call	?_Compat@?$_Vector_const_iterator@V?$_Vector_val@UVector2D@@V?$allocator@UVector2D@@@std@@@std@@@std@@QBEXABV12@@Z ; std::_Vector_const_iterator<std::_Vector_val<Vector2D,std::allocator<Vector2D> > >::_Compat

; 214  : 		return (this->_Ptr < _Right._Ptr);

	mov	ecx, DWORD PTR _this$[ebp]
	mov	edx, DWORD PTR __Right$[ebp]
	mov	eax, DWORD PTR [ecx+8]
	cmp	eax, DWORD PTR [edx+8]
	sbb	eax, eax
	neg	eax

; 215  : 		}

	add	esp, 4
	cmp	ebp, esp
	call	__RTC_CheckEsp
	mov	esp, ebp
	pop	ebp
	ret	4
??M?$_Vector_const_iterator@V?$_Vector_val@UVector2D@@V?$allocator@UVector2D@@@std@@@std@@@std@@QBE_NABV01@@Z ENDP ; std::_Vector_const_iterator<std::_Vector_val<Vector2D,std::allocator<Vector2D> > >::operator<
_TEXT	ENDS
PUBLIC	??0?$_Vector_const_iterator@V?$_Vector_val@UVector2D@@V?$allocator@UVector2D@@@std@@@std@@@std@@QAE@PAUVector2D@@PBU_Container_base12@1@@Z ; std::_Vector_const_iterator<std::_Vector_val<Vector2D,std::allocator<Vector2D> > >::_Vector_const_iterator<std::_Vector_val<Vector2D,std::allocator<Vector2D> > >
; Function compile flags: /Odtp /RTCsu
;	COMDAT ??0?$_Vector_iterator@V?$_Vector_val@UVector2D@@V?$allocator@UVector2D@@@std@@@std@@@std@@QAE@PAUVector2D@@PBU_Container_base12@1@@Z
_TEXT	SEGMENT
_this$ = -4						; size = 4
__Parg$ = 8						; size = 4
__Pvector$ = 12						; size = 4
??0?$_Vector_iterator@V?$_Vector_val@UVector2D@@V?$allocator@UVector2D@@@std@@@std@@@std@@QAE@PAUVector2D@@PBU_Container_base12@1@@Z PROC ; std::_Vector_iterator<std::_Vector_val<Vector2D,std::allocator<Vector2D> > >::_Vector_iterator<std::_Vector_val<Vector2D,std::allocator<Vector2D> > >, COMDAT
; _this$ = ecx

; 304  : 		{	// construct with pointer _Parg

	push	ebp
	mov	ebp, esp
	push	ecx
	mov	DWORD PTR [ebp-4], -858993460		; ccccccccH
	mov	DWORD PTR _this$[ebp], ecx
	mov	eax, DWORD PTR __Pvector$[ebp]
	push	eax
	mov	ecx, DWORD PTR __Parg$[ebp]
	push	ecx
	mov	ecx, DWORD PTR _this$[ebp]
	call	??0?$_Vector_const_iterator@V?$_Vector_val@UVector2D@@V?$allocator@UVector2D@@@std@@@std@@@std@@QAE@PAUVector2D@@PBU_Container_base12@1@@Z ; std::_Vector_const_iterator<std::_Vector_val<Vector2D,std::allocator<Vector2D> > >::_Vector_const_iterator<std::_Vector_val<Vector2D,std::allocator<Vector2D> > >

; 305  : 		}

	mov	eax, DWORD PTR _this$[ebp]
	add	esp, 4
	cmp	ebp, esp
	call	__RTC_CheckEsp
	mov	esp, ebp
	pop	ebp
	ret	8
??0?$_Vector_iterator@V?$_Vector_val@UVector2D@@V?$allocator@UVector2D@@@std@@@std@@@std@@QAE@PAUVector2D@@PBU_Container_base12@1@@Z ENDP ; std::_Vector_iterator<std::_Vector_val<Vector2D,std::allocator<Vector2D> > >::_Vector_iterator<std::_Vector_val<Vector2D,std::allocator<Vector2D> > >
_TEXT	ENDS
PUBLIC	??0?$_Iterator012@Urandom_access_iterator_tag@std@@UVector2D@@HPBU3@ABU3@U_Iterator_base12@2@@std@@QAE@XZ ; std::_Iterator012<std::random_access_iterator_tag,Vector2D,int,Vector2D const *,Vector2D const &,std::_Iterator_base12>::_Iterator012<std::random_access_iterator_tag,Vector2D,int,Vector2D const *,Vector2D const &,std::_Iterator_base12>
;	COMDAT xdata$x
xdata$x	SEGMENT
__unwindtable$??0?$_Vector_const_iterator@V?$_Vector_val@UVector2D@@V?$allocator@UVector2D@@@std@@@std@@@std@@QAE@PAUVector2D@@PBU_Container_base12@1@@Z DD 0ffffffffH
	DD	FLAT:__unwindfunclet$??0?$_Vector_const_iterator@V?$_Vector_val@UVector2D@@V?$allocator@UVector2D@@@std@@@std@@@std@@QAE@PAUVector2D@@PBU_Container_base12@1@@Z$0
__ehfuncinfo$??0?$_Vector_const_iterator@V?$_Vector_val@UVector2D@@V?$allocator@UVector2D@@@std@@@std@@@std@@QAE@PAUVector2D@@PBU_Container_base12@1@@Z DD 019930522H
	DD	01H
	DD	FLAT:__unwindtable$??0?$_Vector_const_iterator@V?$_Vector_val@UVector2D@@V?$allocator@UVector2D@@@std@@@std@@@std@@QAE@PAUVector2D@@PBU_Container_base12@1@@Z
	DD	2 DUP(00H)
	DD	2 DUP(00H)
	DD	00H
	DD	01H
; Function compile flags: /Odtp /RTCsu
xdata$x	ENDS
;	COMDAT ??0?$_Vector_const_iterator@V?$_Vector_val@UVector2D@@V?$allocator@UVector2D@@@std@@@std@@@std@@QAE@PAUVector2D@@PBU_Container_base12@1@@Z
_TEXT	SEGMENT
_this$ = -16						; size = 4
__$EHRec$ = -12						; size = 12
__Parg$ = 8						; size = 4
__Pvector$ = 12						; size = 4
??0?$_Vector_const_iterator@V?$_Vector_val@UVector2D@@V?$allocator@UVector2D@@@std@@@std@@@std@@QAE@PAUVector2D@@PBU_Container_base12@1@@Z PROC ; std::_Vector_const_iterator<std::_Vector_val<Vector2D,std::allocator<Vector2D> > >::_Vector_const_iterator<std::_Vector_val<Vector2D,std::allocator<Vector2D> > >, COMDAT
; _this$ = ecx

; 45   : 		{	// construct with pointer _Parg

	push	ebp
	mov	ebp, esp
	push	-1
	push	__ehhandler$??0?$_Vector_const_iterator@V?$_Vector_val@UVector2D@@V?$allocator@UVector2D@@@std@@@std@@@std@@QAE@PAUVector2D@@PBU_Container_base12@1@@Z
	mov	eax, DWORD PTR fs:0
	push	eax
	push	ecx
	mov	DWORD PTR [ebp-16], -858993460		; ccccccccH
	mov	eax, DWORD PTR ___security_cookie
	xor	eax, ebp
	push	eax
	lea	eax, DWORD PTR __$EHRec$[ebp]
	mov	DWORD PTR fs:0, eax
	mov	DWORD PTR _this$[ebp], ecx
	mov	ecx, DWORD PTR _this$[ebp]
	call	??0?$_Iterator012@Urandom_access_iterator_tag@std@@UVector2D@@HPBU3@ABU3@U_Iterator_base12@2@@std@@QAE@XZ
	mov	DWORD PTR __$EHRec$[ebp+8], 0
	mov	eax, DWORD PTR _this$[ebp]
	mov	ecx, DWORD PTR __Parg$[ebp]
	mov	DWORD PTR [eax+8], ecx

; 46   : 		this->_Adopt(_Pvector);

	mov	edx, DWORD PTR __Pvector$[ebp]
	push	edx
	mov	ecx, DWORD PTR _this$[ebp]
	call	?_Adopt@_Iterator_base12@std@@QAEXPBU_Container_base12@2@@Z ; std::_Iterator_base12::_Adopt

; 47   : 		}

	mov	DWORD PTR __$EHRec$[ebp+8], -1
	mov	eax, DWORD PTR _this$[ebp]
	mov	ecx, DWORD PTR __$EHRec$[ebp]
	mov	DWORD PTR fs:0, ecx
	pop	ecx
	add	esp, 16					; 00000010H
	cmp	ebp, esp
	call	__RTC_CheckEsp
	mov	esp, ebp
	pop	ebp
	ret	8
_TEXT	ENDS
;	COMDAT text$x
text$x	SEGMENT
__unwindfunclet$??0?$_Vector_const_iterator@V?$_Vector_val@UVector2D@@V?$allocator@UVector2D@@@std@@@std@@@std@@QAE@PAUVector2D@@PBU_Container_base12@1@@Z$0:
	mov	ecx, DWORD PTR _this$[ebp]
	jmp	??1?$_Iterator012@Urandom_access_iterator_tag@std@@UVector2D@@HPBU3@ABU3@U_Iterator_base12@2@@std@@QAE@XZ
__ehhandler$??0?$_Vector_const_iterator@V?$_Vector_val@UVector2D@@V?$allocator@UVector2D@@@std@@@std@@@std@@QAE@PAUVector2D@@PBU_Container_base12@1@@Z:
	mov	edx, DWORD PTR [esp+8]
	lea	eax, DWORD PTR [edx+12]
	mov	ecx, DWORD PTR [edx-8]
	xor	ecx, eax
	call	@__security_check_cookie@4
	mov	eax, OFFSET __ehfuncinfo$??0?$_Vector_const_iterator@V?$_Vector_val@UVector2D@@V?$allocator@UVector2D@@@std@@@std@@@std@@QAE@PAUVector2D@@PBU_Container_base12@1@@Z
	jmp	___CxxFrameHandler3
text$x	ENDS
??0?$_Vector_const_iterator@V?$_Vector_val@UVector2D@@V?$allocator@UVector2D@@@std@@@std@@@std@@QAE@PAUVector2D@@PBU_Container_base12@1@@Z ENDP ; std::_Vector_const_iterator<std::_Vector_val<Vector2D,std::allocator<Vector2D> > >::_Vector_const_iterator<std::_Vector_val<Vector2D,std::allocator<Vector2D> > >
; Function compile flags: /Odtp /RTCsu
;	COMDAT ??0?$_Iterator012@Urandom_access_iterator_tag@std@@UVector2D@@HPBU3@ABU3@U_Iterator_base12@2@@std@@QAE@XZ
_TEXT	SEGMENT
_this$ = -4						; size = 4
??0?$_Iterator012@Urandom_access_iterator_tag@std@@UVector2D@@HPBU3@ABU3@U_Iterator_base12@2@@std@@QAE@XZ PROC ; std::_Iterator012<std::random_access_iterator_tag,Vector2D,int,Vector2D const *,Vector2D const &,std::_Iterator_base12>::_Iterator012<std::random_access_iterator_tag,Vector2D,int,Vector2D const *,Vector2D const &,std::_Iterator_base12>, COMDAT
; _this$ = ecx
	push	ebp
	mov	ebp, esp
	push	ecx
	mov	DWORD PTR [ebp-4], -858993460		; ccccccccH
	mov	DWORD PTR _this$[ebp], ecx
	mov	ecx, DWORD PTR _this$[ebp]
	call	??0_Iterator_base12@std@@QAE@XZ		; std::_Iterator_base12::_Iterator_base12
	mov	eax, DWORD PTR _this$[ebp]
	add	esp, 4
	cmp	ebp, esp
	call	__RTC_CheckEsp
	mov	esp, ebp
	pop	ebp
	ret	0
??0?$_Iterator012@Urandom_access_iterator_tag@std@@UVector2D@@HPBU3@ABU3@U_Iterator_base12@2@@std@@QAE@XZ ENDP ; std::_Iterator012<std::random_access_iterator_tag,Vector2D,int,Vector2D const *,Vector2D const &,std::_Iterator_base12>::_Iterator012<std::random_access_iterator_tag,Vector2D,int,Vector2D const *,Vector2D const &,std::_Iterator_base12>
_TEXT	ENDS
PUBLIC	??Y?$_Vector_const_iterator@V?$_Vector_val@UVector2D@@V?$allocator@UVector2D@@@std@@@std@@@std@@QAEAAV01@H@Z ; std::_Vector_const_iterator<std::_Vector_val<Vector2D,std::allocator<Vector2D> > >::operator+=
; Function compile flags: /Odtp /RTCsu
;	COMDAT ??Y?$_Vector_iterator@V?$_Vector_val@UVector2D@@V?$allocator@UVector2D@@@std@@@std@@@std@@QAEAAV01@H@Z
_TEXT	SEGMENT
_this$ = -4						; size = 4
__Off$ = 8						; size = 4
??Y?$_Vector_iterator@V?$_Vector_val@UVector2D@@V?$allocator@UVector2D@@@std@@@std@@@std@@QAEAAV01@H@Z PROC ; std::_Vector_iterator<std::_Vector_val<Vector2D,std::allocator<Vector2D> > >::operator+=, COMDAT
; _this$ = ecx

; 357  : 		{	// increment by integer

	push	ebp
	mov	ebp, esp
	push	ecx
	mov	DWORD PTR [ebp-4], -858993460		; ccccccccH
	mov	DWORD PTR _this$[ebp], ecx

; 358  : 		*(_Mybase *)this += _Off;

	mov	eax, DWORD PTR __Off$[ebp]
	push	eax
	mov	ecx, DWORD PTR _this$[ebp]
	call	??Y?$_Vector_const_iterator@V?$_Vector_val@UVector2D@@V?$allocator@UVector2D@@@std@@@std@@@std@@QAEAAV01@H@Z ; std::_Vector_const_iterator<std::_Vector_val<Vector2D,std::allocator<Vector2D> > >::operator+=

; 359  : 		return (*this);

	mov	eax, DWORD PTR _this$[ebp]

; 360  : 		}

	add	esp, 4
	cmp	ebp, esp
	call	__RTC_CheckEsp
	mov	esp, ebp
	pop	ebp
	ret	4
??Y?$_Vector_iterator@V?$_Vector_val@UVector2D@@V?$allocator@UVector2D@@@std@@@std@@@std@@QAEAAV01@H@Z ENDP ; std::_Vector_iterator<std::_Vector_val<Vector2D,std::allocator<Vector2D> > >::operator+=
_TEXT	ENDS
PUBLIC	??_C@_1PE@ENLMOIKE@?$AAs?$AAt?$AAd?$AA?3?$AA?3?$AA_?$AAV?$AAe?$AAc?$AAt?$AAo?$AAr?$AA_?$AAc?$AAo?$AAn?$AAs?$AAt?$AA_?$AAi?$AAt?$AAe?$AAr?$AAa?$AAt?$AAo?$AAr?$AA?$DM?$AAc?$AAl?$AAa?$AAs@ ; `string'
PUBLIC	??_C@_1EM@FKAOCOMF@?$AAv?$AAe?$AAc?$AAt?$AAo?$AAr?$AA?5?$AAi?$AAt?$AAe?$AAr?$AAa?$AAt?$AAo?$AAr?$AA?5?$AA?$CL?$AA?5?$AAo?$AAf?$AAf?$AAs?$AAe?$AAt?$AA?5?$AAo?$AAu?$AAt?$AA?5?$AAo?$AAf?$AA?5@ ; `string'
;	COMDAT ??_C@_1PE@ENLMOIKE@?$AAs?$AAt?$AAd?$AA?3?$AA?3?$AA_?$AAV?$AAe?$AAc?$AAt?$AAo?$AAr?$AA_?$AAc?$AAo?$AAn?$AAs?$AAt?$AA_?$AAi?$AAt?$AAe?$AAr?$AAa?$AAt?$AAo?$AAr?$AA?$DM?$AAc?$AAl?$AAa?$AAs@
CONST	SEGMENT
??_C@_1PE@ENLMOIKE@?$AAs?$AAt?$AAd?$AA?3?$AA?3?$AA_?$AAV?$AAe?$AAc?$AAt?$AAo?$AAr?$AA_?$AAc?$AAo?$AAn?$AAs?$AAt?$AA_?$AAi?$AAt?$AAe?$AAr?$AAa?$AAt?$AAo?$AAr?$AA?$DM?$AAc?$AAl?$AAa?$AAs@ DB 's'
	DB	00H, 't', 00H, 'd', 00H, ':', 00H, ':', 00H, '_', 00H, 'V', 00H
	DB	'e', 00H, 'c', 00H, 't', 00H, 'o', 00H, 'r', 00H, '_', 00H, 'c'
	DB	00H, 'o', 00H, 'n', 00H, 's', 00H, 't', 00H, '_', 00H, 'i', 00H
	DB	't', 00H, 'e', 00H, 'r', 00H, 'a', 00H, 't', 00H, 'o', 00H, 'r'
	DB	00H, '<', 00H, 'c', 00H, 'l', 00H, 'a', 00H, 's', 00H, 's', 00H
	DB	' ', 00H, 's', 00H, 't', 00H, 'd', 00H, ':', 00H, ':', 00H, '_'
	DB	00H, 'V', 00H, 'e', 00H, 'c', 00H, 't', 00H, 'o', 00H, 'r', 00H
	DB	'_', 00H, 'v', 00H, 'a', 00H, 'l', 00H, '<', 00H, 's', 00H, 't'
	DB	00H, 'r', 00H, 'u', 00H, 'c', 00H, 't', 00H, ' ', 00H, 'V', 00H
	DB	'e', 00H, 'c', 00H, 't', 00H, 'o', 00H, 'r', 00H, '2', 00H, 'D'
	DB	00H, ',', 00H, 'c', 00H, 'l', 00H, 'a', 00H, 's', 00H, 's', 00H
	DB	' ', 00H, 's', 00H, 't', 00H, 'd', 00H, ':', 00H, ':', 00H, 'a'
	DB	00H, 'l', 00H, 'l', 00H, 'o', 00H, 'c', 00H, 'a', 00H, 't', 00H
	DB	'o', 00H, 'r', 00H, '<', 00H, 's', 00H, 't', 00H, 'r', 00H, 'u'
	DB	00H, 'c', 00H, 't', 00H, ' ', 00H, 'V', 00H, 'e', 00H, 'c', 00H
	DB	't', 00H, 'o', 00H, 'r', 00H, '2', 00H, 'D', 00H, '>', 00H, ' '
	DB	00H, '>', 00H, ' ', 00H, '>', 00H, ':', 00H, ':', 00H, 'o', 00H
	DB	'p', 00H, 'e', 00H, 'r', 00H, 'a', 00H, 't', 00H, 'o', 00H, 'r'
	DB	00H, ' ', 00H, '+', 00H, '=', 00H, 00H, 00H	; `string'
CONST	ENDS
;	COMDAT ??_C@_1EM@FKAOCOMF@?$AAv?$AAe?$AAc?$AAt?$AAo?$AAr?$AA?5?$AAi?$AAt?$AAe?$AAr?$AAa?$AAt?$AAo?$AAr?$AA?5?$AA?$CL?$AA?5?$AAo?$AAf?$AAf?$AAs?$AAe?$AAt?$AA?5?$AAo?$AAu?$AAt?$AA?5?$AAo?$AAf?$AA?5@
CONST	SEGMENT
??_C@_1EM@FKAOCOMF@?$AAv?$AAe?$AAc?$AAt?$AAo?$AAr?$AA?5?$AAi?$AAt?$AAe?$AAr?$AAa?$AAt?$AAo?$AAr?$AA?5?$AA?$CL?$AA?5?$AAo?$AAf?$AAf?$AAs?$AAe?$AAt?$AA?5?$AAo?$AAu?$AAt?$AA?5?$AAo?$AAf?$AA?5@ DB 'v'
	DB	00H, 'e', 00H, 'c', 00H, 't', 00H, 'o', 00H, 'r', 00H, ' ', 00H
	DB	'i', 00H, 't', 00H, 'e', 00H, 'r', 00H, 'a', 00H, 't', 00H, 'o'
	DB	00H, 'r', 00H, ' ', 00H, '+', 00H, ' ', 00H, 'o', 00H, 'f', 00H
	DB	'f', 00H, 's', 00H, 'e', 00H, 't', 00H, ' ', 00H, 'o', 00H, 'u'
	DB	00H, 't', 00H, ' ', 00H, 'o', 00H, 'f', 00H, ' ', 00H, 'r', 00H
	DB	'a', 00H, 'n', 00H, 'g', 00H, 'e', 00H, 00H, 00H ; `string'
; Function compile flags: /Odtp /RTCsu
CONST	ENDS
;	COMDAT ??Y?$_Vector_const_iterator@V?$_Vector_val@UVector2D@@V?$allocator@UVector2D@@@std@@@std@@@std@@QAEAAV01@H@Z
_TEXT	SEGMENT
_this$ = -4						; size = 4
__Off$ = 8						; size = 4
??Y?$_Vector_const_iterator@V?$_Vector_val@UVector2D@@V?$allocator@UVector2D@@@std@@@std@@@std@@QAEAAV01@H@Z PROC ; std::_Vector_const_iterator<std::_Vector_val<Vector2D,std::allocator<Vector2D> > >::operator+=, COMDAT
; _this$ = ecx

; 151  : 		{	// increment by integer

	push	ebp
	mov	ebp, esp
	push	ecx
	push	esi
	mov	DWORD PTR [ebp-4], -858993460		; ccccccccH
	mov	DWORD PTR _this$[ebp], ecx

; 152  :  #if _ITERATOR_DEBUG_LEVEL == 2
; 153  : 		if (this->_Getcont() == 0
; 154  : 			|| this->_Ptr + _Off < ((_Myvec *)this->_Getcont())->_Myfirst
; 155  : 			|| ((_Myvec *)this->_Getcont())->_Mylast < this->_Ptr + _Off)

	mov	ecx, DWORD PTR _this$[ebp]
	call	?_Getcont@_Iterator_base12@std@@QBEPBU_Container_base12@2@XZ ; std::_Iterator_base12::_Getcont
	test	eax, eax
	je	SHORT $LN1@operator@13
	mov	esi, DWORD PTR __Off$[ebp]
	shl	esi, 4
	mov	eax, DWORD PTR _this$[ebp]
	add	esi, DWORD PTR [eax+8]
	mov	ecx, DWORD PTR _this$[ebp]
	call	?_Getcont@_Iterator_base12@std@@QBEPBU_Container_base12@2@XZ ; std::_Iterator_base12::_Getcont
	cmp	esi, DWORD PTR [eax+4]
	jb	SHORT $LN1@operator@13
	mov	ecx, DWORD PTR _this$[ebp]
	call	?_Getcont@_Iterator_base12@std@@QBEPBU_Container_base12@2@XZ ; std::_Iterator_base12::_Getcont
	mov	ecx, DWORD PTR __Off$[ebp]
	shl	ecx, 4
	mov	edx, DWORD PTR _this$[ebp]
	add	ecx, DWORD PTR [edx+8]
	cmp	DWORD PTR [eax+8], ecx
	jae	SHORT $LN2@operator@13
$LN1@operator@13:

; 156  : 			{	// report error
; 157  : 			_DEBUG_ERROR("vector iterator + offset out of range");

	push	157					; 0000009dH
	push	OFFSET ??_C@_1IM@MKOOKKBK@?$AAc?$AA?3?$AA?2?$AAP?$AAr?$AAo?$AAg?$AAr?$AAa?$AAm?$AA?5?$AAF?$AAi?$AAl?$AAe?$AAs?$AA?5?$AA?$CI?$AAx?$AA8?$AA6?$AA?$CJ?$AA?2?$AAM?$AAi?$AAc?$AAr?$AAo?$AAs?$AAo?$AAf?$AAt@
	push	OFFSET ??_C@_1EM@FKAOCOMF@?$AAv?$AAe?$AAc?$AAt?$AAo?$AAr?$AA?5?$AAi?$AAt?$AAe?$AAr?$AAa?$AAt?$AAo?$AAr?$AA?5?$AA?$CL?$AA?5?$AAo?$AAf?$AAf?$AAs?$AAe?$AAt?$AA?5?$AAo?$AAu?$AAt?$AA?5?$AAo?$AAf?$AA?5@
	call	?_Debug_message@std@@YAXPB_W0I@Z	; std::_Debug_message
	add	esp, 12					; 0000000cH

; 158  : 			_SCL_SECURE_OUT_OF_RANGE;

	mov	eax, OFFSET ??_C@_0CE@OFMIGAMM@Standard?5C?$CL?$CL?5Libraries?5Out?5of?5Ra@
	test	eax, eax
	je	SHORT $LN5@operator@13
	xor	ecx, ecx
	jne	SHORT $LN6@operator@13
$LN5@operator@13:
	push	OFFSET ??_C@_1FG@IBPIFFN@?$AA?$CC?$AAS?$AAt?$AAa?$AAn?$AAd?$AAa?$AAr?$AAd?$AA?5?$AAC?$AA?$CL?$AA?$CL?$AA?5?$AAL?$AAi?$AAb?$AAr?$AAa?$AAr?$AAi?$AAe?$AAs?$AA?5?$AAO?$AAu?$AAt?$AA?5?$AAo?$AAf?$AA?5?$AAR@
	push	0
	push	158					; 0000009eH
	push	OFFSET ??_C@_1IM@MKOOKKBK@?$AAc?$AA?3?$AA?2?$AAP?$AAr?$AAo?$AAg?$AAr?$AAa?$AAm?$AA?5?$AAF?$AAi?$AAl?$AAe?$AAs?$AA?5?$AA?$CI?$AAx?$AA8?$AA6?$AA?$CJ?$AA?2?$AAM?$AAi?$AAc?$AAr?$AAo?$AAs?$AAo?$AAf?$AAt@
	push	2
	call	__CrtDbgReportW
	add	esp, 20					; 00000014H
	cmp	eax, 1
	jne	SHORT $LN6@operator@13
	int	3
$LN6@operator@13:
	push	0
	push	158					; 0000009eH
	push	OFFSET ??_C@_1IM@MKOOKKBK@?$AAc?$AA?3?$AA?2?$AAP?$AAr?$AAo?$AAg?$AAr?$AAa?$AAm?$AA?5?$AAF?$AAi?$AAl?$AAe?$AAs?$AA?5?$AA?$CI?$AAx?$AA8?$AA6?$AA?$CJ?$AA?2?$AAM?$AAi?$AAc?$AAr?$AAo?$AAs?$AAo?$AAf?$AAt@
	push	OFFSET ??_C@_1PE@ENLMOIKE@?$AAs?$AAt?$AAd?$AA?3?$AA?3?$AA_?$AAV?$AAe?$AAc?$AAt?$AAo?$AAr?$AA_?$AAc?$AAo?$AAn?$AAs?$AAt?$AA_?$AAi?$AAt?$AAe?$AAr?$AAa?$AAt?$AAo?$AAr?$AA?$DM?$AAc?$AAl?$AAa?$AAs@
	push	OFFSET ??_C@_1BO@MEPPHOO@?$AA?$CC?$AAo?$AAu?$AAt?$AA?5?$AAo?$AAf?$AA?5?$AAr?$AAa?$AAn?$AAg?$AAe?$AA?$CC?$AA?$AA@
	call	__invalid_parameter
	add	esp, 20					; 00000014H
$LN2@operator@13:

; 159  : 			}
; 160  : 
; 161  :  #elif _ITERATOR_DEBUG_LEVEL == 1
; 162  : 		_SCL_SECURE_VALIDATE(this->_Getcont() != 0);
; 163  : 		_SCL_SECURE_VALIDATE_RANGE(
; 164  : 			((_Myvec *)this->_Getcont())->_Myfirst <= this->_Ptr + _Off
; 165  : 			&& this->_Ptr + _Off <= ((_Myvec *)this->_Getcont())->_Mylast);
; 166  :  #endif /* _ITERATOR_DEBUG_LEVEL */
; 167  : 
; 168  : 		_Ptr += _Off;

	mov	eax, DWORD PTR __Off$[ebp]
	shl	eax, 4
	mov	ecx, DWORD PTR _this$[ebp]
	add	eax, DWORD PTR [ecx+8]
	mov	edx, DWORD PTR _this$[ebp]
	mov	DWORD PTR [edx+8], eax

; 169  : 		return (*this);

	mov	eax, DWORD PTR _this$[ebp]

; 170  : 		}

	pop	esi
	add	esp, 4
	cmp	ebp, esp
	call	__RTC_CheckEsp
	mov	esp, ebp
	pop	ebp
	ret	4
??Y?$_Vector_const_iterator@V?$_Vector_val@UVector2D@@V?$allocator@UVector2D@@@std@@@std@@@std@@QAEAAV01@H@Z ENDP ; std::_Vector_const_iterator<std::_Vector_val<Vector2D,std::allocator<Vector2D> > >::operator+=
_TEXT	ENDS
PUBLIC	??_C@_1OM@FMPKNAAH@?$AAs?$AAt?$AAd?$AA?3?$AA?3?$AA_?$AAV?$AAe?$AAc?$AAt?$AAo?$AAr?$AA_?$AAc?$AAo?$AAn?$AAs?$AAt?$AA_?$AAi?$AAt?$AAe?$AAr?$AAa?$AAt?$AAo?$AAr?$AA?$DM?$AAc?$AAl?$AAa?$AAs@ ; `string'
PUBLIC	??_C@_1DM@HINDPMBP@?$AAv?$AAe?$AAc?$AAt?$AAo?$AAr?$AA?5?$AAi?$AAt?$AAe?$AAr?$AAa?$AAt?$AAo?$AAr?$AAs?$AA?5?$AAi?$AAn?$AAc?$AAo?$AAm?$AAp?$AAa?$AAt?$AAi?$AAb?$AAl?$AAe?$AA?$AA@ ; `string'
;	COMDAT ??_C@_1OM@FMPKNAAH@?$AAs?$AAt?$AAd?$AA?3?$AA?3?$AA_?$AAV?$AAe?$AAc?$AAt?$AAo?$AAr?$AA_?$AAc?$AAo?$AAn?$AAs?$AAt?$AA_?$AAi?$AAt?$AAe?$AAr?$AAa?$AAt?$AAo?$AAr?$AA?$DM?$AAc?$AAl?$AAa?$AAs@
CONST	SEGMENT
??_C@_1OM@FMPKNAAH@?$AAs?$AAt?$AAd?$AA?3?$AA?3?$AA_?$AAV?$AAe?$AAc?$AAt?$AAo?$AAr?$AA_?$AAc?$AAo?$AAn?$AAs?$AAt?$AA_?$AAi?$AAt?$AAe?$AAr?$AAa?$AAt?$AAo?$AAr?$AA?$DM?$AAc?$AAl?$AAa?$AAs@ DB 's'
	DB	00H, 't', 00H, 'd', 00H, ':', 00H, ':', 00H, '_', 00H, 'V', 00H
	DB	'e', 00H, 'c', 00H, 't', 00H, 'o', 00H, 'r', 00H, '_', 00H, 'c'
	DB	00H, 'o', 00H, 'n', 00H, 's', 00H, 't', 00H, '_', 00H, 'i', 00H
	DB	't', 00H, 'e', 00H, 'r', 00H, 'a', 00H, 't', 00H, 'o', 00H, 'r'
	DB	00H, '<', 00H, 'c', 00H, 'l', 00H, 'a', 00H, 's', 00H, 's', 00H
	DB	' ', 00H, 's', 00H, 't', 00H, 'd', 00H, ':', 00H, ':', 00H, '_'
	DB	00H, 'V', 00H, 'e', 00H, 'c', 00H, 't', 00H, 'o', 00H, 'r', 00H
	DB	'_', 00H, 'v', 00H, 'a', 00H, 'l', 00H, '<', 00H, 's', 00H, 't'
	DB	00H, 'r', 00H, 'u', 00H, 'c', 00H, 't', 00H, ' ', 00H, 'V', 00H
	DB	'e', 00H, 'c', 00H, 't', 00H, 'o', 00H, 'r', 00H, '2', 00H, 'D'
	DB	00H, ',', 00H, 'c', 00H, 'l', 00H, 'a', 00H, 's', 00H, 's', 00H
	DB	' ', 00H, 's', 00H, 't', 00H, 'd', 00H, ':', 00H, ':', 00H, 'a'
	DB	00H, 'l', 00H, 'l', 00H, 'o', 00H, 'c', 00H, 'a', 00H, 't', 00H
	DB	'o', 00H, 'r', 00H, '<', 00H, 's', 00H, 't', 00H, 'r', 00H, 'u'
	DB	00H, 'c', 00H, 't', 00H, ' ', 00H, 'V', 00H, 'e', 00H, 'c', 00H
	DB	't', 00H, 'o', 00H, 'r', 00H, '2', 00H, 'D', 00H, '>', 00H, ' '
	DB	00H, '>', 00H, ' ', 00H, '>', 00H, ':', 00H, ':', 00H, '_', 00H
	DB	'C', 00H, 'o', 00H, 'm', 00H, 'p', 00H, 'a', 00H, 't', 00H, 00H
	DB	00H						; `string'
CONST	ENDS
;	COMDAT ??_C@_1DM@HINDPMBP@?$AAv?$AAe?$AAc?$AAt?$AAo?$AAr?$AA?5?$AAi?$AAt?$AAe?$AAr?$AAa?$AAt?$AAo?$AAr?$AAs?$AA?5?$AAi?$AAn?$AAc?$AAo?$AAm?$AAp?$AAa?$AAt?$AAi?$AAb?$AAl?$AAe?$AA?$AA@
CONST	SEGMENT
??_C@_1DM@HINDPMBP@?$AAv?$AAe?$AAc?$AAt?$AAo?$AAr?$AA?5?$AAi?$AAt?$AAe?$AAr?$AAa?$AAt?$AAo?$AAr?$AAs?$AA?5?$AAi?$AAn?$AAc?$AAo?$AAm?$AAp?$AAa?$AAt?$AAi?$AAb?$AAl?$AAe?$AA?$AA@ DB 'v'
	DB	00H, 'e', 00H, 'c', 00H, 't', 00H, 'o', 00H, 'r', 00H, ' ', 00H
	DB	'i', 00H, 't', 00H, 'e', 00H, 'r', 00H, 'a', 00H, 't', 00H, 'o'
	DB	00H, 'r', 00H, 's', 00H, ' ', 00H, 'i', 00H, 'n', 00H, 'c', 00H
	DB	'o', 00H, 'm', 00H, 'p', 00H, 'a', 00H, 't', 00H, 'i', 00H, 'b'
	DB	00H, 'l', 00H, 'e', 00H, 00H, 00H		; `string'
; Function compile flags: /Odtp /RTCsu
CONST	ENDS
;	COMDAT ?_Compat@?$_Vector_const_iterator@V?$_Vector_val@UVector2D@@V?$allocator@UVector2D@@@std@@@std@@@std@@QBEXABV12@@Z
_TEXT	SEGMENT
_this$ = -4						; size = 4
__Right$ = 8						; size = 4
?_Compat@?$_Vector_const_iterator@V?$_Vector_val@UVector2D@@V?$allocator@UVector2D@@@std@@@std@@@std@@QBEXABV12@@Z PROC ; std::_Vector_const_iterator<std::_Vector_val<Vector2D,std::allocator<Vector2D> > >::_Compat, COMDAT
; _this$ = ecx

; 234  : 		{	// test for compatible iterator pair

	push	ebp
	mov	ebp, esp
	push	ecx
	push	esi
	mov	DWORD PTR [ebp-4], -858993460		; ccccccccH
	mov	DWORD PTR _this$[ebp], ecx

; 235  : 		if (this->_Getcont() == 0
; 236  : 			|| this->_Getcont() != _Right._Getcont())

	mov	ecx, DWORD PTR _this$[ebp]
	call	?_Getcont@_Iterator_base12@std@@QBEPBU_Container_base12@2@XZ ; std::_Iterator_base12::_Getcont
	test	eax, eax
	je	SHORT $LN1@Compat
	mov	ecx, DWORD PTR _this$[ebp]
	call	?_Getcont@_Iterator_base12@std@@QBEPBU_Container_base12@2@XZ ; std::_Iterator_base12::_Getcont
	mov	esi, eax
	mov	ecx, DWORD PTR __Right$[ebp]
	call	?_Getcont@_Iterator_base12@std@@QBEPBU_Container_base12@2@XZ ; std::_Iterator_base12::_Getcont
	cmp	esi, eax
	je	SHORT $LN3@Compat
$LN1@Compat:

; 237  : 			{	// report error
; 238  : 			_DEBUG_ERROR("vector iterators incompatible");

	push	238					; 000000eeH
	push	OFFSET ??_C@_1IM@MKOOKKBK@?$AAc?$AA?3?$AA?2?$AAP?$AAr?$AAo?$AAg?$AAr?$AAa?$AAm?$AA?5?$AAF?$AAi?$AAl?$AAe?$AAs?$AA?5?$AA?$CI?$AAx?$AA8?$AA6?$AA?$CJ?$AA?2?$AAM?$AAi?$AAc?$AAr?$AAo?$AAs?$AAo?$AAf?$AAt@
	push	OFFSET ??_C@_1DM@HINDPMBP@?$AAv?$AAe?$AAc?$AAt?$AAo?$AAr?$AA?5?$AAi?$AAt?$AAe?$AAr?$AAa?$AAt?$AAo?$AAr?$AAs?$AA?5?$AAi?$AAn?$AAc?$AAo?$AAm?$AAp?$AAa?$AAt?$AAi?$AAb?$AAl?$AAe?$AA?$AA@
	call	?_Debug_message@std@@YAXPB_W0I@Z	; std::_Debug_message
	add	esp, 12					; 0000000cH

; 239  : 			_SCL_SECURE_INVALID_ARGUMENT;

	mov	eax, OFFSET ??_C@_0CI@FNPHFCCM@Standard?5C?$CL?$CL?5Libraries?5Invalid?5A@
	test	eax, eax
	je	SHORT $LN5@Compat
	xor	ecx, ecx
	jne	SHORT $LN6@Compat
$LN5@Compat:
	push	OFFSET ??_C@_1FO@GJIHNDLM@?$AA?$CC?$AAS?$AAt?$AAa?$AAn?$AAd?$AAa?$AAr?$AAd?$AA?5?$AAC?$AA?$CL?$AA?$CL?$AA?5?$AAL?$AAi?$AAb?$AAr?$AAa?$AAr?$AAi?$AAe?$AAs?$AA?5?$AAI?$AAn?$AAv?$AAa?$AAl?$AAi?$AAd?$AA?5@
	push	0
	push	239					; 000000efH
	push	OFFSET ??_C@_1IM@MKOOKKBK@?$AAc?$AA?3?$AA?2?$AAP?$AAr?$AAo?$AAg?$AAr?$AAa?$AAm?$AA?5?$AAF?$AAi?$AAl?$AAe?$AAs?$AA?5?$AA?$CI?$AAx?$AA8?$AA6?$AA?$CJ?$AA?2?$AAM?$AAi?$AAc?$AAr?$AAo?$AAs?$AAo?$AAf?$AAt@
	push	2
	call	__CrtDbgReportW
	add	esp, 20					; 00000014H
	cmp	eax, 1
	jne	SHORT $LN6@Compat
	int	3
$LN6@Compat:
	push	0
	push	239					; 000000efH
	push	OFFSET ??_C@_1IM@MKOOKKBK@?$AAc?$AA?3?$AA?2?$AAP?$AAr?$AAo?$AAg?$AAr?$AAa?$AAm?$AA?5?$AAF?$AAi?$AAl?$AAe?$AAs?$AA?5?$AA?$CI?$AAx?$AA8?$AA6?$AA?$CJ?$AA?2?$AAM?$AAi?$AAc?$AAr?$AAo?$AAs?$AAo?$AAf?$AAt@
	push	OFFSET ??_C@_1OM@FMPKNAAH@?$AAs?$AAt?$AAd?$AA?3?$AA?3?$AA_?$AAV?$AAe?$AAc?$AAt?$AAo?$AAr?$AA_?$AAc?$AAo?$AAn?$AAs?$AAt?$AA_?$AAi?$AAt?$AAe?$AAr?$AAa?$AAt?$AAo?$AAr?$AA?$DM?$AAc?$AAl?$AAa?$AAs@
	push	OFFSET ??_C@_1CG@JNLFBNGN@?$AA?$CC?$AAi?$AAn?$AAv?$AAa?$AAl?$AAi?$AAd?$AA?5?$AAa?$AAr?$AAg?$AAu?$AAm?$AAe?$AAn?$AAt?$AA?$CC?$AA?$AA@
	call	__invalid_parameter
	add	esp, 20					; 00000014H
$LN3@Compat:

; 240  : 			}
; 241  : 		}

	pop	esi
	add	esp, 4
	cmp	ebp, esp
	call	__RTC_CheckEsp
	mov	esp, ebp
	pop	ebp
	ret	4
?_Compat@?$_Vector_const_iterator@V?$_Vector_val@UVector2D@@V?$allocator@UVector2D@@@std@@@std@@@std@@QBEXABV12@@Z ENDP ; std::_Vector_const_iterator<std::_Vector_val<Vector2D,std::allocator<Vector2D> > >::_Compat
_TEXT	ENDS
PUBLIC	?Tag@BaseGameEntity@@QAEXXZ			; BaseGameEntity::Tag
PUBLIC	?LengthSq@Vector2D@@QBENXZ			; Vector2D::LengthSq
PUBLIC	?BRadius@BaseGameEntity@@QBENXZ			; BaseGameEntity::BRadius
PUBLIC	?UnTag@BaseGameEntity@@QAEXXZ			; BaseGameEntity::UnTag
PUBLIC	??D?$_List_iterator@V?$_List_val@PAVAbstRaven_Bot@@V?$allocator@PAVAbstRaven_Bot@@@std@@@std@@@std@@QBEAAPAVAbstRaven_Bot@@XZ ; std::_List_iterator<std::_List_val<AbstRaven_Bot *,std::allocator<AbstRaven_Bot *> > >::operator*
PUBLIC	?end@?$list@PAVAbstRaven_Bot@@V?$allocator@PAVAbstRaven_Bot@@@std@@@std@@QAE?AV?$_List_iterator@V?$_List_val@PAVAbstRaven_Bot@@V?$allocator@PAVAbstRaven_Bot@@@std@@@std@@@2@XZ ; std::list<AbstRaven_Bot *,std::allocator<AbstRaven_Bot *> >::end
PUBLIC	??E?$_List_iterator@V?$_List_val@PAVAbstRaven_Bot@@V?$allocator@PAVAbstRaven_Bot@@@std@@@std@@@std@@QAEAAV01@XZ ; std::_List_iterator<std::_List_val<AbstRaven_Bot *,std::allocator<AbstRaven_Bot *> > >::operator++
PUBLIC	??1?$_List_iterator@V?$_List_val@PAVAbstRaven_Bot@@V?$allocator@PAVAbstRaven_Bot@@@std@@@std@@@std@@QAE@XZ ; std::_List_iterator<std::_List_val<AbstRaven_Bot *,std::allocator<AbstRaven_Bot *> > >::~_List_iterator<std::_List_val<AbstRaven_Bot *,std::allocator<AbstRaven_Bot *> > >
PUBLIC	??4?$_List_iterator@V?$_List_val@PAVAbstRaven_Bot@@V?$allocator@PAVAbstRaven_Bot@@@std@@@std@@@std@@QAEAAV01@ABV01@@Z ; std::_List_iterator<std::_List_val<AbstRaven_Bot *,std::allocator<AbstRaven_Bot *> > >::operator=
PUBLIC	?begin@?$list@PAVAbstRaven_Bot@@V?$allocator@PAVAbstRaven_Bot@@@std@@@std@@QAE?AV?$_List_iterator@V?$_List_val@PAVAbstRaven_Bot@@V?$allocator@PAVAbstRaven_Bot@@@std@@@std@@@2@XZ ; std::list<AbstRaven_Bot *,std::allocator<AbstRaven_Bot *> >::begin
PUBLIC	??0?$_List_iterator@V?$_List_val@PAVAbstRaven_Bot@@V?$allocator@PAVAbstRaven_Bot@@@std@@@std@@@std@@QAE@XZ ; std::_List_iterator<std::_List_val<AbstRaven_Bot *,std::allocator<AbstRaven_Bot *> > >::_List_iterator<std::_List_val<AbstRaven_Bot *,std::allocator<AbstRaven_Bot *> > >
;	COMDAT xdata$x
; File c:\users\teaja\documents\artificial-fun\labravenprojecttest\common\game\entityfunctiontemplates.h
xdata$x	SEGMENT
__unwindtable$??$TagNeighbors@VBaseGameEntity@@V?$list@PAVAbstRaven_Bot@@V?$allocator@PAVAbstRaven_Bot@@@std@@@std@@@@YAXPAVBaseGameEntity@@AAV?$list@PAVAbstRaven_Bot@@V?$allocator@PAVAbstRaven_Bot@@@std@@@std@@N@Z DD 0ffffffffH
	DD	FLAT:__unwindfunclet$??$TagNeighbors@VBaseGameEntity@@V?$list@PAVAbstRaven_Bot@@V?$allocator@PAVAbstRaven_Bot@@@std@@@std@@@@YAXPAVBaseGameEntity@@AAV?$list@PAVAbstRaven_Bot@@V?$allocator@PAVAbstRaven_Bot@@@std@@@std@@N@Z$0
	DD	00H
	DD	FLAT:__unwindfunclet$??$TagNeighbors@VBaseGameEntity@@V?$list@PAVAbstRaven_Bot@@V?$allocator@PAVAbstRaven_Bot@@@std@@@std@@@@YAXPAVBaseGameEntity@@AAV?$list@PAVAbstRaven_Bot@@V?$allocator@PAVAbstRaven_Bot@@@std@@@std@@N@Z$1
	DD	00H
	DD	FLAT:__unwindfunclet$??$TagNeighbors@VBaseGameEntity@@V?$list@PAVAbstRaven_Bot@@V?$allocator@PAVAbstRaven_Bot@@@std@@@std@@@@YAXPAVBaseGameEntity@@AAV?$list@PAVAbstRaven_Bot@@V?$allocator@PAVAbstRaven_Bot@@@std@@@std@@N@Z$2
__ehfuncinfo$??$TagNeighbors@VBaseGameEntity@@V?$list@PAVAbstRaven_Bot@@V?$allocator@PAVAbstRaven_Bot@@@std@@@std@@@@YAXPAVBaseGameEntity@@AAV?$list@PAVAbstRaven_Bot@@V?$allocator@PAVAbstRaven_Bot@@@std@@@std@@N@Z DD 019930522H
	DD	03H
	DD	FLAT:__unwindtable$??$TagNeighbors@VBaseGameEntity@@V?$list@PAVAbstRaven_Bot@@V?$allocator@PAVAbstRaven_Bot@@@std@@@std@@@@YAXPAVBaseGameEntity@@AAV?$list@PAVAbstRaven_Bot@@V?$allocator@PAVAbstRaven_Bot@@@std@@@std@@N@Z
	DD	2 DUP(00H)
	DD	2 DUP(00H)
	DD	00H
	DD	01H
; Function compile flags: /Odtp /RTCsu
xdata$x	ENDS
;	COMDAT ??$TagNeighbors@VBaseGameEntity@@V?$list@PAVAbstRaven_Bot@@V?$allocator@PAVAbstRaven_Bot@@@std@@@std@@@@YAXPAVBaseGameEntity@@AAV?$list@PAVAbstRaven_Bot@@V?$allocator@PAVAbstRaven_Bot@@@std@@@std@@N@Z
_TEXT	SEGMENT
tv178 = -140						; size = 4
tv179 = -136						; size = 4
tv176 = -132						; size = 4
tv65 = -128						; size = 4
$T146760 = -124						; size = 16
$T146759 = -108						; size = 16
$T146758 = -92						; size = 12
$T146757 = -77						; size = 1
$T146756 = -76						; size = 12
_range$142014 = -64					; size = 8
_to$142010 = -52					; size = 16
_it$ = -28						; size = 12
__$EHRec$ = -12						; size = 12
_entity$ = 8						; size = 4
_others$ = 12						; size = 4
_radius$ = 16						; size = 8
??$TagNeighbors@VBaseGameEntity@@V?$list@PAVAbstRaven_Bot@@V?$allocator@PAVAbstRaven_Bot@@@std@@@std@@@@YAXPAVBaseGameEntity@@AAV?$list@PAVAbstRaven_Bot@@V?$allocator@PAVAbstRaven_Bot@@@std@@@std@@N@Z PROC ; TagNeighbors<BaseGameEntity,std::list<AbstRaven_Bot *,std::allocator<AbstRaven_Bot *> > >, COMDAT

; 46   : {

	push	ebp
	mov	ebp, esp
	push	-1
	push	__ehhandler$??$TagNeighbors@VBaseGameEntity@@V?$list@PAVAbstRaven_Bot@@V?$allocator@PAVAbstRaven_Bot@@@std@@@std@@@@YAXPAVBaseGameEntity@@AAV?$list@PAVAbstRaven_Bot@@V?$allocator@PAVAbstRaven_Bot@@@std@@@std@@N@Z
	mov	eax, DWORD PTR fs:0
	push	eax
	sub	esp, 128				; 00000080H
	push	edi
	lea	edi, DWORD PTR [ebp-140]
	mov	ecx, 32					; 00000020H
	mov	eax, -858993460				; ccccccccH
	rep stosd
	mov	eax, DWORD PTR ___security_cookie
	xor	eax, ebp
	push	eax
	lea	eax, DWORD PTR __$EHRec$[ebp]
	mov	DWORD PTR fs:0, eax

; 47   :   typename conT::iterator it;

	lea	ecx, DWORD PTR _it$[ebp]
	call	??0?$_List_iterator@V?$_List_val@PAVAbstRaven_Bot@@V?$allocator@PAVAbstRaven_Bot@@@std@@@std@@@std@@QAE@XZ ; std::_List_iterator<std::_List_val<AbstRaven_Bot *,std::allocator<AbstRaven_Bot *> > >::_List_iterator<std::_List_val<AbstRaven_Bot *,std::allocator<AbstRaven_Bot *> > >
	mov	DWORD PTR __$EHRec$[ebp+8], 0

; 48   : 
; 49   :   //iterate through all entities checking for range
; 50   :   for (it=others.begin(); it != others.end(); ++it)

	lea	eax, DWORD PTR $T146756[ebp]
	push	eax
	mov	ecx, DWORD PTR _others$[ebp]
	call	?begin@?$list@PAVAbstRaven_Bot@@V?$allocator@PAVAbstRaven_Bot@@@std@@@std@@QAE?AV?$_List_iterator@V?$_List_val@PAVAbstRaven_Bot@@V?$allocator@PAVAbstRaven_Bot@@@std@@@std@@@2@XZ ; std::list<AbstRaven_Bot *,std::allocator<AbstRaven_Bot *> >::begin
	mov	DWORD PTR tv65[ebp], eax
	mov	ecx, DWORD PTR tv65[ebp]
	mov	DWORD PTR tv176[ebp], ecx
	mov	BYTE PTR __$EHRec$[ebp+8], 1
	mov	edx, DWORD PTR tv176[ebp]
	push	edx
	lea	ecx, DWORD PTR _it$[ebp]
	call	??4?$_List_iterator@V?$_List_val@PAVAbstRaven_Bot@@V?$allocator@PAVAbstRaven_Bot@@@std@@@std@@@std@@QAEAAV01@ABV01@@Z
	mov	BYTE PTR __$EHRec$[ebp+8], 0
	lea	ecx, DWORD PTR $T146756[ebp]
	call	??1?$_List_iterator@V?$_List_val@PAVAbstRaven_Bot@@V?$allocator@PAVAbstRaven_Bot@@@std@@@std@@@std@@QAE@XZ
	jmp	SHORT $LN4@TagNeighbo
$LN3@TagNeighbo:
	lea	ecx, DWORD PTR _it$[ebp]
	call	??E?$_List_iterator@V?$_List_val@PAVAbstRaven_Bot@@V?$allocator@PAVAbstRaven_Bot@@@std@@@std@@@std@@QAEAAV01@XZ ; std::_List_iterator<std::_List_val<AbstRaven_Bot *,std::allocator<AbstRaven_Bot *> > >::operator++
$LN4@TagNeighbo:
	lea	eax, DWORD PTR $T146758[ebp]
	push	eax
	mov	ecx, DWORD PTR _others$[ebp]
	call	?end@?$list@PAVAbstRaven_Bot@@V?$allocator@PAVAbstRaven_Bot@@@std@@@std@@QAE?AV?$_List_iterator@V?$_List_val@PAVAbstRaven_Bot@@V?$allocator@PAVAbstRaven_Bot@@@std@@@std@@@2@XZ ; std::list<AbstRaven_Bot *,std::allocator<AbstRaven_Bot *> >::end
	mov	DWORD PTR tv179[ebp], eax
	mov	ecx, DWORD PTR tv179[ebp]
	mov	DWORD PTR tv178[ebp], ecx
	mov	BYTE PTR __$EHRec$[ebp+8], 2
	mov	edx, DWORD PTR tv178[ebp]
	push	edx
	lea	ecx, DWORD PTR _it$[ebp]
	call	??9?$_List_const_iterator@V?$_List_val@PAVAbstRaven_Bot@@V?$allocator@PAVAbstRaven_Bot@@@std@@@std@@@std@@QBE_NABV01@@Z ; std::_List_const_iterator<std::_List_val<AbstRaven_Bot *,std::allocator<AbstRaven_Bot *> > >::operator!=
	mov	BYTE PTR $T146757[ebp], al
	mov	BYTE PTR __$EHRec$[ebp+8], 0
	lea	ecx, DWORD PTR $T146758[ebp]
	call	??1?$_List_iterator@V?$_List_val@PAVAbstRaven_Bot@@V?$allocator@PAVAbstRaven_Bot@@@std@@@std@@@std@@QAE@XZ
	movzx	eax, BYTE PTR $T146757[ebp]
	test	eax, eax
	je	$LN2@TagNeighbo

; 51   :   {
; 52   :     //first clear any current tag
; 53   :     (*it)->UnTag();

	lea	ecx, DWORD PTR _it$[ebp]
	call	??D?$_List_iterator@V?$_List_val@PAVAbstRaven_Bot@@V?$allocator@PAVAbstRaven_Bot@@@std@@@std@@@std@@QBEAAPAVAbstRaven_Bot@@XZ ; std::_List_iterator<std::_List_val<AbstRaven_Bot *,std::allocator<AbstRaven_Bot *> > >::operator*
	mov	ecx, DWORD PTR [eax]
	call	?UnTag@BaseGameEntity@@QAEXXZ		; BaseGameEntity::UnTag

; 54   : 
; 55   :     //work in distance squared to avoid sqrts
; 56   :     Vector2D to = (*it)->Pos() - entity->Pos();

	lea	ecx, DWORD PTR $T146759[ebp]
	push	ecx
	mov	ecx, DWORD PTR _entity$[ebp]
	call	?Pos@BaseGameEntity@@QBE?AUVector2D@@XZ	; BaseGameEntity::Pos
	push	eax
	lea	edx, DWORD PTR $T146760[ebp]
	push	edx
	lea	ecx, DWORD PTR _it$[ebp]
	call	??D?$_List_iterator@V?$_List_val@PAVAbstRaven_Bot@@V?$allocator@PAVAbstRaven_Bot@@@std@@@std@@@std@@QBEAAPAVAbstRaven_Bot@@XZ ; std::_List_iterator<std::_List_val<AbstRaven_Bot *,std::allocator<AbstRaven_Bot *> > >::operator*
	mov	ecx, DWORD PTR [eax]
	call	?Pos@BaseGameEntity@@QBE?AUVector2D@@XZ	; BaseGameEntity::Pos
	push	eax
	lea	eax, DWORD PTR _to$142010[ebp]
	push	eax
	call	??G@YA?AUVector2D@@ABU0@0@Z		; operator-
	add	esp, 12					; 0000000cH

; 57   : 
; 58   :     //the bounding radius of the other is taken into account by adding it 
; 59   :     //to the range
; 60   :     double range = radius + (*it)->BRadius();

	lea	ecx, DWORD PTR _it$[ebp]
	call	??D?$_List_iterator@V?$_List_val@PAVAbstRaven_Bot@@V?$allocator@PAVAbstRaven_Bot@@@std@@@std@@@std@@QBEAAPAVAbstRaven_Bot@@XZ ; std::_List_iterator<std::_List_val<AbstRaven_Bot *,std::allocator<AbstRaven_Bot *> > >::operator*
	mov	ecx, DWORD PTR [eax]
	call	?BRadius@BaseGameEntity@@QBENXZ		; BaseGameEntity::BRadius
	fadd	QWORD PTR _radius$[ebp]
	fstp	QWORD PTR _range$142014[ebp]

; 61   : 
; 62   :     //if entity within range, tag for further consideration
; 63   :     if ( ((*it) != entity) && (to.LengthSq() < range*range))

	lea	ecx, DWORD PTR _it$[ebp]
	call	??D?$_List_iterator@V?$_List_val@PAVAbstRaven_Bot@@V?$allocator@PAVAbstRaven_Bot@@@std@@@std@@@std@@QBEAAPAVAbstRaven_Bot@@XZ ; std::_List_iterator<std::_List_val<AbstRaven_Bot *,std::allocator<AbstRaven_Bot *> > >::operator*
	mov	ecx, DWORD PTR [eax]
	cmp	ecx, DWORD PTR _entity$[ebp]
	je	SHORT $LN1@TagNeighbo
	lea	ecx, DWORD PTR _to$142010[ebp]
	call	?LengthSq@Vector2D@@QBENXZ		; Vector2D::LengthSq
	fld	QWORD PTR _range$142014[ebp]
	fmul	QWORD PTR _range$142014[ebp]
	fcompp
	fnstsw	ax
	test	ah, 65					; 00000041H
	jne	SHORT $LN1@TagNeighbo

; 64   :     {
; 65   :       (*it)->Tag();

	lea	ecx, DWORD PTR _it$[ebp]
	call	??D?$_List_iterator@V?$_List_val@PAVAbstRaven_Bot@@V?$allocator@PAVAbstRaven_Bot@@@std@@@std@@@std@@QBEAAPAVAbstRaven_Bot@@XZ ; std::_List_iterator<std::_List_val<AbstRaven_Bot *,std::allocator<AbstRaven_Bot *> > >::operator*
	mov	ecx, DWORD PTR [eax]
	call	?Tag@BaseGameEntity@@QAEXXZ		; BaseGameEntity::Tag
$LN1@TagNeighbo:

; 66   :     }
; 67   :     
; 68   :   }//next entity

	jmp	$LN3@TagNeighbo
$LN2@TagNeighbo:

; 69   : }

	mov	DWORD PTR __$EHRec$[ebp+8], -1
	lea	ecx, DWORD PTR _it$[ebp]
	call	??1?$_List_iterator@V?$_List_val@PAVAbstRaven_Bot@@V?$allocator@PAVAbstRaven_Bot@@@std@@@std@@@std@@QAE@XZ
	push	edx
	mov	ecx, ebp
	push	eax
	lea	edx, DWORD PTR $LN14@TagNeighbo
	call	@_RTC_CheckStackVars@8
	pop	eax
	pop	edx
	mov	ecx, DWORD PTR __$EHRec$[ebp]
	mov	DWORD PTR fs:0, ecx
	pop	ecx
	pop	edi
	add	esp, 140				; 0000008cH
	cmp	ebp, esp
	call	__RTC_CheckEsp
	mov	esp, ebp
	pop	ebp
	ret	0
	npad	1
$LN14@TagNeighbo:
	DD	2
	DD	$LN13@TagNeighbo
$LN13@TagNeighbo:
	DD	-28					; ffffffe4H
	DD	12					; 0000000cH
	DD	$LN10@TagNeighbo
	DD	-52					; ffffffccH
	DD	16					; 00000010H
	DD	$LN11@TagNeighbo
$LN11@TagNeighbo:
	DB	116					; 00000074H
	DB	111					; 0000006fH
	DB	0
$LN10@TagNeighbo:
	DB	105					; 00000069H
	DB	116					; 00000074H
	DB	0
_TEXT	ENDS
;	COMDAT text$x
text$x	SEGMENT
__unwindfunclet$??$TagNeighbors@VBaseGameEntity@@V?$list@PAVAbstRaven_Bot@@V?$allocator@PAVAbstRaven_Bot@@@std@@@std@@@@YAXPAVBaseGameEntity@@AAV?$list@PAVAbstRaven_Bot@@V?$allocator@PAVAbstRaven_Bot@@@std@@@std@@N@Z$0:
	lea	ecx, DWORD PTR _it$[ebp]
	jmp	??1?$_List_iterator@V?$_List_val@PAVAbstRaven_Bot@@V?$allocator@PAVAbstRaven_Bot@@@std@@@std@@@std@@QAE@XZ
__unwindfunclet$??$TagNeighbors@VBaseGameEntity@@V?$list@PAVAbstRaven_Bot@@V?$allocator@PAVAbstRaven_Bot@@@std@@@std@@@@YAXPAVBaseGameEntity@@AAV?$list@PAVAbstRaven_Bot@@V?$allocator@PAVAbstRaven_Bot@@@std@@@std@@N@Z$1:
	lea	ecx, DWORD PTR $T146756[ebp]
	jmp	??1?$_List_iterator@V?$_List_val@PAVAbstRaven_Bot@@V?$allocator@PAVAbstRaven_Bot@@@std@@@std@@@std@@QAE@XZ
__unwindfunclet$??$TagNeighbors@VBaseGameEntity@@V?$list@PAVAbstRaven_Bot@@V?$allocator@PAVAbstRaven_Bot@@@std@@@std@@@@YAXPAVBaseGameEntity@@AAV?$list@PAVAbstRaven_Bot@@V?$allocator@PAVAbstRaven_Bot@@@std@@@std@@N@Z$2:
	lea	ecx, DWORD PTR $T146758[ebp]
	jmp	??1?$_List_iterator@V?$_List_val@PAVAbstRaven_Bot@@V?$allocator@PAVAbstRaven_Bot@@@std@@@std@@@std@@QAE@XZ
__ehhandler$??$TagNeighbors@VBaseGameEntity@@V?$list@PAVAbstRaven_Bot@@V?$allocator@PAVAbstRaven_Bot@@@std@@@std@@@@YAXPAVBaseGameEntity@@AAV?$list@PAVAbstRaven_Bot@@V?$allocator@PAVAbstRaven_Bot@@@std@@@std@@N@Z:
	mov	edx, DWORD PTR [esp+8]
	lea	eax, DWORD PTR [edx+12]
	mov	ecx, DWORD PTR [edx-136]
	xor	ecx, eax
	call	@__security_check_cookie@4
	mov	eax, OFFSET __ehfuncinfo$??$TagNeighbors@VBaseGameEntity@@V?$list@PAVAbstRaven_Bot@@V?$allocator@PAVAbstRaven_Bot@@@std@@@std@@@@YAXPAVBaseGameEntity@@AAV?$list@PAVAbstRaven_Bot@@V?$allocator@PAVAbstRaven_Bot@@@std@@@std@@N@Z
	jmp	___CxxFrameHandler3
text$x	ENDS
??$TagNeighbors@VBaseGameEntity@@V?$list@PAVAbstRaven_Bot@@V?$allocator@PAVAbstRaven_Bot@@@std@@@std@@@@YAXPAVBaseGameEntity@@AAV?$list@PAVAbstRaven_Bot@@V?$allocator@PAVAbstRaven_Bot@@@std@@@std@@N@Z ENDP ; TagNeighbors<BaseGameEntity,std::list<AbstRaven_Bot *,std::allocator<AbstRaven_Bot *> > >
; Function compile flags: /Odtp /RTCsu
; File c:\users\teaja\documents\artificial-fun\labravenprojecttest\common\2d\vector2d.h
;	COMDAT ?LengthSq@Vector2D@@QBENXZ
_TEXT	SEGMENT
_this$ = -4						; size = 4
?LengthSq@Vector2D@@QBENXZ PROC				; Vector2D::LengthSq, COMDAT
; _this$ = ecx

; 138  : {

	push	ebp
	mov	ebp, esp
	push	ecx
	mov	DWORD PTR [ebp-4], -858993460		; ccccccccH
	mov	DWORD PTR _this$[ebp], ecx

; 139  :   return (x * x + y * y);

	mov	eax, DWORD PTR _this$[ebp]
	mov	ecx, DWORD PTR _this$[ebp]
	fld	QWORD PTR [eax]
	fmul	QWORD PTR [ecx]
	mov	edx, DWORD PTR _this$[ebp]
	mov	eax, DWORD PTR _this$[ebp]
	fld	QWORD PTR [edx+8]
	fmul	QWORD PTR [eax+8]
	faddp	ST(1), ST(0)

; 140  : }

	mov	esp, ebp
	pop	ebp
	ret	0
?LengthSq@Vector2D@@QBENXZ ENDP				; Vector2D::LengthSq
; Function compile flags: /Odtp /RTCsu
; File c:\users\teaja\documents\artificial-fun\labravenprojecttest\common\game\basegameentity.h
_TEXT	ENDS
;	COMDAT ?BRadius@BaseGameEntity@@QBENXZ
_TEXT	SEGMENT
_this$ = -4						; size = 4
?BRadius@BaseGameEntity@@QBENXZ PROC			; BaseGameEntity::BRadius, COMDAT
; _this$ = ecx

; 92   :   double       BRadius()const{return m_dBoundingRadius;}

	push	ebp
	mov	ebp, esp
	push	ecx
	mov	DWORD PTR [ebp-4], -858993460		; ccccccccH
	mov	DWORD PTR _this$[ebp], ecx
	mov	eax, DWORD PTR _this$[ebp]
	fld	QWORD PTR [eax+56]
	mov	esp, ebp
	pop	ebp
	ret	0
?BRadius@BaseGameEntity@@QBENXZ ENDP			; BaseGameEntity::BRadius
; Function compile flags: /Odtp /RTCsu
_TEXT	ENDS
;	COMDAT ?Tag@BaseGameEntity@@QAEXXZ
_TEXT	SEGMENT
_this$ = -4						; size = 4
?Tag@BaseGameEntity@@QAEXXZ PROC			; BaseGameEntity::Tag, COMDAT
; _this$ = ecx

; 97   :   void         Tag(){m_bTag = true;}

	push	ebp
	mov	ebp, esp
	push	ecx
	mov	DWORD PTR [ebp-4], -858993460		; ccccccccH
	mov	DWORD PTR _this$[ebp], ecx
	mov	eax, DWORD PTR _this$[ebp]
	mov	BYTE PTR [eax+16], 1
	mov	esp, ebp
	pop	ebp
	ret	0
?Tag@BaseGameEntity@@QAEXXZ ENDP			; BaseGameEntity::Tag
; Function compile flags: /Odtp /RTCsu
_TEXT	ENDS
;	COMDAT ?UnTag@BaseGameEntity@@QAEXXZ
_TEXT	SEGMENT
_this$ = -4						; size = 4
?UnTag@BaseGameEntity@@QAEXXZ PROC			; BaseGameEntity::UnTag, COMDAT
; _this$ = ecx

; 98   :   void         UnTag(){m_bTag = false;}

	push	ebp
	mov	ebp, esp
	push	ecx
	mov	DWORD PTR [ebp-4], -858993460		; ccccccccH
	mov	DWORD PTR _this$[ebp], ecx
	mov	eax, DWORD PTR _this$[ebp]
	mov	BYTE PTR [eax+16], 0
	mov	esp, ebp
	pop	ebp
	ret	0
?UnTag@BaseGameEntity@@QAEXXZ ENDP			; BaseGameEntity::UnTag
; Function compile flags: /Odtp /RTCsu
; File c:\users\teaja\documents\artificial-fun\labravenprojecttest\common\misc\utils.h
_TEXT	ENDS
;	COMDAT ??$MinOf@N@@YANABN0@Z
_TEXT	SEGMENT
_a$ = 8							; size = 4
_b$ = 12						; size = 4
??$MinOf@N@@YANABN0@Z PROC				; MinOf<double>, COMDAT

; 162  : {

	push	ebp
	mov	ebp, esp

; 163  :   if (a<b) return a; return b;

	mov	eax, DWORD PTR _a$[ebp]
	mov	ecx, DWORD PTR _b$[ebp]
	fld	QWORD PTR [ecx]
	fcomp	QWORD PTR [eax]
	fnstsw	ax
	test	ah, 65					; 00000041H
	jne	SHORT $LN1@MinOf
	mov	edx, DWORD PTR _a$[ebp]
	fld	QWORD PTR [edx]
	jmp	SHORT $LN2@MinOf
$LN1@MinOf:
	mov	eax, DWORD PTR _b$[ebp]
	fld	QWORD PTR [eax]
$LN2@MinOf:

; 164  : }

	pop	ebp
	ret	0
??$MinOf@N@@YANABN0@Z ENDP				; MinOf<double>
_TEXT	ENDS
PUBLIC	?construct@?$allocator@U_Container_proxy@std@@@std@@QAEXPAU_Container_proxy@2@$$QAU32@@Z ; std::allocator<std::_Container_proxy>::construct
PUBLIC	??$forward@U_Container_proxy@std@@@std@@YA$$QAU_Container_proxy@0@AAU10@@Z ; std::forward<std::_Container_proxy>
; Function compile flags: /Odtp /RTCsu
; File c:\program files (x86)\microsoft visual studio 10.0\vc\include\xmemory
;	COMDAT ??$_Cons_val@V?$allocator@U_Container_proxy@std@@@std@@U_Container_proxy@2@U32@@std@@YAXAAV?$allocator@U_Container_proxy@std@@@0@PAU_Container_proxy@0@$$QAU20@@Z
_TEXT	SEGMENT
__Alval$ = 8						; size = 4
__Pdest$ = 12						; size = 4
__Src$ = 16						; size = 4
??$_Cons_val@V?$allocator@U_Container_proxy@std@@@std@@U_Container_proxy@2@U32@@std@@YAXAAV?$allocator@U_Container_proxy@std@@@0@PAU_Container_proxy@0@$$QAU20@@Z PROC ; std::_Cons_val<std::allocator<std::_Container_proxy>,std::_Container_proxy,std::_Container_proxy>, COMDAT

; 279  : 	{	// construct using allocator

	push	ebp
	mov	ebp, esp

; 280  : 	_Alval.construct(_Pdest, _STD forward<_Ty2>(_Src));

	mov	eax, DWORD PTR __Src$[ebp]
	push	eax
	call	??$forward@U_Container_proxy@std@@@std@@YA$$QAU_Container_proxy@0@AAU10@@Z ; std::forward<std::_Container_proxy>
	add	esp, 4
	push	eax
	mov	ecx, DWORD PTR __Pdest$[ebp]
	push	ecx
	mov	ecx, DWORD PTR __Alval$[ebp]
	call	?construct@?$allocator@U_Container_proxy@std@@@std@@QAEXPAU_Container_proxy@2@$$QAU32@@Z ; std::allocator<std::_Container_proxy>::construct

; 281  : 	}

	cmp	ebp, esp
	call	__RTC_CheckEsp
	pop	ebp
	ret	0
??$_Cons_val@V?$allocator@U_Container_proxy@std@@@std@@U_Container_proxy@2@U32@@std@@YAXAAV?$allocator@U_Container_proxy@std@@@0@PAU_Container_proxy@0@$$QAU20@@Z ENDP ; std::_Cons_val<std::allocator<std::_Container_proxy>,std::_Container_proxy,std::_Container_proxy>
_TEXT	ENDS
PUBLIC	?destroy@?$allocator@U_Container_proxy@std@@@std@@QAEXPAU_Container_proxy@2@@Z ; std::allocator<std::_Container_proxy>::destroy
; Function compile flags: /Odtp /RTCsu
;	COMDAT ??$_Dest_val@V?$allocator@U_Container_proxy@std@@@std@@U_Container_proxy@2@@std@@YAXAAV?$allocator@U_Container_proxy@std@@@0@PAU_Container_proxy@0@@Z
_TEXT	SEGMENT
__Alval$ = 8						; size = 4
__Pdest$ = 12						; size = 4
??$_Dest_val@V?$allocator@U_Container_proxy@std@@@std@@U_Container_proxy@2@@std@@YAXAAV?$allocator@U_Container_proxy@std@@@0@PAU_Container_proxy@0@@Z PROC ; std::_Dest_val<std::allocator<std::_Container_proxy>,std::_Container_proxy>, COMDAT

; 286  : 	{	// destroy using allocator

	push	ebp
	mov	ebp, esp

; 287  : 	_Alval.destroy(_Pdest);

	mov	eax, DWORD PTR __Pdest$[ebp]
	push	eax
	mov	ecx, DWORD PTR __Alval$[ebp]
	call	?destroy@?$allocator@U_Container_proxy@std@@@std@@QAEXPAU_Container_proxy@2@@Z ; std::allocator<std::_Container_proxy>::destroy

; 288  : 	}

	cmp	ebp, esp
	call	__RTC_CheckEsp
	pop	ebp
	ret	0
??$_Dest_val@V?$allocator@U_Container_proxy@std@@@std@@U_Container_proxy@2@@std@@YAXAAV?$allocator@U_Container_proxy@std@@@0@PAU_Container_proxy@0@@Z ENDP ; std::_Dest_val<std::allocator<std::_Container_proxy>,std::_Container_proxy>
_TEXT	ENDS
PUBLIC	??$_Uninit_def_fill_n@PAUVector2D@@IU1@V?$allocator@UVector2D@@@std@@U1@@std@@YAXPAUVector2D@@IPBU1@AAV?$allocator@UVector2D@@@0@0U_Nonscalar_ptr_iterator_tag@0@@Z ; std::_Uninit_def_fill_n<Vector2D *,unsigned int,Vector2D,std::allocator<Vector2D>,Vector2D>
PUBLIC	??$_Val_type@PAUVector2D@@@std@@YAPAUVector2D@@PAU1@@Z ; std::_Val_type<Vector2D *>
PUBLIC	??$_Ptr_cat@UVector2D@@U1@@std@@YA?AU_Nonscalar_ptr_iterator_tag@0@PAUVector2D@@0@Z ; std::_Ptr_cat<Vector2D,Vector2D>
; Function compile flags: /Odtp /RTCsu
; File c:\program files (x86)\microsoft visual studio 10.0\vc\include\memory
;	COMDAT ??$_Uninitialized_default_fill_n@PAUVector2D@@IU1@V?$allocator@UVector2D@@@std@@@std@@YAXPAUVector2D@@IPBU1@AAV?$allocator@UVector2D@@@0@@Z
_TEXT	SEGMENT
$T146790 = -1						; size = 1
__First$ = 8						; size = 4
__Count$ = 12						; size = 4
__Pval$ = 16						; size = 4
__Al$ = 20						; size = 4
??$_Uninitialized_default_fill_n@PAUVector2D@@IU1@V?$allocator@UVector2D@@@std@@@std@@YAXPAUVector2D@@IPBU1@AAV?$allocator@UVector2D@@@0@@Z PROC ; std::_Uninitialized_default_fill_n<Vector2D *,unsigned int,Vector2D,std::allocator<Vector2D> >, COMDAT

; 670  : 	{	// copy _Count * _Val_type(_First)() to raw _First, using _Al

	push	ebp
	mov	ebp, esp
	push	ecx
	mov	DWORD PTR [ebp-4], -858993460		; ccccccccH

; 671  : 	_Uninit_def_fill_n(_First, _Count, _Pval, _Al,
; 672  : 		_Val_type(_First), _Ptr_cat(_First, _First));

	mov	eax, DWORD PTR __First$[ebp]
	push	eax
	mov	ecx, DWORD PTR __First$[ebp]
	push	ecx
	call	??$_Ptr_cat@UVector2D@@U1@@std@@YA?AU_Nonscalar_ptr_iterator_tag@0@PAUVector2D@@0@Z ; std::_Ptr_cat<Vector2D,Vector2D>
	add	esp, 8
	mov	BYTE PTR $T146790[ebp], al
	movzx	edx, BYTE PTR $T146790[ebp]
	push	edx
	mov	eax, DWORD PTR __First$[ebp]
	push	eax
	call	??$_Val_type@PAUVector2D@@@std@@YAPAUVector2D@@PAU1@@Z ; std::_Val_type<Vector2D *>
	add	esp, 4
	push	eax
	mov	ecx, DWORD PTR __Al$[ebp]
	push	ecx
	mov	edx, DWORD PTR __Pval$[ebp]
	push	edx
	mov	eax, DWORD PTR __Count$[ebp]
	push	eax
	mov	ecx, DWORD PTR __First$[ebp]
	push	ecx
	call	??$_Uninit_def_fill_n@PAUVector2D@@IU1@V?$allocator@UVector2D@@@std@@U1@@std@@YAXPAUVector2D@@IPBU1@AAV?$allocator@UVector2D@@@0@0U_Nonscalar_ptr_iterator_tag@0@@Z ; std::_Uninit_def_fill_n<Vector2D *,unsigned int,Vector2D,std::allocator<Vector2D>,Vector2D>
	add	esp, 24					; 00000018H

; 673  : 	}

	add	esp, 4
	cmp	ebp, esp
	call	__RTC_CheckEsp
	mov	esp, ebp
	pop	ebp
	ret	0
??$_Uninitialized_default_fill_n@PAUVector2D@@IU1@V?$allocator@UVector2D@@@std@@@std@@YAXPAUVector2D@@IPBU1@AAV?$allocator@UVector2D@@@0@@Z ENDP ; std::_Uninitialized_default_fill_n<Vector2D *,unsigned int,Vector2D,std::allocator<Vector2D> >
; Function compile flags: /Odtp /RTCsu
; File c:\program files (x86)\microsoft visual studio 10.0\vc\include\xmemory
_TEXT	ENDS
;	COMDAT ??$?0UVector2D@@@?$allocator@U_Container_proxy@std@@@std@@QAE@ABV?$allocator@UVector2D@@@1@@Z
_TEXT	SEGMENT
_this$ = -4						; size = 4
___formal$ = 8						; size = 4
??$?0UVector2D@@@?$allocator@U_Container_proxy@std@@@std@@QAE@ABV?$allocator@UVector2D@@@1@@Z PROC ; std::allocator<std::_Container_proxy>::allocator<std::_Container_proxy><Vector2D>, COMDAT
; _this$ = ecx

; 170  : 		_ALLOCATOR(const _ALLOCATOR<_Other>&) _THROW0()

	push	ebp
	mov	ebp, esp
	push	ecx
	mov	DWORD PTR [ebp-4], -858993460		; ccccccccH
	mov	DWORD PTR _this$[ebp], ecx

; 171  : 		{	// construct from a related allocator (do nothing)
; 172  : 		}

	mov	eax, DWORD PTR _this$[ebp]
	mov	esp, ebp
	pop	ebp
	ret	4
??$?0UVector2D@@@?$allocator@U_Container_proxy@std@@@std@@QAE@ABV?$allocator@UVector2D@@@1@@Z ENDP ; std::allocator<std::_Container_proxy>::allocator<std::_Container_proxy><Vector2D>
_TEXT	ENDS
PUBLIC	??$_Uninitialized_move@PAUVector2D@@PAU1@V?$allocator@UVector2D@@@std@@@std@@YAPAUVector2D@@PAU1@00AAV?$allocator@UVector2D@@@0@@Z ; std::_Uninitialized_move<Vector2D *,Vector2D *,std::allocator<Vector2D> >
; Function compile flags: /Odtp /RTCsu
; File c:\program files (x86)\microsoft visual studio 10.0\vc\include\vector
;	COMDAT ??$_Umove@PAUVector2D@@@?$vector@UVector2D@@V?$allocator@UVector2D@@@std@@@std@@IAEPAUVector2D@@PAU2@00@Z
_TEXT	SEGMENT
_this$ = -4						; size = 4
__First$ = 8						; size = 4
__Last$ = 12						; size = 4
__Ptr$ = 16						; size = 4
??$_Umove@PAUVector2D@@@?$vector@UVector2D@@V?$allocator@UVector2D@@@std@@@std@@IAEPAUVector2D@@PAU2@00@Z PROC ; std::vector<Vector2D,std::allocator<Vector2D> >::_Umove<Vector2D *>, COMDAT
; _this$ = ecx

; 1322 : 		pointer _Umove(_Iter _First, _Iter _Last, pointer _Ptr)

	push	ebp
	mov	ebp, esp
	push	ecx
	mov	DWORD PTR [ebp-4], -858993460		; ccccccccH
	mov	DWORD PTR _this$[ebp], ecx

; 1323 : 		{	// move initializing [_First, _Last), using allocator
; 1324 : 		return (_Uninitialized_move(_First, _Last,
; 1325 : 			_Ptr, this->_Alval));

	mov	eax, DWORD PTR _this$[ebp]
	add	eax, 16					; 00000010H
	push	eax
	mov	ecx, DWORD PTR __Ptr$[ebp]
	push	ecx
	mov	edx, DWORD PTR __Last$[ebp]
	push	edx
	mov	eax, DWORD PTR __First$[ebp]
	push	eax
	call	??$_Uninitialized_move@PAUVector2D@@PAU1@V?$allocator@UVector2D@@@std@@@std@@YAPAUVector2D@@PAU1@00AAV?$allocator@UVector2D@@@0@@Z ; std::_Uninitialized_move<Vector2D *,Vector2D *,std::allocator<Vector2D> >
	add	esp, 16					; 00000010H

; 1326 : 		}

	add	esp, 4
	cmp	ebp, esp
	call	__RTC_CheckEsp
	mov	esp, ebp
	pop	ebp
	ret	12					; 0000000cH
??$_Umove@PAUVector2D@@@?$vector@UVector2D@@V?$allocator@UVector2D@@@std@@@std@@IAEPAUVector2D@@PAU2@00@Z ENDP ; std::vector<Vector2D,std::allocator<Vector2D> >::_Umove<Vector2D *>
_TEXT	ENDS
PUBLIC	??$_Move@PAUVector2D@@PAU1@@std@@YAPAUVector2D@@PAU1@00U_Nonscalar_ptr_iterator_tag@0@@Z ; std::_Move<Vector2D *,Vector2D *>
; Function compile flags: /Odtp /RTCsu
; File c:\program files (x86)\microsoft visual studio 10.0\vc\include\xutility
;	COMDAT ??$_Move@PAUVector2D@@PAU1@@std@@YAPAUVector2D@@PAU1@00@Z
_TEXT	SEGMENT
$T146797 = -1						; size = 1
__First$ = 8						; size = 4
__Last$ = 12						; size = 4
__Dest$ = 16						; size = 4
??$_Move@PAUVector2D@@PAU1@@std@@YAPAUVector2D@@PAU1@00@Z PROC ; std::_Move<Vector2D *,Vector2D *>, COMDAT

; 2545 : 	{	// move [_First, _Last) to [_Dest, ...), unchecked

	push	ebp
	mov	ebp, esp
	push	ecx
	mov	DWORD PTR [ebp-4], -858993460		; ccccccccH

; 2546 : 	return (_Move(_First, _Last,
; 2547 : 		_Dest, _Ptr_cat(_First, _Dest)));

	mov	eax, DWORD PTR __Dest$[ebp]
	push	eax
	mov	ecx, DWORD PTR __First$[ebp]
	push	ecx
	call	??$_Ptr_cat@UVector2D@@U1@@std@@YA?AU_Nonscalar_ptr_iterator_tag@0@PAUVector2D@@0@Z ; std::_Ptr_cat<Vector2D,Vector2D>
	add	esp, 8
	mov	BYTE PTR $T146797[ebp], al
	movzx	edx, BYTE PTR $T146797[ebp]
	push	edx
	mov	eax, DWORD PTR __Dest$[ebp]
	push	eax
	mov	ecx, DWORD PTR __Last$[ebp]
	push	ecx
	mov	edx, DWORD PTR __First$[ebp]
	push	edx
	call	??$_Move@PAUVector2D@@PAU1@@std@@YAPAUVector2D@@PAU1@00U_Nonscalar_ptr_iterator_tag@0@@Z ; std::_Move<Vector2D *,Vector2D *>
	add	esp, 16					; 00000010H

; 2548 : 	}

	add	esp, 4
	cmp	ebp, esp
	call	__RTC_CheckEsp
	mov	esp, ebp
	pop	ebp
	ret	0
??$_Move@PAUVector2D@@PAU1@@std@@YAPAUVector2D@@PAU1@00@Z ENDP ; std::_Move<Vector2D *,Vector2D *>
_TEXT	ENDS
PUBLIC	??$_Destroy_range@V?$allocator@UVector2D@@@std@@@std@@YAXPAUVector2D@@0AAV?$allocator@UVector2D@@@0@U_Nonscalar_ptr_iterator_tag@0@@Z ; std::_Destroy_range<std::allocator<Vector2D> >
; Function compile flags: /Odtp /RTCsu
; File c:\program files (x86)\microsoft visual studio 10.0\vc\include\xmemory
;	COMDAT ??$_Destroy_range@V?$allocator@UVector2D@@@std@@@std@@YAXPAUVector2D@@0AAV?$allocator@UVector2D@@@0@@Z
_TEXT	SEGMENT
$T146800 = -1						; size = 1
__First$ = 8						; size = 4
__Last$ = 12						; size = 4
__Al$ = 16						; size = 4
??$_Destroy_range@V?$allocator@UVector2D@@@std@@@std@@YAXPAUVector2D@@0AAV?$allocator@UVector2D@@@0@@Z PROC ; std::_Destroy_range<std::allocator<Vector2D> >, COMDAT

; 87   : 	{	// destroy [_First, _Last)

	push	ebp
	mov	ebp, esp
	push	ecx
	mov	DWORD PTR [ebp-4], -858993460		; ccccccccH

; 88   : 	_Destroy_range(_First, _Last, _Al, _Ptr_cat(_First, _Last));

	mov	eax, DWORD PTR __Last$[ebp]
	push	eax
	mov	ecx, DWORD PTR __First$[ebp]
	push	ecx
	call	??$_Ptr_cat@UVector2D@@U1@@std@@YA?AU_Nonscalar_ptr_iterator_tag@0@PAUVector2D@@0@Z ; std::_Ptr_cat<Vector2D,Vector2D>
	add	esp, 8
	mov	BYTE PTR $T146800[ebp], al
	movzx	edx, BYTE PTR $T146800[ebp]
	push	edx
	mov	eax, DWORD PTR __Al$[ebp]
	push	eax
	mov	ecx, DWORD PTR __Last$[ebp]
	push	ecx
	mov	edx, DWORD PTR __First$[ebp]
	push	edx
	call	??$_Destroy_range@V?$allocator@UVector2D@@@std@@@std@@YAXPAUVector2D@@0AAV?$allocator@UVector2D@@@0@U_Nonscalar_ptr_iterator_tag@0@@Z ; std::_Destroy_range<std::allocator<Vector2D> >
	add	esp, 16					; 00000010H

; 89   : 	}

	add	esp, 4
	cmp	ebp, esp
	call	__RTC_CheckEsp
	mov	esp, ebp
	pop	ebp
	ret	0
??$_Destroy_range@V?$allocator@UVector2D@@@std@@@std@@YAXPAUVector2D@@0AAV?$allocator@UVector2D@@@0@@Z ENDP ; std::_Destroy_range<std::allocator<Vector2D> >
_TEXT	ENDS
PUBLIC	__TI2?AVbad_alloc@std@@
PUBLIC	??0bad_alloc@std@@QAE@PBD@Z			; std::bad_alloc::bad_alloc
PUBLIC	??1bad_alloc@std@@UAE@XZ			; std::bad_alloc::~bad_alloc
PUBLIC	__CTA2?AVbad_alloc@std@@
PUBLIC	__CT??_R0?AVbad_alloc@std@@@8??0bad_alloc@std@@QAE@ABV01@@Z12
PUBLIC	??_R0?AVbad_alloc@std@@@8			; std::bad_alloc `RTTI Type Descriptor'
PUBLIC	??0bad_alloc@std@@QAE@ABV01@@Z			; std::bad_alloc::bad_alloc
PUBLIC	__CT??_R0?AVexception@std@@@8??0exception@std@@QAE@ABV01@@Z12
PUBLIC	??_R0?AVexception@std@@@8			; std::exception `RTTI Type Descriptor'
EXTRN	??2@YAPAXI@Z:PROC				; operator new
EXTRN	??0exception@std@@QAE@ABV01@@Z:PROC		; std::exception::exception
;	COMDAT ??_R0?AVexception@std@@@8
_DATA	SEGMENT
??_R0?AVexception@std@@@8 DD FLAT:??_7type_info@@6B@	; std::exception `RTTI Type Descriptor'
	DD	00H
	DB	'.?AVexception@std@@', 00H
_DATA	ENDS
;	COMDAT __CT??_R0?AVexception@std@@@8??0exception@std@@QAE@ABV01@@Z12
xdata$x	SEGMENT
__CT??_R0?AVexception@std@@@8??0exception@std@@QAE@ABV01@@Z12 DD 00H
	DD	FLAT:??_R0?AVexception@std@@@8
	DD	00H
	DD	0ffffffffH
	ORG $+4
	DD	0cH
	DD	FLAT:??0exception@std@@QAE@ABV01@@Z
xdata$x	ENDS
;	COMDAT ??_R0?AVbad_alloc@std@@@8
_DATA	SEGMENT
??_R0?AVbad_alloc@std@@@8 DD FLAT:??_7type_info@@6B@	; std::bad_alloc `RTTI Type Descriptor'
	DD	00H
	DB	'.?AVbad_alloc@std@@', 00H
_DATA	ENDS
;	COMDAT __CT??_R0?AVbad_alloc@std@@@8??0bad_alloc@std@@QAE@ABV01@@Z12
xdata$x	SEGMENT
__CT??_R0?AVbad_alloc@std@@@8??0bad_alloc@std@@QAE@ABV01@@Z12 DD 00H
	DD	FLAT:??_R0?AVbad_alloc@std@@@8
	DD	00H
	DD	0ffffffffH
	ORG $+4
	DD	0cH
	DD	FLAT:??0bad_alloc@std@@QAE@ABV01@@Z
xdata$x	ENDS
;	COMDAT __CTA2?AVbad_alloc@std@@
xdata$x	SEGMENT
__CTA2?AVbad_alloc@std@@ DD 02H
	DD	FLAT:__CT??_R0?AVbad_alloc@std@@@8??0bad_alloc@std@@QAE@ABV01@@Z12
	DD	FLAT:__CT??_R0?AVexception@std@@@8??0exception@std@@QAE@ABV01@@Z12
xdata$x	ENDS
;	COMDAT __TI2?AVbad_alloc@std@@
xdata$x	SEGMENT
__TI2?AVbad_alloc@std@@ DD 00H
	DD	FLAT:??1bad_alloc@std@@UAE@XZ
	DD	00H
	DD	FLAT:__CTA2?AVbad_alloc@std@@
; Function compile flags: /Odtp /RTCsu
xdata$x	ENDS
;	COMDAT ??$_Allocate@UVector2D@@@std@@YAPAUVector2D@@IPAU1@@Z
_TEXT	SEGMENT
$T146803 = -16						; size = 12
__Ptr$ = -4						; size = 4
__Count$ = 8						; size = 4
___formal$ = 12						; size = 4
??$_Allocate@UVector2D@@@std@@YAPAUVector2D@@IPAU1@@Z PROC ; std::_Allocate<Vector2D>, COMDAT

; 30   : 	{	// allocate storage for _Count elements of type _Ty

	push	ebp
	mov	ebp, esp
	sub	esp, 16					; 00000010H
	mov	eax, -858993460				; ccccccccH
	mov	DWORD PTR [ebp-16], eax
	mov	DWORD PTR [ebp-12], eax
	mov	DWORD PTR [ebp-8], eax
	mov	DWORD PTR [ebp-4], eax

; 31   : 	void *_Ptr = 0;

	mov	DWORD PTR __Ptr$[ebp], 0

; 32   : 
; 33   : 	if (_Count <= 0)

	cmp	DWORD PTR __Count$[ebp], 0
	ja	SHORT $LN4@Allocate

; 34   : 		_Count = 0;

	mov	DWORD PTR __Count$[ebp], 0

; 35   : 	else if (((_SIZT)(-1) / sizeof (_Ty) < _Count)

	jmp	SHORT $LN3@Allocate
$LN4@Allocate:

; 36   : 		|| (_Ptr = ::operator new(_Count * sizeof (_Ty))) == 0)

	cmp	DWORD PTR __Count$[ebp], 268435455	; 0fffffffH
	ja	SHORT $LN1@Allocate
	mov	eax, DWORD PTR __Count$[ebp]
	shl	eax, 4
	push	eax
	call	??2@YAPAXI@Z				; operator new
	add	esp, 4
	mov	DWORD PTR __Ptr$[ebp], eax
	cmp	DWORD PTR __Ptr$[ebp], 0
	jne	SHORT $LN3@Allocate
$LN1@Allocate:

; 37   : 		_THROW_NCEE(bad_alloc, 0);

	push	0
	lea	ecx, DWORD PTR $T146803[ebp]
	call	??0bad_alloc@std@@QAE@PBD@Z		; std::bad_alloc::bad_alloc
	push	OFFSET __TI2?AVbad_alloc@std@@
	lea	ecx, DWORD PTR $T146803[ebp]
	push	ecx
	call	__CxxThrowException@8
$LN3@Allocate:

; 38   : 
; 39   : 	return ((_Ty _FARQ *)_Ptr);

	mov	eax, DWORD PTR __Ptr$[ebp]
$LN6@Allocate:

; 40   : 	}

	add	esp, 16					; 00000010H
	cmp	ebp, esp
	call	__RTC_CheckEsp
	mov	esp, ebp
	pop	ebp
	ret	0
??$_Allocate@UVector2D@@@std@@YAPAUVector2D@@IPAU1@@Z ENDP ; std::_Allocate<Vector2D>
_TEXT	ENDS
PUBLIC	??_7bad_alloc@std@@6B@				; std::bad_alloc::`vftable'
PUBLIC	??_R4bad_alloc@std@@6B@				; std::bad_alloc::`RTTI Complete Object Locator'
PUBLIC	??_R3bad_alloc@std@@8				; std::bad_alloc::`RTTI Class Hierarchy Descriptor'
PUBLIC	??_R2bad_alloc@std@@8				; std::bad_alloc::`RTTI Base Class Array'
PUBLIC	??_R1A@?0A@EA@bad_alloc@std@@8			; std::bad_alloc::`RTTI Base Class Descriptor at (0,-1,0,64)'
PUBLIC	??_R1A@?0A@EA@exception@std@@8			; std::exception::`RTTI Base Class Descriptor at (0,-1,0,64)'
PUBLIC	??_R3exception@std@@8				; std::exception::`RTTI Class Hierarchy Descriptor'
PUBLIC	??_R2exception@std@@8				; std::exception::`RTTI Base Class Array'
EXTRN	??0exception@std@@QAE@ABQBD@Z:PROC		; std::exception::exception
EXTRN	??_Ebad_alloc@std@@UAEPAXI@Z:PROC		; std::bad_alloc::`vector deleting destructor'
EXTRN	?what@exception@std@@UBEPBDXZ:PROC		; std::exception::what
;	COMDAT ??_R2exception@std@@8
; File c:\program files (x86)\microsoft visual studio 10.0\vc\include\exception
rdata$r	SEGMENT
??_R2exception@std@@8 DD FLAT:??_R1A@?0A@EA@exception@std@@8 ; std::exception::`RTTI Base Class Array'
rdata$r	ENDS
;	COMDAT ??_R3exception@std@@8
rdata$r	SEGMENT
??_R3exception@std@@8 DD 00H				; std::exception::`RTTI Class Hierarchy Descriptor'
	DD	00H
	DD	01H
	DD	FLAT:??_R2exception@std@@8
rdata$r	ENDS
;	COMDAT ??_R1A@?0A@EA@exception@std@@8
rdata$r	SEGMENT
??_R1A@?0A@EA@exception@std@@8 DD FLAT:??_R0?AVexception@std@@@8 ; std::exception::`RTTI Base Class Descriptor at (0,-1,0,64)'
	DD	00H
	DD	00H
	DD	0ffffffffH
	DD	00H
	DD	040H
	DD	FLAT:??_R3exception@std@@8
rdata$r	ENDS
;	COMDAT ??_R1A@?0A@EA@bad_alloc@std@@8
rdata$r	SEGMENT
??_R1A@?0A@EA@bad_alloc@std@@8 DD FLAT:??_R0?AVbad_alloc@std@@@8 ; std::bad_alloc::`RTTI Base Class Descriptor at (0,-1,0,64)'
	DD	01H
	DD	00H
	DD	0ffffffffH
	DD	00H
	DD	040H
	DD	FLAT:??_R3bad_alloc@std@@8
rdata$r	ENDS
;	COMDAT ??_R2bad_alloc@std@@8
rdata$r	SEGMENT
??_R2bad_alloc@std@@8 DD FLAT:??_R1A@?0A@EA@bad_alloc@std@@8 ; std::bad_alloc::`RTTI Base Class Array'
	DD	FLAT:??_R1A@?0A@EA@exception@std@@8
rdata$r	ENDS
;	COMDAT ??_R3bad_alloc@std@@8
rdata$r	SEGMENT
??_R3bad_alloc@std@@8 DD 00H				; std::bad_alloc::`RTTI Class Hierarchy Descriptor'
	DD	00H
	DD	02H
	DD	FLAT:??_R2bad_alloc@std@@8
rdata$r	ENDS
;	COMDAT ??_R4bad_alloc@std@@6B@
rdata$r	SEGMENT
??_R4bad_alloc@std@@6B@ DD 00H				; std::bad_alloc::`RTTI Complete Object Locator'
	DD	00H
	DD	00H
	DD	FLAT:??_R0?AVbad_alloc@std@@@8
	DD	FLAT:??_R3bad_alloc@std@@8
rdata$r	ENDS
;	COMDAT ??_7bad_alloc@std@@6B@
CONST	SEGMENT
??_7bad_alloc@std@@6B@ DD FLAT:??_R4bad_alloc@std@@6B@	; std::bad_alloc::`vftable'
	DD	FLAT:??_Ebad_alloc@std@@UAEPAXI@Z
	DD	FLAT:?what@exception@std@@UBEPBDXZ
; Function compile flags: /Odtp /RTCsu
CONST	ENDS
;	COMDAT ??0bad_alloc@std@@QAE@PBD@Z
_TEXT	SEGMENT
_this$ = -4						; size = 4
__Message$ = 8						; size = 4
??0bad_alloc@std@@QAE@PBD@Z PROC			; std::bad_alloc::bad_alloc, COMDAT
; _this$ = ecx

; 345  : 		{	// construct from message string

	push	ebp
	mov	ebp, esp
	push	ecx
	mov	DWORD PTR [ebp-4], -858993460		; ccccccccH
	mov	DWORD PTR _this$[ebp], ecx
	lea	eax, DWORD PTR __Message$[ebp]
	push	eax
	mov	ecx, DWORD PTR _this$[ebp]
	call	??0exception@std@@QAE@ABQBD@Z		; std::exception::exception
	mov	ecx, DWORD PTR _this$[ebp]
	mov	DWORD PTR [ecx], OFFSET ??_7bad_alloc@std@@6B@

; 346  : 		}

	mov	eax, DWORD PTR _this$[ebp]
	add	esp, 4
	cmp	ebp, esp
	call	__RTC_CheckEsp
	mov	esp, ebp
	pop	ebp
	ret	4
??0bad_alloc@std@@QAE@PBD@Z ENDP			; std::bad_alloc::bad_alloc
_TEXT	ENDS
EXTRN	??1exception@std@@UAE@XZ:PROC			; std::exception::~exception
; Function compile flags: /Odtp /RTCsu
;	COMDAT ??1bad_alloc@std@@UAE@XZ
_TEXT	SEGMENT
_this$ = -4						; size = 4
??1bad_alloc@std@@UAE@XZ PROC				; std::bad_alloc::~bad_alloc, COMDAT
; _this$ = ecx

; 354  : 		{	// destroy the object

	push	ebp
	mov	ebp, esp
	push	ecx
	mov	DWORD PTR [ebp-4], -858993460		; ccccccccH
	mov	DWORD PTR _this$[ebp], ecx
	mov	eax, DWORD PTR _this$[ebp]
	mov	DWORD PTR [eax], OFFSET ??_7bad_alloc@std@@6B@

; 355  : 		}

	mov	ecx, DWORD PTR _this$[ebp]
	call	??1exception@std@@UAE@XZ		; std::exception::~exception
	add	esp, 4
	cmp	ebp, esp
	call	__RTC_CheckEsp
	mov	esp, ebp
	pop	ebp
	ret	0
??1bad_alloc@std@@UAE@XZ ENDP				; std::bad_alloc::~bad_alloc
; Function compile flags: /Odtp /RTCsu
_TEXT	ENDS
;	COMDAT ??_Gbad_alloc@std@@UAEPAXI@Z
_TEXT	SEGMENT
_this$ = -4						; size = 4
___flags$ = 8						; size = 4
??_Gbad_alloc@std@@UAEPAXI@Z PROC			; std::bad_alloc::`scalar deleting destructor', COMDAT
; _this$ = ecx
	push	ebp
	mov	ebp, esp
	push	ecx
	mov	DWORD PTR [ebp-4], -858993460		; ccccccccH
	mov	DWORD PTR _this$[ebp], ecx
	mov	ecx, DWORD PTR _this$[ebp]
	call	??1bad_alloc@std@@UAE@XZ		; std::bad_alloc::~bad_alloc
	mov	eax, DWORD PTR ___flags$[ebp]
	and	eax, 1
	je	SHORT $LN1@scalar@2
	mov	ecx, DWORD PTR _this$[ebp]
	push	ecx
	call	??3@YAXPAX@Z				; operator delete
	add	esp, 4
$LN1@scalar@2:
	mov	eax, DWORD PTR _this$[ebp]
	add	esp, 4
	cmp	ebp, esp
	call	__RTC_CheckEsp
	mov	esp, ebp
	pop	ebp
	ret	4
??_Gbad_alloc@std@@UAEPAXI@Z ENDP			; std::bad_alloc::`scalar deleting destructor'
; Function compile flags: /Odtp /RTCsu
; File c:\program files (x86)\microsoft visual studio 10.0\vc\include\xmemory
_TEXT	ENDS
;	COMDAT ??$_Allocate@U_Container_proxy@std@@@std@@YAPAU_Container_proxy@0@IPAU10@@Z
_TEXT	SEGMENT
$T146812 = -16						; size = 12
__Ptr$ = -4						; size = 4
__Count$ = 8						; size = 4
___formal$ = 12						; size = 4
??$_Allocate@U_Container_proxy@std@@@std@@YAPAU_Container_proxy@0@IPAU10@@Z PROC ; std::_Allocate<std::_Container_proxy>, COMDAT

; 30   : 	{	// allocate storage for _Count elements of type _Ty

	push	ebp
	mov	ebp, esp
	sub	esp, 16					; 00000010H
	mov	eax, -858993460				; ccccccccH
	mov	DWORD PTR [ebp-16], eax
	mov	DWORD PTR [ebp-12], eax
	mov	DWORD PTR [ebp-8], eax
	mov	DWORD PTR [ebp-4], eax

; 31   : 	void *_Ptr = 0;

	mov	DWORD PTR __Ptr$[ebp], 0

; 32   : 
; 33   : 	if (_Count <= 0)

	cmp	DWORD PTR __Count$[ebp], 0
	ja	SHORT $LN4@Allocate@2

; 34   : 		_Count = 0;

	mov	DWORD PTR __Count$[ebp], 0

; 35   : 	else if (((_SIZT)(-1) / sizeof (_Ty) < _Count)

	jmp	SHORT $LN3@Allocate@2
$LN4@Allocate@2:

; 36   : 		|| (_Ptr = ::operator new(_Count * sizeof (_Ty))) == 0)

	cmp	DWORD PTR __Count$[ebp], 536870911	; 1fffffffH
	ja	SHORT $LN1@Allocate@2
	mov	eax, DWORD PTR __Count$[ebp]
	shl	eax, 3
	push	eax
	call	??2@YAPAXI@Z				; operator new
	add	esp, 4
	mov	DWORD PTR __Ptr$[ebp], eax
	cmp	DWORD PTR __Ptr$[ebp], 0
	jne	SHORT $LN3@Allocate@2
$LN1@Allocate@2:

; 37   : 		_THROW_NCEE(bad_alloc, 0);

	push	0
	lea	ecx, DWORD PTR $T146812[ebp]
	call	??0bad_alloc@std@@QAE@PBD@Z		; std::bad_alloc::bad_alloc
	push	OFFSET __TI2?AVbad_alloc@std@@
	lea	ecx, DWORD PTR $T146812[ebp]
	push	ecx
	call	__CxxThrowException@8
$LN3@Allocate@2:

; 38   : 
; 39   : 	return ((_Ty _FARQ *)_Ptr);

	mov	eax, DWORD PTR __Ptr$[ebp]
$LN6@Allocate@2:

; 40   : 	}

	add	esp, 16					; 00000010H
	cmp	ebp, esp
	call	__RTC_CheckEsp
	mov	esp, ebp
	pop	ebp
	ret	0
??$_Allocate@U_Container_proxy@std@@@std@@YAPAU_Container_proxy@0@IPAU10@@Z ENDP ; std::_Allocate<std::_Container_proxy>
; Function compile flags: /Odtp /RTCsu
_TEXT	ENDS
;	COMDAT ??1?$_List_iterator@V?$_List_val@PAVAbstRaven_Bot@@V?$allocator@PAVAbstRaven_Bot@@@std@@@std@@@std@@QAE@XZ
_TEXT	SEGMENT
_this$ = -4						; size = 4
??1?$_List_iterator@V?$_List_val@PAVAbstRaven_Bot@@V?$allocator@PAVAbstRaven_Bot@@@std@@@std@@@std@@QAE@XZ PROC ; std::_List_iterator<std::_List_val<AbstRaven_Bot *,std::allocator<AbstRaven_Bot *> > >::~_List_iterator<std::_List_val<AbstRaven_Bot *,std::allocator<AbstRaven_Bot *> > >, COMDAT
; _this$ = ecx
	push	ebp
	mov	ebp, esp
	push	ecx
	mov	DWORD PTR [ebp-4], -858993460		; ccccccccH
	mov	DWORD PTR _this$[ebp], ecx
	mov	ecx, DWORD PTR _this$[ebp]
	call	??1?$_List_const_iterator@V?$_List_val@PAVAbstRaven_Bot@@V?$allocator@PAVAbstRaven_Bot@@@std@@@std@@@std@@QAE@XZ
	add	esp, 4
	cmp	ebp, esp
	call	__RTC_CheckEsp
	mov	esp, ebp
	pop	ebp
	ret	0
??1?$_List_iterator@V?$_List_val@PAVAbstRaven_Bot@@V?$allocator@PAVAbstRaven_Bot@@@std@@@std@@@std@@QAE@XZ ENDP ; std::_List_iterator<std::_List_val<AbstRaven_Bot *,std::allocator<AbstRaven_Bot *> > >::~_List_iterator<std::_List_val<AbstRaven_Bot *,std::allocator<AbstRaven_Bot *> > >
_TEXT	ENDS
PUBLIC	??4?$_List_const_iterator@V?$_List_val@PAVAbstRaven_Bot@@V?$allocator@PAVAbstRaven_Bot@@@std@@@std@@@std@@QAEAAV01@ABV01@@Z ; std::_List_const_iterator<std::_List_val<AbstRaven_Bot *,std::allocator<AbstRaven_Bot *> > >::operator=
; Function compile flags: /Odtp /RTCsu
;	COMDAT ??4?$_List_iterator@V?$_List_val@PAVAbstRaven_Bot@@V?$allocator@PAVAbstRaven_Bot@@@std@@@std@@@std@@QAEAAV01@ABV01@@Z
_TEXT	SEGMENT
_this$ = -4						; size = 4
___that$ = 8						; size = 4
??4?$_List_iterator@V?$_List_val@PAVAbstRaven_Bot@@V?$allocator@PAVAbstRaven_Bot@@@std@@@std@@@std@@QAEAAV01@ABV01@@Z PROC ; std::_List_iterator<std::_List_val<AbstRaven_Bot *,std::allocator<AbstRaven_Bot *> > >::operator=, COMDAT
; _this$ = ecx
	push	ebp
	mov	ebp, esp
	push	ecx
	mov	DWORD PTR [ebp-4], -858993460		; ccccccccH
	mov	DWORD PTR _this$[ebp], ecx
	mov	eax, DWORD PTR ___that$[ebp]
	push	eax
	mov	ecx, DWORD PTR _this$[ebp]
	call	??4?$_List_const_iterator@V?$_List_val@PAVAbstRaven_Bot@@V?$allocator@PAVAbstRaven_Bot@@@std@@@std@@@std@@QAEAAV01@ABV01@@Z
	mov	eax, DWORD PTR _this$[ebp]
	add	esp, 4
	cmp	ebp, esp
	call	__RTC_CheckEsp
	mov	esp, ebp
	pop	ebp
	ret	4
??4?$_List_iterator@V?$_List_val@PAVAbstRaven_Bot@@V?$allocator@PAVAbstRaven_Bot@@@std@@@std@@@std@@QAEAAV01@ABV01@@Z ENDP ; std::_List_iterator<std::_List_val<AbstRaven_Bot *,std::allocator<AbstRaven_Bot *> > >::operator=
; Function compile flags: /Odtp /RTCsu
_TEXT	ENDS
;	COMDAT ??0bad_alloc@std@@QAE@ABV01@@Z
_TEXT	SEGMENT
_this$ = -4						; size = 4
___that$ = 8						; size = 4
??0bad_alloc@std@@QAE@ABV01@@Z PROC			; std::bad_alloc::bad_alloc, COMDAT
; _this$ = ecx
	push	ebp
	mov	ebp, esp
	push	ecx
	mov	DWORD PTR [ebp-4], -858993460		; ccccccccH
	mov	DWORD PTR _this$[ebp], ecx
	mov	eax, DWORD PTR ___that$[ebp]
	push	eax
	mov	ecx, DWORD PTR _this$[ebp]
	call	??0exception@std@@QAE@ABV01@@Z		; std::exception::exception
	mov	ecx, DWORD PTR _this$[ebp]
	mov	DWORD PTR [ecx], OFFSET ??_7bad_alloc@std@@6B@
	mov	eax, DWORD PTR _this$[ebp]
	add	esp, 4
	cmp	ebp, esp
	call	__RTC_CheckEsp
	mov	esp, ebp
	pop	ebp
	ret	4
??0bad_alloc@std@@QAE@ABV01@@Z ENDP			; std::bad_alloc::bad_alloc
_TEXT	ENDS
PUBLIC	??4?$_List_unchecked_const_iterator@V?$_List_val@PAVAbstRaven_Bot@@V?$allocator@PAVAbstRaven_Bot@@@std@@@std@@U_Iterator_base12@2@@std@@QAEAAV01@ABV01@@Z ; std::_List_unchecked_const_iterator<std::_List_val<AbstRaven_Bot *,std::allocator<AbstRaven_Bot *> >,std::_Iterator_base12>::operator=
; Function compile flags: /Odtp /RTCsu
;	COMDAT ??4?$_List_const_iterator@V?$_List_val@PAVAbstRaven_Bot@@V?$allocator@PAVAbstRaven_Bot@@@std@@@std@@@std@@QAEAAV01@ABV01@@Z
_TEXT	SEGMENT
_this$ = -4						; size = 4
___that$ = 8						; size = 4
??4?$_List_const_iterator@V?$_List_val@PAVAbstRaven_Bot@@V?$allocator@PAVAbstRaven_Bot@@@std@@@std@@@std@@QAEAAV01@ABV01@@Z PROC ; std::_List_const_iterator<std::_List_val<AbstRaven_Bot *,std::allocator<AbstRaven_Bot *> > >::operator=, COMDAT
; _this$ = ecx
	push	ebp
	mov	ebp, esp
	push	ecx
	mov	DWORD PTR [ebp-4], -858993460		; ccccccccH
	mov	DWORD PTR _this$[ebp], ecx
	mov	eax, DWORD PTR ___that$[ebp]
	push	eax
	mov	ecx, DWORD PTR _this$[ebp]
	call	??4?$_List_unchecked_const_iterator@V?$_List_val@PAVAbstRaven_Bot@@V?$allocator@PAVAbstRaven_Bot@@@std@@@std@@U_Iterator_base12@2@@std@@QAEAAV01@ABV01@@Z
	mov	eax, DWORD PTR _this$[ebp]
	add	esp, 4
	cmp	ebp, esp
	call	__RTC_CheckEsp
	mov	esp, ebp
	pop	ebp
	ret	4
??4?$_List_const_iterator@V?$_List_val@PAVAbstRaven_Bot@@V?$allocator@PAVAbstRaven_Bot@@@std@@@std@@@std@@QAEAAV01@ABV01@@Z ENDP ; std::_List_const_iterator<std::_List_val<AbstRaven_Bot *,std::allocator<AbstRaven_Bot *> > >::operator=
_TEXT	ENDS
PUBLIC	??4?$_Iterator012@Ubidirectional_iterator_tag@std@@PAVAbstRaven_Bot@@HPBQAV3@ABQAV3@U_Iterator_base12@2@@std@@QAEAAU01@ABU01@@Z ; std::_Iterator012<std::bidirectional_iterator_tag,AbstRaven_Bot *,int,AbstRaven_Bot * const *,AbstRaven_Bot * const &,std::_Iterator_base12>::operator=
; Function compile flags: /Odtp /RTCsu
;	COMDAT ??4?$_List_unchecked_const_iterator@V?$_List_val@PAVAbstRaven_Bot@@V?$allocator@PAVAbstRaven_Bot@@@std@@@std@@U_Iterator_base12@2@@std@@QAEAAV01@ABV01@@Z
_TEXT	SEGMENT
_this$ = -4						; size = 4
___that$ = 8						; size = 4
??4?$_List_unchecked_const_iterator@V?$_List_val@PAVAbstRaven_Bot@@V?$allocator@PAVAbstRaven_Bot@@@std@@@std@@U_Iterator_base12@2@@std@@QAEAAV01@ABV01@@Z PROC ; std::_List_unchecked_const_iterator<std::_List_val<AbstRaven_Bot *,std::allocator<AbstRaven_Bot *> >,std::_Iterator_base12>::operator=, COMDAT
; _this$ = ecx
	push	ebp
	mov	ebp, esp
	push	ecx
	mov	DWORD PTR [ebp-4], -858993460		; ccccccccH
	mov	DWORD PTR _this$[ebp], ecx
	mov	eax, DWORD PTR ___that$[ebp]
	push	eax
	mov	ecx, DWORD PTR _this$[ebp]
	call	??4?$_Iterator012@Ubidirectional_iterator_tag@std@@PAVAbstRaven_Bot@@HPBQAV3@ABQAV3@U_Iterator_base12@2@@std@@QAEAAU01@ABU01@@Z
	mov	ecx, DWORD PTR _this$[ebp]
	mov	edx, DWORD PTR ___that$[ebp]
	mov	eax, DWORD PTR [edx+8]
	mov	DWORD PTR [ecx+8], eax
	mov	eax, DWORD PTR _this$[ebp]
	add	esp, 4
	cmp	ebp, esp
	call	__RTC_CheckEsp
	mov	esp, ebp
	pop	ebp
	ret	4
??4?$_List_unchecked_const_iterator@V?$_List_val@PAVAbstRaven_Bot@@V?$allocator@PAVAbstRaven_Bot@@@std@@@std@@U_Iterator_base12@2@@std@@QAEAAV01@ABV01@@Z ENDP ; std::_List_unchecked_const_iterator<std::_List_val<AbstRaven_Bot *,std::allocator<AbstRaven_Bot *> >,std::_Iterator_base12>::operator=
; Function compile flags: /Odtp /RTCsu
_TEXT	ENDS
;	COMDAT ??4?$_Iterator012@Ubidirectional_iterator_tag@std@@PAVAbstRaven_Bot@@HPBQAV3@ABQAV3@U_Iterator_base12@2@@std@@QAEAAU01@ABU01@@Z
_TEXT	SEGMENT
_this$ = -4						; size = 4
___that$ = 8						; size = 4
??4?$_Iterator012@Ubidirectional_iterator_tag@std@@PAVAbstRaven_Bot@@HPBQAV3@ABQAV3@U_Iterator_base12@2@@std@@QAEAAU01@ABU01@@Z PROC ; std::_Iterator012<std::bidirectional_iterator_tag,AbstRaven_Bot *,int,AbstRaven_Bot * const *,AbstRaven_Bot * const &,std::_Iterator_base12>::operator=, COMDAT
; _this$ = ecx
	push	ebp
	mov	ebp, esp
	push	ecx
	mov	DWORD PTR [ebp-4], -858993460		; ccccccccH
	mov	DWORD PTR _this$[ebp], ecx
	mov	eax, DWORD PTR ___that$[ebp]
	push	eax
	mov	ecx, DWORD PTR _this$[ebp]
	call	??4_Iterator_base12@std@@QAEAAU01@ABU01@@Z ; std::_Iterator_base12::operator=
	mov	eax, DWORD PTR _this$[ebp]
	add	esp, 4
	cmp	ebp, esp
	call	__RTC_CheckEsp
	mov	esp, ebp
	pop	ebp
	ret	4
??4?$_Iterator012@Ubidirectional_iterator_tag@std@@PAVAbstRaven_Bot@@HPBQAV3@ABQAV3@U_Iterator_base12@2@@std@@QAEAAU01@ABU01@@Z ENDP ; std::_Iterator012<std::bidirectional_iterator_tag,AbstRaven_Bot *,int,AbstRaven_Bot * const *,AbstRaven_Bot * const &,std::_Iterator_base12>::operator=
_TEXT	ENDS
PUBLIC	??0?$_List_iterator@V?$_List_val@PAVAbstRaven_Bot@@V?$allocator@PAVAbstRaven_Bot@@@std@@@std@@@std@@QAE@PAU_Node@?$_List_nod@PAVAbstRaven_Bot@@V?$allocator@PAVAbstRaven_Bot@@@std@@@1@PBV?$_List_val@PAVAbstRaven_Bot@@V?$allocator@PAVAbstRaven_Bot@@@std@@@1@@Z ; std::_List_iterator<std::_List_val<AbstRaven_Bot *,std::allocator<AbstRaven_Bot *> > >::_List_iterator<std::_List_val<AbstRaven_Bot *,std::allocator<AbstRaven_Bot *> > >
; Function compile flags: /Odtp /RTCsu
; File c:\program files (x86)\microsoft visual studio 10.0\vc\include\list
;	COMDAT ?begin@?$list@PAVAbstRaven_Bot@@V?$allocator@PAVAbstRaven_Bot@@@std@@@std@@QAE?AV?$_List_iterator@V?$_List_val@PAVAbstRaven_Bot@@V?$allocator@PAVAbstRaven_Bot@@@std@@@std@@@2@XZ
_TEXT	SEGMENT
$T146830 = -8						; size = 4
_this$ = -4						; size = 4
___$ReturnUdt$ = 8					; size = 4
?begin@?$list@PAVAbstRaven_Bot@@V?$allocator@PAVAbstRaven_Bot@@@std@@@std@@QAE?AV?$_List_iterator@V?$_List_val@PAVAbstRaven_Bot@@V?$allocator@PAVAbstRaven_Bot@@@std@@@std@@@2@XZ PROC ; std::list<AbstRaven_Bot *,std::allocator<AbstRaven_Bot *> >::begin, COMDAT
; _this$ = ecx

; 781  : 		{	// return iterator for beginning of mutable sequence

	push	ebp
	mov	ebp, esp
	sub	esp, 8
	mov	DWORD PTR [ebp-8], -858993460		; ccccccccH
	mov	DWORD PTR [ebp-4], -858993460		; ccccccccH
	mov	DWORD PTR _this$[ebp], ecx
	mov	DWORD PTR $T146830[ebp], 0

; 782  : 		return (iterator(this->_Nextnode(this->_Myhead), this));

	mov	eax, DWORD PTR _this$[ebp]
	push	eax
	mov	ecx, DWORD PTR _this$[ebp]
	mov	edx, DWORD PTR [ecx+4]
	push	edx
	call	?_Nextnode@?$_List_val@PAVAbstRaven_Bot@@V?$allocator@PAVAbstRaven_Bot@@@std@@@std@@SAAAPAU_Node@?$_List_nod@PAVAbstRaven_Bot@@V?$allocator@PAVAbstRaven_Bot@@@std@@@2@PAU342@@Z ; std::_List_val<AbstRaven_Bot *,std::allocator<AbstRaven_Bot *> >::_Nextnode
	add	esp, 4
	mov	eax, DWORD PTR [eax]
	push	eax
	mov	ecx, DWORD PTR ___$ReturnUdt$[ebp]
	call	??0?$_List_iterator@V?$_List_val@PAVAbstRaven_Bot@@V?$allocator@PAVAbstRaven_Bot@@@std@@@std@@@std@@QAE@PAU_Node@?$_List_nod@PAVAbstRaven_Bot@@V?$allocator@PAVAbstRaven_Bot@@@std@@@1@PBV?$_List_val@PAVAbstRaven_Bot@@V?$allocator@PAVAbstRaven_Bot@@@std@@@1@@Z ; std::_List_iterator<std::_List_val<AbstRaven_Bot *,std::allocator<AbstRaven_Bot *> > >::_List_iterator<std::_List_val<AbstRaven_Bot *,std::allocator<AbstRaven_Bot *> > >
	mov	ecx, DWORD PTR $T146830[ebp]
	or	ecx, 1
	mov	DWORD PTR $T146830[ebp], ecx
	mov	eax, DWORD PTR ___$ReturnUdt$[ebp]

; 783  : 		}

	add	esp, 8
	cmp	ebp, esp
	call	__RTC_CheckEsp
	mov	esp, ebp
	pop	ebp
	ret	4
?begin@?$list@PAVAbstRaven_Bot@@V?$allocator@PAVAbstRaven_Bot@@@std@@@std@@QAE?AV?$_List_iterator@V?$_List_val@PAVAbstRaven_Bot@@V?$allocator@PAVAbstRaven_Bot@@@std@@@std@@@2@XZ ENDP ; std::list<AbstRaven_Bot *,std::allocator<AbstRaven_Bot *> >::begin
; Function compile flags: /Odtp /RTCsu
_TEXT	ENDS
;	COMDAT ?end@?$list@PAVAbstRaven_Bot@@V?$allocator@PAVAbstRaven_Bot@@@std@@@std@@QAE?AV?$_List_iterator@V?$_List_val@PAVAbstRaven_Bot@@V?$allocator@PAVAbstRaven_Bot@@@std@@@std@@@2@XZ
_TEXT	SEGMENT
$T146835 = -8						; size = 4
_this$ = -4						; size = 4
___$ReturnUdt$ = 8					; size = 4
?end@?$list@PAVAbstRaven_Bot@@V?$allocator@PAVAbstRaven_Bot@@@std@@@std@@QAE?AV?$_List_iterator@V?$_List_val@PAVAbstRaven_Bot@@V?$allocator@PAVAbstRaven_Bot@@@std@@@std@@@2@XZ PROC ; std::list<AbstRaven_Bot *,std::allocator<AbstRaven_Bot *> >::end, COMDAT
; _this$ = ecx

; 791  : 		{	// return iterator for end of mutable sequence

	push	ebp
	mov	ebp, esp
	sub	esp, 8
	mov	DWORD PTR [ebp-8], -858993460		; ccccccccH
	mov	DWORD PTR [ebp-4], -858993460		; ccccccccH
	mov	DWORD PTR _this$[ebp], ecx
	mov	DWORD PTR $T146835[ebp], 0

; 792  : 		return (iterator(this->_Myhead, this));

	mov	eax, DWORD PTR _this$[ebp]
	push	eax
	mov	ecx, DWORD PTR _this$[ebp]
	mov	edx, DWORD PTR [ecx+4]
	push	edx
	mov	ecx, DWORD PTR ___$ReturnUdt$[ebp]
	call	??0?$_List_iterator@V?$_List_val@PAVAbstRaven_Bot@@V?$allocator@PAVAbstRaven_Bot@@@std@@@std@@@std@@QAE@PAU_Node@?$_List_nod@PAVAbstRaven_Bot@@V?$allocator@PAVAbstRaven_Bot@@@std@@@1@PBV?$_List_val@PAVAbstRaven_Bot@@V?$allocator@PAVAbstRaven_Bot@@@std@@@1@@Z ; std::_List_iterator<std::_List_val<AbstRaven_Bot *,std::allocator<AbstRaven_Bot *> > >::_List_iterator<std::_List_val<AbstRaven_Bot *,std::allocator<AbstRaven_Bot *> > >
	mov	eax, DWORD PTR $T146835[ebp]
	or	eax, 1
	mov	DWORD PTR $T146835[ebp], eax
	mov	eax, DWORD PTR ___$ReturnUdt$[ebp]

; 793  : 		}

	add	esp, 8
	cmp	ebp, esp
	call	__RTC_CheckEsp
	mov	esp, ebp
	pop	ebp
	ret	4
?end@?$list@PAVAbstRaven_Bot@@V?$allocator@PAVAbstRaven_Bot@@@std@@@std@@QAE?AV?$_List_iterator@V?$_List_val@PAVAbstRaven_Bot@@V?$allocator@PAVAbstRaven_Bot@@@std@@@std@@@2@XZ ENDP ; std::list<AbstRaven_Bot *,std::allocator<AbstRaven_Bot *> >::end
_TEXT	ENDS
PUBLIC	??3@YAXPAX0@Z					; operator delete
PUBLIC	??2@YAPAXIPAX@Z					; operator new
;	COMDAT xdata$x
; File c:\program files (x86)\microsoft visual studio 10.0\vc\include\xmemory
xdata$x	SEGMENT
__unwindtable$?construct@?$allocator@U_Container_proxy@std@@@std@@QAEXPAU_Container_proxy@2@$$QAU32@@Z DD 0ffffffffH
	DD	FLAT:__unwindfunclet$?construct@?$allocator@U_Container_proxy@std@@@std@@QAEXPAU_Container_proxy@2@$$QAU32@@Z$0
__ehfuncinfo$?construct@?$allocator@U_Container_proxy@std@@@std@@QAEXPAU_Container_proxy@2@$$QAU32@@Z DD 019930522H
	DD	01H
	DD	FLAT:__unwindtable$?construct@?$allocator@U_Container_proxy@std@@@std@@QAEXPAU_Container_proxy@2@$$QAU32@@Z
	DD	2 DUP(00H)
	DD	2 DUP(00H)
	DD	00H
	DD	01H
; Function compile flags: /Odtp /RTCsu
xdata$x	ENDS
;	COMDAT ?construct@?$allocator@U_Container_proxy@std@@@std@@QAEXPAU_Container_proxy@2@$$QAU32@@Z
_TEXT	SEGMENT
tv74 = -28						; size = 4
$T146840 = -24						; size = 4
$T146839 = -20						; size = 4
_this$ = -16						; size = 4
__$EHRec$ = -12						; size = 12
__Ptr$ = 8						; size = 4
__Val$ = 12						; size = 4
?construct@?$allocator@U_Container_proxy@std@@@std@@QAEXPAU_Container_proxy@2@$$QAU32@@Z PROC ; std::allocator<std::_Container_proxy>::construct, COMDAT
; _this$ = ecx

; 201  : 		{	// construct object at _Ptr with value _Val

	push	ebp
	mov	ebp, esp
	push	-1
	push	__ehhandler$?construct@?$allocator@U_Container_proxy@std@@@std@@QAEXPAU_Container_proxy@2@$$QAU32@@Z
	mov	eax, DWORD PTR fs:0
	push	eax
	sub	esp, 16					; 00000010H
	mov	eax, -858993460				; ccccccccH
	mov	DWORD PTR [ebp-28], eax
	mov	DWORD PTR [ebp-24], eax
	mov	DWORD PTR [ebp-20], eax
	mov	DWORD PTR [ebp-16], eax
	mov	eax, DWORD PTR ___security_cookie
	xor	eax, ebp
	push	eax
	lea	eax, DWORD PTR __$EHRec$[ebp]
	mov	DWORD PTR fs:0, eax
	mov	DWORD PTR _this$[ebp], ecx

; 202  : 		::new ((void _FARQ *)_Ptr) _Ty(_STD forward<_Ty>(_Val));

	mov	eax, DWORD PTR __Ptr$[ebp]
	push	eax
	push	8
	call	??2@YAPAXIPAX@Z				; operator new
	add	esp, 8
	mov	DWORD PTR $T146840[ebp], eax
	mov	DWORD PTR __$EHRec$[ebp+8], 0
	cmp	DWORD PTR $T146840[ebp], 0
	je	SHORT $LN3@construct
	mov	ecx, DWORD PTR __Val$[ebp]
	push	ecx
	call	??$forward@U_Container_proxy@std@@@std@@YA$$QAU_Container_proxy@0@AAU10@@Z ; std::forward<std::_Container_proxy>
	add	esp, 4
	mov	edx, DWORD PTR [eax]
	mov	eax, DWORD PTR [eax+4]
	mov	ecx, DWORD PTR $T146840[ebp]
	mov	DWORD PTR [ecx], edx
	mov	DWORD PTR [ecx+4], eax
	mov	edx, DWORD PTR $T146840[ebp]
	mov	DWORD PTR tv74[ebp], edx
	jmp	SHORT $LN4@construct
$LN3@construct:
	mov	DWORD PTR tv74[ebp], 0
$LN4@construct:
	mov	eax, DWORD PTR tv74[ebp]
	mov	DWORD PTR $T146839[ebp], eax
	mov	DWORD PTR __$EHRec$[ebp+8], -1

; 203  : 		}

	mov	ecx, DWORD PTR __$EHRec$[ebp]
	mov	DWORD PTR fs:0, ecx
	pop	ecx
	add	esp, 28					; 0000001cH
	cmp	ebp, esp
	call	__RTC_CheckEsp
	mov	esp, ebp
	pop	ebp
	ret	8
_TEXT	ENDS
;	COMDAT text$x
text$x	SEGMENT
__unwindfunclet$?construct@?$allocator@U_Container_proxy@std@@@std@@QAEXPAU_Container_proxy@2@$$QAU32@@Z$0:
	mov	eax, DWORD PTR __Ptr$[ebp]
	push	eax
	mov	ecx, DWORD PTR $T146840[ebp]
	push	ecx
	call	??3@YAXPAX0@Z				; operator delete
	add	esp, 8
	ret	0
__ehhandler$?construct@?$allocator@U_Container_proxy@std@@@std@@QAEXPAU_Container_proxy@2@$$QAU32@@Z:
	mov	edx, DWORD PTR [esp+8]
	lea	eax, DWORD PTR [edx+12]
	mov	ecx, DWORD PTR [edx-20]
	xor	ecx, eax
	call	@__security_check_cookie@4
	mov	eax, OFFSET __ehfuncinfo$?construct@?$allocator@U_Container_proxy@std@@@std@@QAEXPAU_Container_proxy@2@$$QAU32@@Z
	jmp	___CxxFrameHandler3
text$x	ENDS
?construct@?$allocator@U_Container_proxy@std@@@std@@QAEXPAU_Container_proxy@2@$$QAU32@@Z ENDP ; std::allocator<std::_Container_proxy>::construct
; Function compile flags: /Odtp /RTCsu
; File c:\program files (x86)\microsoft visual studio 10.0\vc\include\new
;	COMDAT ??2@YAPAXIPAX@Z
_TEXT	SEGMENT
___formal$ = 8						; size = 4
__Where$ = 12						; size = 4
??2@YAPAXIPAX@Z PROC					; operator new, COMDAT

; 56   : 	{	// construct array with placement at _Where

	push	ebp
	mov	ebp, esp

; 57   : 	return (_Where);

	mov	eax, DWORD PTR __Where$[ebp]

; 58   : 	}

	pop	ebp
	ret	0
??2@YAPAXIPAX@Z ENDP					; operator new
; Function compile flags: /Odtp /RTCsu
_TEXT	ENDS
;	COMDAT ??3@YAXPAX0@Z
_TEXT	SEGMENT
___formal$ = 8						; size = 4
___formal$ = 12						; size = 4
??3@YAXPAX0@Z PROC					; operator delete, COMDAT

; 61   : 	{	// delete if placement new fails

	push	ebp
	mov	ebp, esp

; 62   : 	}

	pop	ebp
	ret	0
??3@YAXPAX0@Z ENDP					; operator delete
_TEXT	ENDS
PUBLIC	??$_Destroy@U_Container_proxy@std@@@std@@YAXPAU_Container_proxy@0@@Z ; std::_Destroy<std::_Container_proxy>
; Function compile flags: /Odtp /RTCsu
; File c:\program files (x86)\microsoft visual studio 10.0\vc\include\xmemory
;	COMDAT ?destroy@?$allocator@U_Container_proxy@std@@@std@@QAEXPAU_Container_proxy@2@@Z
_TEXT	SEGMENT
_this$ = -4						; size = 4
__Ptr$ = 8						; size = 4
?destroy@?$allocator@U_Container_proxy@std@@@std@@QAEXPAU_Container_proxy@2@@Z PROC ; std::allocator<std::_Container_proxy>::destroy, COMDAT
; _this$ = ecx

; 212  : 		{	// destroy object at _Ptr

	push	ebp
	mov	ebp, esp
	push	ecx
	mov	DWORD PTR [ebp-4], -858993460		; ccccccccH
	mov	DWORD PTR _this$[ebp], ecx

; 213  : 		_Destroy(_Ptr);

	mov	eax, DWORD PTR __Ptr$[ebp]
	push	eax
	call	??$_Destroy@U_Container_proxy@std@@@std@@YAXPAU_Container_proxy@0@@Z ; std::_Destroy<std::_Container_proxy>
	add	esp, 4

; 214  : 		}

	add	esp, 4
	cmp	ebp, esp
	call	__RTC_CheckEsp
	mov	esp, ebp
	pop	ebp
	ret	4
?destroy@?$allocator@U_Container_proxy@std@@@std@@QAEXPAU_Container_proxy@2@@Z ENDP ; std::allocator<std::_Container_proxy>::destroy
_TEXT	ENDS
PUBLIC	??0?$_List_const_iterator@V?$_List_val@PAVAbstRaven_Bot@@V?$allocator@PAVAbstRaven_Bot@@@std@@@std@@@std@@QAE@XZ ; std::_List_const_iterator<std::_List_val<AbstRaven_Bot *,std::allocator<AbstRaven_Bot *> > >::_List_const_iterator<std::_List_val<AbstRaven_Bot *,std::allocator<AbstRaven_Bot *> > >
; Function compile flags: /Odtp /RTCsu
; File c:\program files (x86)\microsoft visual studio 10.0\vc\include\list
;	COMDAT ??0?$_List_iterator@V?$_List_val@PAVAbstRaven_Bot@@V?$allocator@PAVAbstRaven_Bot@@@std@@@std@@@std@@QAE@XZ
_TEXT	SEGMENT
_this$ = -4						; size = 4
??0?$_List_iterator@V?$_List_val@PAVAbstRaven_Bot@@V?$allocator@PAVAbstRaven_Bot@@@std@@@std@@@std@@QAE@XZ PROC ; std::_List_iterator<std::_List_val<AbstRaven_Bot *,std::allocator<AbstRaven_Bot *> > >::_List_iterator<std::_List_val<AbstRaven_Bot *,std::allocator<AbstRaven_Bot *> > >, COMDAT
; _this$ = ecx

; 336  : 	_List_iterator()

	push	ebp
	mov	ebp, esp
	push	ecx
	mov	DWORD PTR [ebp-4], -858993460		; ccccccccH
	mov	DWORD PTR _this$[ebp], ecx
	mov	ecx, DWORD PTR _this$[ebp]
	call	??0?$_List_const_iterator@V?$_List_val@PAVAbstRaven_Bot@@V?$allocator@PAVAbstRaven_Bot@@@std@@@std@@@std@@QAE@XZ ; std::_List_const_iterator<std::_List_val<AbstRaven_Bot *,std::allocator<AbstRaven_Bot *> > >::_List_const_iterator<std::_List_val<AbstRaven_Bot *,std::allocator<AbstRaven_Bot *> > >

; 337  : 		{	// construct with null node
; 338  : 		}

	mov	eax, DWORD PTR _this$[ebp]
	add	esp, 4
	cmp	ebp, esp
	call	__RTC_CheckEsp
	mov	esp, ebp
	pop	ebp
	ret	0
??0?$_List_iterator@V?$_List_val@PAVAbstRaven_Bot@@V?$allocator@PAVAbstRaven_Bot@@@std@@@std@@@std@@QAE@XZ ENDP ; std::_List_iterator<std::_List_val<AbstRaven_Bot *,std::allocator<AbstRaven_Bot *> > >::_List_iterator<std::_List_val<AbstRaven_Bot *,std::allocator<AbstRaven_Bot *> > >
; Function compile flags: /Odtp /RTCsu
_TEXT	ENDS
;	COMDAT ??D?$_List_iterator@V?$_List_val@PAVAbstRaven_Bot@@V?$allocator@PAVAbstRaven_Bot@@@std@@@std@@@std@@QBEAAPAVAbstRaven_Bot@@XZ
_TEXT	SEGMENT
_this$ = -4						; size = 4
??D?$_List_iterator@V?$_List_val@PAVAbstRaven_Bot@@V?$allocator@PAVAbstRaven_Bot@@@std@@@std@@@std@@QBEAAPAVAbstRaven_Bot@@XZ PROC ; std::_List_iterator<std::_List_val<AbstRaven_Bot *,std::allocator<AbstRaven_Bot *> > >::operator*, COMDAT
; _this$ = ecx

; 359  : 		{	// return designated value

	push	ebp
	mov	ebp, esp
	push	ecx
	mov	DWORD PTR [ebp-4], -858993460		; ccccccccH
	mov	DWORD PTR _this$[ebp], ecx

; 360  : 		return ((reference)**(_Mybase *)this);

	mov	ecx, DWORD PTR _this$[ebp]
	call	??D?$_List_const_iterator@V?$_List_val@PAVAbstRaven_Bot@@V?$allocator@PAVAbstRaven_Bot@@@std@@@std@@@std@@QBEABQAVAbstRaven_Bot@@XZ ; std::_List_const_iterator<std::_List_val<AbstRaven_Bot *,std::allocator<AbstRaven_Bot *> > >::operator*

; 361  : 		}

	add	esp, 4
	cmp	ebp, esp
	call	__RTC_CheckEsp
	mov	esp, ebp
	pop	ebp
	ret	0
??D?$_List_iterator@V?$_List_val@PAVAbstRaven_Bot@@V?$allocator@PAVAbstRaven_Bot@@@std@@@std@@@std@@QBEAAPAVAbstRaven_Bot@@XZ ENDP ; std::_List_iterator<std::_List_val<AbstRaven_Bot *,std::allocator<AbstRaven_Bot *> > >::operator*
; Function compile flags: /Odtp /RTCsu
_TEXT	ENDS
;	COMDAT ??E?$_List_iterator@V?$_List_val@PAVAbstRaven_Bot@@V?$allocator@PAVAbstRaven_Bot@@@std@@@std@@@std@@QAEAAV01@XZ
_TEXT	SEGMENT
_this$ = -4						; size = 4
??E?$_List_iterator@V?$_List_val@PAVAbstRaven_Bot@@V?$allocator@PAVAbstRaven_Bot@@@std@@@std@@@std@@QAEAAV01@XZ PROC ; std::_List_iterator<std::_List_val<AbstRaven_Bot *,std::allocator<AbstRaven_Bot *> > >::operator++, COMDAT
; _this$ = ecx

; 369  : 		{	// preincrement

	push	ebp
	mov	ebp, esp
	push	ecx
	mov	DWORD PTR [ebp-4], -858993460		; ccccccccH
	mov	DWORD PTR _this$[ebp], ecx

; 370  : 		++(*(_Mybase *)this);

	mov	ecx, DWORD PTR _this$[ebp]
	call	??E?$_List_const_iterator@V?$_List_val@PAVAbstRaven_Bot@@V?$allocator@PAVAbstRaven_Bot@@@std@@@std@@@std@@QAEAAV01@XZ ; std::_List_const_iterator<std::_List_val<AbstRaven_Bot *,std::allocator<AbstRaven_Bot *> > >::operator++

; 371  : 		return (*this);

	mov	eax, DWORD PTR _this$[ebp]

; 372  : 		}

	add	esp, 4
	cmp	ebp, esp
	call	__RTC_CheckEsp
	mov	esp, ebp
	pop	ebp
	ret	0
??E?$_List_iterator@V?$_List_val@PAVAbstRaven_Bot@@V?$allocator@PAVAbstRaven_Bot@@@std@@@std@@@std@@QAEAAV01@XZ ENDP ; std::_List_iterator<std::_List_val<AbstRaven_Bot *,std::allocator<AbstRaven_Bot *> > >::operator++
_TEXT	ENDS
PUBLIC	??0?$_List_unchecked_const_iterator@V?$_List_val@PAVAbstRaven_Bot@@V?$allocator@PAVAbstRaven_Bot@@@std@@@std@@U_Iterator_base12@2@@std@@QAE@XZ ; std::_List_unchecked_const_iterator<std::_List_val<AbstRaven_Bot *,std::allocator<AbstRaven_Bot *> >,std::_Iterator_base12>::_List_unchecked_const_iterator<std::_List_val<AbstRaven_Bot *,std::allocator<AbstRaven_Bot *> >,std::_Iterator_base12>
; Function compile flags: /Odtp /RTCsu
;	COMDAT ??0?$_List_const_iterator@V?$_List_val@PAVAbstRaven_Bot@@V?$allocator@PAVAbstRaven_Bot@@@std@@@std@@@std@@QAE@XZ
_TEXT	SEGMENT
_this$ = -4						; size = 4
??0?$_List_const_iterator@V?$_List_val@PAVAbstRaven_Bot@@V?$allocator@PAVAbstRaven_Bot@@@std@@@std@@@std@@QAE@XZ PROC ; std::_List_const_iterator<std::_List_val<AbstRaven_Bot *,std::allocator<AbstRaven_Bot *> > >::_List_const_iterator<std::_List_val<AbstRaven_Bot *,std::allocator<AbstRaven_Bot *> > >, COMDAT
; _this$ = ecx

; 179  : 		{	// construct with null node pointer

	push	ebp
	mov	ebp, esp
	push	ecx
	mov	DWORD PTR [ebp-4], -858993460		; ccccccccH
	mov	DWORD PTR _this$[ebp], ecx
	mov	ecx, DWORD PTR _this$[ebp]
	call	??0?$_List_unchecked_const_iterator@V?$_List_val@PAVAbstRaven_Bot@@V?$allocator@PAVAbstRaven_Bot@@@std@@@std@@U_Iterator_base12@2@@std@@QAE@XZ ; std::_List_unchecked_const_iterator<std::_List_val<AbstRaven_Bot *,std::allocator<AbstRaven_Bot *> >,std::_Iterator_base12>::_List_unchecked_const_iterator<std::_List_val<AbstRaven_Bot *,std::allocator<AbstRaven_Bot *> >,std::_Iterator_base12>

; 180  : 		}

	mov	eax, DWORD PTR _this$[ebp]
	add	esp, 4
	cmp	ebp, esp
	call	__RTC_CheckEsp
	mov	esp, ebp
	pop	ebp
	ret	0
??0?$_List_const_iterator@V?$_List_val@PAVAbstRaven_Bot@@V?$allocator@PAVAbstRaven_Bot@@@std@@@std@@@std@@QAE@XZ ENDP ; std::_List_const_iterator<std::_List_val<AbstRaven_Bot *,std::allocator<AbstRaven_Bot *> > >::_List_const_iterator<std::_List_val<AbstRaven_Bot *,std::allocator<AbstRaven_Bot *> > >
; Function compile flags: /Odtp /RTCsu
_TEXT	ENDS
;	COMDAT ??0?$_List_iterator@V?$_List_val@PAVAbstRaven_Bot@@V?$allocator@PAVAbstRaven_Bot@@@std@@@std@@@std@@QAE@PAU_Node@?$_List_nod@PAVAbstRaven_Bot@@V?$allocator@PAVAbstRaven_Bot@@@std@@@1@PBV?$_List_val@PAVAbstRaven_Bot@@V?$allocator@PAVAbstRaven_Bot@@@std@@@1@@Z
_TEXT	SEGMENT
_this$ = -4						; size = 4
__Pnode$ = 8						; size = 4
__Plist$ = 12						; size = 4
??0?$_List_iterator@V?$_List_val@PAVAbstRaven_Bot@@V?$allocator@PAVAbstRaven_Bot@@@std@@@std@@@std@@QAE@PAU_Node@?$_List_nod@PAVAbstRaven_Bot@@V?$allocator@PAVAbstRaven_Bot@@@std@@@1@PBV?$_List_val@PAVAbstRaven_Bot@@V?$allocator@PAVAbstRaven_Bot@@@std@@@1@@Z PROC ; std::_List_iterator<std::_List_val<AbstRaven_Bot *,std::allocator<AbstRaven_Bot *> > >::_List_iterator<std::_List_val<AbstRaven_Bot *,std::allocator<AbstRaven_Bot *> > >, COMDAT
; _this$ = ecx

; 342  : 		{	// construct with node pointer _Pnode

	push	ebp
	mov	ebp, esp
	push	ecx
	mov	DWORD PTR [ebp-4], -858993460		; ccccccccH
	mov	DWORD PTR _this$[ebp], ecx
	mov	eax, DWORD PTR __Plist$[ebp]
	push	eax
	mov	ecx, DWORD PTR __Pnode$[ebp]
	push	ecx
	mov	ecx, DWORD PTR _this$[ebp]
	call	??0?$_List_const_iterator@V?$_List_val@PAVAbstRaven_Bot@@V?$allocator@PAVAbstRaven_Bot@@@std@@@std@@@std@@QAE@PAU_Node@?$_List_nod@PAVAbstRaven_Bot@@V?$allocator@PAVAbstRaven_Bot@@@std@@@1@PBV?$_List_val@PAVAbstRaven_Bot@@V?$allocator@PAVAbstRaven_Bot@@@std@@@1@@Z ; std::_List_const_iterator<std::_List_val<AbstRaven_Bot *,std::allocator<AbstRaven_Bot *> > >::_List_const_iterator<std::_List_val<AbstRaven_Bot *,std::allocator<AbstRaven_Bot *> > >

; 343  : 		}

	mov	eax, DWORD PTR _this$[ebp]
	add	esp, 4
	cmp	ebp, esp
	call	__RTC_CheckEsp
	mov	esp, ebp
	pop	ebp
	ret	8
??0?$_List_iterator@V?$_List_val@PAVAbstRaven_Bot@@V?$allocator@PAVAbstRaven_Bot@@@std@@@std@@@std@@QAE@PAU_Node@?$_List_nod@PAVAbstRaven_Bot@@V?$allocator@PAVAbstRaven_Bot@@@std@@@1@PBV?$_List_val@PAVAbstRaven_Bot@@V?$allocator@PAVAbstRaven_Bot@@@std@@@1@@Z ENDP ; std::_List_iterator<std::_List_val<AbstRaven_Bot *,std::allocator<AbstRaven_Bot *> > >::_List_iterator<std::_List_val<AbstRaven_Bot *,std::allocator<AbstRaven_Bot *> > >
; Function compile flags: /Odtp /RTCsu
_TEXT	ENDS
;	COMDAT ??0?$_List_unchecked_const_iterator@V?$_List_val@PAVAbstRaven_Bot@@V?$allocator@PAVAbstRaven_Bot@@@std@@@std@@U_Iterator_base12@2@@std@@QAE@XZ
_TEXT	SEGMENT
_this$ = -4						; size = 4
??0?$_List_unchecked_const_iterator@V?$_List_val@PAVAbstRaven_Bot@@V?$allocator@PAVAbstRaven_Bot@@@std@@@std@@U_Iterator_base12@2@@std@@QAE@XZ PROC ; std::_List_unchecked_const_iterator<std::_List_val<AbstRaven_Bot *,std::allocator<AbstRaven_Bot *> >,std::_Iterator_base12>::_List_unchecked_const_iterator<std::_List_val<AbstRaven_Bot *,std::allocator<AbstRaven_Bot *> >,std::_Iterator_base12>, COMDAT
; _this$ = ecx

; 36   : 		{	// construct with null node pointer

	push	ebp
	mov	ebp, esp
	push	ecx
	mov	DWORD PTR [ebp-4], -858993460		; ccccccccH
	mov	DWORD PTR _this$[ebp], ecx
	mov	ecx, DWORD PTR _this$[ebp]
	call	??0?$_Iterator012@Ubidirectional_iterator_tag@std@@PAVAbstRaven_Bot@@HPBQAV3@ABQAV3@U_Iterator_base12@2@@std@@QAE@XZ
	mov	eax, DWORD PTR _this$[ebp]
	mov	DWORD PTR [eax+8], 0

; 37   : 		}

	mov	eax, DWORD PTR _this$[ebp]
	add	esp, 4
	cmp	ebp, esp
	call	__RTC_CheckEsp
	mov	esp, ebp
	pop	ebp
	ret	0
??0?$_List_unchecked_const_iterator@V?$_List_val@PAVAbstRaven_Bot@@V?$allocator@PAVAbstRaven_Bot@@@std@@@std@@U_Iterator_base12@2@@std@@QAE@XZ ENDP ; std::_List_unchecked_const_iterator<std::_List_val<AbstRaven_Bot *,std::allocator<AbstRaven_Bot *> >,std::_Iterator_base12>::_List_unchecked_const_iterator<std::_List_val<AbstRaven_Bot *,std::allocator<AbstRaven_Bot *> >,std::_Iterator_base12>
; Function compile flags: /Odtp /RTCsu
; File c:\program files (x86)\microsoft visual studio 10.0\vc\include\utility
_TEXT	ENDS
;	COMDAT ??$forward@U_Container_proxy@std@@@std@@YA$$QAU_Container_proxy@0@AAU10@@Z
_TEXT	SEGMENT
__Arg$ = 8						; size = 4
??$forward@U_Container_proxy@std@@@std@@YA$$QAU_Container_proxy@0@AAU10@@Z PROC ; std::forward<std::_Container_proxy>, COMDAT

; 78   : 	{	// forward _Arg, given explicitly specified type parameter

	push	ebp
	mov	ebp, esp

; 79   : 	return ((_Ty&&)_Arg);

	mov	eax, DWORD PTR __Arg$[ebp]

; 80   : 	}

	pop	ebp
	ret	0
??$forward@U_Container_proxy@std@@@std@@YA$$QAU_Container_proxy@0@AAU10@@Z ENDP ; std::forward<std::_Container_proxy>
; Function compile flags: /Odtp /RTCsu
; File c:\program files (x86)\microsoft visual studio 10.0\vc\include\xutility
_TEXT	ENDS
;	COMDAT ??$_Val_type@PAUVector2D@@@std@@YAPAUVector2D@@PAU1@@Z
_TEXT	SEGMENT
___formal$ = 8						; size = 4
??$_Val_type@PAUVector2D@@@std@@YAPAUVector2D@@PAU1@@Z PROC ; std::_Val_type<Vector2D *>, COMDAT

; 801  : 	{	// return value type from arbitrary argument

	push	ebp
	mov	ebp, esp

; 802  : 	return (0);

	xor	eax, eax

; 803  : 	}

	pop	ebp
	ret	0
??$_Val_type@PAUVector2D@@@std@@YAPAUVector2D@@PAU1@@Z ENDP ; std::_Val_type<Vector2D *>
; Function compile flags: /Odtp /RTCsu
_TEXT	ENDS
;	COMDAT ??$_Ptr_cat@UVector2D@@U1@@std@@YA?AU_Nonscalar_ptr_iterator_tag@0@PAUVector2D@@0@Z
_TEXT	SEGMENT
__Cat$ = -5						; size = 1
___formal$ = 8						; size = 4
___formal$ = 12						; size = 4
??$_Ptr_cat@UVector2D@@U1@@std@@YA?AU_Nonscalar_ptr_iterator_tag@0@PAUVector2D@@0@Z PROC ; std::_Ptr_cat<Vector2D,Vector2D>, COMDAT

; 528  : 	{	// return pointer category from pointers

	push	ebp
	mov	ebp, esp
	sub	esp, 12					; 0000000cH
	mov	DWORD PTR [ebp-12], -858993460		; ccccccccH
	mov	DWORD PTR [ebp-8], -858993460		; ccccccccH
	mov	DWORD PTR [ebp-4], -858993460		; ccccccccH

; 529  : 	typename _Ptr_cat_helper<_Elem1, _Elem2>::_Type _Cat;
; 530  : 	return (_Cat);

	mov	al, BYTE PTR __Cat$[ebp]

; 531  : 	}

	push	edx
	mov	ecx, ebp
	push	eax
	lea	edx, DWORD PTR $LN5@Ptr_cat
	call	@_RTC_CheckStackVars@8
	pop	eax
	pop	edx
	mov	esp, ebp
	pop	ebp
	ret	0
	npad	1
$LN5@Ptr_cat:
	DD	1
	DD	$LN4@Ptr_cat
$LN4@Ptr_cat:
	DD	-5					; fffffffbH
	DD	1
	DD	$LN3@Ptr_cat
$LN3@Ptr_cat:
	DB	95					; 0000005fH
	DB	67					; 00000043H
	DB	97					; 00000061H
	DB	116					; 00000074H
	DB	0
??$_Ptr_cat@UVector2D@@U1@@std@@YA?AU_Nonscalar_ptr_iterator_tag@0@PAUVector2D@@0@Z ENDP ; std::_Ptr_cat<Vector2D,Vector2D>
_TEXT	ENDS
PUBLIC	??$_Dest_val@V?$allocator@UVector2D@@@std@@UVector2D@@@std@@YAXAAV?$allocator@UVector2D@@@0@PAUVector2D@@@Z ; std::_Dest_val<std::allocator<Vector2D>,Vector2D>
PUBLIC	??$_Cons_val@V?$allocator@UVector2D@@@std@@UVector2D@@U3@@std@@YAXAAV?$allocator@UVector2D@@@0@PAUVector2D@@$$QAU2@@Z ; std::_Cons_val<std::allocator<Vector2D>,Vector2D,Vector2D>
;	COMDAT xdata$x
; File c:\program files (x86)\microsoft visual studio 10.0\vc\include\memory
xdata$x	SEGMENT
__catchsym$??$_Uninit_def_fill_n@PAUVector2D@@IU1@V?$allocator@UVector2D@@@std@@U1@@std@@YAXPAUVector2D@@IPBU1@AAV?$allocator@UVector2D@@@0@0U_Nonscalar_ptr_iterator_tag@0@@Z$2 DD 040H
	DD	00H
	DD	00H
	DD	FLAT:__catch$??$_Uninit_def_fill_n@PAUVector2D@@IU1@V?$allocator@UVector2D@@@std@@U1@@std@@YAXPAUVector2D@@IPBU1@AAV?$allocator@UVector2D@@@0@0U_Nonscalar_ptr_iterator_tag@0@@Z$0
__unwindtable$??$_Uninit_def_fill_n@PAUVector2D@@IU1@V?$allocator@UVector2D@@@std@@U1@@std@@YAXPAUVector2D@@IPBU1@AAV?$allocator@UVector2D@@@0@0U_Nonscalar_ptr_iterator_tag@0@@Z DD 0ffffffffH
	DD	00H
	DD	0ffffffffH
	DD	00H
__tryblocktable$??$_Uninit_def_fill_n@PAUVector2D@@IU1@V?$allocator@UVector2D@@@std@@U1@@std@@YAXPAUVector2D@@IPBU1@AAV?$allocator@UVector2D@@@0@0U_Nonscalar_ptr_iterator_tag@0@@Z DD 00H
	DD	00H
	DD	01H
	DD	01H
	DD	FLAT:__catchsym$??$_Uninit_def_fill_n@PAUVector2D@@IU1@V?$allocator@UVector2D@@@std@@U1@@std@@YAXPAUVector2D@@IPBU1@AAV?$allocator@UVector2D@@@0@0U_Nonscalar_ptr_iterator_tag@0@@Z$2
__ehfuncinfo$??$_Uninit_def_fill_n@PAUVector2D@@IU1@V?$allocator@UVector2D@@@std@@U1@@std@@YAXPAUVector2D@@IPBU1@AAV?$allocator@UVector2D@@@0@0U_Nonscalar_ptr_iterator_tag@0@@Z DD 019930522H
	DD	02H
	DD	FLAT:__unwindtable$??$_Uninit_def_fill_n@PAUVector2D@@IU1@V?$allocator@UVector2D@@@std@@U1@@std@@YAXPAUVector2D@@IPBU1@AAV?$allocator@UVector2D@@@0@0U_Nonscalar_ptr_iterator_tag@0@@Z
	DD	01H
	DD	FLAT:__tryblocktable$??$_Uninit_def_fill_n@PAUVector2D@@IU1@V?$allocator@UVector2D@@@std@@U1@@std@@YAXPAUVector2D@@IPBU1@AAV?$allocator@UVector2D@@@0@0U_Nonscalar_ptr_iterator_tag@0@@Z
	DD	2 DUP(00H)
	DD	00H
	DD	01H
; Function compile flags: /Odtp /RTCsu
xdata$x	ENDS
;	COMDAT ??$_Uninit_def_fill_n@PAUVector2D@@IU1@V?$allocator@UVector2D@@@std@@U1@@std@@YAXPAUVector2D@@IPBU1@AAV?$allocator@UVector2D@@@0@0U_Nonscalar_ptr_iterator_tag@0@@Z
_TEXT	SEGMENT
tv79 = -40						; size = 4
$T146883 = -36						; size = 16
__Next$ = -20						; size = 4
__$EHRec$ = -16						; size = 16
__First$ = 8						; size = 4
__Count$ = 12						; size = 4
___formal$ = 16						; size = 4
__Al$ = 20						; size = 4
___formal$ = 24						; size = 4
___formal$ = 28						; size = 1
??$_Uninit_def_fill_n@PAUVector2D@@IU1@V?$allocator@UVector2D@@@std@@U1@@std@@YAXPAUVector2D@@IPBU1@AAV?$allocator@UVector2D@@@0@0U_Nonscalar_ptr_iterator_tag@0@@Z PROC ; std::_Uninit_def_fill_n<Vector2D *,unsigned int,Vector2D,std::allocator<Vector2D>,Vector2D>, COMDAT

; 620  : 	{	// copy _Count * _Valty() to raw _First, using _Al, arbitrary type

	push	ebp
	mov	ebp, esp
	push	-1
	push	__ehhandler$??$_Uninit_def_fill_n@PAUVector2D@@IU1@V?$allocator@UVector2D@@@std@@U1@@std@@YAXPAUVector2D@@IPBU1@AAV?$allocator@UVector2D@@@0@0U_Nonscalar_ptr_iterator_tag@0@@Z
	mov	eax, DWORD PTR fs:0
	push	eax
	push	ecx
	sub	esp, 24					; 00000018H
	push	ebx
	push	esi
	push	edi
	mov	eax, -858993460				; ccccccccH
	mov	DWORD PTR [ebp-40], eax
	mov	DWORD PTR [ebp-36], eax
	mov	DWORD PTR [ebp-32], eax
	mov	DWORD PTR [ebp-28], eax
	mov	DWORD PTR [ebp-24], eax
	mov	DWORD PTR [ebp-20], eax
	mov	eax, DWORD PTR ___security_cookie
	xor	eax, ebp
	push	eax
	lea	eax, DWORD PTR __$EHRec$[ebp+4]
	mov	DWORD PTR fs:0, eax
	mov	DWORD PTR __$EHRec$[ebp], esp

; 621  :  #if _ITERATOR_DEBUG_LEVEL == 2
; 622  : //	if (_Count < 0)
; 623  : //		_DEBUG_ERROR("negative count in uninitialized fill");
; 624  :  #endif /* _ITERATOR_DEBUG_LEVEL == 2 */
; 625  : 
; 626  : 	_FwdIt _Next = _First;

	mov	eax, DWORD PTR __First$[ebp]
	mov	DWORD PTR __Next$[ebp], eax

; 627  : 
; 628  : 	_TRY_BEGIN

	mov	DWORD PTR __$EHRec$[ebp+12], 0

; 629  : 	for (; 0 < _Count; --_Count, ++_First)

	jmp	SHORT $LN6@Uninit_def
$LN5@Uninit_def:
	mov	ecx, DWORD PTR __Count$[ebp]
	sub	ecx, 1
	mov	DWORD PTR __Count$[ebp], ecx
	mov	edx, DWORD PTR __First$[ebp]
	add	edx, 16					; 00000010H
	mov	DWORD PTR __First$[ebp], edx
$LN6@Uninit_def:
	cmp	DWORD PTR __Count$[ebp], 0
	jbe	SHORT $LN4@Uninit_def

; 630  : 
; 631  : 		_Cons_val(_Al, _First, _Valty());

	lea	ecx, DWORD PTR $T146883[ebp]
	call	??0Vector2D@@QAE@XZ			; Vector2D::Vector2D
	mov	DWORD PTR tv79[ebp], eax
	mov	eax, DWORD PTR tv79[ebp]
	push	eax
	mov	ecx, DWORD PTR __First$[ebp]
	push	ecx
	mov	edx, DWORD PTR __Al$[ebp]
	push	edx
	call	??$_Cons_val@V?$allocator@UVector2D@@@std@@UVector2D@@U3@@std@@YAXAAV?$allocator@UVector2D@@@0@PAUVector2D@@$$QAU2@@Z ; std::_Cons_val<std::allocator<Vector2D>,Vector2D,Vector2D>
	add	esp, 12					; 0000000cH
	jmp	SHORT $LN5@Uninit_def
$LN4@Uninit_def:
	jmp	SHORT $LN10@Uninit_def
__catch$??$_Uninit_def_fill_n@PAUVector2D@@IU1@V?$allocator@UVector2D@@@std@@U1@@std@@YAXPAUVector2D@@IPBU1@AAV?$allocator@UVector2D@@@0@0U_Nonscalar_ptr_iterator_tag@0@@Z$0:

; 632  : 
; 633  : 	_CATCH_ALL
; 634  : 	for (; _Next != _First; ++_Next)

	jmp	SHORT $LN3@Uninit_def
$LN2@Uninit_def:
	mov	eax, DWORD PTR __Next$[ebp]
	add	eax, 16					; 00000010H
	mov	DWORD PTR __Next$[ebp], eax
$LN3@Uninit_def:
	mov	ecx, DWORD PTR __Next$[ebp]
	cmp	ecx, DWORD PTR __First$[ebp]
	je	SHORT $LN1@Uninit_def

; 635  : 		_Dest_val(_Al, _Next);

	mov	edx, DWORD PTR __Next$[ebp]
	push	edx
	mov	eax, DWORD PTR __Al$[ebp]
	push	eax
	call	??$_Dest_val@V?$allocator@UVector2D@@@std@@UVector2D@@@std@@YAXAAV?$allocator@UVector2D@@@0@PAUVector2D@@@Z ; std::_Dest_val<std::allocator<Vector2D>,Vector2D>
	add	esp, 8
	jmp	SHORT $LN2@Uninit_def
$LN1@Uninit_def:

; 636  : 	_RERAISE;

	push	0
	push	0
	call	__CxxThrowException@8

; 637  : 	_CATCH_END

	mov	DWORD PTR __$EHRec$[ebp+12], -1
	mov	eax, $LN9@Uninit_def
	ret	0
$LN10@Uninit_def:
	mov	DWORD PTR __$EHRec$[ebp+12], -1
$LN9@Uninit_def:

; 638  : 	}

	mov	ecx, DWORD PTR __$EHRec$[ebp+4]
	mov	DWORD PTR fs:0, ecx
	pop	ecx
	pop	edi
	pop	esi
	pop	ebx
	add	esp, 40					; 00000028H
	cmp	ebp, esp
	call	__RTC_CheckEsp
	mov	esp, ebp
	pop	ebp
	ret	0
_TEXT	ENDS
;	COMDAT text$x
text$x	SEGMENT
__ehhandler$??$_Uninit_def_fill_n@PAUVector2D@@IU1@V?$allocator@UVector2D@@@std@@U1@@std@@YAXPAUVector2D@@IPBU1@AAV?$allocator@UVector2D@@@0@0U_Nonscalar_ptr_iterator_tag@0@@Z:
	mov	edx, DWORD PTR [esp+8]
	lea	eax, DWORD PTR [edx+12]
	mov	ecx, DWORD PTR [edx-44]
	xor	ecx, eax
	call	@__security_check_cookie@4
	mov	eax, OFFSET __ehfuncinfo$??$_Uninit_def_fill_n@PAUVector2D@@IU1@V?$allocator@UVector2D@@@std@@U1@@std@@YAXPAUVector2D@@IPBU1@AAV?$allocator@UVector2D@@@0@0U_Nonscalar_ptr_iterator_tag@0@@Z
	jmp	___CxxFrameHandler3
text$x	ENDS
??$_Uninit_def_fill_n@PAUVector2D@@IU1@V?$allocator@UVector2D@@@std@@U1@@std@@YAXPAUVector2D@@IPBU1@AAV?$allocator@UVector2D@@@0@0U_Nonscalar_ptr_iterator_tag@0@@Z ENDP ; std::_Uninit_def_fill_n<Vector2D *,unsigned int,Vector2D,std::allocator<Vector2D>,Vector2D>
PUBLIC	?construct@?$allocator@UVector2D@@@std@@QAEXPAUVector2D@@$$QAU3@@Z ; std::allocator<Vector2D>::construct
PUBLIC	??$forward@UVector2D@@@std@@YA$$QAUVector2D@@AAU1@@Z ; std::forward<Vector2D>
; Function compile flags: /Odtp /RTCsu
; File c:\program files (x86)\microsoft visual studio 10.0\vc\include\xmemory
;	COMDAT ??$_Cons_val@V?$allocator@UVector2D@@@std@@UVector2D@@U3@@std@@YAXAAV?$allocator@UVector2D@@@0@PAUVector2D@@$$QAU2@@Z
_TEXT	SEGMENT
__Alval$ = 8						; size = 4
__Pdest$ = 12						; size = 4
__Src$ = 16						; size = 4
??$_Cons_val@V?$allocator@UVector2D@@@std@@UVector2D@@U3@@std@@YAXAAV?$allocator@UVector2D@@@0@PAUVector2D@@$$QAU2@@Z PROC ; std::_Cons_val<std::allocator<Vector2D>,Vector2D,Vector2D>, COMDAT

; 279  : 	{	// construct using allocator

	push	ebp
	mov	ebp, esp

; 280  : 	_Alval.construct(_Pdest, _STD forward<_Ty2>(_Src));

	mov	eax, DWORD PTR __Src$[ebp]
	push	eax
	call	??$forward@UVector2D@@@std@@YA$$QAUVector2D@@AAU1@@Z ; std::forward<Vector2D>
	add	esp, 4
	push	eax
	mov	ecx, DWORD PTR __Pdest$[ebp]
	push	ecx
	mov	ecx, DWORD PTR __Alval$[ebp]
	call	?construct@?$allocator@UVector2D@@@std@@QAEXPAUVector2D@@$$QAU3@@Z ; std::allocator<Vector2D>::construct

; 281  : 	}

	cmp	ebp, esp
	call	__RTC_CheckEsp
	pop	ebp
	ret	0
??$_Cons_val@V?$allocator@UVector2D@@@std@@UVector2D@@U3@@std@@YAXAAV?$allocator@UVector2D@@@0@PAUVector2D@@$$QAU2@@Z ENDP ; std::_Cons_val<std::allocator<Vector2D>,Vector2D,Vector2D>
; Function compile flags: /Odtp /RTCsu
; File c:\program files (x86)\microsoft visual studio 10.0\vc\include\utility
_TEXT	ENDS
;	COMDAT ??$forward@UVector2D@@@std@@YA$$QAUVector2D@@AAU1@@Z
_TEXT	SEGMENT
__Arg$ = 8						; size = 4
??$forward@UVector2D@@@std@@YA$$QAUVector2D@@AAU1@@Z PROC ; std::forward<Vector2D>, COMDAT

; 78   : 	{	// forward _Arg, given explicitly specified type parameter

	push	ebp
	mov	ebp, esp

; 79   : 	return ((_Ty&&)_Arg);

	mov	eax, DWORD PTR __Arg$[ebp]

; 80   : 	}

	pop	ebp
	ret	0
??$forward@UVector2D@@@std@@YA$$QAUVector2D@@AAU1@@Z ENDP ; std::forward<Vector2D>
_TEXT	ENDS
;	COMDAT xdata$x
; File c:\program files (x86)\microsoft visual studio 10.0\vc\include\xmemory
xdata$x	SEGMENT
__unwindtable$?construct@?$allocator@UVector2D@@@std@@QAEXPAUVector2D@@$$QAU3@@Z DD 0ffffffffH
	DD	FLAT:__unwindfunclet$?construct@?$allocator@UVector2D@@@std@@QAEXPAUVector2D@@$$QAU3@@Z$0
__ehfuncinfo$?construct@?$allocator@UVector2D@@@std@@QAEXPAUVector2D@@$$QAU3@@Z DD 019930522H
	DD	01H
	DD	FLAT:__unwindtable$?construct@?$allocator@UVector2D@@@std@@QAEXPAUVector2D@@$$QAU3@@Z
	DD	2 DUP(00H)
	DD	2 DUP(00H)
	DD	00H
	DD	01H
; Function compile flags: /Odtp /RTCsu
xdata$x	ENDS
;	COMDAT ?construct@?$allocator@UVector2D@@@std@@QAEXPAUVector2D@@$$QAU3@@Z
_TEXT	SEGMENT
tv74 = -28						; size = 4
$T146904 = -24						; size = 4
$T146903 = -20						; size = 4
_this$ = -16						; size = 4
__$EHRec$ = -12						; size = 12
__Ptr$ = 8						; size = 4
__Val$ = 12						; size = 4
?construct@?$allocator@UVector2D@@@std@@QAEXPAUVector2D@@$$QAU3@@Z PROC ; std::allocator<Vector2D>::construct, COMDAT
; _this$ = ecx

; 201  : 		{	// construct object at _Ptr with value _Val

	push	ebp
	mov	ebp, esp
	push	-1
	push	__ehhandler$?construct@?$allocator@UVector2D@@@std@@QAEXPAUVector2D@@$$QAU3@@Z
	mov	eax, DWORD PTR fs:0
	push	eax
	sub	esp, 16					; 00000010H
	mov	eax, -858993460				; ccccccccH
	mov	DWORD PTR [ebp-28], eax
	mov	DWORD PTR [ebp-24], eax
	mov	DWORD PTR [ebp-20], eax
	mov	DWORD PTR [ebp-16], eax
	mov	eax, DWORD PTR ___security_cookie
	xor	eax, ebp
	push	eax
	lea	eax, DWORD PTR __$EHRec$[ebp]
	mov	DWORD PTR fs:0, eax
	mov	DWORD PTR _this$[ebp], ecx

; 202  : 		::new ((void _FARQ *)_Ptr) _Ty(_STD forward<_Ty>(_Val));

	mov	eax, DWORD PTR __Ptr$[ebp]
	push	eax
	push	16					; 00000010H
	call	??2@YAPAXIPAX@Z				; operator new
	add	esp, 8
	mov	DWORD PTR $T146904[ebp], eax
	mov	DWORD PTR __$EHRec$[ebp+8], 0
	cmp	DWORD PTR $T146904[ebp], 0
	je	SHORT $LN3@construct@2
	mov	ecx, DWORD PTR __Val$[ebp]
	push	ecx
	call	??$forward@UVector2D@@@std@@YA$$QAUVector2D@@AAU1@@Z ; std::forward<Vector2D>
	add	esp, 4
	mov	edx, DWORD PTR $T146904[ebp]
	mov	ecx, DWORD PTR [eax]
	mov	DWORD PTR [edx], ecx
	mov	ecx, DWORD PTR [eax+4]
	mov	DWORD PTR [edx+4], ecx
	mov	ecx, DWORD PTR [eax+8]
	mov	DWORD PTR [edx+8], ecx
	mov	eax, DWORD PTR [eax+12]
	mov	DWORD PTR [edx+12], eax
	mov	ecx, DWORD PTR $T146904[ebp]
	mov	DWORD PTR tv74[ebp], ecx
	jmp	SHORT $LN4@construct@2
$LN3@construct@2:
	mov	DWORD PTR tv74[ebp], 0
$LN4@construct@2:
	mov	edx, DWORD PTR tv74[ebp]
	mov	DWORD PTR $T146903[ebp], edx
	mov	DWORD PTR __$EHRec$[ebp+8], -1

; 203  : 		}

	mov	ecx, DWORD PTR __$EHRec$[ebp]
	mov	DWORD PTR fs:0, ecx
	pop	ecx
	add	esp, 28					; 0000001cH
	cmp	ebp, esp
	call	__RTC_CheckEsp
	mov	esp, ebp
	pop	ebp
	ret	8
_TEXT	ENDS
;	COMDAT text$x
text$x	SEGMENT
__unwindfunclet$?construct@?$allocator@UVector2D@@@std@@QAEXPAUVector2D@@$$QAU3@@Z$0:
	mov	eax, DWORD PTR __Ptr$[ebp]
	push	eax
	mov	ecx, DWORD PTR $T146904[ebp]
	push	ecx
	call	??3@YAXPAX0@Z				; operator delete
	add	esp, 8
	ret	0
__ehhandler$?construct@?$allocator@UVector2D@@@std@@QAEXPAUVector2D@@$$QAU3@@Z:
	mov	edx, DWORD PTR [esp+8]
	lea	eax, DWORD PTR [edx+12]
	mov	ecx, DWORD PTR [edx-20]
	xor	ecx, eax
	call	@__security_check_cookie@4
	mov	eax, OFFSET __ehfuncinfo$?construct@?$allocator@UVector2D@@@std@@QAEXPAUVector2D@@$$QAU3@@Z
	jmp	___CxxFrameHandler3
text$x	ENDS
?construct@?$allocator@UVector2D@@@std@@QAEXPAUVector2D@@$$QAU3@@Z ENDP ; std::allocator<Vector2D>::construct
PUBLIC	??$_Uninit_move@PAUVector2D@@PAU1@V?$allocator@UVector2D@@@std@@U1@@std@@YAPAUVector2D@@PAU1@00AAV?$allocator@UVector2D@@@0@0U_Nonscalar_ptr_iterator_tag@0@@Z ; std::_Uninit_move<Vector2D *,Vector2D *,std::allocator<Vector2D>,Vector2D>
; Function compile flags: /Odtp /RTCsu
; File c:\program files (x86)\microsoft visual studio 10.0\vc\include\memory
;	COMDAT ??$_Uninitialized_move@PAUVector2D@@PAU1@V?$allocator@UVector2D@@@std@@@std@@YAPAUVector2D@@PAU1@00AAV?$allocator@UVector2D@@@0@@Z
_TEXT	SEGMENT
$T146916 = -1						; size = 1
__First$ = 8						; size = 4
__Last$ = 12						; size = 4
__Dest$ = 16						; size = 4
__Al$ = 20						; size = 4
??$_Uninitialized_move@PAUVector2D@@PAU1@V?$allocator@UVector2D@@@std@@@std@@YAPAUVector2D@@PAU1@00AAV?$allocator@UVector2D@@@0@@Z PROC ; std::_Uninitialized_move<Vector2D *,Vector2D *,std::allocator<Vector2D> >, COMDAT

; 469  : 	{	// move [_First, _Last) to raw _Dest, using _Al

	push	ebp
	mov	ebp, esp
	push	ecx
	mov	DWORD PTR [ebp-4], -858993460		; ccccccccH

; 470  : 	return (_Uninit_move(_First, _Last, _Dest, _Al,
; 471  : 		_Val_type(_First), _Ptr_cat(_First, _Dest)));

	mov	eax, DWORD PTR __Dest$[ebp]
	push	eax
	mov	ecx, DWORD PTR __First$[ebp]
	push	ecx
	call	??$_Ptr_cat@UVector2D@@U1@@std@@YA?AU_Nonscalar_ptr_iterator_tag@0@PAUVector2D@@0@Z ; std::_Ptr_cat<Vector2D,Vector2D>
	add	esp, 8
	mov	BYTE PTR $T146916[ebp], al
	movzx	edx, BYTE PTR $T146916[ebp]
	push	edx
	mov	eax, DWORD PTR __First$[ebp]
	push	eax
	call	??$_Val_type@PAUVector2D@@@std@@YAPAUVector2D@@PAU1@@Z ; std::_Val_type<Vector2D *>
	add	esp, 4
	push	eax
	mov	ecx, DWORD PTR __Al$[ebp]
	push	ecx
	mov	edx, DWORD PTR __Dest$[ebp]
	push	edx
	mov	eax, DWORD PTR __Last$[ebp]
	push	eax
	mov	ecx, DWORD PTR __First$[ebp]
	push	ecx
	call	??$_Uninit_move@PAUVector2D@@PAU1@V?$allocator@UVector2D@@@std@@U1@@std@@YAPAUVector2D@@PAU1@00AAV?$allocator@UVector2D@@@0@0U_Nonscalar_ptr_iterator_tag@0@@Z ; std::_Uninit_move<Vector2D *,Vector2D *,std::allocator<Vector2D>,Vector2D>
	add	esp, 24					; 00000018H

; 472  : 	}

	add	esp, 4
	cmp	ebp, esp
	call	__RTC_CheckEsp
	mov	esp, ebp
	pop	ebp
	ret	0
??$_Uninitialized_move@PAUVector2D@@PAU1@V?$allocator@UVector2D@@@std@@@std@@YAPAUVector2D@@PAU1@00AAV?$allocator@UVector2D@@@0@@Z ENDP ; std::_Uninitialized_move<Vector2D *,Vector2D *,std::allocator<Vector2D> >
_TEXT	ENDS
PUBLIC	??$move@AAUVector2D@@@std@@YA$$QAUVector2D@@AAU1@@Z ; std::move<Vector2D &>
; Function compile flags: /Odtp /RTCsu
; File c:\program files (x86)\microsoft visual studio 10.0\vc\include\xutility
;	COMDAT ??$_Move@PAUVector2D@@PAU1@@std@@YAPAUVector2D@@PAU1@00U_Nonscalar_ptr_iterator_tag@0@@Z
_TEXT	SEGMENT
__First$ = 8						; size = 4
__Last$ = 12						; size = 4
__Dest$ = 16						; size = 4
___formal$ = 20						; size = 1
??$_Move@PAUVector2D@@PAU1@@std@@YAPAUVector2D@@PAU1@00U_Nonscalar_ptr_iterator_tag@0@@Z PROC ; std::_Move<Vector2D *,Vector2D *>, COMDAT

; 2524 : 	{	// move [_First, _Last) to [_Dest, ...), arbitrary iterators

	push	ebp
	mov	ebp, esp

; 2525 : 	for (; _First != _Last; ++_Dest, ++_First)

	jmp	SHORT $LN3@Move
$LN2@Move:
	mov	eax, DWORD PTR __Dest$[ebp]
	add	eax, 16					; 00000010H
	mov	DWORD PTR __Dest$[ebp], eax
	mov	ecx, DWORD PTR __First$[ebp]
	add	ecx, 16					; 00000010H
	mov	DWORD PTR __First$[ebp], ecx
$LN3@Move:
	mov	edx, DWORD PTR __First$[ebp]
	cmp	edx, DWORD PTR __Last$[ebp]
	je	SHORT $LN1@Move

; 2526 : 		*_Dest = _STD move(*_First);

	mov	eax, DWORD PTR __First$[ebp]
	push	eax
	call	??$move@AAUVector2D@@@std@@YA$$QAUVector2D@@AAU1@@Z ; std::move<Vector2D &>
	add	esp, 4
	mov	ecx, DWORD PTR __Dest$[ebp]
	mov	edx, DWORD PTR [eax]
	mov	DWORD PTR [ecx], edx
	mov	edx, DWORD PTR [eax+4]
	mov	DWORD PTR [ecx+4], edx
	mov	edx, DWORD PTR [eax+8]
	mov	DWORD PTR [ecx+8], edx
	mov	eax, DWORD PTR [eax+12]
	mov	DWORD PTR [ecx+12], eax
	jmp	SHORT $LN2@Move
$LN1@Move:

; 2527 : 	return (_Dest);

	mov	eax, DWORD PTR __Dest$[ebp]

; 2528 : 	}

	cmp	ebp, esp
	call	__RTC_CheckEsp
	pop	ebp
	ret	0
??$_Move@PAUVector2D@@PAU1@@std@@YAPAUVector2D@@PAU1@00U_Nonscalar_ptr_iterator_tag@0@@Z ENDP ; std::_Move<Vector2D *,Vector2D *>
; Function compile flags: /Odtp /RTCsu
; File c:\program files (x86)\microsoft visual studio 10.0\vc\include\xmemory
_TEXT	ENDS
;	COMDAT ??$_Destroy_range@V?$allocator@UVector2D@@@std@@@std@@YAXPAUVector2D@@0AAV?$allocator@UVector2D@@@0@U_Nonscalar_ptr_iterator_tag@0@@Z
_TEXT	SEGMENT
__First$ = 8						; size = 4
__Last$ = 12						; size = 4
__Al$ = 16						; size = 4
___formal$ = 20						; size = 1
??$_Destroy_range@V?$allocator@UVector2D@@@std@@@std@@YAXPAUVector2D@@0AAV?$allocator@UVector2D@@@0@U_Nonscalar_ptr_iterator_tag@0@@Z PROC ; std::_Destroy_range<std::allocator<Vector2D> >, COMDAT

; 95   : 	{	// destroy [_First, _Last), arbitrary type

	push	ebp
	mov	ebp, esp

; 96   : 	for (; _First != _Last; ++_First)

	jmp	SHORT $LN3@Destroy_ra
$LN2@Destroy_ra:
	mov	eax, DWORD PTR __First$[ebp]
	add	eax, 16					; 00000010H
	mov	DWORD PTR __First$[ebp], eax
$LN3@Destroy_ra:
	mov	ecx, DWORD PTR __First$[ebp]
	cmp	ecx, DWORD PTR __Last$[ebp]
	je	SHORT $LN4@Destroy_ra

; 97   : 		_Dest_val(_Al, _First);

	mov	edx, DWORD PTR __First$[ebp]
	push	edx
	mov	eax, DWORD PTR __Al$[ebp]
	push	eax
	call	??$_Dest_val@V?$allocator@UVector2D@@@std@@UVector2D@@@std@@YAXAAV?$allocator@UVector2D@@@0@PAUVector2D@@@Z ; std::_Dest_val<std::allocator<Vector2D>,Vector2D>
	add	esp, 8
	jmp	SHORT $LN2@Destroy_ra
$LN4@Destroy_ra:

; 98   : 	}

	cmp	ebp, esp
	call	__RTC_CheckEsp
	pop	ebp
	ret	0
??$_Destroy_range@V?$allocator@UVector2D@@@std@@@std@@YAXPAUVector2D@@0AAV?$allocator@UVector2D@@@0@U_Nonscalar_ptr_iterator_tag@0@@Z ENDP ; std::_Destroy_range<std::allocator<Vector2D> >
; Function compile flags: /Odtp /RTCsu
_TEXT	ENDS
;	COMDAT ??$_Destroy@U_Container_proxy@std@@@std@@YAXPAU_Container_proxy@0@@Z
_TEXT	SEGMENT
__Ptr$ = 8						; size = 4
??$_Destroy@U_Container_proxy@std@@@std@@YAXPAU_Container_proxy@0@@Z PROC ; std::_Destroy<std::_Container_proxy>, COMDAT

; 62   : 	{	// destroy object at _Ptr

	push	ebp
	mov	ebp, esp

; 63   : 	_Ptr->~_Ty();
; 64   : 	}

	pop	ebp
	ret	0
??$_Destroy@U_Container_proxy@std@@@std@@YAXPAU_Container_proxy@0@@Z ENDP ; std::_Destroy<std::_Container_proxy>
_TEXT	ENDS
PUBLIC	?destroy@?$allocator@UVector2D@@@std@@QAEXPAUVector2D@@@Z ; std::allocator<Vector2D>::destroy
; Function compile flags: /Odtp /RTCsu
;	COMDAT ??$_Dest_val@V?$allocator@UVector2D@@@std@@UVector2D@@@std@@YAXAAV?$allocator@UVector2D@@@0@PAUVector2D@@@Z
_TEXT	SEGMENT
__Alval$ = 8						; size = 4
__Pdest$ = 12						; size = 4
??$_Dest_val@V?$allocator@UVector2D@@@std@@UVector2D@@@std@@YAXAAV?$allocator@UVector2D@@@0@PAUVector2D@@@Z PROC ; std::_Dest_val<std::allocator<Vector2D>,Vector2D>, COMDAT

; 286  : 	{	// destroy using allocator

	push	ebp
	mov	ebp, esp

; 287  : 	_Alval.destroy(_Pdest);

	mov	eax, DWORD PTR __Pdest$[ebp]
	push	eax
	mov	ecx, DWORD PTR __Alval$[ebp]
	call	?destroy@?$allocator@UVector2D@@@std@@QAEXPAUVector2D@@@Z ; std::allocator<Vector2D>::destroy

; 288  : 	}

	cmp	ebp, esp
	call	__RTC_CheckEsp
	pop	ebp
	ret	0
??$_Dest_val@V?$allocator@UVector2D@@@std@@UVector2D@@@std@@YAXAAV?$allocator@UVector2D@@@0@PAUVector2D@@@Z ENDP ; std::_Dest_val<std::allocator<Vector2D>,Vector2D>
_TEXT	ENDS
PUBLIC	??$_Debug_pointer@UVector2D@@@std@@YAXPAUVector2D@@PB_WI@Z ; std::_Debug_pointer<Vector2D>
PUBLIC	??$_Debug_range@PAUVector2D@@@std@@YAXPAUVector2D@@0PB_WI@Z ; std::_Debug_range<Vector2D *>
PUBLIC	??_C@_1IM@LEDFCGBB@?$AAc?$AA?3?$AA?2?$AAP?$AAr?$AAo?$AAg?$AAr?$AAa?$AAm?$AA?5?$AAF?$AAi?$AAl?$AAe?$AAs?$AA?5?$AA?$CI?$AAx?$AA8?$AA6?$AA?$CJ?$AA?2?$AAM?$AAi?$AAc?$AAr?$AAo?$AAs?$AAo?$AAf?$AAt@ ; `string'
;	COMDAT ??_C@_1IM@LEDFCGBB@?$AAc?$AA?3?$AA?2?$AAP?$AAr?$AAo?$AAg?$AAr?$AAa?$AAm?$AA?5?$AAF?$AAi?$AAl?$AAe?$AAs?$AA?5?$AA?$CI?$AAx?$AA8?$AA6?$AA?$CJ?$AA?2?$AAM?$AAi?$AAc?$AAr?$AAo?$AAs?$AAo?$AAf?$AAt@
; File c:\program files (x86)\microsoft visual studio 10.0\vc\include\memory
CONST	SEGMENT
??_C@_1IM@LEDFCGBB@?$AAc?$AA?3?$AA?2?$AAP?$AAr?$AAo?$AAg?$AAr?$AAa?$AAm?$AA?5?$AAF?$AAi?$AAl?$AAe?$AAs?$AA?5?$AA?$CI?$AAx?$AA8?$AA6?$AA?$CJ?$AA?2?$AAM?$AAi?$AAc?$AAr?$AAo?$AAs?$AAo?$AAf?$AAt@ DB 'c'
	DB	00H, ':', 00H, '\', 00H, 'P', 00H, 'r', 00H, 'o', 00H, 'g', 00H
	DB	'r', 00H, 'a', 00H, 'm', 00H, ' ', 00H, 'F', 00H, 'i', 00H, 'l'
	DB	00H, 'e', 00H, 's', 00H, ' ', 00H, '(', 00H, 'x', 00H, '8', 00H
	DB	'6', 00H, ')', 00H, '\', 00H, 'M', 00H, 'i', 00H, 'c', 00H, 'r'
	DB	00H, 'o', 00H, 's', 00H, 'o', 00H, 'f', 00H, 't', 00H, ' ', 00H
	DB	'V', 00H, 'i', 00H, 's', 00H, 'u', 00H, 'a', 00H, 'l', 00H, ' '
	DB	00H, 'S', 00H, 't', 00H, 'u', 00H, 'd', 00H, 'i', 00H, 'o', 00H
	DB	' ', 00H, '1', 00H, '0', 00H, '.', 00H, '0', 00H, '\', 00H, 'V'
	DB	00H, 'C', 00H, '\', 00H, 'i', 00H, 'n', 00H, 'c', 00H, 'l', 00H
	DB	'u', 00H, 'd', 00H, 'e', 00H, '\', 00H, 'm', 00H, 'e', 00H, 'm'
	DB	00H, 'o', 00H, 'r', 00H, 'y', 00H, 00H, 00H	; `string'
CONST	ENDS
;	COMDAT xdata$x
xdata$x	SEGMENT
__catchsym$??$_Uninit_move@PAUVector2D@@PAU1@V?$allocator@UVector2D@@@std@@U1@@std@@YAPAUVector2D@@PAU1@00AAV?$allocator@UVector2D@@@0@0U_Nonscalar_ptr_iterator_tag@0@@Z$2 DD 040H
	DD	00H
	DD	00H
	DD	FLAT:__catch$??$_Uninit_move@PAUVector2D@@PAU1@V?$allocator@UVector2D@@@std@@U1@@std@@YAPAUVector2D@@PAU1@00AAV?$allocator@UVector2D@@@0@0U_Nonscalar_ptr_iterator_tag@0@@Z$0
__unwindtable$??$_Uninit_move@PAUVector2D@@PAU1@V?$allocator@UVector2D@@@std@@U1@@std@@YAPAUVector2D@@PAU1@00AAV?$allocator@UVector2D@@@0@0U_Nonscalar_ptr_iterator_tag@0@@Z DD 0ffffffffH
	DD	00H
	DD	0ffffffffH
	DD	00H
__tryblocktable$??$_Uninit_move@PAUVector2D@@PAU1@V?$allocator@UVector2D@@@std@@U1@@std@@YAPAUVector2D@@PAU1@00AAV?$allocator@UVector2D@@@0@0U_Nonscalar_ptr_iterator_tag@0@@Z DD 00H
	DD	00H
	DD	01H
	DD	01H
	DD	FLAT:__catchsym$??$_Uninit_move@PAUVector2D@@PAU1@V?$allocator@UVector2D@@@std@@U1@@std@@YAPAUVector2D@@PAU1@00AAV?$allocator@UVector2D@@@0@0U_Nonscalar_ptr_iterator_tag@0@@Z$2
__ehfuncinfo$??$_Uninit_move@PAUVector2D@@PAU1@V?$allocator@UVector2D@@@std@@U1@@std@@YAPAUVector2D@@PAU1@00AAV?$allocator@UVector2D@@@0@0U_Nonscalar_ptr_iterator_tag@0@@Z DD 019930522H
	DD	02H
	DD	FLAT:__unwindtable$??$_Uninit_move@PAUVector2D@@PAU1@V?$allocator@UVector2D@@@std@@U1@@std@@YAPAUVector2D@@PAU1@00AAV?$allocator@UVector2D@@@0@0U_Nonscalar_ptr_iterator_tag@0@@Z
	DD	01H
	DD	FLAT:__tryblocktable$??$_Uninit_move@PAUVector2D@@PAU1@V?$allocator@UVector2D@@@std@@U1@@std@@YAPAUVector2D@@PAU1@00AAV?$allocator@UVector2D@@@0@0U_Nonscalar_ptr_iterator_tag@0@@Z
	DD	2 DUP(00H)
	DD	00H
	DD	01H
; Function compile flags: /Odtp /RTCsu
xdata$x	ENDS
;	COMDAT ??$_Uninit_move@PAUVector2D@@PAU1@V?$allocator@UVector2D@@@std@@U1@@std@@YAPAUVector2D@@PAU1@00AAV?$allocator@UVector2D@@@0@0U_Nonscalar_ptr_iterator_tag@0@@Z
_TEXT	SEGMENT
__Next$ = -20						; size = 4
__$EHRec$ = -16						; size = 16
__First$ = 8						; size = 4
__Last$ = 12						; size = 4
__Dest$ = 16						; size = 4
__Al$ = 20						; size = 4
___formal$ = 24						; size = 4
___formal$ = 28						; size = 1
??$_Uninit_move@PAUVector2D@@PAU1@V?$allocator@UVector2D@@@std@@U1@@std@@YAPAUVector2D@@PAU1@00AAV?$allocator@UVector2D@@@0@0U_Nonscalar_ptr_iterator_tag@0@@Z PROC ; std::_Uninit_move<Vector2D *,Vector2D *,std::allocator<Vector2D>,Vector2D>, COMDAT

; 424  : 	{	// move [_First, _Last) to raw _Dest, using _Al, arbitrary type

	push	ebp
	mov	ebp, esp
	push	-1
	push	__ehhandler$??$_Uninit_move@PAUVector2D@@PAU1@V?$allocator@UVector2D@@@std@@U1@@std@@YAPAUVector2D@@PAU1@00AAV?$allocator@UVector2D@@@0@0U_Nonscalar_ptr_iterator_tag@0@@Z
	mov	eax, DWORD PTR fs:0
	push	eax
	push	ecx
	push	ecx
	push	ebx
	push	esi
	push	edi
	mov	DWORD PTR [ebp-20], -858993460		; ccccccccH
	mov	eax, DWORD PTR ___security_cookie
	xor	eax, ebp
	push	eax
	lea	eax, DWORD PTR __$EHRec$[ebp+4]
	mov	DWORD PTR fs:0, eax
	mov	DWORD PTR __$EHRec$[ebp], esp

; 425  : 	_DEBUG_RANGE(_First, _Last);

	push	425					; 000001a9H
	push	OFFSET ??_C@_1IM@LEDFCGBB@?$AAc?$AA?3?$AA?2?$AAP?$AAr?$AAo?$AAg?$AAr?$AAa?$AAm?$AA?5?$AAF?$AAi?$AAl?$AAe?$AAs?$AA?5?$AA?$CI?$AAx?$AA8?$AA6?$AA?$CJ?$AA?2?$AAM?$AAi?$AAc?$AAr?$AAo?$AAs?$AAo?$AAf?$AAt@
	mov	eax, DWORD PTR __Last$[ebp]
	push	eax
	mov	ecx, DWORD PTR __First$[ebp]
	push	ecx
	call	??$_Debug_range@PAUVector2D@@@std@@YAXPAUVector2D@@0PB_WI@Z ; std::_Debug_range<Vector2D *>
	add	esp, 16					; 00000010H

; 426  : 	_DEBUG_POINTER(_Dest);

	push	426					; 000001aaH
	push	OFFSET ??_C@_1IM@LEDFCGBB@?$AAc?$AA?3?$AA?2?$AAP?$AAr?$AAo?$AAg?$AAr?$AAa?$AAm?$AA?5?$AAF?$AAi?$AAl?$AAe?$AAs?$AA?5?$AA?$CI?$AAx?$AA8?$AA6?$AA?$CJ?$AA?2?$AAM?$AAi?$AAc?$AAr?$AAo?$AAs?$AAo?$AAf?$AAt@
	mov	edx, DWORD PTR __Dest$[ebp]
	push	edx
	call	??$_Debug_pointer@UVector2D@@@std@@YAXPAUVector2D@@PB_WI@Z ; std::_Debug_pointer<Vector2D>
	add	esp, 12					; 0000000cH

; 427  : 	_FwdIt _Next = _Dest;

	mov	eax, DWORD PTR __Dest$[ebp]
	mov	DWORD PTR __Next$[ebp], eax

; 428  : 
; 429  : 	_TRY_BEGIN

	mov	DWORD PTR __$EHRec$[ebp+12], 0

; 430  : 	for (; _First != _Last; ++_Dest, ++_First)

	jmp	SHORT $LN6@Uninit_mov
$LN5@Uninit_mov:
	mov	ecx, DWORD PTR __Dest$[ebp]
	add	ecx, 16					; 00000010H
	mov	DWORD PTR __Dest$[ebp], ecx
	mov	edx, DWORD PTR __First$[ebp]
	add	edx, 16					; 00000010H
	mov	DWORD PTR __First$[ebp], edx
$LN6@Uninit_mov:
	mov	eax, DWORD PTR __First$[ebp]
	cmp	eax, DWORD PTR __Last$[ebp]
	je	SHORT $LN4@Uninit_mov

; 431  : 		_Cons_val(_Al, _Dest, (_Valty &&)*_First);

	mov	ecx, DWORD PTR __First$[ebp]
	push	ecx
	mov	edx, DWORD PTR __Dest$[ebp]
	push	edx
	mov	eax, DWORD PTR __Al$[ebp]
	push	eax
	call	??$_Cons_val@V?$allocator@UVector2D@@@std@@UVector2D@@U3@@std@@YAXAAV?$allocator@UVector2D@@@0@PAUVector2D@@$$QAU2@@Z ; std::_Cons_val<std::allocator<Vector2D>,Vector2D,Vector2D>
	add	esp, 12					; 0000000cH
	jmp	SHORT $LN5@Uninit_mov
$LN4@Uninit_mov:
	jmp	SHORT $LN10@Uninit_mov
__catch$??$_Uninit_move@PAUVector2D@@PAU1@V?$allocator@UVector2D@@@std@@U1@@std@@YAPAUVector2D@@PAU1@00AAV?$allocator@UVector2D@@@0@0U_Nonscalar_ptr_iterator_tag@0@@Z$0:

; 432  : 	_CATCH_ALL
; 433  : 	for (; _Next != _Dest; ++_Next)

	jmp	SHORT $LN3@Uninit_mov
$LN2@Uninit_mov:
	mov	ecx, DWORD PTR __Next$[ebp]
	add	ecx, 16					; 00000010H
	mov	DWORD PTR __Next$[ebp], ecx
$LN3@Uninit_mov:
	mov	edx, DWORD PTR __Next$[ebp]
	cmp	edx, DWORD PTR __Dest$[ebp]
	je	SHORT $LN1@Uninit_mov

; 434  : 		_Dest_val(_Al, _Next);

	mov	eax, DWORD PTR __Next$[ebp]
	push	eax
	mov	ecx, DWORD PTR __Al$[ebp]
	push	ecx
	call	??$_Dest_val@V?$allocator@UVector2D@@@std@@UVector2D@@@std@@YAXAAV?$allocator@UVector2D@@@0@PAUVector2D@@@Z ; std::_Dest_val<std::allocator<Vector2D>,Vector2D>
	add	esp, 8
	jmp	SHORT $LN2@Uninit_mov
$LN1@Uninit_mov:

; 435  : 	_RERAISE;

	push	0
	push	0
	call	__CxxThrowException@8

; 436  : 	_CATCH_END

	mov	DWORD PTR __$EHRec$[ebp+12], -1
	mov	eax, __tryend$??$_Uninit_move@PAUVector2D@@PAU1@V?$allocator@UVector2D@@@std@@U1@@std@@YAPAUVector2D@@PAU1@00AAV?$allocator@UVector2D@@@0@0U_Nonscalar_ptr_iterator_tag@0@@Z$1
	ret	0
$LN10@Uninit_mov:
	mov	DWORD PTR __$EHRec$[ebp+12], -1
__tryend$??$_Uninit_move@PAUVector2D@@PAU1@V?$allocator@UVector2D@@@std@@U1@@std@@YAPAUVector2D@@PAU1@00AAV?$allocator@UVector2D@@@0@0U_Nonscalar_ptr_iterator_tag@0@@Z$1:

; 437  : 	return (_Dest);

	mov	eax, DWORD PTR __Dest$[ebp]
$LN9@Uninit_mov:

; 438  : 	}

	mov	ecx, DWORD PTR __$EHRec$[ebp+4]
	mov	DWORD PTR fs:0, ecx
	pop	ecx
	pop	edi
	pop	esi
	pop	ebx
	add	esp, 20					; 00000014H
	cmp	ebp, esp
	call	__RTC_CheckEsp
	mov	esp, ebp
	pop	ebp
	ret	0
_TEXT	ENDS
;	COMDAT text$x
text$x	SEGMENT
__ehhandler$??$_Uninit_move@PAUVector2D@@PAU1@V?$allocator@UVector2D@@@std@@U1@@std@@YAPAUVector2D@@PAU1@00AAV?$allocator@UVector2D@@@0@0U_Nonscalar_ptr_iterator_tag@0@@Z:
	mov	edx, DWORD PTR [esp+8]
	lea	eax, DWORD PTR [edx+12]
	mov	ecx, DWORD PTR [edx-24]
	xor	ecx, eax
	call	@__security_check_cookie@4
	mov	eax, OFFSET __ehfuncinfo$??$_Uninit_move@PAUVector2D@@PAU1@V?$allocator@UVector2D@@@std@@U1@@std@@YAPAUVector2D@@PAU1@00AAV?$allocator@UVector2D@@@0@0U_Nonscalar_ptr_iterator_tag@0@@Z
	jmp	___CxxFrameHandler3
text$x	ENDS
??$_Uninit_move@PAUVector2D@@PAU1@V?$allocator@UVector2D@@@std@@U1@@std@@YAPAUVector2D@@PAU1@00AAV?$allocator@UVector2D@@@0@0U_Nonscalar_ptr_iterator_tag@0@@Z ENDP ; std::_Uninit_move<Vector2D *,Vector2D *,std::allocator<Vector2D>,Vector2D>
; Function compile flags: /Odtp /RTCsu
; File c:\program files (x86)\microsoft visual studio 10.0\vc\include\utility
;	COMDAT ??$move@AAUVector2D@@@std@@YA$$QAUVector2D@@AAU1@@Z
_TEXT	SEGMENT
__Arg$ = 8						; size = 4
??$move@AAUVector2D@@@std@@YA$$QAUVector2D@@AAU1@@Z PROC ; std::move<Vector2D &>, COMDAT

; 86   : 	{	// forward _Arg as movable

	push	ebp
	mov	ebp, esp

; 87   : 	return ((typename tr1::_Remove_reference<_Ty>::_Type&&)_Arg);

	mov	eax, DWORD PTR __Arg$[ebp]

; 88   : 	}

	pop	ebp
	ret	0
??$move@AAUVector2D@@@std@@YA$$QAUVector2D@@AAU1@@Z ENDP ; std::move<Vector2D &>
_TEXT	ENDS
PUBLIC	??$_Destroy@UVector2D@@@std@@YAXPAUVector2D@@@Z	; std::_Destroy<Vector2D>
; Function compile flags: /Odtp /RTCsu
; File c:\program files (x86)\microsoft visual studio 10.0\vc\include\xmemory
;	COMDAT ?destroy@?$allocator@UVector2D@@@std@@QAEXPAUVector2D@@@Z
_TEXT	SEGMENT
_this$ = -4						; size = 4
__Ptr$ = 8						; size = 4
?destroy@?$allocator@UVector2D@@@std@@QAEXPAUVector2D@@@Z PROC ; std::allocator<Vector2D>::destroy, COMDAT
; _this$ = ecx

; 212  : 		{	// destroy object at _Ptr

	push	ebp
	mov	ebp, esp
	push	ecx
	mov	DWORD PTR [ebp-4], -858993460		; ccccccccH
	mov	DWORD PTR _this$[ebp], ecx

; 213  : 		_Destroy(_Ptr);

	mov	eax, DWORD PTR __Ptr$[ebp]
	push	eax
	call	??$_Destroy@UVector2D@@@std@@YAXPAUVector2D@@@Z ; std::_Destroy<Vector2D>
	add	esp, 4

; 214  : 		}

	add	esp, 4
	cmp	ebp, esp
	call	__RTC_CheckEsp
	mov	esp, ebp
	pop	ebp
	ret	4
?destroy@?$allocator@UVector2D@@@std@@QAEXPAUVector2D@@@Z ENDP ; std::allocator<Vector2D>::destroy
_TEXT	ENDS
PUBLIC	??_C@_1CK@EOPGIILJ@?$AAi?$AAn?$AAv?$AAa?$AAl?$AAi?$AAd?$AA?5?$AAn?$AAu?$AAl?$AAl?$AA?5?$AAp?$AAo?$AAi?$AAn?$AAt?$AAe?$AAr?$AA?$AA@ ; `string'
;	COMDAT ??_C@_1CK@EOPGIILJ@?$AAi?$AAn?$AAv?$AAa?$AAl?$AAi?$AAd?$AA?5?$AAn?$AAu?$AAl?$AAl?$AA?5?$AAp?$AAo?$AAi?$AAn?$AAt?$AAe?$AAr?$AA?$AA@
; File c:\program files (x86)\microsoft visual studio 10.0\vc\include\xutility
CONST	SEGMENT
??_C@_1CK@EOPGIILJ@?$AAi?$AAn?$AAv?$AAa?$AAl?$AAi?$AAd?$AA?5?$AAn?$AAu?$AAl?$AAl?$AA?5?$AAp?$AAo?$AAi?$AAn?$AAt?$AAe?$AAr?$AA?$AA@ DB 'i'
	DB	00H, 'n', 00H, 'v', 00H, 'a', 00H, 'l', 00H, 'i', 00H, 'd', 00H
	DB	' ', 00H, 'n', 00H, 'u', 00H, 'l', 00H, 'l', 00H, ' ', 00H, 'p'
	DB	00H, 'o', 00H, 'i', 00H, 'n', 00H, 't', 00H, 'e', 00H, 'r', 00H
	DB	00H, 00H					; `string'
; Function compile flags: /Odtp /RTCsu
CONST	ENDS
;	COMDAT ??$_Debug_pointer@UVector2D@@@std@@YAXPAUVector2D@@PB_WI@Z
_TEXT	SEGMENT
__First$ = 8						; size = 4
__File$ = 12						; size = 4
__Line$ = 16						; size = 4
??$_Debug_pointer@UVector2D@@@std@@YAXPAUVector2D@@PB_WI@Z PROC ; std::_Debug_pointer<Vector2D>, COMDAT

; 708  : 	{	// test iterator for non-singularity, pointers

	push	ebp
	mov	ebp, esp

; 709  : 	if (_First == 0)

	cmp	DWORD PTR __First$[ebp], 0
	jne	SHORT $LN2@Debug_poin

; 710  : 		_DEBUG_ERROR2("invalid null pointer", _File, _Line);

	mov	eax, DWORD PTR __Line$[ebp]
	push	eax
	mov	ecx, DWORD PTR __File$[ebp]
	push	ecx
	push	OFFSET ??_C@_1CK@EOPGIILJ@?$AAi?$AAn?$AAv?$AAa?$AAl?$AAi?$AAd?$AA?5?$AAn?$AAu?$AAl?$AAl?$AA?5?$AAp?$AAo?$AAi?$AAn?$AAt?$AAe?$AAr?$AA?$AA@
	call	?_Debug_message@std@@YAXPB_W0I@Z	; std::_Debug_message
	add	esp, 12					; 0000000cH
$LN2@Debug_poin:

; 711  : 	}

	cmp	ebp, esp
	call	__RTC_CheckEsp
	pop	ebp
	ret	0
??$_Debug_pointer@UVector2D@@@std@@YAXPAUVector2D@@PB_WI@Z ENDP ; std::_Debug_pointer<Vector2D>
_TEXT	ENDS
PUBLIC	??$_Debug_range2@PAUVector2D@@@std@@YAXPAUVector2D@@0PB_WIUrandom_access_iterator_tag@0@@Z ; std::_Debug_range2<Vector2D *>
PUBLIC	??$_Iter_cat@PAUVector2D@@@std@@YA?AUrandom_access_iterator_tag@0@ABQAUVector2D@@@Z ; std::_Iter_cat<Vector2D *>
; Function compile flags: /Odtp /RTCsu
;	COMDAT ??$_Debug_range@PAUVector2D@@@std@@YAXPAUVector2D@@0PB_WI@Z
_TEXT	SEGMENT
$T146948 = -1						; size = 1
__First$ = 8						; size = 4
__Last$ = 12						; size = 4
__File$ = 16						; size = 4
__Line$ = 20						; size = 4
??$_Debug_range@PAUVector2D@@@std@@YAXPAUVector2D@@0PB_WI@Z PROC ; std::_Debug_range<Vector2D *>, COMDAT

; 739  : 	{	// test iterator pair for valid range

	push	ebp
	mov	ebp, esp
	push	ecx
	mov	DWORD PTR [ebp-4], -858993460		; ccccccccH

; 740  : 	_Debug_range2(_First, _Last, _File, _Line, _Iter_cat(_First));

	lea	eax, DWORD PTR __First$[ebp]
	push	eax
	lea	ecx, DWORD PTR $T146948[ebp]
	push	ecx
	call	??$_Iter_cat@PAUVector2D@@@std@@YA?AUrandom_access_iterator_tag@0@ABQAUVector2D@@@Z ; std::_Iter_cat<Vector2D *>
	add	esp, 8
	movzx	edx, BYTE PTR [eax]
	push	edx
	mov	eax, DWORD PTR __Line$[ebp]
	push	eax
	mov	ecx, DWORD PTR __File$[ebp]
	push	ecx
	mov	edx, DWORD PTR __Last$[ebp]
	push	edx
	mov	eax, DWORD PTR __First$[ebp]
	push	eax
	call	??$_Debug_range2@PAUVector2D@@@std@@YAXPAUVector2D@@0PB_WIUrandom_access_iterator_tag@0@@Z ; std::_Debug_range2<Vector2D *>
	add	esp, 20					; 00000014H

; 741  : 	}

	add	esp, 4
	cmp	ebp, esp
	call	__RTC_CheckEsp
	mov	esp, ebp
	pop	ebp
	ret	0
??$_Debug_range@PAUVector2D@@@std@@YAXPAUVector2D@@0PB_WI@Z ENDP ; std::_Debug_range<Vector2D *>
; Function compile flags: /Odtp /RTCsu
; File c:\program files (x86)\microsoft visual studio 10.0\vc\include\xmemory
_TEXT	ENDS
;	COMDAT ??$_Destroy@UVector2D@@@std@@YAXPAUVector2D@@@Z
_TEXT	SEGMENT
__Ptr$ = 8						; size = 4
??$_Destroy@UVector2D@@@std@@YAXPAUVector2D@@@Z PROC	; std::_Destroy<Vector2D>, COMDAT

; 62   : 	{	// destroy object at _Ptr

	push	ebp
	mov	ebp, esp

; 63   : 	_Ptr->~_Ty();
; 64   : 	}

	pop	ebp
	ret	0
??$_Destroy@UVector2D@@@std@@YAXPAUVector2D@@@Z ENDP	; std::_Destroy<Vector2D>
; Function compile flags: /Odtp /RTCsu
; File c:\program files (x86)\microsoft visual studio 10.0\vc\include\xutility
_TEXT	ENDS
;	COMDAT ??$_Iter_cat@PAUVector2D@@@std@@YA?AUrandom_access_iterator_tag@0@ABQAUVector2D@@@Z
_TEXT	SEGMENT
__Cat$ = -5						; size = 1
___$ReturnUdt$ = 8					; size = 4
___formal$ = 12						; size = 4
??$_Iter_cat@PAUVector2D@@@std@@YA?AUrandom_access_iterator_tag@0@ABQAUVector2D@@@Z PROC ; std::_Iter_cat<Vector2D *>, COMDAT

; 488  : 	{	// return category from iterator argument

	push	ebp
	mov	ebp, esp
	sub	esp, 12					; 0000000cH
	mov	DWORD PTR [ebp-12], -858993460		; ccccccccH
	mov	DWORD PTR [ebp-8], -858993460		; ccccccccH
	mov	DWORD PTR [ebp-4], -858993460		; ccccccccH

; 489  : 	typename iterator_traits<_Iter>::iterator_category _Cat;
; 490  : 	return (_Cat);

	mov	eax, DWORD PTR ___$ReturnUdt$[ebp]
	mov	cl, BYTE PTR __Cat$[ebp]
	mov	BYTE PTR [eax], cl
	mov	eax, DWORD PTR ___$ReturnUdt$[ebp]

; 491  : 	}

	push	edx
	mov	ecx, ebp
	push	eax
	lea	edx, DWORD PTR $LN5@Iter_cat
	call	@_RTC_CheckStackVars@8
	pop	eax
	pop	edx
	mov	esp, ebp
	pop	ebp
	ret	0
	npad	1
$LN5@Iter_cat:
	DD	1
	DD	$LN4@Iter_cat
$LN4@Iter_cat:
	DD	-5					; fffffffbH
	DD	1
	DD	$LN3@Iter_cat
$LN3@Iter_cat:
	DB	95					; 0000005fH
	DB	67					; 00000043H
	DB	97					; 00000061H
	DB	116					; 00000074H
	DB	0
??$_Iter_cat@PAUVector2D@@@std@@YA?AUrandom_access_iterator_tag@0@ABQAUVector2D@@@Z ENDP ; std::_Iter_cat<Vector2D *>
_TEXT	ENDS
PUBLIC	??_C@_1CO@DGLIKNHI@?$AAi?$AAn?$AAv?$AAa?$AAl?$AAi?$AAd?$AA?5?$AAi?$AAt?$AAe?$AAr?$AAa?$AAt?$AAo?$AAr?$AA?5?$AAr?$AAa?$AAn?$AAg?$AAe?$AA?$AA@ ; `string'
;	COMDAT ??_C@_1CO@DGLIKNHI@?$AAi?$AAn?$AAv?$AAa?$AAl?$AAi?$AAd?$AA?5?$AAi?$AAt?$AAe?$AAr?$AAa?$AAt?$AAo?$AAr?$AA?5?$AAr?$AAa?$AAn?$AAg?$AAe?$AA?$AA@
CONST	SEGMENT
??_C@_1CO@DGLIKNHI@?$AAi?$AAn?$AAv?$AAa?$AAl?$AAi?$AAd?$AA?5?$AAi?$AAt?$AAe?$AAr?$AAa?$AAt?$AAo?$AAr?$AA?5?$AAr?$AAa?$AAn?$AAg?$AAe?$AA?$AA@ DB 'i'
	DB	00H, 'n', 00H, 'v', 00H, 'a', 00H, 'l', 00H, 'i', 00H, 'd', 00H
	DB	' ', 00H, 'i', 00H, 't', 00H, 'e', 00H, 'r', 00H, 'a', 00H, 't'
	DB	00H, 'o', 00H, 'r', 00H, ' ', 00H, 'r', 00H, 'a', 00H, 'n', 00H
	DB	'g', 00H, 'e', 00H, 00H, 00H			; `string'
; Function compile flags: /Odtp /RTCsu
CONST	ENDS
;	COMDAT ??$_Debug_range2@PAUVector2D@@@std@@YAXPAUVector2D@@0PB_WIUrandom_access_iterator_tag@0@@Z
_TEXT	SEGMENT
__First$ = 8						; size = 4
__Last$ = 12						; size = 4
__File$ = 16						; size = 4
__Line$ = 20						; size = 4
___formal$ = 24						; size = 1
??$_Debug_range2@PAUVector2D@@@std@@YAXPAUVector2D@@0PB_WIUrandom_access_iterator_tag@0@@Z PROC ; std::_Debug_range2<Vector2D *>, COMDAT

; 726  : 	{	// test iterator pair for valid range, random-access iterators

	push	ebp
	mov	ebp, esp

; 727  : 	if (_First != _Last)

	mov	eax, DWORD PTR __First$[ebp]
	cmp	eax, DWORD PTR __Last$[ebp]
	je	SHORT $LN3@Debug_rang

; 728  : 		{	// check for non-null pointers, valid range
; 729  : 		_DEBUG_POINTER2(_First, _File, _Line);

	mov	ecx, DWORD PTR __Line$[ebp]
	push	ecx
	mov	edx, DWORD PTR __File$[ebp]
	push	edx
	mov	eax, DWORD PTR __First$[ebp]
	push	eax
	call	??$_Debug_pointer@UVector2D@@@std@@YAXPAUVector2D@@PB_WI@Z ; std::_Debug_pointer<Vector2D>
	add	esp, 12					; 0000000cH

; 730  : 		_DEBUG_POINTER2(_Last, _File, _Line);

	mov	ecx, DWORD PTR __Line$[ebp]
	push	ecx
	mov	edx, DWORD PTR __File$[ebp]
	push	edx
	mov	eax, DWORD PTR __Last$[ebp]
	push	eax
	call	??$_Debug_pointer@UVector2D@@@std@@YAXPAUVector2D@@PB_WI@Z ; std::_Debug_pointer<Vector2D>
	add	esp, 12					; 0000000cH

; 731  : 		if (_Last < _First)

	mov	ecx, DWORD PTR __Last$[ebp]
	cmp	ecx, DWORD PTR __First$[ebp]
	jae	SHORT $LN3@Debug_rang

; 732  : 			_DEBUG_ERROR2("invalid iterator range", _File, _Line);

	mov	edx, DWORD PTR __Line$[ebp]
	push	edx
	mov	eax, DWORD PTR __File$[ebp]
	push	eax
	push	OFFSET ??_C@_1CO@DGLIKNHI@?$AAi?$AAn?$AAv?$AAa?$AAl?$AAi?$AAd?$AA?5?$AAi?$AAt?$AAe?$AAr?$AAa?$AAt?$AAo?$AAr?$AA?5?$AAr?$AAa?$AAn?$AAg?$AAe?$AA?$AA@
	call	?_Debug_message@std@@YAXPB_W0I@Z	; std::_Debug_message
	add	esp, 12					; 0000000cH
$LN3@Debug_rang:

; 733  : 		}
; 734  : 	}

	cmp	ebp, esp
	call	__RTC_CheckEsp
	pop	ebp
	ret	0
??$_Debug_range2@PAUVector2D@@@std@@YAXPAUVector2D@@0PB_WIUrandom_access_iterator_tag@0@@Z ENDP ; std::_Debug_range2<Vector2D *>
_TEXT	ENDS
PUBLIC	?max@?$numeric_limits@H@std@@SAHXZ		; std::numeric_limits<int>::max
; Function compile flags: /Odtp /RTCsu
; File c:\users\teaja\documents\artificial-fun\labravenprojecttest\common\misc\utils.h
;	COMDAT ??__EMaxInt@@YAXXZ
text$yc	SEGMENT
??__EMaxInt@@YAXXZ PROC					; `dynamic initializer for 'MaxInt'', COMDAT

; 23   : const int     MaxInt    = (std::numeric_limits<int>::max)();

	push	ebp
	mov	ebp, esp
	call	?max@?$numeric_limits@H@std@@SAHXZ	; std::numeric_limits<int>::max
	mov	DWORD PTR _MaxInt, eax
	cmp	ebp, esp
	call	__RTC_CheckEsp
	pop	ebp
	ret	0
??__EMaxInt@@YAXXZ ENDP					; `dynamic initializer for 'MaxInt''
; Function compile flags: /Odtp /RTCsu
; File c:\program files (x86)\microsoft visual studio 10.0\vc\include\limits
text$yc	ENDS
;	COMDAT ?max@?$numeric_limits@H@std@@SAHXZ
_TEXT	SEGMENT
?max@?$numeric_limits@H@std@@SAHXZ PROC			; std::numeric_limits<int>::max, COMDAT

; 712  : 	static _Ty (__CRTDECL max)() _THROW0()

	push	ebp
	mov	ebp, esp

; 713  : 		{	// return maximum value
; 714  : 		return (INT_MAX);

	mov	eax, 2147483647				; 7fffffffH

; 715  : 		}

	pop	ebp
	ret	0
?max@?$numeric_limits@H@std@@SAHXZ ENDP			; std::numeric_limits<int>::max
_TEXT	ENDS
PUBLIC	?max@?$numeric_limits@N@std@@SANXZ		; std::numeric_limits<double>::max
; Function compile flags: /Odtp /RTCsu
; File c:\users\teaja\documents\artificial-fun\labravenprojecttest\common\misc\utils.h
;	COMDAT ??__EMaxDouble@@YAXXZ
text$yc	SEGMENT
??__EMaxDouble@@YAXXZ PROC				; `dynamic initializer for 'MaxDouble'', COMDAT

; 24   : const double  MaxDouble = (std::numeric_limits<double>::max)();

	push	ebp
	mov	ebp, esp
	call	?max@?$numeric_limits@N@std@@SANXZ	; std::numeric_limits<double>::max
	fstp	QWORD PTR _MaxDouble
	cmp	ebp, esp
	call	__RTC_CheckEsp
	pop	ebp
	ret	0
??__EMaxDouble@@YAXXZ ENDP				; `dynamic initializer for 'MaxDouble''
text$yc	ENDS
PUBLIC	__real@7fefffffffffffff
;	COMDAT __real@7fefffffffffffff
; File c:\program files (x86)\microsoft visual studio 10.0\vc\include\limits
CONST	SEGMENT
__real@7fefffffffffffff DQ 07fefffffffffffffr	; 1.79769e+308
; Function compile flags: /Odtp /RTCsu
CONST	ENDS
;	COMDAT ?max@?$numeric_limits@N@std@@SANXZ
_TEXT	SEGMENT
?max@?$numeric_limits@N@std@@SANXZ PROC			; std::numeric_limits<double>::max, COMDAT

; 1233 : 	static _Ty (__CRTDECL max)() _THROW0()

	push	ebp
	mov	ebp, esp

; 1234 : 		{	// return maximum value
; 1235 : 		return (DBL_MAX);

	fld	QWORD PTR __real@7fefffffffffffff

; 1236 : 		}

	pop	ebp
	ret	0
?max@?$numeric_limits@N@std@@SANXZ ENDP			; std::numeric_limits<double>::max
_TEXT	ENDS
PUBLIC	?min@?$numeric_limits@N@std@@SANXZ		; std::numeric_limits<double>::min
; Function compile flags: /Odtp /RTCsu
; File c:\users\teaja\documents\artificial-fun\labravenprojecttest\common\misc\utils.h
;	COMDAT ??__EMinDouble@@YAXXZ
text$yc	SEGMENT
??__EMinDouble@@YAXXZ PROC				; `dynamic initializer for 'MinDouble'', COMDAT

; 25   : const double  MinDouble = (std::numeric_limits<double>::min)();

	push	ebp
	mov	ebp, esp
	call	?min@?$numeric_limits@N@std@@SANXZ	; std::numeric_limits<double>::min
	fstp	QWORD PTR _MinDouble
	cmp	ebp, esp
	call	__RTC_CheckEsp
	pop	ebp
	ret	0
??__EMinDouble@@YAXXZ ENDP				; `dynamic initializer for 'MinDouble''
text$yc	ENDS
PUBLIC	__real@0010000000000000
;	COMDAT __real@0010000000000000
; File c:\program files (x86)\microsoft visual studio 10.0\vc\include\limits
CONST	SEGMENT
__real@0010000000000000 DQ 00010000000000000r	; 2.22507e-308
; Function compile flags: /Odtp /RTCsu
CONST	ENDS
;	COMDAT ?min@?$numeric_limits@N@std@@SANXZ
_TEXT	SEGMENT
?min@?$numeric_limits@N@std@@SANXZ PROC			; std::numeric_limits<double>::min, COMDAT

; 1228 : 	static _Ty (__CRTDECL min)() _THROW0()

	push	ebp
	mov	ebp, esp

; 1229 : 		{	// return minimum value
; 1230 : 		return (DBL_MIN);

	fld	QWORD PTR __real@0010000000000000

; 1231 : 		}

	pop	ebp
	ret	0
?min@?$numeric_limits@N@std@@SANXZ ENDP			; std::numeric_limits<double>::min
_TEXT	ENDS
PUBLIC	?max@?$numeric_limits@M@std@@SAMXZ		; std::numeric_limits<float>::max
; Function compile flags: /Odtp /RTCsu
; File c:\users\teaja\documents\artificial-fun\labravenprojecttest\common\misc\utils.h
;	COMDAT ??__EMaxFloat@@YAXXZ
text$yc	SEGMENT
??__EMaxFloat@@YAXXZ PROC				; `dynamic initializer for 'MaxFloat'', COMDAT

; 26   : const float   MaxFloat  = (std::numeric_limits<float>::max)();

	push	ebp
	mov	ebp, esp
	call	?max@?$numeric_limits@M@std@@SAMXZ	; std::numeric_limits<float>::max
	fstp	DWORD PTR _MaxFloat
	cmp	ebp, esp
	call	__RTC_CheckEsp
	pop	ebp
	ret	0
??__EMaxFloat@@YAXXZ ENDP				; `dynamic initializer for 'MaxFloat''
text$yc	ENDS
PUBLIC	__real@7f7fffff
;	COMDAT __real@7f7fffff
; File c:\program files (x86)\microsoft visual studio 10.0\vc\include\limits
CONST	SEGMENT
__real@7f7fffff DD 07f7fffffr			; 3.40282e+038
; Function compile flags: /Odtp /RTCsu
CONST	ENDS
;	COMDAT ?max@?$numeric_limits@M@std@@SAMXZ
_TEXT	SEGMENT
?max@?$numeric_limits@M@std@@SAMXZ PROC			; std::numeric_limits<float>::max, COMDAT

; 1166 : 	static _Ty (__CRTDECL max)() _THROW0()

	push	ebp
	mov	ebp, esp

; 1167 : 		{	// return maximum value
; 1168 : 		return (FLT_MAX);

	fld	DWORD PTR __real@7f7fffff

; 1169 : 		}

	pop	ebp
	ret	0
?max@?$numeric_limits@M@std@@SAMXZ ENDP			; std::numeric_limits<float>::max
_TEXT	ENDS
PUBLIC	?min@?$numeric_limits@M@std@@SAMXZ		; std::numeric_limits<float>::min
; Function compile flags: /Odtp /RTCsu
; File c:\users\teaja\documents\artificial-fun\labravenprojecttest\common\misc\utils.h
;	COMDAT ??__EMinFloat@@YAXXZ
text$yc	SEGMENT
??__EMinFloat@@YAXXZ PROC				; `dynamic initializer for 'MinFloat'', COMDAT

; 27   : const float   MinFloat  = (std::numeric_limits<float>::min)();

	push	ebp
	mov	ebp, esp
	call	?min@?$numeric_limits@M@std@@SAMXZ	; std::numeric_limits<float>::min
	fstp	DWORD PTR _MinFloat
	cmp	ebp, esp
	call	__RTC_CheckEsp
	pop	ebp
	ret	0
??__EMinFloat@@YAXXZ ENDP				; `dynamic initializer for 'MinFloat''
text$yc	ENDS
PUBLIC	__real@00800000
;	COMDAT __real@00800000
; File c:\program files (x86)\microsoft visual studio 10.0\vc\include\limits
CONST	SEGMENT
__real@00800000 DD 000800000r			; 1.17549e-038
; Function compile flags: /Odtp /RTCsu
CONST	ENDS
;	COMDAT ?min@?$numeric_limits@M@std@@SAMXZ
_TEXT	SEGMENT
?min@?$numeric_limits@M@std@@SAMXZ PROC			; std::numeric_limits<float>::min, COMDAT

; 1161 : 	static _Ty (__CRTDECL min)() _THROW0()

	push	ebp
	mov	ebp, esp

; 1162 : 		{	// return minimum value
; 1163 : 		return (FLT_MIN);

	fld	DWORD PTR __real@00800000

; 1164 : 		}

	pop	ebp
	ret	0
?min@?$numeric_limits@M@std@@SAMXZ ENDP			; std::numeric_limits<float>::min
; Function compile flags: /Odtp /RTCsu
; File c:\users\teaja\documents\artificial-fun\labravenprojecttest\common\misc\utils.h
_TEXT	ENDS
;	COMDAT ??__ETwoPi@@YAXXZ
text$yc	SEGMENT
??__ETwoPi@@YAXXZ PROC					; `dynamic initializer for 'TwoPi'', COMDAT

; 30   : const double   TwoPi     = Pi * 2;

	push	ebp
	mov	ebp, esp
	fld	QWORD PTR _Pi
	fadd	ST(0), ST(0)
	fstp	QWORD PTR _TwoPi
	pop	ebp
	ret	0
??__ETwoPi@@YAXXZ ENDP					; `dynamic initializer for 'TwoPi''
; Function compile flags: /Odtp /RTCsu
text$yc	ENDS
;	COMDAT ??__EHalfPi@@YAXXZ
text$yc	SEGMENT
??__EHalfPi@@YAXXZ PROC					; `dynamic initializer for 'HalfPi'', COMDAT

; 31   : const double   HalfPi    = Pi / 2;

	push	ebp
	mov	ebp, esp
	fld	QWORD PTR _Pi
	fdiv	QWORD PTR __real@4000000000000000
	fstp	QWORD PTR _HalfPi
	pop	ebp
	ret	0
??__EHalfPi@@YAXXZ ENDP					; `dynamic initializer for 'HalfPi''
text$yc	ENDS
PUBLIC	__real@4010000000000000
;	COMDAT __real@4010000000000000
CONST	SEGMENT
__real@4010000000000000 DQ 04010000000000000r	; 4
; Function compile flags: /Odtp /RTCsu
CONST	ENDS
;	COMDAT ??__EQuarterPi@@YAXXZ
text$yc	SEGMENT
??__EQuarterPi@@YAXXZ PROC				; `dynamic initializer for 'QuarterPi'', COMDAT

; 32   : const double   QuarterPi = Pi / 4;

	push	ebp
	mov	ebp, esp
	fld	QWORD PTR _Pi
	fdiv	QWORD PTR __real@4010000000000000
	fstp	QWORD PTR _QuarterPi
	pop	ebp
	ret	0
??__EQuarterPi@@YAXXZ ENDP				; `dynamic initializer for 'QuarterPi''
text$yc	ENDS
PUBLIC	??0id@locale@std@@QAE@I@Z			; std::locale::id::id
; Function compile flags: /Odtp /RTCsu
; File c:\program files (x86)\microsoft visual studio 10.0\vc\include\xlocnum
;	COMDAT ??__E?id@?$num_put@DV?$ostreambuf_iterator@DU?$char_traits@D@std@@@std@@@std@@2V0locale@2@A@@YAXXZ
text$yc	SEGMENT
??__E?id@?$num_put@DV?$ostreambuf_iterator@DU?$char_traits@D@std@@@std@@@std@@2V0locale@2@A@@YAXXZ PROC ; `dynamic initializer for 'std::num_put<char,std::ostreambuf_iterator<char,std::char_traits<char> > >::id'', COMDAT

; 1578 : 	__PURE_APPDOMAIN_GLOBAL locale::id num_put<_Elem, _OutIt>::id;

	push	ebp
	mov	ebp, esp
	push	0
	mov	ecx, OFFSET ?id@?$num_put@DV?$ostreambuf_iterator@DU?$char_traits@D@std@@@std@@@std@@2V0locale@2@A ; std::num_put<char,std::ostreambuf_iterator<char,std::char_traits<char> > >::id
	call	??0id@locale@std@@QAE@I@Z		; std::locale::id::id
	cmp	ebp, esp
	call	__RTC_CheckEsp
	pop	ebp
	ret	0
??__E?id@?$num_put@DV?$ostreambuf_iterator@DU?$char_traits@D@std@@@std@@@std@@2V0locale@2@A@@YAXXZ ENDP ; `dynamic initializer for 'std::num_put<char,std::ostreambuf_iterator<char,std::char_traits<char> > >::id''
; Function compile flags: /Odtp /RTCsu
; File c:\program files (x86)\microsoft visual studio 10.0\vc\include\xlocale
text$yc	ENDS
;	COMDAT ??0id@locale@std@@QAE@I@Z
_TEXT	SEGMENT
_this$ = -4						; size = 4
__Val$ = 8						; size = 4
??0id@locale@std@@QAE@I@Z PROC				; std::locale::id::id, COMDAT
; _this$ = ecx

; 71   : 			{	// construct with specified stamp value

	push	ebp
	mov	ebp, esp
	push	ecx
	mov	DWORD PTR [ebp-4], -858993460		; ccccccccH
	mov	DWORD PTR _this$[ebp], ecx
	mov	eax, DWORD PTR _this$[ebp]
	mov	ecx, DWORD PTR __Val$[ebp]
	mov	DWORD PTR [eax], ecx

; 72   : 			}

	mov	eax, DWORD PTR _this$[ebp]
	mov	esp, ebp
	pop	ebp
	ret	4
??0id@locale@std@@QAE@I@Z ENDP				; std::locale::id::id
; Function compile flags: /Odtp /RTCsu
; File c:\program files (x86)\microsoft visual studio 10.0\vc\include\xlocnum
_TEXT	ENDS
;	COMDAT ??__E?id@?$num_get@DV?$istreambuf_iterator@DU?$char_traits@D@std@@@std@@@std@@2V0locale@2@A@@YAXXZ
text$yc	SEGMENT
??__E?id@?$num_get@DV?$istreambuf_iterator@DU?$char_traits@D@std@@@std@@@std@@2V0locale@2@A@@YAXXZ PROC ; `dynamic initializer for 'std::num_get<char,std::istreambuf_iterator<char,std::char_traits<char> > >::id'', COMDAT

; 1036 : 	__PURE_APPDOMAIN_GLOBAL locale::id num_get<_Elem, _InIt>::id;

	push	ebp
	mov	ebp, esp
	push	0
	mov	ecx, OFFSET ?id@?$num_get@DV?$istreambuf_iterator@DU?$char_traits@D@std@@@std@@@std@@2V0locale@2@A ; std::num_get<char,std::istreambuf_iterator<char,std::char_traits<char> > >::id
	call	??0id@locale@std@@QAE@I@Z		; std::locale::id::id
	cmp	ebp, esp
	call	__RTC_CheckEsp
	pop	ebp
	ret	0
??__E?id@?$num_get@DV?$istreambuf_iterator@DU?$char_traits@D@std@@@std@@@std@@2V0locale@2@A@@YAXXZ ENDP ; `dynamic initializer for 'std::num_get<char,std::istreambuf_iterator<char,std::char_traits<char> > >::id''
; Function compile flags: /Odtp /RTCsu
; File c:\program files (x86)\microsoft visual studio 10.0\vc\include\xlocale
text$yc	ENDS
;	COMDAT ??__E?id@?$codecvt@DDH@std@@2V0locale@2@A@@YAXXZ
text$yc	SEGMENT
??__E?id@?$codecvt@DDH@std@@2V0locale@2@A@@YAXXZ PROC	; `dynamic initializer for 'std::codecvt<char,char,int>::id'', COMDAT

; 900  : 	__PURE_APPDOMAIN_GLOBAL locale::id codecvt<_Elem, _Byte, _Statype>::id;

	push	ebp
	mov	ebp, esp
	push	0
	mov	ecx, OFFSET ?id@?$codecvt@DDH@std@@2V0locale@2@A ; std::codecvt<char,char,int>::id
	call	??0id@locale@std@@QAE@I@Z		; std::locale::id::id
	cmp	ebp, esp
	call	__RTC_CheckEsp
	pop	ebp
	ret	0
??__E?id@?$codecvt@DDH@std@@2V0locale@2@A@@YAXXZ ENDP	; `dynamic initializer for 'std::codecvt<char,char,int>::id''
; Function compile flags: /Odtp /RTCsu
; File c:\program files (x86)\microsoft visual studio 10.0\vc\include\xlocnum
text$yc	ENDS
;	COMDAT ??__E?id@?$numpunct@D@std@@2V0locale@2@A@@YAXXZ
text$yc	SEGMENT
??__E?id@?$numpunct@D@std@@2V0locale@2@A@@YAXXZ PROC	; `dynamic initializer for 'std::numpunct<char>::id'', COMDAT

; 228  : 	__PURE_APPDOMAIN_GLOBAL locale::id numpunct<_Elem>::id;

	push	ebp
	mov	ebp, esp
	push	0
	mov	ecx, OFFSET ?id@?$numpunct@D@std@@2V0locale@2@A ; std::numpunct<char>::id
	call	??0id@locale@std@@QAE@I@Z		; std::locale::id::id
	cmp	ebp, esp
	call	__RTC_CheckEsp
	pop	ebp
	ret	0
??__E?id@?$numpunct@D@std@@2V0locale@2@A@@YAXXZ ENDP	; `dynamic initializer for 'std::numpunct<char>::id''
text$yc	ENDS
PUBLIC	?id@?$num_put@DV?$ostreambuf_iterator@DU?$char_traits@D@std@@@std@@@std@@2V0locale@2@A ; std::num_put<char,std::ostreambuf_iterator<char,std::char_traits<char> > >::id
PUBLIC	?id@?$numpunct@D@std@@2V0locale@2@A		; std::numpunct<char>::id
PUBLIC	?id@?$num_get@DV?$istreambuf_iterator@DU?$char_traits@D@std@@@std@@@std@@2V0locale@2@A ; std::num_get<char,std::istreambuf_iterator<char,std::char_traits<char> > >::id
PUBLIC	?id@?$codecvt@DDH@std@@2V0locale@2@A		; std::codecvt<char,char,int>::id
_BSS	SEGMENT
_MinDouble DQ	01H DUP (?)
_MaxFloat DD	01H DUP (?)
_MinFloat DD	01H DUP (?)
_TwoPi	DQ	01H DUP (?)
_BSS	ENDS
;	COMDAT ?id@?$num_put@DV?$ostreambuf_iterator@DU?$char_traits@D@std@@@std@@@std@@2V0locale@2@A
_BSS	SEGMENT
?id@?$num_put@DV?$ostreambuf_iterator@DU?$char_traits@D@std@@@std@@@std@@2V0locale@2@A DD 01H DUP (?) ; std::num_put<char,std::ostreambuf_iterator<char,std::char_traits<char> > >::id
_BSS	ENDS
_BSS	SEGMENT
_MaxInt	DD	01H DUP (?)
	ALIGN	8

_HalfPi	DQ	01H DUP (?)
_BSS	ENDS
;	COMDAT ?id@?$numpunct@D@std@@2V0locale@2@A
_BSS	SEGMENT
?id@?$numpunct@D@std@@2V0locale@2@A DD 01H DUP (?)	; std::numpunct<char>::id
_BSS	ENDS
_BSS	SEGMENT
_MaxDouble DQ	01H DUP (?)
_QuarterPi DQ	01H DUP (?)
_BSS	ENDS
;	COMDAT ?id@?$num_get@DV?$istreambuf_iterator@DU?$char_traits@D@std@@@std@@@std@@2V0locale@2@A
_BSS	SEGMENT
?id@?$num_get@DV?$istreambuf_iterator@DU?$char_traits@D@std@@@std@@@std@@2V0locale@2@A DD 01H DUP (?) ; std::num_get<char,std::istreambuf_iterator<char,std::char_traits<char> > >::id
_BSS	ENDS
;	COMDAT ?id@?$codecvt@DDH@std@@2V0locale@2@A
_BSS	SEGMENT
?id@?$codecvt@DDH@std@@2V0locale@2@A DD 01H DUP (?)	; std::codecvt<char,char,int>::id
_BSS	ENDS
CRT$XCU	SEGMENT
_MaxInt$initializer$ DD FLAT:??__EMaxInt@@YAXXZ
_MaxDouble$initializer$ DD FLAT:??__EMaxDouble@@YAXXZ
_MinDouble$initializer$ DD FLAT:??__EMinDouble@@YAXXZ
_MaxFloat$initializer$ DD FLAT:??__EMaxFloat@@YAXXZ
_MinFloat$initializer$ DD FLAT:??__EMinFloat@@YAXXZ
_TwoPi$initializer$ DD FLAT:??__ETwoPi@@YAXXZ
_HalfPi$initializer$ DD FLAT:??__EHalfPi@@YAXXZ
_QuarterPi$initializer$ DD FLAT:??__EQuarterPi@@YAXXZ
CRT$XCU	ENDS
;	COMDAT CRT$XCU
CRT$XCU	SEGMENT
?id$initializer$@?$num_put@DV?$ostreambuf_iterator@DU?$char_traits@D@std@@@std@@@std@@2P6AXXZA DD FLAT:??__E?id@?$num_put@DV?$ostreambuf_iterator@DU?$char_traits@D@std@@@std@@@std@@2V0locale@2@A@@YAXXZ ; std::num_put<char,std::ostreambuf_iterator<char,std::char_traits<char> > >::id$initializer$
CRT$XCU	ENDS
;	COMDAT CRT$XCU
CRT$XCU	SEGMENT
?id$initializer$@?$num_get@DV?$istreambuf_iterator@DU?$char_traits@D@std@@@std@@@std@@2P6AXXZA DD FLAT:??__E?id@?$num_get@DV?$istreambuf_iterator@DU?$char_traits@D@std@@@std@@@std@@2V0locale@2@A@@YAXXZ ; std::num_get<char,std::istreambuf_iterator<char,std::char_traits<char> > >::id$initializer$
CRT$XCU	ENDS
;	COMDAT CRT$XCU
CRT$XCU	SEGMENT
?id$initializer$@?$codecvt@DDH@std@@2P6AXXZA DD FLAT:??__E?id@?$codecvt@DDH@std@@2V0locale@2@A@@YAXXZ ; std::codecvt<char,char,int>::id$initializer$
CRT$XCU	ENDS
;	COMDAT CRT$XCU
CRT$XCU	SEGMENT
?id$initializer$@?$numpunct@D@std@@2P6AXXZA DD FLAT:??__E?id@?$numpunct@D@std@@2V0locale@2@A@@YAXXZ ; std::numpunct<char>::id$initializer$
CRT$XCU	ENDS
END
