; Listing generated by Microsoft (R) Optimizing Compiler Version 16.00.40219.01 

	TITLE	C:\Users\Teaja\Documents\Artificial-Fun\LabRavenProjectTest\Raven\AbstWeaponSystem.cpp
	.686P
	.XMM
	include listing.inc
	.model	flat

INCLUDELIB LIBCMTD
INCLUDELIB OLDNAMES

PUBLIC	?has_denorm@_Num_base@std@@2W4float_denorm_style@2@B ; std::_Num_base::has_denorm
PUBLIC	?has_denorm_loss@_Num_base@std@@2_NB		; std::_Num_base::has_denorm_loss
PUBLIC	?has_infinity@_Num_base@std@@2_NB		; std::_Num_base::has_infinity
PUBLIC	?has_quiet_NaN@_Num_base@std@@2_NB		; std::_Num_base::has_quiet_NaN
PUBLIC	?has_signaling_NaN@_Num_base@std@@2_NB		; std::_Num_base::has_signaling_NaN
PUBLIC	?is_bounded@_Num_base@std@@2_NB			; std::_Num_base::is_bounded
PUBLIC	?is_exact@_Num_base@std@@2_NB			; std::_Num_base::is_exact
PUBLIC	?is_iec559@_Num_base@std@@2_NB			; std::_Num_base::is_iec559
PUBLIC	?is_integer@_Num_base@std@@2_NB			; std::_Num_base::is_integer
PUBLIC	?is_modulo@_Num_base@std@@2_NB			; std::_Num_base::is_modulo
PUBLIC	?is_signed@_Num_base@std@@2_NB			; std::_Num_base::is_signed
PUBLIC	?is_specialized@_Num_base@std@@2_NB		; std::_Num_base::is_specialized
PUBLIC	?tinyness_before@_Num_base@std@@2_NB		; std::_Num_base::tinyness_before
PUBLIC	?traps@_Num_base@std@@2_NB			; std::_Num_base::traps
PUBLIC	?round_style@_Num_base@std@@2W4float_round_style@2@B ; std::_Num_base::round_style
PUBLIC	?digits@_Num_base@std@@2HB			; std::_Num_base::digits
PUBLIC	?digits10@_Num_base@std@@2HB			; std::_Num_base::digits10
PUBLIC	?max_digits10@_Num_base@std@@2HB		; std::_Num_base::max_digits10
PUBLIC	?max_exponent@_Num_base@std@@2HB		; std::_Num_base::max_exponent
PUBLIC	?max_exponent10@_Num_base@std@@2HB		; std::_Num_base::max_exponent10
PUBLIC	?min_exponent@_Num_base@std@@2HB		; std::_Num_base::min_exponent
PUBLIC	?min_exponent10@_Num_base@std@@2HB		; std::_Num_base::min_exponent10
PUBLIC	?radix@_Num_base@std@@2HB			; std::_Num_base::radix
PUBLIC	?is_bounded@_Num_int_base@std@@2_NB		; std::_Num_int_base::is_bounded
PUBLIC	?is_exact@_Num_int_base@std@@2_NB		; std::_Num_int_base::is_exact
PUBLIC	?is_integer@_Num_int_base@std@@2_NB		; std::_Num_int_base::is_integer
PUBLIC	?is_modulo@_Num_int_base@std@@2_NB		; std::_Num_int_base::is_modulo
PUBLIC	?is_specialized@_Num_int_base@std@@2_NB		; std::_Num_int_base::is_specialized
PUBLIC	?radix@_Num_int_base@std@@2HB			; std::_Num_int_base::radix
PUBLIC	?has_denorm@_Num_float_base@std@@2W4float_denorm_style@2@B ; std::_Num_float_base::has_denorm
PUBLIC	?has_denorm_loss@_Num_float_base@std@@2_NB	; std::_Num_float_base::has_denorm_loss
PUBLIC	?has_infinity@_Num_float_base@std@@2_NB		; std::_Num_float_base::has_infinity
PUBLIC	?has_quiet_NaN@_Num_float_base@std@@2_NB	; std::_Num_float_base::has_quiet_NaN
PUBLIC	?has_signaling_NaN@_Num_float_base@std@@2_NB	; std::_Num_float_base::has_signaling_NaN
PUBLIC	?is_bounded@_Num_float_base@std@@2_NB		; std::_Num_float_base::is_bounded
PUBLIC	?is_exact@_Num_float_base@std@@2_NB		; std::_Num_float_base::is_exact
PUBLIC	?is_iec559@_Num_float_base@std@@2_NB		; std::_Num_float_base::is_iec559
PUBLIC	?is_integer@_Num_float_base@std@@2_NB		; std::_Num_float_base::is_integer
PUBLIC	?is_modulo@_Num_float_base@std@@2_NB		; std::_Num_float_base::is_modulo
PUBLIC	?is_signed@_Num_float_base@std@@2_NB		; std::_Num_float_base::is_signed
PUBLIC	?is_specialized@_Num_float_base@std@@2_NB	; std::_Num_float_base::is_specialized
PUBLIC	?tinyness_before@_Num_float_base@std@@2_NB	; std::_Num_float_base::tinyness_before
PUBLIC	?traps@_Num_float_base@std@@2_NB		; std::_Num_float_base::traps
PUBLIC	?round_style@_Num_float_base@std@@2W4float_round_style@2@B ; std::_Num_float_base::round_style
PUBLIC	?radix@_Num_float_base@std@@2HB			; std::_Num_float_base::radix
PUBLIC	?is_signed@?$numeric_limits@D@std@@2_NB		; std::numeric_limits<char>::is_signed
PUBLIC	?digits@?$numeric_limits@D@std@@2HB		; std::numeric_limits<char>::digits
PUBLIC	?digits10@?$numeric_limits@D@std@@2HB		; std::numeric_limits<char>::digits10
PUBLIC	?max_digits10@?$numeric_limits@D@std@@2HB	; std::numeric_limits<char>::max_digits10
PUBLIC	?is_signed@?$numeric_limits@_W@std@@2_NB	; std::numeric_limits<wchar_t>::is_signed
PUBLIC	?digits@?$numeric_limits@_W@std@@2HB		; std::numeric_limits<wchar_t>::digits
PUBLIC	?digits10@?$numeric_limits@_W@std@@2HB		; std::numeric_limits<wchar_t>::digits10
PUBLIC	?max_digits10@?$numeric_limits@_W@std@@2HB	; std::numeric_limits<wchar_t>::max_digits10
PUBLIC	?is_modulo@?$numeric_limits@_N@std@@2_NB	; std::numeric_limits<bool>::is_modulo
PUBLIC	?is_signed@?$numeric_limits@_N@std@@2_NB	; std::numeric_limits<bool>::is_signed
PUBLIC	?digits@?$numeric_limits@_N@std@@2HB		; std::numeric_limits<bool>::digits
PUBLIC	?digits10@?$numeric_limits@_N@std@@2HB		; std::numeric_limits<bool>::digits10
PUBLIC	?max_digits10@?$numeric_limits@_N@std@@2HB	; std::numeric_limits<bool>::max_digits10
PUBLIC	?is_signed@?$numeric_limits@C@std@@2_NB		; std::numeric_limits<signed char>::is_signed
PUBLIC	?digits@?$numeric_limits@C@std@@2HB		; std::numeric_limits<signed char>::digits
PUBLIC	?digits10@?$numeric_limits@C@std@@2HB		; std::numeric_limits<signed char>::digits10
PUBLIC	?max_digits10@?$numeric_limits@C@std@@2HB	; std::numeric_limits<signed char>::max_digits10
PUBLIC	?is_signed@?$numeric_limits@E@std@@2_NB		; std::numeric_limits<unsigned char>::is_signed
PUBLIC	?digits@?$numeric_limits@E@std@@2HB		; std::numeric_limits<unsigned char>::digits
PUBLIC	?digits10@?$numeric_limits@E@std@@2HB		; std::numeric_limits<unsigned char>::digits10
PUBLIC	?max_digits10@?$numeric_limits@E@std@@2HB	; std::numeric_limits<unsigned char>::max_digits10
PUBLIC	?is_signed@?$numeric_limits@F@std@@2_NB		; std::numeric_limits<short>::is_signed
PUBLIC	?digits@?$numeric_limits@F@std@@2HB		; std::numeric_limits<short>::digits
PUBLIC	?digits10@?$numeric_limits@F@std@@2HB		; std::numeric_limits<short>::digits10
PUBLIC	?max_digits10@?$numeric_limits@F@std@@2HB	; std::numeric_limits<short>::max_digits10
PUBLIC	?is_signed@?$numeric_limits@G@std@@2_NB		; std::numeric_limits<unsigned short>::is_signed
PUBLIC	?digits@?$numeric_limits@G@std@@2HB		; std::numeric_limits<unsigned short>::digits
PUBLIC	?digits10@?$numeric_limits@G@std@@2HB		; std::numeric_limits<unsigned short>::digits10
PUBLIC	?max_digits10@?$numeric_limits@G@std@@2HB	; std::numeric_limits<unsigned short>::max_digits10
PUBLIC	?is_signed@?$numeric_limits@H@std@@2_NB		; std::numeric_limits<int>::is_signed
PUBLIC	?digits@?$numeric_limits@H@std@@2HB		; std::numeric_limits<int>::digits
PUBLIC	?digits10@?$numeric_limits@H@std@@2HB		; std::numeric_limits<int>::digits10
PUBLIC	?max_digits10@?$numeric_limits@H@std@@2HB	; std::numeric_limits<int>::max_digits10
PUBLIC	?is_signed@?$numeric_limits@I@std@@2_NB		; std::numeric_limits<unsigned int>::is_signed
PUBLIC	?digits@?$numeric_limits@I@std@@2HB		; std::numeric_limits<unsigned int>::digits
PUBLIC	?digits10@?$numeric_limits@I@std@@2HB		; std::numeric_limits<unsigned int>::digits10
PUBLIC	?max_digits10@?$numeric_limits@I@std@@2HB	; std::numeric_limits<unsigned int>::max_digits10
PUBLIC	?is_signed@?$numeric_limits@J@std@@2_NB		; std::numeric_limits<long>::is_signed
PUBLIC	?digits@?$numeric_limits@J@std@@2HB		; std::numeric_limits<long>::digits
PUBLIC	?digits10@?$numeric_limits@J@std@@2HB		; std::numeric_limits<long>::digits10
PUBLIC	?max_digits10@?$numeric_limits@J@std@@2HB	; std::numeric_limits<long>::max_digits10
PUBLIC	?is_signed@?$numeric_limits@K@std@@2_NB		; std::numeric_limits<unsigned long>::is_signed
PUBLIC	?digits@?$numeric_limits@K@std@@2HB		; std::numeric_limits<unsigned long>::digits
PUBLIC	?digits10@?$numeric_limits@K@std@@2HB		; std::numeric_limits<unsigned long>::digits10
PUBLIC	?max_digits10@?$numeric_limits@K@std@@2HB	; std::numeric_limits<unsigned long>::max_digits10
PUBLIC	?is_signed@?$numeric_limits@_J@std@@2_NB	; std::numeric_limits<__int64>::is_signed
PUBLIC	?digits@?$numeric_limits@_J@std@@2HB		; std::numeric_limits<__int64>::digits
PUBLIC	?digits10@?$numeric_limits@_J@std@@2HB		; std::numeric_limits<__int64>::digits10
PUBLIC	?max_digits10@?$numeric_limits@_J@std@@2HB	; std::numeric_limits<__int64>::max_digits10
PUBLIC	?is_signed@?$numeric_limits@_K@std@@2_NB	; std::numeric_limits<unsigned __int64>::is_signed
PUBLIC	?digits@?$numeric_limits@_K@std@@2HB		; std::numeric_limits<unsigned __int64>::digits
PUBLIC	?digits10@?$numeric_limits@_K@std@@2HB		; std::numeric_limits<unsigned __int64>::digits10
PUBLIC	?max_digits10@?$numeric_limits@_K@std@@2HB	; std::numeric_limits<unsigned __int64>::max_digits10
PUBLIC	?digits@?$numeric_limits@M@std@@2HB		; std::numeric_limits<float>::digits
PUBLIC	?digits10@?$numeric_limits@M@std@@2HB		; std::numeric_limits<float>::digits10
PUBLIC	?max_digits10@?$numeric_limits@M@std@@2HB	; std::numeric_limits<float>::max_digits10
PUBLIC	?max_exponent@?$numeric_limits@M@std@@2HB	; std::numeric_limits<float>::max_exponent
PUBLIC	?max_exponent10@?$numeric_limits@M@std@@2HB	; std::numeric_limits<float>::max_exponent10
PUBLIC	?min_exponent@?$numeric_limits@M@std@@2HB	; std::numeric_limits<float>::min_exponent
PUBLIC	?min_exponent10@?$numeric_limits@M@std@@2HB	; std::numeric_limits<float>::min_exponent10
PUBLIC	?digits@?$numeric_limits@N@std@@2HB		; std::numeric_limits<double>::digits
PUBLIC	?digits10@?$numeric_limits@N@std@@2HB		; std::numeric_limits<double>::digits10
PUBLIC	?max_digits10@?$numeric_limits@N@std@@2HB	; std::numeric_limits<double>::max_digits10
PUBLIC	?max_exponent@?$numeric_limits@N@std@@2HB	; std::numeric_limits<double>::max_exponent
PUBLIC	?max_exponent10@?$numeric_limits@N@std@@2HB	; std::numeric_limits<double>::max_exponent10
PUBLIC	?min_exponent@?$numeric_limits@N@std@@2HB	; std::numeric_limits<double>::min_exponent
PUBLIC	?min_exponent10@?$numeric_limits@N@std@@2HB	; std::numeric_limits<double>::min_exponent10
PUBLIC	?digits@?$numeric_limits@O@std@@2HB		; std::numeric_limits<long double>::digits
PUBLIC	?digits10@?$numeric_limits@O@std@@2HB		; std::numeric_limits<long double>::digits10
PUBLIC	?max_digits10@?$numeric_limits@O@std@@2HB	; std::numeric_limits<long double>::max_digits10
PUBLIC	?max_exponent@?$numeric_limits@O@std@@2HB	; std::numeric_limits<long double>::max_exponent
PUBLIC	?max_exponent10@?$numeric_limits@O@std@@2HB	; std::numeric_limits<long double>::max_exponent10
PUBLIC	?min_exponent@?$numeric_limits@O@std@@2HB	; std::numeric_limits<long double>::min_exponent
PUBLIC	?min_exponent10@?$numeric_limits@O@std@@2HB	; std::numeric_limits<long double>::min_exponent10
PUBLIC	?value@?$integral_constant@_N$0A@@tr1@std@@2_NB	; std::tr1::integral_constant<bool,0>::value
PUBLIC	?value@?$integral_constant@_N$00@tr1@std@@2_NB	; std::tr1::integral_constant<bool,1>::value
PUBLIC	?value@?$integral_constant@I$0A@@tr1@std@@2IB	; std::tr1::integral_constant<unsigned int,0>::value
PUBLIC	?_Rank@?$_Arithmetic_traits@_N@std@@2HB		; std::_Arithmetic_traits<bool>::_Rank
PUBLIC	?_Rank@?$_Arithmetic_traits@D@std@@2HB		; std::_Arithmetic_traits<char>::_Rank
PUBLIC	?_Rank@?$_Arithmetic_traits@C@std@@2HB		; std::_Arithmetic_traits<signed char>::_Rank
PUBLIC	?_Rank@?$_Arithmetic_traits@E@std@@2HB		; std::_Arithmetic_traits<unsigned char>::_Rank
PUBLIC	?_Rank@?$_Arithmetic_traits@F@std@@2HB		; std::_Arithmetic_traits<short>::_Rank
PUBLIC	?_Rank@?$_Arithmetic_traits@G@std@@2HB		; std::_Arithmetic_traits<unsigned short>::_Rank
PUBLIC	?_Rank@?$_Arithmetic_traits@H@std@@2HB		; std::_Arithmetic_traits<int>::_Rank
PUBLIC	?_Rank@?$_Arithmetic_traits@I@std@@2HB		; std::_Arithmetic_traits<unsigned int>::_Rank
PUBLIC	?_Rank@?$_Arithmetic_traits@J@std@@2HB		; std::_Arithmetic_traits<long>::_Rank
PUBLIC	?_Rank@?$_Arithmetic_traits@K@std@@2HB		; std::_Arithmetic_traits<unsigned long>::_Rank
PUBLIC	?_Rank@?$_Arithmetic_traits@_J@std@@2HB		; std::_Arithmetic_traits<__int64>::_Rank
PUBLIC	?_Rank@?$_Arithmetic_traits@_K@std@@2HB		; std::_Arithmetic_traits<unsigned __int64>::_Rank
PUBLIC	?_Rank@?$_Arithmetic_traits@M@std@@2HB		; std::_Arithmetic_traits<float>::_Rank
PUBLIC	?_Rank@?$_Arithmetic_traits@N@std@@2HB		; std::_Arithmetic_traits<double>::_Rank
PUBLIC	?_Rank@?$_Arithmetic_traits@O@std@@2HB		; std::_Arithmetic_traits<long double>::_Rank
PUBLIC	?collate@?$_Locbase@H@std@@2HB			; std::_Locbase<int>::collate
PUBLIC	?ctype@?$_Locbase@H@std@@2HB			; std::_Locbase<int>::ctype
PUBLIC	?monetary@?$_Locbase@H@std@@2HB			; std::_Locbase<int>::monetary
PUBLIC	?numeric@?$_Locbase@H@std@@2HB			; std::_Locbase<int>::numeric
PUBLIC	?time@?$_Locbase@H@std@@2HB			; std::_Locbase<int>::time
PUBLIC	?messages@?$_Locbase@H@std@@2HB			; std::_Locbase<int>::messages
PUBLIC	?all@?$_Locbase@H@std@@2HB			; std::_Locbase<int>::all
PUBLIC	?none@?$_Locbase@H@std@@2HB			; std::_Locbase<int>::none
PUBLIC	?table_size@?$ctype@D@std@@2IB			; std::ctype<char>::table_size
PUBLIC	?skipws@?$_Iosb@H@std@@2W4_Fmtflags@12@B	; std::_Iosb<int>::skipws
PUBLIC	?unitbuf@?$_Iosb@H@std@@2W4_Fmtflags@12@B	; std::_Iosb<int>::unitbuf
PUBLIC	?uppercase@?$_Iosb@H@std@@2W4_Fmtflags@12@B	; std::_Iosb<int>::uppercase
PUBLIC	?showbase@?$_Iosb@H@std@@2W4_Fmtflags@12@B	; std::_Iosb<int>::showbase
PUBLIC	?showpoint@?$_Iosb@H@std@@2W4_Fmtflags@12@B	; std::_Iosb<int>::showpoint
PUBLIC	?showpos@?$_Iosb@H@std@@2W4_Fmtflags@12@B	; std::_Iosb<int>::showpos
PUBLIC	?left@?$_Iosb@H@std@@2W4_Fmtflags@12@B		; std::_Iosb<int>::left
PUBLIC	?right@?$_Iosb@H@std@@2W4_Fmtflags@12@B		; std::_Iosb<int>::right
PUBLIC	?internal@?$_Iosb@H@std@@2W4_Fmtflags@12@B	; std::_Iosb<int>::internal
PUBLIC	?dec@?$_Iosb@H@std@@2W4_Fmtflags@12@B		; std::_Iosb<int>::dec
PUBLIC	?oct@?$_Iosb@H@std@@2W4_Fmtflags@12@B		; std::_Iosb<int>::oct
PUBLIC	?hex@?$_Iosb@H@std@@2W4_Fmtflags@12@B		; std::_Iosb<int>::hex
PUBLIC	?scientific@?$_Iosb@H@std@@2W4_Fmtflags@12@B	; std::_Iosb<int>::scientific
PUBLIC	?fixed@?$_Iosb@H@std@@2W4_Fmtflags@12@B		; std::_Iosb<int>::fixed
PUBLIC	?hexfloat@?$_Iosb@H@std@@2W4_Fmtflags@12@B	; std::_Iosb<int>::hexfloat
PUBLIC	?boolalpha@?$_Iosb@H@std@@2W4_Fmtflags@12@B	; std::_Iosb<int>::boolalpha
PUBLIC	?_Stdio@?$_Iosb@H@std@@2W4_Fmtflags@12@B	; std::_Iosb<int>::_Stdio
PUBLIC	?adjustfield@?$_Iosb@H@std@@2W4_Fmtflags@12@B	; std::_Iosb<int>::adjustfield
PUBLIC	?basefield@?$_Iosb@H@std@@2W4_Fmtflags@12@B	; std::_Iosb<int>::basefield
PUBLIC	?floatfield@?$_Iosb@H@std@@2W4_Fmtflags@12@B	; std::_Iosb<int>::floatfield
PUBLIC	?goodbit@?$_Iosb@H@std@@2W4_Iostate@12@B	; std::_Iosb<int>::goodbit
PUBLIC	?eofbit@?$_Iosb@H@std@@2W4_Iostate@12@B		; std::_Iosb<int>::eofbit
PUBLIC	?failbit@?$_Iosb@H@std@@2W4_Iostate@12@B	; std::_Iosb<int>::failbit
PUBLIC	?badbit@?$_Iosb@H@std@@2W4_Iostate@12@B		; std::_Iosb<int>::badbit
PUBLIC	?_Hardfail@?$_Iosb@H@std@@2W4_Iostate@12@B	; std::_Iosb<int>::_Hardfail
PUBLIC	?in@?$_Iosb@H@std@@2W4_Openmode@12@B		; std::_Iosb<int>::in
PUBLIC	?out@?$_Iosb@H@std@@2W4_Openmode@12@B		; std::_Iosb<int>::out
PUBLIC	?ate@?$_Iosb@H@std@@2W4_Openmode@12@B		; std::_Iosb<int>::ate
PUBLIC	?app@?$_Iosb@H@std@@2W4_Openmode@12@B		; std::_Iosb<int>::app
PUBLIC	?trunc@?$_Iosb@H@std@@2W4_Openmode@12@B		; std::_Iosb<int>::trunc
PUBLIC	?_Nocreate@?$_Iosb@H@std@@2W4_Openmode@12@B	; std::_Iosb<int>::_Nocreate
PUBLIC	?_Noreplace@?$_Iosb@H@std@@2W4_Openmode@12@B	; std::_Iosb<int>::_Noreplace
PUBLIC	?binary@?$_Iosb@H@std@@2W4_Openmode@12@B	; std::_Iosb<int>::binary
PUBLIC	?beg@?$_Iosb@H@std@@2W4_Seekdir@12@B		; std::_Iosb<int>::beg
PUBLIC	?cur@?$_Iosb@H@std@@2W4_Seekdir@12@B		; std::_Iosb<int>::cur
PUBLIC	?end@?$_Iosb@H@std@@2W4_Seekdir@12@B		; std::_Iosb<int>::end
CONST	SEGMENT
_Pi	DQ	0400921f9f01b866er		; 3.14159
_pi	DQ	0400921f9f01b866er		; 3.14159
_colors	DD	0ffH
	DD	0ff0000H
	DD	0ff00H
	DD	00H
	DD	0c8c8ffH
	DD	0c8c8c8H
	DD	0ffffH
	DD	0aaffH
	DD	0aa00ffH
	DD	05a85H
	DD	0ffffffH
	DD	06400H
	DD	0ffff00H
	DD	0c8c8c8H
	DD	0e6e6ffH
$SG137851 DB	' ', 00H
CONST	ENDS
;	COMDAT ?end@?$_Iosb@H@std@@2W4_Seekdir@12@B
CONST	SEGMENT
?end@?$_Iosb@H@std@@2W4_Seekdir@12@B DD 02H		; std::_Iosb<int>::end
CONST	ENDS
;	COMDAT ?cur@?$_Iosb@H@std@@2W4_Seekdir@12@B
CONST	SEGMENT
?cur@?$_Iosb@H@std@@2W4_Seekdir@12@B DD 01H		; std::_Iosb<int>::cur
CONST	ENDS
;	COMDAT ?beg@?$_Iosb@H@std@@2W4_Seekdir@12@B
CONST	SEGMENT
?beg@?$_Iosb@H@std@@2W4_Seekdir@12@B DD 00H		; std::_Iosb<int>::beg
CONST	ENDS
;	COMDAT ?binary@?$_Iosb@H@std@@2W4_Openmode@12@B
CONST	SEGMENT
?binary@?$_Iosb@H@std@@2W4_Openmode@12@B DD 020H	; std::_Iosb<int>::binary
CONST	ENDS
;	COMDAT ?_Noreplace@?$_Iosb@H@std@@2W4_Openmode@12@B
CONST	SEGMENT
?_Noreplace@?$_Iosb@H@std@@2W4_Openmode@12@B DD 080H	; std::_Iosb<int>::_Noreplace
CONST	ENDS
;	COMDAT ?_Nocreate@?$_Iosb@H@std@@2W4_Openmode@12@B
CONST	SEGMENT
?_Nocreate@?$_Iosb@H@std@@2W4_Openmode@12@B DD 040H	; std::_Iosb<int>::_Nocreate
CONST	ENDS
;	COMDAT ?trunc@?$_Iosb@H@std@@2W4_Openmode@12@B
CONST	SEGMENT
?trunc@?$_Iosb@H@std@@2W4_Openmode@12@B DD 010H		; std::_Iosb<int>::trunc
CONST	ENDS
;	COMDAT ?app@?$_Iosb@H@std@@2W4_Openmode@12@B
CONST	SEGMENT
?app@?$_Iosb@H@std@@2W4_Openmode@12@B DD 08H		; std::_Iosb<int>::app
CONST	ENDS
;	COMDAT ?ate@?$_Iosb@H@std@@2W4_Openmode@12@B
CONST	SEGMENT
?ate@?$_Iosb@H@std@@2W4_Openmode@12@B DD 04H		; std::_Iosb<int>::ate
CONST	ENDS
;	COMDAT ?out@?$_Iosb@H@std@@2W4_Openmode@12@B
CONST	SEGMENT
?out@?$_Iosb@H@std@@2W4_Openmode@12@B DD 02H		; std::_Iosb<int>::out
CONST	ENDS
;	COMDAT ?in@?$_Iosb@H@std@@2W4_Openmode@12@B
CONST	SEGMENT
?in@?$_Iosb@H@std@@2W4_Openmode@12@B DD 01H		; std::_Iosb<int>::in
CONST	ENDS
;	COMDAT ?_Hardfail@?$_Iosb@H@std@@2W4_Iostate@12@B
CONST	SEGMENT
?_Hardfail@?$_Iosb@H@std@@2W4_Iostate@12@B DD 010H	; std::_Iosb<int>::_Hardfail
CONST	ENDS
;	COMDAT ?badbit@?$_Iosb@H@std@@2W4_Iostate@12@B
CONST	SEGMENT
?badbit@?$_Iosb@H@std@@2W4_Iostate@12@B DD 04H		; std::_Iosb<int>::badbit
CONST	ENDS
;	COMDAT ?failbit@?$_Iosb@H@std@@2W4_Iostate@12@B
CONST	SEGMENT
?failbit@?$_Iosb@H@std@@2W4_Iostate@12@B DD 02H		; std::_Iosb<int>::failbit
CONST	ENDS
;	COMDAT ?eofbit@?$_Iosb@H@std@@2W4_Iostate@12@B
CONST	SEGMENT
?eofbit@?$_Iosb@H@std@@2W4_Iostate@12@B DD 01H		; std::_Iosb<int>::eofbit
CONST	ENDS
;	COMDAT ?goodbit@?$_Iosb@H@std@@2W4_Iostate@12@B
CONST	SEGMENT
?goodbit@?$_Iosb@H@std@@2W4_Iostate@12@B DD 00H		; std::_Iosb<int>::goodbit
CONST	ENDS
;	COMDAT ?floatfield@?$_Iosb@H@std@@2W4_Fmtflags@12@B
CONST	SEGMENT
?floatfield@?$_Iosb@H@std@@2W4_Fmtflags@12@B DD 03000H	; std::_Iosb<int>::floatfield
CONST	ENDS
;	COMDAT ?basefield@?$_Iosb@H@std@@2W4_Fmtflags@12@B
CONST	SEGMENT
?basefield@?$_Iosb@H@std@@2W4_Fmtflags@12@B DD 0e00H	; std::_Iosb<int>::basefield
CONST	ENDS
;	COMDAT ?adjustfield@?$_Iosb@H@std@@2W4_Fmtflags@12@B
CONST	SEGMENT
?adjustfield@?$_Iosb@H@std@@2W4_Fmtflags@12@B DD 01c0H	; std::_Iosb<int>::adjustfield
CONST	ENDS
;	COMDAT ?_Stdio@?$_Iosb@H@std@@2W4_Fmtflags@12@B
CONST	SEGMENT
?_Stdio@?$_Iosb@H@std@@2W4_Fmtflags@12@B DD 08000H	; std::_Iosb<int>::_Stdio
CONST	ENDS
;	COMDAT ?boolalpha@?$_Iosb@H@std@@2W4_Fmtflags@12@B
CONST	SEGMENT
?boolalpha@?$_Iosb@H@std@@2W4_Fmtflags@12@B DD 04000H	; std::_Iosb<int>::boolalpha
CONST	ENDS
;	COMDAT ?hexfloat@?$_Iosb@H@std@@2W4_Fmtflags@12@B
CONST	SEGMENT
?hexfloat@?$_Iosb@H@std@@2W4_Fmtflags@12@B DD 03000H	; std::_Iosb<int>::hexfloat
CONST	ENDS
;	COMDAT ?fixed@?$_Iosb@H@std@@2W4_Fmtflags@12@B
CONST	SEGMENT
?fixed@?$_Iosb@H@std@@2W4_Fmtflags@12@B DD 02000H	; std::_Iosb<int>::fixed
CONST	ENDS
;	COMDAT ?scientific@?$_Iosb@H@std@@2W4_Fmtflags@12@B
CONST	SEGMENT
?scientific@?$_Iosb@H@std@@2W4_Fmtflags@12@B DD 01000H	; std::_Iosb<int>::scientific
CONST	ENDS
;	COMDAT ?hex@?$_Iosb@H@std@@2W4_Fmtflags@12@B
CONST	SEGMENT
?hex@?$_Iosb@H@std@@2W4_Fmtflags@12@B DD 0800H		; std::_Iosb<int>::hex
CONST	ENDS
;	COMDAT ?oct@?$_Iosb@H@std@@2W4_Fmtflags@12@B
CONST	SEGMENT
?oct@?$_Iosb@H@std@@2W4_Fmtflags@12@B DD 0400H		; std::_Iosb<int>::oct
CONST	ENDS
;	COMDAT ?dec@?$_Iosb@H@std@@2W4_Fmtflags@12@B
CONST	SEGMENT
?dec@?$_Iosb@H@std@@2W4_Fmtflags@12@B DD 0200H		; std::_Iosb<int>::dec
CONST	ENDS
;	COMDAT ?internal@?$_Iosb@H@std@@2W4_Fmtflags@12@B
CONST	SEGMENT
?internal@?$_Iosb@H@std@@2W4_Fmtflags@12@B DD 0100H	; std::_Iosb<int>::internal
CONST	ENDS
;	COMDAT ?right@?$_Iosb@H@std@@2W4_Fmtflags@12@B
CONST	SEGMENT
?right@?$_Iosb@H@std@@2W4_Fmtflags@12@B DD 080H		; std::_Iosb<int>::right
CONST	ENDS
;	COMDAT ?left@?$_Iosb@H@std@@2W4_Fmtflags@12@B
CONST	SEGMENT
?left@?$_Iosb@H@std@@2W4_Fmtflags@12@B DD 040H		; std::_Iosb<int>::left
CONST	ENDS
;	COMDAT ?showpos@?$_Iosb@H@std@@2W4_Fmtflags@12@B
CONST	SEGMENT
?showpos@?$_Iosb@H@std@@2W4_Fmtflags@12@B DD 020H	; std::_Iosb<int>::showpos
CONST	ENDS
;	COMDAT ?showpoint@?$_Iosb@H@std@@2W4_Fmtflags@12@B
CONST	SEGMENT
?showpoint@?$_Iosb@H@std@@2W4_Fmtflags@12@B DD 010H	; std::_Iosb<int>::showpoint
CONST	ENDS
;	COMDAT ?showbase@?$_Iosb@H@std@@2W4_Fmtflags@12@B
CONST	SEGMENT
?showbase@?$_Iosb@H@std@@2W4_Fmtflags@12@B DD 08H	; std::_Iosb<int>::showbase
CONST	ENDS
;	COMDAT ?uppercase@?$_Iosb@H@std@@2W4_Fmtflags@12@B
CONST	SEGMENT
?uppercase@?$_Iosb@H@std@@2W4_Fmtflags@12@B DD 04H	; std::_Iosb<int>::uppercase
CONST	ENDS
;	COMDAT ?unitbuf@?$_Iosb@H@std@@2W4_Fmtflags@12@B
CONST	SEGMENT
?unitbuf@?$_Iosb@H@std@@2W4_Fmtflags@12@B DD 02H	; std::_Iosb<int>::unitbuf
CONST	ENDS
;	COMDAT ?skipws@?$_Iosb@H@std@@2W4_Fmtflags@12@B
CONST	SEGMENT
?skipws@?$_Iosb@H@std@@2W4_Fmtflags@12@B DD 01H		; std::_Iosb<int>::skipws
CONST	ENDS
;	COMDAT ?table_size@?$ctype@D@std@@2IB
CONST	SEGMENT
?table_size@?$ctype@D@std@@2IB DD 0100H			; std::ctype<char>::table_size
CONST	ENDS
;	COMDAT ?none@?$_Locbase@H@std@@2HB
CONST	SEGMENT
?none@?$_Locbase@H@std@@2HB DD 00H			; std::_Locbase<int>::none
CONST	ENDS
;	COMDAT ?all@?$_Locbase@H@std@@2HB
CONST	SEGMENT
?all@?$_Locbase@H@std@@2HB DD 03fH			; std::_Locbase<int>::all
CONST	ENDS
;	COMDAT ?messages@?$_Locbase@H@std@@2HB
CONST	SEGMENT
?messages@?$_Locbase@H@std@@2HB DD 020H			; std::_Locbase<int>::messages
CONST	ENDS
;	COMDAT ?time@?$_Locbase@H@std@@2HB
CONST	SEGMENT
?time@?$_Locbase@H@std@@2HB DD 010H			; std::_Locbase<int>::time
CONST	ENDS
;	COMDAT ?numeric@?$_Locbase@H@std@@2HB
CONST	SEGMENT
?numeric@?$_Locbase@H@std@@2HB DD 08H			; std::_Locbase<int>::numeric
CONST	ENDS
;	COMDAT ?monetary@?$_Locbase@H@std@@2HB
CONST	SEGMENT
?monetary@?$_Locbase@H@std@@2HB DD 04H			; std::_Locbase<int>::monetary
CONST	ENDS
;	COMDAT ?ctype@?$_Locbase@H@std@@2HB
CONST	SEGMENT
?ctype@?$_Locbase@H@std@@2HB DD 02H			; std::_Locbase<int>::ctype
CONST	ENDS
;	COMDAT ?collate@?$_Locbase@H@std@@2HB
CONST	SEGMENT
?collate@?$_Locbase@H@std@@2HB DD 01H			; std::_Locbase<int>::collate
CONST	ENDS
;	COMDAT ?_Rank@?$_Arithmetic_traits@O@std@@2HB
CONST	SEGMENT
?_Rank@?$_Arithmetic_traits@O@std@@2HB DD 09H		; std::_Arithmetic_traits<long double>::_Rank
CONST	ENDS
;	COMDAT ?_Rank@?$_Arithmetic_traits@N@std@@2HB
CONST	SEGMENT
?_Rank@?$_Arithmetic_traits@N@std@@2HB DD 08H		; std::_Arithmetic_traits<double>::_Rank
CONST	ENDS
;	COMDAT ?_Rank@?$_Arithmetic_traits@M@std@@2HB
CONST	SEGMENT
?_Rank@?$_Arithmetic_traits@M@std@@2HB DD 07H		; std::_Arithmetic_traits<float>::_Rank
CONST	ENDS
;	COMDAT ?_Rank@?$_Arithmetic_traits@_K@std@@2HB
CONST	SEGMENT
?_Rank@?$_Arithmetic_traits@_K@std@@2HB DD 06H		; std::_Arithmetic_traits<unsigned __int64>::_Rank
CONST	ENDS
;	COMDAT ?_Rank@?$_Arithmetic_traits@_J@std@@2HB
CONST	SEGMENT
?_Rank@?$_Arithmetic_traits@_J@std@@2HB DD 06H		; std::_Arithmetic_traits<__int64>::_Rank
CONST	ENDS
;	COMDAT ?_Rank@?$_Arithmetic_traits@K@std@@2HB
CONST	SEGMENT
?_Rank@?$_Arithmetic_traits@K@std@@2HB DD 05H		; std::_Arithmetic_traits<unsigned long>::_Rank
CONST	ENDS
;	COMDAT ?_Rank@?$_Arithmetic_traits@J@std@@2HB
CONST	SEGMENT
?_Rank@?$_Arithmetic_traits@J@std@@2HB DD 05H		; std::_Arithmetic_traits<long>::_Rank
CONST	ENDS
;	COMDAT ?_Rank@?$_Arithmetic_traits@I@std@@2HB
CONST	SEGMENT
?_Rank@?$_Arithmetic_traits@I@std@@2HB DD 04H		; std::_Arithmetic_traits<unsigned int>::_Rank
CONST	ENDS
;	COMDAT ?_Rank@?$_Arithmetic_traits@H@std@@2HB
CONST	SEGMENT
?_Rank@?$_Arithmetic_traits@H@std@@2HB DD 04H		; std::_Arithmetic_traits<int>::_Rank
CONST	ENDS
;	COMDAT ?_Rank@?$_Arithmetic_traits@G@std@@2HB
CONST	SEGMENT
?_Rank@?$_Arithmetic_traits@G@std@@2HB DD 03H		; std::_Arithmetic_traits<unsigned short>::_Rank
CONST	ENDS
;	COMDAT ?_Rank@?$_Arithmetic_traits@F@std@@2HB
CONST	SEGMENT
?_Rank@?$_Arithmetic_traits@F@std@@2HB DD 03H		; std::_Arithmetic_traits<short>::_Rank
CONST	ENDS
;	COMDAT ?_Rank@?$_Arithmetic_traits@E@std@@2HB
CONST	SEGMENT
?_Rank@?$_Arithmetic_traits@E@std@@2HB DD 02H		; std::_Arithmetic_traits<unsigned char>::_Rank
CONST	ENDS
;	COMDAT ?_Rank@?$_Arithmetic_traits@C@std@@2HB
CONST	SEGMENT
?_Rank@?$_Arithmetic_traits@C@std@@2HB DD 02H		; std::_Arithmetic_traits<signed char>::_Rank
CONST	ENDS
;	COMDAT ?_Rank@?$_Arithmetic_traits@D@std@@2HB
CONST	SEGMENT
?_Rank@?$_Arithmetic_traits@D@std@@2HB DD 02H		; std::_Arithmetic_traits<char>::_Rank
CONST	ENDS
;	COMDAT ?_Rank@?$_Arithmetic_traits@_N@std@@2HB
CONST	SEGMENT
?_Rank@?$_Arithmetic_traits@_N@std@@2HB DD 01H		; std::_Arithmetic_traits<bool>::_Rank
CONST	ENDS
;	COMDAT ?value@?$integral_constant@I$0A@@tr1@std@@2IB
CONST	SEGMENT
?value@?$integral_constant@I$0A@@tr1@std@@2IB DD 00H	; std::tr1::integral_constant<unsigned int,0>::value
CONST	ENDS
;	COMDAT ?value@?$integral_constant@_N$00@tr1@std@@2_NB
CONST	SEGMENT
?value@?$integral_constant@_N$00@tr1@std@@2_NB DB 01H	; std::tr1::integral_constant<bool,1>::value
CONST	ENDS
;	COMDAT ?value@?$integral_constant@_N$0A@@tr1@std@@2_NB
CONST	SEGMENT
?value@?$integral_constant@_N$0A@@tr1@std@@2_NB DB 00H	; std::tr1::integral_constant<bool,0>::value
CONST	ENDS
;	COMDAT ?min_exponent10@?$numeric_limits@O@std@@2HB
CONST	SEGMENT
?min_exponent10@?$numeric_limits@O@std@@2HB DD 0fffffecdH ; std::numeric_limits<long double>::min_exponent10
CONST	ENDS
;	COMDAT ?min_exponent@?$numeric_limits@O@std@@2HB
CONST	SEGMENT
?min_exponent@?$numeric_limits@O@std@@2HB DD 0fffffc03H	; std::numeric_limits<long double>::min_exponent
CONST	ENDS
;	COMDAT ?max_exponent10@?$numeric_limits@O@std@@2HB
CONST	SEGMENT
?max_exponent10@?$numeric_limits@O@std@@2HB DD 0134H	; std::numeric_limits<long double>::max_exponent10
CONST	ENDS
;	COMDAT ?max_exponent@?$numeric_limits@O@std@@2HB
CONST	SEGMENT
?max_exponent@?$numeric_limits@O@std@@2HB DD 0400H	; std::numeric_limits<long double>::max_exponent
CONST	ENDS
;	COMDAT ?max_digits10@?$numeric_limits@O@std@@2HB
CONST	SEGMENT
?max_digits10@?$numeric_limits@O@std@@2HB DD 011H	; std::numeric_limits<long double>::max_digits10
CONST	ENDS
;	COMDAT ?digits10@?$numeric_limits@O@std@@2HB
CONST	SEGMENT
?digits10@?$numeric_limits@O@std@@2HB DD 0fH		; std::numeric_limits<long double>::digits10
CONST	ENDS
;	COMDAT ?digits@?$numeric_limits@O@std@@2HB
CONST	SEGMENT
?digits@?$numeric_limits@O@std@@2HB DD 035H		; std::numeric_limits<long double>::digits
CONST	ENDS
;	COMDAT ?min_exponent10@?$numeric_limits@N@std@@2HB
CONST	SEGMENT
?min_exponent10@?$numeric_limits@N@std@@2HB DD 0fffffecdH ; std::numeric_limits<double>::min_exponent10
CONST	ENDS
;	COMDAT ?min_exponent@?$numeric_limits@N@std@@2HB
CONST	SEGMENT
?min_exponent@?$numeric_limits@N@std@@2HB DD 0fffffc03H	; std::numeric_limits<double>::min_exponent
CONST	ENDS
;	COMDAT ?max_exponent10@?$numeric_limits@N@std@@2HB
CONST	SEGMENT
?max_exponent10@?$numeric_limits@N@std@@2HB DD 0134H	; std::numeric_limits<double>::max_exponent10
CONST	ENDS
;	COMDAT ?max_exponent@?$numeric_limits@N@std@@2HB
CONST	SEGMENT
?max_exponent@?$numeric_limits@N@std@@2HB DD 0400H	; std::numeric_limits<double>::max_exponent
CONST	ENDS
;	COMDAT ?max_digits10@?$numeric_limits@N@std@@2HB
CONST	SEGMENT
?max_digits10@?$numeric_limits@N@std@@2HB DD 011H	; std::numeric_limits<double>::max_digits10
CONST	ENDS
;	COMDAT ?digits10@?$numeric_limits@N@std@@2HB
CONST	SEGMENT
?digits10@?$numeric_limits@N@std@@2HB DD 0fH		; std::numeric_limits<double>::digits10
CONST	ENDS
;	COMDAT ?digits@?$numeric_limits@N@std@@2HB
CONST	SEGMENT
?digits@?$numeric_limits@N@std@@2HB DD 035H		; std::numeric_limits<double>::digits
CONST	ENDS
;	COMDAT ?min_exponent10@?$numeric_limits@M@std@@2HB
CONST	SEGMENT
?min_exponent10@?$numeric_limits@M@std@@2HB DD 0ffffffdbH ; std::numeric_limits<float>::min_exponent10
CONST	ENDS
;	COMDAT ?min_exponent@?$numeric_limits@M@std@@2HB
CONST	SEGMENT
?min_exponent@?$numeric_limits@M@std@@2HB DD 0ffffff83H	; std::numeric_limits<float>::min_exponent
CONST	ENDS
;	COMDAT ?max_exponent10@?$numeric_limits@M@std@@2HB
CONST	SEGMENT
?max_exponent10@?$numeric_limits@M@std@@2HB DD 026H	; std::numeric_limits<float>::max_exponent10
CONST	ENDS
;	COMDAT ?max_exponent@?$numeric_limits@M@std@@2HB
CONST	SEGMENT
?max_exponent@?$numeric_limits@M@std@@2HB DD 080H	; std::numeric_limits<float>::max_exponent
CONST	ENDS
;	COMDAT ?max_digits10@?$numeric_limits@M@std@@2HB
CONST	SEGMENT
?max_digits10@?$numeric_limits@M@std@@2HB DD 08H	; std::numeric_limits<float>::max_digits10
CONST	ENDS
;	COMDAT ?digits10@?$numeric_limits@M@std@@2HB
CONST	SEGMENT
?digits10@?$numeric_limits@M@std@@2HB DD 06H		; std::numeric_limits<float>::digits10
CONST	ENDS
;	COMDAT ?digits@?$numeric_limits@M@std@@2HB
CONST	SEGMENT
?digits@?$numeric_limits@M@std@@2HB DD 018H		; std::numeric_limits<float>::digits
CONST	ENDS
;	COMDAT ?max_digits10@?$numeric_limits@_K@std@@2HB
CONST	SEGMENT
?max_digits10@?$numeric_limits@_K@std@@2HB DD 015H	; std::numeric_limits<unsigned __int64>::max_digits10
CONST	ENDS
;	COMDAT ?digits10@?$numeric_limits@_K@std@@2HB
CONST	SEGMENT
?digits10@?$numeric_limits@_K@std@@2HB DD 013H		; std::numeric_limits<unsigned __int64>::digits10
CONST	ENDS
;	COMDAT ?digits@?$numeric_limits@_K@std@@2HB
CONST	SEGMENT
?digits@?$numeric_limits@_K@std@@2HB DD 040H		; std::numeric_limits<unsigned __int64>::digits
CONST	ENDS
;	COMDAT ?is_signed@?$numeric_limits@_K@std@@2_NB
CONST	SEGMENT
?is_signed@?$numeric_limits@_K@std@@2_NB DB 00H		; std::numeric_limits<unsigned __int64>::is_signed
CONST	ENDS
;	COMDAT ?max_digits10@?$numeric_limits@_J@std@@2HB
CONST	SEGMENT
?max_digits10@?$numeric_limits@_J@std@@2HB DD 014H	; std::numeric_limits<__int64>::max_digits10
CONST	ENDS
;	COMDAT ?digits10@?$numeric_limits@_J@std@@2HB
CONST	SEGMENT
?digits10@?$numeric_limits@_J@std@@2HB DD 012H		; std::numeric_limits<__int64>::digits10
CONST	ENDS
;	COMDAT ?digits@?$numeric_limits@_J@std@@2HB
CONST	SEGMENT
?digits@?$numeric_limits@_J@std@@2HB DD 03fH		; std::numeric_limits<__int64>::digits
CONST	ENDS
;	COMDAT ?is_signed@?$numeric_limits@_J@std@@2_NB
CONST	SEGMENT
?is_signed@?$numeric_limits@_J@std@@2_NB DB 01H		; std::numeric_limits<__int64>::is_signed
CONST	ENDS
;	COMDAT ?max_digits10@?$numeric_limits@K@std@@2HB
CONST	SEGMENT
?max_digits10@?$numeric_limits@K@std@@2HB DD 0bH	; std::numeric_limits<unsigned long>::max_digits10
CONST	ENDS
;	COMDAT ?digits10@?$numeric_limits@K@std@@2HB
CONST	SEGMENT
?digits10@?$numeric_limits@K@std@@2HB DD 09H		; std::numeric_limits<unsigned long>::digits10
CONST	ENDS
;	COMDAT ?digits@?$numeric_limits@K@std@@2HB
CONST	SEGMENT
?digits@?$numeric_limits@K@std@@2HB DD 020H		; std::numeric_limits<unsigned long>::digits
CONST	ENDS
;	COMDAT ?is_signed@?$numeric_limits@K@std@@2_NB
CONST	SEGMENT
?is_signed@?$numeric_limits@K@std@@2_NB DB 00H		; std::numeric_limits<unsigned long>::is_signed
CONST	ENDS
;	COMDAT ?max_digits10@?$numeric_limits@J@std@@2HB
CONST	SEGMENT
?max_digits10@?$numeric_limits@J@std@@2HB DD 0bH	; std::numeric_limits<long>::max_digits10
CONST	ENDS
;	COMDAT ?digits10@?$numeric_limits@J@std@@2HB
CONST	SEGMENT
?digits10@?$numeric_limits@J@std@@2HB DD 09H		; std::numeric_limits<long>::digits10
CONST	ENDS
;	COMDAT ?digits@?$numeric_limits@J@std@@2HB
CONST	SEGMENT
?digits@?$numeric_limits@J@std@@2HB DD 01fH		; std::numeric_limits<long>::digits
CONST	ENDS
;	COMDAT ?is_signed@?$numeric_limits@J@std@@2_NB
CONST	SEGMENT
?is_signed@?$numeric_limits@J@std@@2_NB DB 01H		; std::numeric_limits<long>::is_signed
CONST	ENDS
;	COMDAT ?max_digits10@?$numeric_limits@I@std@@2HB
CONST	SEGMENT
?max_digits10@?$numeric_limits@I@std@@2HB DD 0bH	; std::numeric_limits<unsigned int>::max_digits10
CONST	ENDS
;	COMDAT ?digits10@?$numeric_limits@I@std@@2HB
CONST	SEGMENT
?digits10@?$numeric_limits@I@std@@2HB DD 09H		; std::numeric_limits<unsigned int>::digits10
CONST	ENDS
;	COMDAT ?digits@?$numeric_limits@I@std@@2HB
CONST	SEGMENT
?digits@?$numeric_limits@I@std@@2HB DD 020H		; std::numeric_limits<unsigned int>::digits
CONST	ENDS
;	COMDAT ?is_signed@?$numeric_limits@I@std@@2_NB
CONST	SEGMENT
?is_signed@?$numeric_limits@I@std@@2_NB DB 00H		; std::numeric_limits<unsigned int>::is_signed
CONST	ENDS
;	COMDAT ?max_digits10@?$numeric_limits@H@std@@2HB
CONST	SEGMENT
?max_digits10@?$numeric_limits@H@std@@2HB DD 0bH	; std::numeric_limits<int>::max_digits10
CONST	ENDS
;	COMDAT ?digits10@?$numeric_limits@H@std@@2HB
CONST	SEGMENT
?digits10@?$numeric_limits@H@std@@2HB DD 09H		; std::numeric_limits<int>::digits10
CONST	ENDS
;	COMDAT ?digits@?$numeric_limits@H@std@@2HB
CONST	SEGMENT
?digits@?$numeric_limits@H@std@@2HB DD 01fH		; std::numeric_limits<int>::digits
CONST	ENDS
;	COMDAT ?is_signed@?$numeric_limits@H@std@@2_NB
CONST	SEGMENT
?is_signed@?$numeric_limits@H@std@@2_NB DB 01H		; std::numeric_limits<int>::is_signed
CONST	ENDS
;	COMDAT ?max_digits10@?$numeric_limits@G@std@@2HB
CONST	SEGMENT
?max_digits10@?$numeric_limits@G@std@@2HB DD 06H	; std::numeric_limits<unsigned short>::max_digits10
CONST	ENDS
;	COMDAT ?digits10@?$numeric_limits@G@std@@2HB
CONST	SEGMENT
?digits10@?$numeric_limits@G@std@@2HB DD 04H		; std::numeric_limits<unsigned short>::digits10
CONST	ENDS
;	COMDAT ?digits@?$numeric_limits@G@std@@2HB
CONST	SEGMENT
?digits@?$numeric_limits@G@std@@2HB DD 010H		; std::numeric_limits<unsigned short>::digits
CONST	ENDS
;	COMDAT ?is_signed@?$numeric_limits@G@std@@2_NB
CONST	SEGMENT
?is_signed@?$numeric_limits@G@std@@2_NB DB 00H		; std::numeric_limits<unsigned short>::is_signed
CONST	ENDS
;	COMDAT ?max_digits10@?$numeric_limits@F@std@@2HB
CONST	SEGMENT
?max_digits10@?$numeric_limits@F@std@@2HB DD 06H	; std::numeric_limits<short>::max_digits10
CONST	ENDS
;	COMDAT ?digits10@?$numeric_limits@F@std@@2HB
CONST	SEGMENT
?digits10@?$numeric_limits@F@std@@2HB DD 04H		; std::numeric_limits<short>::digits10
CONST	ENDS
;	COMDAT ?digits@?$numeric_limits@F@std@@2HB
CONST	SEGMENT
?digits@?$numeric_limits@F@std@@2HB DD 0fH		; std::numeric_limits<short>::digits
CONST	ENDS
;	COMDAT ?is_signed@?$numeric_limits@F@std@@2_NB
CONST	SEGMENT
?is_signed@?$numeric_limits@F@std@@2_NB DB 01H		; std::numeric_limits<short>::is_signed
CONST	ENDS
;	COMDAT ?max_digits10@?$numeric_limits@E@std@@2HB
CONST	SEGMENT
?max_digits10@?$numeric_limits@E@std@@2HB DD 04H	; std::numeric_limits<unsigned char>::max_digits10
CONST	ENDS
;	COMDAT ?digits10@?$numeric_limits@E@std@@2HB
CONST	SEGMENT
?digits10@?$numeric_limits@E@std@@2HB DD 02H		; std::numeric_limits<unsigned char>::digits10
CONST	ENDS
;	COMDAT ?digits@?$numeric_limits@E@std@@2HB
CONST	SEGMENT
?digits@?$numeric_limits@E@std@@2HB DD 08H		; std::numeric_limits<unsigned char>::digits
CONST	ENDS
;	COMDAT ?is_signed@?$numeric_limits@E@std@@2_NB
CONST	SEGMENT
?is_signed@?$numeric_limits@E@std@@2_NB DB 00H		; std::numeric_limits<unsigned char>::is_signed
CONST	ENDS
;	COMDAT ?max_digits10@?$numeric_limits@C@std@@2HB
CONST	SEGMENT
?max_digits10@?$numeric_limits@C@std@@2HB DD 04H	; std::numeric_limits<signed char>::max_digits10
CONST	ENDS
;	COMDAT ?digits10@?$numeric_limits@C@std@@2HB
CONST	SEGMENT
?digits10@?$numeric_limits@C@std@@2HB DD 02H		; std::numeric_limits<signed char>::digits10
CONST	ENDS
;	COMDAT ?digits@?$numeric_limits@C@std@@2HB
CONST	SEGMENT
?digits@?$numeric_limits@C@std@@2HB DD 07H		; std::numeric_limits<signed char>::digits
CONST	ENDS
;	COMDAT ?is_signed@?$numeric_limits@C@std@@2_NB
CONST	SEGMENT
?is_signed@?$numeric_limits@C@std@@2_NB DB 01H		; std::numeric_limits<signed char>::is_signed
CONST	ENDS
;	COMDAT ?max_digits10@?$numeric_limits@_N@std@@2HB
CONST	SEGMENT
?max_digits10@?$numeric_limits@_N@std@@2HB DD 00H	; std::numeric_limits<bool>::max_digits10
CONST	ENDS
;	COMDAT ?digits10@?$numeric_limits@_N@std@@2HB
CONST	SEGMENT
?digits10@?$numeric_limits@_N@std@@2HB DD 00H		; std::numeric_limits<bool>::digits10
CONST	ENDS
;	COMDAT ?digits@?$numeric_limits@_N@std@@2HB
CONST	SEGMENT
?digits@?$numeric_limits@_N@std@@2HB DD 01H		; std::numeric_limits<bool>::digits
CONST	ENDS
;	COMDAT ?is_signed@?$numeric_limits@_N@std@@2_NB
CONST	SEGMENT
?is_signed@?$numeric_limits@_N@std@@2_NB DB 00H		; std::numeric_limits<bool>::is_signed
CONST	ENDS
;	COMDAT ?is_modulo@?$numeric_limits@_N@std@@2_NB
CONST	SEGMENT
?is_modulo@?$numeric_limits@_N@std@@2_NB DB 00H		; std::numeric_limits<bool>::is_modulo
CONST	ENDS
;	COMDAT ?max_digits10@?$numeric_limits@_W@std@@2HB
CONST	SEGMENT
?max_digits10@?$numeric_limits@_W@std@@2HB DD 06H	; std::numeric_limits<wchar_t>::max_digits10
CONST	ENDS
;	COMDAT ?digits10@?$numeric_limits@_W@std@@2HB
CONST	SEGMENT
?digits10@?$numeric_limits@_W@std@@2HB DD 04H		; std::numeric_limits<wchar_t>::digits10
CONST	ENDS
;	COMDAT ?digits@?$numeric_limits@_W@std@@2HB
CONST	SEGMENT
?digits@?$numeric_limits@_W@std@@2HB DD 010H		; std::numeric_limits<wchar_t>::digits
CONST	ENDS
;	COMDAT ?is_signed@?$numeric_limits@_W@std@@2_NB
CONST	SEGMENT
?is_signed@?$numeric_limits@_W@std@@2_NB DB 00H		; std::numeric_limits<wchar_t>::is_signed
CONST	ENDS
;	COMDAT ?max_digits10@?$numeric_limits@D@std@@2HB
CONST	SEGMENT
?max_digits10@?$numeric_limits@D@std@@2HB DD 04H	; std::numeric_limits<char>::max_digits10
CONST	ENDS
;	COMDAT ?digits10@?$numeric_limits@D@std@@2HB
CONST	SEGMENT
?digits10@?$numeric_limits@D@std@@2HB DD 02H		; std::numeric_limits<char>::digits10
CONST	ENDS
;	COMDAT ?digits@?$numeric_limits@D@std@@2HB
CONST	SEGMENT
?digits@?$numeric_limits@D@std@@2HB DD 07H		; std::numeric_limits<char>::digits
CONST	ENDS
;	COMDAT ?is_signed@?$numeric_limits@D@std@@2_NB
CONST	SEGMENT
?is_signed@?$numeric_limits@D@std@@2_NB DB 01H		; std::numeric_limits<char>::is_signed
CONST	ENDS
;	COMDAT ?radix@_Num_float_base@std@@2HB
CONST	SEGMENT
?radix@_Num_float_base@std@@2HB DD 02H			; std::_Num_float_base::radix
CONST	ENDS
;	COMDAT ?round_style@_Num_float_base@std@@2W4float_round_style@2@B
CONST	SEGMENT
?round_style@_Num_float_base@std@@2W4float_round_style@2@B DD 01H ; std::_Num_float_base::round_style
CONST	ENDS
;	COMDAT ?traps@_Num_float_base@std@@2_NB
CONST	SEGMENT
?traps@_Num_float_base@std@@2_NB DB 01H			; std::_Num_float_base::traps
CONST	ENDS
;	COMDAT ?tinyness_before@_Num_float_base@std@@2_NB
CONST	SEGMENT
?tinyness_before@_Num_float_base@std@@2_NB DB 01H	; std::_Num_float_base::tinyness_before
CONST	ENDS
;	COMDAT ?is_specialized@_Num_float_base@std@@2_NB
CONST	SEGMENT
?is_specialized@_Num_float_base@std@@2_NB DB 01H	; std::_Num_float_base::is_specialized
CONST	ENDS
;	COMDAT ?is_signed@_Num_float_base@std@@2_NB
CONST	SEGMENT
?is_signed@_Num_float_base@std@@2_NB DB 01H		; std::_Num_float_base::is_signed
CONST	ENDS
;	COMDAT ?is_modulo@_Num_float_base@std@@2_NB
CONST	SEGMENT
?is_modulo@_Num_float_base@std@@2_NB DB 00H		; std::_Num_float_base::is_modulo
CONST	ENDS
;	COMDAT ?is_integer@_Num_float_base@std@@2_NB
CONST	SEGMENT
?is_integer@_Num_float_base@std@@2_NB DB 00H		; std::_Num_float_base::is_integer
CONST	ENDS
;	COMDAT ?is_iec559@_Num_float_base@std@@2_NB
CONST	SEGMENT
?is_iec559@_Num_float_base@std@@2_NB DB 01H		; std::_Num_float_base::is_iec559
CONST	ENDS
;	COMDAT ?is_exact@_Num_float_base@std@@2_NB
CONST	SEGMENT
?is_exact@_Num_float_base@std@@2_NB DB 00H		; std::_Num_float_base::is_exact
CONST	ENDS
;	COMDAT ?is_bounded@_Num_float_base@std@@2_NB
CONST	SEGMENT
?is_bounded@_Num_float_base@std@@2_NB DB 01H		; std::_Num_float_base::is_bounded
CONST	ENDS
;	COMDAT ?has_signaling_NaN@_Num_float_base@std@@2_NB
CONST	SEGMENT
?has_signaling_NaN@_Num_float_base@std@@2_NB DB 01H	; std::_Num_float_base::has_signaling_NaN
CONST	ENDS
;	COMDAT ?has_quiet_NaN@_Num_float_base@std@@2_NB
CONST	SEGMENT
?has_quiet_NaN@_Num_float_base@std@@2_NB DB 01H		; std::_Num_float_base::has_quiet_NaN
CONST	ENDS
;	COMDAT ?has_infinity@_Num_float_base@std@@2_NB
CONST	SEGMENT
?has_infinity@_Num_float_base@std@@2_NB DB 01H		; std::_Num_float_base::has_infinity
CONST	ENDS
;	COMDAT ?has_denorm_loss@_Num_float_base@std@@2_NB
CONST	SEGMENT
?has_denorm_loss@_Num_float_base@std@@2_NB DB 01H	; std::_Num_float_base::has_denorm_loss
CONST	ENDS
;	COMDAT ?has_denorm@_Num_float_base@std@@2W4float_denorm_style@2@B
CONST	SEGMENT
?has_denorm@_Num_float_base@std@@2W4float_denorm_style@2@B DD 01H ; std::_Num_float_base::has_denorm
CONST	ENDS
;	COMDAT ?radix@_Num_int_base@std@@2HB
CONST	SEGMENT
?radix@_Num_int_base@std@@2HB DD 02H			; std::_Num_int_base::radix
CONST	ENDS
;	COMDAT ?is_specialized@_Num_int_base@std@@2_NB
CONST	SEGMENT
?is_specialized@_Num_int_base@std@@2_NB DB 01H		; std::_Num_int_base::is_specialized
CONST	ENDS
;	COMDAT ?is_modulo@_Num_int_base@std@@2_NB
CONST	SEGMENT
?is_modulo@_Num_int_base@std@@2_NB DB 01H		; std::_Num_int_base::is_modulo
CONST	ENDS
;	COMDAT ?is_integer@_Num_int_base@std@@2_NB
CONST	SEGMENT
?is_integer@_Num_int_base@std@@2_NB DB 01H		; std::_Num_int_base::is_integer
CONST	ENDS
;	COMDAT ?is_exact@_Num_int_base@std@@2_NB
CONST	SEGMENT
?is_exact@_Num_int_base@std@@2_NB DB 01H		; std::_Num_int_base::is_exact
CONST	ENDS
;	COMDAT ?is_bounded@_Num_int_base@std@@2_NB
CONST	SEGMENT
?is_bounded@_Num_int_base@std@@2_NB DB 01H		; std::_Num_int_base::is_bounded
CONST	ENDS
;	COMDAT ?radix@_Num_base@std@@2HB
CONST	SEGMENT
?radix@_Num_base@std@@2HB DD 00H			; std::_Num_base::radix
CONST	ENDS
;	COMDAT ?min_exponent10@_Num_base@std@@2HB
CONST	SEGMENT
?min_exponent10@_Num_base@std@@2HB DD 00H		; std::_Num_base::min_exponent10
CONST	ENDS
;	COMDAT ?min_exponent@_Num_base@std@@2HB
CONST	SEGMENT
?min_exponent@_Num_base@std@@2HB DD 00H			; std::_Num_base::min_exponent
CONST	ENDS
;	COMDAT ?max_exponent10@_Num_base@std@@2HB
CONST	SEGMENT
?max_exponent10@_Num_base@std@@2HB DD 00H		; std::_Num_base::max_exponent10
CONST	ENDS
;	COMDAT ?max_exponent@_Num_base@std@@2HB
CONST	SEGMENT
?max_exponent@_Num_base@std@@2HB DD 00H			; std::_Num_base::max_exponent
CONST	ENDS
;	COMDAT ?max_digits10@_Num_base@std@@2HB
CONST	SEGMENT
?max_digits10@_Num_base@std@@2HB DD 00H			; std::_Num_base::max_digits10
CONST	ENDS
;	COMDAT ?digits10@_Num_base@std@@2HB
CONST	SEGMENT
?digits10@_Num_base@std@@2HB DD 00H			; std::_Num_base::digits10
CONST	ENDS
;	COMDAT ?digits@_Num_base@std@@2HB
CONST	SEGMENT
?digits@_Num_base@std@@2HB DD 00H			; std::_Num_base::digits
CONST	ENDS
;	COMDAT ?round_style@_Num_base@std@@2W4float_round_style@2@B
CONST	SEGMENT
?round_style@_Num_base@std@@2W4float_round_style@2@B DD 00H ; std::_Num_base::round_style
CONST	ENDS
;	COMDAT ?traps@_Num_base@std@@2_NB
CONST	SEGMENT
?traps@_Num_base@std@@2_NB DB 00H			; std::_Num_base::traps
CONST	ENDS
;	COMDAT ?tinyness_before@_Num_base@std@@2_NB
CONST	SEGMENT
?tinyness_before@_Num_base@std@@2_NB DB 00H		; std::_Num_base::tinyness_before
CONST	ENDS
;	COMDAT ?is_specialized@_Num_base@std@@2_NB
CONST	SEGMENT
?is_specialized@_Num_base@std@@2_NB DB 00H		; std::_Num_base::is_specialized
CONST	ENDS
;	COMDAT ?is_signed@_Num_base@std@@2_NB
CONST	SEGMENT
?is_signed@_Num_base@std@@2_NB DB 00H			; std::_Num_base::is_signed
CONST	ENDS
;	COMDAT ?is_modulo@_Num_base@std@@2_NB
CONST	SEGMENT
?is_modulo@_Num_base@std@@2_NB DB 00H			; std::_Num_base::is_modulo
CONST	ENDS
;	COMDAT ?is_integer@_Num_base@std@@2_NB
CONST	SEGMENT
?is_integer@_Num_base@std@@2_NB DB 00H			; std::_Num_base::is_integer
CONST	ENDS
;	COMDAT ?is_iec559@_Num_base@std@@2_NB
CONST	SEGMENT
?is_iec559@_Num_base@std@@2_NB DB 00H			; std::_Num_base::is_iec559
CONST	ENDS
;	COMDAT ?is_exact@_Num_base@std@@2_NB
CONST	SEGMENT
?is_exact@_Num_base@std@@2_NB DB 00H			; std::_Num_base::is_exact
CONST	ENDS
;	COMDAT ?is_bounded@_Num_base@std@@2_NB
CONST	SEGMENT
?is_bounded@_Num_base@std@@2_NB DB 00H			; std::_Num_base::is_bounded
CONST	ENDS
;	COMDAT ?has_signaling_NaN@_Num_base@std@@2_NB
CONST	SEGMENT
?has_signaling_NaN@_Num_base@std@@2_NB DB 00H		; std::_Num_base::has_signaling_NaN
CONST	ENDS
;	COMDAT ?has_quiet_NaN@_Num_base@std@@2_NB
CONST	SEGMENT
?has_quiet_NaN@_Num_base@std@@2_NB DB 00H		; std::_Num_base::has_quiet_NaN
CONST	ENDS
;	COMDAT ?has_infinity@_Num_base@std@@2_NB
CONST	SEGMENT
?has_infinity@_Num_base@std@@2_NB DB 00H		; std::_Num_base::has_infinity
CONST	ENDS
;	COMDAT ?has_denorm_loss@_Num_base@std@@2_NB
CONST	SEGMENT
?has_denorm_loss@_Num_base@std@@2_NB DB 00H		; std::_Num_base::has_denorm_loss
CONST	ENDS
;	COMDAT ?has_denorm@_Num_base@std@@2W4float_denorm_style@2@B
CONST	SEGMENT
?has_denorm@_Num_base@std@@2W4float_denorm_style@2@B DD 00H ; std::_Num_base::has_denorm
CONST	ENDS
PUBLIC	??1?$map@HPAVRaven_Weapon@@U?$less@H@std@@V?$allocator@U?$pair@$$CBHPAVRaven_Weapon@@@std@@@3@@std@@QAE@XZ ; std::map<int,Raven_Weapon *,std::less<int>,std::allocator<std::pair<int const ,Raven_Weapon *> > >::~map<int,Raven_Weapon *,std::less<int>,std::allocator<std::pair<int const ,Raven_Weapon *> > >
PUBLIC	?Initialize@AbstWeaponSystem@@UAEXXZ		; AbstWeaponSystem::Initialize
PUBLIC	??0?$map@HPAVRaven_Weapon@@U?$less@H@std@@V?$allocator@U?$pair@$$CBHPAVRaven_Weapon@@@std@@@3@@std@@QAE@XZ ; std::map<int,Raven_Weapon *,std::less<int>,std::allocator<std::pair<int const ,Raven_Weapon *> > >::map<int,Raven_Weapon *,std::less<int>,std::allocator<std::pair<int const ,Raven_Weapon *> > >
PUBLIC	??_7AbstWeaponSystem@@6B@			; AbstWeaponSystem::`vftable'
PUBLIC	??0AbstWeaponSystem@@QAE@PAVAbstRaven_Bot@@NNN@Z ; AbstWeaponSystem::AbstWeaponSystem
PUBLIC	??_R4AbstWeaponSystem@@6B@			; AbstWeaponSystem::`RTTI Complete Object Locator'
PUBLIC	??_R0?AVAbstWeaponSystem@@@8			; AbstWeaponSystem `RTTI Type Descriptor'
PUBLIC	??_R3AbstWeaponSystem@@8			; AbstWeaponSystem::`RTTI Class Hierarchy Descriptor'
PUBLIC	??_R2AbstWeaponSystem@@8			; AbstWeaponSystem::`RTTI Base Class Array'
PUBLIC	??_R1A@?0A@EA@AbstWeaponSystem@@8		; AbstWeaponSystem::`RTTI Base Class Descriptor at (0,-1,0,64)'
PUBLIC	?TakeAimAndShoot@AbstWeaponSystem@@UBEXXZ	; AbstWeaponSystem::TakeAimAndShoot
PUBLIC	?SelectWeapon@AbstWeaponSystem@@UAEXXZ		; AbstWeaponSystem::SelectWeapon
PUBLIC	?AddWeapon@AbstWeaponSystem@@UAEXI@Z		; AbstWeaponSystem::AddWeapon
EXTRN	___security_cookie:DWORD
EXTRN	___CxxFrameHandler3:PROC
EXTRN	@__security_check_cookie@4:PROC
EXTRN	__fltused:DWORD
EXTRN	__RTC_CheckEsp:PROC
EXTRN	__RTC_Shutdown:PROC
EXTRN	__RTC_InitBase:PROC
EXTRN	??_7type_info@@6B@:QWORD			; type_info::`vftable'
;	COMDAT ??_R1A@?0A@EA@AbstWeaponSystem@@8
; File c:\users\teaja\documents\artificial-fun\labravenprojecttest\raven\abstweaponsystem.cpp
rdata$r	SEGMENT
??_R1A@?0A@EA@AbstWeaponSystem@@8 DD FLAT:??_R0?AVAbstWeaponSystem@@@8 ; AbstWeaponSystem::`RTTI Base Class Descriptor at (0,-1,0,64)'
	DD	00H
	DD	00H
	DD	0ffffffffH
	DD	00H
	DD	040H
	DD	FLAT:??_R3AbstWeaponSystem@@8
rdata$r	ENDS
;	COMDAT ??_R2AbstWeaponSystem@@8
rdata$r	SEGMENT
??_R2AbstWeaponSystem@@8 DD FLAT:??_R1A@?0A@EA@AbstWeaponSystem@@8 ; AbstWeaponSystem::`RTTI Base Class Array'
rdata$r	ENDS
;	COMDAT ??_R3AbstWeaponSystem@@8
rdata$r	SEGMENT
??_R3AbstWeaponSystem@@8 DD 00H				; AbstWeaponSystem::`RTTI Class Hierarchy Descriptor'
	DD	00H
	DD	01H
	DD	FLAT:??_R2AbstWeaponSystem@@8
rdata$r	ENDS
;	COMDAT ??_R0?AVAbstWeaponSystem@@@8
_DATA	SEGMENT
??_R0?AVAbstWeaponSystem@@@8 DD FLAT:??_7type_info@@6B@	; AbstWeaponSystem `RTTI Type Descriptor'
	DD	00H
	DB	'.?AVAbstWeaponSystem@@', 00H
_DATA	ENDS
;	COMDAT ??_R4AbstWeaponSystem@@6B@
rdata$r	SEGMENT
??_R4AbstWeaponSystem@@6B@ DD 00H			; AbstWeaponSystem::`RTTI Complete Object Locator'
	DD	00H
	DD	00H
	DD	FLAT:??_R0?AVAbstWeaponSystem@@@8
	DD	FLAT:??_R3AbstWeaponSystem@@8
rdata$r	ENDS
;	COMDAT ??_7AbstWeaponSystem@@6B@
CONST	SEGMENT
??_7AbstWeaponSystem@@6B@ DD FLAT:??_R4AbstWeaponSystem@@6B@ ; AbstWeaponSystem::`vftable'
	DD	FLAT:?Initialize@AbstWeaponSystem@@UAEXXZ
	DD	FLAT:?TakeAimAndShoot@AbstWeaponSystem@@UBEXXZ
	DD	FLAT:?SelectWeapon@AbstWeaponSystem@@UAEXXZ
	DD	FLAT:?AddWeapon@AbstWeaponSystem@@UAEXI@Z
CONST	ENDS
xdata$x	SEGMENT
__unwindtable$??0AbstWeaponSystem@@QAE@PAVAbstRaven_Bot@@NNN@Z DD 0ffffffffH
	DD	FLAT:__unwindfunclet$??0AbstWeaponSystem@@QAE@PAVAbstRaven_Bot@@NNN@Z$0
__ehfuncinfo$??0AbstWeaponSystem@@QAE@PAVAbstRaven_Bot@@NNN@Z DD 019930522H
	DD	01H
	DD	FLAT:__unwindtable$??0AbstWeaponSystem@@QAE@PAVAbstRaven_Bot@@NNN@Z
	DD	2 DUP(00H)
	DD	2 DUP(00H)
	DD	00H
	DD	01H
xdata$x	ENDS
;	COMDAT rtc$TMZ
rtc$TMZ	SEGMENT
__RTC_Shutdown.rtc$TMZ DD FLAT:__RTC_Shutdown
rtc$TMZ	ENDS
;	COMDAT rtc$IMZ
rtc$IMZ	SEGMENT
__RTC_InitBase.rtc$IMZ DD FLAT:__RTC_InitBase
; Function compile flags: /Odtp /RTCsu
rtc$IMZ	ENDS
_TEXT	SEGMENT
_this$ = -16						; size = 4
__$EHRec$ = -12						; size = 12
_owner$ = 8						; size = 4
_ReactionTime$ = 12					; size = 8
_AimAccuracy$ = 20					; size = 8
_AimPersistance$ = 28					; size = 8
??0AbstWeaponSystem@@QAE@PAVAbstRaven_Bot@@NNN@Z PROC	; AbstWeaponSystem::AbstWeaponSystem
; _this$ = ecx

; 24   : {

	push	ebp
	mov	ebp, esp
	push	-1
	push	__ehhandler$??0AbstWeaponSystem@@QAE@PAVAbstRaven_Bot@@NNN@Z
	mov	eax, DWORD PTR fs:0
	push	eax
	push	ecx
	mov	DWORD PTR [ebp-16], -858993460		; ccccccccH
	mov	eax, DWORD PTR ___security_cookie
	xor	eax, ebp
	push	eax
	lea	eax, DWORD PTR __$EHRec$[ebp]
	mov	DWORD PTR fs:0, eax
	mov	DWORD PTR _this$[ebp], ecx
	mov	eax, DWORD PTR _this$[ebp]
	mov	DWORD PTR [eax], OFFSET ??_7AbstWeaponSystem@@6B@
	mov	ecx, DWORD PTR _this$[ebp]
	mov	edx, DWORD PTR _owner$[ebp]
	mov	DWORD PTR [ecx+8], edx
	mov	ecx, DWORD PTR _this$[ebp]
	add	ecx, 12					; 0000000cH
	call	??0?$map@HPAVRaven_Weapon@@U?$less@H@std@@V?$allocator@U?$pair@$$CBHPAVRaven_Weapon@@@std@@@3@@std@@QAE@XZ ; std::map<int,Raven_Weapon *,std::less<int>,std::allocator<std::pair<int const ,Raven_Weapon *> > >::map<int,Raven_Weapon *,std::less<int>,std::allocator<std::pair<int const ,Raven_Weapon *> > >
	mov	DWORD PTR __$EHRec$[ebp+8], 0
	mov	eax, DWORD PTR _this$[ebp]
	fld	QWORD PTR _ReactionTime$[ebp]
	fstp	QWORD PTR [eax+40]
	mov	ecx, DWORD PTR _this$[ebp]
	fld	QWORD PTR _AimAccuracy$[ebp]
	fstp	QWORD PTR [ecx+48]
	mov	edx, DWORD PTR _this$[ebp]
	fld	QWORD PTR _AimPersistance$[ebp]
	fstp	QWORD PTR [edx+56]

; 25   :   Initialize();

	mov	ecx, DWORD PTR _this$[ebp]
	call	?Initialize@AbstWeaponSystem@@UAEXXZ	; AbstWeaponSystem::Initialize

; 26   : }

	mov	DWORD PTR __$EHRec$[ebp+8], -1
	mov	eax, DWORD PTR _this$[ebp]
	mov	ecx, DWORD PTR __$EHRec$[ebp]
	mov	DWORD PTR fs:0, ecx
	pop	ecx
	add	esp, 16					; 00000010H
	cmp	ebp, esp
	call	__RTC_CheckEsp
	mov	esp, ebp
	pop	ebp
	ret	28					; 0000001cH
_TEXT	ENDS
text$x	SEGMENT
__unwindfunclet$??0AbstWeaponSystem@@QAE@PAVAbstRaven_Bot@@NNN@Z$0:
	mov	ecx, DWORD PTR _this$[ebp]
	add	ecx, 12					; 0000000cH
	jmp	??1?$map@HPAVRaven_Weapon@@U?$less@H@std@@V?$allocator@U?$pair@$$CBHPAVRaven_Weapon@@@std@@@3@@std@@QAE@XZ
__ehhandler$??0AbstWeaponSystem@@QAE@PAVAbstRaven_Bot@@NNN@Z:
	mov	edx, DWORD PTR [esp+8]
	lea	eax, DWORD PTR [edx+12]
	mov	ecx, DWORD PTR [edx-8]
	xor	ecx, eax
	call	@__security_check_cookie@4
	mov	eax, OFFSET __ehfuncinfo$??0AbstWeaponSystem@@QAE@PAVAbstRaven_Bot@@NNN@Z
	jmp	___CxxFrameHandler3
text$x	ENDS
??0AbstWeaponSystem@@QAE@PAVAbstRaven_Bot@@NNN@Z ENDP	; AbstWeaponSystem::AbstWeaponSystem
PUBLIC	??1?$_Tree@V?$_Tmap_traits@HPAVRaven_Weapon@@U?$less@H@std@@V?$allocator@U?$pair@$$CBHPAVRaven_Weapon@@@std@@@3@$0A@@std@@@std@@QAE@XZ ; std::_Tree<std::_Tmap_traits<int,Raven_Weapon *,std::less<int>,std::allocator<std::pair<int const ,Raven_Weapon *> >,0> >::~_Tree<std::_Tmap_traits<int,Raven_Weapon *,std::less<int>,std::allocator<std::pair<int const ,Raven_Weapon *> >,0> >
; Function compile flags: /Odtp /RTCsu
;	COMDAT ??1?$map@HPAVRaven_Weapon@@U?$less@H@std@@V?$allocator@U?$pair@$$CBHPAVRaven_Weapon@@@std@@@3@@std@@QAE@XZ
_TEXT	SEGMENT
_this$ = -4						; size = 4
??1?$map@HPAVRaven_Weapon@@U?$less@H@std@@V?$allocator@U?$pair@$$CBHPAVRaven_Weapon@@@std@@@3@@std@@QAE@XZ PROC ; std::map<int,Raven_Weapon *,std::less<int>,std::allocator<std::pair<int const ,Raven_Weapon *> > >::~map<int,Raven_Weapon *,std::less<int>,std::allocator<std::pair<int const ,Raven_Weapon *> > >, COMDAT
; _this$ = ecx
	push	ebp
	mov	ebp, esp
	push	ecx
	mov	DWORD PTR [ebp-4], -858993460		; ccccccccH
	mov	DWORD PTR _this$[ebp], ecx
	mov	ecx, DWORD PTR _this$[ebp]
	call	??1?$_Tree@V?$_Tmap_traits@HPAVRaven_Weapon@@U?$less@H@std@@V?$allocator@U?$pair@$$CBHPAVRaven_Weapon@@@std@@@3@$0A@@std@@@std@@QAE@XZ ; std::_Tree<std::_Tmap_traits<int,Raven_Weapon *,std::less<int>,std::allocator<std::pair<int const ,Raven_Weapon *> >,0> >::~_Tree<std::_Tmap_traits<int,Raven_Weapon *,std::less<int>,std::allocator<std::pair<int const ,Raven_Weapon *> >,0> >
	add	esp, 4
	cmp	ebp, esp
	call	__RTC_CheckEsp
	mov	esp, ebp
	pop	ebp
	ret	0
??1?$map@HPAVRaven_Weapon@@U?$less@H@std@@V?$allocator@U?$pair@$$CBHPAVRaven_Weapon@@@std@@@3@@std@@QAE@XZ ENDP ; std::map<int,Raven_Weapon *,std::less<int>,std::allocator<std::pair<int const ,Raven_Weapon *> > >::~map<int,Raven_Weapon *,std::less<int>,std::allocator<std::pair<int const ,Raven_Weapon *> > >
_TEXT	ENDS
PUBLIC	??A?$map@HPAVRaven_Weapon@@U?$less@H@std@@V?$allocator@U?$pair@$$CBHPAVRaven_Weapon@@@std@@@3@@std@@QAEAAPAVRaven_Weapon@@ABH@Z ; std::map<int,Raven_Weapon *,std::less<int>,std::allocator<std::pair<int const ,Raven_Weapon *> > >::operator[]
PUBLIC	?size@?$_Tree@V?$_Tmap_traits@HPAVRaven_Weapon@@U?$less@H@std@@V?$allocator@U?$pair@$$CBHPAVRaven_Weapon@@@std@@@3@$0A@@std@@@std@@QBEIXZ ; std::_Tree<std::_Tmap_traits<int,Raven_Weapon *,std::less<int>,std::allocator<std::pair<int const ,Raven_Weapon *> >,0> >::size
PUBLIC	??1AbstWeaponSystem@@QAE@XZ			; AbstWeaponSystem::~AbstWeaponSystem
xdata$x	SEGMENT
__unwindtable$??1AbstWeaponSystem@@QAE@XZ DD 0ffffffffH
	DD	FLAT:__unwindfunclet$??1AbstWeaponSystem@@QAE@XZ$0
__ehfuncinfo$??1AbstWeaponSystem@@QAE@XZ DD 019930522H
	DD	01H
	DD	FLAT:__unwindtable$??1AbstWeaponSystem@@QAE@XZ
	DD	2 DUP(00H)
	DD	2 DUP(00H)
	DD	00H
	DD	01H
; Function compile flags: /Odtp /RTCsu
xdata$x	ENDS
_TEXT	SEGMENT
tv85 = -36						; size = 4
$T150802 = -32						; size = 4
$T150801 = -28						; size = 4
$T150800 = -24						; size = 4
_w$137322 = -20						; size = 4
_this$ = -16						; size = 4
__$EHRec$ = -12						; size = 12
??1AbstWeaponSystem@@QAE@XZ PROC			; AbstWeaponSystem::~AbstWeaponSystem
; _this$ = ecx

; 31   : {

	push	ebp
	mov	ebp, esp
	push	-1
	push	__ehhandler$??1AbstWeaponSystem@@QAE@XZ
	mov	eax, DWORD PTR fs:0
	push	eax
	sub	esp, 24					; 00000018H
	push	esi
	mov	eax, -858993460				; ccccccccH
	mov	DWORD PTR [ebp-36], eax
	mov	DWORD PTR [ebp-32], eax
	mov	DWORD PTR [ebp-28], eax
	mov	DWORD PTR [ebp-24], eax
	mov	DWORD PTR [ebp-20], eax
	mov	DWORD PTR [ebp-16], eax
	mov	eax, DWORD PTR ___security_cookie
	xor	eax, ebp
	push	eax
	lea	eax, DWORD PTR __$EHRec$[ebp]
	mov	DWORD PTR fs:0, eax
	mov	DWORD PTR _this$[ebp], ecx
	mov	eax, DWORD PTR _this$[ebp]
	mov	DWORD PTR [eax], OFFSET ??_7AbstWeaponSystem@@6B@
	mov	DWORD PTR __$EHRec$[ebp+8], 0

; 32   :   for (unsigned int w=0; w<m_WeaponMap.size(); ++w)

	mov	DWORD PTR _w$137322[ebp], 0
	jmp	SHORT $LN3@AbstWeapon
$LN2@AbstWeapon:
	mov	ecx, DWORD PTR _w$137322[ebp]
	add	ecx, 1
	mov	DWORD PTR _w$137322[ebp], ecx
$LN3@AbstWeapon:
	mov	ecx, DWORD PTR _this$[ebp]
	add	ecx, 12					; 0000000cH
	call	?size@?$_Tree@V?$_Tmap_traits@HPAVRaven_Weapon@@U?$less@H@std@@V?$allocator@U?$pair@$$CBHPAVRaven_Weapon@@@std@@@3@$0A@@std@@@std@@QBEIXZ ; std::_Tree<std::_Tmap_traits<int,Raven_Weapon *,std::less<int>,std::allocator<std::pair<int const ,Raven_Weapon *> >,0> >::size
	cmp	DWORD PTR _w$137322[ebp], eax
	jae	SHORT $LN4@AbstWeapon

; 33   :   {
; 34   :     delete m_WeaponMap[w];

	mov	edx, DWORD PTR _w$137322[ebp]
	mov	DWORD PTR $T150802[ebp], edx
	lea	eax, DWORD PTR $T150802[ebp]
	push	eax
	mov	ecx, DWORD PTR _this$[ebp]
	add	ecx, 12					; 0000000cH
	call	??A?$map@HPAVRaven_Weapon@@U?$less@H@std@@V?$allocator@U?$pair@$$CBHPAVRaven_Weapon@@@std@@@3@@std@@QAEAAPAVRaven_Weapon@@ABH@Z ; std::map<int,Raven_Weapon *,std::less<int>,std::allocator<std::pair<int const ,Raven_Weapon *> > >::operator[]
	mov	ecx, DWORD PTR [eax]
	mov	DWORD PTR $T150801[ebp], ecx
	mov	edx, DWORD PTR $T150801[ebp]
	mov	DWORD PTR $T150800[ebp], edx
	cmp	DWORD PTR $T150800[ebp], 0
	je	SHORT $LN6@AbstWeapon
	mov	esi, esp
	push	1
	mov	eax, DWORD PTR $T150800[ebp]
	mov	edx, DWORD PTR [eax]
	mov	ecx, DWORD PTR $T150800[ebp]
	mov	eax, DWORD PTR [edx+4]
	call	eax
	cmp	esi, esp
	call	__RTC_CheckEsp
	mov	DWORD PTR tv85[ebp], eax
	jmp	SHORT $LN7@AbstWeapon
$LN6@AbstWeapon:
	mov	DWORD PTR tv85[ebp], 0
$LN7@AbstWeapon:

; 35   :   }

	jmp	SHORT $LN2@AbstWeapon
$LN4@AbstWeapon:

; 36   : }

	mov	DWORD PTR __$EHRec$[ebp+8], -1
	mov	ecx, DWORD PTR _this$[ebp]
	add	ecx, 12					; 0000000cH
	call	??1?$map@HPAVRaven_Weapon@@U?$less@H@std@@V?$allocator@U?$pair@$$CBHPAVRaven_Weapon@@@std@@@3@@std@@QAE@XZ
	mov	ecx, DWORD PTR __$EHRec$[ebp]
	mov	DWORD PTR fs:0, ecx
	pop	ecx
	pop	esi
	add	esp, 36					; 00000024H
	cmp	ebp, esp
	call	__RTC_CheckEsp
	mov	esp, ebp
	pop	ebp
	ret	0
_TEXT	ENDS
text$x	SEGMENT
__unwindfunclet$??1AbstWeaponSystem@@QAE@XZ$0:
	mov	ecx, DWORD PTR _this$[ebp]
	add	ecx, 12					; 0000000cH
	jmp	??1?$map@HPAVRaven_Weapon@@U?$less@H@std@@V?$allocator@U?$pair@$$CBHPAVRaven_Weapon@@@std@@@3@@std@@QAE@XZ
__ehhandler$??1AbstWeaponSystem@@QAE@XZ:
	mov	edx, DWORD PTR [esp+8]
	lea	eax, DWORD PTR [edx+12]
	mov	ecx, DWORD PTR [edx-32]
	xor	ecx, eax
	call	@__security_check_cookie@4
	mov	eax, OFFSET __ehfuncinfo$??1AbstWeaponSystem@@QAE@XZ
	jmp	___CxxFrameHandler3
text$x	ENDS
??1AbstWeaponSystem@@QAE@XZ ENDP			; AbstWeaponSystem::~AbstWeaponSystem
PUBLIC	??A?$map@HPAVRaven_Weapon@@U?$less@H@std@@V?$allocator@U?$pair@$$CBHPAVRaven_Weapon@@@std@@@3@@std@@QAEAAPAVRaven_Weapon@@$$QAH@Z ; std::map<int,Raven_Weapon *,std::less<int>,std::allocator<std::pair<int const ,Raven_Weapon *> > >::operator[]
PUBLIC	?clear@?$_Tree@V?$_Tmap_traits@HPAVRaven_Weapon@@U?$less@H@std@@V?$allocator@U?$pair@$$CBHPAVRaven_Weapon@@@std@@@3@$0A@@std@@@std@@QAEXXZ ; std::_Tree<std::_Tmap_traits<int,Raven_Weapon *,std::less<int>,std::allocator<std::pair<int const ,Raven_Weapon *> >,0> >::clear
PUBLIC	??C?$_Tree_iterator@V?$_Tree_val@V?$_Tmap_traits@HPAVRaven_Weapon@@U?$less@H@std@@V?$allocator@U?$pair@$$CBHPAVRaven_Weapon@@@std@@@3@$0A@@std@@@std@@@std@@QBEPAU?$pair@$$CBHPAVRaven_Weapon@@@1@XZ ; std::_Tree_iterator<std::_Tree_val<std::_Tmap_traits<int,Raven_Weapon *,std::less<int>,std::allocator<std::pair<int const ,Raven_Weapon *> >,0> > >::operator->
PUBLIC	??9?$_Tree_const_iterator@V?$_Tree_val@V?$_Tmap_traits@HPAVRaven_Weapon@@U?$less@H@std@@V?$allocator@U?$pair@$$CBHPAVRaven_Weapon@@@std@@@3@$0A@@std@@@std@@@std@@QBE_NABV01@@Z ; std::_Tree_const_iterator<std::_Tree_val<std::_Tmap_traits<int,Raven_Weapon *,std::less<int>,std::allocator<std::pair<int const ,Raven_Weapon *> >,0> > >::operator!=
PUBLIC	?end@?$_Tree@V?$_Tmap_traits@HPAVRaven_Weapon@@U?$less@H@std@@V?$allocator@U?$pair@$$CBHPAVRaven_Weapon@@@std@@@3@$0A@@std@@@std@@QAE?AV?$_Tree_iterator@V?$_Tree_val@V?$_Tmap_traits@HPAVRaven_Weapon@@U?$less@H@std@@V?$allocator@U?$pair@$$CBHPAVRaven_Weapon@@@std@@@3@$0A@@std@@@std@@@2@XZ ; std::_Tree<std::_Tmap_traits<int,Raven_Weapon *,std::less<int>,std::allocator<std::pair<int const ,Raven_Weapon *> >,0> >::end
PUBLIC	??E?$_Tree_iterator@V?$_Tree_val@V?$_Tmap_traits@HPAVRaven_Weapon@@U?$less@H@std@@V?$allocator@U?$pair@$$CBHPAVRaven_Weapon@@@std@@@3@$0A@@std@@@std@@@std@@QAEAAV01@XZ ; std::_Tree_iterator<std::_Tree_val<std::_Tmap_traits<int,Raven_Weapon *,std::less<int>,std::allocator<std::pair<int const ,Raven_Weapon *> >,0> > >::operator++
PUBLIC	??1?$_Tree_iterator@V?$_Tree_val@V?$_Tmap_traits@HPAVRaven_Weapon@@U?$less@H@std@@V?$allocator@U?$pair@$$CBHPAVRaven_Weapon@@@std@@@3@$0A@@std@@@std@@@std@@QAE@XZ ; std::_Tree_iterator<std::_Tree_val<std::_Tmap_traits<int,Raven_Weapon *,std::less<int>,std::allocator<std::pair<int const ,Raven_Weapon *> >,0> > >::~_Tree_iterator<std::_Tree_val<std::_Tmap_traits<int,Raven_Weapon *,std::less<int>,std::allocator<std::pair<int const ,Raven_Weapon *> >,0> > >
PUBLIC	??4?$_Tree_iterator@V?$_Tree_val@V?$_Tmap_traits@HPAVRaven_Weapon@@U?$less@H@std@@V?$allocator@U?$pair@$$CBHPAVRaven_Weapon@@@std@@@3@$0A@@std@@@std@@@std@@QAEAAV01@ABV01@@Z ; std::_Tree_iterator<std::_Tree_val<std::_Tmap_traits<int,Raven_Weapon *,std::less<int>,std::allocator<std::pair<int const ,Raven_Weapon *> >,0> > >::operator=
PUBLIC	?begin@?$_Tree@V?$_Tmap_traits@HPAVRaven_Weapon@@U?$less@H@std@@V?$allocator@U?$pair@$$CBHPAVRaven_Weapon@@@std@@@3@$0A@@std@@@std@@QAE?AV?$_Tree_iterator@V?$_Tree_val@V?$_Tmap_traits@HPAVRaven_Weapon@@U?$less@H@std@@V?$allocator@U?$pair@$$CBHPAVRaven_Weapon@@@std@@@3@$0A@@std@@@std@@@2@XZ ; std::_Tree<std::_Tmap_traits<int,Raven_Weapon *,std::less<int>,std::allocator<std::pair<int const ,Raven_Weapon *> >,0> >::begin
PUBLIC	??0?$_Tree_iterator@V?$_Tree_val@V?$_Tmap_traits@HPAVRaven_Weapon@@U?$less@H@std@@V?$allocator@U?$pair@$$CBHPAVRaven_Weapon@@@std@@@3@$0A@@std@@@std@@@std@@QAE@XZ ; std::_Tree_iterator<std::_Tree_val<std::_Tmap_traits<int,Raven_Weapon *,std::less<int>,std::allocator<std::pair<int const ,Raven_Weapon *> >,0> > >::_Tree_iterator<std::_Tree_val<std::_Tmap_traits<int,Raven_Weapon *,std::less<int>,std::allocator<std::pair<int const ,Raven_Weapon *> >,0> > >
EXTRN	??3@YAXPAX@Z:PROC				; operator delete
EXTRN	??0Blaster@@QAE@PAVAbstRaven_Bot@@@Z:PROC	; Blaster::Blaster
EXTRN	??2@YAPAXI@Z:PROC				; operator new
EXTRN	@_RTC_CheckStackVars@8:PROC
xdata$x	SEGMENT
__unwindtable$?Initialize@AbstWeaponSystem@@UAEXXZ DD 0ffffffffH
	DD	FLAT:__unwindfunclet$?Initialize@AbstWeaponSystem@@UAEXXZ$0
	DD	00H
	DD	FLAT:__unwindfunclet$?Initialize@AbstWeaponSystem@@UAEXXZ$1
	DD	00H
	DD	FLAT:__unwindfunclet$?Initialize@AbstWeaponSystem@@UAEXXZ$2
	DD	00H
	DD	FLAT:__unwindfunclet$?Initialize@AbstWeaponSystem@@UAEXXZ$3
__ehfuncinfo$?Initialize@AbstWeaponSystem@@UAEXXZ DD 019930522H
	DD	04H
	DD	FLAT:__unwindtable$?Initialize@AbstWeaponSystem@@UAEXXZ
	DD	2 DUP(00H)
	DD	2 DUP(00H)
	DD	00H
	DD	01H
; Function compile flags: /Odtp /RTCsu
xdata$x	ENDS
_TEXT	SEGMENT
tv168 = -120						; size = 4
tv148 = -116						; size = 4
tv190 = -112						; size = 4
tv192 = -108						; size = 4
tv188 = -104						; size = 4
tv65 = -100						; size = 4
$T150825 = -96						; size = 4
$T150824 = -92						; size = 4
$T150823 = -88						; size = 4
$T150822 = -84						; size = 4
$T150819 = -80						; size = 4
$T150818 = -76						; size = 4
$T150815 = -72						; size = 4
$T150814 = -68						; size = 4
$T150813 = -64						; size = 12
$T150812 = -49						; size = 1
$T150811 = -48						; size = 12
_curW$ = -32						; size = 12
_this$ = -16						; size = 4
__$EHRec$ = -12						; size = 12
?Initialize@AbstWeaponSystem@@UAEXXZ PROC		; AbstWeaponSystem::Initialize
; _this$ = ecx

; 43   : {

	push	ebp
	mov	ebp, esp
	push	-1
	push	__ehhandler$?Initialize@AbstWeaponSystem@@UAEXXZ
	mov	eax, DWORD PTR fs:0
	push	eax
	sub	esp, 108				; 0000006cH
	push	esi
	push	edi
	push	ecx
	lea	edi, DWORD PTR [ebp-120]
	mov	ecx, 27					; 0000001bH
	mov	eax, -858993460				; ccccccccH
	rep stosd
	pop	ecx
	mov	eax, DWORD PTR ___security_cookie
	xor	eax, ebp
	push	eax
	lea	eax, DWORD PTR __$EHRec$[ebp]
	mov	DWORD PTR fs:0, eax
	mov	DWORD PTR _this$[ebp], ecx

; 44   :   //delete any existing weapons
; 45   :   WeaponMap::iterator curW;

	lea	ecx, DWORD PTR _curW$[ebp]
	call	??0?$_Tree_iterator@V?$_Tree_val@V?$_Tmap_traits@HPAVRaven_Weapon@@U?$less@H@std@@V?$allocator@U?$pair@$$CBHPAVRaven_Weapon@@@std@@@3@$0A@@std@@@std@@@std@@QAE@XZ ; std::_Tree_iterator<std::_Tree_val<std::_Tmap_traits<int,Raven_Weapon *,std::less<int>,std::allocator<std::pair<int const ,Raven_Weapon *> >,0> > >::_Tree_iterator<std::_Tree_val<std::_Tmap_traits<int,Raven_Weapon *,std::less<int>,std::allocator<std::pair<int const ,Raven_Weapon *> >,0> > >
	mov	DWORD PTR __$EHRec$[ebp+8], 0

; 46   :   for (curW = m_WeaponMap.begin(); curW != m_WeaponMap.end(); ++curW)

	lea	eax, DWORD PTR $T150811[ebp]
	push	eax
	mov	ecx, DWORD PTR _this$[ebp]
	add	ecx, 12					; 0000000cH
	call	?begin@?$_Tree@V?$_Tmap_traits@HPAVRaven_Weapon@@U?$less@H@std@@V?$allocator@U?$pair@$$CBHPAVRaven_Weapon@@@std@@@3@$0A@@std@@@std@@QAE?AV?$_Tree_iterator@V?$_Tree_val@V?$_Tmap_traits@HPAVRaven_Weapon@@U?$less@H@std@@V?$allocator@U?$pair@$$CBHPAVRaven_Weapon@@@std@@@3@$0A@@std@@@std@@@2@XZ ; std::_Tree<std::_Tmap_traits<int,Raven_Weapon *,std::less<int>,std::allocator<std::pair<int const ,Raven_Weapon *> >,0> >::begin
	mov	DWORD PTR tv65[ebp], eax
	mov	ecx, DWORD PTR tv65[ebp]
	mov	DWORD PTR tv188[ebp], ecx
	mov	BYTE PTR __$EHRec$[ebp+8], 1
	mov	edx, DWORD PTR tv188[ebp]
	push	edx
	lea	ecx, DWORD PTR _curW$[ebp]
	call	??4?$_Tree_iterator@V?$_Tree_val@V?$_Tmap_traits@HPAVRaven_Weapon@@U?$less@H@std@@V?$allocator@U?$pair@$$CBHPAVRaven_Weapon@@@std@@@3@$0A@@std@@@std@@@std@@QAEAAV01@ABV01@@Z
	mov	BYTE PTR __$EHRec$[ebp+8], 0
	lea	ecx, DWORD PTR $T150811[ebp]
	call	??1?$_Tree_iterator@V?$_Tree_val@V?$_Tmap_traits@HPAVRaven_Weapon@@U?$less@H@std@@V?$allocator@U?$pair@$$CBHPAVRaven_Weapon@@@std@@@3@$0A@@std@@@std@@@std@@QAE@XZ
	jmp	SHORT $LN3@Initialize
$LN2@Initialize:
	lea	ecx, DWORD PTR _curW$[ebp]
	call	??E?$_Tree_iterator@V?$_Tree_val@V?$_Tmap_traits@HPAVRaven_Weapon@@U?$less@H@std@@V?$allocator@U?$pair@$$CBHPAVRaven_Weapon@@@std@@@3@$0A@@std@@@std@@@std@@QAEAAV01@XZ ; std::_Tree_iterator<std::_Tree_val<std::_Tmap_traits<int,Raven_Weapon *,std::less<int>,std::allocator<std::pair<int const ,Raven_Weapon *> >,0> > >::operator++
$LN3@Initialize:
	lea	eax, DWORD PTR $T150813[ebp]
	push	eax
	mov	ecx, DWORD PTR _this$[ebp]
	add	ecx, 12					; 0000000cH
	call	?end@?$_Tree@V?$_Tmap_traits@HPAVRaven_Weapon@@U?$less@H@std@@V?$allocator@U?$pair@$$CBHPAVRaven_Weapon@@@std@@@3@$0A@@std@@@std@@QAE?AV?$_Tree_iterator@V?$_Tree_val@V?$_Tmap_traits@HPAVRaven_Weapon@@U?$less@H@std@@V?$allocator@U?$pair@$$CBHPAVRaven_Weapon@@@std@@@3@$0A@@std@@@std@@@2@XZ ; std::_Tree<std::_Tmap_traits<int,Raven_Weapon *,std::less<int>,std::allocator<std::pair<int const ,Raven_Weapon *> >,0> >::end
	mov	DWORD PTR tv192[ebp], eax
	mov	ecx, DWORD PTR tv192[ebp]
	mov	DWORD PTR tv190[ebp], ecx
	mov	BYTE PTR __$EHRec$[ebp+8], 2
	mov	edx, DWORD PTR tv190[ebp]
	push	edx
	lea	ecx, DWORD PTR _curW$[ebp]
	call	??9?$_Tree_const_iterator@V?$_Tree_val@V?$_Tmap_traits@HPAVRaven_Weapon@@U?$less@H@std@@V?$allocator@U?$pair@$$CBHPAVRaven_Weapon@@@std@@@3@$0A@@std@@@std@@@std@@QBE_NABV01@@Z ; std::_Tree_const_iterator<std::_Tree_val<std::_Tmap_traits<int,Raven_Weapon *,std::less<int>,std::allocator<std::pair<int const ,Raven_Weapon *> >,0> > >::operator!=
	mov	BYTE PTR $T150812[ebp], al
	mov	BYTE PTR __$EHRec$[ebp+8], 0
	lea	ecx, DWORD PTR $T150813[ebp]
	call	??1?$_Tree_iterator@V?$_Tree_val@V?$_Tmap_traits@HPAVRaven_Weapon@@U?$less@H@std@@V?$allocator@U?$pair@$$CBHPAVRaven_Weapon@@@std@@@3@$0A@@std@@@std@@@std@@QAE@XZ
	movzx	eax, BYTE PTR $T150812[ebp]
	test	eax, eax
	je	SHORT $LN1@Initialize

; 47   :   {
; 48   :     delete curW->second;

	lea	ecx, DWORD PTR _curW$[ebp]
	call	??C?$_Tree_iterator@V?$_Tree_val@V?$_Tmap_traits@HPAVRaven_Weapon@@U?$less@H@std@@V?$allocator@U?$pair@$$CBHPAVRaven_Weapon@@@std@@@3@$0A@@std@@@std@@@std@@QBEPAU?$pair@$$CBHPAVRaven_Weapon@@@1@XZ ; std::_Tree_iterator<std::_Tree_val<std::_Tmap_traits<int,Raven_Weapon *,std::less<int>,std::allocator<std::pair<int const ,Raven_Weapon *> >,0> > >::operator->
	mov	ecx, DWORD PTR [eax+4]
	mov	DWORD PTR $T150815[ebp], ecx
	mov	edx, DWORD PTR $T150815[ebp]
	mov	DWORD PTR $T150814[ebp], edx
	cmp	DWORD PTR $T150814[ebp], 0
	je	SHORT $LN6@Initialize
	mov	esi, esp
	push	1
	mov	eax, DWORD PTR $T150814[ebp]
	mov	edx, DWORD PTR [eax]
	mov	ecx, DWORD PTR $T150814[ebp]
	mov	eax, DWORD PTR [edx+4]
	call	eax
	cmp	esi, esp
	call	__RTC_CheckEsp
	mov	DWORD PTR tv148[ebp], eax
	jmp	SHORT $LN7@Initialize
$LN6@Initialize:
	mov	DWORD PTR tv148[ebp], 0
$LN7@Initialize:

; 49   :   }

	jmp	$LN2@Initialize
$LN1@Initialize:

; 50   : 
; 51   :   m_WeaponMap.clear();

	mov	ecx, DWORD PTR _this$[ebp]
	add	ecx, 12					; 0000000cH
	call	?clear@?$_Tree@V?$_Tmap_traits@HPAVRaven_Weapon@@U?$less@H@std@@V?$allocator@U?$pair@$$CBHPAVRaven_Weapon@@@std@@@3@$0A@@std@@@std@@QAEXXZ ; std::_Tree<std::_Tmap_traits<int,Raven_Weapon *,std::less<int>,std::allocator<std::pair<int const ,Raven_Weapon *> >,0> >::clear

; 52   : 
; 53   :   //set up the container
; 54   :   m_pCurrentWeapon = new Blaster(m_pOwner);

	push	144					; 00000090H
	call	??2@YAPAXI@Z				; operator new
	add	esp, 4
	mov	DWORD PTR $T150819[ebp], eax
	mov	BYTE PTR __$EHRec$[ebp+8], 3
	cmp	DWORD PTR $T150819[ebp], 0
	je	SHORT $LN8@Initialize
	mov	ecx, DWORD PTR _this$[ebp]
	mov	edx, DWORD PTR [ecx+8]
	push	edx
	mov	ecx, DWORD PTR $T150819[ebp]
	call	??0Blaster@@QAE@PAVAbstRaven_Bot@@@Z	; Blaster::Blaster
	mov	DWORD PTR tv168[ebp], eax
	jmp	SHORT $LN9@Initialize
$LN8@Initialize:
	mov	DWORD PTR tv168[ebp], 0
$LN9@Initialize:
	mov	eax, DWORD PTR tv168[ebp]
	mov	DWORD PTR $T150818[ebp], eax
	mov	BYTE PTR __$EHRec$[ebp+8], 0
	mov	ecx, DWORD PTR _this$[ebp]
	mov	edx, DWORD PTR $T150818[ebp]
	mov	DWORD PTR [ecx+32], edx

; 55   : 
; 56   :   m_WeaponMap[type_blaster]         = m_pCurrentWeapon;

	mov	DWORD PTR $T150822[ebp], 9
	lea	eax, DWORD PTR $T150822[ebp]
	push	eax
	mov	ecx, DWORD PTR _this$[ebp]
	add	ecx, 12					; 0000000cH
	call	??A?$map@HPAVRaven_Weapon@@U?$less@H@std@@V?$allocator@U?$pair@$$CBHPAVRaven_Weapon@@@std@@@3@@std@@QAEAAPAVRaven_Weapon@@$$QAH@Z ; std::map<int,Raven_Weapon *,std::less<int>,std::allocator<std::pair<int const ,Raven_Weapon *> > >::operator[]
	mov	ecx, DWORD PTR _this$[ebp]
	mov	edx, DWORD PTR [ecx+32]
	mov	DWORD PTR [eax], edx

; 57   :   m_WeaponMap[type_shotgun]         = 0;

	mov	DWORD PTR $T150823[ebp], 8
	lea	eax, DWORD PTR $T150823[ebp]
	push	eax
	mov	ecx, DWORD PTR _this$[ebp]
	add	ecx, 12					; 0000000cH
	call	??A?$map@HPAVRaven_Weapon@@U?$less@H@std@@V?$allocator@U?$pair@$$CBHPAVRaven_Weapon@@@std@@@3@@std@@QAEAAPAVRaven_Weapon@@$$QAH@Z ; std::map<int,Raven_Weapon *,std::less<int>,std::allocator<std::pair<int const ,Raven_Weapon *> > >::operator[]
	mov	DWORD PTR [eax], 0

; 58   :   m_WeaponMap[type_rail_gun]        = 0;

	mov	DWORD PTR $T150824[ebp], 6
	lea	ecx, DWORD PTR $T150824[ebp]
	push	ecx
	mov	ecx, DWORD PTR _this$[ebp]
	add	ecx, 12					; 0000000cH
	call	??A?$map@HPAVRaven_Weapon@@U?$less@H@std@@V?$allocator@U?$pair@$$CBHPAVRaven_Weapon@@@std@@@3@@std@@QAEAAPAVRaven_Weapon@@$$QAH@Z ; std::map<int,Raven_Weapon *,std::less<int>,std::allocator<std::pair<int const ,Raven_Weapon *> > >::operator[]
	mov	DWORD PTR [eax], 0

; 59   :   m_WeaponMap[type_rocket_launcher] = 0;

	mov	DWORD PTR $T150825[ebp], 7
	lea	edx, DWORD PTR $T150825[ebp]
	push	edx
	mov	ecx, DWORD PTR _this$[ebp]
	add	ecx, 12					; 0000000cH
	call	??A?$map@HPAVRaven_Weapon@@U?$less@H@std@@V?$allocator@U?$pair@$$CBHPAVRaven_Weapon@@@std@@@3@@std@@QAEAAPAVRaven_Weapon@@$$QAH@Z ; std::map<int,Raven_Weapon *,std::less<int>,std::allocator<std::pair<int const ,Raven_Weapon *> > >::operator[]
	mov	DWORD PTR [eax], 0

; 60   : }

	mov	DWORD PTR __$EHRec$[ebp+8], -1
	lea	ecx, DWORD PTR _curW$[ebp]
	call	??1?$_Tree_iterator@V?$_Tree_val@V?$_Tmap_traits@HPAVRaven_Weapon@@U?$less@H@std@@V?$allocator@U?$pair@$$CBHPAVRaven_Weapon@@@std@@@3@$0A@@std@@@std@@@std@@QAE@XZ
	push	edx
	mov	ecx, ebp
	push	eax
	lea	edx, DWORD PTR $LN17@Initialize
	call	@_RTC_CheckStackVars@8
	pop	eax
	pop	edx
	mov	ecx, DWORD PTR __$EHRec$[ebp]
	mov	DWORD PTR fs:0, ecx
	pop	ecx
	pop	edi
	pop	esi
	add	esp, 120				; 00000078H
	cmp	ebp, esp
	call	__RTC_CheckEsp
	mov	esp, ebp
	pop	ebp
	ret	0
	npad	2
$LN17@Initialize:
	DD	1
	DD	$LN16@Initialize
$LN16@Initialize:
	DD	-32					; ffffffe0H
	DD	12					; 0000000cH
	DD	$LN14@Initialize
$LN14@Initialize:
	DB	99					; 00000063H
	DB	117					; 00000075H
	DB	114					; 00000072H
	DB	87					; 00000057H
	DB	0
_TEXT	ENDS
text$x	SEGMENT
__unwindfunclet$?Initialize@AbstWeaponSystem@@UAEXXZ$0:
	lea	ecx, DWORD PTR _curW$[ebp]
	jmp	??1?$_Tree_iterator@V?$_Tree_val@V?$_Tmap_traits@HPAVRaven_Weapon@@U?$less@H@std@@V?$allocator@U?$pair@$$CBHPAVRaven_Weapon@@@std@@@3@$0A@@std@@@std@@@std@@QAE@XZ
__unwindfunclet$?Initialize@AbstWeaponSystem@@UAEXXZ$1:
	lea	ecx, DWORD PTR $T150811[ebp]
	jmp	??1?$_Tree_iterator@V?$_Tree_val@V?$_Tmap_traits@HPAVRaven_Weapon@@U?$less@H@std@@V?$allocator@U?$pair@$$CBHPAVRaven_Weapon@@@std@@@3@$0A@@std@@@std@@@std@@QAE@XZ
__unwindfunclet$?Initialize@AbstWeaponSystem@@UAEXXZ$2:
	lea	ecx, DWORD PTR $T150813[ebp]
	jmp	??1?$_Tree_iterator@V?$_Tree_val@V?$_Tmap_traits@HPAVRaven_Weapon@@U?$less@H@std@@V?$allocator@U?$pair@$$CBHPAVRaven_Weapon@@@std@@@3@$0A@@std@@@std@@@std@@QAE@XZ
__unwindfunclet$?Initialize@AbstWeaponSystem@@UAEXXZ$3:
	mov	eax, DWORD PTR $T150819[ebp]
	push	eax
	call	??3@YAXPAX@Z				; operator delete
	pop	ecx
	ret	0
__ehhandler$?Initialize@AbstWeaponSystem@@UAEXXZ:
	mov	edx, DWORD PTR [esp+8]
	lea	eax, DWORD PTR [edx+12]
	mov	ecx, DWORD PTR [edx-120]
	xor	ecx, eax
	call	@__security_check_cookie@4
	mov	eax, OFFSET __ehfuncinfo$?Initialize@AbstWeaponSystem@@UAEXXZ
	jmp	___CxxFrameHandler3
text$x	ENDS
?Initialize@AbstWeaponSystem@@UAEXXZ ENDP		; AbstWeaponSystem::Initialize
PUBLIC	??1?$_Tree_const_iterator@V?$_Tree_val@V?$_Tmap_traits@HPAVRaven_Weapon@@U?$less@H@std@@V?$allocator@U?$pair@$$CBHPAVRaven_Weapon@@@std@@@3@$0A@@std@@@std@@@std@@QAE@XZ ; std::_Tree_const_iterator<std::_Tree_val<std::_Tmap_traits<int,Raven_Weapon *,std::less<int>,std::allocator<std::pair<int const ,Raven_Weapon *> >,0> > >::~_Tree_const_iterator<std::_Tree_val<std::_Tmap_traits<int,Raven_Weapon *,std::less<int>,std::allocator<std::pair<int const ,Raven_Weapon *> >,0> > >
; Function compile flags: /Odtp /RTCsu
;	COMDAT ??1?$_Tree_iterator@V?$_Tree_val@V?$_Tmap_traits@HPAVRaven_Weapon@@U?$less@H@std@@V?$allocator@U?$pair@$$CBHPAVRaven_Weapon@@@std@@@3@$0A@@std@@@std@@@std@@QAE@XZ
_TEXT	SEGMENT
_this$ = -4						; size = 4
??1?$_Tree_iterator@V?$_Tree_val@V?$_Tmap_traits@HPAVRaven_Weapon@@U?$less@H@std@@V?$allocator@U?$pair@$$CBHPAVRaven_Weapon@@@std@@@3@$0A@@std@@@std@@@std@@QAE@XZ PROC ; std::_Tree_iterator<std::_Tree_val<std::_Tmap_traits<int,Raven_Weapon *,std::less<int>,std::allocator<std::pair<int const ,Raven_Weapon *> >,0> > >::~_Tree_iterator<std::_Tree_val<std::_Tmap_traits<int,Raven_Weapon *,std::less<int>,std::allocator<std::pair<int const ,Raven_Weapon *> >,0> > >, COMDAT
; _this$ = ecx
	push	ebp
	mov	ebp, esp
	push	ecx
	mov	DWORD PTR [ebp-4], -858993460		; ccccccccH
	mov	DWORD PTR _this$[ebp], ecx
	mov	ecx, DWORD PTR _this$[ebp]
	call	??1?$_Tree_const_iterator@V?$_Tree_val@V?$_Tmap_traits@HPAVRaven_Weapon@@U?$less@H@std@@V?$allocator@U?$pair@$$CBHPAVRaven_Weapon@@@std@@@3@$0A@@std@@@std@@@std@@QAE@XZ
	add	esp, 4
	cmp	ebp, esp
	call	__RTC_CheckEsp
	mov	esp, ebp
	pop	ebp
	ret	0
??1?$_Tree_iterator@V?$_Tree_val@V?$_Tmap_traits@HPAVRaven_Weapon@@U?$less@H@std@@V?$allocator@U?$pair@$$CBHPAVRaven_Weapon@@@std@@@3@$0A@@std@@@std@@@std@@QAE@XZ ENDP ; std::_Tree_iterator<std::_Tree_val<std::_Tmap_traits<int,Raven_Weapon *,std::less<int>,std::allocator<std::pair<int const ,Raven_Weapon *> >,0> > >::~_Tree_iterator<std::_Tree_val<std::_Tmap_traits<int,Raven_Weapon *,std::less<int>,std::allocator<std::pair<int const ,Raven_Weapon *> >,0> > >
_TEXT	ENDS
PUBLIC	??4?$_Tree_const_iterator@V?$_Tree_val@V?$_Tmap_traits@HPAVRaven_Weapon@@U?$less@H@std@@V?$allocator@U?$pair@$$CBHPAVRaven_Weapon@@@std@@@3@$0A@@std@@@std@@@std@@QAEAAV01@ABV01@@Z ; std::_Tree_const_iterator<std::_Tree_val<std::_Tmap_traits<int,Raven_Weapon *,std::less<int>,std::allocator<std::pair<int const ,Raven_Weapon *> >,0> > >::operator=
; Function compile flags: /Odtp /RTCsu
;	COMDAT ??4?$_Tree_iterator@V?$_Tree_val@V?$_Tmap_traits@HPAVRaven_Weapon@@U?$less@H@std@@V?$allocator@U?$pair@$$CBHPAVRaven_Weapon@@@std@@@3@$0A@@std@@@std@@@std@@QAEAAV01@ABV01@@Z
_TEXT	SEGMENT
_this$ = -4						; size = 4
___that$ = 8						; size = 4
??4?$_Tree_iterator@V?$_Tree_val@V?$_Tmap_traits@HPAVRaven_Weapon@@U?$less@H@std@@V?$allocator@U?$pair@$$CBHPAVRaven_Weapon@@@std@@@3@$0A@@std@@@std@@@std@@QAEAAV01@ABV01@@Z PROC ; std::_Tree_iterator<std::_Tree_val<std::_Tmap_traits<int,Raven_Weapon *,std::less<int>,std::allocator<std::pair<int const ,Raven_Weapon *> >,0> > >::operator=, COMDAT
; _this$ = ecx
	push	ebp
	mov	ebp, esp
	push	ecx
	mov	DWORD PTR [ebp-4], -858993460		; ccccccccH
	mov	DWORD PTR _this$[ebp], ecx
	mov	eax, DWORD PTR ___that$[ebp]
	push	eax
	mov	ecx, DWORD PTR _this$[ebp]
	call	??4?$_Tree_const_iterator@V?$_Tree_val@V?$_Tmap_traits@HPAVRaven_Weapon@@U?$less@H@std@@V?$allocator@U?$pair@$$CBHPAVRaven_Weapon@@@std@@@3@$0A@@std@@@std@@@std@@QAEAAV01@ABV01@@Z
	mov	eax, DWORD PTR _this$[ebp]
	add	esp, 4
	cmp	ebp, esp
	call	__RTC_CheckEsp
	mov	esp, ebp
	pop	ebp
	ret	4
??4?$_Tree_iterator@V?$_Tree_val@V?$_Tmap_traits@HPAVRaven_Weapon@@U?$less@H@std@@V?$allocator@U?$pair@$$CBHPAVRaven_Weapon@@@std@@@3@$0A@@std@@@std@@@std@@QAEAAV01@ABV01@@Z ENDP ; std::_Tree_iterator<std::_Tree_val<std::_Tmap_traits<int,Raven_Weapon *,std::less<int>,std::allocator<std::pair<int const ,Raven_Weapon *> >,0> > >::operator=
_TEXT	ENDS
PUBLIC	??1?$_Tree_unchecked_const_iterator@V?$_Tree_val@V?$_Tmap_traits@HPAVRaven_Weapon@@U?$less@H@std@@V?$allocator@U?$pair@$$CBHPAVRaven_Weapon@@@std@@@3@$0A@@std@@@std@@U_Iterator_base12@2@@std@@QAE@XZ ; std::_Tree_unchecked_const_iterator<std::_Tree_val<std::_Tmap_traits<int,Raven_Weapon *,std::less<int>,std::allocator<std::pair<int const ,Raven_Weapon *> >,0> >,std::_Iterator_base12>::~_Tree_unchecked_const_iterator<std::_Tree_val<std::_Tmap_traits<int,Raven_Weapon *,std::less<int>,std::allocator<std::pair<int const ,Raven_Weapon *> >,0> >,std::_Iterator_base12>
; Function compile flags: /Odtp /RTCsu
;	COMDAT ??1?$_Tree_const_iterator@V?$_Tree_val@V?$_Tmap_traits@HPAVRaven_Weapon@@U?$less@H@std@@V?$allocator@U?$pair@$$CBHPAVRaven_Weapon@@@std@@@3@$0A@@std@@@std@@@std@@QAE@XZ
_TEXT	SEGMENT
_this$ = -4						; size = 4
??1?$_Tree_const_iterator@V?$_Tree_val@V?$_Tmap_traits@HPAVRaven_Weapon@@U?$less@H@std@@V?$allocator@U?$pair@$$CBHPAVRaven_Weapon@@@std@@@3@$0A@@std@@@std@@@std@@QAE@XZ PROC ; std::_Tree_const_iterator<std::_Tree_val<std::_Tmap_traits<int,Raven_Weapon *,std::less<int>,std::allocator<std::pair<int const ,Raven_Weapon *> >,0> > >::~_Tree_const_iterator<std::_Tree_val<std::_Tmap_traits<int,Raven_Weapon *,std::less<int>,std::allocator<std::pair<int const ,Raven_Weapon *> >,0> > >, COMDAT
; _this$ = ecx
	push	ebp
	mov	ebp, esp
	push	ecx
	mov	DWORD PTR [ebp-4], -858993460		; ccccccccH
	mov	DWORD PTR _this$[ebp], ecx
	mov	ecx, DWORD PTR _this$[ebp]
	call	??1?$_Tree_unchecked_const_iterator@V?$_Tree_val@V?$_Tmap_traits@HPAVRaven_Weapon@@U?$less@H@std@@V?$allocator@U?$pair@$$CBHPAVRaven_Weapon@@@std@@@3@$0A@@std@@@std@@U_Iterator_base12@2@@std@@QAE@XZ
	add	esp, 4
	cmp	ebp, esp
	call	__RTC_CheckEsp
	mov	esp, ebp
	pop	ebp
	ret	0
??1?$_Tree_const_iterator@V?$_Tree_val@V?$_Tmap_traits@HPAVRaven_Weapon@@U?$less@H@std@@V?$allocator@U?$pair@$$CBHPAVRaven_Weapon@@@std@@@3@$0A@@std@@@std@@@std@@QAE@XZ ENDP ; std::_Tree_const_iterator<std::_Tree_val<std::_Tmap_traits<int,Raven_Weapon *,std::less<int>,std::allocator<std::pair<int const ,Raven_Weapon *> >,0> > >::~_Tree_const_iterator<std::_Tree_val<std::_Tmap_traits<int,Raven_Weapon *,std::less<int>,std::allocator<std::pair<int const ,Raven_Weapon *> >,0> > >
_TEXT	ENDS
PUBLIC	??4?$_Tree_unchecked_const_iterator@V?$_Tree_val@V?$_Tmap_traits@HPAVRaven_Weapon@@U?$less@H@std@@V?$allocator@U?$pair@$$CBHPAVRaven_Weapon@@@std@@@3@$0A@@std@@@std@@U_Iterator_base12@2@@std@@QAEAAV01@ABV01@@Z ; std::_Tree_unchecked_const_iterator<std::_Tree_val<std::_Tmap_traits<int,Raven_Weapon *,std::less<int>,std::allocator<std::pair<int const ,Raven_Weapon *> >,0> >,std::_Iterator_base12>::operator=
; Function compile flags: /Odtp /RTCsu
;	COMDAT ??4?$_Tree_const_iterator@V?$_Tree_val@V?$_Tmap_traits@HPAVRaven_Weapon@@U?$less@H@std@@V?$allocator@U?$pair@$$CBHPAVRaven_Weapon@@@std@@@3@$0A@@std@@@std@@@std@@QAEAAV01@ABV01@@Z
_TEXT	SEGMENT
_this$ = -4						; size = 4
___that$ = 8						; size = 4
??4?$_Tree_const_iterator@V?$_Tree_val@V?$_Tmap_traits@HPAVRaven_Weapon@@U?$less@H@std@@V?$allocator@U?$pair@$$CBHPAVRaven_Weapon@@@std@@@3@$0A@@std@@@std@@@std@@QAEAAV01@ABV01@@Z PROC ; std::_Tree_const_iterator<std::_Tree_val<std::_Tmap_traits<int,Raven_Weapon *,std::less<int>,std::allocator<std::pair<int const ,Raven_Weapon *> >,0> > >::operator=, COMDAT
; _this$ = ecx
	push	ebp
	mov	ebp, esp
	push	ecx
	mov	DWORD PTR [ebp-4], -858993460		; ccccccccH
	mov	DWORD PTR _this$[ebp], ecx
	mov	eax, DWORD PTR ___that$[ebp]
	push	eax
	mov	ecx, DWORD PTR _this$[ebp]
	call	??4?$_Tree_unchecked_const_iterator@V?$_Tree_val@V?$_Tmap_traits@HPAVRaven_Weapon@@U?$less@H@std@@V?$allocator@U?$pair@$$CBHPAVRaven_Weapon@@@std@@@3@$0A@@std@@@std@@U_Iterator_base12@2@@std@@QAEAAV01@ABV01@@Z
	mov	eax, DWORD PTR _this$[ebp]
	add	esp, 4
	cmp	ebp, esp
	call	__RTC_CheckEsp
	mov	esp, ebp
	pop	ebp
	ret	4
??4?$_Tree_const_iterator@V?$_Tree_val@V?$_Tmap_traits@HPAVRaven_Weapon@@U?$less@H@std@@V?$allocator@U?$pair@$$CBHPAVRaven_Weapon@@@std@@@3@$0A@@std@@@std@@@std@@QAEAAV01@ABV01@@Z ENDP ; std::_Tree_const_iterator<std::_Tree_val<std::_Tmap_traits<int,Raven_Weapon *,std::less<int>,std::allocator<std::pair<int const ,Raven_Weapon *> >,0> > >::operator=
_TEXT	ENDS
PUBLIC	??1?$_Iterator012@Ubidirectional_iterator_tag@std@@U?$pair@$$CBHPAVRaven_Weapon@@@2@HPBU32@ABU32@U_Iterator_base12@2@@std@@QAE@XZ ; std::_Iterator012<std::bidirectional_iterator_tag,std::pair<int const ,Raven_Weapon *>,int,std::pair<int const ,Raven_Weapon *> const *,std::pair<int const ,Raven_Weapon *> const &,std::_Iterator_base12>::~_Iterator012<std::bidirectional_iterator_tag,std::pair<int const ,Raven_Weapon *>,int,std::pair<int const ,Raven_Weapon *> const *,std::pair<int const ,Raven_Weapon *> const &,std::_Iterator_base12>
; Function compile flags: /Odtp /RTCsu
;	COMDAT ??1?$_Tree_unchecked_const_iterator@V?$_Tree_val@V?$_Tmap_traits@HPAVRaven_Weapon@@U?$less@H@std@@V?$allocator@U?$pair@$$CBHPAVRaven_Weapon@@@std@@@3@$0A@@std@@@std@@U_Iterator_base12@2@@std@@QAE@XZ
_TEXT	SEGMENT
_this$ = -4						; size = 4
??1?$_Tree_unchecked_const_iterator@V?$_Tree_val@V?$_Tmap_traits@HPAVRaven_Weapon@@U?$less@H@std@@V?$allocator@U?$pair@$$CBHPAVRaven_Weapon@@@std@@@3@$0A@@std@@@std@@U_Iterator_base12@2@@std@@QAE@XZ PROC ; std::_Tree_unchecked_const_iterator<std::_Tree_val<std::_Tmap_traits<int,Raven_Weapon *,std::less<int>,std::allocator<std::pair<int const ,Raven_Weapon *> >,0> >,std::_Iterator_base12>::~_Tree_unchecked_const_iterator<std::_Tree_val<std::_Tmap_traits<int,Raven_Weapon *,std::less<int>,std::allocator<std::pair<int const ,Raven_Weapon *> >,0> >,std::_Iterator_base12>, COMDAT
; _this$ = ecx
	push	ebp
	mov	ebp, esp
	push	ecx
	mov	DWORD PTR [ebp-4], -858993460		; ccccccccH
	mov	DWORD PTR _this$[ebp], ecx
	mov	ecx, DWORD PTR _this$[ebp]
	call	??1?$_Iterator012@Ubidirectional_iterator_tag@std@@U?$pair@$$CBHPAVRaven_Weapon@@@2@HPBU32@ABU32@U_Iterator_base12@2@@std@@QAE@XZ
	add	esp, 4
	cmp	ebp, esp
	call	__RTC_CheckEsp
	mov	esp, ebp
	pop	ebp
	ret	0
??1?$_Tree_unchecked_const_iterator@V?$_Tree_val@V?$_Tmap_traits@HPAVRaven_Weapon@@U?$less@H@std@@V?$allocator@U?$pair@$$CBHPAVRaven_Weapon@@@std@@@3@$0A@@std@@@std@@U_Iterator_base12@2@@std@@QAE@XZ ENDP ; std::_Tree_unchecked_const_iterator<std::_Tree_val<std::_Tmap_traits<int,Raven_Weapon *,std::less<int>,std::allocator<std::pair<int const ,Raven_Weapon *> >,0> >,std::_Iterator_base12>::~_Tree_unchecked_const_iterator<std::_Tree_val<std::_Tmap_traits<int,Raven_Weapon *,std::less<int>,std::allocator<std::pair<int const ,Raven_Weapon *> >,0> >,std::_Iterator_base12>
_TEXT	ENDS
PUBLIC	??4?$_Iterator012@Ubidirectional_iterator_tag@std@@U?$pair@$$CBHPAVRaven_Weapon@@@2@HPBU32@ABU32@U_Iterator_base12@2@@std@@QAEAAU01@ABU01@@Z ; std::_Iterator012<std::bidirectional_iterator_tag,std::pair<int const ,Raven_Weapon *>,int,std::pair<int const ,Raven_Weapon *> const *,std::pair<int const ,Raven_Weapon *> const &,std::_Iterator_base12>::operator=
; Function compile flags: /Odtp /RTCsu
;	COMDAT ??4?$_Tree_unchecked_const_iterator@V?$_Tree_val@V?$_Tmap_traits@HPAVRaven_Weapon@@U?$less@H@std@@V?$allocator@U?$pair@$$CBHPAVRaven_Weapon@@@std@@@3@$0A@@std@@@std@@U_Iterator_base12@2@@std@@QAEAAV01@ABV01@@Z
_TEXT	SEGMENT
_this$ = -4						; size = 4
___that$ = 8						; size = 4
??4?$_Tree_unchecked_const_iterator@V?$_Tree_val@V?$_Tmap_traits@HPAVRaven_Weapon@@U?$less@H@std@@V?$allocator@U?$pair@$$CBHPAVRaven_Weapon@@@std@@@3@$0A@@std@@@std@@U_Iterator_base12@2@@std@@QAEAAV01@ABV01@@Z PROC ; std::_Tree_unchecked_const_iterator<std::_Tree_val<std::_Tmap_traits<int,Raven_Weapon *,std::less<int>,std::allocator<std::pair<int const ,Raven_Weapon *> >,0> >,std::_Iterator_base12>::operator=, COMDAT
; _this$ = ecx
	push	ebp
	mov	ebp, esp
	push	ecx
	mov	DWORD PTR [ebp-4], -858993460		; ccccccccH
	mov	DWORD PTR _this$[ebp], ecx
	mov	eax, DWORD PTR ___that$[ebp]
	push	eax
	mov	ecx, DWORD PTR _this$[ebp]
	call	??4?$_Iterator012@Ubidirectional_iterator_tag@std@@U?$pair@$$CBHPAVRaven_Weapon@@@2@HPBU32@ABU32@U_Iterator_base12@2@@std@@QAEAAU01@ABU01@@Z
	mov	ecx, DWORD PTR _this$[ebp]
	mov	edx, DWORD PTR ___that$[ebp]
	mov	eax, DWORD PTR [edx+8]
	mov	DWORD PTR [ecx+8], eax
	mov	eax, DWORD PTR _this$[ebp]
	add	esp, 4
	cmp	ebp, esp
	call	__RTC_CheckEsp
	mov	esp, ebp
	pop	ebp
	ret	4
??4?$_Tree_unchecked_const_iterator@V?$_Tree_val@V?$_Tmap_traits@HPAVRaven_Weapon@@U?$less@H@std@@V?$allocator@U?$pair@$$CBHPAVRaven_Weapon@@@std@@@3@$0A@@std@@@std@@U_Iterator_base12@2@@std@@QAEAAV01@ABV01@@Z ENDP ; std::_Tree_unchecked_const_iterator<std::_Tree_val<std::_Tmap_traits<int,Raven_Weapon *,std::less<int>,std::allocator<std::pair<int const ,Raven_Weapon *> >,0> >,std::_Iterator_base12>::operator=
_TEXT	ENDS
PUBLIC	??1_Iterator_base12@std@@QAE@XZ			; std::_Iterator_base12::~_Iterator_base12
; Function compile flags: /Odtp /RTCsu
;	COMDAT ??1?$_Iterator012@Ubidirectional_iterator_tag@std@@U?$pair@$$CBHPAVRaven_Weapon@@@2@HPBU32@ABU32@U_Iterator_base12@2@@std@@QAE@XZ
_TEXT	SEGMENT
_this$ = -4						; size = 4
??1?$_Iterator012@Ubidirectional_iterator_tag@std@@U?$pair@$$CBHPAVRaven_Weapon@@@2@HPBU32@ABU32@U_Iterator_base12@2@@std@@QAE@XZ PROC ; std::_Iterator012<std::bidirectional_iterator_tag,std::pair<int const ,Raven_Weapon *>,int,std::pair<int const ,Raven_Weapon *> const *,std::pair<int const ,Raven_Weapon *> const &,std::_Iterator_base12>::~_Iterator012<std::bidirectional_iterator_tag,std::pair<int const ,Raven_Weapon *>,int,std::pair<int const ,Raven_Weapon *> const *,std::pair<int const ,Raven_Weapon *> const &,std::_Iterator_base12>, COMDAT
; _this$ = ecx
	push	ebp
	mov	ebp, esp
	push	ecx
	mov	DWORD PTR [ebp-4], -858993460		; ccccccccH
	mov	DWORD PTR _this$[ebp], ecx
	mov	ecx, DWORD PTR _this$[ebp]
	call	??1_Iterator_base12@std@@QAE@XZ		; std::_Iterator_base12::~_Iterator_base12
	add	esp, 4
	cmp	ebp, esp
	call	__RTC_CheckEsp
	mov	esp, ebp
	pop	ebp
	ret	0
??1?$_Iterator012@Ubidirectional_iterator_tag@std@@U?$pair@$$CBHPAVRaven_Weapon@@@2@HPBU32@ABU32@U_Iterator_base12@2@@std@@QAE@XZ ENDP ; std::_Iterator012<std::bidirectional_iterator_tag,std::pair<int const ,Raven_Weapon *>,int,std::pair<int const ,Raven_Weapon *> const *,std::pair<int const ,Raven_Weapon *> const &,std::_Iterator_base12>::~_Iterator012<std::bidirectional_iterator_tag,std::pair<int const ,Raven_Weapon *>,int,std::pair<int const ,Raven_Weapon *> const *,std::pair<int const ,Raven_Weapon *> const &,std::_Iterator_base12>
_TEXT	ENDS
PUBLIC	?_Orphan_me@_Iterator_base12@std@@QAEXXZ	; std::_Iterator_base12::_Orphan_me
EXTRN	??1_Lockit@std@@QAE@XZ:PROC			; std::_Lockit::~_Lockit
EXTRN	??0_Lockit@std@@QAE@H@Z:PROC			; std::_Lockit::_Lockit
;	COMDAT xdata$x
; File c:\program files (x86)\microsoft visual studio 10.0\vc\include\xutility
xdata$x	SEGMENT
__unwindtable$??1_Iterator_base12@std@@QAE@XZ DD 0ffffffffH
	DD	FLAT:__unwindfunclet$??1_Iterator_base12@std@@QAE@XZ$0
__ehfuncinfo$??1_Iterator_base12@std@@QAE@XZ DD 019930522H
	DD	01H
	DD	FLAT:__unwindtable$??1_Iterator_base12@std@@QAE@XZ
	DD	2 DUP(00H)
	DD	2 DUP(00H)
	DD	00H
	DD	01H
; Function compile flags: /Odtp /RTCsu
xdata$x	ENDS
;	COMDAT ??1_Iterator_base12@std@@QAE@XZ
_TEXT	SEGMENT
__Lock$ = -24						; size = 4
_this$ = -16						; size = 4
__$EHRec$ = -12						; size = 12
??1_Iterator_base12@std@@QAE@XZ PROC			; std::_Iterator_base12::~_Iterator_base12, COMDAT
; _this$ = ecx

; 135  : 		{	// destroy the iterator

	push	ebp
	mov	ebp, esp
	push	-1
	push	__ehhandler$??1_Iterator_base12@std@@QAE@XZ
	mov	eax, DWORD PTR fs:0
	push	eax
	sub	esp, 16					; 00000010H
	mov	eax, -858993460				; ccccccccH
	mov	DWORD PTR [ebp-28], eax
	mov	DWORD PTR [ebp-24], eax
	mov	DWORD PTR [ebp-20], eax
	mov	DWORD PTR [ebp-16], eax
	mov	eax, DWORD PTR ___security_cookie
	xor	eax, ebp
	push	eax
	lea	eax, DWORD PTR __$EHRec$[ebp]
	mov	DWORD PTR fs:0, eax
	mov	DWORD PTR _this$[ebp], ecx

; 136  :  #if _ITERATOR_DEBUG_LEVEL == 2
; 137  : 		_Lockit _Lock(_LOCK_DEBUG);

	push	3
	lea	ecx, DWORD PTR __Lock$[ebp]
	call	??0_Lockit@std@@QAE@H@Z			; std::_Lockit::_Lockit
	mov	DWORD PTR __$EHRec$[ebp+8], 0

; 138  : 		_Orphan_me();

	mov	ecx, DWORD PTR _this$[ebp]
	call	?_Orphan_me@_Iterator_base12@std@@QAEXXZ ; std::_Iterator_base12::_Orphan_me

; 139  :  #endif /* _ITERATOR_DEBUG_LEVEL == 2 */
; 140  : 		}

	mov	DWORD PTR __$EHRec$[ebp+8], -1
	lea	ecx, DWORD PTR __Lock$[ebp]
	call	??1_Lockit@std@@QAE@XZ			; std::_Lockit::~_Lockit
	push	edx
	mov	ecx, ebp
	push	eax
	lea	edx, DWORD PTR $LN7@Iterator_b
	call	@_RTC_CheckStackVars@8
	pop	eax
	pop	edx
	mov	ecx, DWORD PTR __$EHRec$[ebp]
	mov	DWORD PTR fs:0, ecx
	pop	ecx
	add	esp, 28					; 0000001cH
	cmp	ebp, esp
	call	__RTC_CheckEsp
	mov	esp, ebp
	pop	ebp
	ret	0
	npad	1
$LN7@Iterator_b:
	DD	1
	DD	$LN6@Iterator_b
$LN6@Iterator_b:
	DD	-24					; ffffffe8H
	DD	4
	DD	$LN4@Iterator_b
$LN4@Iterator_b:
	DB	95					; 0000005fH
	DB	76					; 0000004cH
	DB	111					; 0000006fH
	DB	99					; 00000063H
	DB	107					; 0000006bH
	DB	0
_TEXT	ENDS
;	COMDAT text$x
text$x	SEGMENT
__unwindfunclet$??1_Iterator_base12@std@@QAE@XZ$0:
	lea	ecx, DWORD PTR __Lock$[ebp]
	jmp	??1_Lockit@std@@QAE@XZ			; std::_Lockit::~_Lockit
__ehhandler$??1_Iterator_base12@std@@QAE@XZ:
	mov	edx, DWORD PTR [esp+8]
	lea	eax, DWORD PTR [edx+12]
	mov	ecx, DWORD PTR [edx-20]
	xor	ecx, eax
	call	@__security_check_cookie@4
	mov	eax, OFFSET __ehfuncinfo$??1_Iterator_base12@std@@QAE@XZ
	jmp	___CxxFrameHandler3
text$x	ENDS
??1_Iterator_base12@std@@QAE@XZ ENDP			; std::_Iterator_base12::~_Iterator_base12
PUBLIC	??_C@_1DC@POOIKBAO@?$AAI?$AAT?$AAE?$AAR?$AAA?$AAT?$AAO?$AAR?$AA?5?$AAL?$AAI?$AAS?$AAT?$AA?5?$AAC?$AAO?$AAR?$AAR?$AAU?$AAP?$AAT?$AAE?$AAD?$AA?$CB?$AA?$AA@ ; `string'
PUBLIC	??_C@_1JA@HCKHPKJH@?$AAc?$AA?3?$AA?2?$AAP?$AAr?$AAo?$AAg?$AAr?$AAa?$AAm?$AA?5?$AAF?$AAi?$AAl?$AAe?$AAs?$AA?5?$AA?$CI?$AAx?$AA8?$AA6?$AA?$CJ?$AA?2?$AAM?$AAi?$AAc?$AAr?$AAo?$AAs?$AAo?$AAf?$AAt@ ; `string'
EXTRN	?_Debug_message@std@@YAXPB_W0I@Z:PROC		; std::_Debug_message
;	COMDAT ??_C@_1DC@POOIKBAO@?$AAI?$AAT?$AAE?$AAR?$AAA?$AAT?$AAO?$AAR?$AA?5?$AAL?$AAI?$AAS?$AAT?$AA?5?$AAC?$AAO?$AAR?$AAR?$AAU?$AAP?$AAT?$AAE?$AAD?$AA?$CB?$AA?$AA@
CONST	SEGMENT
??_C@_1DC@POOIKBAO@?$AAI?$AAT?$AAE?$AAR?$AAA?$AAT?$AAO?$AAR?$AA?5?$AAL?$AAI?$AAS?$AAT?$AA?5?$AAC?$AAO?$AAR?$AAR?$AAU?$AAP?$AAT?$AAE?$AAD?$AA?$CB?$AA?$AA@ DB 'I'
	DB	00H, 'T', 00H, 'E', 00H, 'R', 00H, 'A', 00H, 'T', 00H, 'O', 00H
	DB	'R', 00H, ' ', 00H, 'L', 00H, 'I', 00H, 'S', 00H, 'T', 00H, ' '
	DB	00H, 'C', 00H, 'O', 00H, 'R', 00H, 'R', 00H, 'U', 00H, 'P', 00H
	DB	'T', 00H, 'E', 00H, 'D', 00H, '!', 00H, 00H, 00H ; `string'
CONST	ENDS
;	COMDAT ??_C@_1JA@HCKHPKJH@?$AAc?$AA?3?$AA?2?$AAP?$AAr?$AAo?$AAg?$AAr?$AAa?$AAm?$AA?5?$AAF?$AAi?$AAl?$AAe?$AAs?$AA?5?$AA?$CI?$AAx?$AA8?$AA6?$AA?$CJ?$AA?2?$AAM?$AAi?$AAc?$AAr?$AAo?$AAs?$AAo?$AAf?$AAt@
CONST	SEGMENT
??_C@_1JA@HCKHPKJH@?$AAc?$AA?3?$AA?2?$AAP?$AAr?$AAo?$AAg?$AAr?$AAa?$AAm?$AA?5?$AAF?$AAi?$AAl?$AAe?$AAs?$AA?5?$AA?$CI?$AAx?$AA8?$AA6?$AA?$CJ?$AA?2?$AAM?$AAi?$AAc?$AAr?$AAo?$AAs?$AAo?$AAf?$AAt@ DB 'c'
	DB	00H, ':', 00H, '\', 00H, 'P', 00H, 'r', 00H, 'o', 00H, 'g', 00H
	DB	'r', 00H, 'a', 00H, 'm', 00H, ' ', 00H, 'F', 00H, 'i', 00H, 'l'
	DB	00H, 'e', 00H, 's', 00H, ' ', 00H, '(', 00H, 'x', 00H, '8', 00H
	DB	'6', 00H, ')', 00H, '\', 00H, 'M', 00H, 'i', 00H, 'c', 00H, 'r'
	DB	00H, 'o', 00H, 's', 00H, 'o', 00H, 'f', 00H, 't', 00H, ' ', 00H
	DB	'V', 00H, 'i', 00H, 's', 00H, 'u', 00H, 'a', 00H, 'l', 00H, ' '
	DB	00H, 'S', 00H, 't', 00H, 'u', 00H, 'd', 00H, 'i', 00H, 'o', 00H
	DB	' ', 00H, '1', 00H, '0', 00H, '.', 00H, '0', 00H, '\', 00H, 'V'
	DB	00H, 'C', 00H, '\', 00H, 'i', 00H, 'n', 00H, 'c', 00H, 'l', 00H
	DB	'u', 00H, 'd', 00H, 'e', 00H, '\', 00H, 'x', 00H, 'u', 00H, 't'
	DB	00H, 'i', 00H, 'l', 00H, 'i', 00H, 't', 00H, 'y', 00H, 00H, 00H ; `string'
; Function compile flags: /Odtp /RTCsu
CONST	ENDS
;	COMDAT ?_Orphan_me@_Iterator_base12@std@@QAEXXZ
_TEXT	SEGMENT
__Pnext$15159 = -8					; size = 4
_this$ = -4						; size = 4
?_Orphan_me@_Iterator_base12@std@@QAEXXZ PROC		; std::_Iterator_base12::_Orphan_me, COMDAT
; _this$ = ecx

; 184  : 		{	// cut ties with parent

	push	ebp
	mov	ebp, esp
	sub	esp, 8
	mov	DWORD PTR [ebp-8], -858993460		; ccccccccH
	mov	DWORD PTR [ebp-4], -858993460		; ccccccccH
	mov	DWORD PTR _this$[ebp], ecx

; 185  :  #if _ITERATOR_DEBUG_LEVEL == 2
; 186  : 		if (_Myproxy != 0)

	mov	eax, DWORD PTR _this$[ebp]
	cmp	DWORD PTR [eax], 0
	je	SHORT $LN5@Orphan_me

; 187  : 			{	// adopted, remove self from list
; 188  : 			_Iterator_base12 **_Pnext = &_Myproxy->_Myfirstiter;

	mov	ecx, DWORD PTR _this$[ebp]
	mov	edx, DWORD PTR [ecx]
	add	edx, 4
	mov	DWORD PTR __Pnext$15159[ebp], edx
$LN3@Orphan_me:

; 189  : 			while (*_Pnext != 0 && *_Pnext != this)

	mov	eax, DWORD PTR __Pnext$15159[ebp]
	cmp	DWORD PTR [eax], 0
	je	SHORT $LN2@Orphan_me
	mov	ecx, DWORD PTR __Pnext$15159[ebp]
	mov	edx, DWORD PTR [ecx]
	cmp	edx, DWORD PTR _this$[ebp]
	je	SHORT $LN2@Orphan_me

; 190  : 				_Pnext = &(*_Pnext)->_Mynextiter;

	mov	eax, DWORD PTR __Pnext$15159[ebp]
	mov	ecx, DWORD PTR [eax]
	add	ecx, 4
	mov	DWORD PTR __Pnext$15159[ebp], ecx
	jmp	SHORT $LN3@Orphan_me
$LN2@Orphan_me:

; 191  : 
; 192  : 			if (*_Pnext == 0)

	mov	edx, DWORD PTR __Pnext$15159[ebp]
	cmp	DWORD PTR [edx], 0
	jne	SHORT $LN1@Orphan_me

; 193  : 				_DEBUG_ERROR("ITERATOR LIST CORRUPTED!");

	push	193					; 000000c1H
	push	OFFSET ??_C@_1JA@HCKHPKJH@?$AAc?$AA?3?$AA?2?$AAP?$AAr?$AAo?$AAg?$AAr?$AAa?$AAm?$AA?5?$AAF?$AAi?$AAl?$AAe?$AAs?$AA?5?$AA?$CI?$AAx?$AA8?$AA6?$AA?$CJ?$AA?2?$AAM?$AAi?$AAc?$AAr?$AAo?$AAs?$AAo?$AAf?$AAt@
	push	OFFSET ??_C@_1DC@POOIKBAO@?$AAI?$AAT?$AAE?$AAR?$AAA?$AAT?$AAO?$AAR?$AA?5?$AAL?$AAI?$AAS?$AAT?$AA?5?$AAC?$AAO?$AAR?$AAR?$AAU?$AAP?$AAT?$AAE?$AAD?$AA?$CB?$AA?$AA@
	call	?_Debug_message@std@@YAXPB_W0I@Z	; std::_Debug_message
	add	esp, 12					; 0000000cH
$LN1@Orphan_me:

; 194  : 			*_Pnext = _Mynextiter;

	mov	eax, DWORD PTR __Pnext$15159[ebp]
	mov	ecx, DWORD PTR _this$[ebp]
	mov	edx, DWORD PTR [ecx+4]
	mov	DWORD PTR [eax], edx

; 195  : 			_Myproxy = 0;

	mov	eax, DWORD PTR _this$[ebp]
	mov	DWORD PTR [eax], 0
$LN5@Orphan_me:

; 196  : 			}
; 197  :  #endif /* _ITERATOR_DEBUG_LEVEL == 2 */
; 198  : 		}

	add	esp, 8
	cmp	ebp, esp
	call	__RTC_CheckEsp
	mov	esp, ebp
	pop	ebp
	ret	0
?_Orphan_me@_Iterator_base12@std@@QAEXXZ ENDP		; std::_Iterator_base12::_Orphan_me
_TEXT	ENDS
PUBLIC	??4_Iterator_base12@std@@QAEAAU01@ABU01@@Z	; std::_Iterator_base12::operator=
; Function compile flags: /Odtp /RTCsu
;	COMDAT ??4?$_Iterator012@Ubidirectional_iterator_tag@std@@U?$pair@$$CBHPAVRaven_Weapon@@@2@HPBU32@ABU32@U_Iterator_base12@2@@std@@QAEAAU01@ABU01@@Z
_TEXT	SEGMENT
_this$ = -4						; size = 4
___that$ = 8						; size = 4
??4?$_Iterator012@Ubidirectional_iterator_tag@std@@U?$pair@$$CBHPAVRaven_Weapon@@@2@HPBU32@ABU32@U_Iterator_base12@2@@std@@QAEAAU01@ABU01@@Z PROC ; std::_Iterator012<std::bidirectional_iterator_tag,std::pair<int const ,Raven_Weapon *>,int,std::pair<int const ,Raven_Weapon *> const *,std::pair<int const ,Raven_Weapon *> const &,std::_Iterator_base12>::operator=, COMDAT
; _this$ = ecx
	push	ebp
	mov	ebp, esp
	push	ecx
	mov	DWORD PTR [ebp-4], -858993460		; ccccccccH
	mov	DWORD PTR _this$[ebp], ecx
	mov	eax, DWORD PTR ___that$[ebp]
	push	eax
	mov	ecx, DWORD PTR _this$[ebp]
	call	??4_Iterator_base12@std@@QAEAAU01@ABU01@@Z ; std::_Iterator_base12::operator=
	mov	eax, DWORD PTR _this$[ebp]
	add	esp, 4
	cmp	ebp, esp
	call	__RTC_CheckEsp
	mov	esp, ebp
	pop	ebp
	ret	4
??4?$_Iterator012@Ubidirectional_iterator_tag@std@@U?$pair@$$CBHPAVRaven_Weapon@@@2@HPBU32@ABU32@U_Iterator_base12@2@@std@@QAEAAU01@ABU01@@Z ENDP ; std::_Iterator012<std::bidirectional_iterator_tag,std::pair<int const ,Raven_Weapon *>,int,std::pair<int const ,Raven_Weapon *> const *,std::pair<int const ,Raven_Weapon *> const &,std::_Iterator_base12>::operator=
_TEXT	ENDS
PUBLIC	?_Adopt@_Iterator_base12@std@@QAEXPBU_Container_base12@2@@Z ; std::_Iterator_base12::_Adopt
;	COMDAT xdata$x
xdata$x	SEGMENT
__unwindtable$??4_Iterator_base12@std@@QAEAAU01@ABU01@@Z DD 0ffffffffH
	DD	FLAT:__unwindfunclet$??4_Iterator_base12@std@@QAEAAU01@ABU01@@Z$0
__ehfuncinfo$??4_Iterator_base12@std@@QAEAAU01@ABU01@@Z DD 019930522H
	DD	01H
	DD	FLAT:__unwindtable$??4_Iterator_base12@std@@QAEAAU01@ABU01@@Z
	DD	2 DUP(00H)
	DD	2 DUP(00H)
	DD	00H
	DD	01H
; Function compile flags: /Odtp /RTCsu
xdata$x	ENDS
;	COMDAT ??4_Iterator_base12@std@@QAEAAU01@ABU01@@Z
_TEXT	SEGMENT
__Lock$15138 = -24					; size = 4
_this$ = -16						; size = 4
__$EHRec$ = -12						; size = 12
__Right$ = 8						; size = 4
??4_Iterator_base12@std@@QAEAAU01@ABU01@@Z PROC		; std::_Iterator_base12::operator=, COMDAT
; _this$ = ecx

; 121  : 		{	// assign an iterator

	push	ebp
	mov	ebp, esp
	push	-1
	push	__ehhandler$??4_Iterator_base12@std@@QAEAAU01@ABU01@@Z
	mov	eax, DWORD PTR fs:0
	push	eax
	sub	esp, 16					; 00000010H
	mov	eax, -858993460				; ccccccccH
	mov	DWORD PTR [ebp-28], eax
	mov	DWORD PTR [ebp-24], eax
	mov	DWORD PTR [ebp-20], eax
	mov	DWORD PTR [ebp-16], eax
	mov	eax, DWORD PTR ___security_cookie
	xor	eax, ebp
	push	eax
	lea	eax, DWORD PTR __$EHRec$[ebp]
	mov	DWORD PTR fs:0, eax
	mov	DWORD PTR _this$[ebp], ecx

; 122  : 		if (_Myproxy == _Right._Myproxy)

	mov	eax, DWORD PTR _this$[ebp]
	mov	ecx, DWORD PTR __Right$[ebp]
	mov	edx, DWORD PTR [eax]
	cmp	edx, DWORD PTR [ecx]
	jne	SHORT $LN4@operator
	jmp	SHORT $LN3@operator
$LN4@operator:

; 123  : 			;
; 124  : 		else if (_Right._Myproxy != 0)

	mov	eax, DWORD PTR __Right$[ebp]
	cmp	DWORD PTR [eax], 0
	je	SHORT $LN2@operator

; 125  : 			_Adopt(_Right._Myproxy->_Mycont);

	mov	ecx, DWORD PTR __Right$[ebp]
	mov	edx, DWORD PTR [ecx]
	mov	eax, DWORD PTR [edx]
	push	eax
	mov	ecx, DWORD PTR _this$[ebp]
	call	?_Adopt@_Iterator_base12@std@@QAEXPBU_Container_base12@2@@Z ; std::_Iterator_base12::_Adopt

; 126  : 		else

	jmp	SHORT $LN3@operator
$LN2@operator:

; 127  : 			{	// becoming invalid, disown current parent
; 128  : 			_Lockit _Lock(_LOCK_DEBUG);

	push	3
	lea	ecx, DWORD PTR __Lock$15138[ebp]
	call	??0_Lockit@std@@QAE@H@Z			; std::_Lockit::_Lockit
	mov	DWORD PTR __$EHRec$[ebp+8], 0

; 129  : 			_Orphan_me();

	mov	ecx, DWORD PTR _this$[ebp]
	call	?_Orphan_me@_Iterator_base12@std@@QAEXXZ ; std::_Iterator_base12::_Orphan_me

; 130  : 			}

	mov	DWORD PTR __$EHRec$[ebp+8], -1
	lea	ecx, DWORD PTR __Lock$15138[ebp]
	call	??1_Lockit@std@@QAE@XZ			; std::_Lockit::~_Lockit
$LN3@operator:

; 131  : 		return (*this);

	mov	eax, DWORD PTR _this$[ebp]

; 132  : 		}

	push	edx
	mov	ecx, ebp
	push	eax
	lea	edx, DWORD PTR $LN11@operator
	call	@_RTC_CheckStackVars@8
	pop	eax
	pop	edx
	mov	ecx, DWORD PTR __$EHRec$[ebp]
	mov	DWORD PTR fs:0, ecx
	pop	ecx
	add	esp, 28					; 0000001cH
	cmp	ebp, esp
	call	__RTC_CheckEsp
	mov	esp, ebp
	pop	ebp
	ret	4
$LN11@operator:
	DD	1
	DD	$LN10@operator
$LN10@operator:
	DD	-24					; ffffffe8H
	DD	4
	DD	$LN8@operator
$LN8@operator:
	DB	95					; 0000005fH
	DB	76					; 0000004cH
	DB	111					; 0000006fH
	DB	99					; 00000063H
	DB	107					; 0000006bH
	DB	0
_TEXT	ENDS
;	COMDAT text$x
text$x	SEGMENT
__unwindfunclet$??4_Iterator_base12@std@@QAEAAU01@ABU01@@Z$0:
	lea	ecx, DWORD PTR __Lock$15138[ebp]
	jmp	??1_Lockit@std@@QAE@XZ			; std::_Lockit::~_Lockit
__ehhandler$??4_Iterator_base12@std@@QAEAAU01@ABU01@@Z:
	mov	edx, DWORD PTR [esp+8]
	lea	eax, DWORD PTR [edx+12]
	mov	ecx, DWORD PTR [edx-20]
	xor	ecx, eax
	call	@__security_check_cookie@4
	mov	eax, OFFSET __ehfuncinfo$??4_Iterator_base12@std@@QAEAAU01@ABU01@@Z
	jmp	___CxxFrameHandler3
text$x	ENDS
??4_Iterator_base12@std@@QAEAAU01@ABU01@@Z ENDP		; std::_Iterator_base12::operator=
;	COMDAT xdata$x
xdata$x	SEGMENT
__unwindtable$?_Adopt@_Iterator_base12@std@@QAEXPBU_Container_base12@2@@Z DD 0ffffffffH
	DD	FLAT:__unwindfunclet$?_Adopt@_Iterator_base12@std@@QAEXPBU_Container_base12@2@@Z$0
	DD	0ffffffffH
	DD	FLAT:__unwindfunclet$?_Adopt@_Iterator_base12@std@@QAEXPBU_Container_base12@2@@Z$1
__ehfuncinfo$?_Adopt@_Iterator_base12@std@@QAEXPBU_Container_base12@2@@Z DD 019930522H
	DD	02H
	DD	FLAT:__unwindtable$?_Adopt@_Iterator_base12@std@@QAEXPBU_Container_base12@2@@Z
	DD	2 DUP(00H)
	DD	2 DUP(00H)
	DD	00H
	DD	01H
; Function compile flags: /Odtp /RTCsu
xdata$x	ENDS
;	COMDAT ?_Adopt@_Iterator_base12@std@@QAEXPBU_Container_base12@2@@Z
_TEXT	SEGMENT
__Lock$15149 = -40					; size = 4
__Parent_proxy$15147 = -32				; size = 4
__Lock$15145 = -24					; size = 4
_this$ = -16						; size = 4
__$EHRec$ = -12						; size = 12
__Parent$ = 8						; size = 4
?_Adopt@_Iterator_base12@std@@QAEXPBU_Container_base12@2@@Z PROC ; std::_Iterator_base12::_Adopt, COMDAT
; _this$ = ecx

; 143  : 		{	// adopt this iterator by parent

	push	ebp
	mov	ebp, esp
	push	-1
	push	__ehhandler$?_Adopt@_Iterator_base12@std@@QAEXPBU_Container_base12@2@@Z
	mov	eax, DWORD PTR fs:0
	push	eax
	sub	esp, 32					; 00000020H
	mov	eax, -858993460				; ccccccccH
	mov	DWORD PTR [ebp-44], eax
	mov	DWORD PTR [ebp-40], eax
	mov	DWORD PTR [ebp-36], eax
	mov	DWORD PTR [ebp-32], eax
	mov	DWORD PTR [ebp-28], eax
	mov	DWORD PTR [ebp-24], eax
	mov	DWORD PTR [ebp-20], eax
	mov	DWORD PTR [ebp-16], eax
	mov	eax, DWORD PTR ___security_cookie
	xor	eax, ebp
	push	eax
	lea	eax, DWORD PTR __$EHRec$[ebp]
	mov	DWORD PTR fs:0, eax
	mov	DWORD PTR _this$[ebp], ecx

; 144  : 		if (_Parent == 0)

	cmp	DWORD PTR __Parent$[ebp], 0
	jne	SHORT $LN3@Adopt

; 145  : 			{	// no future parent, just disown current parent
; 146  : 			_Lockit _Lock(_LOCK_DEBUG);

	push	3
	lea	ecx, DWORD PTR __Lock$15145[ebp]
	call	??0_Lockit@std@@QAE@H@Z			; std::_Lockit::_Lockit
	mov	DWORD PTR __$EHRec$[ebp+8], 0

; 147  : 			_Orphan_me();

	mov	ecx, DWORD PTR _this$[ebp]
	call	?_Orphan_me@_Iterator_base12@std@@QAEXXZ ; std::_Iterator_base12::_Orphan_me

; 148  : 			}

	mov	DWORD PTR __$EHRec$[ebp+8], -1
	lea	ecx, DWORD PTR __Lock$15145[ebp]
	call	??1_Lockit@std@@QAE@XZ			; std::_Lockit::~_Lockit

; 149  : 		else

	jmp	SHORT $LN4@Adopt
$LN3@Adopt:

; 150  : 			{	// have a parent, do adoption
; 151  : 			_Container_proxy *_Parent_proxy = _Parent->_Myproxy;

	mov	eax, DWORD PTR __Parent$[ebp]
	mov	ecx, DWORD PTR [eax]
	mov	DWORD PTR __Parent_proxy$15147[ebp], ecx

; 152  : 
; 153  :  #if _ITERATOR_DEBUG_LEVEL == 2
; 154  : 			if (_Myproxy != _Parent_proxy)

	mov	edx, DWORD PTR _this$[ebp]
	mov	eax, DWORD PTR [edx]
	cmp	eax, DWORD PTR __Parent_proxy$15147[ebp]
	je	SHORT $LN4@Adopt

; 155  : 				{	// change parentage
; 156  : 				_Lockit _Lock(_LOCK_DEBUG);

	push	3
	lea	ecx, DWORD PTR __Lock$15149[ebp]
	call	??0_Lockit@std@@QAE@H@Z			; std::_Lockit::_Lockit
	mov	DWORD PTR __$EHRec$[ebp+8], 1

; 157  : 				_Orphan_me();

	mov	ecx, DWORD PTR _this$[ebp]
	call	?_Orphan_me@_Iterator_base12@std@@QAEXXZ ; std::_Iterator_base12::_Orphan_me

; 158  : 				_Mynextiter = _Parent_proxy->_Myfirstiter;

	mov	ecx, DWORD PTR _this$[ebp]
	mov	edx, DWORD PTR __Parent_proxy$15147[ebp]
	mov	eax, DWORD PTR [edx+4]
	mov	DWORD PTR [ecx+4], eax

; 159  : 				_Parent_proxy->_Myfirstiter = this;

	mov	ecx, DWORD PTR __Parent_proxy$15147[ebp]
	mov	edx, DWORD PTR _this$[ebp]
	mov	DWORD PTR [ecx+4], edx

; 160  : 				_Myproxy = _Parent_proxy;

	mov	eax, DWORD PTR _this$[ebp]
	mov	ecx, DWORD PTR __Parent_proxy$15147[ebp]
	mov	DWORD PTR [eax], ecx

; 161  : 				}

	mov	DWORD PTR __$EHRec$[ebp+8], -1
	lea	ecx, DWORD PTR __Lock$15149[ebp]
	call	??1_Lockit@std@@QAE@XZ			; std::_Lockit::~_Lockit
$LN4@Adopt:

; 162  :  #else /* _ITERATOR_DEBUG_LEVEL == 2 */
; 163  : 			_Myproxy = _Parent_proxy;
; 164  :  #endif /* _ITERATOR_DEBUG_LEVEL == 2 */
; 165  : 			}
; 166  : 		}

	push	edx
	mov	ecx, ebp
	push	eax
	lea	edx, DWORD PTR $LN12@Adopt
	call	@_RTC_CheckStackVars@8
	pop	eax
	pop	edx
	mov	ecx, DWORD PTR __$EHRec$[ebp]
	mov	DWORD PTR fs:0, ecx
	pop	ecx
	add	esp, 44					; 0000002cH
	cmp	ebp, esp
	call	__RTC_CheckEsp
	mov	esp, ebp
	pop	ebp
	ret	4
$LN12@Adopt:
	DD	2
	DD	$LN11@Adopt
$LN11@Adopt:
	DD	-24					; ffffffe8H
	DD	4
	DD	$LN8@Adopt
	DD	-40					; ffffffd8H
	DD	4
	DD	$LN9@Adopt
$LN9@Adopt:
	DB	95					; 0000005fH
	DB	76					; 0000004cH
	DB	111					; 0000006fH
	DB	99					; 00000063H
	DB	107					; 0000006bH
	DB	0
$LN8@Adopt:
	DB	95					; 0000005fH
	DB	76					; 0000004cH
	DB	111					; 0000006fH
	DB	99					; 00000063H
	DB	107					; 0000006bH
	DB	0
_TEXT	ENDS
;	COMDAT text$x
text$x	SEGMENT
__unwindfunclet$?_Adopt@_Iterator_base12@std@@QAEXPBU_Container_base12@2@@Z$0:
	lea	ecx, DWORD PTR __Lock$15145[ebp]
	jmp	??1_Lockit@std@@QAE@XZ			; std::_Lockit::~_Lockit
__unwindfunclet$?_Adopt@_Iterator_base12@std@@QAEXPBU_Container_base12@2@@Z$1:
	lea	ecx, DWORD PTR __Lock$15149[ebp]
	jmp	??1_Lockit@std@@QAE@XZ			; std::_Lockit::~_Lockit
__ehhandler$?_Adopt@_Iterator_base12@std@@QAEXPBU_Container_base12@2@@Z:
	mov	edx, DWORD PTR [esp+8]
	lea	eax, DWORD PTR [edx+12]
	mov	ecx, DWORD PTR [edx-36]
	xor	ecx, eax
	call	@__security_check_cookie@4
	mov	eax, OFFSET __ehfuncinfo$?_Adopt@_Iterator_base12@std@@QAEXPBU_Container_base12@2@@Z
	jmp	___CxxFrameHandler3
text$x	ENDS
?_Adopt@_Iterator_base12@std@@QAEXPBU_Container_base12@2@@Z ENDP ; std::_Iterator_base12::_Adopt
PUBLIC	??C?$_Tree_unchecked_const_iterator@V?$_Tree_val@V?$_Tmap_traits@HPAVRaven_Weapon@@U?$less@H@std@@V?$allocator@U?$pair@$$CBHPAVRaven_Weapon@@@std@@@3@$0A@@std@@@std@@U_Iterator_base12@2@@std@@QBEPBU?$pair@$$CBHPAVRaven_Weapon@@@1@XZ ; std::_Tree_unchecked_const_iterator<std::_Tree_val<std::_Tmap_traits<int,Raven_Weapon *,std::less<int>,std::allocator<std::pair<int const ,Raven_Weapon *> >,0> >,std::_Iterator_base12>::operator->
PUBLIC	??E?$_Tree_const_iterator@V?$_Tree_val@V?$_Tmap_traits@HPAVRaven_Weapon@@U?$less@H@std@@V?$allocator@U?$pair@$$CBHPAVRaven_Weapon@@@std@@@3@$0A@@std@@@std@@@std@@QAEAAV01@XZ ; std::_Tree_const_iterator<std::_Tree_val<std::_Tmap_traits<int,Raven_Weapon *,std::less<int>,std::allocator<std::pair<int const ,Raven_Weapon *> >,0> > >::operator++
PUBLIC	??0?$_Tree_const_iterator@V?$_Tree_val@V?$_Tmap_traits@HPAVRaven_Weapon@@U?$less@H@std@@V?$allocator@U?$pair@$$CBHPAVRaven_Weapon@@@std@@@3@$0A@@std@@@std@@@std@@QAE@XZ ; std::_Tree_const_iterator<std::_Tree_val<std::_Tmap_traits<int,Raven_Weapon *,std::less<int>,std::allocator<std::pair<int const ,Raven_Weapon *> >,0> > >::_Tree_const_iterator<std::_Tree_val<std::_Tmap_traits<int,Raven_Weapon *,std::less<int>,std::allocator<std::pair<int const ,Raven_Weapon *> >,0> > >
PUBLIC	?Vec2DDistance@@YANABUVector2D@@0@Z		; Vec2DDistance
PUBLIC	?Pos@BaseGameEntity@@QBE?AUVector2D@@XZ		; BaseGameEntity::Pos
PUBLIC	?GetTarget@AbstTargetingSystem@@QBEPAVAbstRaven_Bot@@XZ ; AbstTargetingSystem::GetTarget
PUBLIC	?isTargetPresent@AbstTargetingSystem@@QBE_NXZ	; AbstTargetingSystem::isTargetPresent
PUBLIC	?GetTargetSys@AbstRaven_Bot@@QAEQAVAbstTargetingSystem@@XZ ; AbstRaven_Bot::GetTargetSys
xdata$x	SEGMENT
__unwindtable$?SelectWeapon@AbstWeaponSystem@@UAEXXZ DD 0ffffffffH
	DD	FLAT:__unwindfunclet$?SelectWeapon@AbstWeaponSystem@@UAEXXZ$0
	DD	00H
	DD	FLAT:__unwindfunclet$?SelectWeapon@AbstWeaponSystem@@UAEXXZ$1
	DD	00H
	DD	FLAT:__unwindfunclet$?SelectWeapon@AbstWeaponSystem@@UAEXXZ$2
__ehfuncinfo$?SelectWeapon@AbstWeaponSystem@@UAEXXZ DD 019930522H
	DD	03H
	DD	FLAT:__unwindtable$?SelectWeapon@AbstWeaponSystem@@UAEXXZ
	DD	2 DUP(00H)
	DD	2 DUP(00H)
	DD	00H
	DD	01H
; Function compile flags: /Odtp /RTCsu
; File c:\users\teaja\documents\artificial-fun\labravenprojecttest\raven\abstweaponsystem.cpp
xdata$x	ENDS
_TEXT	SEGMENT
tv190 = -144						; size = 4
tv217 = -140						; size = 4
tv218 = -136						; size = 4
tv215 = -132						; size = 4
tv95 = -128						; size = 4
$T150904 = -124						; size = 4
$T150903 = -120						; size = 12
$T150902 = -105						; size = 1
$T150901 = -104						; size = 12
$T150900 = -92						; size = 16
$T150899 = -76						; size = 16
_score$137720 = -60					; size = 8
_curWeap$137696 = -48					; size = 12
_BestSoFar$137695 = -32					; size = 8
_DistToTarget$137692 = -24				; size = 8
_this$ = -16						; size = 4
__$EHRec$ = -12						; size = 12
?SelectWeapon@AbstWeaponSystem@@UAEXXZ PROC		; AbstWeaponSystem::SelectWeapon
; _this$ = ecx

; 66   : { 

	push	ebp
	mov	ebp, esp
	push	-1
	push	__ehhandler$?SelectWeapon@AbstWeaponSystem@@UAEXXZ
	mov	eax, DWORD PTR fs:0
	push	eax
	sub	esp, 132				; 00000084H
	push	esi
	push	edi
	push	ecx
	lea	edi, DWORD PTR [ebp-144]
	mov	ecx, 33					; 00000021H
	mov	eax, -858993460				; ccccccccH
	rep stosd
	pop	ecx
	mov	eax, DWORD PTR ___security_cookie
	xor	eax, ebp
	push	eax
	lea	eax, DWORD PTR __$EHRec$[ebp]
	mov	DWORD PTR fs:0, eax
	mov	DWORD PTR _this$[ebp], ecx

; 67   :   //if a target is present use fuzzy logic to determine the most desirable 
; 68   :   //weapon.
; 69   :   if (m_pOwner->GetTargetSys()->isTargetPresent())

	mov	eax, DWORD PTR _this$[ebp]
	mov	ecx, DWORD PTR [eax+8]
	call	?GetTargetSys@AbstRaven_Bot@@QAEQAVAbstTargetingSystem@@XZ ; AbstRaven_Bot::GetTargetSys
	mov	ecx, eax
	call	?isTargetPresent@AbstTargetingSystem@@QBE_NXZ ; AbstTargetingSystem::isTargetPresent
	movzx	ecx, al
	test	ecx, ecx
	je	$LN7@SelectWeap

; 70   :   {
; 71   :     //calculate the distance to the target
; 72   :     double DistToTarget = Vec2DDistance(m_pOwner->Pos(), m_pOwner->GetTargetSys()->GetTarget()->Pos());

	lea	edx, DWORD PTR $T150899[ebp]
	push	edx
	mov	eax, DWORD PTR _this$[ebp]
	mov	ecx, DWORD PTR [eax+8]
	call	?GetTargetSys@AbstRaven_Bot@@QAEQAVAbstTargetingSystem@@XZ ; AbstRaven_Bot::GetTargetSys
	mov	ecx, eax
	call	?GetTarget@AbstTargetingSystem@@QBEPAVAbstRaven_Bot@@XZ ; AbstTargetingSystem::GetTarget
	mov	ecx, eax
	call	?Pos@BaseGameEntity@@QBE?AUVector2D@@XZ	; BaseGameEntity::Pos
	push	eax
	lea	ecx, DWORD PTR $T150900[ebp]
	push	ecx
	mov	edx, DWORD PTR _this$[ebp]
	mov	ecx, DWORD PTR [edx+8]
	call	?Pos@BaseGameEntity@@QBE?AUVector2D@@XZ	; BaseGameEntity::Pos
	push	eax
	call	?Vec2DDistance@@YANABUVector2D@@0@Z	; Vec2DDistance
	add	esp, 8
	fstp	QWORD PTR _DistToTarget$137692[ebp]

; 73   : 
; 74   :     //for each weapon in the inventory calculate its desirability given the 
; 75   :     //current situation. The most desirable weapon is selected
; 76   :     double BestSoFar = MinDouble;

	fld	QWORD PTR _MinDouble
	fstp	QWORD PTR _BestSoFar$137695[ebp]

; 77   : 
; 78   :     WeaponMap::const_iterator curWeap;

	lea	ecx, DWORD PTR _curWeap$137696[ebp]
	call	??0?$_Tree_const_iterator@V?$_Tree_val@V?$_Tmap_traits@HPAVRaven_Weapon@@U?$less@H@std@@V?$allocator@U?$pair@$$CBHPAVRaven_Weapon@@@std@@@3@$0A@@std@@@std@@@std@@QAE@XZ ; std::_Tree_const_iterator<std::_Tree_val<std::_Tmap_traits<int,Raven_Weapon *,std::less<int>,std::allocator<std::pair<int const ,Raven_Weapon *> >,0> > >::_Tree_const_iterator<std::_Tree_val<std::_Tmap_traits<int,Raven_Weapon *,std::less<int>,std::allocator<std::pair<int const ,Raven_Weapon *> >,0> > >
	mov	DWORD PTR __$EHRec$[ebp+8], 0

; 79   :     for (curWeap=m_WeaponMap.begin(); curWeap != m_WeaponMap.end(); ++curWeap)

	lea	eax, DWORD PTR $T150901[ebp]
	push	eax
	mov	ecx, DWORD PTR _this$[ebp]
	add	ecx, 12					; 0000000cH
	call	?begin@?$_Tree@V?$_Tmap_traits@HPAVRaven_Weapon@@U?$less@H@std@@V?$allocator@U?$pair@$$CBHPAVRaven_Weapon@@@std@@@3@$0A@@std@@@std@@QAE?AV?$_Tree_iterator@V?$_Tree_val@V?$_Tmap_traits@HPAVRaven_Weapon@@U?$less@H@std@@V?$allocator@U?$pair@$$CBHPAVRaven_Weapon@@@std@@@3@$0A@@std@@@std@@@2@XZ ; std::_Tree<std::_Tmap_traits<int,Raven_Weapon *,std::less<int>,std::allocator<std::pair<int const ,Raven_Weapon *> >,0> >::begin
	mov	DWORD PTR tv95[ebp], eax
	mov	ecx, DWORD PTR tv95[ebp]
	mov	DWORD PTR tv215[ebp], ecx
	mov	BYTE PTR __$EHRec$[ebp+8], 1
	mov	edx, DWORD PTR tv215[ebp]
	push	edx
	lea	ecx, DWORD PTR _curWeap$137696[ebp]
	call	??4?$_Tree_const_iterator@V?$_Tree_val@V?$_Tmap_traits@HPAVRaven_Weapon@@U?$less@H@std@@V?$allocator@U?$pair@$$CBHPAVRaven_Weapon@@@std@@@3@$0A@@std@@@std@@@std@@QAEAAV01@ABV01@@Z
	mov	BYTE PTR __$EHRec$[ebp+8], 0
	lea	ecx, DWORD PTR $T150901[ebp]
	call	??1?$_Tree_iterator@V?$_Tree_val@V?$_Tmap_traits@HPAVRaven_Weapon@@U?$less@H@std@@V?$allocator@U?$pair@$$CBHPAVRaven_Weapon@@@std@@@3@$0A@@std@@@std@@@std@@QAE@XZ
	jmp	SHORT $LN6@SelectWeap
$LN5@SelectWeap:
	lea	ecx, DWORD PTR _curWeap$137696[ebp]
	call	??E?$_Tree_const_iterator@V?$_Tree_val@V?$_Tmap_traits@HPAVRaven_Weapon@@U?$less@H@std@@V?$allocator@U?$pair@$$CBHPAVRaven_Weapon@@@std@@@3@$0A@@std@@@std@@@std@@QAEAAV01@XZ ; std::_Tree_const_iterator<std::_Tree_val<std::_Tmap_traits<int,Raven_Weapon *,std::less<int>,std::allocator<std::pair<int const ,Raven_Weapon *> >,0> > >::operator++
$LN6@SelectWeap:
	lea	eax, DWORD PTR $T150903[ebp]
	push	eax
	mov	ecx, DWORD PTR _this$[ebp]
	add	ecx, 12					; 0000000cH
	call	?end@?$_Tree@V?$_Tmap_traits@HPAVRaven_Weapon@@U?$less@H@std@@V?$allocator@U?$pair@$$CBHPAVRaven_Weapon@@@std@@@3@$0A@@std@@@std@@QAE?AV?$_Tree_iterator@V?$_Tree_val@V?$_Tmap_traits@HPAVRaven_Weapon@@U?$less@H@std@@V?$allocator@U?$pair@$$CBHPAVRaven_Weapon@@@std@@@3@$0A@@std@@@std@@@2@XZ ; std::_Tree<std::_Tmap_traits<int,Raven_Weapon *,std::less<int>,std::allocator<std::pair<int const ,Raven_Weapon *> >,0> >::end
	mov	DWORD PTR tv218[ebp], eax
	mov	ecx, DWORD PTR tv218[ebp]
	mov	DWORD PTR tv217[ebp], ecx
	mov	BYTE PTR __$EHRec$[ebp+8], 2
	mov	edx, DWORD PTR tv217[ebp]
	push	edx
	lea	ecx, DWORD PTR _curWeap$137696[ebp]
	call	??9?$_Tree_const_iterator@V?$_Tree_val@V?$_Tmap_traits@HPAVRaven_Weapon@@U?$less@H@std@@V?$allocator@U?$pair@$$CBHPAVRaven_Weapon@@@std@@@3@$0A@@std@@@std@@@std@@QBE_NABV01@@Z ; std::_Tree_const_iterator<std::_Tree_val<std::_Tmap_traits<int,Raven_Weapon *,std::less<int>,std::allocator<std::pair<int const ,Raven_Weapon *> >,0> > >::operator!=
	mov	BYTE PTR $T150902[ebp], al
	mov	BYTE PTR __$EHRec$[ebp+8], 0
	lea	ecx, DWORD PTR $T150903[ebp]
	call	??1?$_Tree_iterator@V?$_Tree_val@V?$_Tmap_traits@HPAVRaven_Weapon@@U?$less@H@std@@V?$allocator@U?$pair@$$CBHPAVRaven_Weapon@@@std@@@3@$0A@@std@@@std@@@std@@QAE@XZ
	movzx	eax, BYTE PTR $T150902[ebp]
	test	eax, eax
	je	SHORT $LN4@SelectWeap

; 80   :     {
; 81   :       //grab the desirability of this weapon (desirability is based upon
; 82   :       //distance to target and ammo remaining)
; 83   :       if (curWeap->second)

	lea	ecx, DWORD PTR _curWeap$137696[ebp]
	call	??C?$_Tree_unchecked_const_iterator@V?$_Tree_val@V?$_Tmap_traits@HPAVRaven_Weapon@@U?$less@H@std@@V?$allocator@U?$pair@$$CBHPAVRaven_Weapon@@@std@@@3@$0A@@std@@@std@@U_Iterator_base12@2@@std@@QBEPBU?$pair@$$CBHPAVRaven_Weapon@@@1@XZ ; std::_Tree_unchecked_const_iterator<std::_Tree_val<std::_Tmap_traits<int,Raven_Weapon *,std::less<int>,std::allocator<std::pair<int const ,Raven_Weapon *> >,0> >,std::_Iterator_base12>::operator->
	cmp	DWORD PTR [eax+4], 0
	je	SHORT $LN2@SelectWeap

; 84   :       {
; 85   :         double score = curWeap->second->GetDesirability(DistToTarget);

	lea	ecx, DWORD PTR _curWeap$137696[ebp]
	call	??C?$_Tree_unchecked_const_iterator@V?$_Tree_val@V?$_Tmap_traits@HPAVRaven_Weapon@@U?$less@H@std@@V?$allocator@U?$pair@$$CBHPAVRaven_Weapon@@@std@@@3@$0A@@std@@@std@@U_Iterator_base12@2@@std@@QBEPBU?$pair@$$CBHPAVRaven_Weapon@@@1@XZ ; std::_Tree_unchecked_const_iterator<std::_Tree_val<std::_Tmap_traits<int,Raven_Weapon *,std::less<int>,std::allocator<std::pair<int const ,Raven_Weapon *> >,0> >,std::_Iterator_base12>::operator->
	mov	ecx, DWORD PTR [eax+4]
	mov	DWORD PTR tv190[ebp], ecx
	mov	esi, esp
	sub	esp, 8
	fld	QWORD PTR _DistToTarget$137692[ebp]
	fstp	QWORD PTR [esp]
	mov	edx, DWORD PTR tv190[ebp]
	mov	eax, DWORD PTR [edx]
	mov	ecx, DWORD PTR tv190[ebp]
	mov	edx, DWORD PTR [eax+16]
	call	edx
	cmp	esi, esp
	call	__RTC_CheckEsp
	fstp	QWORD PTR _score$137720[ebp]

; 86   : 
; 87   :         //if it is the most desirable so far select it
; 88   :         if (score > BestSoFar)

	fld	QWORD PTR _BestSoFar$137695[ebp]
	fcomp	QWORD PTR _score$137720[ebp]
	fnstsw	ax
	test	ah, 5
	jp	SHORT $LN2@SelectWeap

; 89   :         {
; 90   :           BestSoFar = score;

	fld	QWORD PTR _score$137720[ebp]
	fstp	QWORD PTR _BestSoFar$137695[ebp]

; 91   : 
; 92   :           //place the weapon in the bot's hand.
; 93   :           m_pCurrentWeapon = curWeap->second;

	lea	ecx, DWORD PTR _curWeap$137696[ebp]
	call	??C?$_Tree_unchecked_const_iterator@V?$_Tree_val@V?$_Tmap_traits@HPAVRaven_Weapon@@U?$less@H@std@@V?$allocator@U?$pair@$$CBHPAVRaven_Weapon@@@std@@@3@$0A@@std@@@std@@U_Iterator_base12@2@@std@@QBEPBU?$pair@$$CBHPAVRaven_Weapon@@@1@XZ ; std::_Tree_unchecked_const_iterator<std::_Tree_val<std::_Tmap_traits<int,Raven_Weapon *,std::less<int>,std::allocator<std::pair<int const ,Raven_Weapon *> >,0> >,std::_Iterator_base12>::operator->
	mov	ecx, DWORD PTR _this$[ebp]
	mov	edx, DWORD PTR [eax+4]
	mov	DWORD PTR [ecx+32], edx
$LN2@SelectWeap:

; 94   :         }
; 95   :       }
; 96   :     }

	jmp	$LN5@SelectWeap
$LN4@SelectWeap:

; 97   :   }

	mov	DWORD PTR __$EHRec$[ebp+8], -1
	lea	ecx, DWORD PTR _curWeap$137696[ebp]
	call	??1?$_Tree_const_iterator@V?$_Tree_val@V?$_Tmap_traits@HPAVRaven_Weapon@@U?$less@H@std@@V?$allocator@U?$pair@$$CBHPAVRaven_Weapon@@@std@@@3@$0A@@std@@@std@@@std@@QAE@XZ

; 98   : 
; 99   :   else

	jmp	SHORT $LN1@SelectWeap
$LN7@SelectWeap:

; 100  :   {
; 101  :     m_pCurrentWeapon = m_WeaponMap[type_blaster];

	mov	DWORD PTR $T150904[ebp], 9
	lea	eax, DWORD PTR $T150904[ebp]
	push	eax
	mov	ecx, DWORD PTR _this$[ebp]
	add	ecx, 12					; 0000000cH
	call	??A?$map@HPAVRaven_Weapon@@U?$less@H@std@@V?$allocator@U?$pair@$$CBHPAVRaven_Weapon@@@std@@@3@@std@@QAEAAPAVRaven_Weapon@@$$QAH@Z ; std::map<int,Raven_Weapon *,std::less<int>,std::allocator<std::pair<int const ,Raven_Weapon *> > >::operator[]
	mov	ecx, DWORD PTR _this$[ebp]
	mov	edx, DWORD PTR [eax]
	mov	DWORD PTR [ecx+32], edx
$LN1@SelectWeap:

; 102  :   }
; 103  : }

	push	edx
	mov	ecx, ebp
	push	eax
	lea	edx, DWORD PTR $LN16@SelectWeap
	call	@_RTC_CheckStackVars@8
	pop	eax
	pop	edx
	mov	ecx, DWORD PTR __$EHRec$[ebp]
	mov	DWORD PTR fs:0, ecx
	pop	ecx
	pop	edi
	pop	esi
	add	esp, 144				; 00000090H
	cmp	ebp, esp
	call	__RTC_CheckEsp
	mov	esp, ebp
	pop	ebp
	ret	0
$LN16@SelectWeap:
	DD	1
	DD	$LN15@SelectWeap
$LN15@SelectWeap:
	DD	-48					; ffffffd0H
	DD	12					; 0000000cH
	DD	$LN13@SelectWeap
$LN13@SelectWeap:
	DB	99					; 00000063H
	DB	117					; 00000075H
	DB	114					; 00000072H
	DB	87					; 00000057H
	DB	101					; 00000065H
	DB	97					; 00000061H
	DB	112					; 00000070H
	DB	0
_TEXT	ENDS
text$x	SEGMENT
__unwindfunclet$?SelectWeapon@AbstWeaponSystem@@UAEXXZ$0:
	lea	ecx, DWORD PTR _curWeap$137696[ebp]
	jmp	??1?$_Tree_const_iterator@V?$_Tree_val@V?$_Tmap_traits@HPAVRaven_Weapon@@U?$less@H@std@@V?$allocator@U?$pair@$$CBHPAVRaven_Weapon@@@std@@@3@$0A@@std@@@std@@@std@@QAE@XZ
__unwindfunclet$?SelectWeapon@AbstWeaponSystem@@UAEXXZ$1:
	lea	ecx, DWORD PTR $T150901[ebp]
	jmp	??1?$_Tree_iterator@V?$_Tree_val@V?$_Tmap_traits@HPAVRaven_Weapon@@U?$less@H@std@@V?$allocator@U?$pair@$$CBHPAVRaven_Weapon@@@std@@@3@$0A@@std@@@std@@@std@@QAE@XZ
__unwindfunclet$?SelectWeapon@AbstWeaponSystem@@UAEXXZ$2:
	lea	ecx, DWORD PTR $T150903[ebp]
	jmp	??1?$_Tree_iterator@V?$_Tree_val@V?$_Tmap_traits@HPAVRaven_Weapon@@U?$less@H@std@@V?$allocator@U?$pair@$$CBHPAVRaven_Weapon@@@std@@@3@$0A@@std@@@std@@@std@@QAE@XZ
__ehhandler$?SelectWeapon@AbstWeaponSystem@@UAEXXZ:
	mov	edx, DWORD PTR [esp+8]
	lea	eax, DWORD PTR [edx+12]
	mov	ecx, DWORD PTR [edx-144]
	xor	ecx, eax
	call	@__security_check_cookie@4
	mov	eax, OFFSET __ehfuncinfo$?SelectWeapon@AbstWeaponSystem@@UAEXXZ
	jmp	___CxxFrameHandler3
text$x	ENDS
?SelectWeapon@AbstWeaponSystem@@UAEXXZ ENDP		; AbstWeaponSystem::SelectWeapon
EXTRN	_sqrt:PROC
; Function compile flags: /Odtp /RTCsu
; File c:\users\teaja\documents\artificial-fun\labravenprojecttest\common\2d\vector2d.h
;	COMDAT ?Vec2DDistance@@YANABUVector2D@@0@Z
_TEXT	SEGMENT
_xSeparation$ = -16					; size = 8
_ySeparation$ = -8					; size = 8
_v1$ = 8						; size = 4
_v2$ = 12						; size = 4
?Vec2DDistance@@YANABUVector2D@@0@Z PROC		; Vec2DDistance, COMDAT

; 274  : {

	push	ebp
	mov	ebp, esp
	sub	esp, 16					; 00000010H
	mov	eax, -858993460				; ccccccccH
	mov	DWORD PTR [ebp-16], eax
	mov	DWORD PTR [ebp-12], eax
	mov	DWORD PTR [ebp-8], eax
	mov	DWORD PTR [ebp-4], eax

; 275  : 
; 276  :   double ySeparation = v2.y - v1.y;

	mov	eax, DWORD PTR _v2$[ebp]
	mov	ecx, DWORD PTR _v1$[ebp]
	fld	QWORD PTR [eax+8]
	fsub	QWORD PTR [ecx+8]
	fstp	QWORD PTR _ySeparation$[ebp]

; 277  :   double xSeparation = v2.x - v1.x;

	mov	edx, DWORD PTR _v2$[ebp]
	mov	eax, DWORD PTR _v1$[ebp]
	fld	QWORD PTR [edx]
	fsub	QWORD PTR [eax]
	fstp	QWORD PTR _xSeparation$[ebp]

; 278  : 
; 279  :   return sqrt(ySeparation*ySeparation + xSeparation*xSeparation);

	fld	QWORD PTR _ySeparation$[ebp]
	fmul	QWORD PTR _ySeparation$[ebp]
	fld	QWORD PTR _xSeparation$[ebp]
	fmul	QWORD PTR _xSeparation$[ebp]
	faddp	ST(1), ST(0)
	sub	esp, 8
	fstp	QWORD PTR [esp]
	call	_sqrt
	add	esp, 8

; 280  : }

	add	esp, 16					; 00000010H
	cmp	ebp, esp
	call	__RTC_CheckEsp
	mov	esp, ebp
	pop	ebp
	ret	0
?Vec2DDistance@@YANABUVector2D@@0@Z ENDP		; Vec2DDistance
; Function compile flags: /Odtp /RTCsu
; File c:\users\teaja\documents\artificial-fun\labravenprojecttest\common\game\basegameentity.h
_TEXT	ENDS
;	COMDAT ?Pos@BaseGameEntity@@QBE?AUVector2D@@XZ
_TEXT	SEGMENT
_this$ = -4						; size = 4
___$ReturnUdt$ = 8					; size = 4
?Pos@BaseGameEntity@@QBE?AUVector2D@@XZ PROC		; BaseGameEntity::Pos, COMDAT
; _this$ = ecx

; 89   :   Vector2D     Pos()const{return m_vPosition;}

	push	ebp
	mov	ebp, esp
	push	ecx
	mov	DWORD PTR [ebp-4], -858993460		; ccccccccH
	mov	DWORD PTR _this$[ebp], ecx
	mov	eax, DWORD PTR _this$[ebp]
	add	eax, 24					; 00000018H
	mov	ecx, DWORD PTR ___$ReturnUdt$[ebp]
	mov	edx, DWORD PTR [eax]
	mov	DWORD PTR [ecx], edx
	mov	edx, DWORD PTR [eax+4]
	mov	DWORD PTR [ecx+4], edx
	mov	edx, DWORD PTR [eax+8]
	mov	DWORD PTR [ecx+8], edx
	mov	eax, DWORD PTR [eax+12]
	mov	DWORD PTR [ecx+12], eax
	mov	eax, DWORD PTR ___$ReturnUdt$[ebp]
	mov	esp, ebp
	pop	ebp
	ret	4
?Pos@BaseGameEntity@@QBE?AUVector2D@@XZ ENDP		; BaseGameEntity::Pos
; Function compile flags: /Odtp /RTCsu
; File c:\users\teaja\documents\artificial-fun\labravenprojecttest\raven\absttargetingsystem.h
_TEXT	ENDS
;	COMDAT ?isTargetPresent@AbstTargetingSystem@@QBE_NXZ
_TEXT	SEGMENT
_this$ = -4						; size = 4
?isTargetPresent@AbstTargetingSystem@@QBE_NXZ PROC	; AbstTargetingSystem::isTargetPresent, COMDAT
; _this$ = ecx

; 43   :   bool       isTargetPresent()const{return m_pCurrentTarget != 0;}

	push	ebp
	mov	ebp, esp
	push	ecx
	mov	DWORD PTR [ebp-4], -858993460		; ccccccccH
	mov	DWORD PTR _this$[ebp], ecx
	mov	eax, DWORD PTR _this$[ebp]
	xor	ecx, ecx
	cmp	DWORD PTR [eax+8], 0
	setne	cl
	mov	al, cl
	mov	esp, ebp
	pop	ebp
	ret	0
?isTargetPresent@AbstTargetingSystem@@QBE_NXZ ENDP	; AbstTargetingSystem::isTargetPresent
; Function compile flags: /Odtp /RTCsu
_TEXT	ENDS
;	COMDAT ?GetTarget@AbstTargetingSystem@@QBEPAVAbstRaven_Bot@@XZ
_TEXT	SEGMENT
_this$ = -4						; size = 4
?GetTarget@AbstTargetingSystem@@QBEPAVAbstRaven_Bot@@XZ PROC ; AbstTargetingSystem::GetTarget, COMDAT
; _this$ = ecx

; 63   :   AbstRaven_Bot* GetTarget()const{return m_pCurrentTarget;}

	push	ebp
	mov	ebp, esp
	push	ecx
	mov	DWORD PTR [ebp-4], -858993460		; ccccccccH
	mov	DWORD PTR _this$[ebp], ecx
	mov	eax, DWORD PTR _this$[ebp]
	mov	eax, DWORD PTR [eax+8]
	mov	esp, ebp
	pop	ebp
	ret	0
?GetTarget@AbstTargetingSystem@@QBEPAVAbstRaven_Bot@@XZ ENDP ; AbstTargetingSystem::GetTarget
; Function compile flags: /Odtp /RTCsu
; File c:\users\teaja\documents\artificial-fun\labravenprojecttest\raven\abstraven_bot.h
_TEXT	ENDS
;	COMDAT ?GetTargetSys@AbstRaven_Bot@@QAEQAVAbstTargetingSystem@@XZ
_TEXT	SEGMENT
_this$ = -4						; size = 4
?GetTargetSys@AbstRaven_Bot@@QAEQAVAbstTargetingSystem@@XZ PROC ; AbstRaven_Bot::GetTargetSys, COMDAT
; _this$ = ecx

; 222  :   AbstTargetingSystem* const       GetTargetSys(){return m_pTargSys;}

	push	ebp
	mov	ebp, esp
	push	ecx
	mov	DWORD PTR [ebp-4], -858993460		; ccccccccH
	mov	DWORD PTR _this$[ebp], ecx
	mov	eax, DWORD PTR _this$[ebp]
	mov	eax, DWORD PTR [eax+176]
	mov	esp, ebp
	pop	ebp
	ret	0
?GetTargetSys@AbstRaven_Bot@@QAEQAVAbstTargetingSystem@@XZ ENDP ; AbstRaven_Bot::GetTargetSys
_TEXT	ENDS
PUBLIC	?IncrementRounds@Raven_Weapon@@QAEXH@Z		; Raven_Weapon::IncrementRounds
PUBLIC	?NumRoundsRemaining@Raven_Weapon@@QBEHXZ	; Raven_Weapon::NumRoundsRemaining
PUBLIC	?GetWeaponFromInventory@AbstWeaponSystem@@QAEPAVRaven_Weapon@@H@Z ; AbstWeaponSystem::GetWeaponFromInventory
EXTRN	??0RocketLauncher@@QAE@PAVAbstRaven_Bot@@@Z:PROC ; RocketLauncher::RocketLauncher
EXTRN	??0ShotGun@@QAE@PAVAbstRaven_Bot@@@Z:PROC	; ShotGun::ShotGun
EXTRN	??0RailGun@@QAE@PAVAbstRaven_Bot@@@Z:PROC	; RailGun::RailGun
xdata$x	SEGMENT
__unwindtable$?AddWeapon@AbstWeaponSystem@@UAEXI@Z DD 0ffffffffH
	DD	FLAT:__unwindfunclet$?AddWeapon@AbstWeaponSystem@@UAEXI@Z$0
	DD	0ffffffffH
	DD	FLAT:__unwindfunclet$?AddWeapon@AbstWeaponSystem@@UAEXI@Z$1
	DD	0ffffffffH
	DD	FLAT:__unwindfunclet$?AddWeapon@AbstWeaponSystem@@UAEXI@Z$2
__ehfuncinfo$?AddWeapon@AbstWeaponSystem@@UAEXI@Z DD 019930522H
	DD	03H
	DD	FLAT:__unwindtable$?AddWeapon@AbstWeaponSystem@@UAEXI@Z
	DD	2 DUP(00H)
	DD	2 DUP(00H)
	DD	00H
	DD	01H
; Function compile flags: /Odtp /RTCsu
; File c:\users\teaja\documents\artificial-fun\labravenprojecttest\raven\abstweaponsystem.cpp
xdata$x	ENDS
_TEXT	SEGMENT
tv153 = -80						; size = 4
tv135 = -76						; size = 4
tv90 = -72						; size = 4
tv77 = -68						; size = 4
tv64 = -64						; size = 4
$T150942 = -60						; size = 4
$T150939 = -56						; size = 4
$T150938 = -52						; size = 4
$T150935 = -48						; size = 4
$T150934 = -44						; size = 4
$T150931 = -40						; size = 4
$T150930 = -36						; size = 4
$T150927 = -32						; size = 4
$T150926 = -28						; size = 4
_present$ = -24						; size = 4
_w$ = -20						; size = 4
_this$ = -16						; size = 4
__$EHRec$ = -12						; size = 12
_weapon_type$ = 8					; size = 4
?AddWeapon@AbstWeaponSystem@@UAEXI@Z PROC		; AbstWeaponSystem::AddWeapon
; _this$ = ecx

; 113  : {

	push	ebp
	mov	ebp, esp
	push	-1
	push	__ehhandler$?AddWeapon@AbstWeaponSystem@@UAEXI@Z
	mov	eax, DWORD PTR fs:0
	push	eax
	sub	esp, 68					; 00000044H
	push	esi
	push	edi
	push	ecx
	lea	edi, DWORD PTR [ebp-80]
	mov	ecx, 17					; 00000011H
	mov	eax, -858993460				; ccccccccH
	rep stosd
	pop	ecx
	mov	eax, DWORD PTR ___security_cookie
	xor	eax, ebp
	push	eax
	lea	eax, DWORD PTR __$EHRec$[ebp]
	mov	DWORD PTR fs:0, eax
	mov	DWORD PTR _this$[ebp], ecx

; 114  :   //create an instance of this weapon
; 115  :   Raven_Weapon* w = 0;

	mov	DWORD PTR _w$[ebp], 0

; 116  : 
; 117  :   switch(weapon_type)

	mov	eax, DWORD PTR _weapon_type$[ebp]
	mov	DWORD PTR tv64[ebp], eax
	cmp	DWORD PTR tv64[ebp], 6
	je	SHORT $LN5@AddWeapon
	cmp	DWORD PTR tv64[ebp], 7
	je	$LN3@AddWeapon
	cmp	DWORD PTR tv64[ebp], 8
	je	SHORT $LN4@AddWeapon
	jmp	$LN6@AddWeapon
$LN5@AddWeapon:

; 118  :   {
; 119  :   case type_rail_gun:
; 120  : 
; 121  :     w = new RailGun(m_pOwner); break;

	push	144					; 00000090H
	call	??2@YAPAXI@Z				; operator new
	add	esp, 4
	mov	DWORD PTR $T150927[ebp], eax
	mov	DWORD PTR __$EHRec$[ebp+8], 0
	cmp	DWORD PTR $T150927[ebp], 0
	je	SHORT $LN10@AddWeapon
	mov	ecx, DWORD PTR _this$[ebp]
	mov	edx, DWORD PTR [ecx+8]
	push	edx
	mov	ecx, DWORD PTR $T150927[ebp]
	call	??0RailGun@@QAE@PAVAbstRaven_Bot@@@Z	; RailGun::RailGun
	mov	DWORD PTR tv77[ebp], eax
	jmp	SHORT $LN11@AddWeapon
$LN10@AddWeapon:
	mov	DWORD PTR tv77[ebp], 0
$LN11@AddWeapon:
	mov	eax, DWORD PTR tv77[ebp]
	mov	DWORD PTR $T150926[ebp], eax
	mov	DWORD PTR __$EHRec$[ebp+8], -1
	mov	ecx, DWORD PTR $T150926[ebp]
	mov	DWORD PTR _w$[ebp], ecx
	jmp	$LN6@AddWeapon
$LN4@AddWeapon:

; 122  : 
; 123  :   case type_shotgun:
; 124  : 
; 125  :     w = new ShotGun(m_pOwner); break;

	push	160					; 000000a0H
	call	??2@YAPAXI@Z				; operator new
	add	esp, 4
	mov	DWORD PTR $T150931[ebp], eax
	mov	DWORD PTR __$EHRec$[ebp+8], 1
	cmp	DWORD PTR $T150931[ebp], 0
	je	SHORT $LN12@AddWeapon
	mov	edx, DWORD PTR _this$[ebp]
	mov	eax, DWORD PTR [edx+8]
	push	eax
	mov	ecx, DWORD PTR $T150931[ebp]
	call	??0ShotGun@@QAE@PAVAbstRaven_Bot@@@Z	; ShotGun::ShotGun
	mov	DWORD PTR tv90[ebp], eax
	jmp	SHORT $LN13@AddWeapon
$LN12@AddWeapon:
	mov	DWORD PTR tv90[ebp], 0
$LN13@AddWeapon:
	mov	ecx, DWORD PTR tv90[ebp]
	mov	DWORD PTR $T150930[ebp], ecx
	mov	DWORD PTR __$EHRec$[ebp+8], -1
	mov	edx, DWORD PTR $T150930[ebp]
	mov	DWORD PTR _w$[ebp], edx
	jmp	SHORT $LN6@AddWeapon
$LN3@AddWeapon:

; 126  : 
; 127  :   case type_rocket_launcher:
; 128  : 
; 129  :     w = new RocketLauncher(m_pOwner); break;

	push	144					; 00000090H
	call	??2@YAPAXI@Z				; operator new
	add	esp, 4
	mov	DWORD PTR $T150935[ebp], eax
	mov	DWORD PTR __$EHRec$[ebp+8], 2
	cmp	DWORD PTR $T150935[ebp], 0
	je	SHORT $LN14@AddWeapon
	mov	eax, DWORD PTR _this$[ebp]
	mov	ecx, DWORD PTR [eax+8]
	push	ecx
	mov	ecx, DWORD PTR $T150935[ebp]
	call	??0RocketLauncher@@QAE@PAVAbstRaven_Bot@@@Z ; RocketLauncher::RocketLauncher
	mov	DWORD PTR tv135[ebp], eax
	jmp	SHORT $LN15@AddWeapon
$LN14@AddWeapon:
	mov	DWORD PTR tv135[ebp], 0
$LN15@AddWeapon:
	mov	edx, DWORD PTR tv135[ebp]
	mov	DWORD PTR $T150934[ebp], edx
	mov	DWORD PTR __$EHRec$[ebp+8], -1
	mov	eax, DWORD PTR $T150934[ebp]
	mov	DWORD PTR _w$[ebp], eax
$LN6@AddWeapon:

; 130  : 
; 131  :   }//end switch
; 132  :   
; 133  : 
; 134  :   //if the bot already holds a weapon of this type, just add its ammo
; 135  :   Raven_Weapon* present = GetWeaponFromInventory(weapon_type);

	mov	ecx, DWORD PTR _weapon_type$[ebp]
	push	ecx
	mov	ecx, DWORD PTR _this$[ebp]
	call	?GetWeaponFromInventory@AbstWeaponSystem@@QAEPAVRaven_Weapon@@H@Z ; AbstWeaponSystem::GetWeaponFromInventory
	mov	DWORD PTR _present$[ebp], eax

; 136  : 
; 137  :   if (present)

	cmp	DWORD PTR _present$[ebp], 0
	je	SHORT $LN2@AddWeapon

; 138  :   {
; 139  :     present->IncrementRounds(w->NumRoundsRemaining());

	mov	ecx, DWORD PTR _w$[ebp]
	call	?NumRoundsRemaining@Raven_Weapon@@QBEHXZ ; Raven_Weapon::NumRoundsRemaining
	push	eax
	mov	ecx, DWORD PTR _present$[ebp]
	call	?IncrementRounds@Raven_Weapon@@QAEXH@Z	; Raven_Weapon::IncrementRounds

; 140  : 
; 141  :     delete w;

	mov	edx, DWORD PTR _w$[ebp]
	mov	DWORD PTR $T150939[ebp], edx
	mov	eax, DWORD PTR $T150939[ebp]
	mov	DWORD PTR $T150938[ebp], eax
	cmp	DWORD PTR $T150938[ebp], 0
	je	SHORT $LN16@AddWeapon
	mov	esi, esp
	push	1
	mov	ecx, DWORD PTR $T150938[ebp]
	mov	edx, DWORD PTR [ecx]
	mov	ecx, DWORD PTR $T150938[ebp]
	mov	eax, DWORD PTR [edx+4]
	call	eax
	cmp	esi, esp
	call	__RTC_CheckEsp
	mov	DWORD PTR tv153[ebp], eax
	jmp	SHORT $LN17@AddWeapon
$LN16@AddWeapon:
	mov	DWORD PTR tv153[ebp], 0
$LN17@AddWeapon:

; 142  :   }
; 143  :   
; 144  :   //if not already holding, add to inventory
; 145  :   else

	jmp	SHORT $LN8@AddWeapon
$LN2@AddWeapon:

; 146  :   {
; 147  :     m_WeaponMap[weapon_type] = w;

	mov	ecx, DWORD PTR _weapon_type$[ebp]
	mov	DWORD PTR $T150942[ebp], ecx
	lea	edx, DWORD PTR $T150942[ebp]
	push	edx
	mov	ecx, DWORD PTR _this$[ebp]
	add	ecx, 12					; 0000000cH
	call	??A?$map@HPAVRaven_Weapon@@U?$less@H@std@@V?$allocator@U?$pair@$$CBHPAVRaven_Weapon@@@std@@@3@@std@@QAEAAPAVRaven_Weapon@@ABH@Z ; std::map<int,Raven_Weapon *,std::less<int>,std::allocator<std::pair<int const ,Raven_Weapon *> > >::operator[]
	mov	ecx, DWORD PTR _w$[ebp]
	mov	DWORD PTR [eax], ecx
$LN8@AddWeapon:

; 148  :   }
; 149  : }

	mov	ecx, DWORD PTR __$EHRec$[ebp]
	mov	DWORD PTR fs:0, ecx
	pop	ecx
	pop	edi
	pop	esi
	add	esp, 80					; 00000050H
	cmp	ebp, esp
	call	__RTC_CheckEsp
	mov	esp, ebp
	pop	ebp
	ret	4
_TEXT	ENDS
text$x	SEGMENT
__unwindfunclet$?AddWeapon@AbstWeaponSystem@@UAEXI@Z$0:
	mov	eax, DWORD PTR $T150927[ebp]
	push	eax
	call	??3@YAXPAX@Z				; operator delete
	pop	ecx
	ret	0
__unwindfunclet$?AddWeapon@AbstWeaponSystem@@UAEXI@Z$1:
	mov	eax, DWORD PTR $T150931[ebp]
	push	eax
	call	??3@YAXPAX@Z				; operator delete
	pop	ecx
	ret	0
__unwindfunclet$?AddWeapon@AbstWeaponSystem@@UAEXI@Z$2:
	mov	eax, DWORD PTR $T150935[ebp]
	push	eax
	call	??3@YAXPAX@Z				; operator delete
	pop	ecx
	ret	0
__ehhandler$?AddWeapon@AbstWeaponSystem@@UAEXI@Z:
	mov	edx, DWORD PTR [esp+8]
	lea	eax, DWORD PTR [edx+12]
	mov	ecx, DWORD PTR [edx-80]
	xor	ecx, eax
	call	@__security_check_cookie@4
	mov	eax, OFFSET __ehfuncinfo$?AddWeapon@AbstWeaponSystem@@UAEXI@Z
	jmp	___CxxFrameHandler3
text$x	ENDS
?AddWeapon@AbstWeaponSystem@@UAEXI@Z ENDP		; AbstWeaponSystem::AddWeapon
; Function compile flags: /Odtp /RTCsu
; File c:\users\teaja\documents\artificial-fun\labravenprojecttest\raven\armory\raven_weapon.h
;	COMDAT ?NumRoundsRemaining@Raven_Weapon@@QBEHXZ
_TEXT	SEGMENT
_this$ = -4						; size = 4
?NumRoundsRemaining@Raven_Weapon@@QBEHXZ PROC		; Raven_Weapon::NumRoundsRemaining, COMDAT
; _this$ = ecx

; 128  :   int           NumRoundsRemaining()const{return m_iNumRoundsLeft;}

	push	ebp
	mov	ebp, esp
	push	ecx
	mov	DWORD PTR [ebp-4], -858993460		; ccccccccH
	mov	DWORD PTR _this$[ebp], ecx
	mov	eax, DWORD PTR _this$[ebp]
	mov	eax, DWORD PTR [eax+56]
	mov	esp, ebp
	pop	ebp
	ret	0
?NumRoundsRemaining@Raven_Weapon@@QBEHXZ ENDP		; Raven_Weapon::NumRoundsRemaining
_TEXT	ENDS
PUBLIC	??$Clamp@IHI@@YAXAAIABHABI@Z			; Clamp<unsigned int,int,unsigned int>
; Function compile flags: /Odtp /RTCsu
;	COMDAT ?IncrementRounds@Raven_Weapon@@QAEXH@Z
_TEXT	SEGMENT
$T150953 = -8						; size = 4
_this$ = -4						; size = 4
_num$ = 8						; size = 4
?IncrementRounds@Raven_Weapon@@QAEXH@Z PROC		; Raven_Weapon::IncrementRounds, COMDAT
; _this$ = ecx

; 166  : {

	push	ebp
	mov	ebp, esp
	sub	esp, 8
	mov	DWORD PTR [ebp-8], -858993460		; ccccccccH
	mov	DWORD PTR [ebp-4], -858993460		; ccccccccH
	mov	DWORD PTR _this$[ebp], ecx

; 167  :   m_iNumRoundsLeft+=num;

	mov	eax, DWORD PTR _this$[ebp]
	mov	ecx, DWORD PTR [eax+56]
	add	ecx, DWORD PTR _num$[ebp]
	mov	edx, DWORD PTR _this$[ebp]
	mov	DWORD PTR [edx+56], ecx

; 168  :   Clamp(m_iNumRoundsLeft, 0, m_iMaxRoundsCarried);

	mov	DWORD PTR $T150953[ebp], 0
	mov	eax, DWORD PTR _this$[ebp]
	add	eax, 60					; 0000003cH
	push	eax
	lea	ecx, DWORD PTR $T150953[ebp]
	push	ecx
	mov	edx, DWORD PTR _this$[ebp]
	add	edx, 56					; 00000038H
	push	edx
	call	??$Clamp@IHI@@YAXAAIABHABI@Z		; Clamp<unsigned int,int,unsigned int>
	add	esp, 12					; 0000000cH

; 169  : } 

	add	esp, 8
	cmp	ebp, esp
	call	__RTC_CheckEsp
	mov	esp, ebp
	pop	ebp
	ret	4
?IncrementRounds@Raven_Weapon@@QAEXH@Z ENDP		; Raven_Weapon::IncrementRounds
; Function compile flags: /Odtp /RTCsu
; File c:\users\teaja\documents\artificial-fun\labravenprojecttest\raven\abstweaponsystem.cpp
_TEXT	ENDS
_TEXT	SEGMENT
_this$ = -4						; size = 4
_weapon_type$ = 8					; size = 4
?GetWeaponFromInventory@AbstWeaponSystem@@QAEPAVRaven_Weapon@@H@Z PROC ; AbstWeaponSystem::GetWeaponFromInventory
; _this$ = ecx

; 159  : {

	push	ebp
	mov	ebp, esp
	push	ecx
	mov	DWORD PTR [ebp-4], -858993460		; ccccccccH
	mov	DWORD PTR _this$[ebp], ecx

; 160  :   return m_WeaponMap[weapon_type];

	lea	eax, DWORD PTR _weapon_type$[ebp]
	push	eax
	mov	ecx, DWORD PTR _this$[ebp]
	add	ecx, 12					; 0000000cH
	call	??A?$map@HPAVRaven_Weapon@@U?$less@H@std@@V?$allocator@U?$pair@$$CBHPAVRaven_Weapon@@@std@@@3@@std@@QAEAAPAVRaven_Weapon@@ABH@Z ; std::map<int,Raven_Weapon *,std::less<int>,std::allocator<std::pair<int const ,Raven_Weapon *> > >::operator[]
	mov	eax, DWORD PTR [eax]

; 161  : }

	add	esp, 4
	cmp	ebp, esp
	call	__RTC_CheckEsp
	mov	esp, ebp
	pop	ebp
	ret	4
?GetWeaponFromInventory@AbstWeaponSystem@@QAEPAVRaven_Weapon@@H@Z ENDP ; AbstWeaponSystem::GetWeaponFromInventory
_TEXT	ENDS
PUBLIC	?ChangeWeapon@AbstWeaponSystem@@QAEXI@Z		; AbstWeaponSystem::ChangeWeapon
; Function compile flags: /Odtp /RTCsu
_TEXT	SEGMENT
_w$ = -8						; size = 4
_this$ = -4						; size = 4
_type$ = 8						; size = 4
?ChangeWeapon@AbstWeaponSystem@@QAEXI@Z PROC		; AbstWeaponSystem::ChangeWeapon
; _this$ = ecx

; 165  : {

	push	ebp
	mov	ebp, esp
	sub	esp, 8
	mov	DWORD PTR [ebp-8], -858993460		; ccccccccH
	mov	DWORD PTR [ebp-4], -858993460		; ccccccccH
	mov	DWORD PTR _this$[ebp], ecx

; 166  :   Raven_Weapon* w = GetWeaponFromInventory(type);

	mov	eax, DWORD PTR _type$[ebp]
	push	eax
	mov	ecx, DWORD PTR _this$[ebp]
	call	?GetWeaponFromInventory@AbstWeaponSystem@@QAEPAVRaven_Weapon@@H@Z ; AbstWeaponSystem::GetWeaponFromInventory
	mov	DWORD PTR _w$[ebp], eax

; 167  : 
; 168  :   if (w) m_pCurrentWeapon = w;

	cmp	DWORD PTR _w$[ebp], 0
	je	SHORT $LN2@ChangeWeap
	mov	ecx, DWORD PTR _this$[ebp]
	mov	edx, DWORD PTR _w$[ebp]
	mov	DWORD PTR [ecx+32], edx
$LN2@ChangeWeap:

; 169  : }

	add	esp, 8
	cmp	ebp, esp
	call	__RTC_CheckEsp
	mov	esp, ebp
	pop	ebp
	ret	4
?ChangeWeapon@AbstWeaponSystem@@QAEXI@Z ENDP		; AbstWeaponSystem::ChangeWeapon
_TEXT	ENDS
PUBLIC	??H@YA?AUVector2D@@ABU0@0@Z			; operator+
PUBLIC	?Heading@MovingEntity@@QBE?AUVector2D@@XZ	; MovingEntity::Heading
PUBLIC	?AddNoiseToAim@AbstWeaponSystem@@IBEXAAUVector2D@@@Z ; AbstWeaponSystem::AddNoiseToAim
PUBLIC	?PredictFuturePositionOfTarget@AbstWeaponSystem@@IBE?AUVector2D@@XZ ; AbstWeaponSystem::PredictFuturePositionOfTarget
PUBLIC	?GetType@Raven_Weapon@@QBEIXZ			; Raven_Weapon::GetType
PUBLIC	?GetCurrentWeapon@AbstWeaponSystem@@QBEPAVRaven_Weapon@@XZ ; AbstWeaponSystem::GetCurrentWeapon
PUBLIC	?GetTargetBot@AbstRaven_Bot@@QBEQAV1@XZ		; AbstRaven_Bot::GetTargetBot
; Function compile flags: /Odtp /RTCsu
_TEXT	SEGMENT
tv206 = -116						; size = 4
tv195 = -112						; size = 4
tv176 = -108						; size = 4
tv154 = -104						; size = 4
tv78 = -100						; size = 4
tv68 = -96						; size = 4
$T150961 = -92						; size = 16
$T150960 = -76						; size = 16
$T150959 = -60						; size = 16
$T150958 = -44						; size = 16
_AimingPos$137769 = -24					; size = 16
_this$ = -4						; size = 4
?TakeAimAndShoot@AbstWeaponSystem@@UBEXXZ PROC		; AbstWeaponSystem::TakeAimAndShoot
; _this$ = ecx

; 177  : {

	push	ebp
	mov	ebp, esp
	sub	esp, 116				; 00000074H
	push	esi
	push	edi
	push	ecx
	lea	edi, DWORD PTR [ebp-116]
	mov	ecx, 29					; 0000001dH
	mov	eax, -858993460				; ccccccccH
	rep stosd
	pop	ecx
	mov	DWORD PTR _this$[ebp], ecx

; 178  :   //aim the weapon only if the current target is shootable or if it has only
; 179  :   //very recently gone out of view (this latter condition is to ensure the 
; 180  :   //weapon is aimed at the target even if it temporarily dodges behind a wall
; 181  :   //or other cover)
; 182  :   if (m_pOwner->GetTargetSys()->isTargetShootable() ||
; 183  :       (m_pOwner->GetTargetSys()->GetTimeTargetHasBeenOutOfView() < 
; 184  :        m_dAimPersistance) )

	mov	eax, DWORD PTR _this$[ebp]
	mov	ecx, DWORD PTR [eax+8]
	call	?GetTargetSys@AbstRaven_Bot@@QAEQAVAbstTargetingSystem@@XZ ; AbstRaven_Bot::GetTargetSys
	mov	DWORD PTR tv68[ebp], eax
	mov	ecx, DWORD PTR tv68[ebp]
	mov	edx, DWORD PTR [ecx]
	mov	esi, esp
	mov	ecx, DWORD PTR tv68[ebp]
	mov	eax, DWORD PTR [edx+8]
	call	eax
	cmp	esi, esp
	call	__RTC_CheckEsp
	movzx	ecx, al
	test	ecx, ecx
	jne	SHORT $LN7@TakeAimAnd
	mov	edx, DWORD PTR _this$[ebp]
	mov	ecx, DWORD PTR [edx+8]
	call	?GetTargetSys@AbstRaven_Bot@@QAEQAVAbstTargetingSystem@@XZ ; AbstRaven_Bot::GetTargetSys
	mov	DWORD PTR tv78[ebp], eax
	mov	eax, DWORD PTR tv78[ebp]
	mov	edx, DWORD PTR [eax]
	mov	esi, esp
	mov	ecx, DWORD PTR tv78[ebp]
	mov	eax, DWORD PTR [edx+20]
	call	eax
	cmp	esi, esp
	call	__RTC_CheckEsp
	mov	ecx, DWORD PTR _this$[ebp]
	fcomp	QWORD PTR [ecx+56]
	fnstsw	ax
	test	ah, 5
	jp	$LN8@TakeAimAnd
$LN7@TakeAimAnd:

; 185  :   {
; 186  :     //the position the weapon will be aimed at
; 187  :     Vector2D AimingPos = m_pOwner->GetTargetBot()->Pos();

	lea	edx, DWORD PTR _AimingPos$137769[ebp]
	push	edx
	mov	eax, DWORD PTR _this$[ebp]
	mov	ecx, DWORD PTR [eax+8]
	call	?GetTargetBot@AbstRaven_Bot@@QBEQAV1@XZ	; AbstRaven_Bot::GetTargetBot
	mov	ecx, eax
	call	?Pos@BaseGameEntity@@QBE?AUVector2D@@XZ	; BaseGameEntity::Pos

; 188  :     
; 189  :     //if the current weapon is not an instant hit type gun the target position
; 190  :     //must be adjusted to take into account the predicted movement of the 
; 191  :     //target
; 192  :     if (GetCurrentWeapon()->GetType() == type_rocket_launcher ||
; 193  :         GetCurrentWeapon()->GetType() == type_blaster)

	mov	ecx, DWORD PTR _this$[ebp]
	call	?GetCurrentWeapon@AbstWeaponSystem@@QBEPAVRaven_Weapon@@XZ ; AbstWeaponSystem::GetCurrentWeapon
	mov	ecx, eax
	call	?GetType@Raven_Weapon@@QBEIXZ		; Raven_Weapon::GetType
	cmp	eax, 7
	je	SHORT $LN5@TakeAimAnd
	mov	ecx, DWORD PTR _this$[ebp]
	call	?GetCurrentWeapon@AbstWeaponSystem@@QBEPAVRaven_Weapon@@XZ ; AbstWeaponSystem::GetCurrentWeapon
	mov	ecx, eax
	call	?GetType@Raven_Weapon@@QBEIXZ		; Raven_Weapon::GetType
	cmp	eax, 9
	jne	$LN6@TakeAimAnd
$LN5@TakeAimAnd:

; 194  :     {
; 195  :       AimingPos = PredictFuturePositionOfTarget();

	lea	ecx, DWORD PTR $T150958[ebp]
	push	ecx
	mov	ecx, DWORD PTR _this$[ebp]
	call	?PredictFuturePositionOfTarget@AbstWeaponSystem@@IBE?AUVector2D@@XZ ; AbstWeaponSystem::PredictFuturePositionOfTarget
	mov	edx, DWORD PTR [eax]
	mov	DWORD PTR _AimingPos$137769[ebp], edx
	mov	ecx, DWORD PTR [eax+4]
	mov	DWORD PTR _AimingPos$137769[ebp+4], ecx
	mov	edx, DWORD PTR [eax+8]
	mov	DWORD PTR _AimingPos$137769[ebp+8], edx
	mov	eax, DWORD PTR [eax+12]
	mov	DWORD PTR _AimingPos$137769[ebp+12], eax

; 196  : 
; 197  :       //if the weapon is aimed correctly, there is line of sight between the
; 198  :       //bot and the aiming position and it has been in view for a period longer
; 199  :       //than the bot's reaction time, shoot the weapon
; 200  :       if ( m_pOwner->RotateFacingTowardPosition(AimingPos) &&
; 201  :            (m_pOwner->GetTargetSys()->GetTimeTargetHasBeenVisible() >
; 202  :             m_dReactionTime) &&
; 203  :            m_pOwner->hasLOSto(AimingPos) )

	mov	esi, esp
	sub	esp, 16					; 00000010H
	mov	ecx, esp
	mov	edx, DWORD PTR _AimingPos$137769[ebp]
	mov	DWORD PTR [ecx], edx
	mov	eax, DWORD PTR _AimingPos$137769[ebp+4]
	mov	DWORD PTR [ecx+4], eax
	mov	edx, DWORD PTR _AimingPos$137769[ebp+8]
	mov	DWORD PTR [ecx+8], edx
	mov	eax, DWORD PTR _AimingPos$137769[ebp+12]
	mov	DWORD PTR [ecx+12], eax
	mov	ecx, DWORD PTR _this$[ebp]
	mov	edx, DWORD PTR [ecx+8]
	mov	eax, DWORD PTR _this$[ebp]
	mov	ecx, DWORD PTR [eax+8]
	mov	edx, DWORD PTR [edx]
	mov	eax, DWORD PTR [edx+28]
	call	eax
	cmp	esi, esp
	call	__RTC_CheckEsp
	movzx	ecx, al
	test	ecx, ecx
	je	$LN4@TakeAimAnd
	mov	edx, DWORD PTR _this$[ebp]
	mov	ecx, DWORD PTR [edx+8]
	call	?GetTargetSys@AbstRaven_Bot@@QAEQAVAbstTargetingSystem@@XZ ; AbstRaven_Bot::GetTargetSys
	mov	DWORD PTR tv154[ebp], eax
	mov	eax, DWORD PTR tv154[ebp]
	mov	edx, DWORD PTR [eax]
	mov	esi, esp
	mov	ecx, DWORD PTR tv154[ebp]
	mov	eax, DWORD PTR [edx+16]
	call	eax
	cmp	esi, esp
	call	__RTC_CheckEsp
	mov	ecx, DWORD PTR _this$[ebp]
	fcomp	QWORD PTR [ecx+40]
	fnstsw	ax
	test	ah, 65					; 00000041H
	jne	$LN4@TakeAimAnd
	mov	esi, esp
	sub	esp, 16					; 00000010H
	mov	edx, esp
	mov	eax, DWORD PTR _AimingPos$137769[ebp]
	mov	DWORD PTR [edx], eax
	mov	ecx, DWORD PTR _AimingPos$137769[ebp+4]
	mov	DWORD PTR [edx+4], ecx
	mov	eax, DWORD PTR _AimingPos$137769[ebp+8]
	mov	DWORD PTR [edx+8], eax
	mov	ecx, DWORD PTR _AimingPos$137769[ebp+12]
	mov	DWORD PTR [edx+12], ecx
	mov	edx, DWORD PTR _this$[ebp]
	mov	eax, DWORD PTR [edx+8]
	mov	ecx, DWORD PTR _this$[ebp]
	mov	ecx, DWORD PTR [ecx+8]
	mov	edx, DWORD PTR [eax]
	mov	eax, DWORD PTR [edx+40]
	call	eax
	cmp	esi, esp
	call	__RTC_CheckEsp
	movzx	ecx, al
	test	ecx, ecx
	je	SHORT $LN4@TakeAimAnd

; 204  :       {
; 205  :         AddNoiseToAim(AimingPos);

	lea	edx, DWORD PTR _AimingPos$137769[ebp]
	push	edx
	mov	ecx, DWORD PTR _this$[ebp]
	call	?AddNoiseToAim@AbstWeaponSystem@@IBEXAAUVector2D@@@Z ; AbstWeaponSystem::AddNoiseToAim

; 206  : 
; 207  :         GetCurrentWeapon()->ShootAt(AimingPos);

	mov	ecx, DWORD PTR _this$[ebp]
	call	?GetCurrentWeapon@AbstWeaponSystem@@QBEPAVRaven_Weapon@@XZ ; AbstWeaponSystem::GetCurrentWeapon
	mov	DWORD PTR tv176[ebp], eax
	mov	esi, esp
	sub	esp, 16					; 00000010H
	mov	eax, esp
	mov	ecx, DWORD PTR _AimingPos$137769[ebp]
	mov	DWORD PTR [eax], ecx
	mov	edx, DWORD PTR _AimingPos$137769[ebp+4]
	mov	DWORD PTR [eax+4], edx
	mov	ecx, DWORD PTR _AimingPos$137769[ebp+8]
	mov	DWORD PTR [eax+8], ecx
	mov	edx, DWORD PTR _AimingPos$137769[ebp+12]
	mov	DWORD PTR [eax+12], edx
	mov	eax, DWORD PTR tv176[ebp]
	mov	edx, DWORD PTR [eax]
	mov	ecx, DWORD PTR tv176[ebp]
	mov	eax, DWORD PTR [edx+8]
	call	eax
	cmp	esi, esp
	call	__RTC_CheckEsp
$LN4@TakeAimAnd:

; 208  :       }
; 209  :     }
; 210  : 
; 211  :     //no need to predict movement, aim directly at target
; 212  :     else

	jmp	$LN2@TakeAimAnd
$LN6@TakeAimAnd:

; 213  :     {
; 214  :       //if the weapon is aimed correctly and it has been in view for a period
; 215  :       //longer than the bot's reaction time, shoot the weapon
; 216  :       if ( m_pOwner->RotateFacingTowardPosition(AimingPos) &&
; 217  :            (m_pOwner->GetTargetSys()->GetTimeTargetHasBeenVisible() >
; 218  :             m_dReactionTime) )

	mov	esi, esp
	sub	esp, 16					; 00000010H
	mov	ecx, esp
	mov	edx, DWORD PTR _AimingPos$137769[ebp]
	mov	DWORD PTR [ecx], edx
	mov	eax, DWORD PTR _AimingPos$137769[ebp+4]
	mov	DWORD PTR [ecx+4], eax
	mov	edx, DWORD PTR _AimingPos$137769[ebp+8]
	mov	DWORD PTR [ecx+8], edx
	mov	eax, DWORD PTR _AimingPos$137769[ebp+12]
	mov	DWORD PTR [ecx+12], eax
	mov	ecx, DWORD PTR _this$[ebp]
	mov	edx, DWORD PTR [ecx+8]
	mov	eax, DWORD PTR _this$[ebp]
	mov	ecx, DWORD PTR [eax+8]
	mov	edx, DWORD PTR [edx]
	mov	eax, DWORD PTR [edx+28]
	call	eax
	cmp	esi, esp
	call	__RTC_CheckEsp
	movzx	ecx, al
	test	ecx, ecx
	je	SHORT $LN2@TakeAimAnd
	mov	edx, DWORD PTR _this$[ebp]
	mov	ecx, DWORD PTR [edx+8]
	call	?GetTargetSys@AbstRaven_Bot@@QAEQAVAbstTargetingSystem@@XZ ; AbstRaven_Bot::GetTargetSys
	mov	DWORD PTR tv195[ebp], eax
	mov	eax, DWORD PTR tv195[ebp]
	mov	edx, DWORD PTR [eax]
	mov	esi, esp
	mov	ecx, DWORD PTR tv195[ebp]
	mov	eax, DWORD PTR [edx+16]
	call	eax
	cmp	esi, esp
	call	__RTC_CheckEsp
	mov	ecx, DWORD PTR _this$[ebp]
	fcomp	QWORD PTR [ecx+40]
	fnstsw	ax
	test	ah, 65					; 00000041H
	jne	SHORT $LN2@TakeAimAnd

; 219  :       {
; 220  :         AddNoiseToAim(AimingPos);

	lea	edx, DWORD PTR _AimingPos$137769[ebp]
	push	edx
	mov	ecx, DWORD PTR _this$[ebp]
	call	?AddNoiseToAim@AbstWeaponSystem@@IBEXAAUVector2D@@@Z ; AbstWeaponSystem::AddNoiseToAim

; 221  :         
; 222  :         GetCurrentWeapon()->ShootAt(AimingPos);

	mov	ecx, DWORD PTR _this$[ebp]
	call	?GetCurrentWeapon@AbstWeaponSystem@@QBEPAVRaven_Weapon@@XZ ; AbstWeaponSystem::GetCurrentWeapon
	mov	DWORD PTR tv206[ebp], eax
	mov	esi, esp
	sub	esp, 16					; 00000010H
	mov	eax, esp
	mov	ecx, DWORD PTR _AimingPos$137769[ebp]
	mov	DWORD PTR [eax], ecx
	mov	edx, DWORD PTR _AimingPos$137769[ebp+4]
	mov	DWORD PTR [eax+4], edx
	mov	ecx, DWORD PTR _AimingPos$137769[ebp+8]
	mov	DWORD PTR [eax+8], ecx
	mov	edx, DWORD PTR _AimingPos$137769[ebp+12]
	mov	DWORD PTR [eax+12], edx
	mov	eax, DWORD PTR tv206[ebp]
	mov	edx, DWORD PTR [eax]
	mov	ecx, DWORD PTR tv206[ebp]
	mov	eax, DWORD PTR [edx+8]
	call	eax
	cmp	esi, esp
	call	__RTC_CheckEsp
$LN2@TakeAimAnd:

; 223  :       }
; 224  :     }
; 225  : 
; 226  :   }
; 227  :   
; 228  :   //no target to shoot at so rotate facing to be parallel with the bot's
; 229  :   //heading direction
; 230  :   else

	jmp	SHORT $LN1@TakeAimAnd
$LN8@TakeAimAnd:

; 231  :   {
; 232  :     m_pOwner->RotateFacingTowardPosition(m_pOwner->Pos()+ m_pOwner->Heading());

	lea	ecx, DWORD PTR $T150959[ebp]
	push	ecx
	mov	edx, DWORD PTR _this$[ebp]
	mov	ecx, DWORD PTR [edx+8]
	call	?Heading@MovingEntity@@QBE?AUVector2D@@XZ ; MovingEntity::Heading
	push	eax
	lea	eax, DWORD PTR $T150960[ebp]
	push	eax
	mov	ecx, DWORD PTR _this$[ebp]
	mov	ecx, DWORD PTR [ecx+8]
	call	?Pos@BaseGameEntity@@QBE?AUVector2D@@XZ	; BaseGameEntity::Pos
	push	eax
	lea	edx, DWORD PTR $T150961[ebp]
	push	edx
	call	??H@YA?AUVector2D@@ABU0@0@Z		; operator+
	add	esp, 12					; 0000000cH
	mov	esi, esp
	sub	esp, 16					; 00000010H
	mov	ecx, esp
	mov	edx, DWORD PTR [eax]
	mov	DWORD PTR [ecx], edx
	mov	edx, DWORD PTR [eax+4]
	mov	DWORD PTR [ecx+4], edx
	mov	edx, DWORD PTR [eax+8]
	mov	DWORD PTR [ecx+8], edx
	mov	eax, DWORD PTR [eax+12]
	mov	DWORD PTR [ecx+12], eax
	mov	ecx, DWORD PTR _this$[ebp]
	mov	edx, DWORD PTR [ecx+8]
	mov	eax, DWORD PTR _this$[ebp]
	mov	ecx, DWORD PTR [eax+8]
	mov	edx, DWORD PTR [edx]
	mov	eax, DWORD PTR [edx+28]
	call	eax
	cmp	esi, esp
	call	__RTC_CheckEsp
$LN1@TakeAimAnd:

; 233  :   }
; 234  : }

	push	edx
	mov	ecx, ebp
	push	eax
	lea	edx, DWORD PTR $LN13@TakeAimAnd
	call	@_RTC_CheckStackVars@8
	pop	eax
	pop	edx
	pop	edi
	pop	esi
	add	esp, 116				; 00000074H
	cmp	ebp, esp
	call	__RTC_CheckEsp
	mov	esp, ebp
	pop	ebp
	ret	0
	npad	3
$LN13@TakeAimAnd:
	DD	1
	DD	$LN12@TakeAimAnd
$LN12@TakeAimAnd:
	DD	-24					; ffffffe8H
	DD	16					; 00000010H
	DD	$LN11@TakeAimAnd
$LN11@TakeAimAnd:
	DB	65					; 00000041H
	DB	105					; 00000069H
	DB	109					; 0000006dH
	DB	105					; 00000069H
	DB	110					; 0000006eH
	DB	103					; 00000067H
	DB	80					; 00000050H
	DB	111					; 0000006fH
	DB	115					; 00000073H
	DB	0
?TakeAimAndShoot@AbstWeaponSystem@@UBEXXZ ENDP		; AbstWeaponSystem::TakeAimAndShoot
; Function compile flags: /Odtp /RTCsu
; File c:\users\teaja\documents\artificial-fun\labravenprojecttest\common\2d\vector2d.h
_TEXT	ENDS
;	COMDAT ??H@YA?AUVector2D@@ABU0@0@Z
_TEXT	SEGMENT
_result$ = -20						; size = 16
___$ReturnUdt$ = 8					; size = 4
_lhs$ = 12						; size = 4
_rhs$ = 16						; size = 4
??H@YA?AUVector2D@@ABU0@0@Z PROC			; operator+, COMDAT

; 359  : {

	push	ebp
	mov	ebp, esp
	sub	esp, 24					; 00000018H
	mov	eax, -858993460				; ccccccccH
	mov	DWORD PTR [ebp-24], eax
	mov	DWORD PTR [ebp-20], eax
	mov	DWORD PTR [ebp-16], eax
	mov	DWORD PTR [ebp-12], eax
	mov	DWORD PTR [ebp-8], eax
	mov	DWORD PTR [ebp-4], eax

; 360  :   Vector2D result(lhs);

	mov	eax, DWORD PTR _lhs$[ebp]
	fld	QWORD PTR [eax]
	fstp	QWORD PTR _result$[ebp]
	fld	QWORD PTR [eax+8]
	fstp	QWORD PTR _result$[ebp+8]

; 361  :   result.x += rhs.x;

	mov	ecx, DWORD PTR _rhs$[ebp]
	fld	QWORD PTR _result$[ebp]
	fadd	QWORD PTR [ecx]
	fstp	QWORD PTR _result$[ebp]

; 362  :   result.y += rhs.y;

	mov	edx, DWORD PTR _rhs$[ebp]
	fld	QWORD PTR _result$[ebp+8]
	fadd	QWORD PTR [edx+8]
	fstp	QWORD PTR _result$[ebp+8]

; 363  :   
; 364  :   return result;

	mov	eax, DWORD PTR ___$ReturnUdt$[ebp]
	fld	QWORD PTR _result$[ebp]
	fstp	QWORD PTR [eax]
	fld	QWORD PTR _result$[ebp+8]
	fstp	QWORD PTR [eax+8]
	mov	eax, DWORD PTR ___$ReturnUdt$[ebp]

; 365  : }

	push	edx
	mov	ecx, ebp
	push	eax
	lea	edx, DWORD PTR $LN5@operator@2
	call	@_RTC_CheckStackVars@8
	pop	eax
	pop	edx
	mov	esp, ebp
	pop	ebp
	ret	0
$LN5@operator@2:
	DD	1
	DD	$LN4@operator@2
$LN4@operator@2:
	DD	-20					; ffffffecH
	DD	16					; 00000010H
	DD	$LN3@operator@2
$LN3@operator@2:
	DB	114					; 00000072H
	DB	101					; 00000065H
	DB	115					; 00000073H
	DB	117					; 00000075H
	DB	108					; 0000006cH
	DB	116					; 00000074H
	DB	0
??H@YA?AUVector2D@@ABU0@0@Z ENDP			; operator+
; Function compile flags: /Odtp /RTCsu
; File c:\users\teaja\documents\artificial-fun\labravenprojecttest\raven\abstweaponsystem.h
_TEXT	ENDS
;	COMDAT ?GetCurrentWeapon@AbstWeaponSystem@@QBEPAVRaven_Weapon@@XZ
_TEXT	SEGMENT
_this$ = -4						; size = 4
?GetCurrentWeapon@AbstWeaponSystem@@QBEPAVRaven_Weapon@@XZ PROC ; AbstWeaponSystem::GetCurrentWeapon, COMDAT
; _this$ = ecx

; 96   :   Raven_Weapon* GetCurrentWeapon()const{return m_pCurrentWeapon;} 

	push	ebp
	mov	ebp, esp
	push	ecx
	mov	DWORD PTR [ebp-4], -858993460		; ccccccccH
	mov	DWORD PTR _this$[ebp], ecx
	mov	eax, DWORD PTR _this$[ebp]
	mov	eax, DWORD PTR [eax+32]
	mov	esp, ebp
	pop	ebp
	ret	0
?GetCurrentWeapon@AbstWeaponSystem@@QBEPAVRaven_Weapon@@XZ ENDP ; AbstWeaponSystem::GetCurrentWeapon
; Function compile flags: /Odtp /RTCsu
; File c:\users\teaja\documents\artificial-fun\labravenprojecttest\common\game\movingentity.h
_TEXT	ENDS
;	COMDAT ?Heading@MovingEntity@@QBE?AUVector2D@@XZ
_TEXT	SEGMENT
_this$ = -4						; size = 4
___$ReturnUdt$ = 8					; size = 4
?Heading@MovingEntity@@QBE?AUVector2D@@XZ PROC		; MovingEntity::Heading, COMDAT
; _this$ = ecx

; 92   :   Vector2D  Heading()const{return m_vHeading;}

	push	ebp
	mov	ebp, esp
	push	ecx
	mov	DWORD PTR [ebp-4], -858993460		; ccccccccH
	mov	DWORD PTR _this$[ebp], ecx
	mov	eax, DWORD PTR _this$[ebp]
	add	eax, 80					; 00000050H
	mov	ecx, DWORD PTR ___$ReturnUdt$[ebp]
	mov	edx, DWORD PTR [eax]
	mov	DWORD PTR [ecx], edx
	mov	edx, DWORD PTR [eax+4]
	mov	DWORD PTR [ecx+4], edx
	mov	edx, DWORD PTR [eax+8]
	mov	DWORD PTR [ecx+8], edx
	mov	eax, DWORD PTR [eax+12]
	mov	DWORD PTR [ecx+12], eax
	mov	eax, DWORD PTR ___$ReturnUdt$[ebp]
	mov	esp, ebp
	pop	ebp
	ret	4
?Heading@MovingEntity@@QBE?AUVector2D@@XZ ENDP		; MovingEntity::Heading
; Function compile flags: /Odtp /RTCsu
; File c:\users\teaja\documents\artificial-fun\labravenprojecttest\raven\abstraven_bot.h
_TEXT	ENDS
;	COMDAT ?GetTargetBot@AbstRaven_Bot@@QBEQAV1@XZ
_TEXT	SEGMENT
_this$ = -4						; size = 4
?GetTargetBot@AbstRaven_Bot@@QBEQAV1@XZ PROC		; AbstRaven_Bot::GetTargetBot, COMDAT
; _this$ = ecx

; 223  :   AbstRaven_Bot* const                   GetTargetBot()const{return m_pTargSys->GetTarget();}

	push	ebp
	mov	ebp, esp
	push	ecx
	mov	DWORD PTR [ebp-4], -858993460		; ccccccccH
	mov	DWORD PTR _this$[ebp], ecx
	mov	eax, DWORD PTR _this$[ebp]
	mov	ecx, DWORD PTR [eax+176]
	call	?GetTarget@AbstTargetingSystem@@QBEPAVAbstRaven_Bot@@XZ ; AbstTargetingSystem::GetTarget
	add	esp, 4
	cmp	ebp, esp
	call	__RTC_CheckEsp
	mov	esp, ebp
	pop	ebp
	ret	0
?GetTargetBot@AbstRaven_Bot@@QBEQAV1@XZ ENDP		; AbstRaven_Bot::GetTargetBot
; Function compile flags: /Odtp /RTCsu
; File c:\users\teaja\documents\artificial-fun\labravenprojecttest\raven\armory\raven_weapon.h
_TEXT	ENDS
;	COMDAT ?GetType@Raven_Weapon@@QBEIXZ
_TEXT	SEGMENT
_this$ = -4						; size = 4
?GetType@Raven_Weapon@@QBEIXZ PROC			; Raven_Weapon::GetType, COMDAT
; _this$ = ecx

; 131  :   unsigned int  GetType()const{return m_iType;}

	push	ebp
	mov	ebp, esp
	push	ecx
	mov	DWORD PTR [ebp-4], -858993460		; ccccccccH
	mov	DWORD PTR _this$[ebp], ecx
	mov	eax, DWORD PTR _this$[ebp]
	mov	eax, DWORD PTR [eax+12]
	mov	esp, ebp
	pop	ebp
	ret	0
?GetType@Raven_Weapon@@QBEIXZ ENDP			; Raven_Weapon::GetType
_TEXT	ENDS
PUBLIC	?Vec2DRotateAroundOrigin@@YAXAAUVector2D@@N@Z	; Vec2DRotateAroundOrigin
PUBLIC	?RandInRange@@YANNN@Z				; RandInRange
PUBLIC	??G@YA?AUVector2D@@ABU0@0@Z			; operator-
; Function compile flags: /Odtp /RTCsu
; File c:\users\teaja\documents\artificial-fun\labravenprojecttest\raven\abstweaponsystem.cpp
_TEXT	SEGMENT
$T150981 = -76						; size = 16
$T150980 = -60						; size = 16
$T150979 = -44						; size = 16
_toPos$ = -24						; size = 16
_this$ = -4						; size = 4
_AimingPos$ = 8						; size = 4
?AddNoiseToAim@AbstWeaponSystem@@IBEXAAUVector2D@@@Z PROC ; AbstWeaponSystem::AddNoiseToAim
; _this$ = ecx

; 242  : {

	push	ebp
	mov	ebp, esp
	sub	esp, 76					; 0000004cH
	push	edi
	push	ecx
	lea	edi, DWORD PTR [ebp-76]
	mov	ecx, 19					; 00000013H
	mov	eax, -858993460				; ccccccccH
	rep stosd
	pop	ecx
	mov	DWORD PTR _this$[ebp], ecx

; 243  :   Vector2D toPos = AimingPos - m_pOwner->Pos();

	lea	eax, DWORD PTR $T150979[ebp]
	push	eax
	mov	ecx, DWORD PTR _this$[ebp]
	mov	ecx, DWORD PTR [ecx+8]
	call	?Pos@BaseGameEntity@@QBE?AUVector2D@@XZ	; BaseGameEntity::Pos
	push	eax
	mov	edx, DWORD PTR _AimingPos$[ebp]
	push	edx
	lea	eax, DWORD PTR _toPos$[ebp]
	push	eax
	call	??G@YA?AUVector2D@@ABU0@0@Z		; operator-
	add	esp, 12					; 0000000cH

; 244  : 
; 245  :   Vec2DRotateAroundOrigin(toPos, RandInRange(-m_dAimAccuracy, m_dAimAccuracy));

	mov	ecx, DWORD PTR _this$[ebp]
	sub	esp, 8
	fld	QWORD PTR [ecx+48]
	fstp	QWORD PTR [esp]
	mov	edx, DWORD PTR _this$[ebp]
	fld	QWORD PTR [edx+48]
	fchs
	sub	esp, 8
	fstp	QWORD PTR [esp]
	call	?RandInRange@@YANNN@Z			; RandInRange
	add	esp, 8
	fstp	QWORD PTR [esp]
	lea	eax, DWORD PTR _toPos$[ebp]
	push	eax
	call	?Vec2DRotateAroundOrigin@@YAXAAUVector2D@@N@Z ; Vec2DRotateAroundOrigin
	add	esp, 12					; 0000000cH

; 246  : 
; 247  :   AimingPos = toPos + m_pOwner->Pos();

	lea	ecx, DWORD PTR $T150980[ebp]
	push	ecx
	mov	edx, DWORD PTR _this$[ebp]
	mov	ecx, DWORD PTR [edx+8]
	call	?Pos@BaseGameEntity@@QBE?AUVector2D@@XZ	; BaseGameEntity::Pos
	push	eax
	lea	eax, DWORD PTR _toPos$[ebp]
	push	eax
	lea	ecx, DWORD PTR $T150981[ebp]
	push	ecx
	call	??H@YA?AUVector2D@@ABU0@0@Z		; operator+
	add	esp, 12					; 0000000cH
	mov	edx, DWORD PTR _AimingPos$[ebp]
	mov	ecx, DWORD PTR [eax]
	mov	DWORD PTR [edx], ecx
	mov	ecx, DWORD PTR [eax+4]
	mov	DWORD PTR [edx+4], ecx
	mov	ecx, DWORD PTR [eax+8]
	mov	DWORD PTR [edx+8], ecx
	mov	eax, DWORD PTR [eax+12]
	mov	DWORD PTR [edx+12], eax

; 248  : }

	push	edx
	mov	ecx, ebp
	push	eax
	lea	edx, DWORD PTR $LN5@AddNoiseTo
	call	@_RTC_CheckStackVars@8
	pop	eax
	pop	edx
	pop	edi
	add	esp, 76					; 0000004cH
	cmp	ebp, esp
	call	__RTC_CheckEsp
	mov	esp, ebp
	pop	ebp
	ret	4
	npad	1
$LN5@AddNoiseTo:
	DD	1
	DD	$LN4@AddNoiseTo
$LN4@AddNoiseTo:
	DD	-24					; ffffffe8H
	DD	16					; 00000010H
	DD	$LN3@AddNoiseTo
$LN3@AddNoiseTo:
	DB	116					; 00000074H
	DB	111					; 0000006fH
	DB	80					; 00000050H
	DB	111					; 0000006fH
	DB	115					; 00000073H
	DB	0
?AddNoiseToAim@AbstWeaponSystem@@IBEXAAUVector2D@@@Z ENDP ; AbstWeaponSystem::AddNoiseToAim
_TEXT	ENDS
PUBLIC	?RandFloat@@YANXZ				; RandFloat
; Function compile flags: /Odtp /RTCsu
; File c:\users\teaja\documents\artificial-fun\labravenprojecttest\common\misc\utils.h
;	COMDAT ?RandInRange@@YANNN@Z
_TEXT	SEGMENT
_x$ = 8							; size = 8
_y$ = 16						; size = 8
?RandInRange@@YANNN@Z PROC				; RandInRange, COMDAT

; 90   : {

	push	ebp
	mov	ebp, esp

; 91   :   return x + RandFloat()*(y-x);

	call	?RandFloat@@YANXZ			; RandFloat
	fld	QWORD PTR _y$[ebp]
	fsub	QWORD PTR _x$[ebp]
	fmulp	ST(1), ST(0)
	fadd	QWORD PTR _x$[ebp]

; 92   : }

	cmp	ebp, esp
	call	__RTC_CheckEsp
	pop	ebp
	ret	0
?RandInRange@@YANNN@Z ENDP				; RandInRange
_TEXT	ENDS
PUBLIC	__real@40e0000000000000
EXTRN	_rand:PROC
;	COMDAT __real@40e0000000000000
CONST	SEGMENT
__real@40e0000000000000 DQ 040e0000000000000r	; 32768
; Function compile flags: /Odtp /RTCsu
CONST	ENDS
;	COMDAT ?RandFloat@@YANXZ
_TEXT	SEGMENT
tv69 = -4						; size = 4
?RandFloat@@YANXZ PROC					; RandFloat, COMDAT

; 87   : inline double RandFloat()      {return ((rand())/(RAND_MAX+1.0));}

	push	ebp
	mov	ebp, esp
	push	ecx
	mov	DWORD PTR [ebp-4], -858993460		; ccccccccH
	call	_rand
	mov	DWORD PTR tv69[ebp], eax
	fild	DWORD PTR tv69[ebp]
	fdiv	QWORD PTR __real@40e0000000000000
	add	esp, 4
	cmp	ebp, esp
	call	__RTC_CheckEsp
	mov	esp, ebp
	pop	ebp
	ret	0
?RandFloat@@YANXZ ENDP					; RandFloat
; Function compile flags: /Odtp /RTCsu
; File c:\users\teaja\documents\artificial-fun\labravenprojecttest\common\2d\vector2d.h
_TEXT	ENDS
;	COMDAT ??G@YA?AUVector2D@@ABU0@0@Z
_TEXT	SEGMENT
_result$ = -20						; size = 16
___$ReturnUdt$ = 8					; size = 4
_lhs$ = 12						; size = 4
_rhs$ = 16						; size = 4
??G@YA?AUVector2D@@ABU0@0@Z PROC			; operator-, COMDAT

; 349  : {

	push	ebp
	mov	ebp, esp
	sub	esp, 24					; 00000018H
	mov	eax, -858993460				; ccccccccH
	mov	DWORD PTR [ebp-24], eax
	mov	DWORD PTR [ebp-20], eax
	mov	DWORD PTR [ebp-16], eax
	mov	DWORD PTR [ebp-12], eax
	mov	DWORD PTR [ebp-8], eax
	mov	DWORD PTR [ebp-4], eax

; 350  :   Vector2D result(lhs);

	mov	eax, DWORD PTR _lhs$[ebp]
	fld	QWORD PTR [eax]
	fstp	QWORD PTR _result$[ebp]
	fld	QWORD PTR [eax+8]
	fstp	QWORD PTR _result$[ebp+8]

; 351  :   result.x -= rhs.x;

	mov	ecx, DWORD PTR _rhs$[ebp]
	fld	QWORD PTR _result$[ebp]
	fsub	QWORD PTR [ecx]
	fstp	QWORD PTR _result$[ebp]

; 352  :   result.y -= rhs.y;

	mov	edx, DWORD PTR _rhs$[ebp]
	fld	QWORD PTR _result$[ebp+8]
	fsub	QWORD PTR [edx+8]
	fstp	QWORD PTR _result$[ebp+8]

; 353  :   
; 354  :   return result;

	mov	eax, DWORD PTR ___$ReturnUdt$[ebp]
	fld	QWORD PTR _result$[ebp]
	fstp	QWORD PTR [eax]
	fld	QWORD PTR _result$[ebp+8]
	fstp	QWORD PTR [eax+8]
	mov	eax, DWORD PTR ___$ReturnUdt$[ebp]

; 355  : }

	push	edx
	mov	ecx, ebp
	push	eax
	lea	edx, DWORD PTR $LN5@operator@3
	call	@_RTC_CheckStackVars@8
	pop	eax
	pop	edx
	mov	esp, ebp
	pop	ebp
	ret	0
$LN5@operator@3:
	DD	1
	DD	$LN4@operator@3
$LN4@operator@3:
	DD	-20					; ffffffecH
	DD	16					; 00000010H
	DD	$LN3@operator@3
$LN3@operator@3:
	DB	114					; 00000072H
	DB	101					; 00000065H
	DB	115					; 00000073H
	DB	117					; 00000075H
	DB	108					; 0000006cH
	DB	116					; 00000074H
	DB	0
??G@YA?AUVector2D@@ABU0@0@Z ENDP			; operator-
_TEXT	ENDS
PUBLIC	?TransformVector2Ds@C2DMatrix@@QAEXAAUVector2D@@@Z ; C2DMatrix::TransformVector2Ds
PUBLIC	?Rotate@C2DMatrix@@QAEXN@Z			; C2DMatrix::Rotate
PUBLIC	??0C2DMatrix@@QAE@XZ				; C2DMatrix::C2DMatrix
; Function compile flags: /Odtp /RTCsu
; File c:\users\teaja\documents\artificial-fun\labravenprojecttest\common\2d\transformations.h
;	COMDAT ?Vec2DRotateAroundOrigin@@YAXAAUVector2D@@N@Z
_TEXT	SEGMENT
_mat$ = -76						; size = 72
_v$ = 8							; size = 4
_ang$ = 12						; size = 8
?Vec2DRotateAroundOrigin@@YAXAAUVector2D@@N@Z PROC	; Vec2DRotateAroundOrigin, COMDAT

; 196  : {

	push	ebp
	mov	ebp, esp
	sub	esp, 80					; 00000050H
	push	edi
	lea	edi, DWORD PTR [ebp-80]
	mov	ecx, 20					; 00000014H
	mov	eax, -858993460				; ccccccccH
	rep stosd

; 197  :   //create a transformation matrix
; 198  :   C2DMatrix mat;

	lea	ecx, DWORD PTR _mat$[ebp]
	call	??0C2DMatrix@@QAE@XZ			; C2DMatrix::C2DMatrix

; 199  : 
; 200  :   //rotate
; 201  :   mat.Rotate(ang);

	sub	esp, 8
	fld	QWORD PTR _ang$[ebp]
	fstp	QWORD PTR [esp]
	lea	ecx, DWORD PTR _mat$[ebp]
	call	?Rotate@C2DMatrix@@QAEXN@Z		; C2DMatrix::Rotate

; 202  : 	
; 203  :   //now transform the object's vertices
; 204  :   mat.TransformVector2Ds(v);

	mov	eax, DWORD PTR _v$[ebp]
	push	eax
	lea	ecx, DWORD PTR _mat$[ebp]
	call	?TransformVector2Ds@C2DMatrix@@QAEXAAUVector2D@@@Z ; C2DMatrix::TransformVector2Ds

; 205  : }

	push	edx
	mov	ecx, ebp
	push	eax
	lea	edx, DWORD PTR $LN5@Vec2DRotat
	call	@_RTC_CheckStackVars@8
	pop	eax
	pop	edx
	pop	edi
	add	esp, 80					; 00000050H
	cmp	ebp, esp
	call	__RTC_CheckEsp
	mov	esp, ebp
	pop	ebp
	ret	0
	npad	1
$LN5@Vec2DRotat:
	DD	1
	DD	$LN4@Vec2DRotat
$LN4@Vec2DRotat:
	DD	-76					; ffffffb4H
	DD	72					; 00000048H
	DD	$LN3@Vec2DRotat
$LN3@Vec2DRotat:
	DB	109					; 0000006dH
	DB	97					; 00000061H
	DB	116					; 00000074H
	DB	0
?Vec2DRotateAroundOrigin@@YAXAAUVector2D@@N@Z ENDP	; Vec2DRotateAroundOrigin
_TEXT	ENDS
PUBLIC	?Identity@C2DMatrix@@QAEXXZ			; C2DMatrix::Identity
PUBLIC	??0Matrix@C2DMatrix@@QAE@XZ			; C2DMatrix::Matrix::Matrix
; Function compile flags: /Odtp /RTCsu
; File c:\users\teaja\documents\artificial-fun\labravenprojecttest\common\2d\c2dmatrix.h
;	COMDAT ??0C2DMatrix@@QAE@XZ
_TEXT	SEGMENT
_this$ = -4						; size = 4
??0C2DMatrix@@QAE@XZ PROC				; C2DMatrix::C2DMatrix, COMDAT
; _this$ = ecx

; 49   :   C2DMatrix()

	push	ebp
	mov	ebp, esp
	push	ecx
	mov	DWORD PTR [ebp-4], -858993460		; ccccccccH
	mov	DWORD PTR _this$[ebp], ecx
	mov	ecx, DWORD PTR _this$[ebp]
	call	??0Matrix@C2DMatrix@@QAE@XZ		; C2DMatrix::Matrix::Matrix

; 50   :   {
; 51   :     //initialize the matrix to an identity matrix
; 52   :     Identity();

	mov	ecx, DWORD PTR _this$[ebp]
	call	?Identity@C2DMatrix@@QAEXXZ		; C2DMatrix::Identity

; 53   :   }

	mov	eax, DWORD PTR _this$[ebp]
	add	esp, 4
	cmp	ebp, esp
	call	__RTC_CheckEsp
	mov	esp, ebp
	pop	ebp
	ret	0
??0C2DMatrix@@QAE@XZ ENDP				; C2DMatrix::C2DMatrix
_TEXT	ENDS
PUBLIC	__real@0000000000000000
;	COMDAT __real@0000000000000000
CONST	SEGMENT
__real@0000000000000000 DQ 00000000000000000r	; 0
; Function compile flags: /Odtp /RTCsu
CONST	ENDS
;	COMDAT ??0Matrix@C2DMatrix@@QAE@XZ
_TEXT	SEGMENT
_this$ = -4						; size = 4
??0Matrix@C2DMatrix@@QAE@XZ PROC			; C2DMatrix::Matrix::Matrix, COMDAT
; _this$ = ecx

; 32   :     Matrix()

	push	ebp
	mov	ebp, esp
	push	ecx
	mov	DWORD PTR [ebp-4], -858993460		; ccccccccH
	mov	DWORD PTR _this$[ebp], ecx

; 33   :     {
; 34   :       _11=0.0; _12=0.0; _13=0.0;

	mov	eax, DWORD PTR _this$[ebp]
	fldz
	fstp	QWORD PTR [eax]
	mov	ecx, DWORD PTR _this$[ebp]
	fldz
	fstp	QWORD PTR [ecx+8]
	mov	edx, DWORD PTR _this$[ebp]
	fldz
	fstp	QWORD PTR [edx+16]

; 35   :       _21=0.0; _22=0.0; _23=0.0;

	mov	eax, DWORD PTR _this$[ebp]
	fldz
	fstp	QWORD PTR [eax+24]
	mov	ecx, DWORD PTR _this$[ebp]
	fldz
	fstp	QWORD PTR [ecx+32]
	mov	edx, DWORD PTR _this$[ebp]
	fldz
	fstp	QWORD PTR [edx+40]

; 36   :       _31=0.0; _32=0.0; _33=0.0;

	mov	eax, DWORD PTR _this$[ebp]
	fldz
	fstp	QWORD PTR [eax+48]
	mov	ecx, DWORD PTR _this$[ebp]
	fldz
	fstp	QWORD PTR [ecx+56]
	mov	edx, DWORD PTR _this$[ebp]
	fldz
	fstp	QWORD PTR [edx+64]

; 37   :     }

	mov	eax, DWORD PTR _this$[ebp]
	mov	esp, ebp
	pop	ebp
	ret	0
??0Matrix@C2DMatrix@@QAE@XZ ENDP			; C2DMatrix::Matrix::Matrix
; Function compile flags: /Odtp /RTCsu
_TEXT	ENDS
;	COMDAT ?TransformVector2Ds@C2DMatrix@@QAEXAAUVector2D@@@Z
_TEXT	SEGMENT
_tempY$ = -20						; size = 8
_tempX$ = -12						; size = 8
_this$ = -4						; size = 4
_vPoint$ = 8						; size = 4
?TransformVector2Ds@C2DMatrix@@QAEXAAUVector2D@@@Z PROC	; C2DMatrix::TransformVector2Ds, COMDAT
; _this$ = ecx

; 134  : {

	push	ebp
	mov	ebp, esp
	sub	esp, 20					; 00000014H
	mov	eax, -858993460				; ccccccccH
	mov	DWORD PTR [ebp-20], eax
	mov	DWORD PTR [ebp-16], eax
	mov	DWORD PTR [ebp-12], eax
	mov	DWORD PTR [ebp-8], eax
	mov	DWORD PTR [ebp-4], eax
	mov	DWORD PTR _this$[ebp], ecx

; 135  : 
; 136  :   double tempX =(m_Matrix._11*vPoint.x) + (m_Matrix._21*vPoint.y) + (m_Matrix._31);

	mov	eax, DWORD PTR _this$[ebp]
	mov	ecx, DWORD PTR _vPoint$[ebp]
	fld	QWORD PTR [eax]
	fmul	QWORD PTR [ecx]
	mov	edx, DWORD PTR _this$[ebp]
	mov	eax, DWORD PTR _vPoint$[ebp]
	fld	QWORD PTR [edx+24]
	fmul	QWORD PTR [eax+8]
	faddp	ST(1), ST(0)
	mov	ecx, DWORD PTR _this$[ebp]
	fadd	QWORD PTR [ecx+48]
	fstp	QWORD PTR _tempX$[ebp]

; 137  : 
; 138  :   double tempY = (m_Matrix._12*vPoint.x) + (m_Matrix._22*vPoint.y) + (m_Matrix._32);

	mov	edx, DWORD PTR _this$[ebp]
	mov	eax, DWORD PTR _vPoint$[ebp]
	fld	QWORD PTR [edx+8]
	fmul	QWORD PTR [eax]
	mov	ecx, DWORD PTR _this$[ebp]
	mov	edx, DWORD PTR _vPoint$[ebp]
	fld	QWORD PTR [ecx+32]
	fmul	QWORD PTR [edx+8]
	faddp	ST(1), ST(0)
	mov	eax, DWORD PTR _this$[ebp]
	fadd	QWORD PTR [eax+56]
	fstp	QWORD PTR _tempY$[ebp]

; 139  :   
; 140  :   vPoint.x = tempX;

	mov	ecx, DWORD PTR _vPoint$[ebp]
	fld	QWORD PTR _tempX$[ebp]
	fstp	QWORD PTR [ecx]

; 141  : 
; 142  :   vPoint.y = tempY;

	mov	edx, DWORD PTR _vPoint$[ebp]
	fld	QWORD PTR _tempY$[ebp]
	fstp	QWORD PTR [edx+8]

; 143  : }

	mov	esp, ebp
	pop	ebp
	ret	4
?TransformVector2Ds@C2DMatrix@@QAEXAAUVector2D@@@Z ENDP	; C2DMatrix::TransformVector2Ds
_TEXT	ENDS
PUBLIC	__real@3ff0000000000000
;	COMDAT __real@3ff0000000000000
CONST	SEGMENT
__real@3ff0000000000000 DQ 03ff0000000000000r	; 1
; Function compile flags: /Odtp /RTCsu
CONST	ENDS
;	COMDAT ?Identity@C2DMatrix@@QAEXXZ
_TEXT	SEGMENT
_this$ = -4						; size = 4
?Identity@C2DMatrix@@QAEXXZ PROC			; C2DMatrix::Identity, COMDAT
; _this$ = ecx

; 149  : {

	push	ebp
	mov	ebp, esp
	push	ecx
	mov	DWORD PTR [ebp-4], -858993460		; ccccccccH
	mov	DWORD PTR _this$[ebp], ecx

; 150  :   m_Matrix._11 = 1; m_Matrix._12 = 0; m_Matrix._13 = 0;

	mov	eax, DWORD PTR _this$[ebp]
	fld1
	fstp	QWORD PTR [eax]
	mov	ecx, DWORD PTR _this$[ebp]
	fldz
	fstp	QWORD PTR [ecx+8]
	mov	edx, DWORD PTR _this$[ebp]
	fldz
	fstp	QWORD PTR [edx+16]

; 151  : 
; 152  :   m_Matrix._21 = 0; m_Matrix._22 = 1; m_Matrix._23 = 0;

	mov	eax, DWORD PTR _this$[ebp]
	fldz
	fstp	QWORD PTR [eax+24]
	mov	ecx, DWORD PTR _this$[ebp]
	fld1
	fstp	QWORD PTR [ecx+32]
	mov	edx, DWORD PTR _this$[ebp]
	fldz
	fstp	QWORD PTR [edx+40]

; 153  : 
; 154  :   m_Matrix._31 = 0; m_Matrix._32 = 0; m_Matrix._33 = 1;

	mov	eax, DWORD PTR _this$[ebp]
	fldz
	fstp	QWORD PTR [eax+48]
	mov	ecx, DWORD PTR _this$[ebp]
	fldz
	fstp	QWORD PTR [ecx+56]
	mov	edx, DWORD PTR _this$[ebp]
	fld1
	fstp	QWORD PTR [edx+64]

; 155  : 
; 156  :   }

	mov	esp, ebp
	pop	ebp
	ret	0
?Identity@C2DMatrix@@QAEXXZ ENDP			; C2DMatrix::Identity
_TEXT	ENDS
PUBLIC	?MatrixMultiply@C2DMatrix@@AAEXAAUMatrix@1@@Z	; C2DMatrix::MatrixMultiply
EXTRN	_cos:PROC
EXTRN	_sin:PROC
; Function compile flags: /Odtp /RTCsu
;	COMDAT ?Rotate@C2DMatrix@@QAEXN@Z
_TEXT	SEGMENT
_Cos$ = -100						; size = 8
_Sin$ = -92						; size = 8
_mat$ = -80						; size = 72
_this$ = -4						; size = 4
_rot$ = 8						; size = 8
?Rotate@C2DMatrix@@QAEXN@Z PROC				; C2DMatrix::Rotate, COMDAT
; _this$ = ecx

; 191  : {

	push	ebp
	mov	ebp, esp
	sub	esp, 100				; 00000064H
	push	edi
	push	ecx
	lea	edi, DWORD PTR [ebp-100]
	mov	ecx, 25					; 00000019H
	mov	eax, -858993460				; ccccccccH
	rep stosd
	pop	ecx
	mov	DWORD PTR _this$[ebp], ecx

; 192  :   C2DMatrix::Matrix mat;

	lea	ecx, DWORD PTR _mat$[ebp]
	call	??0Matrix@C2DMatrix@@QAE@XZ		; C2DMatrix::Matrix::Matrix

; 193  : 
; 194  :   double Sin = sin(rot);

	sub	esp, 8
	fld	QWORD PTR _rot$[ebp]
	fstp	QWORD PTR [esp]
	call	_sin
	add	esp, 8
	fstp	QWORD PTR _Sin$[ebp]

; 195  :   double Cos = cos(rot);

	sub	esp, 8
	fld	QWORD PTR _rot$[ebp]
	fstp	QWORD PTR [esp]
	call	_cos
	add	esp, 8
	fstp	QWORD PTR _Cos$[ebp]

; 196  :   
; 197  :   mat._11 = Cos;  mat._12 = Sin; mat._13 = 0;

	fld	QWORD PTR _Cos$[ebp]
	fstp	QWORD PTR _mat$[ebp]
	fld	QWORD PTR _Sin$[ebp]
	fstp	QWORD PTR _mat$[ebp+8]
	fldz
	fstp	QWORD PTR _mat$[ebp+16]

; 198  :   
; 199  :   mat._21 = -Sin; mat._22 = Cos; mat._23 = 0;

	fld	QWORD PTR _Sin$[ebp]
	fchs
	fstp	QWORD PTR _mat$[ebp+24]
	fld	QWORD PTR _Cos$[ebp]
	fstp	QWORD PTR _mat$[ebp+32]
	fldz
	fstp	QWORD PTR _mat$[ebp+40]

; 200  :   
; 201  :   mat._31 = 0; mat._32 = 0;mat._33 = 1;

	fldz
	fstp	QWORD PTR _mat$[ebp+48]
	fldz
	fstp	QWORD PTR _mat$[ebp+56]
	fld1
	fstp	QWORD PTR _mat$[ebp+64]

; 202  :   
; 203  :   //and multiply
; 204  :   MatrixMultiply(mat);

	lea	eax, DWORD PTR _mat$[ebp]
	push	eax
	mov	ecx, DWORD PTR _this$[ebp]
	call	?MatrixMultiply@C2DMatrix@@AAEXAAUMatrix@1@@Z ; C2DMatrix::MatrixMultiply

; 205  : }

	push	edx
	mov	ecx, ebp
	push	eax
	lea	edx, DWORD PTR $LN5@Rotate
	call	@_RTC_CheckStackVars@8
	pop	eax
	pop	edx
	pop	edi
	add	esp, 100				; 00000064H
	cmp	ebp, esp
	call	__RTC_CheckEsp
	mov	esp, ebp
	pop	ebp
	ret	8
$LN5@Rotate:
	DD	1
	DD	$LN4@Rotate
$LN4@Rotate:
	DD	-80					; ffffffb0H
	DD	72					; 00000048H
	DD	$LN3@Rotate
$LN3@Rotate:
	DB	109					; 0000006dH
	DB	97					; 00000061H
	DB	116					; 00000074H
	DB	0
?Rotate@C2DMatrix@@QAEXN@Z ENDP				; C2DMatrix::Rotate
; Function compile flags: /Odtp /RTCsu
_TEXT	ENDS
;	COMDAT ?MatrixMultiply@C2DMatrix@@AAEXAAUMatrix@1@@Z
_TEXT	SEGMENT
_mat_temp$ = -80					; size = 72
_this$ = -4						; size = 4
_mIn$ = 8						; size = 4
?MatrixMultiply@C2DMatrix@@AAEXAAUMatrix@1@@Z PROC	; C2DMatrix::MatrixMultiply, COMDAT
; _this$ = ecx

; 95   : {

	push	ebp
	mov	ebp, esp
	sub	esp, 84					; 00000054H
	push	esi
	push	edi
	push	ecx
	lea	edi, DWORD PTR [ebp-84]
	mov	ecx, 21					; 00000015H
	mov	eax, -858993460				; ccccccccH
	rep stosd
	pop	ecx
	mov	DWORD PTR _this$[ebp], ecx

; 96   :   C2DMatrix::Matrix mat_temp;

	lea	ecx, DWORD PTR _mat_temp$[ebp]
	call	??0Matrix@C2DMatrix@@QAE@XZ		; C2DMatrix::Matrix::Matrix

; 97   :   
; 98   :   //first row
; 99   :   mat_temp._11 = (m_Matrix._11*mIn._11) + (m_Matrix._12*mIn._21) + (m_Matrix._13*mIn._31);

	mov	eax, DWORD PTR _this$[ebp]
	mov	ecx, DWORD PTR _mIn$[ebp]
	fld	QWORD PTR [eax]
	fmul	QWORD PTR [ecx]
	mov	edx, DWORD PTR _this$[ebp]
	mov	eax, DWORD PTR _mIn$[ebp]
	fld	QWORD PTR [edx+8]
	fmul	QWORD PTR [eax+24]
	faddp	ST(1), ST(0)
	mov	ecx, DWORD PTR _this$[ebp]
	mov	edx, DWORD PTR _mIn$[ebp]
	fld	QWORD PTR [ecx+16]
	fmul	QWORD PTR [edx+48]
	faddp	ST(1), ST(0)
	fstp	QWORD PTR _mat_temp$[ebp]

; 100  :   mat_temp._12 = (m_Matrix._11*mIn._12) + (m_Matrix._12*mIn._22) + (m_Matrix._13*mIn._32);

	mov	eax, DWORD PTR _this$[ebp]
	mov	ecx, DWORD PTR _mIn$[ebp]
	fld	QWORD PTR [eax]
	fmul	QWORD PTR [ecx+8]
	mov	edx, DWORD PTR _this$[ebp]
	mov	eax, DWORD PTR _mIn$[ebp]
	fld	QWORD PTR [edx+8]
	fmul	QWORD PTR [eax+32]
	faddp	ST(1), ST(0)
	mov	ecx, DWORD PTR _this$[ebp]
	mov	edx, DWORD PTR _mIn$[ebp]
	fld	QWORD PTR [ecx+16]
	fmul	QWORD PTR [edx+56]
	faddp	ST(1), ST(0)
	fstp	QWORD PTR _mat_temp$[ebp+8]

; 101  :   mat_temp._13 = (m_Matrix._11*mIn._13) + (m_Matrix._12*mIn._23) + (m_Matrix._13*mIn._33);

	mov	eax, DWORD PTR _this$[ebp]
	mov	ecx, DWORD PTR _mIn$[ebp]
	fld	QWORD PTR [eax]
	fmul	QWORD PTR [ecx+16]
	mov	edx, DWORD PTR _this$[ebp]
	mov	eax, DWORD PTR _mIn$[ebp]
	fld	QWORD PTR [edx+8]
	fmul	QWORD PTR [eax+40]
	faddp	ST(1), ST(0)
	mov	ecx, DWORD PTR _this$[ebp]
	mov	edx, DWORD PTR _mIn$[ebp]
	fld	QWORD PTR [ecx+16]
	fmul	QWORD PTR [edx+64]
	faddp	ST(1), ST(0)
	fstp	QWORD PTR _mat_temp$[ebp+16]

; 102  : 
; 103  :   //second
; 104  :   mat_temp._21 = (m_Matrix._21*mIn._11) + (m_Matrix._22*mIn._21) + (m_Matrix._23*mIn._31);

	mov	eax, DWORD PTR _this$[ebp]
	mov	ecx, DWORD PTR _mIn$[ebp]
	fld	QWORD PTR [eax+24]
	fmul	QWORD PTR [ecx]
	mov	edx, DWORD PTR _this$[ebp]
	mov	eax, DWORD PTR _mIn$[ebp]
	fld	QWORD PTR [edx+32]
	fmul	QWORD PTR [eax+24]
	faddp	ST(1), ST(0)
	mov	ecx, DWORD PTR _this$[ebp]
	mov	edx, DWORD PTR _mIn$[ebp]
	fld	QWORD PTR [ecx+40]
	fmul	QWORD PTR [edx+48]
	faddp	ST(1), ST(0)
	fstp	QWORD PTR _mat_temp$[ebp+24]

; 105  :   mat_temp._22 = (m_Matrix._21*mIn._12) + (m_Matrix._22*mIn._22) + (m_Matrix._23*mIn._32);

	mov	eax, DWORD PTR _this$[ebp]
	mov	ecx, DWORD PTR _mIn$[ebp]
	fld	QWORD PTR [eax+24]
	fmul	QWORD PTR [ecx+8]
	mov	edx, DWORD PTR _this$[ebp]
	mov	eax, DWORD PTR _mIn$[ebp]
	fld	QWORD PTR [edx+32]
	fmul	QWORD PTR [eax+32]
	faddp	ST(1), ST(0)
	mov	ecx, DWORD PTR _this$[ebp]
	mov	edx, DWORD PTR _mIn$[ebp]
	fld	QWORD PTR [ecx+40]
	fmul	QWORD PTR [edx+56]
	faddp	ST(1), ST(0)
	fstp	QWORD PTR _mat_temp$[ebp+32]

; 106  :   mat_temp._23 = (m_Matrix._21*mIn._13) + (m_Matrix._22*mIn._23) + (m_Matrix._23*mIn._33);

	mov	eax, DWORD PTR _this$[ebp]
	mov	ecx, DWORD PTR _mIn$[ebp]
	fld	QWORD PTR [eax+24]
	fmul	QWORD PTR [ecx+16]
	mov	edx, DWORD PTR _this$[ebp]
	mov	eax, DWORD PTR _mIn$[ebp]
	fld	QWORD PTR [edx+32]
	fmul	QWORD PTR [eax+40]
	faddp	ST(1), ST(0)
	mov	ecx, DWORD PTR _this$[ebp]
	mov	edx, DWORD PTR _mIn$[ebp]
	fld	QWORD PTR [ecx+40]
	fmul	QWORD PTR [edx+64]
	faddp	ST(1), ST(0)
	fstp	QWORD PTR _mat_temp$[ebp+40]

; 107  : 
; 108  :   //third
; 109  :   mat_temp._31 = (m_Matrix._31*mIn._11) + (m_Matrix._32*mIn._21) + (m_Matrix._33*mIn._31);

	mov	eax, DWORD PTR _this$[ebp]
	mov	ecx, DWORD PTR _mIn$[ebp]
	fld	QWORD PTR [eax+48]
	fmul	QWORD PTR [ecx]
	mov	edx, DWORD PTR _this$[ebp]
	mov	eax, DWORD PTR _mIn$[ebp]
	fld	QWORD PTR [edx+56]
	fmul	QWORD PTR [eax+24]
	faddp	ST(1), ST(0)
	mov	ecx, DWORD PTR _this$[ebp]
	mov	edx, DWORD PTR _mIn$[ebp]
	fld	QWORD PTR [ecx+64]
	fmul	QWORD PTR [edx+48]
	faddp	ST(1), ST(0)
	fstp	QWORD PTR _mat_temp$[ebp+48]

; 110  :   mat_temp._32 = (m_Matrix._31*mIn._12) + (m_Matrix._32*mIn._22) + (m_Matrix._33*mIn._32);

	mov	eax, DWORD PTR _this$[ebp]
	mov	ecx, DWORD PTR _mIn$[ebp]
	fld	QWORD PTR [eax+48]
	fmul	QWORD PTR [ecx+8]
	mov	edx, DWORD PTR _this$[ebp]
	mov	eax, DWORD PTR _mIn$[ebp]
	fld	QWORD PTR [edx+56]
	fmul	QWORD PTR [eax+32]
	faddp	ST(1), ST(0)
	mov	ecx, DWORD PTR _this$[ebp]
	mov	edx, DWORD PTR _mIn$[ebp]
	fld	QWORD PTR [ecx+64]
	fmul	QWORD PTR [edx+56]
	faddp	ST(1), ST(0)
	fstp	QWORD PTR _mat_temp$[ebp+56]

; 111  :   mat_temp._33 = (m_Matrix._31*mIn._13) + (m_Matrix._32*mIn._23) + (m_Matrix._33*mIn._33);

	mov	eax, DWORD PTR _this$[ebp]
	mov	ecx, DWORD PTR _mIn$[ebp]
	fld	QWORD PTR [eax+48]
	fmul	QWORD PTR [ecx+16]
	mov	edx, DWORD PTR _this$[ebp]
	mov	eax, DWORD PTR _mIn$[ebp]
	fld	QWORD PTR [edx+56]
	fmul	QWORD PTR [eax+40]
	faddp	ST(1), ST(0)
	mov	ecx, DWORD PTR _this$[ebp]
	mov	edx, DWORD PTR _mIn$[ebp]
	fld	QWORD PTR [ecx+64]
	fmul	QWORD PTR [edx+64]
	faddp	ST(1), ST(0)
	fstp	QWORD PTR _mat_temp$[ebp+64]

; 112  : 
; 113  :   m_Matrix = mat_temp;

	mov	ecx, 18					; 00000012H
	lea	esi, DWORD PTR _mat_temp$[ebp]
	mov	edi, DWORD PTR _this$[ebp]
	rep movsd

; 114  : }

	push	edx
	mov	ecx, ebp
	push	eax
	lea	edx, DWORD PTR $LN5@MatrixMult
	call	@_RTC_CheckStackVars@8
	pop	eax
	pop	edx
	pop	edi
	pop	esi
	add	esp, 84					; 00000054H
	cmp	ebp, esp
	call	__RTC_CheckEsp
	mov	esp, ebp
	pop	ebp
	ret	4
	npad	3
$LN5@MatrixMult:
	DD	1
	DD	$LN4@MatrixMult
$LN4@MatrixMult:
	DD	-80					; ffffffb0H
	DD	72					; 00000048H
	DD	$LN3@MatrixMult
$LN3@MatrixMult:
	DB	109					; 0000006dH
	DB	97					; 00000061H
	DB	116					; 00000074H
	DB	95					; 0000005fH
	DB	116					; 00000074H
	DB	101					; 00000065H
	DB	109					; 0000006dH
	DB	112					; 00000070H
	DB	0
?MatrixMultiply@C2DMatrix@@AAEXAAUMatrix@1@@Z ENDP	; C2DMatrix::MatrixMultiply
_TEXT	ENDS
PUBLIC	??D@YA?AUVector2D@@ABU0@N@Z			; operator*
PUBLIC	?Velocity@MovingEntity@@QBE?AUVector2D@@XZ	; MovingEntity::Velocity
PUBLIC	?MaxSpeed@MovingEntity@@QBENXZ			; MovingEntity::MaxSpeed
PUBLIC	?Length@Vector2D@@QBENXZ			; Vector2D::Length
PUBLIC	?GetMaxProjectileSpeed@Raven_Weapon@@QBENXZ	; Raven_Weapon::GetMaxProjectileSpeed
; Function compile flags: /Odtp /RTCsu
; File c:\users\teaja\documents\artificial-fun\labravenprojecttest\raven\abstweaponsystem.cpp
_TEXT	SEGMENT
tv196 = -132						; size = 8
$T151028 = -124						; size = 16
$T151027 = -108						; size = 16
$T151026 = -92						; size = 16
$T151025 = -76						; size = 16
$T151024 = -60						; size = 16
_LookAheadTime$ = -44					; size = 8
_ToEnemy$ = -32						; size = 16
_MaxSpeed$ = -12					; size = 8
_this$ = -4						; size = 4
___$ReturnUdt$ = 8					; size = 4
?PredictFuturePositionOfTarget@AbstWeaponSystem@@IBE?AUVector2D@@XZ PROC ; AbstWeaponSystem::PredictFuturePositionOfTarget
; _this$ = ecx

; 257  : {

	push	ebp
	mov	ebp, esp
	sub	esp, 132				; 00000084H
	push	edi
	push	ecx
	lea	edi, DWORD PTR [ebp-132]
	mov	ecx, 33					; 00000021H
	mov	eax, -858993460				; ccccccccH
	rep stosd
	pop	ecx
	mov	DWORD PTR _this$[ebp], ecx

; 258  :   double MaxSpeed = GetCurrentWeapon()->GetMaxProjectileSpeed();

	mov	ecx, DWORD PTR _this$[ebp]
	call	?GetCurrentWeapon@AbstWeaponSystem@@QBEPAVRaven_Weapon@@XZ ; AbstWeaponSystem::GetCurrentWeapon
	mov	ecx, eax
	call	?GetMaxProjectileSpeed@Raven_Weapon@@QBENXZ ; Raven_Weapon::GetMaxProjectileSpeed
	fstp	QWORD PTR _MaxSpeed$[ebp]

; 259  :   
; 260  :   //if the target is ahead and facing the agent shoot at its current pos
; 261  :   Vector2D ToEnemy = m_pOwner->GetTargetBot()->Pos() - m_pOwner->Pos();

	lea	eax, DWORD PTR $T151024[ebp]
	push	eax
	mov	ecx, DWORD PTR _this$[ebp]
	mov	ecx, DWORD PTR [ecx+8]
	call	?Pos@BaseGameEntity@@QBE?AUVector2D@@XZ	; BaseGameEntity::Pos
	push	eax
	lea	edx, DWORD PTR $T151025[ebp]
	push	edx
	mov	eax, DWORD PTR _this$[ebp]
	mov	ecx, DWORD PTR [eax+8]
	call	?GetTargetBot@AbstRaven_Bot@@QBEQAV1@XZ	; AbstRaven_Bot::GetTargetBot
	mov	ecx, eax
	call	?Pos@BaseGameEntity@@QBE?AUVector2D@@XZ	; BaseGameEntity::Pos
	push	eax
	lea	ecx, DWORD PTR _ToEnemy$[ebp]
	push	ecx
	call	??G@YA?AUVector2D@@ABU0@0@Z		; operator-
	add	esp, 12					; 0000000cH

; 262  :  
; 263  :   //the lookahead time is proportional to the distance between the enemy
; 264  :   //and the pursuer; and is inversely proportional to the sum of the
; 265  :   //agent's velocities
; 266  :   double LookAheadTime = ToEnemy.Length() / 
; 267  :                         (MaxSpeed + m_pOwner->GetTargetBot()->MaxSpeed());

	lea	ecx, DWORD PTR _ToEnemy$[ebp]
	call	?Length@Vector2D@@QBENXZ		; Vector2D::Length
	mov	edx, DWORD PTR _this$[ebp]
	mov	ecx, DWORD PTR [edx+8]
	fstp	QWORD PTR tv196[ebp]
	call	?GetTargetBot@AbstRaven_Bot@@QBEQAV1@XZ	; AbstRaven_Bot::GetTargetBot
	mov	ecx, eax
	call	?MaxSpeed@MovingEntity@@QBENXZ		; MovingEntity::MaxSpeed
	fadd	QWORD PTR _MaxSpeed$[ebp]
	fdivr	QWORD PTR tv196[ebp]
	fstp	QWORD PTR _LookAheadTime$[ebp]

; 268  :   
; 269  :   //return the predicted future position of the enemy
; 270  :   return m_pOwner->GetTargetBot()->Pos() + 
; 271  :          m_pOwner->GetTargetBot()->Velocity() * LookAheadTime;

	sub	esp, 8
	fld	QWORD PTR _LookAheadTime$[ebp]
	fstp	QWORD PTR [esp]
	lea	eax, DWORD PTR $T151026[ebp]
	push	eax
	mov	ecx, DWORD PTR _this$[ebp]
	mov	ecx, DWORD PTR [ecx+8]
	call	?GetTargetBot@AbstRaven_Bot@@QBEQAV1@XZ	; AbstRaven_Bot::GetTargetBot
	mov	ecx, eax
	call	?Velocity@MovingEntity@@QBE?AUVector2D@@XZ ; MovingEntity::Velocity
	push	eax
	lea	edx, DWORD PTR $T151027[ebp]
	push	edx
	call	??D@YA?AUVector2D@@ABU0@N@Z		; operator*
	add	esp, 16					; 00000010H
	push	eax
	lea	eax, DWORD PTR $T151028[ebp]
	push	eax
	mov	ecx, DWORD PTR _this$[ebp]
	mov	ecx, DWORD PTR [ecx+8]
	call	?GetTargetBot@AbstRaven_Bot@@QBEQAV1@XZ	; AbstRaven_Bot::GetTargetBot
	mov	ecx, eax
	call	?Pos@BaseGameEntity@@QBE?AUVector2D@@XZ	; BaseGameEntity::Pos
	push	eax
	mov	edx, DWORD PTR ___$ReturnUdt$[ebp]
	push	edx
	call	??H@YA?AUVector2D@@ABU0@0@Z		; operator+
	add	esp, 12					; 0000000cH
	mov	eax, DWORD PTR ___$ReturnUdt$[ebp]

; 272  : }

	push	edx
	mov	ecx, ebp
	push	eax
	lea	edx, DWORD PTR $LN5@PredictFut
	call	@_RTC_CheckStackVars@8
	pop	eax
	pop	edx
	pop	edi
	add	esp, 132				; 00000084H
	cmp	ebp, esp
	call	__RTC_CheckEsp
	mov	esp, ebp
	pop	ebp
	ret	4
	npad	2
$LN5@PredictFut:
	DD	1
	DD	$LN4@PredictFut
$LN4@PredictFut:
	DD	-32					; ffffffe0H
	DD	16					; 00000010H
	DD	$LN3@PredictFut
$LN3@PredictFut:
	DB	84					; 00000054H
	DB	111					; 0000006fH
	DB	69					; 00000045H
	DB	110					; 0000006eH
	DB	101					; 00000065H
	DB	109					; 0000006dH
	DB	121					; 00000079H
	DB	0
?PredictFuturePositionOfTarget@AbstWeaponSystem@@IBE?AUVector2D@@XZ ENDP ; AbstWeaponSystem::PredictFuturePositionOfTarget
; Function compile flags: /Odtp /RTCsu
; File c:\users\teaja\documents\artificial-fun\labravenprojecttest\common\2d\vector2d.h
_TEXT	ENDS
;	COMDAT ?Length@Vector2D@@QBENXZ
_TEXT	SEGMENT
_this$ = -4						; size = 4
?Length@Vector2D@@QBENXZ PROC				; Vector2D::Length, COMDAT
; _this$ = ecx

; 128  : {

	push	ebp
	mov	ebp, esp
	push	ecx
	mov	DWORD PTR [ebp-4], -858993460		; ccccccccH
	mov	DWORD PTR _this$[ebp], ecx

; 129  :   return sqrt(x * x + y * y);

	mov	eax, DWORD PTR _this$[ebp]
	mov	ecx, DWORD PTR _this$[ebp]
	fld	QWORD PTR [eax]
	fmul	QWORD PTR [ecx]
	mov	edx, DWORD PTR _this$[ebp]
	mov	eax, DWORD PTR _this$[ebp]
	fld	QWORD PTR [edx+8]
	fmul	QWORD PTR [eax+8]
	faddp	ST(1), ST(0)
	sub	esp, 8
	fstp	QWORD PTR [esp]
	call	_sqrt
	add	esp, 8

; 130  : }

	add	esp, 4
	cmp	ebp, esp
	call	__RTC_CheckEsp
	mov	esp, ebp
	pop	ebp
	ret	0
?Length@Vector2D@@QBENXZ ENDP				; Vector2D::Length
_TEXT	ENDS
PUBLIC	??XVector2D@@QAEABU0@ABN@Z			; Vector2D::operator*=
; Function compile flags: /Odtp /RTCsu
;	COMDAT ??D@YA?AUVector2D@@ABU0@N@Z
_TEXT	SEGMENT
_result$ = -20						; size = 16
___$ReturnUdt$ = 8					; size = 4
_lhs$ = 12						; size = 4
_rhs$ = 16						; size = 8
??D@YA?AUVector2D@@ABU0@N@Z PROC			; operator*, COMDAT

; 334  : {

	push	ebp
	mov	ebp, esp
	sub	esp, 24					; 00000018H
	mov	eax, -858993460				; ccccccccH
	mov	DWORD PTR [ebp-24], eax
	mov	DWORD PTR [ebp-20], eax
	mov	DWORD PTR [ebp-16], eax
	mov	DWORD PTR [ebp-12], eax
	mov	DWORD PTR [ebp-8], eax
	mov	DWORD PTR [ebp-4], eax

; 335  :   Vector2D result(lhs);

	mov	eax, DWORD PTR _lhs$[ebp]
	mov	ecx, DWORD PTR [eax]
	mov	DWORD PTR _result$[ebp], ecx
	mov	edx, DWORD PTR [eax+4]
	mov	DWORD PTR _result$[ebp+4], edx
	mov	ecx, DWORD PTR [eax+8]
	mov	DWORD PTR _result$[ebp+8], ecx
	mov	edx, DWORD PTR [eax+12]
	mov	DWORD PTR _result$[ebp+12], edx

; 336  :   result *= rhs;

	lea	eax, DWORD PTR _rhs$[ebp]
	push	eax
	lea	ecx, DWORD PTR _result$[ebp]
	call	??XVector2D@@QAEABU0@ABN@Z		; Vector2D::operator*=

; 337  :   return result;

	mov	ecx, DWORD PTR ___$ReturnUdt$[ebp]
	mov	edx, DWORD PTR _result$[ebp]
	mov	DWORD PTR [ecx], edx
	mov	eax, DWORD PTR _result$[ebp+4]
	mov	DWORD PTR [ecx+4], eax
	mov	edx, DWORD PTR _result$[ebp+8]
	mov	DWORD PTR [ecx+8], edx
	mov	eax, DWORD PTR _result$[ebp+12]
	mov	DWORD PTR [ecx+12], eax
	mov	eax, DWORD PTR ___$ReturnUdt$[ebp]

; 338  : }

	push	edx
	mov	ecx, ebp
	push	eax
	lea	edx, DWORD PTR $LN5@operator@4
	call	@_RTC_CheckStackVars@8
	pop	eax
	pop	edx
	add	esp, 24					; 00000018H
	cmp	ebp, esp
	call	__RTC_CheckEsp
	mov	esp, ebp
	pop	ebp
	ret	0
	npad	1
$LN5@operator@4:
	DD	1
	DD	$LN4@operator@4
$LN4@operator@4:
	DD	-20					; ffffffecH
	DD	16					; 00000010H
	DD	$LN3@operator@4
$LN3@operator@4:
	DB	114					; 00000072H
	DB	101					; 00000065H
	DB	115					; 00000073H
	DB	117					; 00000075H
	DB	108					; 0000006cH
	DB	116					; 00000074H
	DB	0
??D@YA?AUVector2D@@ABU0@N@Z ENDP			; operator*
; Function compile flags: /Odtp /RTCsu
_TEXT	ENDS
;	COMDAT ??XVector2D@@QAEABU0@ABN@Z
_TEXT	SEGMENT
_this$ = -4						; size = 4
_rhs$ = 8						; size = 4
??XVector2D@@QAEABU0@ABN@Z PROC				; Vector2D::operator*=, COMDAT
; _this$ = ecx

; 84   :   {

	push	ebp
	mov	ebp, esp
	push	ecx
	mov	DWORD PTR [ebp-4], -858993460		; ccccccccH
	mov	DWORD PTR _this$[ebp], ecx

; 85   :     x *= rhs;

	mov	eax, DWORD PTR _this$[ebp]
	mov	ecx, DWORD PTR _rhs$[ebp]
	fld	QWORD PTR [eax]
	fmul	QWORD PTR [ecx]
	mov	edx, DWORD PTR _this$[ebp]
	fstp	QWORD PTR [edx]

; 86   :     y *= rhs;

	mov	eax, DWORD PTR _this$[ebp]
	mov	ecx, DWORD PTR _rhs$[ebp]
	fld	QWORD PTR [eax+8]
	fmul	QWORD PTR [ecx]
	mov	edx, DWORD PTR _this$[ebp]
	fstp	QWORD PTR [edx+8]

; 87   : 
; 88   :     return *this;

	mov	eax, DWORD PTR _this$[ebp]

; 89   :   }

	mov	esp, ebp
	pop	ebp
	ret	4
??XVector2D@@QAEABU0@ABN@Z ENDP				; Vector2D::operator*=
; Function compile flags: /Odtp /RTCsu
; File c:\users\teaja\documents\artificial-fun\labravenprojecttest\common\game\movingentity.h
_TEXT	ENDS
;	COMDAT ?Velocity@MovingEntity@@QBE?AUVector2D@@XZ
_TEXT	SEGMENT
_this$ = -4						; size = 4
___$ReturnUdt$ = 8					; size = 4
?Velocity@MovingEntity@@QBE?AUVector2D@@XZ PROC		; MovingEntity::Velocity, COMDAT
; _this$ = ecx

; 75   :   Vector2D  Velocity()const{return m_vVelocity;}

	push	ebp
	mov	ebp, esp
	push	ecx
	mov	DWORD PTR [ebp-4], -858993460		; ccccccccH
	mov	DWORD PTR _this$[ebp], ecx
	mov	eax, DWORD PTR _this$[ebp]
	add	eax, 64					; 00000040H
	mov	ecx, DWORD PTR ___$ReturnUdt$[ebp]
	mov	edx, DWORD PTR [eax]
	mov	DWORD PTR [ecx], edx
	mov	edx, DWORD PTR [eax+4]
	mov	DWORD PTR [ecx+4], edx
	mov	edx, DWORD PTR [eax+8]
	mov	DWORD PTR [ecx+8], edx
	mov	eax, DWORD PTR [eax+12]
	mov	DWORD PTR [ecx+12], eax
	mov	eax, DWORD PTR ___$ReturnUdt$[ebp]
	mov	esp, ebp
	pop	ebp
	ret	4
?Velocity@MovingEntity@@QBE?AUVector2D@@XZ ENDP		; MovingEntity::Velocity
; Function compile flags: /Odtp /RTCsu
_TEXT	ENDS
;	COMDAT ?MaxSpeed@MovingEntity@@QBENXZ
_TEXT	SEGMENT
_this$ = -4						; size = 4
?MaxSpeed@MovingEntity@@QBENXZ PROC			; MovingEntity::MaxSpeed, COMDAT
; _this$ = ecx

; 82   :   double    MaxSpeed()const{return m_dMaxSpeed;}                       

	push	ebp
	mov	ebp, esp
	push	ecx
	mov	DWORD PTR [ebp-4], -858993460		; ccccccccH
	mov	DWORD PTR _this$[ebp], ecx
	mov	eax, DWORD PTR _this$[ebp]
	fld	QWORD PTR [eax+120]
	mov	esp, ebp
	pop	ebp
	ret	0
?MaxSpeed@MovingEntity@@QBENXZ ENDP			; MovingEntity::MaxSpeed
; Function compile flags: /Odtp /RTCsu
; File c:\users\teaja\documents\artificial-fun\labravenprojecttest\raven\armory\raven_weapon.h
_TEXT	ENDS
;	COMDAT ?GetMaxProjectileSpeed@Raven_Weapon@@QBENXZ
_TEXT	SEGMENT
_this$ = -4						; size = 4
?GetMaxProjectileSpeed@Raven_Weapon@@QBENXZ PROC	; Raven_Weapon::GetMaxProjectileSpeed, COMDAT
; _this$ = ecx

; 125  :   double         GetMaxProjectileSpeed()const{return m_dMaxProjectileSpeed;}

	push	ebp
	mov	ebp, esp
	push	ecx
	mov	DWORD PTR [ebp-4], -858993460		; ccccccccH
	mov	DWORD PTR _this$[ebp], ecx
	mov	eax, DWORD PTR _this$[ebp]
	fld	QWORD PTR [eax+96]
	mov	esp, ebp
	pop	ebp
	ret	0
?GetMaxProjectileSpeed@Raven_Weapon@@QBENXZ ENDP	; Raven_Weapon::GetMaxProjectileSpeed
_TEXT	ENDS
PUBLIC	?GetAmmoRemainingForWeapon@AbstWeaponSystem@@QAEHI@Z ; AbstWeaponSystem::GetAmmoRemainingForWeapon
; Function compile flags: /Odtp /RTCsu
; File c:\users\teaja\documents\artificial-fun\labravenprojecttest\raven\abstweaponsystem.cpp
_TEXT	SEGMENT
$T151049 = -12						; size = 4
$T151048 = -8						; size = 4
_this$ = -4						; size = 4
_weapon_type$ = 8					; size = 4
?GetAmmoRemainingForWeapon@AbstWeaponSystem@@QAEHI@Z PROC ; AbstWeaponSystem::GetAmmoRemainingForWeapon
; _this$ = ecx

; 281  : {

	push	ebp
	mov	ebp, esp
	sub	esp, 12					; 0000000cH
	mov	DWORD PTR [ebp-12], -858993460		; ccccccccH
	mov	DWORD PTR [ebp-8], -858993460		; ccccccccH
	mov	DWORD PTR [ebp-4], -858993460		; ccccccccH
	mov	DWORD PTR _this$[ebp], ecx

; 282  :   if (m_WeaponMap[weapon_type])

	mov	eax, DWORD PTR _weapon_type$[ebp]
	mov	DWORD PTR $T151048[ebp], eax
	lea	ecx, DWORD PTR $T151048[ebp]
	push	ecx
	mov	ecx, DWORD PTR _this$[ebp]
	add	ecx, 12					; 0000000cH
	call	??A?$map@HPAVRaven_Weapon@@U?$less@H@std@@V?$allocator@U?$pair@$$CBHPAVRaven_Weapon@@@std@@@3@@std@@QAEAAPAVRaven_Weapon@@ABH@Z ; std::map<int,Raven_Weapon *,std::less<int>,std::allocator<std::pair<int const ,Raven_Weapon *> > >::operator[]
	cmp	DWORD PTR [eax], 0
	je	SHORT $LN1@GetAmmoRem

; 283  :   {
; 284  :     return m_WeaponMap[weapon_type]->NumRoundsRemaining();

	mov	edx, DWORD PTR _weapon_type$[ebp]
	mov	DWORD PTR $T151049[ebp], edx
	lea	eax, DWORD PTR $T151049[ebp]
	push	eax
	mov	ecx, DWORD PTR _this$[ebp]
	add	ecx, 12					; 0000000cH
	call	??A?$map@HPAVRaven_Weapon@@U?$less@H@std@@V?$allocator@U?$pair@$$CBHPAVRaven_Weapon@@@std@@@3@@std@@QAEAAPAVRaven_Weapon@@ABH@Z ; std::map<int,Raven_Weapon *,std::less<int>,std::allocator<std::pair<int const ,Raven_Weapon *> > >::operator[]
	mov	ecx, DWORD PTR [eax]
	call	?NumRoundsRemaining@Raven_Weapon@@QBEHXZ ; Raven_Weapon::NumRoundsRemaining
	jmp	SHORT $LN2@GetAmmoRem
$LN1@GetAmmoRem:

; 285  :   }
; 286  : 
; 287  :   return 0;

	xor	eax, eax
$LN2@GetAmmoRem:

; 288  : }

	add	esp, 12					; 0000000cH
	cmp	ebp, esp
	call	__RTC_CheckEsp
	mov	esp, ebp
	pop	ebp
	ret	4
?GetAmmoRemainingForWeapon@AbstWeaponSystem@@QAEHI@Z ENDP ; AbstWeaponSystem::GetAmmoRemainingForWeapon
_TEXT	ENDS
PUBLIC	?ShootAt@AbstWeaponSystem@@QBEXUVector2D@@@Z	; AbstWeaponSystem::ShootAt
; Function compile flags: /Odtp /RTCsu
_TEXT	SEGMENT
tv67 = -8						; size = 4
_this$ = -4						; size = 4
_pos$ = 8						; size = 16
?ShootAt@AbstWeaponSystem@@QBEXUVector2D@@@Z PROC	; AbstWeaponSystem::ShootAt
; _this$ = ecx

; 295  : {

	push	ebp
	mov	ebp, esp
	sub	esp, 8
	push	esi
	mov	DWORD PTR [ebp-8], -858993460		; ccccccccH
	mov	DWORD PTR [ebp-4], -858993460		; ccccccccH
	mov	DWORD PTR _this$[ebp], ecx

; 296  :   GetCurrentWeapon()->ShootAt(pos);

	mov	ecx, DWORD PTR _this$[ebp]
	call	?GetCurrentWeapon@AbstWeaponSystem@@QBEPAVRaven_Weapon@@XZ ; AbstWeaponSystem::GetCurrentWeapon
	mov	DWORD PTR tv67[ebp], eax
	mov	esi, esp
	sub	esp, 16					; 00000010H
	mov	eax, esp
	mov	ecx, DWORD PTR _pos$[ebp]
	mov	DWORD PTR [eax], ecx
	mov	edx, DWORD PTR _pos$[ebp+4]
	mov	DWORD PTR [eax+4], edx
	mov	ecx, DWORD PTR _pos$[ebp+8]
	mov	DWORD PTR [eax+8], ecx
	mov	edx, DWORD PTR _pos$[ebp+12]
	mov	DWORD PTR [eax+12], edx
	mov	eax, DWORD PTR tv67[ebp]
	mov	edx, DWORD PTR [eax]
	mov	ecx, DWORD PTR tv67[ebp]
	mov	eax, DWORD PTR [edx+8]
	call	eax
	cmp	esi, esp
	call	__RTC_CheckEsp

; 297  : }

	pop	esi
	add	esp, 8
	cmp	ebp, esp
	call	__RTC_CheckEsp
	mov	esp, ebp
	pop	ebp
	ret	16					; 00000010H
?ShootAt@AbstWeaponSystem@@QBEXUVector2D@@@Z ENDP	; AbstWeaponSystem::ShootAt
_TEXT	ENDS
PUBLIC	?RenderCurrentWeapon@AbstWeaponSystem@@QBEXXZ	; AbstWeaponSystem::RenderCurrentWeapon
; Function compile flags: /Odtp /RTCsu
_TEXT	SEGMENT
tv67 = -8						; size = 4
_this$ = -4						; size = 4
?RenderCurrentWeapon@AbstWeaponSystem@@QBEXXZ PROC	; AbstWeaponSystem::RenderCurrentWeapon
; _this$ = ecx

; 302  : {

	push	ebp
	mov	ebp, esp
	sub	esp, 8
	push	esi
	mov	DWORD PTR [ebp-8], -858993460		; ccccccccH
	mov	DWORD PTR [ebp-4], -858993460		; ccccccccH
	mov	DWORD PTR _this$[ebp], ecx

; 303  :   GetCurrentWeapon()->Render();

	mov	ecx, DWORD PTR _this$[ebp]
	call	?GetCurrentWeapon@AbstWeaponSystem@@QBEPAVRaven_Weapon@@XZ ; AbstWeaponSystem::GetCurrentWeapon
	mov	DWORD PTR tv67[ebp], eax
	mov	eax, DWORD PTR tv67[ebp]
	mov	edx, DWORD PTR [eax]
	mov	esi, esp
	mov	ecx, DWORD PTR tv67[ebp]
	mov	eax, DWORD PTR [edx+12]
	call	eax
	cmp	esi, esp
	call	__RTC_CheckEsp

; 304  : }

	pop	esi
	add	esp, 8
	cmp	ebp, esp
	call	__RTC_CheckEsp
	mov	esp, ebp
	pop	ebp
	ret	0
?RenderCurrentWeapon@AbstWeaponSystem@@QBEXXZ ENDP	; AbstWeaponSystem::RenderCurrentWeapon
_TEXT	ENDS
PUBLIC	??1?$basic_string@DU?$char_traits@D@std@@V?$allocator@D@2@@std@@QAE@XZ ; std::basic_string<char,std::char_traits<char>,std::allocator<char> >::~basic_string<char,std::char_traits<char>,std::allocator<char> >
PUBLIC	?TextAtPos@Cgdi@@QAEXNNABV?$basic_string@DU?$char_traits@D@std@@V?$allocator@D@2@@std@@@Z ; Cgdi::TextAtPos
PUBLIC	__real@4024000000000000
PUBLIC	??$?HDU?$char_traits@D@std@@V?$allocator@D@1@@std@@YA?AV?$basic_string@DU?$char_traits@D@std@@V?$allocator@D@2@@0@$$QAV10@ABV10@@Z ; std::operator+<char,std::char_traits<char>,std::allocator<char> >
PUBLIC	??$?HDU?$char_traits@D@std@@V?$allocator@D@1@@std@@YA?AV?$basic_string@DU?$char_traits@D@std@@V?$allocator@D@2@@0@$$QAV10@PBD@Z ; std::operator+<char,std::char_traits<char>,std::allocator<char> >
PUBLIC	??$ttos@N@@YA?AV?$basic_string@DU?$char_traits@D@std@@V?$allocator@D@2@@std@@ABNH@Z ; ttos<double>
PUBLIC	?GetNameOfType@@YA?AV?$basic_string@DU?$char_traits@D@std@@V?$allocator@D@2@@std@@H@Z ; GetNameOfType
PUBLIC	?GetLastDesirabilityScore@Raven_Weapon@@QBENXZ	; Raven_Weapon::GetLastDesirabilityScore
PUBLIC	?end@?$_Tree@V?$_Tmap_traits@HPAVRaven_Weapon@@U?$less@H@std@@V?$allocator@U?$pair@$$CBHPAVRaven_Weapon@@@std@@@3@$0A@@std@@@std@@QBE?AV?$_Tree_const_iterator@V?$_Tree_val@V?$_Tmap_traits@HPAVRaven_Weapon@@U?$less@H@std@@V?$allocator@U?$pair@$$CBHPAVRaven_Weapon@@@std@@@3@$0A@@std@@@std@@@2@XZ ; std::_Tree<std::_Tmap_traits<int,Raven_Weapon *,std::less<int>,std::allocator<std::pair<int const ,Raven_Weapon *> >,0> >::end
PUBLIC	?begin@?$_Tree@V?$_Tmap_traits@HPAVRaven_Weapon@@U?$less@H@std@@V?$allocator@U?$pair@$$CBHPAVRaven_Weapon@@@std@@@3@$0A@@std@@@std@@QBE?AV?$_Tree_const_iterator@V?$_Tree_val@V?$_Tmap_traits@HPAVRaven_Weapon@@U?$less@H@std@@V?$allocator@U?$pair@$$CBHPAVRaven_Weapon@@@std@@@3@$0A@@std@@@std@@@2@XZ ; std::_Tree<std::_Tmap_traits<int,Raven_Weapon *,std::less<int>,std::allocator<std::pair<int const ,Raven_Weapon *> >,0> >::begin
PUBLIC	__$ArrayPad$
PUBLIC	?RenderDesirabilities@AbstWeaponSystem@@QBEXXZ	; AbstWeaponSystem::RenderDesirabilities
EXTRN	?Instance@Cgdi@@SAPAV1@XZ:PROC			; Cgdi::Instance
;	COMDAT __real@4024000000000000
CONST	SEGMENT
__real@4024000000000000 DQ 04024000000000000r	; 10
CONST	ENDS
xdata$x	SEGMENT
__ehfuncinfo$?RenderDesirabilities@AbstWeaponSystem@@QBEXXZ DD 019930522H
	DD	09H
	DD	FLAT:__unwindtable$?RenderDesirabilities@AbstWeaponSystem@@QBEXXZ
	DD	2 DUP(00H)
	DD	2 DUP(00H)
	DD	00H
	DD	01H
__unwindtable$?RenderDesirabilities@AbstWeaponSystem@@QBEXXZ DD 0ffffffffH
	DD	FLAT:__unwindfunclet$?RenderDesirabilities@AbstWeaponSystem@@QBEXXZ$0
	DD	00H
	DD	FLAT:__unwindfunclet$?RenderDesirabilities@AbstWeaponSystem@@QBEXXZ$1
	DD	00H
	DD	FLAT:__unwindfunclet$?RenderDesirabilities@AbstWeaponSystem@@QBEXXZ$2
	DD	00H
	DD	FLAT:__unwindfunclet$?RenderDesirabilities@AbstWeaponSystem@@QBEXXZ$3
	DD	00H
	DD	FLAT:__unwindfunclet$?RenderDesirabilities@AbstWeaponSystem@@QBEXXZ$4
	DD	00H
	DD	FLAT:__unwindfunclet$?RenderDesirabilities@AbstWeaponSystem@@QBEXXZ$5
	DD	05H
	DD	FLAT:__unwindfunclet$?RenderDesirabilities@AbstWeaponSystem@@QBEXXZ$6
	DD	06H
	DD	FLAT:__unwindfunclet$?RenderDesirabilities@AbstWeaponSystem@@QBEXXZ$7
	DD	07H
	DD	FLAT:__unwindfunclet$?RenderDesirabilities@AbstWeaponSystem@@QBEXXZ$8
; Function compile flags: /Odtp /RTCsu
xdata$x	ENDS
_TEXT	SEGMENT
tv260 = -336						; size = 4
tv265 = -332						; size = 4
tv258 = -328						; size = 4
tv264 = -324						; size = 4
tv256 = -320						; size = 4
tv201 = -316						; size = 4
tv253 = -312						; size = 4
tv263 = -308						; size = 4
tv251 = -304						; size = 4
tv262 = -300						; size = 4
tv249 = -296						; size = 4
tv261 = -292						; size = 4
tv247 = -288						; size = 4
tv72 = -284						; size = 4
$T151059 = -280						; size = 12
$T151058 = -265						; size = 1
$T151057 = -264						; size = 12
$T151056 = -252						; size = 12
$T151055 = -237						; size = 1
$T151054 = -236						; size = 12
$T137850 = -224						; size = 32
$T137849 = -192						; size = 32
$T137848 = -160						; size = 32
_type$137841 = -124					; size = 32
_score$137840 = -84					; size = 8
_offset$ = -72						; size = 4
_curWeap$ = -64						; size = 12
_num$ = -48						; size = 4
_p$ = -40						; size = 16
_this$ = -20						; size = 4
__$ArrayPad$ = -16					; size = 4
__$EHRec$ = -12						; size = 12
?RenderDesirabilities@AbstWeaponSystem@@QBEXXZ PROC	; AbstWeaponSystem::RenderDesirabilities
; _this$ = ecx

; 307  : {

	push	ebp
	mov	ebp, esp
	push	-1
	push	__ehhandler$?RenderDesirabilities@AbstWeaponSystem@@QBEXXZ
	mov	eax, DWORD PTR fs:0
	push	eax
	sub	esp, 324				; 00000144H
	push	edi
	push	ecx
	lea	edi, DWORD PTR [ebp-336]
	mov	ecx, 81					; 00000051H
	mov	eax, -858993460				; ccccccccH
	rep stosd
	pop	ecx
	mov	eax, DWORD PTR ___security_cookie
	xor	eax, ebp
	mov	DWORD PTR __$ArrayPad$[ebp], eax
	push	eax
	lea	eax, DWORD PTR __$EHRec$[ebp]
	mov	DWORD PTR fs:0, eax
	mov	DWORD PTR _this$[ebp], ecx

; 308  :   Vector2D p = m_pOwner->Pos();

	lea	eax, DWORD PTR _p$[ebp]
	push	eax
	mov	ecx, DWORD PTR _this$[ebp]
	mov	ecx, DWORD PTR [ecx+8]
	call	?Pos@BaseGameEntity@@QBE?AUVector2D@@XZ	; BaseGameEntity::Pos

; 309  : 
; 310  :   int num = 0;

	mov	DWORD PTR _num$[ebp], 0

; 311  :   
; 312  :   WeaponMap::const_iterator curWeap;

	lea	ecx, DWORD PTR _curWeap$[ebp]
	call	??0?$_Tree_const_iterator@V?$_Tree_val@V?$_Tmap_traits@HPAVRaven_Weapon@@U?$less@H@std@@V?$allocator@U?$pair@$$CBHPAVRaven_Weapon@@@std@@@3@$0A@@std@@@std@@@std@@QAE@XZ ; std::_Tree_const_iterator<std::_Tree_val<std::_Tmap_traits<int,Raven_Weapon *,std::less<int>,std::allocator<std::pair<int const ,Raven_Weapon *> >,0> > >::_Tree_const_iterator<std::_Tree_val<std::_Tmap_traits<int,Raven_Weapon *,std::less<int>,std::allocator<std::pair<int const ,Raven_Weapon *> >,0> > >
	mov	DWORD PTR __$EHRec$[ebp+8], 0

; 313  :   for (curWeap=m_WeaponMap.begin(); curWeap != m_WeaponMap.end(); ++curWeap)

	lea	edx, DWORD PTR $T151054[ebp]
	push	edx
	mov	ecx, DWORD PTR _this$[ebp]
	add	ecx, 12					; 0000000cH
	call	?begin@?$_Tree@V?$_Tmap_traits@HPAVRaven_Weapon@@U?$less@H@std@@V?$allocator@U?$pair@$$CBHPAVRaven_Weapon@@@std@@@3@$0A@@std@@@std@@QBE?AV?$_Tree_const_iterator@V?$_Tree_val@V?$_Tmap_traits@HPAVRaven_Weapon@@U?$less@H@std@@V?$allocator@U?$pair@$$CBHPAVRaven_Weapon@@@std@@@3@$0A@@std@@@std@@@2@XZ ; std::_Tree<std::_Tmap_traits<int,Raven_Weapon *,std::less<int>,std::allocator<std::pair<int const ,Raven_Weapon *> >,0> >::begin
	mov	DWORD PTR tv72[ebp], eax
	mov	eax, DWORD PTR tv72[ebp]
	mov	DWORD PTR tv247[ebp], eax
	mov	BYTE PTR __$EHRec$[ebp+8], 1
	mov	ecx, DWORD PTR tv247[ebp]
	push	ecx
	lea	ecx, DWORD PTR _curWeap$[ebp]
	call	??4?$_Tree_const_iterator@V?$_Tree_val@V?$_Tmap_traits@HPAVRaven_Weapon@@U?$less@H@std@@V?$allocator@U?$pair@$$CBHPAVRaven_Weapon@@@std@@@3@$0A@@std@@@std@@@std@@QAEAAV01@ABV01@@Z
	mov	BYTE PTR __$EHRec$[ebp+8], 0
	lea	ecx, DWORD PTR $T151054[ebp]
	call	??1?$_Tree_const_iterator@V?$_Tree_val@V?$_Tmap_traits@HPAVRaven_Weapon@@U?$less@H@std@@V?$allocator@U?$pair@$$CBHPAVRaven_Weapon@@@std@@@3@$0A@@std@@@std@@@std@@QAE@XZ
	jmp	SHORT $LN8@RenderDesi
$LN7@RenderDesi:
	lea	ecx, DWORD PTR _curWeap$[ebp]
	call	??E?$_Tree_const_iterator@V?$_Tree_val@V?$_Tmap_traits@HPAVRaven_Weapon@@U?$less@H@std@@V?$allocator@U?$pair@$$CBHPAVRaven_Weapon@@@std@@@3@$0A@@std@@@std@@@std@@QAEAAV01@XZ ; std::_Tree_const_iterator<std::_Tree_val<std::_Tmap_traits<int,Raven_Weapon *,std::less<int>,std::allocator<std::pair<int const ,Raven_Weapon *> >,0> > >::operator++
$LN8@RenderDesi:
	lea	edx, DWORD PTR $T151056[ebp]
	push	edx
	mov	ecx, DWORD PTR _this$[ebp]
	add	ecx, 12					; 0000000cH
	call	?end@?$_Tree@V?$_Tmap_traits@HPAVRaven_Weapon@@U?$less@H@std@@V?$allocator@U?$pair@$$CBHPAVRaven_Weapon@@@std@@@3@$0A@@std@@@std@@QBE?AV?$_Tree_const_iterator@V?$_Tree_val@V?$_Tmap_traits@HPAVRaven_Weapon@@U?$less@H@std@@V?$allocator@U?$pair@$$CBHPAVRaven_Weapon@@@std@@@3@$0A@@std@@@std@@@2@XZ ; std::_Tree<std::_Tmap_traits<int,Raven_Weapon *,std::less<int>,std::allocator<std::pair<int const ,Raven_Weapon *> >,0> >::end
	mov	DWORD PTR tv261[ebp], eax
	mov	eax, DWORD PTR tv261[ebp]
	mov	DWORD PTR tv249[ebp], eax
	mov	BYTE PTR __$EHRec$[ebp+8], 2
	mov	ecx, DWORD PTR tv249[ebp]
	push	ecx
	lea	ecx, DWORD PTR _curWeap$[ebp]
	call	??9?$_Tree_const_iterator@V?$_Tree_val@V?$_Tmap_traits@HPAVRaven_Weapon@@U?$less@H@std@@V?$allocator@U?$pair@$$CBHPAVRaven_Weapon@@@std@@@3@$0A@@std@@@std@@@std@@QBE_NABV01@@Z ; std::_Tree_const_iterator<std::_Tree_val<std::_Tmap_traits<int,Raven_Weapon *,std::less<int>,std::allocator<std::pair<int const ,Raven_Weapon *> >,0> > >::operator!=
	mov	BYTE PTR $T151055[ebp], al
	mov	BYTE PTR __$EHRec$[ebp+8], 0
	lea	ecx, DWORD PTR $T151056[ebp]
	call	??1?$_Tree_const_iterator@V?$_Tree_val@V?$_Tmap_traits@HPAVRaven_Weapon@@U?$less@H@std@@V?$allocator@U?$pair@$$CBHPAVRaven_Weapon@@@std@@@3@$0A@@std@@@std@@@std@@QAE@XZ
	movzx	edx, BYTE PTR $T151055[ebp]
	test	edx, edx
	je	SHORT $LN6@RenderDesi

; 314  :   {
; 315  :     if (curWeap->second) num++;

	lea	ecx, DWORD PTR _curWeap$[ebp]
	call	??C?$_Tree_unchecked_const_iterator@V?$_Tree_val@V?$_Tmap_traits@HPAVRaven_Weapon@@U?$less@H@std@@V?$allocator@U?$pair@$$CBHPAVRaven_Weapon@@@std@@@3@$0A@@std@@@std@@U_Iterator_base12@2@@std@@QBEPBU?$pair@$$CBHPAVRaven_Weapon@@@1@XZ ; std::_Tree_unchecked_const_iterator<std::_Tree_val<std::_Tmap_traits<int,Raven_Weapon *,std::less<int>,std::allocator<std::pair<int const ,Raven_Weapon *> >,0> >,std::_Iterator_base12>::operator->
	cmp	DWORD PTR [eax+4], 0
	je	SHORT $LN5@RenderDesi
	mov	eax, DWORD PTR _num$[ebp]
	add	eax, 1
	mov	DWORD PTR _num$[ebp], eax
$LN5@RenderDesi:

; 316  :   }

	jmp	SHORT $LN7@RenderDesi
$LN6@RenderDesi:

; 317  : 
; 318  :   int offset = 15 * num;

	mov	ecx, DWORD PTR _num$[ebp]
	imul	ecx, 15					; 0000000fH
	mov	DWORD PTR _offset$[ebp], ecx

; 319  : 
; 320  :     for (curWeap=m_WeaponMap.begin(); curWeap != m_WeaponMap.end(); ++curWeap)

	lea	edx, DWORD PTR $T151057[ebp]
	push	edx
	mov	ecx, DWORD PTR _this$[ebp]
	add	ecx, 12					; 0000000cH
	call	?begin@?$_Tree@V?$_Tmap_traits@HPAVRaven_Weapon@@U?$less@H@std@@V?$allocator@U?$pair@$$CBHPAVRaven_Weapon@@@std@@@3@$0A@@std@@@std@@QBE?AV?$_Tree_const_iterator@V?$_Tree_val@V?$_Tmap_traits@HPAVRaven_Weapon@@U?$less@H@std@@V?$allocator@U?$pair@$$CBHPAVRaven_Weapon@@@std@@@3@$0A@@std@@@std@@@2@XZ ; std::_Tree<std::_Tmap_traits<int,Raven_Weapon *,std::less<int>,std::allocator<std::pair<int const ,Raven_Weapon *> >,0> >::begin
	mov	DWORD PTR tv262[ebp], eax
	mov	eax, DWORD PTR tv262[ebp]
	mov	DWORD PTR tv251[ebp], eax
	mov	BYTE PTR __$EHRec$[ebp+8], 3
	mov	ecx, DWORD PTR tv251[ebp]
	push	ecx
	lea	ecx, DWORD PTR _curWeap$[ebp]
	call	??4?$_Tree_const_iterator@V?$_Tree_val@V?$_Tmap_traits@HPAVRaven_Weapon@@U?$less@H@std@@V?$allocator@U?$pair@$$CBHPAVRaven_Weapon@@@std@@@3@$0A@@std@@@std@@@std@@QAEAAV01@ABV01@@Z
	mov	BYTE PTR __$EHRec$[ebp+8], 0
	lea	ecx, DWORD PTR $T151057[ebp]
	call	??1?$_Tree_const_iterator@V?$_Tree_val@V?$_Tmap_traits@HPAVRaven_Weapon@@U?$less@H@std@@V?$allocator@U?$pair@$$CBHPAVRaven_Weapon@@@std@@@3@$0A@@std@@@std@@@std@@QAE@XZ
	jmp	SHORT $LN4@RenderDesi
$LN3@RenderDesi:
	lea	ecx, DWORD PTR _curWeap$[ebp]
	call	??E?$_Tree_const_iterator@V?$_Tree_val@V?$_Tmap_traits@HPAVRaven_Weapon@@U?$less@H@std@@V?$allocator@U?$pair@$$CBHPAVRaven_Weapon@@@std@@@3@$0A@@std@@@std@@@std@@QAEAAV01@XZ ; std::_Tree_const_iterator<std::_Tree_val<std::_Tmap_traits<int,Raven_Weapon *,std::less<int>,std::allocator<std::pair<int const ,Raven_Weapon *> >,0> > >::operator++
$LN4@RenderDesi:
	lea	edx, DWORD PTR $T151059[ebp]
	push	edx
	mov	ecx, DWORD PTR _this$[ebp]
	add	ecx, 12					; 0000000cH
	call	?end@?$_Tree@V?$_Tmap_traits@HPAVRaven_Weapon@@U?$less@H@std@@V?$allocator@U?$pair@$$CBHPAVRaven_Weapon@@@std@@@3@$0A@@std@@@std@@QBE?AV?$_Tree_const_iterator@V?$_Tree_val@V?$_Tmap_traits@HPAVRaven_Weapon@@U?$less@H@std@@V?$allocator@U?$pair@$$CBHPAVRaven_Weapon@@@std@@@3@$0A@@std@@@std@@@2@XZ ; std::_Tree<std::_Tmap_traits<int,Raven_Weapon *,std::less<int>,std::allocator<std::pair<int const ,Raven_Weapon *> >,0> >::end
	mov	DWORD PTR tv263[ebp], eax
	mov	eax, DWORD PTR tv263[ebp]
	mov	DWORD PTR tv253[ebp], eax
	mov	BYTE PTR __$EHRec$[ebp+8], 4
	mov	ecx, DWORD PTR tv253[ebp]
	push	ecx
	lea	ecx, DWORD PTR _curWeap$[ebp]
	call	??9?$_Tree_const_iterator@V?$_Tree_val@V?$_Tmap_traits@HPAVRaven_Weapon@@U?$less@H@std@@V?$allocator@U?$pair@$$CBHPAVRaven_Weapon@@@std@@@3@$0A@@std@@@std@@@std@@QBE_NABV01@@Z ; std::_Tree_const_iterator<std::_Tree_val<std::_Tmap_traits<int,Raven_Weapon *,std::less<int>,std::allocator<std::pair<int const ,Raven_Weapon *> >,0> > >::operator!=
	mov	BYTE PTR $T151058[ebp], al
	mov	BYTE PTR __$EHRec$[ebp+8], 0
	lea	ecx, DWORD PTR $T151059[ebp]
	call	??1?$_Tree_const_iterator@V?$_Tree_val@V?$_Tmap_traits@HPAVRaven_Weapon@@U?$less@H@std@@V?$allocator@U?$pair@$$CBHPAVRaven_Weapon@@@std@@@3@$0A@@std@@@std@@@std@@QAE@XZ
	movzx	edx, BYTE PTR $T151058[ebp]
	test	edx, edx
	je	$LN2@RenderDesi

; 321  :     {
; 322  :       if (curWeap->second)

	lea	ecx, DWORD PTR _curWeap$[ebp]
	call	??C?$_Tree_unchecked_const_iterator@V?$_Tree_val@V?$_Tmap_traits@HPAVRaven_Weapon@@U?$less@H@std@@V?$allocator@U?$pair@$$CBHPAVRaven_Weapon@@@std@@@3@$0A@@std@@@std@@U_Iterator_base12@2@@std@@QBEPBU?$pair@$$CBHPAVRaven_Weapon@@@1@XZ ; std::_Tree_unchecked_const_iterator<std::_Tree_val<std::_Tmap_traits<int,Raven_Weapon *,std::less<int>,std::allocator<std::pair<int const ,Raven_Weapon *> >,0> >,std::_Iterator_base12>::operator->
	cmp	DWORD PTR [eax+4], 0
	je	$LN1@RenderDesi

; 323  :       {
; 324  :         double score = curWeap->second->GetLastDesirabilityScore();

	lea	ecx, DWORD PTR _curWeap$[ebp]
	call	??C?$_Tree_unchecked_const_iterator@V?$_Tree_val@V?$_Tmap_traits@HPAVRaven_Weapon@@U?$less@H@std@@V?$allocator@U?$pair@$$CBHPAVRaven_Weapon@@@std@@@3@$0A@@std@@@std@@U_Iterator_base12@2@@std@@QBEPBU?$pair@$$CBHPAVRaven_Weapon@@@1@XZ ; std::_Tree_unchecked_const_iterator<std::_Tree_val<std::_Tmap_traits<int,Raven_Weapon *,std::less<int>,std::allocator<std::pair<int const ,Raven_Weapon *> >,0> >,std::_Iterator_base12>::operator->
	mov	ecx, DWORD PTR [eax+4]
	call	?GetLastDesirabilityScore@Raven_Weapon@@QBENXZ ; Raven_Weapon::GetLastDesirabilityScore
	fstp	QWORD PTR _score$137840[ebp]

; 325  :         std::string type = GetNameOfType(curWeap->second->GetType());

	lea	ecx, DWORD PTR _curWeap$[ebp]
	call	??C?$_Tree_unchecked_const_iterator@V?$_Tree_val@V?$_Tmap_traits@HPAVRaven_Weapon@@U?$less@H@std@@V?$allocator@U?$pair@$$CBHPAVRaven_Weapon@@@std@@@3@$0A@@std@@@std@@U_Iterator_base12@2@@std@@QBEPBU?$pair@$$CBHPAVRaven_Weapon@@@1@XZ ; std::_Tree_unchecked_const_iterator<std::_Tree_val<std::_Tmap_traits<int,Raven_Weapon *,std::less<int>,std::allocator<std::pair<int const ,Raven_Weapon *> >,0> >,std::_Iterator_base12>::operator->
	mov	ecx, DWORD PTR [eax+4]
	call	?GetType@Raven_Weapon@@QBEIXZ		; Raven_Weapon::GetType
	push	eax
	lea	eax, DWORD PTR _type$137841[ebp]
	push	eax
	call	?GetNameOfType@@YA?AV?$basic_string@DU?$char_traits@D@std@@V?$allocator@D@2@@std@@H@Z ; GetNameOfType
	add	esp, 8
	mov	BYTE PTR __$EHRec$[ebp+8], 5

; 326  : 
; 327  :         gdi->TextAtPos(p.x+10.0, p.y-offset, ttos(score) + " " + type);

	lea	ecx, DWORD PTR _type$137841[ebp]
	push	ecx
	push	OFFSET $SG137851
	push	2
	lea	edx, DWORD PTR _score$137840[ebp]
	push	edx
	lea	eax, DWORD PTR $T137848[ebp]
	push	eax
	call	??$ttos@N@@YA?AV?$basic_string@DU?$char_traits@D@std@@V?$allocator@D@2@@std@@ABNH@Z ; ttos<double>
	add	esp, 12					; 0000000cH
	mov	DWORD PTR tv201[ebp], eax
	mov	ecx, DWORD PTR tv201[ebp]
	mov	DWORD PTR tv256[ebp], ecx
	mov	BYTE PTR __$EHRec$[ebp+8], 6
	mov	edx, DWORD PTR tv256[ebp]
	push	edx
	lea	eax, DWORD PTR $T137849[ebp]
	push	eax
	call	??$?HDU?$char_traits@D@std@@V?$allocator@D@1@@std@@YA?AV?$basic_string@DU?$char_traits@D@std@@V?$allocator@D@2@@0@$$QAV10@PBD@Z ; std::operator+<char,std::char_traits<char>,std::allocator<char> >
	add	esp, 12					; 0000000cH
	mov	DWORD PTR tv264[ebp], eax
	mov	ecx, DWORD PTR tv264[ebp]
	mov	DWORD PTR tv258[ebp], ecx
	mov	BYTE PTR __$EHRec$[ebp+8], 7
	mov	edx, DWORD PTR tv258[ebp]
	push	edx
	lea	eax, DWORD PTR $T137850[ebp]
	push	eax
	call	??$?HDU?$char_traits@D@std@@V?$allocator@D@1@@std@@YA?AV?$basic_string@DU?$char_traits@D@std@@V?$allocator@D@2@@0@$$QAV10@ABV10@@Z ; std::operator+<char,std::char_traits<char>,std::allocator<char> >
	add	esp, 12					; 0000000cH
	mov	DWORD PTR tv265[ebp], eax
	mov	ecx, DWORD PTR tv265[ebp]
	mov	DWORD PTR tv260[ebp], ecx
	mov	BYTE PTR __$EHRec$[ebp+8], 8
	mov	edx, DWORD PTR tv260[ebp]
	push	edx
	fild	DWORD PTR _offset$[ebp]
	fsubr	QWORD PTR _p$[ebp+8]
	sub	esp, 8
	fstp	QWORD PTR [esp]
	fld	QWORD PTR _p$[ebp]
	fadd	QWORD PTR __real@4024000000000000
	sub	esp, 8
	fstp	QWORD PTR [esp]
	call	?Instance@Cgdi@@SAPAV1@XZ		; Cgdi::Instance
	mov	ecx, eax
	call	?TextAtPos@Cgdi@@QAEXNNABV?$basic_string@DU?$char_traits@D@std@@V?$allocator@D@2@@std@@@Z ; Cgdi::TextAtPos
	mov	BYTE PTR __$EHRec$[ebp+8], 7
	lea	ecx, DWORD PTR $T137850[ebp]
	call	??1?$basic_string@DU?$char_traits@D@std@@V?$allocator@D@2@@std@@QAE@XZ ; std::basic_string<char,std::char_traits<char>,std::allocator<char> >::~basic_string<char,std::char_traits<char>,std::allocator<char> >
	mov	BYTE PTR __$EHRec$[ebp+8], 6
	lea	ecx, DWORD PTR $T137849[ebp]
	call	??1?$basic_string@DU?$char_traits@D@std@@V?$allocator@D@2@@std@@QAE@XZ ; std::basic_string<char,std::char_traits<char>,std::allocator<char> >::~basic_string<char,std::char_traits<char>,std::allocator<char> >
	mov	BYTE PTR __$EHRec$[ebp+8], 5
	lea	ecx, DWORD PTR $T137848[ebp]
	call	??1?$basic_string@DU?$char_traits@D@std@@V?$allocator@D@2@@std@@QAE@XZ ; std::basic_string<char,std::char_traits<char>,std::allocator<char> >::~basic_string<char,std::char_traits<char>,std::allocator<char> >

; 328  : 
; 329  :         offset+=15;

	mov	eax, DWORD PTR _offset$[ebp]
	add	eax, 15					; 0000000fH
	mov	DWORD PTR _offset$[ebp], eax

; 330  :       }

	mov	BYTE PTR __$EHRec$[ebp+8], 0
	lea	ecx, DWORD PTR _type$137841[ebp]
	call	??1?$basic_string@DU?$char_traits@D@std@@V?$allocator@D@2@@std@@QAE@XZ ; std::basic_string<char,std::char_traits<char>,std::allocator<char> >::~basic_string<char,std::char_traits<char>,std::allocator<char> >
$LN1@RenderDesi:

; 331  :     }

	jmp	$LN3@RenderDesi
$LN2@RenderDesi:

; 332  : }

	mov	DWORD PTR __$EHRec$[ebp+8], -1
	lea	ecx, DWORD PTR _curWeap$[ebp]
	call	??1?$_Tree_const_iterator@V?$_Tree_val@V?$_Tmap_traits@HPAVRaven_Weapon@@U?$less@H@std@@V?$allocator@U?$pair@$$CBHPAVRaven_Weapon@@@std@@@3@$0A@@std@@@std@@@std@@QAE@XZ
	push	edx
	mov	ecx, ebp
	push	eax
	lea	edx, DWORD PTR $LN26@RenderDesi
	call	@_RTC_CheckStackVars@8
	pop	eax
	pop	edx
	mov	ecx, DWORD PTR __$EHRec$[ebp]
	mov	DWORD PTR fs:0, ecx
	pop	ecx
	pop	edi
	mov	ecx, DWORD PTR __$ArrayPad$[ebp]
	xor	ecx, ebp
	call	@__security_check_cookie@4
	add	esp, 336				; 00000150H
	cmp	ebp, esp
	call	__RTC_CheckEsp
	mov	esp, ebp
	pop	ebp
	ret	0
	npad	2
$LN26@RenderDesi:
	DD	4
	DD	$LN25@RenderDesi
$LN25@RenderDesi:
	DD	-40					; ffffffd8H
	DD	16					; 00000010H
	DD	$LN20@RenderDesi
	DD	-64					; ffffffc0H
	DD	12					; 0000000cH
	DD	$LN21@RenderDesi
	DD	-84					; ffffffacH
	DD	8
	DD	$LN22@RenderDesi
	DD	-124					; ffffff84H
	DD	32					; 00000020H
	DD	$LN23@RenderDesi
$LN23@RenderDesi:
	DB	116					; 00000074H
	DB	121					; 00000079H
	DB	112					; 00000070H
	DB	101					; 00000065H
	DB	0
$LN22@RenderDesi:
	DB	115					; 00000073H
	DB	99					; 00000063H
	DB	111					; 0000006fH
	DB	114					; 00000072H
	DB	101					; 00000065H
	DB	0
$LN21@RenderDesi:
	DB	99					; 00000063H
	DB	117					; 00000075H
	DB	114					; 00000072H
	DB	87					; 00000057H
	DB	101					; 00000065H
	DB	97					; 00000061H
	DB	112					; 00000070H
	DB	0
$LN20@RenderDesi:
	DB	112					; 00000070H
	DB	0
_TEXT	ENDS
text$x	SEGMENT
__unwindfunclet$?RenderDesirabilities@AbstWeaponSystem@@QBEXXZ$0:
	lea	ecx, DWORD PTR _curWeap$[ebp]
	jmp	??1?$_Tree_const_iterator@V?$_Tree_val@V?$_Tmap_traits@HPAVRaven_Weapon@@U?$less@H@std@@V?$allocator@U?$pair@$$CBHPAVRaven_Weapon@@@std@@@3@$0A@@std@@@std@@@std@@QAE@XZ
__unwindfunclet$?RenderDesirabilities@AbstWeaponSystem@@QBEXXZ$1:
	lea	ecx, DWORD PTR $T151054[ebp]
	jmp	??1?$_Tree_const_iterator@V?$_Tree_val@V?$_Tmap_traits@HPAVRaven_Weapon@@U?$less@H@std@@V?$allocator@U?$pair@$$CBHPAVRaven_Weapon@@@std@@@3@$0A@@std@@@std@@@std@@QAE@XZ
__unwindfunclet$?RenderDesirabilities@AbstWeaponSystem@@QBEXXZ$2:
	lea	ecx, DWORD PTR $T151056[ebp]
	jmp	??1?$_Tree_const_iterator@V?$_Tree_val@V?$_Tmap_traits@HPAVRaven_Weapon@@U?$less@H@std@@V?$allocator@U?$pair@$$CBHPAVRaven_Weapon@@@std@@@3@$0A@@std@@@std@@@std@@QAE@XZ
__unwindfunclet$?RenderDesirabilities@AbstWeaponSystem@@QBEXXZ$3:
	lea	ecx, DWORD PTR $T151057[ebp]
	jmp	??1?$_Tree_const_iterator@V?$_Tree_val@V?$_Tmap_traits@HPAVRaven_Weapon@@U?$less@H@std@@V?$allocator@U?$pair@$$CBHPAVRaven_Weapon@@@std@@@3@$0A@@std@@@std@@@std@@QAE@XZ
__unwindfunclet$?RenderDesirabilities@AbstWeaponSystem@@QBEXXZ$4:
	lea	ecx, DWORD PTR $T151059[ebp]
	jmp	??1?$_Tree_const_iterator@V?$_Tree_val@V?$_Tmap_traits@HPAVRaven_Weapon@@U?$less@H@std@@V?$allocator@U?$pair@$$CBHPAVRaven_Weapon@@@std@@@3@$0A@@std@@@std@@@std@@QAE@XZ
__unwindfunclet$?RenderDesirabilities@AbstWeaponSystem@@QBEXXZ$5:
	lea	ecx, DWORD PTR _type$137841[ebp]
	jmp	??1?$basic_string@DU?$char_traits@D@std@@V?$allocator@D@2@@std@@QAE@XZ ; std::basic_string<char,std::char_traits<char>,std::allocator<char> >::~basic_string<char,std::char_traits<char>,std::allocator<char> >
__unwindfunclet$?RenderDesirabilities@AbstWeaponSystem@@QBEXXZ$6:
	lea	ecx, DWORD PTR $T137848[ebp]
	jmp	??1?$basic_string@DU?$char_traits@D@std@@V?$allocator@D@2@@std@@QAE@XZ ; std::basic_string<char,std::char_traits<char>,std::allocator<char> >::~basic_string<char,std::char_traits<char>,std::allocator<char> >
__unwindfunclet$?RenderDesirabilities@AbstWeaponSystem@@QBEXXZ$7:
	lea	ecx, DWORD PTR $T137849[ebp]
	jmp	??1?$basic_string@DU?$char_traits@D@std@@V?$allocator@D@2@@std@@QAE@XZ ; std::basic_string<char,std::char_traits<char>,std::allocator<char> >::~basic_string<char,std::char_traits<char>,std::allocator<char> >
__unwindfunclet$?RenderDesirabilities@AbstWeaponSystem@@QBEXXZ$8:
	lea	ecx, DWORD PTR $T137850[ebp]
	jmp	??1?$basic_string@DU?$char_traits@D@std@@V?$allocator@D@2@@std@@QAE@XZ ; std::basic_string<char,std::char_traits<char>,std::allocator<char> >::~basic_string<char,std::char_traits<char>,std::allocator<char> >
__ehhandler$?RenderDesirabilities@AbstWeaponSystem@@QBEXXZ:
	mov	edx, DWORD PTR [esp+8]
	lea	eax, DWORD PTR [edx+12]
	mov	ecx, DWORD PTR [edx-332]
	xor	ecx, eax
	call	@__security_check_cookie@4
	mov	ecx, DWORD PTR [edx-4]
	xor	ecx, eax
	call	@__security_check_cookie@4
	mov	eax, OFFSET __ehfuncinfo$?RenderDesirabilities@AbstWeaponSystem@@QBEXXZ
	jmp	___CxxFrameHandler3
text$x	ENDS
?RenderDesirabilities@AbstWeaponSystem@@QBEXXZ ENDP	; AbstWeaponSystem::RenderDesirabilities
; Function compile flags: /Odtp /RTCsu
; File c:\users\teaja\documents\artificial-fun\labravenprojecttest\raven\armory\raven_weapon.h
;	COMDAT ?GetLastDesirabilityScore@Raven_Weapon@@QBENXZ
_TEXT	SEGMENT
_this$ = -4						; size = 4
?GetLastDesirabilityScore@Raven_Weapon@@QBENXZ PROC	; Raven_Weapon::GetLastDesirabilityScore, COMDAT
; _this$ = ecx

; 122  :   double         GetLastDesirabilityScore()const{return m_dLastDesirabilityScore;}

	push	ebp
	mov	ebp, esp
	push	ecx
	mov	DWORD PTR [ebp-4], -858993460		; ccccccccH
	mov	DWORD PTR _this$[ebp], ecx
	mov	eax, DWORD PTR _this$[ebp]
	fld	QWORD PTR [eax+80]
	mov	esp, ebp
	pop	ebp
	ret	0
?GetLastDesirabilityScore@Raven_Weapon@@QBENXZ ENDP	; Raven_Weapon::GetLastDesirabilityScore
_TEXT	ENDS
PUBLIC	??0?$basic_string@DU?$char_traits@D@std@@V?$allocator@D@2@@std@@QAE@$$QAV01@@Z ; std::basic_string<char,std::char_traits<char>,std::allocator<char> >::basic_string<char,std::char_traits<char>,std::allocator<char> >
PUBLIC	??_C@_0BE@DMMNKACB@UNKNOWN?5OBJECT?5TYPE?$AA@	; `string'
PUBLIC	??_C@_0N@FKJMDFJC@door_trigger?$AA@		; `string'
PUBLIC	??_C@_0N@POGFGIIH@sliding_door?$AA@		; `string'
PUBLIC	??_C@_03EHEMCPIE@bot?$AA@			; `string'
PUBLIC	??_C@_05BIPCPIBA@knife?$AA@			; `string'
PUBLIC	??_C@_07PKBOGMMP@shotgun?$AA@			; `string'
PUBLIC	??_C@_0BA@KLAKAPPA@rocket_launcher?$AA@		; `string'
PUBLIC	??_C@_07HHOBKAAD@Blaster?$AA@			; `string'
PUBLIC	??_C@_07NMJDHEIK@Railgun?$AA@			; `string'
PUBLIC	??_C@_0M@MJAOKDOC@Spawn?5Point?$AA@		; `string'
PUBLIC	??_C@_06GGDALCBD@Health?$AA@			; `string'
PUBLIC	??_C@_08BDKGKOJG@Obstacle?$AA@			; `string'
PUBLIC	??_C@_08DFAAPNDP@Waypoint?$AA@			; `string'
PUBLIC	??4?$basic_string@DU?$char_traits@D@std@@V?$allocator@D@2@@std@@QAEAAV01@PBD@Z ; std::basic_string<char,std::char_traits<char>,std::allocator<char> >::operator=
PUBLIC	??_C@_04LIPBJNLA@Wall?$AA@			; `string'
PUBLIC	??0?$basic_string@DU?$char_traits@D@std@@V?$allocator@D@2@@std@@QAE@XZ ; std::basic_string<char,std::char_traits<char>,std::allocator<char> >::basic_string<char,std::char_traits<char>,std::allocator<char> >
PUBLIC	__$ArrayPad$
;	COMDAT ??_C@_0BE@DMMNKACB@UNKNOWN?5OBJECT?5TYPE?$AA@
; File c:\users\teaja\documents\artificial-fun\labravenprojecttest\raven\raven_objectenumerations.h
CONST	SEGMENT
??_C@_0BE@DMMNKACB@UNKNOWN?5OBJECT?5TYPE?$AA@ DB 'UNKNOWN OBJECT TYPE', 00H ; `string'
CONST	ENDS
;	COMDAT ??_C@_0N@FKJMDFJC@door_trigger?$AA@
CONST	SEGMENT
??_C@_0N@FKJMDFJC@door_trigger?$AA@ DB 'door_trigger', 00H ; `string'
CONST	ENDS
;	COMDAT ??_C@_0N@POGFGIIH@sliding_door?$AA@
CONST	SEGMENT
??_C@_0N@POGFGIIH@sliding_door?$AA@ DB 'sliding_door', 00H ; `string'
CONST	ENDS
;	COMDAT ??_C@_03EHEMCPIE@bot?$AA@
CONST	SEGMENT
??_C@_03EHEMCPIE@bot?$AA@ DB 'bot', 00H			; `string'
CONST	ENDS
;	COMDAT ??_C@_05BIPCPIBA@knife?$AA@
CONST	SEGMENT
??_C@_05BIPCPIBA@knife?$AA@ DB 'knife', 00H		; `string'
CONST	ENDS
;	COMDAT ??_C@_07PKBOGMMP@shotgun?$AA@
CONST	SEGMENT
??_C@_07PKBOGMMP@shotgun?$AA@ DB 'shotgun', 00H		; `string'
CONST	ENDS
;	COMDAT ??_C@_0BA@KLAKAPPA@rocket_launcher?$AA@
CONST	SEGMENT
??_C@_0BA@KLAKAPPA@rocket_launcher?$AA@ DB 'rocket_launcher', 00H ; `string'
CONST	ENDS
;	COMDAT ??_C@_07HHOBKAAD@Blaster?$AA@
CONST	SEGMENT
??_C@_07HHOBKAAD@Blaster?$AA@ DB 'Blaster', 00H		; `string'
CONST	ENDS
;	COMDAT ??_C@_07NMJDHEIK@Railgun?$AA@
CONST	SEGMENT
??_C@_07NMJDHEIK@Railgun?$AA@ DB 'Railgun', 00H		; `string'
CONST	ENDS
;	COMDAT ??_C@_0M@MJAOKDOC@Spawn?5Point?$AA@
CONST	SEGMENT
??_C@_0M@MJAOKDOC@Spawn?5Point?$AA@ DB 'Spawn Point', 00H ; `string'
CONST	ENDS
;	COMDAT ??_C@_06GGDALCBD@Health?$AA@
CONST	SEGMENT
??_C@_06GGDALCBD@Health?$AA@ DB 'Health', 00H		; `string'
CONST	ENDS
;	COMDAT ??_C@_08BDKGKOJG@Obstacle?$AA@
CONST	SEGMENT
??_C@_08BDKGKOJG@Obstacle?$AA@ DB 'Obstacle', 00H	; `string'
CONST	ENDS
;	COMDAT ??_C@_08DFAAPNDP@Waypoint?$AA@
CONST	SEGMENT
??_C@_08DFAAPNDP@Waypoint?$AA@ DB 'Waypoint', 00H	; `string'
CONST	ENDS
;	COMDAT ??_C@_04LIPBJNLA@Wall?$AA@
CONST	SEGMENT
??_C@_04LIPBJNLA@Wall?$AA@ DB 'Wall', 00H		; `string'
CONST	ENDS
;	COMDAT xdata$x
xdata$x	SEGMENT
__unwindtable$?GetNameOfType@@YA?AV?$basic_string@DU?$char_traits@D@std@@V?$allocator@D@2@@std@@H@Z DD 0ffffffffH
	DD	FLAT:__unwindfunclet$?GetNameOfType@@YA?AV?$basic_string@DU?$char_traits@D@std@@V?$allocator@D@2@@std@@H@Z$1
	DD	00H
	DD	FLAT:__unwindfunclet$?GetNameOfType@@YA?AV?$basic_string@DU?$char_traits@D@std@@V?$allocator@D@2@@std@@H@Z$0
__ehfuncinfo$?GetNameOfType@@YA?AV?$basic_string@DU?$char_traits@D@std@@V?$allocator@D@2@@std@@H@Z DD 019930522H
	DD	02H
	DD	FLAT:__unwindtable$?GetNameOfType@@YA?AV?$basic_string@DU?$char_traits@D@std@@V?$allocator@D@2@@std@@H@Z
	DD	2 DUP(00H)
	DD	2 DUP(00H)
	DD	00H
	DD	01H
; Function compile flags: /Odtp /RTCsu
xdata$x	ENDS
;	COMDAT ?GetNameOfType@@YA?AV?$basic_string@DU?$char_traits@D@std@@V?$allocator@D@2@@std@@H@Z
_TEXT	SEGMENT
tv67 = -64						; size = 4
$T151087 = -60						; size = 4
_s$ = -52						; size = 32
__$ArrayPad$ = -16					; size = 4
__$EHRec$ = -12						; size = 12
___$ReturnUdt$ = 8					; size = 4
_w$ = 12						; size = 4
?GetNameOfType@@YA?AV?$basic_string@DU?$char_traits@D@std@@V?$allocator@D@2@@std@@H@Z PROC ; GetNameOfType, COMDAT

; 27   : {

	push	ebp
	mov	ebp, esp
	push	-1
	push	__ehhandler$?GetNameOfType@@YA?AV?$basic_string@DU?$char_traits@D@std@@V?$allocator@D@2@@std@@H@Z
	mov	eax, DWORD PTR fs:0
	push	eax
	sub	esp, 52					; 00000034H
	push	edi
	lea	edi, DWORD PTR [ebp-64]
	mov	ecx, 13					; 0000000dH
	mov	eax, -858993460				; ccccccccH
	rep stosd
	mov	eax, DWORD PTR ___security_cookie
	xor	eax, ebp
	mov	DWORD PTR __$ArrayPad$[ebp], eax
	push	eax
	lea	eax, DWORD PTR __$EHRec$[ebp]
	mov	DWORD PTR fs:0, eax
	mov	DWORD PTR $T151087[ebp], 0

; 28   :   std::string s;

	lea	ecx, DWORD PTR _s$[ebp]
	call	??0?$basic_string@DU?$char_traits@D@std@@V?$allocator@D@2@@std@@QAE@XZ ; std::basic_string<char,std::char_traits<char>,std::allocator<char> >::basic_string<char,std::char_traits<char>,std::allocator<char> >
	mov	DWORD PTR __$EHRec$[ebp+8], 1

; 29   :   
; 30   :   switch (w)

	mov	eax, DWORD PTR _w$[ebp]
	mov	DWORD PTR tv67[ebp], eax
	cmp	DWORD PTR tv67[ebp], 12			; 0000000cH
	ja	$LN1@GetNameOfT
	mov	ecx, DWORD PTR tv67[ebp]
	jmp	DWORD PTR $LN26@GetNameOfT[ecx*4]
$LN14@GetNameOfT:

; 31   :   {
; 32   :   case type_wall:
; 33   :     
; 34   :     s = "Wall"; break; 

	push	OFFSET ??_C@_04LIPBJNLA@Wall?$AA@
	lea	ecx, DWORD PTR _s$[ebp]
	call	??4?$basic_string@DU?$char_traits@D@std@@V?$allocator@D@2@@std@@QAEAAV01@PBD@Z ; std::basic_string<char,std::char_traits<char>,std::allocator<char> >::operator=
	jmp	$LN15@GetNameOfT
$LN13@GetNameOfT:

; 35   :     
; 36   :   case type_waypoint:
; 37   :     
; 38   :     s = "Waypoint"; break;

	push	OFFSET ??_C@_08DFAAPNDP@Waypoint?$AA@
	lea	ecx, DWORD PTR _s$[ebp]
	call	??4?$basic_string@DU?$char_traits@D@std@@V?$allocator@D@2@@std@@QAEAAV01@PBD@Z ; std::basic_string<char,std::char_traits<char>,std::allocator<char> >::operator=
	jmp	$LN15@GetNameOfT
$LN12@GetNameOfT:

; 39   : 
; 40   :   case type_obstacle:
; 41   :     
; 42   :     s = "Obstacle"; break;

	push	OFFSET ??_C@_08BDKGKOJG@Obstacle?$AA@
	lea	ecx, DWORD PTR _s$[ebp]
	call	??4?$basic_string@DU?$char_traits@D@std@@V?$allocator@D@2@@std@@QAEAAV01@PBD@Z ; std::basic_string<char,std::char_traits<char>,std::allocator<char> >::operator=
	jmp	$LN15@GetNameOfT
$LN11@GetNameOfT:

; 43   : 
; 44   :   case type_health:
; 45   :     
; 46   :     s = "Health"; break;

	push	OFFSET ??_C@_06GGDALCBD@Health?$AA@
	lea	ecx, DWORD PTR _s$[ebp]
	call	??4?$basic_string@DU?$char_traits@D@std@@V?$allocator@D@2@@std@@QAEAAV01@PBD@Z ; std::basic_string<char,std::char_traits<char>,std::allocator<char> >::operator=
	jmp	$LN15@GetNameOfT
$LN10@GetNameOfT:

; 47   : 
; 48   :   case type_spawn_point:
; 49   :     
; 50   :     s = "Spawn Point"; break;

	push	OFFSET ??_C@_0M@MJAOKDOC@Spawn?5Point?$AA@
	lea	ecx, DWORD PTR _s$[ebp]
	call	??4?$basic_string@DU?$char_traits@D@std@@V?$allocator@D@2@@std@@QAEAAV01@PBD@Z ; std::basic_string<char,std::char_traits<char>,std::allocator<char> >::operator=
	jmp	$LN15@GetNameOfT
$LN9@GetNameOfT:

; 51   : 
; 52   :   case type_rail_gun:
; 53   :     
; 54   :     s = "Railgun"; break;

	push	OFFSET ??_C@_07NMJDHEIK@Railgun?$AA@
	lea	ecx, DWORD PTR _s$[ebp]
	call	??4?$basic_string@DU?$char_traits@D@std@@V?$allocator@D@2@@std@@QAEAAV01@PBD@Z ; std::basic_string<char,std::char_traits<char>,std::allocator<char> >::operator=
	jmp	SHORT $LN15@GetNameOfT
$LN8@GetNameOfT:

; 55   : 
; 56   :   case type_blaster:
; 57   :     
; 58   :     s = "Blaster"; break;

	push	OFFSET ??_C@_07HHOBKAAD@Blaster?$AA@
	lea	ecx, DWORD PTR _s$[ebp]
	call	??4?$basic_string@DU?$char_traits@D@std@@V?$allocator@D@2@@std@@QAEAAV01@PBD@Z ; std::basic_string<char,std::char_traits<char>,std::allocator<char> >::operator=
	jmp	SHORT $LN15@GetNameOfT
$LN7@GetNameOfT:

; 59   : 
; 60   :   case type_rocket_launcher:
; 61   :     
; 62   :     s =  "rocket_launcher"; break;

	push	OFFSET ??_C@_0BA@KLAKAPPA@rocket_launcher?$AA@
	lea	ecx, DWORD PTR _s$[ebp]
	call	??4?$basic_string@DU?$char_traits@D@std@@V?$allocator@D@2@@std@@QAEAAV01@PBD@Z ; std::basic_string<char,std::char_traits<char>,std::allocator<char> >::operator=
	jmp	SHORT $LN15@GetNameOfT
$LN6@GetNameOfT:

; 63   : 
; 64   :   case type_shotgun:
; 65   :     
; 66   :     s =  "shotgun"; break;

	push	OFFSET ??_C@_07PKBOGMMP@shotgun?$AA@
	lea	ecx, DWORD PTR _s$[ebp]
	call	??4?$basic_string@DU?$char_traits@D@std@@V?$allocator@D@2@@std@@QAEAAV01@PBD@Z ; std::basic_string<char,std::char_traits<char>,std::allocator<char> >::operator=
	jmp	SHORT $LN15@GetNameOfT
$LN5@GetNameOfT:

; 67   : 
; 68   :   case type_unused:
; 69   :     
; 70   :     s =  "knife"; break;

	push	OFFSET ??_C@_05BIPCPIBA@knife?$AA@
	lea	ecx, DWORD PTR _s$[ebp]
	call	??4?$basic_string@DU?$char_traits@D@std@@V?$allocator@D@2@@std@@QAEAAV01@PBD@Z ; std::basic_string<char,std::char_traits<char>,std::allocator<char> >::operator=
	jmp	SHORT $LN15@GetNameOfT
$LN4@GetNameOfT:

; 71   : 
; 72   :   case type_bot:
; 73   :     
; 74   :     s =  "bot"; break;

	push	OFFSET ??_C@_03EHEMCPIE@bot?$AA@
	lea	ecx, DWORD PTR _s$[ebp]
	call	??4?$basic_string@DU?$char_traits@D@std@@V?$allocator@D@2@@std@@QAEAAV01@PBD@Z ; std::basic_string<char,std::char_traits<char>,std::allocator<char> >::operator=
	jmp	SHORT $LN15@GetNameOfT
$LN3@GetNameOfT:

; 75   : 
; 76   :   case type_sliding_door:
; 77   :     
; 78   :     s =  "sliding_door"; break;

	push	OFFSET ??_C@_0N@POGFGIIH@sliding_door?$AA@
	lea	ecx, DWORD PTR _s$[ebp]
	call	??4?$basic_string@DU?$char_traits@D@std@@V?$allocator@D@2@@std@@QAEAAV01@PBD@Z ; std::basic_string<char,std::char_traits<char>,std::allocator<char> >::operator=
	jmp	SHORT $LN15@GetNameOfT
$LN2@GetNameOfT:

; 79   :     
; 80   :   case type_door_trigger:
; 81   :     
; 82   :     s =  "door_trigger"; break;

	push	OFFSET ??_C@_0N@FKJMDFJC@door_trigger?$AA@
	lea	ecx, DWORD PTR _s$[ebp]
	call	??4?$basic_string@DU?$char_traits@D@std@@V?$allocator@D@2@@std@@QAEAAV01@PBD@Z ; std::basic_string<char,std::char_traits<char>,std::allocator<char> >::operator=
	jmp	SHORT $LN15@GetNameOfT
$LN1@GetNameOfT:

; 83   : 
; 84   :   default:
; 85   : 
; 86   :     s = "UNKNOWN OBJECT TYPE"; break;

	push	OFFSET ??_C@_0BE@DMMNKACB@UNKNOWN?5OBJECT?5TYPE?$AA@
	lea	ecx, DWORD PTR _s$[ebp]
	call	??4?$basic_string@DU?$char_traits@D@std@@V?$allocator@D@2@@std@@QAEAAV01@PBD@Z ; std::basic_string<char,std::char_traits<char>,std::allocator<char> >::operator=
$LN15@GetNameOfT:

; 87   : 
; 88   :   }
; 89   : 
; 90   :   return s;

	lea	edx, DWORD PTR _s$[ebp]
	push	edx
	mov	ecx, DWORD PTR ___$ReturnUdt$[ebp]
	call	??0?$basic_string@DU?$char_traits@D@std@@V?$allocator@D@2@@std@@QAE@$$QAV01@@Z ; std::basic_string<char,std::char_traits<char>,std::allocator<char> >::basic_string<char,std::char_traits<char>,std::allocator<char> >
	mov	eax, DWORD PTR $T151087[ebp]
	or	eax, 1
	mov	DWORD PTR $T151087[ebp], eax
	mov	BYTE PTR __$EHRec$[ebp+8], 0
	lea	ecx, DWORD PTR _s$[ebp]
	call	??1?$basic_string@DU?$char_traits@D@std@@V?$allocator@D@2@@std@@QAE@XZ ; std::basic_string<char,std::char_traits<char>,std::allocator<char> >::~basic_string<char,std::char_traits<char>,std::allocator<char> >
	mov	eax, DWORD PTR ___$ReturnUdt$[ebp]

; 91   : }

	push	edx
	mov	ecx, ebp
	push	eax
	lea	edx, DWORD PTR $LN25@GetNameOfT
	call	@_RTC_CheckStackVars@8
	pop	eax
	pop	edx
	mov	ecx, DWORD PTR __$EHRec$[ebp]
	mov	DWORD PTR fs:0, ecx
	pop	ecx
	pop	edi
	mov	ecx, DWORD PTR __$ArrayPad$[ebp]
	xor	ecx, ebp
	call	@__security_check_cookie@4
	add	esp, 64					; 00000040H
	cmp	ebp, esp
	call	__RTC_CheckEsp
	mov	esp, ebp
	pop	ebp
	ret	0
$LN25@GetNameOfT:
	DD	1
	DD	$LN24@GetNameOfT
$LN24@GetNameOfT:
	DD	-52					; ffffffccH
	DD	32					; 00000020H
	DD	$LN22@GetNameOfT
$LN22@GetNameOfT:
	DB	115					; 00000073H
	DB	0
	npad	2
$LN26@GetNameOfT:
	DD	$LN14@GetNameOfT
	DD	$LN4@GetNameOfT
	DD	$LN5@GetNameOfT
	DD	$LN13@GetNameOfT
	DD	$LN11@GetNameOfT
	DD	$LN10@GetNameOfT
	DD	$LN9@GetNameOfT
	DD	$LN7@GetNameOfT
	DD	$LN6@GetNameOfT
	DD	$LN8@GetNameOfT
	DD	$LN12@GetNameOfT
	DD	$LN3@GetNameOfT
	DD	$LN2@GetNameOfT
_TEXT	ENDS
;	COMDAT text$x
text$x	SEGMENT
__unwindfunclet$?GetNameOfType@@YA?AV?$basic_string@DU?$char_traits@D@std@@V?$allocator@D@2@@std@@H@Z$0:
	lea	ecx, DWORD PTR _s$[ebp]
	jmp	??1?$basic_string@DU?$char_traits@D@std@@V?$allocator@D@2@@std@@QAE@XZ ; std::basic_string<char,std::char_traits<char>,std::allocator<char> >::~basic_string<char,std::char_traits<char>,std::allocator<char> >
__unwindfunclet$?GetNameOfType@@YA?AV?$basic_string@DU?$char_traits@D@std@@V?$allocator@D@2@@std@@H@Z$1:
	mov	eax, DWORD PTR $T151087[ebp]
	and	eax, 1
	je	$LN21@GetNameOfT
	and	DWORD PTR $T151087[ebp], -2		; fffffffeH
	mov	ecx, DWORD PTR ___$ReturnUdt$[ebp]
	jmp	??1?$basic_string@DU?$char_traits@D@std@@V?$allocator@D@2@@std@@QAE@XZ ; std::basic_string<char,std::char_traits<char>,std::allocator<char> >::~basic_string<char,std::char_traits<char>,std::allocator<char> >
$LN21@GetNameOfT:
	ret	0
__ehhandler$?GetNameOfType@@YA?AV?$basic_string@DU?$char_traits@D@std@@V?$allocator@D@2@@std@@H@Z:
	mov	edx, DWORD PTR [esp+8]
	lea	eax, DWORD PTR [edx+12]
	mov	ecx, DWORD PTR [edx-60]
	xor	ecx, eax
	call	@__security_check_cookie@4
	mov	ecx, DWORD PTR [edx-4]
	xor	ecx, eax
	call	@__security_check_cookie@4
	mov	eax, OFFSET __ehfuncinfo$?GetNameOfType@@YA?AV?$basic_string@DU?$char_traits@D@std@@V?$allocator@D@2@@std@@H@Z
	jmp	___CxxFrameHandler3
text$x	ENDS
?GetNameOfType@@YA?AV?$basic_string@DU?$char_traits@D@std@@V?$allocator@D@2@@std@@H@Z ENDP ; GetNameOfType
PUBLIC	?c_str@?$basic_string@DU?$char_traits@D@std@@V?$allocator@D@2@@std@@QBEPBDXZ ; std::basic_string<char,std::char_traits<char>,std::allocator<char> >::c_str
PUBLIC	?size@?$basic_string@DU?$char_traits@D@std@@V?$allocator@D@2@@std@@QBEIXZ ; std::basic_string<char,std::char_traits<char>,std::allocator<char> >::size
EXTRN	__imp__TextOutA@20:PROC
EXTRN	__ftol2_sse:PROC
; Function compile flags: /Odtp /RTCsu
; File c:\users\teaja\documents\artificial-fun\labravenprojecttest\common\misc\cgdi.h
;	COMDAT ?TextAtPos@Cgdi@@QAEXNNABV?$basic_string@DU?$char_traits@D@std@@V?$allocator@D@2@@std@@@Z
_TEXT	SEGMENT
_this$ = -4						; size = 4
_x$ = 8							; size = 8
_y$ = 16						; size = 8
_s$ = 24						; size = 4
?TextAtPos@Cgdi@@QAEXNNABV?$basic_string@DU?$char_traits@D@std@@V?$allocator@D@2@@std@@@Z PROC ; Cgdi::TextAtPos, COMDAT
; _this$ = ecx

; 213  :   {

	push	ebp
	mov	ebp, esp
	push	ecx
	push	esi
	mov	DWORD PTR [ebp-4], -858993460		; ccccccccH
	mov	DWORD PTR _this$[ebp], ecx

; 214  :     TextOut(m_hdc, (int)x, (int)y, s.c_str(), (int)s.size());

	mov	ecx, DWORD PTR _s$[ebp]
	call	?size@?$basic_string@DU?$char_traits@D@std@@V?$allocator@D@2@@std@@QBEIXZ ; std::basic_string<char,std::char_traits<char>,std::allocator<char> >::size
	mov	esi, esp
	push	eax
	mov	ecx, DWORD PTR _s$[ebp]
	call	?c_str@?$basic_string@DU?$char_traits@D@std@@V?$allocator@D@2@@std@@QBEPBDXZ ; std::basic_string<char,std::char_traits<char>,std::allocator<char> >::c_str
	push	eax
	fld	QWORD PTR _y$[ebp]
	call	__ftol2_sse
	push	eax
	fld	QWORD PTR _x$[ebp]
	call	__ftol2_sse
	push	eax
	mov	eax, DWORD PTR _this$[ebp]
	mov	ecx, DWORD PTR [eax+124]
	push	ecx
	call	DWORD PTR __imp__TextOutA@20
	cmp	esi, esp
	call	__RTC_CheckEsp

; 215  :   }

	pop	esi
	add	esp, 4
	cmp	ebp, esp
	call	__RTC_CheckEsp
	mov	esp, ebp
	pop	ebp
	ret	20					; 00000014H
?TextAtPos@Cgdi@@QAEXNNABV?$basic_string@DU?$char_traits@D@std@@V?$allocator@D@2@@std@@@Z ENDP ; Cgdi::TextAtPos
_TEXT	ENDS
PUBLIC	??1?$_String_val@DV?$allocator@D@std@@@std@@QAE@XZ ; std::_String_val<char,std::allocator<char> >::~_String_val<char,std::allocator<char> >
PUBLIC	?_Tidy@?$basic_string@DU?$char_traits@D@std@@V?$allocator@D@2@@std@@QAEX_NI@Z ; std::basic_string<char,std::char_traits<char>,std::allocator<char> >::_Tidy
PUBLIC	??0?$_String_val@DV?$allocator@D@std@@@std@@QAE@V?$allocator@D@1@@Z ; std::_String_val<char,std::allocator<char> >::_String_val<char,std::allocator<char> >
PUBLIC	??0?$allocator@D@std@@QAE@XZ			; std::allocator<char>::allocator<char>
;	COMDAT xdata$x
; File c:\program files (x86)\microsoft visual studio 10.0\vc\include\xstring
xdata$x	SEGMENT
__unwindtable$??0?$basic_string@DU?$char_traits@D@std@@V?$allocator@D@2@@std@@QAE@XZ DD 0ffffffffH
	DD	FLAT:__unwindfunclet$??0?$basic_string@DU?$char_traits@D@std@@V?$allocator@D@2@@std@@QAE@XZ$0
__ehfuncinfo$??0?$basic_string@DU?$char_traits@D@std@@V?$allocator@D@2@@std@@QAE@XZ DD 019930522H
	DD	01H
	DD	FLAT:__unwindtable$??0?$basic_string@DU?$char_traits@D@std@@V?$allocator@D@2@@std@@QAE@XZ
	DD	2 DUP(00H)
	DD	2 DUP(00H)
	DD	00H
	DD	01H
; Function compile flags: /Odtp /RTCsu
xdata$x	ENDS
;	COMDAT ??0?$basic_string@DU?$char_traits@D@std@@V?$allocator@D@2@@std@@QAE@XZ
_TEXT	SEGMENT
$T151104 = -20						; size = 4
_this$ = -16						; size = 4
__$EHRec$ = -12						; size = 12
??0?$basic_string@DU?$char_traits@D@std@@V?$allocator@D@2@@std@@QAE@XZ PROC ; std::basic_string<char,std::char_traits<char>,std::allocator<char> >::basic_string<char,std::char_traits<char>,std::allocator<char> >, COMDAT
; _this$ = ecx

; 550  : 		{	// construct empty string

	push	ebp
	mov	ebp, esp
	push	-1
	push	__ehhandler$??0?$basic_string@DU?$char_traits@D@std@@V?$allocator@D@2@@std@@QAE@XZ
	mov	eax, DWORD PTR fs:0
	push	eax
	sub	esp, 8
	mov	DWORD PTR [ebp-20], -858993460		; ccccccccH
	mov	DWORD PTR [ebp-16], -858993460		; ccccccccH
	mov	eax, DWORD PTR ___security_cookie
	xor	eax, ebp
	push	eax
	lea	eax, DWORD PTR __$EHRec$[ebp]
	mov	DWORD PTR fs:0, eax
	mov	DWORD PTR _this$[ebp], ecx
	push	ecx
	mov	ecx, esp
	mov	DWORD PTR $T151104[ebp], esp
	call	??0?$allocator@D@std@@QAE@XZ		; std::allocator<char>::allocator<char>
	mov	ecx, DWORD PTR _this$[ebp]
	call	??0?$_String_val@DV?$allocator@D@std@@@std@@QAE@V?$allocator@D@1@@Z ; std::_String_val<char,std::allocator<char> >::_String_val<char,std::allocator<char> >
	mov	DWORD PTR __$EHRec$[ebp+8], 0

; 551  : 		_Tidy();

	push	0
	push	0
	mov	ecx, DWORD PTR _this$[ebp]
	call	?_Tidy@?$basic_string@DU?$char_traits@D@std@@V?$allocator@D@2@@std@@QAEX_NI@Z ; std::basic_string<char,std::char_traits<char>,std::allocator<char> >::_Tidy

; 552  : 		}

	mov	DWORD PTR __$EHRec$[ebp+8], -1
	mov	eax, DWORD PTR _this$[ebp]
	mov	ecx, DWORD PTR __$EHRec$[ebp]
	mov	DWORD PTR fs:0, ecx
	pop	ecx
	add	esp, 20					; 00000014H
	cmp	ebp, esp
	call	__RTC_CheckEsp
	mov	esp, ebp
	pop	ebp
	ret	0
_TEXT	ENDS
;	COMDAT text$x
text$x	SEGMENT
__unwindfunclet$??0?$basic_string@DU?$char_traits@D@std@@V?$allocator@D@2@@std@@QAE@XZ$0:
	mov	ecx, DWORD PTR _this$[ebp]
	jmp	??1?$_String_val@DV?$allocator@D@std@@@std@@QAE@XZ ; std::_String_val<char,std::allocator<char> >::~_String_val<char,std::allocator<char> >
__ehhandler$??0?$basic_string@DU?$char_traits@D@std@@V?$allocator@D@2@@std@@QAE@XZ:
	mov	edx, DWORD PTR [esp+8]
	lea	eax, DWORD PTR [edx+12]
	mov	ecx, DWORD PTR [edx-12]
	xor	ecx, eax
	call	@__security_check_cookie@4
	mov	eax, OFFSET __ehfuncinfo$??0?$basic_string@DU?$char_traits@D@std@@V?$allocator@D@2@@std@@QAE@XZ
	jmp	___CxxFrameHandler3
text$x	ENDS
??0?$basic_string@DU?$char_traits@D@std@@V?$allocator@D@2@@std@@QAE@XZ ENDP ; std::basic_string<char,std::char_traits<char>,std::allocator<char> >::basic_string<char,std::char_traits<char>,std::allocator<char> >
PUBLIC	?assign@?$basic_string@DU?$char_traits@D@std@@V?$allocator@D@2@@std@@QAEAAV12@$$QAV12@@Z ; std::basic_string<char,std::char_traits<char>,std::allocator<char> >::assign
PUBLIC	??$forward@V?$basic_string@DU?$char_traits@D@std@@V?$allocator@D@2@@std@@@std@@YA$$QAV?$basic_string@DU?$char_traits@D@std@@V?$allocator@D@2@@0@AAV10@@Z ; std::forward<std::basic_string<char,std::char_traits<char>,std::allocator<char> > >
PUBLIC	??0?$allocator@D@std@@QAE@ABV01@@Z		; std::allocator<char>::allocator<char>
PUBLIC	??$forward@V?$allocator@D@std@@@std@@YA$$QAV?$allocator@D@0@AAV10@@Z ; std::forward<std::allocator<char> >
;	COMDAT xdata$x
xdata$x	SEGMENT
__unwindtable$??0?$basic_string@DU?$char_traits@D@std@@V?$allocator@D@2@@std@@QAE@$$QAV01@@Z DD 0ffffffffH
	DD	FLAT:__unwindfunclet$??0?$basic_string@DU?$char_traits@D@std@@V?$allocator@D@2@@std@@QAE@$$QAV01@@Z$0
__ehfuncinfo$??0?$basic_string@DU?$char_traits@D@std@@V?$allocator@D@2@@std@@QAE@$$QAV01@@Z DD 019930522H
	DD	01H
	DD	FLAT:__unwindtable$??0?$basic_string@DU?$char_traits@D@std@@V?$allocator@D@2@@std@@QAE@$$QAV01@@Z
	DD	2 DUP(00H)
	DD	2 DUP(00H)
	DD	00H
	DD	01H
; Function compile flags: /Odtp /RTCsu
xdata$x	ENDS
;	COMDAT ??0?$basic_string@DU?$char_traits@D@std@@V?$allocator@D@2@@std@@QAE@$$QAV01@@Z
_TEXT	SEGMENT
$T151114 = -20						; size = 4
_this$ = -16						; size = 4
__$EHRec$ = -12						; size = 12
__Right$ = 8						; size = 4
??0?$basic_string@DU?$char_traits@D@std@@V?$allocator@D@2@@std@@QAE@$$QAV01@@Z PROC ; std::basic_string<char,std::char_traits<char>,std::allocator<char> >::basic_string<char,std::char_traits<char>,std::allocator<char> >, COMDAT
; _this$ = ecx

; 702  : 		{	// construct by moving _Right

	push	ebp
	mov	ebp, esp
	push	-1
	push	__ehhandler$??0?$basic_string@DU?$char_traits@D@std@@V?$allocator@D@2@@std@@QAE@$$QAV01@@Z
	mov	eax, DWORD PTR fs:0
	push	eax
	sub	esp, 8
	mov	DWORD PTR [ebp-20], -858993460		; ccccccccH
	mov	DWORD PTR [ebp-16], -858993460		; ccccccccH
	mov	eax, DWORD PTR ___security_cookie
	xor	eax, ebp
	push	eax
	lea	eax, DWORD PTR __$EHRec$[ebp]
	mov	DWORD PTR fs:0, eax
	mov	DWORD PTR _this$[ebp], ecx
	mov	eax, DWORD PTR __Right$[ebp]
	add	eax, 28					; 0000001cH
	push	eax
	call	??$forward@V?$allocator@D@std@@@std@@YA$$QAV?$allocator@D@0@AAV10@@Z ; std::forward<std::allocator<char> >
	mov	ecx, esp
	mov	DWORD PTR $T151114[ebp], esp
	push	eax
	call	??0?$allocator@D@std@@QAE@ABV01@@Z	; std::allocator<char>::allocator<char>
	mov	ecx, DWORD PTR _this$[ebp]
	call	??0?$_String_val@DV?$allocator@D@std@@@std@@QAE@V?$allocator@D@1@@Z ; std::_String_val<char,std::allocator<char> >::_String_val<char,std::allocator<char> >
	mov	DWORD PTR __$EHRec$[ebp+8], 0

; 703  : 		_Tidy();

	push	0
	push	0
	mov	ecx, DWORD PTR _this$[ebp]
	call	?_Tidy@?$basic_string@DU?$char_traits@D@std@@V?$allocator@D@2@@std@@QAEX_NI@Z ; std::basic_string<char,std::char_traits<char>,std::allocator<char> >::_Tidy

; 704  : 		assign(_STD forward<_Myt>(_Right));

	mov	ecx, DWORD PTR __Right$[ebp]
	push	ecx
	call	??$forward@V?$basic_string@DU?$char_traits@D@std@@V?$allocator@D@2@@std@@@std@@YA$$QAV?$basic_string@DU?$char_traits@D@std@@V?$allocator@D@2@@0@AAV10@@Z ; std::forward<std::basic_string<char,std::char_traits<char>,std::allocator<char> > >
	add	esp, 4
	push	eax
	mov	ecx, DWORD PTR _this$[ebp]
	call	?assign@?$basic_string@DU?$char_traits@D@std@@V?$allocator@D@2@@std@@QAEAAV12@$$QAV12@@Z ; std::basic_string<char,std::char_traits<char>,std::allocator<char> >::assign

; 705  : 		}

	mov	DWORD PTR __$EHRec$[ebp+8], -1
	mov	eax, DWORD PTR _this$[ebp]
	mov	ecx, DWORD PTR __$EHRec$[ebp]
	mov	DWORD PTR fs:0, ecx
	pop	ecx
	add	esp, 20					; 00000014H
	cmp	ebp, esp
	call	__RTC_CheckEsp
	mov	esp, ebp
	pop	ebp
	ret	4
_TEXT	ENDS
;	COMDAT text$x
text$x	SEGMENT
__unwindfunclet$??0?$basic_string@DU?$char_traits@D@std@@V?$allocator@D@2@@std@@QAE@$$QAV01@@Z$0:
	mov	ecx, DWORD PTR _this$[ebp]
	jmp	??1?$_String_val@DV?$allocator@D@std@@@std@@QAE@XZ ; std::_String_val<char,std::allocator<char> >::~_String_val<char,std::allocator<char> >
__ehhandler$??0?$basic_string@DU?$char_traits@D@std@@V?$allocator@D@2@@std@@QAE@$$QAV01@@Z:
	mov	edx, DWORD PTR [esp+8]
	lea	eax, DWORD PTR [edx+12]
	mov	ecx, DWORD PTR [edx-12]
	xor	ecx, eax
	call	@__security_check_cookie@4
	mov	eax, OFFSET __ehfuncinfo$??0?$basic_string@DU?$char_traits@D@std@@V?$allocator@D@2@@std@@QAE@$$QAV01@@Z
	jmp	___CxxFrameHandler3
text$x	ENDS
??0?$basic_string@DU?$char_traits@D@std@@V?$allocator@D@2@@std@@QAE@$$QAV01@@Z ENDP ; std::basic_string<char,std::char_traits<char>,std::allocator<char> >::basic_string<char,std::char_traits<char>,std::allocator<char> >
;	COMDAT xdata$x
xdata$x	SEGMENT
__unwindtable$??1?$basic_string@DU?$char_traits@D@std@@V?$allocator@D@2@@std@@QAE@XZ DD 0ffffffffH
	DD	FLAT:__unwindfunclet$??1?$basic_string@DU?$char_traits@D@std@@V?$allocator@D@2@@std@@QAE@XZ$0
__ehfuncinfo$??1?$basic_string@DU?$char_traits@D@std@@V?$allocator@D@2@@std@@QAE@XZ DD 019930522H
	DD	01H
	DD	FLAT:__unwindtable$??1?$basic_string@DU?$char_traits@D@std@@V?$allocator@D@2@@std@@QAE@XZ
	DD	2 DUP(00H)
	DD	2 DUP(00H)
	DD	00H
	DD	01H
; Function compile flags: /Odtp /RTCsu
xdata$x	ENDS
;	COMDAT ??1?$basic_string@DU?$char_traits@D@std@@V?$allocator@D@2@@std@@QAE@XZ
_TEXT	SEGMENT
_this$ = -16						; size = 4
__$EHRec$ = -12						; size = 12
??1?$basic_string@DU?$char_traits@D@std@@V?$allocator@D@2@@std@@QAE@XZ PROC ; std::basic_string<char,std::char_traits<char>,std::allocator<char> >::~basic_string<char,std::char_traits<char>,std::allocator<char> >, COMDAT
; _this$ = ecx

; 752  : 		{	// destroy the string

	push	ebp
	mov	ebp, esp
	push	-1
	push	__ehhandler$??1?$basic_string@DU?$char_traits@D@std@@V?$allocator@D@2@@std@@QAE@XZ
	mov	eax, DWORD PTR fs:0
	push	eax
	push	ecx
	mov	DWORD PTR [ebp-16], -858993460		; ccccccccH
	mov	eax, DWORD PTR ___security_cookie
	xor	eax, ebp
	push	eax
	lea	eax, DWORD PTR __$EHRec$[ebp]
	mov	DWORD PTR fs:0, eax
	mov	DWORD PTR _this$[ebp], ecx
	mov	DWORD PTR __$EHRec$[ebp+8], 0

; 753  : 		_Tidy(true);

	push	0
	push	1
	mov	ecx, DWORD PTR _this$[ebp]
	call	?_Tidy@?$basic_string@DU?$char_traits@D@std@@V?$allocator@D@2@@std@@QAEX_NI@Z ; std::basic_string<char,std::char_traits<char>,std::allocator<char> >::_Tidy

; 754  : 		}

	mov	DWORD PTR __$EHRec$[ebp+8], -1
	mov	ecx, DWORD PTR _this$[ebp]
	call	??1?$_String_val@DV?$allocator@D@std@@@std@@QAE@XZ ; std::_String_val<char,std::allocator<char> >::~_String_val<char,std::allocator<char> >
	mov	ecx, DWORD PTR __$EHRec$[ebp]
	mov	DWORD PTR fs:0, ecx
	pop	ecx
	add	esp, 16					; 00000010H
	cmp	ebp, esp
	call	__RTC_CheckEsp
	mov	esp, ebp
	pop	ebp
	ret	0
_TEXT	ENDS
;	COMDAT text$x
text$x	SEGMENT
__unwindfunclet$??1?$basic_string@DU?$char_traits@D@std@@V?$allocator@D@2@@std@@QAE@XZ$0:
	mov	ecx, DWORD PTR _this$[ebp]
	jmp	??1?$_String_val@DV?$allocator@D@std@@@std@@QAE@XZ ; std::_String_val<char,std::allocator<char> >::~_String_val<char,std::allocator<char> >
__ehhandler$??1?$basic_string@DU?$char_traits@D@std@@V?$allocator@D@2@@std@@QAE@XZ:
	mov	edx, DWORD PTR [esp+8]
	lea	eax, DWORD PTR [edx+12]
	mov	ecx, DWORD PTR [edx-8]
	xor	ecx, eax
	call	@__security_check_cookie@4
	mov	eax, OFFSET __ehfuncinfo$??1?$basic_string@DU?$char_traits@D@std@@V?$allocator@D@2@@std@@QAE@XZ
	jmp	___CxxFrameHandler3
text$x	ENDS
??1?$basic_string@DU?$char_traits@D@std@@V?$allocator@D@2@@std@@QAE@XZ ENDP ; std::basic_string<char,std::char_traits<char>,std::allocator<char> >::~basic_string<char,std::char_traits<char>,std::allocator<char> >
PUBLIC	?assign@?$basic_string@DU?$char_traits@D@std@@V?$allocator@D@2@@std@@QAEAAV12@PBD@Z ; std::basic_string<char,std::char_traits<char>,std::allocator<char> >::assign
; Function compile flags: /Odtp /RTCsu
;	COMDAT ??4?$basic_string@DU?$char_traits@D@std@@V?$allocator@D@2@@std@@QAEAAV01@PBD@Z
_TEXT	SEGMENT
_this$ = -4						; size = 4
__Ptr$ = 8						; size = 4
??4?$basic_string@DU?$char_traits@D@std@@V?$allocator@D@2@@std@@QAEAAV01@PBD@Z PROC ; std::basic_string<char,std::char_traits<char>,std::allocator<char> >::operator=, COMDAT
; _this$ = ecx

; 767  : 		{	// assign [_Ptr, <null>)

	push	ebp
	mov	ebp, esp
	push	ecx
	mov	DWORD PTR [ebp-4], -858993460		; ccccccccH
	mov	DWORD PTR _this$[ebp], ecx

; 768  : 		return (assign(_Ptr));

	mov	eax, DWORD PTR __Ptr$[ebp]
	push	eax
	mov	ecx, DWORD PTR _this$[ebp]
	call	?assign@?$basic_string@DU?$char_traits@D@std@@V?$allocator@D@2@@std@@QAEAAV12@PBD@Z ; std::basic_string<char,std::char_traits<char>,std::allocator<char> >::assign

; 769  : 		}

	add	esp, 4
	cmp	ebp, esp
	call	__RTC_CheckEsp
	mov	esp, ebp
	pop	ebp
	ret	4
??4?$basic_string@DU?$char_traits@D@std@@V?$allocator@D@2@@std@@QAEAAV01@PBD@Z ENDP ; std::basic_string<char,std::char_traits<char>,std::allocator<char> >::operator=
_TEXT	ENDS
PUBLIC	?_Myptr@?$basic_string@DU?$char_traits@D@std@@V?$allocator@D@2@@std@@QBEPBDXZ ; std::basic_string<char,std::char_traits<char>,std::allocator<char> >::_Myptr
; Function compile flags: /Odtp /RTCsu
;	COMDAT ?c_str@?$basic_string@DU?$char_traits@D@std@@V?$allocator@D@2@@std@@QBEPBDXZ
_TEXT	SEGMENT
_this$ = -4						; size = 4
?c_str@?$basic_string@DU?$char_traits@D@std@@V?$allocator@D@2@@std@@QBEPBDXZ PROC ; std::basic_string<char,std::char_traits<char>,std::allocator<char> >::c_str, COMDAT
; _this$ = ecx

; 1495 : 		{	// return pointer to null-terminated nonmutable array

	push	ebp
	mov	ebp, esp
	push	ecx
	mov	DWORD PTR [ebp-4], -858993460		; ccccccccH
	mov	DWORD PTR _this$[ebp], ecx

; 1496 : 		return (_Myptr());

	mov	ecx, DWORD PTR _this$[ebp]
	call	?_Myptr@?$basic_string@DU?$char_traits@D@std@@V?$allocator@D@2@@std@@QBEPBDXZ ; std::basic_string<char,std::char_traits<char>,std::allocator<char> >::_Myptr

; 1497 : 		}

	add	esp, 4
	cmp	ebp, esp
	call	__RTC_CheckEsp
	mov	esp, ebp
	pop	ebp
	ret	0
?c_str@?$basic_string@DU?$char_traits@D@std@@V?$allocator@D@2@@std@@QBEPBDXZ ENDP ; std::basic_string<char,std::char_traits<char>,std::allocator<char> >::c_str
; Function compile flags: /Odtp /RTCsu
_TEXT	ENDS
;	COMDAT ?size@?$basic_string@DU?$char_traits@D@std@@V?$allocator@D@2@@std@@QBEIXZ
_TEXT	SEGMENT
_this$ = -4						; size = 4
?size@?$basic_string@DU?$char_traits@D@std@@V?$allocator@D@2@@std@@QBEIXZ PROC ; std::basic_string<char,std::char_traits<char>,std::allocator<char> >::size, COMDAT
; _this$ = ecx

; 1510 : 		{	// return length of sequence

	push	ebp
	mov	ebp, esp
	push	ecx
	mov	DWORD PTR [ebp-4], -858993460		; ccccccccH
	mov	DWORD PTR _this$[ebp], ecx

; 1511 : 		return (this->_Mysize);

	mov	eax, DWORD PTR _this$[ebp]
	mov	eax, DWORD PTR [eax+20]

; 1512 : 		}

	mov	esp, ebp
	pop	ebp
	ret	0
?size@?$basic_string@DU?$char_traits@D@std@@V?$allocator@D@2@@std@@QBEIXZ ENDP ; std::basic_string<char,std::char_traits<char>,std::allocator<char> >::size
_TEXT	ENDS
PUBLIC	??0?$_Tree@V?$_Tmap_traits@HPAVRaven_Weapon@@U?$less@H@std@@V?$allocator@U?$pair@$$CBHPAVRaven_Weapon@@@std@@@3@$0A@@std@@@std@@QAE@ABU?$less@H@1@ABV?$allocator@U?$pair@$$CBHPAVRaven_Weapon@@@std@@@1@@Z ; std::_Tree<std::_Tmap_traits<int,Raven_Weapon *,std::less<int>,std::allocator<std::pair<int const ,Raven_Weapon *> >,0> >::_Tree<std::_Tmap_traits<int,Raven_Weapon *,std::less<int>,std::allocator<std::pair<int const ,Raven_Weapon *> >,0> >
PUBLIC	??0?$allocator@U?$pair@$$CBHPAVRaven_Weapon@@@std@@@std@@QAE@XZ ; std::allocator<std::pair<int const ,Raven_Weapon *> >::allocator<std::pair<int const ,Raven_Weapon *> >
; Function compile flags: /Odtp /RTCsu
; File c:\program files (x86)\microsoft visual studio 10.0\vc\include\map
;	COMDAT ??0?$map@HPAVRaven_Weapon@@U?$less@H@std@@V?$allocator@U?$pair@$$CBHPAVRaven_Weapon@@@std@@@3@@std@@QAE@XZ
_TEXT	SEGMENT
$T151140 = -6						; size = 1
$T151139 = -5						; size = 1
_this$ = -4						; size = 4
??0?$map@HPAVRaven_Weapon@@U?$less@H@std@@V?$allocator@U?$pair@$$CBHPAVRaven_Weapon@@@std@@@3@@std@@QAE@XZ PROC ; std::map<int,Raven_Weapon *,std::less<int>,std::allocator<std::pair<int const ,Raven_Weapon *> > >::map<int,Raven_Weapon *,std::less<int>,std::allocator<std::pair<int const ,Raven_Weapon *> > >, COMDAT
; _this$ = ecx

; 106  : 		{	// construct empty map from defaults

	push	ebp
	mov	ebp, esp
	sub	esp, 8
	mov	DWORD PTR [ebp-8], -858993460		; ccccccccH
	mov	DWORD PTR [ebp-4], -858993460		; ccccccccH
	mov	DWORD PTR _this$[ebp], ecx
	lea	ecx, DWORD PTR $T151139[ebp]
	call	??0?$allocator@U?$pair@$$CBHPAVRaven_Weapon@@@std@@@std@@QAE@XZ ; std::allocator<std::pair<int const ,Raven_Weapon *> >::allocator<std::pair<int const ,Raven_Weapon *> >
	push	eax
	lea	eax, DWORD PTR $T151140[ebp]
	push	eax
	mov	ecx, DWORD PTR _this$[ebp]
	call	??0?$_Tree@V?$_Tmap_traits@HPAVRaven_Weapon@@U?$less@H@std@@V?$allocator@U?$pair@$$CBHPAVRaven_Weapon@@@std@@@3@$0A@@std@@@std@@QAE@ABU?$less@H@1@ABV?$allocator@U?$pair@$$CBHPAVRaven_Weapon@@@std@@@1@@Z ; std::_Tree<std::_Tmap_traits<int,Raven_Weapon *,std::less<int>,std::allocator<std::pair<int const ,Raven_Weapon *> >,0> >::_Tree<std::_Tmap_traits<int,Raven_Weapon *,std::less<int>,std::allocator<std::pair<int const ,Raven_Weapon *> >,0> >

; 107  : 		}

	mov	eax, DWORD PTR _this$[ebp]
	add	esp, 8
	cmp	ebp, esp
	call	__RTC_CheckEsp
	mov	esp, ebp
	pop	ebp
	ret	0
??0?$map@HPAVRaven_Weapon@@U?$less@H@std@@V?$allocator@U?$pair@$$CBHPAVRaven_Weapon@@@std@@@3@@std@@QAE@XZ ENDP ; std::map<int,Raven_Weapon *,std::less<int>,std::allocator<std::pair<int const ,Raven_Weapon *> > >::map<int,Raven_Weapon *,std::less<int>,std::allocator<std::pair<int const ,Raven_Weapon *> > >
_TEXT	ENDS
PUBLIC	??D?$_Tree_iterator@V?$_Tree_val@V?$_Tmap_traits@HPAVRaven_Weapon@@U?$less@H@std@@V?$allocator@U?$pair@$$CBHPAVRaven_Weapon@@@std@@@3@$0A@@std@@@std@@@std@@QBEAAU?$pair@$$CBHPAVRaven_Weapon@@@1@XZ ; std::_Tree_iterator<std::_Tree_val<std::_Tmap_traits<int,Raven_Weapon *,std::less<int>,std::allocator<std::pair<int const ,Raven_Weapon *> >,0> > >::operator*
