; Listing generated by Microsoft (R) Optimizing Compiler Version 16.00.40219.01 

	TITLE	C:\Users\Teaja\Documents\Artificial-Fun\LabRavenProjectTest\Raven\Bots\ETBot\ET_WeaponSystem.cpp
	.686P
	.XMM
	include listing.inc
	.model	flat

INCLUDELIB LIBCMTD
INCLUDELIB OLDNAMES

PUBLIC	?has_denorm@_Num_base@std@@2W4float_denorm_style@2@B ; std::_Num_base::has_denorm
PUBLIC	?has_denorm_loss@_Num_base@std@@2_NB		; std::_Num_base::has_denorm_loss
PUBLIC	?has_infinity@_Num_base@std@@2_NB		; std::_Num_base::has_infinity
PUBLIC	?has_quiet_NaN@_Num_base@std@@2_NB		; std::_Num_base::has_quiet_NaN
PUBLIC	?has_signaling_NaN@_Num_base@std@@2_NB		; std::_Num_base::has_signaling_NaN
PUBLIC	?is_bounded@_Num_base@std@@2_NB			; std::_Num_base::is_bounded
PUBLIC	?is_exact@_Num_base@std@@2_NB			; std::_Num_base::is_exact
PUBLIC	?is_iec559@_Num_base@std@@2_NB			; std::_Num_base::is_iec559
PUBLIC	?is_integer@_Num_base@std@@2_NB			; std::_Num_base::is_integer
PUBLIC	?is_modulo@_Num_base@std@@2_NB			; std::_Num_base::is_modulo
PUBLIC	?is_signed@_Num_base@std@@2_NB			; std::_Num_base::is_signed
PUBLIC	?is_specialized@_Num_base@std@@2_NB		; std::_Num_base::is_specialized
PUBLIC	?tinyness_before@_Num_base@std@@2_NB		; std::_Num_base::tinyness_before
PUBLIC	?traps@_Num_base@std@@2_NB			; std::_Num_base::traps
PUBLIC	?round_style@_Num_base@std@@2W4float_round_style@2@B ; std::_Num_base::round_style
PUBLIC	?digits@_Num_base@std@@2HB			; std::_Num_base::digits
PUBLIC	?digits10@_Num_base@std@@2HB			; std::_Num_base::digits10
PUBLIC	?max_digits10@_Num_base@std@@2HB		; std::_Num_base::max_digits10
PUBLIC	?max_exponent@_Num_base@std@@2HB		; std::_Num_base::max_exponent
PUBLIC	?max_exponent10@_Num_base@std@@2HB		; std::_Num_base::max_exponent10
PUBLIC	?min_exponent@_Num_base@std@@2HB		; std::_Num_base::min_exponent
PUBLIC	?min_exponent10@_Num_base@std@@2HB		; std::_Num_base::min_exponent10
PUBLIC	?radix@_Num_base@std@@2HB			; std::_Num_base::radix
PUBLIC	?is_bounded@_Num_int_base@std@@2_NB		; std::_Num_int_base::is_bounded
PUBLIC	?is_exact@_Num_int_base@std@@2_NB		; std::_Num_int_base::is_exact
PUBLIC	?is_integer@_Num_int_base@std@@2_NB		; std::_Num_int_base::is_integer
PUBLIC	?is_modulo@_Num_int_base@std@@2_NB		; std::_Num_int_base::is_modulo
PUBLIC	?is_specialized@_Num_int_base@std@@2_NB		; std::_Num_int_base::is_specialized
PUBLIC	?radix@_Num_int_base@std@@2HB			; std::_Num_int_base::radix
PUBLIC	?has_denorm@_Num_float_base@std@@2W4float_denorm_style@2@B ; std::_Num_float_base::has_denorm
PUBLIC	?has_denorm_loss@_Num_float_base@std@@2_NB	; std::_Num_float_base::has_denorm_loss
PUBLIC	?has_infinity@_Num_float_base@std@@2_NB		; std::_Num_float_base::has_infinity
PUBLIC	?has_quiet_NaN@_Num_float_base@std@@2_NB	; std::_Num_float_base::has_quiet_NaN
PUBLIC	?has_signaling_NaN@_Num_float_base@std@@2_NB	; std::_Num_float_base::has_signaling_NaN
PUBLIC	?is_bounded@_Num_float_base@std@@2_NB		; std::_Num_float_base::is_bounded
PUBLIC	?is_exact@_Num_float_base@std@@2_NB		; std::_Num_float_base::is_exact
PUBLIC	?is_iec559@_Num_float_base@std@@2_NB		; std::_Num_float_base::is_iec559
PUBLIC	?is_integer@_Num_float_base@std@@2_NB		; std::_Num_float_base::is_integer
PUBLIC	?is_modulo@_Num_float_base@std@@2_NB		; std::_Num_float_base::is_modulo
PUBLIC	?is_signed@_Num_float_base@std@@2_NB		; std::_Num_float_base::is_signed
PUBLIC	?is_specialized@_Num_float_base@std@@2_NB	; std::_Num_float_base::is_specialized
PUBLIC	?tinyness_before@_Num_float_base@std@@2_NB	; std::_Num_float_base::tinyness_before
PUBLIC	?traps@_Num_float_base@std@@2_NB		; std::_Num_float_base::traps
PUBLIC	?round_style@_Num_float_base@std@@2W4float_round_style@2@B ; std::_Num_float_base::round_style
PUBLIC	?radix@_Num_float_base@std@@2HB			; std::_Num_float_base::radix
PUBLIC	?is_signed@?$numeric_limits@D@std@@2_NB		; std::numeric_limits<char>::is_signed
PUBLIC	?digits@?$numeric_limits@D@std@@2HB		; std::numeric_limits<char>::digits
PUBLIC	?digits10@?$numeric_limits@D@std@@2HB		; std::numeric_limits<char>::digits10
PUBLIC	?max_digits10@?$numeric_limits@D@std@@2HB	; std::numeric_limits<char>::max_digits10
PUBLIC	?is_signed@?$numeric_limits@_W@std@@2_NB	; std::numeric_limits<wchar_t>::is_signed
PUBLIC	?digits@?$numeric_limits@_W@std@@2HB		; std::numeric_limits<wchar_t>::digits
PUBLIC	?digits10@?$numeric_limits@_W@std@@2HB		; std::numeric_limits<wchar_t>::digits10
PUBLIC	?max_digits10@?$numeric_limits@_W@std@@2HB	; std::numeric_limits<wchar_t>::max_digits10
PUBLIC	?is_modulo@?$numeric_limits@_N@std@@2_NB	; std::numeric_limits<bool>::is_modulo
PUBLIC	?is_signed@?$numeric_limits@_N@std@@2_NB	; std::numeric_limits<bool>::is_signed
PUBLIC	?digits@?$numeric_limits@_N@std@@2HB		; std::numeric_limits<bool>::digits
PUBLIC	?digits10@?$numeric_limits@_N@std@@2HB		; std::numeric_limits<bool>::digits10
PUBLIC	?max_digits10@?$numeric_limits@_N@std@@2HB	; std::numeric_limits<bool>::max_digits10
PUBLIC	?is_signed@?$numeric_limits@C@std@@2_NB		; std::numeric_limits<signed char>::is_signed
PUBLIC	?digits@?$numeric_limits@C@std@@2HB		; std::numeric_limits<signed char>::digits
PUBLIC	?digits10@?$numeric_limits@C@std@@2HB		; std::numeric_limits<signed char>::digits10
PUBLIC	?max_digits10@?$numeric_limits@C@std@@2HB	; std::numeric_limits<signed char>::max_digits10
PUBLIC	?is_signed@?$numeric_limits@E@std@@2_NB		; std::numeric_limits<unsigned char>::is_signed
PUBLIC	?digits@?$numeric_limits@E@std@@2HB		; std::numeric_limits<unsigned char>::digits
PUBLIC	?digits10@?$numeric_limits@E@std@@2HB		; std::numeric_limits<unsigned char>::digits10
PUBLIC	?max_digits10@?$numeric_limits@E@std@@2HB	; std::numeric_limits<unsigned char>::max_digits10
PUBLIC	?is_signed@?$numeric_limits@F@std@@2_NB		; std::numeric_limits<short>::is_signed
PUBLIC	?digits@?$numeric_limits@F@std@@2HB		; std::numeric_limits<short>::digits
PUBLIC	?digits10@?$numeric_limits@F@std@@2HB		; std::numeric_limits<short>::digits10
PUBLIC	?max_digits10@?$numeric_limits@F@std@@2HB	; std::numeric_limits<short>::max_digits10
PUBLIC	?is_signed@?$numeric_limits@G@std@@2_NB		; std::numeric_limits<unsigned short>::is_signed
PUBLIC	?digits@?$numeric_limits@G@std@@2HB		; std::numeric_limits<unsigned short>::digits
PUBLIC	?digits10@?$numeric_limits@G@std@@2HB		; std::numeric_limits<unsigned short>::digits10
PUBLIC	?max_digits10@?$numeric_limits@G@std@@2HB	; std::numeric_limits<unsigned short>::max_digits10
PUBLIC	?is_signed@?$numeric_limits@H@std@@2_NB		; std::numeric_limits<int>::is_signed
PUBLIC	?digits@?$numeric_limits@H@std@@2HB		; std::numeric_limits<int>::digits
PUBLIC	?digits10@?$numeric_limits@H@std@@2HB		; std::numeric_limits<int>::digits10
PUBLIC	?max_digits10@?$numeric_limits@H@std@@2HB	; std::numeric_limits<int>::max_digits10
PUBLIC	?is_signed@?$numeric_limits@I@std@@2_NB		; std::numeric_limits<unsigned int>::is_signed
PUBLIC	?digits@?$numeric_limits@I@std@@2HB		; std::numeric_limits<unsigned int>::digits
PUBLIC	?digits10@?$numeric_limits@I@std@@2HB		; std::numeric_limits<unsigned int>::digits10
PUBLIC	?max_digits10@?$numeric_limits@I@std@@2HB	; std::numeric_limits<unsigned int>::max_digits10
PUBLIC	?is_signed@?$numeric_limits@J@std@@2_NB		; std::numeric_limits<long>::is_signed
PUBLIC	?digits@?$numeric_limits@J@std@@2HB		; std::numeric_limits<long>::digits
PUBLIC	?digits10@?$numeric_limits@J@std@@2HB		; std::numeric_limits<long>::digits10
PUBLIC	?max_digits10@?$numeric_limits@J@std@@2HB	; std::numeric_limits<long>::max_digits10
PUBLIC	?is_signed@?$numeric_limits@K@std@@2_NB		; std::numeric_limits<unsigned long>::is_signed
PUBLIC	?digits@?$numeric_limits@K@std@@2HB		; std::numeric_limits<unsigned long>::digits
PUBLIC	?digits10@?$numeric_limits@K@std@@2HB		; std::numeric_limits<unsigned long>::digits10
PUBLIC	?max_digits10@?$numeric_limits@K@std@@2HB	; std::numeric_limits<unsigned long>::max_digits10
PUBLIC	?is_signed@?$numeric_limits@_J@std@@2_NB	; std::numeric_limits<__int64>::is_signed
PUBLIC	?digits@?$numeric_limits@_J@std@@2HB		; std::numeric_limits<__int64>::digits
PUBLIC	?digits10@?$numeric_limits@_J@std@@2HB		; std::numeric_limits<__int64>::digits10
PUBLIC	?max_digits10@?$numeric_limits@_J@std@@2HB	; std::numeric_limits<__int64>::max_digits10
PUBLIC	?is_signed@?$numeric_limits@_K@std@@2_NB	; std::numeric_limits<unsigned __int64>::is_signed
PUBLIC	?digits@?$numeric_limits@_K@std@@2HB		; std::numeric_limits<unsigned __int64>::digits
PUBLIC	?digits10@?$numeric_limits@_K@std@@2HB		; std::numeric_limits<unsigned __int64>::digits10
PUBLIC	?max_digits10@?$numeric_limits@_K@std@@2HB	; std::numeric_limits<unsigned __int64>::max_digits10
PUBLIC	?digits@?$numeric_limits@M@std@@2HB		; std::numeric_limits<float>::digits
PUBLIC	?digits10@?$numeric_limits@M@std@@2HB		; std::numeric_limits<float>::digits10
PUBLIC	?max_digits10@?$numeric_limits@M@std@@2HB	; std::numeric_limits<float>::max_digits10
PUBLIC	?max_exponent@?$numeric_limits@M@std@@2HB	; std::numeric_limits<float>::max_exponent
PUBLIC	?max_exponent10@?$numeric_limits@M@std@@2HB	; std::numeric_limits<float>::max_exponent10
PUBLIC	?min_exponent@?$numeric_limits@M@std@@2HB	; std::numeric_limits<float>::min_exponent
PUBLIC	?min_exponent10@?$numeric_limits@M@std@@2HB	; std::numeric_limits<float>::min_exponent10
PUBLIC	?digits@?$numeric_limits@N@std@@2HB		; std::numeric_limits<double>::digits
PUBLIC	?digits10@?$numeric_limits@N@std@@2HB		; std::numeric_limits<double>::digits10
PUBLIC	?max_digits10@?$numeric_limits@N@std@@2HB	; std::numeric_limits<double>::max_digits10
PUBLIC	?max_exponent@?$numeric_limits@N@std@@2HB	; std::numeric_limits<double>::max_exponent
PUBLIC	?max_exponent10@?$numeric_limits@N@std@@2HB	; std::numeric_limits<double>::max_exponent10
PUBLIC	?min_exponent@?$numeric_limits@N@std@@2HB	; std::numeric_limits<double>::min_exponent
PUBLIC	?min_exponent10@?$numeric_limits@N@std@@2HB	; std::numeric_limits<double>::min_exponent10
PUBLIC	?digits@?$numeric_limits@O@std@@2HB		; std::numeric_limits<long double>::digits
PUBLIC	?digits10@?$numeric_limits@O@std@@2HB		; std::numeric_limits<long double>::digits10
PUBLIC	?max_digits10@?$numeric_limits@O@std@@2HB	; std::numeric_limits<long double>::max_digits10
PUBLIC	?max_exponent@?$numeric_limits@O@std@@2HB	; std::numeric_limits<long double>::max_exponent
PUBLIC	?max_exponent10@?$numeric_limits@O@std@@2HB	; std::numeric_limits<long double>::max_exponent10
PUBLIC	?min_exponent@?$numeric_limits@O@std@@2HB	; std::numeric_limits<long double>::min_exponent
PUBLIC	?min_exponent10@?$numeric_limits@O@std@@2HB	; std::numeric_limits<long double>::min_exponent10
PUBLIC	?value@?$integral_constant@_N$0A@@tr1@std@@2_NB	; std::tr1::integral_constant<bool,0>::value
PUBLIC	?value@?$integral_constant@_N$00@tr1@std@@2_NB	; std::tr1::integral_constant<bool,1>::value
PUBLIC	?value@?$integral_constant@I$0A@@tr1@std@@2IB	; std::tr1::integral_constant<unsigned int,0>::value
PUBLIC	?_Rank@?$_Arithmetic_traits@_N@std@@2HB		; std::_Arithmetic_traits<bool>::_Rank
PUBLIC	?_Rank@?$_Arithmetic_traits@D@std@@2HB		; std::_Arithmetic_traits<char>::_Rank
PUBLIC	?_Rank@?$_Arithmetic_traits@C@std@@2HB		; std::_Arithmetic_traits<signed char>::_Rank
PUBLIC	?_Rank@?$_Arithmetic_traits@E@std@@2HB		; std::_Arithmetic_traits<unsigned char>::_Rank
PUBLIC	?_Rank@?$_Arithmetic_traits@F@std@@2HB		; std::_Arithmetic_traits<short>::_Rank
PUBLIC	?_Rank@?$_Arithmetic_traits@G@std@@2HB		; std::_Arithmetic_traits<unsigned short>::_Rank
PUBLIC	?_Rank@?$_Arithmetic_traits@H@std@@2HB		; std::_Arithmetic_traits<int>::_Rank
PUBLIC	?_Rank@?$_Arithmetic_traits@I@std@@2HB		; std::_Arithmetic_traits<unsigned int>::_Rank
PUBLIC	?_Rank@?$_Arithmetic_traits@J@std@@2HB		; std::_Arithmetic_traits<long>::_Rank
PUBLIC	?_Rank@?$_Arithmetic_traits@K@std@@2HB		; std::_Arithmetic_traits<unsigned long>::_Rank
PUBLIC	?_Rank@?$_Arithmetic_traits@_J@std@@2HB		; std::_Arithmetic_traits<__int64>::_Rank
PUBLIC	?_Rank@?$_Arithmetic_traits@_K@std@@2HB		; std::_Arithmetic_traits<unsigned __int64>::_Rank
PUBLIC	?_Rank@?$_Arithmetic_traits@M@std@@2HB		; std::_Arithmetic_traits<float>::_Rank
PUBLIC	?_Rank@?$_Arithmetic_traits@N@std@@2HB		; std::_Arithmetic_traits<double>::_Rank
PUBLIC	?_Rank@?$_Arithmetic_traits@O@std@@2HB		; std::_Arithmetic_traits<long double>::_Rank
PUBLIC	?collate@?$_Locbase@H@std@@2HB			; std::_Locbase<int>::collate
PUBLIC	?ctype@?$_Locbase@H@std@@2HB			; std::_Locbase<int>::ctype
PUBLIC	?monetary@?$_Locbase@H@std@@2HB			; std::_Locbase<int>::monetary
PUBLIC	?numeric@?$_Locbase@H@std@@2HB			; std::_Locbase<int>::numeric
PUBLIC	?time@?$_Locbase@H@std@@2HB			; std::_Locbase<int>::time
PUBLIC	?messages@?$_Locbase@H@std@@2HB			; std::_Locbase<int>::messages
PUBLIC	?all@?$_Locbase@H@std@@2HB			; std::_Locbase<int>::all
PUBLIC	?none@?$_Locbase@H@std@@2HB			; std::_Locbase<int>::none
PUBLIC	?table_size@?$ctype@D@std@@2IB			; std::ctype<char>::table_size
PUBLIC	?skipws@?$_Iosb@H@std@@2W4_Fmtflags@12@B	; std::_Iosb<int>::skipws
PUBLIC	?unitbuf@?$_Iosb@H@std@@2W4_Fmtflags@12@B	; std::_Iosb<int>::unitbuf
PUBLIC	?uppercase@?$_Iosb@H@std@@2W4_Fmtflags@12@B	; std::_Iosb<int>::uppercase
PUBLIC	?showbase@?$_Iosb@H@std@@2W4_Fmtflags@12@B	; std::_Iosb<int>::showbase
PUBLIC	?showpoint@?$_Iosb@H@std@@2W4_Fmtflags@12@B	; std::_Iosb<int>::showpoint
PUBLIC	?showpos@?$_Iosb@H@std@@2W4_Fmtflags@12@B	; std::_Iosb<int>::showpos
PUBLIC	?left@?$_Iosb@H@std@@2W4_Fmtflags@12@B		; std::_Iosb<int>::left
PUBLIC	?right@?$_Iosb@H@std@@2W4_Fmtflags@12@B		; std::_Iosb<int>::right
PUBLIC	?internal@?$_Iosb@H@std@@2W4_Fmtflags@12@B	; std::_Iosb<int>::internal
PUBLIC	?dec@?$_Iosb@H@std@@2W4_Fmtflags@12@B		; std::_Iosb<int>::dec
PUBLIC	?oct@?$_Iosb@H@std@@2W4_Fmtflags@12@B		; std::_Iosb<int>::oct
PUBLIC	?hex@?$_Iosb@H@std@@2W4_Fmtflags@12@B		; std::_Iosb<int>::hex
PUBLIC	?scientific@?$_Iosb@H@std@@2W4_Fmtflags@12@B	; std::_Iosb<int>::scientific
PUBLIC	?fixed@?$_Iosb@H@std@@2W4_Fmtflags@12@B		; std::_Iosb<int>::fixed
PUBLIC	?hexfloat@?$_Iosb@H@std@@2W4_Fmtflags@12@B	; std::_Iosb<int>::hexfloat
PUBLIC	?boolalpha@?$_Iosb@H@std@@2W4_Fmtflags@12@B	; std::_Iosb<int>::boolalpha
PUBLIC	?_Stdio@?$_Iosb@H@std@@2W4_Fmtflags@12@B	; std::_Iosb<int>::_Stdio
PUBLIC	?adjustfield@?$_Iosb@H@std@@2W4_Fmtflags@12@B	; std::_Iosb<int>::adjustfield
PUBLIC	?basefield@?$_Iosb@H@std@@2W4_Fmtflags@12@B	; std::_Iosb<int>::basefield
PUBLIC	?floatfield@?$_Iosb@H@std@@2W4_Fmtflags@12@B	; std::_Iosb<int>::floatfield
PUBLIC	?goodbit@?$_Iosb@H@std@@2W4_Iostate@12@B	; std::_Iosb<int>::goodbit
PUBLIC	?eofbit@?$_Iosb@H@std@@2W4_Iostate@12@B		; std::_Iosb<int>::eofbit
PUBLIC	?failbit@?$_Iosb@H@std@@2W4_Iostate@12@B	; std::_Iosb<int>::failbit
PUBLIC	?badbit@?$_Iosb@H@std@@2W4_Iostate@12@B		; std::_Iosb<int>::badbit
PUBLIC	?_Hardfail@?$_Iosb@H@std@@2W4_Iostate@12@B	; std::_Iosb<int>::_Hardfail
PUBLIC	?in@?$_Iosb@H@std@@2W4_Openmode@12@B		; std::_Iosb<int>::in
PUBLIC	?out@?$_Iosb@H@std@@2W4_Openmode@12@B		; std::_Iosb<int>::out
PUBLIC	?ate@?$_Iosb@H@std@@2W4_Openmode@12@B		; std::_Iosb<int>::ate
PUBLIC	?app@?$_Iosb@H@std@@2W4_Openmode@12@B		; std::_Iosb<int>::app
PUBLIC	?trunc@?$_Iosb@H@std@@2W4_Openmode@12@B		; std::_Iosb<int>::trunc
PUBLIC	?_Nocreate@?$_Iosb@H@std@@2W4_Openmode@12@B	; std::_Iosb<int>::_Nocreate
PUBLIC	?_Noreplace@?$_Iosb@H@std@@2W4_Openmode@12@B	; std::_Iosb<int>::_Noreplace
PUBLIC	?binary@?$_Iosb@H@std@@2W4_Openmode@12@B	; std::_Iosb<int>::binary
PUBLIC	?beg@?$_Iosb@H@std@@2W4_Seekdir@12@B		; std::_Iosb<int>::beg
PUBLIC	?cur@?$_Iosb@H@std@@2W4_Seekdir@12@B		; std::_Iosb<int>::cur
PUBLIC	?end@?$_Iosb@H@std@@2W4_Seekdir@12@B		; std::_Iosb<int>::end
CONST	SEGMENT
_Pi	DQ	0400921f9f01b866er		; 3.14159
_pi	DQ	0400921f9f01b866er		; 3.14159
_colors	DD	0ffH
	DD	0ff0000H
	DD	0ff00H
	DD	00H
	DD	0c8c8ffH
	DD	0c8c8c8H
	DD	0ffffH
	DD	0aaffH
	DD	0aa00ffH
	DD	05a85H
	DD	0ffffffH
	DD	06400H
	DD	0ffff00H
	DD	0c8c8c8H
	DD	0e6e6ffH
CONST	ENDS
;	COMDAT ?end@?$_Iosb@H@std@@2W4_Seekdir@12@B
CONST	SEGMENT
?end@?$_Iosb@H@std@@2W4_Seekdir@12@B DD 02H		; std::_Iosb<int>::end
CONST	ENDS
;	COMDAT ?cur@?$_Iosb@H@std@@2W4_Seekdir@12@B
CONST	SEGMENT
?cur@?$_Iosb@H@std@@2W4_Seekdir@12@B DD 01H		; std::_Iosb<int>::cur
CONST	ENDS
;	COMDAT ?beg@?$_Iosb@H@std@@2W4_Seekdir@12@B
CONST	SEGMENT
?beg@?$_Iosb@H@std@@2W4_Seekdir@12@B DD 00H		; std::_Iosb<int>::beg
CONST	ENDS
;	COMDAT ?binary@?$_Iosb@H@std@@2W4_Openmode@12@B
CONST	SEGMENT
?binary@?$_Iosb@H@std@@2W4_Openmode@12@B DD 020H	; std::_Iosb<int>::binary
CONST	ENDS
;	COMDAT ?_Noreplace@?$_Iosb@H@std@@2W4_Openmode@12@B
CONST	SEGMENT
?_Noreplace@?$_Iosb@H@std@@2W4_Openmode@12@B DD 080H	; std::_Iosb<int>::_Noreplace
CONST	ENDS
;	COMDAT ?_Nocreate@?$_Iosb@H@std@@2W4_Openmode@12@B
CONST	SEGMENT
?_Nocreate@?$_Iosb@H@std@@2W4_Openmode@12@B DD 040H	; std::_Iosb<int>::_Nocreate
CONST	ENDS
;	COMDAT ?trunc@?$_Iosb@H@std@@2W4_Openmode@12@B
CONST	SEGMENT
?trunc@?$_Iosb@H@std@@2W4_Openmode@12@B DD 010H		; std::_Iosb<int>::trunc
CONST	ENDS
;	COMDAT ?app@?$_Iosb@H@std@@2W4_Openmode@12@B
CONST	SEGMENT
?app@?$_Iosb@H@std@@2W4_Openmode@12@B DD 08H		; std::_Iosb<int>::app
CONST	ENDS
;	COMDAT ?ate@?$_Iosb@H@std@@2W4_Openmode@12@B
CONST	SEGMENT
?ate@?$_Iosb@H@std@@2W4_Openmode@12@B DD 04H		; std::_Iosb<int>::ate
CONST	ENDS
;	COMDAT ?out@?$_Iosb@H@std@@2W4_Openmode@12@B
CONST	SEGMENT
?out@?$_Iosb@H@std@@2W4_Openmode@12@B DD 02H		; std::_Iosb<int>::out
CONST	ENDS
;	COMDAT ?in@?$_Iosb@H@std@@2W4_Openmode@12@B
CONST	SEGMENT
?in@?$_Iosb@H@std@@2W4_Openmode@12@B DD 01H		; std::_Iosb<int>::in
CONST	ENDS
;	COMDAT ?_Hardfail@?$_Iosb@H@std@@2W4_Iostate@12@B
CONST	SEGMENT
?_Hardfail@?$_Iosb@H@std@@2W4_Iostate@12@B DD 010H	; std::_Iosb<int>::_Hardfail
CONST	ENDS
;	COMDAT ?badbit@?$_Iosb@H@std@@2W4_Iostate@12@B
CONST	SEGMENT
?badbit@?$_Iosb@H@std@@2W4_Iostate@12@B DD 04H		; std::_Iosb<int>::badbit
CONST	ENDS
;	COMDAT ?failbit@?$_Iosb@H@std@@2W4_Iostate@12@B
CONST	SEGMENT
?failbit@?$_Iosb@H@std@@2W4_Iostate@12@B DD 02H		; std::_Iosb<int>::failbit
CONST	ENDS
;	COMDAT ?eofbit@?$_Iosb@H@std@@2W4_Iostate@12@B
CONST	SEGMENT
?eofbit@?$_Iosb@H@std@@2W4_Iostate@12@B DD 01H		; std::_Iosb<int>::eofbit
CONST	ENDS
;	COMDAT ?goodbit@?$_Iosb@H@std@@2W4_Iostate@12@B
CONST	SEGMENT
?goodbit@?$_Iosb@H@std@@2W4_Iostate@12@B DD 00H		; std::_Iosb<int>::goodbit
CONST	ENDS
;	COMDAT ?floatfield@?$_Iosb@H@std@@2W4_Fmtflags@12@B
CONST	SEGMENT
?floatfield@?$_Iosb@H@std@@2W4_Fmtflags@12@B DD 03000H	; std::_Iosb<int>::floatfield
CONST	ENDS
;	COMDAT ?basefield@?$_Iosb@H@std@@2W4_Fmtflags@12@B
CONST	SEGMENT
?basefield@?$_Iosb@H@std@@2W4_Fmtflags@12@B DD 0e00H	; std::_Iosb<int>::basefield
CONST	ENDS
;	COMDAT ?adjustfield@?$_Iosb@H@std@@2W4_Fmtflags@12@B
CONST	SEGMENT
?adjustfield@?$_Iosb@H@std@@2W4_Fmtflags@12@B DD 01c0H	; std::_Iosb<int>::adjustfield
CONST	ENDS
;	COMDAT ?_Stdio@?$_Iosb@H@std@@2W4_Fmtflags@12@B
CONST	SEGMENT
?_Stdio@?$_Iosb@H@std@@2W4_Fmtflags@12@B DD 08000H	; std::_Iosb<int>::_Stdio
CONST	ENDS
;	COMDAT ?boolalpha@?$_Iosb@H@std@@2W4_Fmtflags@12@B
CONST	SEGMENT
?boolalpha@?$_Iosb@H@std@@2W4_Fmtflags@12@B DD 04000H	; std::_Iosb<int>::boolalpha
CONST	ENDS
;	COMDAT ?hexfloat@?$_Iosb@H@std@@2W4_Fmtflags@12@B
CONST	SEGMENT
?hexfloat@?$_Iosb@H@std@@2W4_Fmtflags@12@B DD 03000H	; std::_Iosb<int>::hexfloat
CONST	ENDS
;	COMDAT ?fixed@?$_Iosb@H@std@@2W4_Fmtflags@12@B
CONST	SEGMENT
?fixed@?$_Iosb@H@std@@2W4_Fmtflags@12@B DD 02000H	; std::_Iosb<int>::fixed
CONST	ENDS
;	COMDAT ?scientific@?$_Iosb@H@std@@2W4_Fmtflags@12@B
CONST	SEGMENT
?scientific@?$_Iosb@H@std@@2W4_Fmtflags@12@B DD 01000H	; std::_Iosb<int>::scientific
CONST	ENDS
;	COMDAT ?hex@?$_Iosb@H@std@@2W4_Fmtflags@12@B
CONST	SEGMENT
?hex@?$_Iosb@H@std@@2W4_Fmtflags@12@B DD 0800H		; std::_Iosb<int>::hex
CONST	ENDS
;	COMDAT ?oct@?$_Iosb@H@std@@2W4_Fmtflags@12@B
CONST	SEGMENT
?oct@?$_Iosb@H@std@@2W4_Fmtflags@12@B DD 0400H		; std::_Iosb<int>::oct
CONST	ENDS
;	COMDAT ?dec@?$_Iosb@H@std@@2W4_Fmtflags@12@B
CONST	SEGMENT
?dec@?$_Iosb@H@std@@2W4_Fmtflags@12@B DD 0200H		; std::_Iosb<int>::dec
CONST	ENDS
;	COMDAT ?internal@?$_Iosb@H@std@@2W4_Fmtflags@12@B
CONST	SEGMENT
?internal@?$_Iosb@H@std@@2W4_Fmtflags@12@B DD 0100H	; std::_Iosb<int>::internal
CONST	ENDS
;	COMDAT ?right@?$_Iosb@H@std@@2W4_Fmtflags@12@B
CONST	SEGMENT
?right@?$_Iosb@H@std@@2W4_Fmtflags@12@B DD 080H		; std::_Iosb<int>::right
CONST	ENDS
;	COMDAT ?left@?$_Iosb@H@std@@2W4_Fmtflags@12@B
CONST	SEGMENT
?left@?$_Iosb@H@std@@2W4_Fmtflags@12@B DD 040H		; std::_Iosb<int>::left
CONST	ENDS
;	COMDAT ?showpos@?$_Iosb@H@std@@2W4_Fmtflags@12@B
CONST	SEGMENT
?showpos@?$_Iosb@H@std@@2W4_Fmtflags@12@B DD 020H	; std::_Iosb<int>::showpos
CONST	ENDS
;	COMDAT ?showpoint@?$_Iosb@H@std@@2W4_Fmtflags@12@B
CONST	SEGMENT
?showpoint@?$_Iosb@H@std@@2W4_Fmtflags@12@B DD 010H	; std::_Iosb<int>::showpoint
CONST	ENDS
;	COMDAT ?showbase@?$_Iosb@H@std@@2W4_Fmtflags@12@B
CONST	SEGMENT
?showbase@?$_Iosb@H@std@@2W4_Fmtflags@12@B DD 08H	; std::_Iosb<int>::showbase
CONST	ENDS
;	COMDAT ?uppercase@?$_Iosb@H@std@@2W4_Fmtflags@12@B
CONST	SEGMENT
?uppercase@?$_Iosb@H@std@@2W4_Fmtflags@12@B DD 04H	; std::_Iosb<int>::uppercase
CONST	ENDS
;	COMDAT ?unitbuf@?$_Iosb@H@std@@2W4_Fmtflags@12@B
CONST	SEGMENT
?unitbuf@?$_Iosb@H@std@@2W4_Fmtflags@12@B DD 02H	; std::_Iosb<int>::unitbuf
CONST	ENDS
;	COMDAT ?skipws@?$_Iosb@H@std@@2W4_Fmtflags@12@B
CONST	SEGMENT
?skipws@?$_Iosb@H@std@@2W4_Fmtflags@12@B DD 01H		; std::_Iosb<int>::skipws
CONST	ENDS
;	COMDAT ?table_size@?$ctype@D@std@@2IB
CONST	SEGMENT
?table_size@?$ctype@D@std@@2IB DD 0100H			; std::ctype<char>::table_size
CONST	ENDS
;	COMDAT ?none@?$_Locbase@H@std@@2HB
CONST	SEGMENT
?none@?$_Locbase@H@std@@2HB DD 00H			; std::_Locbase<int>::none
CONST	ENDS
;	COMDAT ?all@?$_Locbase@H@std@@2HB
CONST	SEGMENT
?all@?$_Locbase@H@std@@2HB DD 03fH			; std::_Locbase<int>::all
CONST	ENDS
;	COMDAT ?messages@?$_Locbase@H@std@@2HB
CONST	SEGMENT
?messages@?$_Locbase@H@std@@2HB DD 020H			; std::_Locbase<int>::messages
CONST	ENDS
;	COMDAT ?time@?$_Locbase@H@std@@2HB
CONST	SEGMENT
?time@?$_Locbase@H@std@@2HB DD 010H			; std::_Locbase<int>::time
CONST	ENDS
;	COMDAT ?numeric@?$_Locbase@H@std@@2HB
CONST	SEGMENT
?numeric@?$_Locbase@H@std@@2HB DD 08H			; std::_Locbase<int>::numeric
CONST	ENDS
;	COMDAT ?monetary@?$_Locbase@H@std@@2HB
CONST	SEGMENT
?monetary@?$_Locbase@H@std@@2HB DD 04H			; std::_Locbase<int>::monetary
CONST	ENDS
;	COMDAT ?ctype@?$_Locbase@H@std@@2HB
CONST	SEGMENT
?ctype@?$_Locbase@H@std@@2HB DD 02H			; std::_Locbase<int>::ctype
CONST	ENDS
;	COMDAT ?collate@?$_Locbase@H@std@@2HB
CONST	SEGMENT
?collate@?$_Locbase@H@std@@2HB DD 01H			; std::_Locbase<int>::collate
CONST	ENDS
;	COMDAT ?_Rank@?$_Arithmetic_traits@O@std@@2HB
CONST	SEGMENT
?_Rank@?$_Arithmetic_traits@O@std@@2HB DD 09H		; std::_Arithmetic_traits<long double>::_Rank
CONST	ENDS
;	COMDAT ?_Rank@?$_Arithmetic_traits@N@std@@2HB
CONST	SEGMENT
?_Rank@?$_Arithmetic_traits@N@std@@2HB DD 08H		; std::_Arithmetic_traits<double>::_Rank
CONST	ENDS
;	COMDAT ?_Rank@?$_Arithmetic_traits@M@std@@2HB
CONST	SEGMENT
?_Rank@?$_Arithmetic_traits@M@std@@2HB DD 07H		; std::_Arithmetic_traits<float>::_Rank
CONST	ENDS
;	COMDAT ?_Rank@?$_Arithmetic_traits@_K@std@@2HB
CONST	SEGMENT
?_Rank@?$_Arithmetic_traits@_K@std@@2HB DD 06H		; std::_Arithmetic_traits<unsigned __int64>::_Rank
CONST	ENDS
;	COMDAT ?_Rank@?$_Arithmetic_traits@_J@std@@2HB
CONST	SEGMENT
?_Rank@?$_Arithmetic_traits@_J@std@@2HB DD 06H		; std::_Arithmetic_traits<__int64>::_Rank
CONST	ENDS
;	COMDAT ?_Rank@?$_Arithmetic_traits@K@std@@2HB
CONST	SEGMENT
?_Rank@?$_Arithmetic_traits@K@std@@2HB DD 05H		; std::_Arithmetic_traits<unsigned long>::_Rank
CONST	ENDS
;	COMDAT ?_Rank@?$_Arithmetic_traits@J@std@@2HB
CONST	SEGMENT
?_Rank@?$_Arithmetic_traits@J@std@@2HB DD 05H		; std::_Arithmetic_traits<long>::_Rank
CONST	ENDS
;	COMDAT ?_Rank@?$_Arithmetic_traits@I@std@@2HB
CONST	SEGMENT
?_Rank@?$_Arithmetic_traits@I@std@@2HB DD 04H		; std::_Arithmetic_traits<unsigned int>::_Rank
CONST	ENDS
;	COMDAT ?_Rank@?$_Arithmetic_traits@H@std@@2HB
CONST	SEGMENT
?_Rank@?$_Arithmetic_traits@H@std@@2HB DD 04H		; std::_Arithmetic_traits<int>::_Rank
CONST	ENDS
;	COMDAT ?_Rank@?$_Arithmetic_traits@G@std@@2HB
CONST	SEGMENT
?_Rank@?$_Arithmetic_traits@G@std@@2HB DD 03H		; std::_Arithmetic_traits<unsigned short>::_Rank
CONST	ENDS
;	COMDAT ?_Rank@?$_Arithmetic_traits@F@std@@2HB
CONST	SEGMENT
?_Rank@?$_Arithmetic_traits@F@std@@2HB DD 03H		; std::_Arithmetic_traits<short>::_Rank
CONST	ENDS
;	COMDAT ?_Rank@?$_Arithmetic_traits@E@std@@2HB
CONST	SEGMENT
?_Rank@?$_Arithmetic_traits@E@std@@2HB DD 02H		; std::_Arithmetic_traits<unsigned char>::_Rank
CONST	ENDS
;	COMDAT ?_Rank@?$_Arithmetic_traits@C@std@@2HB
CONST	SEGMENT
?_Rank@?$_Arithmetic_traits@C@std@@2HB DD 02H		; std::_Arithmetic_traits<signed char>::_Rank
CONST	ENDS
;	COMDAT ?_Rank@?$_Arithmetic_traits@D@std@@2HB
CONST	SEGMENT
?_Rank@?$_Arithmetic_traits@D@std@@2HB DD 02H		; std::_Arithmetic_traits<char>::_Rank
CONST	ENDS
;	COMDAT ?_Rank@?$_Arithmetic_traits@_N@std@@2HB
CONST	SEGMENT
?_Rank@?$_Arithmetic_traits@_N@std@@2HB DD 01H		; std::_Arithmetic_traits<bool>::_Rank
CONST	ENDS
;	COMDAT ?value@?$integral_constant@I$0A@@tr1@std@@2IB
CONST	SEGMENT
?value@?$integral_constant@I$0A@@tr1@std@@2IB DD 00H	; std::tr1::integral_constant<unsigned int,0>::value
CONST	ENDS
;	COMDAT ?value@?$integral_constant@_N$00@tr1@std@@2_NB
CONST	SEGMENT
?value@?$integral_constant@_N$00@tr1@std@@2_NB DB 01H	; std::tr1::integral_constant<bool,1>::value
CONST	ENDS
;	COMDAT ?value@?$integral_constant@_N$0A@@tr1@std@@2_NB
CONST	SEGMENT
?value@?$integral_constant@_N$0A@@tr1@std@@2_NB DB 00H	; std::tr1::integral_constant<bool,0>::value
CONST	ENDS
;	COMDAT ?min_exponent10@?$numeric_limits@O@std@@2HB
CONST	SEGMENT
?min_exponent10@?$numeric_limits@O@std@@2HB DD 0fffffecdH ; std::numeric_limits<long double>::min_exponent10
CONST	ENDS
;	COMDAT ?min_exponent@?$numeric_limits@O@std@@2HB
CONST	SEGMENT
?min_exponent@?$numeric_limits@O@std@@2HB DD 0fffffc03H	; std::numeric_limits<long double>::min_exponent
CONST	ENDS
;	COMDAT ?max_exponent10@?$numeric_limits@O@std@@2HB
CONST	SEGMENT
?max_exponent10@?$numeric_limits@O@std@@2HB DD 0134H	; std::numeric_limits<long double>::max_exponent10
CONST	ENDS
;	COMDAT ?max_exponent@?$numeric_limits@O@std@@2HB
CONST	SEGMENT
?max_exponent@?$numeric_limits@O@std@@2HB DD 0400H	; std::numeric_limits<long double>::max_exponent
CONST	ENDS
;	COMDAT ?max_digits10@?$numeric_limits@O@std@@2HB
CONST	SEGMENT
?max_digits10@?$numeric_limits@O@std@@2HB DD 011H	; std::numeric_limits<long double>::max_digits10
CONST	ENDS
;	COMDAT ?digits10@?$numeric_limits@O@std@@2HB
CONST	SEGMENT
?digits10@?$numeric_limits@O@std@@2HB DD 0fH		; std::numeric_limits<long double>::digits10
CONST	ENDS
;	COMDAT ?digits@?$numeric_limits@O@std@@2HB
CONST	SEGMENT
?digits@?$numeric_limits@O@std@@2HB DD 035H		; std::numeric_limits<long double>::digits
CONST	ENDS
;	COMDAT ?min_exponent10@?$numeric_limits@N@std@@2HB
CONST	SEGMENT
?min_exponent10@?$numeric_limits@N@std@@2HB DD 0fffffecdH ; std::numeric_limits<double>::min_exponent10
CONST	ENDS
;	COMDAT ?min_exponent@?$numeric_limits@N@std@@2HB
CONST	SEGMENT
?min_exponent@?$numeric_limits@N@std@@2HB DD 0fffffc03H	; std::numeric_limits<double>::min_exponent
CONST	ENDS
;	COMDAT ?max_exponent10@?$numeric_limits@N@std@@2HB
CONST	SEGMENT
?max_exponent10@?$numeric_limits@N@std@@2HB DD 0134H	; std::numeric_limits<double>::max_exponent10
CONST	ENDS
;	COMDAT ?max_exponent@?$numeric_limits@N@std@@2HB
CONST	SEGMENT
?max_exponent@?$numeric_limits@N@std@@2HB DD 0400H	; std::numeric_limits<double>::max_exponent
CONST	ENDS
;	COMDAT ?max_digits10@?$numeric_limits@N@std@@2HB
CONST	SEGMENT
?max_digits10@?$numeric_limits@N@std@@2HB DD 011H	; std::numeric_limits<double>::max_digits10
CONST	ENDS
;	COMDAT ?digits10@?$numeric_limits@N@std@@2HB
CONST	SEGMENT
?digits10@?$numeric_limits@N@std@@2HB DD 0fH		; std::numeric_limits<double>::digits10
CONST	ENDS
;	COMDAT ?digits@?$numeric_limits@N@std@@2HB
CONST	SEGMENT
?digits@?$numeric_limits@N@std@@2HB DD 035H		; std::numeric_limits<double>::digits
CONST	ENDS
;	COMDAT ?min_exponent10@?$numeric_limits@M@std@@2HB
CONST	SEGMENT
?min_exponent10@?$numeric_limits@M@std@@2HB DD 0ffffffdbH ; std::numeric_limits<float>::min_exponent10
CONST	ENDS
;	COMDAT ?min_exponent@?$numeric_limits@M@std@@2HB
CONST	SEGMENT
?min_exponent@?$numeric_limits@M@std@@2HB DD 0ffffff83H	; std::numeric_limits<float>::min_exponent
CONST	ENDS
;	COMDAT ?max_exponent10@?$numeric_limits@M@std@@2HB
CONST	SEGMENT
?max_exponent10@?$numeric_limits@M@std@@2HB DD 026H	; std::numeric_limits<float>::max_exponent10
CONST	ENDS
;	COMDAT ?max_exponent@?$numeric_limits@M@std@@2HB
CONST	SEGMENT
?max_exponent@?$numeric_limits@M@std@@2HB DD 080H	; std::numeric_limits<float>::max_exponent
CONST	ENDS
;	COMDAT ?max_digits10@?$numeric_limits@M@std@@2HB
CONST	SEGMENT
?max_digits10@?$numeric_limits@M@std@@2HB DD 08H	; std::numeric_limits<float>::max_digits10
CONST	ENDS
;	COMDAT ?digits10@?$numeric_limits@M@std@@2HB
CONST	SEGMENT
?digits10@?$numeric_limits@M@std@@2HB DD 06H		; std::numeric_limits<float>::digits10
CONST	ENDS
;	COMDAT ?digits@?$numeric_limits@M@std@@2HB
CONST	SEGMENT
?digits@?$numeric_limits@M@std@@2HB DD 018H		; std::numeric_limits<float>::digits
CONST	ENDS
;	COMDAT ?max_digits10@?$numeric_limits@_K@std@@2HB
CONST	SEGMENT
?max_digits10@?$numeric_limits@_K@std@@2HB DD 015H	; std::numeric_limits<unsigned __int64>::max_digits10
CONST	ENDS
;	COMDAT ?digits10@?$numeric_limits@_K@std@@2HB
CONST	SEGMENT
?digits10@?$numeric_limits@_K@std@@2HB DD 013H		; std::numeric_limits<unsigned __int64>::digits10
CONST	ENDS
;	COMDAT ?digits@?$numeric_limits@_K@std@@2HB
CONST	SEGMENT
?digits@?$numeric_limits@_K@std@@2HB DD 040H		; std::numeric_limits<unsigned __int64>::digits
CONST	ENDS
;	COMDAT ?is_signed@?$numeric_limits@_K@std@@2_NB
CONST	SEGMENT
?is_signed@?$numeric_limits@_K@std@@2_NB DB 00H		; std::numeric_limits<unsigned __int64>::is_signed
CONST	ENDS
;	COMDAT ?max_digits10@?$numeric_limits@_J@std@@2HB
CONST	SEGMENT
?max_digits10@?$numeric_limits@_J@std@@2HB DD 014H	; std::numeric_limits<__int64>::max_digits10
CONST	ENDS
;	COMDAT ?digits10@?$numeric_limits@_J@std@@2HB
CONST	SEGMENT
?digits10@?$numeric_limits@_J@std@@2HB DD 012H		; std::numeric_limits<__int64>::digits10
CONST	ENDS
;	COMDAT ?digits@?$numeric_limits@_J@std@@2HB
CONST	SEGMENT
?digits@?$numeric_limits@_J@std@@2HB DD 03fH		; std::numeric_limits<__int64>::digits
CONST	ENDS
;	COMDAT ?is_signed@?$numeric_limits@_J@std@@2_NB
CONST	SEGMENT
?is_signed@?$numeric_limits@_J@std@@2_NB DB 01H		; std::numeric_limits<__int64>::is_signed
CONST	ENDS
;	COMDAT ?max_digits10@?$numeric_limits@K@std@@2HB
CONST	SEGMENT
?max_digits10@?$numeric_limits@K@std@@2HB DD 0bH	; std::numeric_limits<unsigned long>::max_digits10
CONST	ENDS
;	COMDAT ?digits10@?$numeric_limits@K@std@@2HB
CONST	SEGMENT
?digits10@?$numeric_limits@K@std@@2HB DD 09H		; std::numeric_limits<unsigned long>::digits10
CONST	ENDS
;	COMDAT ?digits@?$numeric_limits@K@std@@2HB
CONST	SEGMENT
?digits@?$numeric_limits@K@std@@2HB DD 020H		; std::numeric_limits<unsigned long>::digits
CONST	ENDS
;	COMDAT ?is_signed@?$numeric_limits@K@std@@2_NB
CONST	SEGMENT
?is_signed@?$numeric_limits@K@std@@2_NB DB 00H		; std::numeric_limits<unsigned long>::is_signed
CONST	ENDS
;	COMDAT ?max_digits10@?$numeric_limits@J@std@@2HB
CONST	SEGMENT
?max_digits10@?$numeric_limits@J@std@@2HB DD 0bH	; std::numeric_limits<long>::max_digits10
CONST	ENDS
;	COMDAT ?digits10@?$numeric_limits@J@std@@2HB
CONST	SEGMENT
?digits10@?$numeric_limits@J@std@@2HB DD 09H		; std::numeric_limits<long>::digits10
CONST	ENDS
;	COMDAT ?digits@?$numeric_limits@J@std@@2HB
CONST	SEGMENT
?digits@?$numeric_limits@J@std@@2HB DD 01fH		; std::numeric_limits<long>::digits
CONST	ENDS
;	COMDAT ?is_signed@?$numeric_limits@J@std@@2_NB
CONST	SEGMENT
?is_signed@?$numeric_limits@J@std@@2_NB DB 01H		; std::numeric_limits<long>::is_signed
CONST	ENDS
;	COMDAT ?max_digits10@?$numeric_limits@I@std@@2HB
CONST	SEGMENT
?max_digits10@?$numeric_limits@I@std@@2HB DD 0bH	; std::numeric_limits<unsigned int>::max_digits10
CONST	ENDS
;	COMDAT ?digits10@?$numeric_limits@I@std@@2HB
CONST	SEGMENT
?digits10@?$numeric_limits@I@std@@2HB DD 09H		; std::numeric_limits<unsigned int>::digits10
CONST	ENDS
;	COMDAT ?digits@?$numeric_limits@I@std@@2HB
CONST	SEGMENT
?digits@?$numeric_limits@I@std@@2HB DD 020H		; std::numeric_limits<unsigned int>::digits
CONST	ENDS
;	COMDAT ?is_signed@?$numeric_limits@I@std@@2_NB
CONST	SEGMENT
?is_signed@?$numeric_limits@I@std@@2_NB DB 00H		; std::numeric_limits<unsigned int>::is_signed
CONST	ENDS
;	COMDAT ?max_digits10@?$numeric_limits@H@std@@2HB
CONST	SEGMENT
?max_digits10@?$numeric_limits@H@std@@2HB DD 0bH	; std::numeric_limits<int>::max_digits10
CONST	ENDS
;	COMDAT ?digits10@?$numeric_limits@H@std@@2HB
CONST	SEGMENT
?digits10@?$numeric_limits@H@std@@2HB DD 09H		; std::numeric_limits<int>::digits10
CONST	ENDS
;	COMDAT ?digits@?$numeric_limits@H@std@@2HB
CONST	SEGMENT
?digits@?$numeric_limits@H@std@@2HB DD 01fH		; std::numeric_limits<int>::digits
CONST	ENDS
;	COMDAT ?is_signed@?$numeric_limits@H@std@@2_NB
CONST	SEGMENT
?is_signed@?$numeric_limits@H@std@@2_NB DB 01H		; std::numeric_limits<int>::is_signed
CONST	ENDS
;	COMDAT ?max_digits10@?$numeric_limits@G@std@@2HB
CONST	SEGMENT
?max_digits10@?$numeric_limits@G@std@@2HB DD 06H	; std::numeric_limits<unsigned short>::max_digits10
CONST	ENDS
;	COMDAT ?digits10@?$numeric_limits@G@std@@2HB
CONST	SEGMENT
?digits10@?$numeric_limits@G@std@@2HB DD 04H		; std::numeric_limits<unsigned short>::digits10
CONST	ENDS
;	COMDAT ?digits@?$numeric_limits@G@std@@2HB
CONST	SEGMENT
?digits@?$numeric_limits@G@std@@2HB DD 010H		; std::numeric_limits<unsigned short>::digits
CONST	ENDS
;	COMDAT ?is_signed@?$numeric_limits@G@std@@2_NB
CONST	SEGMENT
?is_signed@?$numeric_limits@G@std@@2_NB DB 00H		; std::numeric_limits<unsigned short>::is_signed
CONST	ENDS
;	COMDAT ?max_digits10@?$numeric_limits@F@std@@2HB
CONST	SEGMENT
?max_digits10@?$numeric_limits@F@std@@2HB DD 06H	; std::numeric_limits<short>::max_digits10
CONST	ENDS
;	COMDAT ?digits10@?$numeric_limits@F@std@@2HB
CONST	SEGMENT
?digits10@?$numeric_limits@F@std@@2HB DD 04H		; std::numeric_limits<short>::digits10
CONST	ENDS
;	COMDAT ?digits@?$numeric_limits@F@std@@2HB
CONST	SEGMENT
?digits@?$numeric_limits@F@std@@2HB DD 0fH		; std::numeric_limits<short>::digits
CONST	ENDS
;	COMDAT ?is_signed@?$numeric_limits@F@std@@2_NB
CONST	SEGMENT
?is_signed@?$numeric_limits@F@std@@2_NB DB 01H		; std::numeric_limits<short>::is_signed
CONST	ENDS
;	COMDAT ?max_digits10@?$numeric_limits@E@std@@2HB
CONST	SEGMENT
?max_digits10@?$numeric_limits@E@std@@2HB DD 04H	; std::numeric_limits<unsigned char>::max_digits10
CONST	ENDS
;	COMDAT ?digits10@?$numeric_limits@E@std@@2HB
CONST	SEGMENT
?digits10@?$numeric_limits@E@std@@2HB DD 02H		; std::numeric_limits<unsigned char>::digits10
CONST	ENDS
;	COMDAT ?digits@?$numeric_limits@E@std@@2HB
CONST	SEGMENT
?digits@?$numeric_limits@E@std@@2HB DD 08H		; std::numeric_limits<unsigned char>::digits
CONST	ENDS
;	COMDAT ?is_signed@?$numeric_limits@E@std@@2_NB
CONST	SEGMENT
?is_signed@?$numeric_limits@E@std@@2_NB DB 00H		; std::numeric_limits<unsigned char>::is_signed
CONST	ENDS
;	COMDAT ?max_digits10@?$numeric_limits@C@std@@2HB
CONST	SEGMENT
?max_digits10@?$numeric_limits@C@std@@2HB DD 04H	; std::numeric_limits<signed char>::max_digits10
CONST	ENDS
;	COMDAT ?digits10@?$numeric_limits@C@std@@2HB
CONST	SEGMENT
?digits10@?$numeric_limits@C@std@@2HB DD 02H		; std::numeric_limits<signed char>::digits10
CONST	ENDS
;	COMDAT ?digits@?$numeric_limits@C@std@@2HB
CONST	SEGMENT
?digits@?$numeric_limits@C@std@@2HB DD 07H		; std::numeric_limits<signed char>::digits
CONST	ENDS
;	COMDAT ?is_signed@?$numeric_limits@C@std@@2_NB
CONST	SEGMENT
?is_signed@?$numeric_limits@C@std@@2_NB DB 01H		; std::numeric_limits<signed char>::is_signed
CONST	ENDS
;	COMDAT ?max_digits10@?$numeric_limits@_N@std@@2HB
CONST	SEGMENT
?max_digits10@?$numeric_limits@_N@std@@2HB DD 00H	; std::numeric_limits<bool>::max_digits10
CONST	ENDS
;	COMDAT ?digits10@?$numeric_limits@_N@std@@2HB
CONST	SEGMENT
?digits10@?$numeric_limits@_N@std@@2HB DD 00H		; std::numeric_limits<bool>::digits10
CONST	ENDS
;	COMDAT ?digits@?$numeric_limits@_N@std@@2HB
CONST	SEGMENT
?digits@?$numeric_limits@_N@std@@2HB DD 01H		; std::numeric_limits<bool>::digits
CONST	ENDS
;	COMDAT ?is_signed@?$numeric_limits@_N@std@@2_NB
CONST	SEGMENT
?is_signed@?$numeric_limits@_N@std@@2_NB DB 00H		; std::numeric_limits<bool>::is_signed
CONST	ENDS
;	COMDAT ?is_modulo@?$numeric_limits@_N@std@@2_NB
CONST	SEGMENT
?is_modulo@?$numeric_limits@_N@std@@2_NB DB 00H		; std::numeric_limits<bool>::is_modulo
CONST	ENDS
;	COMDAT ?max_digits10@?$numeric_limits@_W@std@@2HB
CONST	SEGMENT
?max_digits10@?$numeric_limits@_W@std@@2HB DD 06H	; std::numeric_limits<wchar_t>::max_digits10
CONST	ENDS
;	COMDAT ?digits10@?$numeric_limits@_W@std@@2HB
CONST	SEGMENT
?digits10@?$numeric_limits@_W@std@@2HB DD 04H		; std::numeric_limits<wchar_t>::digits10
CONST	ENDS
;	COMDAT ?digits@?$numeric_limits@_W@std@@2HB
CONST	SEGMENT
?digits@?$numeric_limits@_W@std@@2HB DD 010H		; std::numeric_limits<wchar_t>::digits
CONST	ENDS
;	COMDAT ?is_signed@?$numeric_limits@_W@std@@2_NB
CONST	SEGMENT
?is_signed@?$numeric_limits@_W@std@@2_NB DB 00H		; std::numeric_limits<wchar_t>::is_signed
CONST	ENDS
;	COMDAT ?max_digits10@?$numeric_limits@D@std@@2HB
CONST	SEGMENT
?max_digits10@?$numeric_limits@D@std@@2HB DD 04H	; std::numeric_limits<char>::max_digits10
CONST	ENDS
;	COMDAT ?digits10@?$numeric_limits@D@std@@2HB
CONST	SEGMENT
?digits10@?$numeric_limits@D@std@@2HB DD 02H		; std::numeric_limits<char>::digits10
CONST	ENDS
;	COMDAT ?digits@?$numeric_limits@D@std@@2HB
CONST	SEGMENT
?digits@?$numeric_limits@D@std@@2HB DD 07H		; std::numeric_limits<char>::digits
CONST	ENDS
;	COMDAT ?is_signed@?$numeric_limits@D@std@@2_NB
CONST	SEGMENT
?is_signed@?$numeric_limits@D@std@@2_NB DB 01H		; std::numeric_limits<char>::is_signed
CONST	ENDS
;	COMDAT ?radix@_Num_float_base@std@@2HB
CONST	SEGMENT
?radix@_Num_float_base@std@@2HB DD 02H			; std::_Num_float_base::radix
CONST	ENDS
;	COMDAT ?round_style@_Num_float_base@std@@2W4float_round_style@2@B
CONST	SEGMENT
?round_style@_Num_float_base@std@@2W4float_round_style@2@B DD 01H ; std::_Num_float_base::round_style
CONST	ENDS
;	COMDAT ?traps@_Num_float_base@std@@2_NB
CONST	SEGMENT
?traps@_Num_float_base@std@@2_NB DB 01H			; std::_Num_float_base::traps
CONST	ENDS
;	COMDAT ?tinyness_before@_Num_float_base@std@@2_NB
CONST	SEGMENT
?tinyness_before@_Num_float_base@std@@2_NB DB 01H	; std::_Num_float_base::tinyness_before
CONST	ENDS
;	COMDAT ?is_specialized@_Num_float_base@std@@2_NB
CONST	SEGMENT
?is_specialized@_Num_float_base@std@@2_NB DB 01H	; std::_Num_float_base::is_specialized
CONST	ENDS
;	COMDAT ?is_signed@_Num_float_base@std@@2_NB
CONST	SEGMENT
?is_signed@_Num_float_base@std@@2_NB DB 01H		; std::_Num_float_base::is_signed
CONST	ENDS
;	COMDAT ?is_modulo@_Num_float_base@std@@2_NB
CONST	SEGMENT
?is_modulo@_Num_float_base@std@@2_NB DB 00H		; std::_Num_float_base::is_modulo
CONST	ENDS
;	COMDAT ?is_integer@_Num_float_base@std@@2_NB
CONST	SEGMENT
?is_integer@_Num_float_base@std@@2_NB DB 00H		; std::_Num_float_base::is_integer
CONST	ENDS
;	COMDAT ?is_iec559@_Num_float_base@std@@2_NB
CONST	SEGMENT
?is_iec559@_Num_float_base@std@@2_NB DB 01H		; std::_Num_float_base::is_iec559
CONST	ENDS
;	COMDAT ?is_exact@_Num_float_base@std@@2_NB
CONST	SEGMENT
?is_exact@_Num_float_base@std@@2_NB DB 00H		; std::_Num_float_base::is_exact
CONST	ENDS
;	COMDAT ?is_bounded@_Num_float_base@std@@2_NB
CONST	SEGMENT
?is_bounded@_Num_float_base@std@@2_NB DB 01H		; std::_Num_float_base::is_bounded
CONST	ENDS
;	COMDAT ?has_signaling_NaN@_Num_float_base@std@@2_NB
CONST	SEGMENT
?has_signaling_NaN@_Num_float_base@std@@2_NB DB 01H	; std::_Num_float_base::has_signaling_NaN
CONST	ENDS
;	COMDAT ?has_quiet_NaN@_Num_float_base@std@@2_NB
CONST	SEGMENT
?has_quiet_NaN@_Num_float_base@std@@2_NB DB 01H		; std::_Num_float_base::has_quiet_NaN
CONST	ENDS
;	COMDAT ?has_infinity@_Num_float_base@std@@2_NB
CONST	SEGMENT
?has_infinity@_Num_float_base@std@@2_NB DB 01H		; std::_Num_float_base::has_infinity
CONST	ENDS
;	COMDAT ?has_denorm_loss@_Num_float_base@std@@2_NB
CONST	SEGMENT
?has_denorm_loss@_Num_float_base@std@@2_NB DB 01H	; std::_Num_float_base::has_denorm_loss
CONST	ENDS
;	COMDAT ?has_denorm@_Num_float_base@std@@2W4float_denorm_style@2@B
CONST	SEGMENT
?has_denorm@_Num_float_base@std@@2W4float_denorm_style@2@B DD 01H ; std::_Num_float_base::has_denorm
CONST	ENDS
;	COMDAT ?radix@_Num_int_base@std@@2HB
CONST	SEGMENT
?radix@_Num_int_base@std@@2HB DD 02H			; std::_Num_int_base::radix
CONST	ENDS
;	COMDAT ?is_specialized@_Num_int_base@std@@2_NB
CONST	SEGMENT
?is_specialized@_Num_int_base@std@@2_NB DB 01H		; std::_Num_int_base::is_specialized
CONST	ENDS
;	COMDAT ?is_modulo@_Num_int_base@std@@2_NB
CONST	SEGMENT
?is_modulo@_Num_int_base@std@@2_NB DB 01H		; std::_Num_int_base::is_modulo
CONST	ENDS
;	COMDAT ?is_integer@_Num_int_base@std@@2_NB
CONST	SEGMENT
?is_integer@_Num_int_base@std@@2_NB DB 01H		; std::_Num_int_base::is_integer
CONST	ENDS
;	COMDAT ?is_exact@_Num_int_base@std@@2_NB
CONST	SEGMENT
?is_exact@_Num_int_base@std@@2_NB DB 01H		; std::_Num_int_base::is_exact
CONST	ENDS
;	COMDAT ?is_bounded@_Num_int_base@std@@2_NB
CONST	SEGMENT
?is_bounded@_Num_int_base@std@@2_NB DB 01H		; std::_Num_int_base::is_bounded
CONST	ENDS
;	COMDAT ?radix@_Num_base@std@@2HB
CONST	SEGMENT
?radix@_Num_base@std@@2HB DD 00H			; std::_Num_base::radix
CONST	ENDS
;	COMDAT ?min_exponent10@_Num_base@std@@2HB
CONST	SEGMENT
?min_exponent10@_Num_base@std@@2HB DD 00H		; std::_Num_base::min_exponent10
CONST	ENDS
;	COMDAT ?min_exponent@_Num_base@std@@2HB
CONST	SEGMENT
?min_exponent@_Num_base@std@@2HB DD 00H			; std::_Num_base::min_exponent
CONST	ENDS
;	COMDAT ?max_exponent10@_Num_base@std@@2HB
CONST	SEGMENT
?max_exponent10@_Num_base@std@@2HB DD 00H		; std::_Num_base::max_exponent10
CONST	ENDS
;	COMDAT ?max_exponent@_Num_base@std@@2HB
CONST	SEGMENT
?max_exponent@_Num_base@std@@2HB DD 00H			; std::_Num_base::max_exponent
CONST	ENDS
;	COMDAT ?max_digits10@_Num_base@std@@2HB
CONST	SEGMENT
?max_digits10@_Num_base@std@@2HB DD 00H			; std::_Num_base::max_digits10
CONST	ENDS
;	COMDAT ?digits10@_Num_base@std@@2HB
CONST	SEGMENT
?digits10@_Num_base@std@@2HB DD 00H			; std::_Num_base::digits10
CONST	ENDS
;	COMDAT ?digits@_Num_base@std@@2HB
CONST	SEGMENT
?digits@_Num_base@std@@2HB DD 00H			; std::_Num_base::digits
CONST	ENDS
;	COMDAT ?round_style@_Num_base@std@@2W4float_round_style@2@B
CONST	SEGMENT
?round_style@_Num_base@std@@2W4float_round_style@2@B DD 00H ; std::_Num_base::round_style
CONST	ENDS
;	COMDAT ?traps@_Num_base@std@@2_NB
CONST	SEGMENT
?traps@_Num_base@std@@2_NB DB 00H			; std::_Num_base::traps
CONST	ENDS
;	COMDAT ?tinyness_before@_Num_base@std@@2_NB
CONST	SEGMENT
?tinyness_before@_Num_base@std@@2_NB DB 00H		; std::_Num_base::tinyness_before
CONST	ENDS
;	COMDAT ?is_specialized@_Num_base@std@@2_NB
CONST	SEGMENT
?is_specialized@_Num_base@std@@2_NB DB 00H		; std::_Num_base::is_specialized
CONST	ENDS
;	COMDAT ?is_signed@_Num_base@std@@2_NB
CONST	SEGMENT
?is_signed@_Num_base@std@@2_NB DB 00H			; std::_Num_base::is_signed
CONST	ENDS
;	COMDAT ?is_modulo@_Num_base@std@@2_NB
CONST	SEGMENT
?is_modulo@_Num_base@std@@2_NB DB 00H			; std::_Num_base::is_modulo
CONST	ENDS
;	COMDAT ?is_integer@_Num_base@std@@2_NB
CONST	SEGMENT
?is_integer@_Num_base@std@@2_NB DB 00H			; std::_Num_base::is_integer
CONST	ENDS
;	COMDAT ?is_iec559@_Num_base@std@@2_NB
CONST	SEGMENT
?is_iec559@_Num_base@std@@2_NB DB 00H			; std::_Num_base::is_iec559
CONST	ENDS
;	COMDAT ?is_exact@_Num_base@std@@2_NB
CONST	SEGMENT
?is_exact@_Num_base@std@@2_NB DB 00H			; std::_Num_base::is_exact
CONST	ENDS
;	COMDAT ?is_bounded@_Num_base@std@@2_NB
CONST	SEGMENT
?is_bounded@_Num_base@std@@2_NB DB 00H			; std::_Num_base::is_bounded
CONST	ENDS
;	COMDAT ?has_signaling_NaN@_Num_base@std@@2_NB
CONST	SEGMENT
?has_signaling_NaN@_Num_base@std@@2_NB DB 00H		; std::_Num_base::has_signaling_NaN
CONST	ENDS
;	COMDAT ?has_quiet_NaN@_Num_base@std@@2_NB
CONST	SEGMENT
?has_quiet_NaN@_Num_base@std@@2_NB DB 00H		; std::_Num_base::has_quiet_NaN
CONST	ENDS
;	COMDAT ?has_infinity@_Num_base@std@@2_NB
CONST	SEGMENT
?has_infinity@_Num_base@std@@2_NB DB 00H		; std::_Num_base::has_infinity
CONST	ENDS
;	COMDAT ?has_denorm_loss@_Num_base@std@@2_NB
CONST	SEGMENT
?has_denorm_loss@_Num_base@std@@2_NB DB 00H		; std::_Num_base::has_denorm_loss
CONST	ENDS
;	COMDAT ?has_denorm@_Num_base@std@@2W4float_denorm_style@2@B
CONST	SEGMENT
?has_denorm@_Num_base@std@@2W4float_denorm_style@2@B DD 00H ; std::_Num_base::has_denorm
CONST	ENDS
PUBLIC	??_7ET_WeaponSystem@@6B@			; ET_WeaponSystem::`vftable'
PUBLIC	??0ET_WeaponSystem@@QAE@PAVAbstRaven_Bot@@NNN@Z	; ET_WeaponSystem::ET_WeaponSystem
PUBLIC	??_R4ET_WeaponSystem@@6B@			; ET_WeaponSystem::`RTTI Complete Object Locator'
PUBLIC	??_R0?AVET_WeaponSystem@@@8			; ET_WeaponSystem `RTTI Type Descriptor'
PUBLIC	??_R3ET_WeaponSystem@@8				; ET_WeaponSystem::`RTTI Class Hierarchy Descriptor'
PUBLIC	??_R2ET_WeaponSystem@@8				; ET_WeaponSystem::`RTTI Base Class Array'
PUBLIC	??_R1A@?0A@EA@ET_WeaponSystem@@8		; ET_WeaponSystem::`RTTI Base Class Descriptor at (0,-1,0,64)'
PUBLIC	??_R1A@?0A@EA@AbstWeaponSystem@@8		; AbstWeaponSystem::`RTTI Base Class Descriptor at (0,-1,0,64)'
PUBLIC	??_R0?AVAbstWeaponSystem@@@8			; AbstWeaponSystem `RTTI Type Descriptor'
PUBLIC	??_R3AbstWeaponSystem@@8			; AbstWeaponSystem::`RTTI Class Hierarchy Descriptor'
PUBLIC	??_R2AbstWeaponSystem@@8			; AbstWeaponSystem::`RTTI Base Class Array'
PUBLIC	?SelectWeapon@ET_WeaponSystem@@UAEXXZ		; ET_WeaponSystem::SelectWeapon
EXTRN	??0AbstWeaponSystem@@QAE@PAVAbstRaven_Bot@@NNN@Z:PROC ; AbstWeaponSystem::AbstWeaponSystem
EXTRN	__fltused:DWORD
EXTRN	__RTC_CheckEsp:PROC
EXTRN	__RTC_Shutdown:PROC
EXTRN	__RTC_InitBase:PROC
EXTRN	??_7type_info@@6B@:QWORD			; type_info::`vftable'
EXTRN	?Initialize@AbstWeaponSystem@@UAEXXZ:PROC	; AbstWeaponSystem::Initialize
EXTRN	?TakeAimAndShoot@AbstWeaponSystem@@UBEXXZ:PROC	; AbstWeaponSystem::TakeAimAndShoot
EXTRN	?AddWeapon@AbstWeaponSystem@@UAEXI@Z:PROC	; AbstWeaponSystem::AddWeapon
;	COMDAT ??_R2AbstWeaponSystem@@8
; File c:\users\teaja\documents\artificial-fun\labravenprojecttest\raven\bots\etbot\et_weaponsystem.cpp
rdata$r	SEGMENT
??_R2AbstWeaponSystem@@8 DD FLAT:??_R1A@?0A@EA@AbstWeaponSystem@@8 ; AbstWeaponSystem::`RTTI Base Class Array'
rdata$r	ENDS
;	COMDAT ??_R3AbstWeaponSystem@@8
rdata$r	SEGMENT
??_R3AbstWeaponSystem@@8 DD 00H				; AbstWeaponSystem::`RTTI Class Hierarchy Descriptor'
	DD	00H
	DD	01H
	DD	FLAT:??_R2AbstWeaponSystem@@8
rdata$r	ENDS
;	COMDAT ??_R0?AVAbstWeaponSystem@@@8
_DATA	SEGMENT
??_R0?AVAbstWeaponSystem@@@8 DD FLAT:??_7type_info@@6B@	; AbstWeaponSystem `RTTI Type Descriptor'
	DD	00H
	DB	'.?AVAbstWeaponSystem@@', 00H
_DATA	ENDS
;	COMDAT ??_R1A@?0A@EA@AbstWeaponSystem@@8
rdata$r	SEGMENT
??_R1A@?0A@EA@AbstWeaponSystem@@8 DD FLAT:??_R0?AVAbstWeaponSystem@@@8 ; AbstWeaponSystem::`RTTI Base Class Descriptor at (0,-1,0,64)'
	DD	00H
	DD	00H
	DD	0ffffffffH
	DD	00H
	DD	040H
	DD	FLAT:??_R3AbstWeaponSystem@@8
rdata$r	ENDS
;	COMDAT ??_R1A@?0A@EA@ET_WeaponSystem@@8
rdata$r	SEGMENT
??_R1A@?0A@EA@ET_WeaponSystem@@8 DD FLAT:??_R0?AVET_WeaponSystem@@@8 ; ET_WeaponSystem::`RTTI Base Class Descriptor at (0,-1,0,64)'
	DD	01H
	DD	00H
	DD	0ffffffffH
	DD	00H
	DD	040H
	DD	FLAT:??_R3ET_WeaponSystem@@8
rdata$r	ENDS
;	COMDAT ??_R2ET_WeaponSystem@@8
rdata$r	SEGMENT
??_R2ET_WeaponSystem@@8 DD FLAT:??_R1A@?0A@EA@ET_WeaponSystem@@8 ; ET_WeaponSystem::`RTTI Base Class Array'
	DD	FLAT:??_R1A@?0A@EA@AbstWeaponSystem@@8
rdata$r	ENDS
;	COMDAT ??_R3ET_WeaponSystem@@8
rdata$r	SEGMENT
??_R3ET_WeaponSystem@@8 DD 00H				; ET_WeaponSystem::`RTTI Class Hierarchy Descriptor'
	DD	00H
	DD	02H
	DD	FLAT:??_R2ET_WeaponSystem@@8
rdata$r	ENDS
;	COMDAT ??_R0?AVET_WeaponSystem@@@8
_DATA	SEGMENT
??_R0?AVET_WeaponSystem@@@8 DD FLAT:??_7type_info@@6B@	; ET_WeaponSystem `RTTI Type Descriptor'
	DD	00H
	DB	'.?AVET_WeaponSystem@@', 00H
_DATA	ENDS
;	COMDAT ??_R4ET_WeaponSystem@@6B@
rdata$r	SEGMENT
??_R4ET_WeaponSystem@@6B@ DD 00H			; ET_WeaponSystem::`RTTI Complete Object Locator'
	DD	00H
	DD	00H
	DD	FLAT:??_R0?AVET_WeaponSystem@@@8
	DD	FLAT:??_R3ET_WeaponSystem@@8
rdata$r	ENDS
;	COMDAT ??_7ET_WeaponSystem@@6B@
CONST	SEGMENT
??_7ET_WeaponSystem@@6B@ DD FLAT:??_R4ET_WeaponSystem@@6B@ ; ET_WeaponSystem::`vftable'
	DD	FLAT:?Initialize@AbstWeaponSystem@@UAEXXZ
	DD	FLAT:?TakeAimAndShoot@AbstWeaponSystem@@UBEXXZ
	DD	FLAT:?SelectWeapon@ET_WeaponSystem@@UAEXXZ
	DD	FLAT:?AddWeapon@AbstWeaponSystem@@UAEXI@Z
CONST	ENDS
;	COMDAT rtc$TMZ
rtc$TMZ	SEGMENT
__RTC_Shutdown.rtc$TMZ DD FLAT:__RTC_Shutdown
rtc$TMZ	ENDS
;	COMDAT rtc$IMZ
rtc$IMZ	SEGMENT
__RTC_InitBase.rtc$IMZ DD FLAT:__RTC_InitBase
; Function compile flags: /Odtp /RTCsu
rtc$IMZ	ENDS
_TEXT	SEGMENT
_this$ = -4						; size = 4
_owner$ = 8						; size = 4
_ReactionTime$ = 12					; size = 8
_AimAccuracy$ = 20					; size = 8
_AimPersistance$ = 28					; size = 8
??0ET_WeaponSystem@@QAE@PAVAbstRaven_Bot@@NNN@Z PROC	; ET_WeaponSystem::ET_WeaponSystem
; _this$ = ecx

; 23   : {

	push	ebp
	mov	ebp, esp
	push	ecx
	mov	DWORD PTR [ebp-4], -858993460		; ccccccccH
	mov	DWORD PTR _this$[ebp], ecx
	sub	esp, 8
	fld	QWORD PTR _AimPersistance$[ebp]
	fstp	QWORD PTR [esp]
	sub	esp, 8
	fld	QWORD PTR _AimAccuracy$[ebp]
	fstp	QWORD PTR [esp]
	sub	esp, 8
	fld	QWORD PTR _ReactionTime$[ebp]
	fstp	QWORD PTR [esp]
	mov	eax, DWORD PTR _owner$[ebp]
	push	eax
	mov	ecx, DWORD PTR _this$[ebp]
	call	??0AbstWeaponSystem@@QAE@PAVAbstRaven_Bot@@NNN@Z ; AbstWeaponSystem::AbstWeaponSystem
	mov	ecx, DWORD PTR _this$[ebp]
	mov	DWORD PTR [ecx], OFFSET ??_7ET_WeaponSystem@@6B@

; 24   : 
; 25   : }

	mov	eax, DWORD PTR _this$[ebp]
	add	esp, 4
	cmp	ebp, esp
	call	__RTC_CheckEsp
	mov	esp, ebp
	pop	ebp
	ret	28					; 0000001cH
??0ET_WeaponSystem@@QAE@PAVAbstRaven_Bot@@NNN@Z ENDP	; ET_WeaponSystem::ET_WeaponSystem
_TEXT	ENDS
PUBLIC	??A?$map@HPAVRaven_Weapon@@U?$less@H@std@@V?$allocator@U?$pair@$$CBHPAVRaven_Weapon@@@std@@@3@@std@@QAEAAPAVRaven_Weapon@@$$QAH@Z ; std::map<int,Raven_Weapon *,std::less<int>,std::allocator<std::pair<int const ,Raven_Weapon *> > >::operator[]
PUBLIC	??1?$_Tree_const_iterator@V?$_Tree_val@V?$_Tmap_traits@HPAVRaven_Weapon@@U?$less@H@std@@V?$allocator@U?$pair@$$CBHPAVRaven_Weapon@@@std@@@3@$0A@@std@@@std@@@std@@QAE@XZ ; std::_Tree_const_iterator<std::_Tree_val<std::_Tmap_traits<int,Raven_Weapon *,std::less<int>,std::allocator<std::pair<int const ,Raven_Weapon *> >,0> > >::~_Tree_const_iterator<std::_Tree_val<std::_Tmap_traits<int,Raven_Weapon *,std::less<int>,std::allocator<std::pair<int const ,Raven_Weapon *> >,0> > >
PUBLIC	??C?$_Tree_unchecked_const_iterator@V?$_Tree_val@V?$_Tmap_traits@HPAVRaven_Weapon@@U?$less@H@std@@V?$allocator@U?$pair@$$CBHPAVRaven_Weapon@@@std@@@3@$0A@@std@@@std@@U_Iterator_base12@2@@std@@QBEPBU?$pair@$$CBHPAVRaven_Weapon@@@1@XZ ; std::_Tree_unchecked_const_iterator<std::_Tree_val<std::_Tmap_traits<int,Raven_Weapon *,std::less<int>,std::allocator<std::pair<int const ,Raven_Weapon *> >,0> >,std::_Iterator_base12>::operator->
PUBLIC	??9?$_Tree_const_iterator@V?$_Tree_val@V?$_Tmap_traits@HPAVRaven_Weapon@@U?$less@H@std@@V?$allocator@U?$pair@$$CBHPAVRaven_Weapon@@@std@@@3@$0A@@std@@@std@@@std@@QBE_NABV01@@Z ; std::_Tree_const_iterator<std::_Tree_val<std::_Tmap_traits<int,Raven_Weapon *,std::less<int>,std::allocator<std::pair<int const ,Raven_Weapon *> >,0> > >::operator!=
PUBLIC	?end@?$_Tree@V?$_Tmap_traits@HPAVRaven_Weapon@@U?$less@H@std@@V?$allocator@U?$pair@$$CBHPAVRaven_Weapon@@@std@@@3@$0A@@std@@@std@@QAE?AV?$_Tree_iterator@V?$_Tree_val@V?$_Tmap_traits@HPAVRaven_Weapon@@U?$less@H@std@@V?$allocator@U?$pair@$$CBHPAVRaven_Weapon@@@std@@@3@$0A@@std@@@std@@@2@XZ ; std::_Tree<std::_Tmap_traits<int,Raven_Weapon *,std::less<int>,std::allocator<std::pair<int const ,Raven_Weapon *> >,0> >::end
PUBLIC	??E?$_Tree_const_iterator@V?$_Tree_val@V?$_Tmap_traits@HPAVRaven_Weapon@@U?$less@H@std@@V?$allocator@U?$pair@$$CBHPAVRaven_Weapon@@@std@@@3@$0A@@std@@@std@@@std@@QAEAAV01@XZ ; std::_Tree_const_iterator<std::_Tree_val<std::_Tmap_traits<int,Raven_Weapon *,std::less<int>,std::allocator<std::pair<int const ,Raven_Weapon *> >,0> > >::operator++
PUBLIC	??1?$_Tree_iterator@V?$_Tree_val@V?$_Tmap_traits@HPAVRaven_Weapon@@U?$less@H@std@@V?$allocator@U?$pair@$$CBHPAVRaven_Weapon@@@std@@@3@$0A@@std@@@std@@@std@@QAE@XZ ; std::_Tree_iterator<std::_Tree_val<std::_Tmap_traits<int,Raven_Weapon *,std::less<int>,std::allocator<std::pair<int const ,Raven_Weapon *> >,0> > >::~_Tree_iterator<std::_Tree_val<std::_Tmap_traits<int,Raven_Weapon *,std::less<int>,std::allocator<std::pair<int const ,Raven_Weapon *> >,0> > >
PUBLIC	??4?$_Tree_const_iterator@V?$_Tree_val@V?$_Tmap_traits@HPAVRaven_Weapon@@U?$less@H@std@@V?$allocator@U?$pair@$$CBHPAVRaven_Weapon@@@std@@@3@$0A@@std@@@std@@@std@@QAEAAV01@ABV01@@Z ; std::_Tree_const_iterator<std::_Tree_val<std::_Tmap_traits<int,Raven_Weapon *,std::less<int>,std::allocator<std::pair<int const ,Raven_Weapon *> >,0> > >::operator=
PUBLIC	?begin@?$_Tree@V?$_Tmap_traits@HPAVRaven_Weapon@@U?$less@H@std@@V?$allocator@U?$pair@$$CBHPAVRaven_Weapon@@@std@@@3@$0A@@std@@@std@@QAE?AV?$_Tree_iterator@V?$_Tree_val@V?$_Tmap_traits@HPAVRaven_Weapon@@U?$less@H@std@@V?$allocator@U?$pair@$$CBHPAVRaven_Weapon@@@std@@@3@$0A@@std@@@std@@@2@XZ ; std::_Tree<std::_Tmap_traits<int,Raven_Weapon *,std::less<int>,std::allocator<std::pair<int const ,Raven_Weapon *> >,0> >::begin
PUBLIC	??0?$_Tree_const_iterator@V?$_Tree_val@V?$_Tmap_traits@HPAVRaven_Weapon@@U?$less@H@std@@V?$allocator@U?$pair@$$CBHPAVRaven_Weapon@@@std@@@3@$0A@@std@@@std@@@std@@QAE@XZ ; std::_Tree_const_iterator<std::_Tree_val<std::_Tmap_traits<int,Raven_Weapon *,std::less<int>,std::allocator<std::pair<int const ,Raven_Weapon *> >,0> > >::_Tree_const_iterator<std::_Tree_val<std::_Tmap_traits<int,Raven_Weapon *,std::less<int>,std::allocator<std::pair<int const ,Raven_Weapon *> >,0> > >
PUBLIC	?Vec2DDistance@@YANABUVector2D@@0@Z		; Vec2DDistance
PUBLIC	?Pos@BaseGameEntity@@QBE?AUVector2D@@XZ		; BaseGameEntity::Pos
PUBLIC	?GetTarget@AbstTargetingSystem@@QBEPAVAbstRaven_Bot@@XZ ; AbstTargetingSystem::GetTarget
PUBLIC	?isTargetPresent@AbstTargetingSystem@@QBE_NXZ	; AbstTargetingSystem::isTargetPresent
PUBLIC	?GetTargetSys@AbstRaven_Bot@@QAEQAVAbstTargetingSystem@@XZ ; AbstRaven_Bot::GetTargetSys
EXTRN	___security_cookie:DWORD
EXTRN	___CxxFrameHandler3:PROC
EXTRN	@__security_check_cookie@4:PROC
EXTRN	@_RTC_CheckStackVars@8:PROC
xdata$x	SEGMENT
__unwindtable$?SelectWeapon@ET_WeaponSystem@@UAEXXZ DD 0ffffffffH
	DD	FLAT:__unwindfunclet$?SelectWeapon@ET_WeaponSystem@@UAEXXZ$0
	DD	00H
	DD	FLAT:__unwindfunclet$?SelectWeapon@ET_WeaponSystem@@UAEXXZ$1
	DD	00H
	DD	FLAT:__unwindfunclet$?SelectWeapon@ET_WeaponSystem@@UAEXXZ$2
__ehfuncinfo$?SelectWeapon@ET_WeaponSystem@@UAEXXZ DD 019930522H
	DD	03H
	DD	FLAT:__unwindtable$?SelectWeapon@ET_WeaponSystem@@UAEXXZ
	DD	2 DUP(00H)
	DD	2 DUP(00H)
	DD	00H
	DD	01H
; Function compile flags: /Odtp /RTCsu
xdata$x	ENDS
_TEXT	SEGMENT
tv224 = -148						; size = 4
tv263 = -144						; size = 4
tv264 = -140						; size = 4
tv261 = -136						; size = 4
tv153 = -132						; size = 4
tv83 = -128						; size = 4
$T150216 = -124						; size = 4
$T150215 = -120						; size = 12
$T150214 = -105						; size = 1
$T150213 = -104						; size = 12
$T150212 = -92						; size = 16
$T150211 = -76						; size = 16
_score$137686 = -60					; size = 8
_curWeap$137473 = -48					; size = 12
_BestSoFar$137358 = -32					; size = 8
_DistToTarget$137355 = -24				; size = 8
_this$ = -16						; size = 4
__$EHRec$ = -12						; size = 12
?SelectWeapon@ET_WeaponSystem@@UAEXXZ PROC		; ET_WeaponSystem::SelectWeapon
; _this$ = ecx

; 32   : { 

	push	ebp
	mov	ebp, esp
	push	-1
	push	__ehhandler$?SelectWeapon@ET_WeaponSystem@@UAEXXZ
	mov	eax, DWORD PTR fs:0
	push	eax
	sub	esp, 136				; 00000088H
	push	esi
	push	edi
	push	ecx
	lea	edi, DWORD PTR [ebp-148]
	mov	ecx, 34					; 00000022H
	mov	eax, -858993460				; ccccccccH
	rep stosd
	pop	ecx
	mov	eax, DWORD PTR ___security_cookie
	xor	eax, ebp
	push	eax
	lea	eax, DWORD PTR __$EHRec$[ebp]
	mov	DWORD PTR fs:0, eax
	mov	DWORD PTR _this$[ebp], ecx

; 33   :   //if a target is present use fuzzy logic to determine the most desirable 
; 34   :   //weapon.
; 35   :   if (m_pOwner->GetTargetSys()->isTargetPresent() && m_pOwner->GetTargetSys()->isTargetWithinFOV())

	mov	eax, DWORD PTR _this$[ebp]
	mov	ecx, DWORD PTR [eax+8]
	call	?GetTargetSys@AbstRaven_Bot@@QAEQAVAbstTargetingSystem@@XZ ; AbstRaven_Bot::GetTargetSys
	mov	ecx, eax
	call	?isTargetPresent@AbstTargetingSystem@@QBE_NXZ ; AbstTargetingSystem::isTargetPresent
	movzx	ecx, al
	test	ecx, ecx
	je	$LN7@SelectWeap
	mov	edx, DWORD PTR _this$[ebp]
	mov	ecx, DWORD PTR [edx+8]
	call	?GetTargetSys@AbstRaven_Bot@@QAEQAVAbstTargetingSystem@@XZ ; AbstRaven_Bot::GetTargetSys
	mov	DWORD PTR tv83[ebp], eax
	mov	eax, DWORD PTR tv83[ebp]
	mov	edx, DWORD PTR [eax]
	mov	esi, esp
	mov	ecx, DWORD PTR tv83[ebp]
	mov	eax, DWORD PTR [edx+4]
	call	eax
	cmp	esi, esp
	call	__RTC_CheckEsp
	movzx	ecx, al
	test	ecx, ecx
	je	$LN7@SelectWeap

; 36   :   {
; 37   :     //calculate the distance to the target
; 38   :     double DistToTarget = Vec2DDistance(m_pOwner->Pos(), m_pOwner->GetTargetSys()->GetTarget()->Pos());

	lea	edx, DWORD PTR $T150211[ebp]
	push	edx
	mov	eax, DWORD PTR _this$[ebp]
	mov	ecx, DWORD PTR [eax+8]
	call	?GetTargetSys@AbstRaven_Bot@@QAEQAVAbstTargetingSystem@@XZ ; AbstRaven_Bot::GetTargetSys
	mov	ecx, eax
	call	?GetTarget@AbstTargetingSystem@@QBEPAVAbstRaven_Bot@@XZ ; AbstTargetingSystem::GetTarget
	mov	ecx, eax
	call	?Pos@BaseGameEntity@@QBE?AUVector2D@@XZ	; BaseGameEntity::Pos
	push	eax
	lea	ecx, DWORD PTR $T150212[ebp]
	push	ecx
	mov	edx, DWORD PTR _this$[ebp]
	mov	ecx, DWORD PTR [edx+8]
	call	?Pos@BaseGameEntity@@QBE?AUVector2D@@XZ	; BaseGameEntity::Pos
	push	eax
	call	?Vec2DDistance@@YANABUVector2D@@0@Z	; Vec2DDistance
	add	esp, 8
	fstp	QWORD PTR _DistToTarget$137355[ebp]

; 39   : 
; 40   :     //for each weapon in the inventory calculate its desirability given the 
; 41   :     //current situation. The most desirable weapon is selected
; 42   :     double BestSoFar = MinDouble;

	fld	QWORD PTR _MinDouble
	fstp	QWORD PTR _BestSoFar$137358[ebp]

; 43   : 
; 44   :     WeaponMap::const_iterator curWeap;

	lea	ecx, DWORD PTR _curWeap$137473[ebp]
	call	??0?$_Tree_const_iterator@V?$_Tree_val@V?$_Tmap_traits@HPAVRaven_Weapon@@U?$less@H@std@@V?$allocator@U?$pair@$$CBHPAVRaven_Weapon@@@std@@@3@$0A@@std@@@std@@@std@@QAE@XZ ; std::_Tree_const_iterator<std::_Tree_val<std::_Tmap_traits<int,Raven_Weapon *,std::less<int>,std::allocator<std::pair<int const ,Raven_Weapon *> >,0> > >::_Tree_const_iterator<std::_Tree_val<std::_Tmap_traits<int,Raven_Weapon *,std::less<int>,std::allocator<std::pair<int const ,Raven_Weapon *> >,0> > >
	mov	DWORD PTR __$EHRec$[ebp+8], 0

; 45   :     for (curWeap=m_WeaponMap.begin(); curWeap != m_WeaponMap.end(); ++curWeap)

	lea	eax, DWORD PTR $T150213[ebp]
	push	eax
	mov	ecx, DWORD PTR _this$[ebp]
	add	ecx, 12					; 0000000cH
	call	?begin@?$_Tree@V?$_Tmap_traits@HPAVRaven_Weapon@@U?$less@H@std@@V?$allocator@U?$pair@$$CBHPAVRaven_Weapon@@@std@@@3@$0A@@std@@@std@@QAE?AV?$_Tree_iterator@V?$_Tree_val@V?$_Tmap_traits@HPAVRaven_Weapon@@U?$less@H@std@@V?$allocator@U?$pair@$$CBHPAVRaven_Weapon@@@std@@@3@$0A@@std@@@std@@@2@XZ ; std::_Tree<std::_Tmap_traits<int,Raven_Weapon *,std::less<int>,std::allocator<std::pair<int const ,Raven_Weapon *> >,0> >::begin
	mov	DWORD PTR tv153[ebp], eax
	mov	ecx, DWORD PTR tv153[ebp]
	mov	DWORD PTR tv261[ebp], ecx
	mov	BYTE PTR __$EHRec$[ebp+8], 1
	mov	edx, DWORD PTR tv261[ebp]
	push	edx
	lea	ecx, DWORD PTR _curWeap$137473[ebp]
	call	??4?$_Tree_const_iterator@V?$_Tree_val@V?$_Tmap_traits@HPAVRaven_Weapon@@U?$less@H@std@@V?$allocator@U?$pair@$$CBHPAVRaven_Weapon@@@std@@@3@$0A@@std@@@std@@@std@@QAEAAV01@ABV01@@Z
	mov	BYTE PTR __$EHRec$[ebp+8], 0
	lea	ecx, DWORD PTR $T150213[ebp]
	call	??1?$_Tree_iterator@V?$_Tree_val@V?$_Tmap_traits@HPAVRaven_Weapon@@U?$less@H@std@@V?$allocator@U?$pair@$$CBHPAVRaven_Weapon@@@std@@@3@$0A@@std@@@std@@@std@@QAE@XZ
	jmp	SHORT $LN6@SelectWeap
$LN5@SelectWeap:
	lea	ecx, DWORD PTR _curWeap$137473[ebp]
	call	??E?$_Tree_const_iterator@V?$_Tree_val@V?$_Tmap_traits@HPAVRaven_Weapon@@U?$less@H@std@@V?$allocator@U?$pair@$$CBHPAVRaven_Weapon@@@std@@@3@$0A@@std@@@std@@@std@@QAEAAV01@XZ ; std::_Tree_const_iterator<std::_Tree_val<std::_Tmap_traits<int,Raven_Weapon *,std::less<int>,std::allocator<std::pair<int const ,Raven_Weapon *> >,0> > >::operator++
$LN6@SelectWeap:
	lea	eax, DWORD PTR $T150215[ebp]
	push	eax
	mov	ecx, DWORD PTR _this$[ebp]
	add	ecx, 12					; 0000000cH
	call	?end@?$_Tree@V?$_Tmap_traits@HPAVRaven_Weapon@@U?$less@H@std@@V?$allocator@U?$pair@$$CBHPAVRaven_Weapon@@@std@@@3@$0A@@std@@@std@@QAE?AV?$_Tree_iterator@V?$_Tree_val@V?$_Tmap_traits@HPAVRaven_Weapon@@U?$less@H@std@@V?$allocator@U?$pair@$$CBHPAVRaven_Weapon@@@std@@@3@$0A@@std@@@std@@@2@XZ ; std::_Tree<std::_Tmap_traits<int,Raven_Weapon *,std::less<int>,std::allocator<std::pair<int const ,Raven_Weapon *> >,0> >::end
	mov	DWORD PTR tv264[ebp], eax
	mov	ecx, DWORD PTR tv264[ebp]
	mov	DWORD PTR tv263[ebp], ecx
	mov	BYTE PTR __$EHRec$[ebp+8], 2
	mov	edx, DWORD PTR tv263[ebp]
	push	edx
	lea	ecx, DWORD PTR _curWeap$137473[ebp]
	call	??9?$_Tree_const_iterator@V?$_Tree_val@V?$_Tmap_traits@HPAVRaven_Weapon@@U?$less@H@std@@V?$allocator@U?$pair@$$CBHPAVRaven_Weapon@@@std@@@3@$0A@@std@@@std@@@std@@QBE_NABV01@@Z ; std::_Tree_const_iterator<std::_Tree_val<std::_Tmap_traits<int,Raven_Weapon *,std::less<int>,std::allocator<std::pair<int const ,Raven_Weapon *> >,0> > >::operator!=
	mov	BYTE PTR $T150214[ebp], al
	mov	BYTE PTR __$EHRec$[ebp+8], 0
	lea	ecx, DWORD PTR $T150215[ebp]
	call	??1?$_Tree_iterator@V?$_Tree_val@V?$_Tmap_traits@HPAVRaven_Weapon@@U?$less@H@std@@V?$allocator@U?$pair@$$CBHPAVRaven_Weapon@@@std@@@3@$0A@@std@@@std@@@std@@QAE@XZ
	movzx	eax, BYTE PTR $T150214[ebp]
	test	eax, eax
	je	SHORT $LN4@SelectWeap

; 46   :     {
; 47   :       //grab the desirability of this weapon (desirability is based upon
; 48   :       //distance to target and ammo remaining)
; 49   :       if (curWeap->second)

	lea	ecx, DWORD PTR _curWeap$137473[ebp]
	call	??C?$_Tree_unchecked_const_iterator@V?$_Tree_val@V?$_Tmap_traits@HPAVRaven_Weapon@@U?$less@H@std@@V?$allocator@U?$pair@$$CBHPAVRaven_Weapon@@@std@@@3@$0A@@std@@@std@@U_Iterator_base12@2@@std@@QBEPBU?$pair@$$CBHPAVRaven_Weapon@@@1@XZ ; std::_Tree_unchecked_const_iterator<std::_Tree_val<std::_Tmap_traits<int,Raven_Weapon *,std::less<int>,std::allocator<std::pair<int const ,Raven_Weapon *> >,0> >,std::_Iterator_base12>::operator->
	cmp	DWORD PTR [eax+4], 0
	je	SHORT $LN2@SelectWeap

; 50   :       {
; 51   :         double score = curWeap->second->GetDesirability(DistToTarget);

	lea	ecx, DWORD PTR _curWeap$137473[ebp]
	call	??C?$_Tree_unchecked_const_iterator@V?$_Tree_val@V?$_Tmap_traits@HPAVRaven_Weapon@@U?$less@H@std@@V?$allocator@U?$pair@$$CBHPAVRaven_Weapon@@@std@@@3@$0A@@std@@@std@@U_Iterator_base12@2@@std@@QBEPBU?$pair@$$CBHPAVRaven_Weapon@@@1@XZ ; std::_Tree_unchecked_const_iterator<std::_Tree_val<std::_Tmap_traits<int,Raven_Weapon *,std::less<int>,std::allocator<std::pair<int const ,Raven_Weapon *> >,0> >,std::_Iterator_base12>::operator->
	mov	ecx, DWORD PTR [eax+4]
	mov	DWORD PTR tv224[ebp], ecx
	mov	esi, esp
	sub	esp, 8
	fld	QWORD PTR _DistToTarget$137355[ebp]
	fstp	QWORD PTR [esp]
	mov	edx, DWORD PTR tv224[ebp]
	mov	eax, DWORD PTR [edx]
	mov	ecx, DWORD PTR tv224[ebp]
	mov	edx, DWORD PTR [eax+16]
	call	edx
	cmp	esi, esp
	call	__RTC_CheckEsp
	fstp	QWORD PTR _score$137686[ebp]

; 52   : 
; 53   :         //if it is the most desirable so far select it
; 54   :         if (score > BestSoFar)

	fld	QWORD PTR _BestSoFar$137358[ebp]
	fcomp	QWORD PTR _score$137686[ebp]
	fnstsw	ax
	test	ah, 5
	jp	SHORT $LN2@SelectWeap

; 55   :         {
; 56   :           BestSoFar = score;

	fld	QWORD PTR _score$137686[ebp]
	fstp	QWORD PTR _BestSoFar$137358[ebp]

; 57   : 
; 58   :           //place the weapon in the bot's hand.
; 59   :           m_pCurrentWeapon = curWeap->second;

	lea	ecx, DWORD PTR _curWeap$137473[ebp]
	call	??C?$_Tree_unchecked_const_iterator@V?$_Tree_val@V?$_Tmap_traits@HPAVRaven_Weapon@@U?$less@H@std@@V?$allocator@U?$pair@$$CBHPAVRaven_Weapon@@@std@@@3@$0A@@std@@@std@@U_Iterator_base12@2@@std@@QBEPBU?$pair@$$CBHPAVRaven_Weapon@@@1@XZ ; std::_Tree_unchecked_const_iterator<std::_Tree_val<std::_Tmap_traits<int,Raven_Weapon *,std::less<int>,std::allocator<std::pair<int const ,Raven_Weapon *> >,0> >,std::_Iterator_base12>::operator->
	mov	ecx, DWORD PTR _this$[ebp]
	mov	edx, DWORD PTR [eax+4]
	mov	DWORD PTR [ecx+32], edx
$LN2@SelectWeap:

; 60   :         }
; 61   :       }
; 62   :     }

	jmp	$LN5@SelectWeap
$LN4@SelectWeap:

; 63   :   }

	mov	DWORD PTR __$EHRec$[ebp+8], -1
	lea	ecx, DWORD PTR _curWeap$137473[ebp]
	call	??1?$_Tree_const_iterator@V?$_Tree_val@V?$_Tmap_traits@HPAVRaven_Weapon@@U?$less@H@std@@V?$allocator@U?$pair@$$CBHPAVRaven_Weapon@@@std@@@3@$0A@@std@@@std@@@std@@QAE@XZ

; 64   : 
; 65   :   else

	jmp	SHORT $LN1@SelectWeap
$LN7@SelectWeap:

; 66   :   {
; 67   :     m_pCurrentWeapon = m_WeaponMap[type_blaster];

	mov	DWORD PTR $T150216[ebp], 9
	lea	eax, DWORD PTR $T150216[ebp]
	push	eax
	mov	ecx, DWORD PTR _this$[ebp]
	add	ecx, 12					; 0000000cH
	call	??A?$map@HPAVRaven_Weapon@@U?$less@H@std@@V?$allocator@U?$pair@$$CBHPAVRaven_Weapon@@@std@@@3@@std@@QAEAAPAVRaven_Weapon@@$$QAH@Z ; std::map<int,Raven_Weapon *,std::less<int>,std::allocator<std::pair<int const ,Raven_Weapon *> > >::operator[]
	mov	ecx, DWORD PTR _this$[ebp]
	mov	edx, DWORD PTR [eax]
	mov	DWORD PTR [ecx+32], edx
$LN1@SelectWeap:

; 68   :   }
; 69   : }

	push	edx
	mov	ecx, ebp
	push	eax
	lea	edx, DWORD PTR $LN16@SelectWeap
	call	@_RTC_CheckStackVars@8
	pop	eax
	pop	edx
	mov	ecx, DWORD PTR __$EHRec$[ebp]
	mov	DWORD PTR fs:0, ecx
	pop	ecx
	pop	edi
	pop	esi
	add	esp, 148				; 00000094H
	cmp	ebp, esp
	call	__RTC_CheckEsp
	mov	esp, ebp
	pop	ebp
	ret	0
	npad	3
$LN16@SelectWeap:
	DD	1
	DD	$LN15@SelectWeap
$LN15@SelectWeap:
	DD	-48					; ffffffd0H
	DD	12					; 0000000cH
	DD	$LN13@SelectWeap
$LN13@SelectWeap:
	DB	99					; 00000063H
	DB	117					; 00000075H
	DB	114					; 00000072H
	DB	87					; 00000057H
	DB	101					; 00000065H
	DB	97					; 00000061H
	DB	112					; 00000070H
	DB	0
_TEXT	ENDS
text$x	SEGMENT
__unwindfunclet$?SelectWeapon@ET_WeaponSystem@@UAEXXZ$0:
	lea	ecx, DWORD PTR _curWeap$137473[ebp]
	jmp	??1?$_Tree_const_iterator@V?$_Tree_val@V?$_Tmap_traits@HPAVRaven_Weapon@@U?$less@H@std@@V?$allocator@U?$pair@$$CBHPAVRaven_Weapon@@@std@@@3@$0A@@std@@@std@@@std@@QAE@XZ
__unwindfunclet$?SelectWeapon@ET_WeaponSystem@@UAEXXZ$1:
	lea	ecx, DWORD PTR $T150213[ebp]
	jmp	??1?$_Tree_iterator@V?$_Tree_val@V?$_Tmap_traits@HPAVRaven_Weapon@@U?$less@H@std@@V?$allocator@U?$pair@$$CBHPAVRaven_Weapon@@@std@@@3@$0A@@std@@@std@@@std@@QAE@XZ
__unwindfunclet$?SelectWeapon@ET_WeaponSystem@@UAEXXZ$2:
	lea	ecx, DWORD PTR $T150215[ebp]
	jmp	??1?$_Tree_iterator@V?$_Tree_val@V?$_Tmap_traits@HPAVRaven_Weapon@@U?$less@H@std@@V?$allocator@U?$pair@$$CBHPAVRaven_Weapon@@@std@@@3@$0A@@std@@@std@@@std@@QAE@XZ
__ehhandler$?SelectWeapon@ET_WeaponSystem@@UAEXXZ:
	mov	edx, DWORD PTR [esp+8]
	lea	eax, DWORD PTR [edx+12]
	mov	ecx, DWORD PTR [edx-148]
	xor	ecx, eax
	call	@__security_check_cookie@4
	mov	eax, OFFSET __ehfuncinfo$?SelectWeapon@ET_WeaponSystem@@UAEXXZ
	jmp	___CxxFrameHandler3
text$x	ENDS
?SelectWeapon@ET_WeaponSystem@@UAEXXZ ENDP		; ET_WeaponSystem::SelectWeapon
EXTRN	_sqrt:PROC
; Function compile flags: /Odtp /RTCsu
; File c:\users\teaja\documents\artificial-fun\labravenprojecttest\common\2d\vector2d.h
;	COMDAT ?Vec2DDistance@@YANABUVector2D@@0@Z
_TEXT	SEGMENT
_xSeparation$ = -16					; size = 8
_ySeparation$ = -8					; size = 8
_v1$ = 8						; size = 4
_v2$ = 12						; size = 4
?Vec2DDistance@@YANABUVector2D@@0@Z PROC		; Vec2DDistance, COMDAT

; 274  : {

	push	ebp
	mov	ebp, esp
	sub	esp, 16					; 00000010H
	mov	eax, -858993460				; ccccccccH
	mov	DWORD PTR [ebp-16], eax
	mov	DWORD PTR [ebp-12], eax
	mov	DWORD PTR [ebp-8], eax
	mov	DWORD PTR [ebp-4], eax

; 275  : 
; 276  :   double ySeparation = v2.y - v1.y;

	mov	eax, DWORD PTR _v2$[ebp]
	mov	ecx, DWORD PTR _v1$[ebp]
	fld	QWORD PTR [eax+8]
	fsub	QWORD PTR [ecx+8]
	fstp	QWORD PTR _ySeparation$[ebp]

; 277  :   double xSeparation = v2.x - v1.x;

	mov	edx, DWORD PTR _v2$[ebp]
	mov	eax, DWORD PTR _v1$[ebp]
	fld	QWORD PTR [edx]
	fsub	QWORD PTR [eax]
	fstp	QWORD PTR _xSeparation$[ebp]

; 278  : 
; 279  :   return sqrt(ySeparation*ySeparation + xSeparation*xSeparation);

	fld	QWORD PTR _ySeparation$[ebp]
	fmul	QWORD PTR _ySeparation$[ebp]
	fld	QWORD PTR _xSeparation$[ebp]
	fmul	QWORD PTR _xSeparation$[ebp]
	faddp	ST(1), ST(0)
	sub	esp, 8
	fstp	QWORD PTR [esp]
	call	_sqrt
	add	esp, 8

; 280  : }

	add	esp, 16					; 00000010H
	cmp	ebp, esp
	call	__RTC_CheckEsp
	mov	esp, ebp
	pop	ebp
	ret	0
?Vec2DDistance@@YANABUVector2D@@0@Z ENDP		; Vec2DDistance
; Function compile flags: /Odtp /RTCsu
; File c:\users\teaja\documents\artificial-fun\labravenprojecttest\common\game\basegameentity.h
_TEXT	ENDS
;	COMDAT ?Pos@BaseGameEntity@@QBE?AUVector2D@@XZ
_TEXT	SEGMENT
_this$ = -4						; size = 4
___$ReturnUdt$ = 8					; size = 4
?Pos@BaseGameEntity@@QBE?AUVector2D@@XZ PROC		; BaseGameEntity::Pos, COMDAT
; _this$ = ecx

; 89   :   Vector2D     Pos()const{return m_vPosition;}

	push	ebp
	mov	ebp, esp
	push	ecx
	mov	DWORD PTR [ebp-4], -858993460		; ccccccccH
	mov	DWORD PTR _this$[ebp], ecx
	mov	eax, DWORD PTR _this$[ebp]
	add	eax, 24					; 00000018H
	mov	ecx, DWORD PTR ___$ReturnUdt$[ebp]
	mov	edx, DWORD PTR [eax]
	mov	DWORD PTR [ecx], edx
	mov	edx, DWORD PTR [eax+4]
	mov	DWORD PTR [ecx+4], edx
	mov	edx, DWORD PTR [eax+8]
	mov	DWORD PTR [ecx+8], edx
	mov	eax, DWORD PTR [eax+12]
	mov	DWORD PTR [ecx+12], eax
	mov	eax, DWORD PTR ___$ReturnUdt$[ebp]
	mov	esp, ebp
	pop	ebp
	ret	4
?Pos@BaseGameEntity@@QBE?AUVector2D@@XZ ENDP		; BaseGameEntity::Pos
; Function compile flags: /Odtp /RTCsu
; File c:\users\teaja\documents\artificial-fun\labravenprojecttest\raven\absttargetingsystem.h
_TEXT	ENDS
;	COMDAT ?isTargetPresent@AbstTargetingSystem@@QBE_NXZ
_TEXT	SEGMENT
_this$ = -4						; size = 4
?isTargetPresent@AbstTargetingSystem@@QBE_NXZ PROC	; AbstTargetingSystem::isTargetPresent, COMDAT
; _this$ = ecx

; 43   :   bool       isTargetPresent()const{return m_pCurrentTarget != 0;}

	push	ebp
	mov	ebp, esp
	push	ecx
	mov	DWORD PTR [ebp-4], -858993460		; ccccccccH
	mov	DWORD PTR _this$[ebp], ecx
	mov	eax, DWORD PTR _this$[ebp]
	xor	ecx, ecx
	cmp	DWORD PTR [eax+8], 0
	setne	cl
	mov	al, cl
	mov	esp, ebp
	pop	ebp
	ret	0
?isTargetPresent@AbstTargetingSystem@@QBE_NXZ ENDP	; AbstTargetingSystem::isTargetPresent
; Function compile flags: /Odtp /RTCsu
_TEXT	ENDS
;	COMDAT ?GetTarget@AbstTargetingSystem@@QBEPAVAbstRaven_Bot@@XZ
_TEXT	SEGMENT
_this$ = -4						; size = 4
?GetTarget@AbstTargetingSystem@@QBEPAVAbstRaven_Bot@@XZ PROC ; AbstTargetingSystem::GetTarget, COMDAT
; _this$ = ecx

; 63   :   AbstRaven_Bot* GetTarget()const{return m_pCurrentTarget;}

	push	ebp
	mov	ebp, esp
	push	ecx
	mov	DWORD PTR [ebp-4], -858993460		; ccccccccH
	mov	DWORD PTR _this$[ebp], ecx
	mov	eax, DWORD PTR _this$[ebp]
	mov	eax, DWORD PTR [eax+8]
	mov	esp, ebp
	pop	ebp
	ret	0
?GetTarget@AbstTargetingSystem@@QBEPAVAbstRaven_Bot@@XZ ENDP ; AbstTargetingSystem::GetTarget
; Function compile flags: /Odtp /RTCsu
; File c:\users\teaja\documents\artificial-fun\labravenprojecttest\raven\abstraven_bot.h
_TEXT	ENDS
;	COMDAT ?GetTargetSys@AbstRaven_Bot@@QAEQAVAbstTargetingSystem@@XZ
_TEXT	SEGMENT
_this$ = -4						; size = 4
?GetTargetSys@AbstRaven_Bot@@QAEQAVAbstTargetingSystem@@XZ PROC ; AbstRaven_Bot::GetTargetSys, COMDAT
; _this$ = ecx

; 222  :   AbstTargetingSystem* const       GetTargetSys(){return m_pTargSys;}

	push	ebp
	mov	ebp, esp
	push	ecx
	mov	DWORD PTR [ebp-4], -858993460		; ccccccccH
	mov	DWORD PTR _this$[ebp], ecx
	mov	eax, DWORD PTR _this$[ebp]
	mov	eax, DWORD PTR [eax+176]
	mov	esp, ebp
	pop	ebp
	ret	0
?GetTargetSys@AbstRaven_Bot@@QAEQAVAbstTargetingSystem@@XZ ENDP ; AbstRaven_Bot::GetTargetSys
_TEXT	ENDS
PUBLIC	??1?$_Tree_unchecked_const_iterator@V?$_Tree_val@V?$_Tmap_traits@HPAVRaven_Weapon@@U?$less@H@std@@V?$allocator@U?$pair@$$CBHPAVRaven_Weapon@@@std@@@3@$0A@@std@@@std@@U_Iterator_base12@2@@std@@QAE@XZ ; std::_Tree_unchecked_const_iterator<std::_Tree_val<std::_Tmap_traits<int,Raven_Weapon *,std::less<int>,std::allocator<std::pair<int const ,Raven_Weapon *> >,0> >,std::_Iterator_base12>::~_Tree_unchecked_const_iterator<std::_Tree_val<std::_Tmap_traits<int,Raven_Weapon *,std::less<int>,std::allocator<std::pair<int const ,Raven_Weapon *> >,0> >,std::_Iterator_base12>
; Function compile flags: /Odtp /RTCsu
;	COMDAT ??1?$_Tree_const_iterator@V?$_Tree_val@V?$_Tmap_traits@HPAVRaven_Weapon@@U?$less@H@std@@V?$allocator@U?$pair@$$CBHPAVRaven_Weapon@@@std@@@3@$0A@@std@@@std@@@std@@QAE@XZ
_TEXT	SEGMENT
_this$ = -4						; size = 4
??1?$_Tree_const_iterator@V?$_Tree_val@V?$_Tmap_traits@HPAVRaven_Weapon@@U?$less@H@std@@V?$allocator@U?$pair@$$CBHPAVRaven_Weapon@@@std@@@3@$0A@@std@@@std@@@std@@QAE@XZ PROC ; std::_Tree_const_iterator<std::_Tree_val<std::_Tmap_traits<int,Raven_Weapon *,std::less<int>,std::allocator<std::pair<int const ,Raven_Weapon *> >,0> > >::~_Tree_const_iterator<std::_Tree_val<std::_Tmap_traits<int,Raven_Weapon *,std::less<int>,std::allocator<std::pair<int const ,Raven_Weapon *> >,0> > >, COMDAT
; _this$ = ecx
	push	ebp
	mov	ebp, esp
	push	ecx
	mov	DWORD PTR [ebp-4], -858993460		; ccccccccH
	mov	DWORD PTR _this$[ebp], ecx
	mov	ecx, DWORD PTR _this$[ebp]
	call	??1?$_Tree_unchecked_const_iterator@V?$_Tree_val@V?$_Tmap_traits@HPAVRaven_Weapon@@U?$less@H@std@@V?$allocator@U?$pair@$$CBHPAVRaven_Weapon@@@std@@@3@$0A@@std@@@std@@U_Iterator_base12@2@@std@@QAE@XZ
	add	esp, 4
	cmp	ebp, esp
	call	__RTC_CheckEsp
	mov	esp, ebp
	pop	ebp
	ret	0
??1?$_Tree_const_iterator@V?$_Tree_val@V?$_Tmap_traits@HPAVRaven_Weapon@@U?$less@H@std@@V?$allocator@U?$pair@$$CBHPAVRaven_Weapon@@@std@@@3@$0A@@std@@@std@@@std@@QAE@XZ ENDP ; std::_Tree_const_iterator<std::_Tree_val<std::_Tmap_traits<int,Raven_Weapon *,std::less<int>,std::allocator<std::pair<int const ,Raven_Weapon *> >,0> > >::~_Tree_const_iterator<std::_Tree_val<std::_Tmap_traits<int,Raven_Weapon *,std::less<int>,std::allocator<std::pair<int const ,Raven_Weapon *> >,0> > >
; Function compile flags: /Odtp /RTCsu
_TEXT	ENDS
;	COMDAT ??1?$_Tree_iterator@V?$_Tree_val@V?$_Tmap_traits@HPAVRaven_Weapon@@U?$less@H@std@@V?$allocator@U?$pair@$$CBHPAVRaven_Weapon@@@std@@@3@$0A@@std@@@std@@@std@@QAE@XZ
_TEXT	SEGMENT
_this$ = -4						; size = 4
??1?$_Tree_iterator@V?$_Tree_val@V?$_Tmap_traits@HPAVRaven_Weapon@@U?$less@H@std@@V?$allocator@U?$pair@$$CBHPAVRaven_Weapon@@@std@@@3@$0A@@std@@@std@@@std@@QAE@XZ PROC ; std::_Tree_iterator<std::_Tree_val<std::_Tmap_traits<int,Raven_Weapon *,std::less<int>,std::allocator<std::pair<int const ,Raven_Weapon *> >,0> > >::~_Tree_iterator<std::_Tree_val<std::_Tmap_traits<int,Raven_Weapon *,std::less<int>,std::allocator<std::pair<int const ,Raven_Weapon *> >,0> > >, COMDAT
; _this$ = ecx
	push	ebp
	mov	ebp, esp
	push	ecx
	mov	DWORD PTR [ebp-4], -858993460		; ccccccccH
	mov	DWORD PTR _this$[ebp], ecx
	mov	ecx, DWORD PTR _this$[ebp]
	call	??1?$_Tree_const_iterator@V?$_Tree_val@V?$_Tmap_traits@HPAVRaven_Weapon@@U?$less@H@std@@V?$allocator@U?$pair@$$CBHPAVRaven_Weapon@@@std@@@3@$0A@@std@@@std@@@std@@QAE@XZ
	add	esp, 4
	cmp	ebp, esp
	call	__RTC_CheckEsp
	mov	esp, ebp
	pop	ebp
	ret	0
??1?$_Tree_iterator@V?$_Tree_val@V?$_Tmap_traits@HPAVRaven_Weapon@@U?$less@H@std@@V?$allocator@U?$pair@$$CBHPAVRaven_Weapon@@@std@@@3@$0A@@std@@@std@@@std@@QAE@XZ ENDP ; std::_Tree_iterator<std::_Tree_val<std::_Tmap_traits<int,Raven_Weapon *,std::less<int>,std::allocator<std::pair<int const ,Raven_Weapon *> >,0> > >::~_Tree_iterator<std::_Tree_val<std::_Tmap_traits<int,Raven_Weapon *,std::less<int>,std::allocator<std::pair<int const ,Raven_Weapon *> >,0> > >
_TEXT	ENDS
PUBLIC	??4?$_Tree_unchecked_const_iterator@V?$_Tree_val@V?$_Tmap_traits@HPAVRaven_Weapon@@U?$less@H@std@@V?$allocator@U?$pair@$$CBHPAVRaven_Weapon@@@std@@@3@$0A@@std@@@std@@U_Iterator_base12@2@@std@@QAEAAV01@ABV01@@Z ; std::_Tree_unchecked_const_iterator<std::_Tree_val<std::_Tmap_traits<int,Raven_Weapon *,std::less<int>,std::allocator<std::pair<int const ,Raven_Weapon *> >,0> >,std::_Iterator_base12>::operator=
; Function compile flags: /Odtp /RTCsu
;	COMDAT ??4?$_Tree_const_iterator@V?$_Tree_val@V?$_Tmap_traits@HPAVRaven_Weapon@@U?$less@H@std@@V?$allocator@U?$pair@$$CBHPAVRaven_Weapon@@@std@@@3@$0A@@std@@@std@@@std@@QAEAAV01@ABV01@@Z
_TEXT	SEGMENT
_this$ = -4						; size = 4
___that$ = 8						; size = 4
??4?$_Tree_const_iterator@V?$_Tree_val@V?$_Tmap_traits@HPAVRaven_Weapon@@U?$less@H@std@@V?$allocator@U?$pair@$$CBHPAVRaven_Weapon@@@std@@@3@$0A@@std@@@std@@@std@@QAEAAV01@ABV01@@Z PROC ; std::_Tree_const_iterator<std::_Tree_val<std::_Tmap_traits<int,Raven_Weapon *,std::less<int>,std::allocator<std::pair<int const ,Raven_Weapon *> >,0> > >::operator=, COMDAT
; _this$ = ecx
	push	ebp
	mov	ebp, esp
	push	ecx
	mov	DWORD PTR [ebp-4], -858993460		; ccccccccH
	mov	DWORD PTR _this$[ebp], ecx
	mov	eax, DWORD PTR ___that$[ebp]
	push	eax
	mov	ecx, DWORD PTR _this$[ebp]
	call	??4?$_Tree_unchecked_const_iterator@V?$_Tree_val@V?$_Tmap_traits@HPAVRaven_Weapon@@U?$less@H@std@@V?$allocator@U?$pair@$$CBHPAVRaven_Weapon@@@std@@@3@$0A@@std@@@std@@U_Iterator_base12@2@@std@@QAEAAV01@ABV01@@Z
	mov	eax, DWORD PTR _this$[ebp]
	add	esp, 4
	cmp	ebp, esp
	call	__RTC_CheckEsp
	mov	esp, ebp
	pop	ebp
	ret	4
??4?$_Tree_const_iterator@V?$_Tree_val@V?$_Tmap_traits@HPAVRaven_Weapon@@U?$less@H@std@@V?$allocator@U?$pair@$$CBHPAVRaven_Weapon@@@std@@@3@$0A@@std@@@std@@@std@@QAEAAV01@ABV01@@Z ENDP ; std::_Tree_const_iterator<std::_Tree_val<std::_Tmap_traits<int,Raven_Weapon *,std::less<int>,std::allocator<std::pair<int const ,Raven_Weapon *> >,0> > >::operator=
_TEXT	ENDS
PUBLIC	??1?$_Iterator012@Ubidirectional_iterator_tag@std@@U?$pair@$$CBHPAVRaven_Weapon@@@2@HPBU32@ABU32@U_Iterator_base12@2@@std@@QAE@XZ ; std::_Iterator012<std::bidirectional_iterator_tag,std::pair<int const ,Raven_Weapon *>,int,std::pair<int const ,Raven_Weapon *> const *,std::pair<int const ,Raven_Weapon *> const &,std::_Iterator_base12>::~_Iterator012<std::bidirectional_iterator_tag,std::pair<int const ,Raven_Weapon *>,int,std::pair<int const ,Raven_Weapon *> const *,std::pair<int const ,Raven_Weapon *> const &,std::_Iterator_base12>
; Function compile flags: /Odtp /RTCsu
;	COMDAT ??1?$_Tree_unchecked_const_iterator@V?$_Tree_val@V?$_Tmap_traits@HPAVRaven_Weapon@@U?$less@H@std@@V?$allocator@U?$pair@$$CBHPAVRaven_Weapon@@@std@@@3@$0A@@std@@@std@@U_Iterator_base12@2@@std@@QAE@XZ
_TEXT	SEGMENT
_this$ = -4						; size = 4
??1?$_Tree_unchecked_const_iterator@V?$_Tree_val@V?$_Tmap_traits@HPAVRaven_Weapon@@U?$less@H@std@@V?$allocator@U?$pair@$$CBHPAVRaven_Weapon@@@std@@@3@$0A@@std@@@std@@U_Iterator_base12@2@@std@@QAE@XZ PROC ; std::_Tree_unchecked_const_iterator<std::_Tree_val<std::_Tmap_traits<int,Raven_Weapon *,std::less<int>,std::allocator<std::pair<int const ,Raven_Weapon *> >,0> >,std::_Iterator_base12>::~_Tree_unchecked_const_iterator<std::_Tree_val<std::_Tmap_traits<int,Raven_Weapon *,std::less<int>,std::allocator<std::pair<int const ,Raven_Weapon *> >,0> >,std::_Iterator_base12>, COMDAT
; _this$ = ecx
	push	ebp
	mov	ebp, esp
	push	ecx
	mov	DWORD PTR [ebp-4], -858993460		; ccccccccH
	mov	DWORD PTR _this$[ebp], ecx
	mov	ecx, DWORD PTR _this$[ebp]
	call	??1?$_Iterator012@Ubidirectional_iterator_tag@std@@U?$pair@$$CBHPAVRaven_Weapon@@@2@HPBU32@ABU32@U_Iterator_base12@2@@std@@QAE@XZ
	add	esp, 4
	cmp	ebp, esp
	call	__RTC_CheckEsp
	mov	esp, ebp
	pop	ebp
	ret	0
??1?$_Tree_unchecked_const_iterator@V?$_Tree_val@V?$_Tmap_traits@HPAVRaven_Weapon@@U?$less@H@std@@V?$allocator@U?$pair@$$CBHPAVRaven_Weapon@@@std@@@3@$0A@@std@@@std@@U_Iterator_base12@2@@std@@QAE@XZ ENDP ; std::_Tree_unchecked_const_iterator<std::_Tree_val<std::_Tmap_traits<int,Raven_Weapon *,std::less<int>,std::allocator<std::pair<int const ,Raven_Weapon *> >,0> >,std::_Iterator_base12>::~_Tree_unchecked_const_iterator<std::_Tree_val<std::_Tmap_traits<int,Raven_Weapon *,std::less<int>,std::allocator<std::pair<int const ,Raven_Weapon *> >,0> >,std::_Iterator_base12>
_TEXT	ENDS
PUBLIC	??4?$_Iterator012@Ubidirectional_iterator_tag@std@@U?$pair@$$CBHPAVRaven_Weapon@@@2@HPBU32@ABU32@U_Iterator_base12@2@@std@@QAEAAU01@ABU01@@Z ; std::_Iterator012<std::bidirectional_iterator_tag,std::pair<int const ,Raven_Weapon *>,int,std::pair<int const ,Raven_Weapon *> const *,std::pair<int const ,Raven_Weapon *> const &,std::_Iterator_base12>::operator=
; Function compile flags: /Odtp /RTCsu
;	COMDAT ??4?$_Tree_unchecked_const_iterator@V?$_Tree_val@V?$_Tmap_traits@HPAVRaven_Weapon@@U?$less@H@std@@V?$allocator@U?$pair@$$CBHPAVRaven_Weapon@@@std@@@3@$0A@@std@@@std@@U_Iterator_base12@2@@std@@QAEAAV01@ABV01@@Z
_TEXT	SEGMENT
_this$ = -4						; size = 4
___that$ = 8						; size = 4
??4?$_Tree_unchecked_const_iterator@V?$_Tree_val@V?$_Tmap_traits@HPAVRaven_Weapon@@U?$less@H@std@@V?$allocator@U?$pair@$$CBHPAVRaven_Weapon@@@std@@@3@$0A@@std@@@std@@U_Iterator_base12@2@@std@@QAEAAV01@ABV01@@Z PROC ; std::_Tree_unchecked_const_iterator<std::_Tree_val<std::_Tmap_traits<int,Raven_Weapon *,std::less<int>,std::allocator<std::pair<int const ,Raven_Weapon *> >,0> >,std::_Iterator_base12>::operator=, COMDAT
; _this$ = ecx
	push	ebp
	mov	ebp, esp
	push	ecx
	mov	DWORD PTR [ebp-4], -858993460		; ccccccccH
	mov	DWORD PTR _this$[ebp], ecx
	mov	eax, DWORD PTR ___that$[ebp]
	push	eax
	mov	ecx, DWORD PTR _this$[ebp]
	call	??4?$_Iterator012@Ubidirectional_iterator_tag@std@@U?$pair@$$CBHPAVRaven_Weapon@@@2@HPBU32@ABU32@U_Iterator_base12@2@@std@@QAEAAU01@ABU01@@Z
	mov	ecx, DWORD PTR _this$[ebp]
	mov	edx, DWORD PTR ___that$[ebp]
	mov	eax, DWORD PTR [edx+8]
	mov	DWORD PTR [ecx+8], eax
	mov	eax, DWORD PTR _this$[ebp]
	add	esp, 4
	cmp	ebp, esp
	call	__RTC_CheckEsp
	mov	esp, ebp
	pop	ebp
	ret	4
??4?$_Tree_unchecked_const_iterator@V?$_Tree_val@V?$_Tmap_traits@HPAVRaven_Weapon@@U?$less@H@std@@V?$allocator@U?$pair@$$CBHPAVRaven_Weapon@@@std@@@3@$0A@@std@@@std@@U_Iterator_base12@2@@std@@QAEAAV01@ABV01@@Z ENDP ; std::_Tree_unchecked_const_iterator<std::_Tree_val<std::_Tmap_traits<int,Raven_Weapon *,std::less<int>,std::allocator<std::pair<int const ,Raven_Weapon *> >,0> >,std::_Iterator_base12>::operator=
_TEXT	ENDS
PUBLIC	??1_Iterator_base12@std@@QAE@XZ			; std::_Iterator_base12::~_Iterator_base12
; Function compile flags: /Odtp /RTCsu
;	COMDAT ??1?$_Iterator012@Ubidirectional_iterator_tag@std@@U?$pair@$$CBHPAVRaven_Weapon@@@2@HPBU32@ABU32@U_Iterator_base12@2@@std@@QAE@XZ
_TEXT	SEGMENT
_this$ = -4						; size = 4
??1?$_Iterator012@Ubidirectional_iterator_tag@std@@U?$pair@$$CBHPAVRaven_Weapon@@@2@HPBU32@ABU32@U_Iterator_base12@2@@std@@QAE@XZ PROC ; std::_Iterator012<std::bidirectional_iterator_tag,std::pair<int const ,Raven_Weapon *>,int,std::pair<int const ,Raven_Weapon *> const *,std::pair<int const ,Raven_Weapon *> const &,std::_Iterator_base12>::~_Iterator012<std::bidirectional_iterator_tag,std::pair<int const ,Raven_Weapon *>,int,std::pair<int const ,Raven_Weapon *> const *,std::pair<int const ,Raven_Weapon *> const &,std::_Iterator_base12>, COMDAT
; _this$ = ecx
	push	ebp
	mov	ebp, esp
	push	ecx
	mov	DWORD PTR [ebp-4], -858993460		; ccccccccH
	mov	DWORD PTR _this$[ebp], ecx
	mov	ecx, DWORD PTR _this$[ebp]
	call	??1_Iterator_base12@std@@QAE@XZ		; std::_Iterator_base12::~_Iterator_base12
	add	esp, 4
	cmp	ebp, esp
	call	__RTC_CheckEsp
	mov	esp, ebp
	pop	ebp
	ret	0
??1?$_Iterator012@Ubidirectional_iterator_tag@std@@U?$pair@$$CBHPAVRaven_Weapon@@@2@HPBU32@ABU32@U_Iterator_base12@2@@std@@QAE@XZ ENDP ; std::_Iterator012<std::bidirectional_iterator_tag,std::pair<int const ,Raven_Weapon *>,int,std::pair<int const ,Raven_Weapon *> const *,std::pair<int const ,Raven_Weapon *> const &,std::_Iterator_base12>::~_Iterator012<std::bidirectional_iterator_tag,std::pair<int const ,Raven_Weapon *>,int,std::pair<int const ,Raven_Weapon *> const *,std::pair<int const ,Raven_Weapon *> const &,std::_Iterator_base12>
_TEXT	ENDS
PUBLIC	?_Orphan_me@_Iterator_base12@std@@QAEXXZ	; std::_Iterator_base12::_Orphan_me
EXTRN	??1_Lockit@std@@QAE@XZ:PROC			; std::_Lockit::~_Lockit
EXTRN	??0_Lockit@std@@QAE@H@Z:PROC			; std::_Lockit::_Lockit
;	COMDAT xdata$x
; File c:\program files (x86)\microsoft visual studio 10.0\vc\include\xutility
xdata$x	SEGMENT
__unwindtable$??1_Iterator_base12@std@@QAE@XZ DD 0ffffffffH
	DD	FLAT:__unwindfunclet$??1_Iterator_base12@std@@QAE@XZ$0
__ehfuncinfo$??1_Iterator_base12@std@@QAE@XZ DD 019930522H
	DD	01H
	DD	FLAT:__unwindtable$??1_Iterator_base12@std@@QAE@XZ
	DD	2 DUP(00H)
	DD	2 DUP(00H)
	DD	00H
	DD	01H
; Function compile flags: /Odtp /RTCsu
xdata$x	ENDS
;	COMDAT ??1_Iterator_base12@std@@QAE@XZ
_TEXT	SEGMENT
__Lock$ = -24						; size = 4
_this$ = -16						; size = 4
__$EHRec$ = -12						; size = 12
??1_Iterator_base12@std@@QAE@XZ PROC			; std::_Iterator_base12::~_Iterator_base12, COMDAT
; _this$ = ecx

; 135  : 		{	// destroy the iterator

	push	ebp
	mov	ebp, esp
	push	-1
	push	__ehhandler$??1_Iterator_base12@std@@QAE@XZ
	mov	eax, DWORD PTR fs:0
	push	eax
	sub	esp, 16					; 00000010H
	mov	eax, -858993460				; ccccccccH
	mov	DWORD PTR [ebp-28], eax
	mov	DWORD PTR [ebp-24], eax
	mov	DWORD PTR [ebp-20], eax
	mov	DWORD PTR [ebp-16], eax
	mov	eax, DWORD PTR ___security_cookie
	xor	eax, ebp
	push	eax
	lea	eax, DWORD PTR __$EHRec$[ebp]
	mov	DWORD PTR fs:0, eax
	mov	DWORD PTR _this$[ebp], ecx

; 136  :  #if _ITERATOR_DEBUG_LEVEL == 2
; 137  : 		_Lockit _Lock(_LOCK_DEBUG);

	push	3
	lea	ecx, DWORD PTR __Lock$[ebp]
	call	??0_Lockit@std@@QAE@H@Z			; std::_Lockit::_Lockit
	mov	DWORD PTR __$EHRec$[ebp+8], 0

; 138  : 		_Orphan_me();

	mov	ecx, DWORD PTR _this$[ebp]
	call	?_Orphan_me@_Iterator_base12@std@@QAEXXZ ; std::_Iterator_base12::_Orphan_me

; 139  :  #endif /* _ITERATOR_DEBUG_LEVEL == 2 */
; 140  : 		}

	mov	DWORD PTR __$EHRec$[ebp+8], -1
	lea	ecx, DWORD PTR __Lock$[ebp]
	call	??1_Lockit@std@@QAE@XZ			; std::_Lockit::~_Lockit
	push	edx
	mov	ecx, ebp
	push	eax
	lea	edx, DWORD PTR $LN7@Iterator_b
	call	@_RTC_CheckStackVars@8
	pop	eax
	pop	edx
	mov	ecx, DWORD PTR __$EHRec$[ebp]
	mov	DWORD PTR fs:0, ecx
	pop	ecx
	add	esp, 28					; 0000001cH
	cmp	ebp, esp
	call	__RTC_CheckEsp
	mov	esp, ebp
	pop	ebp
	ret	0
	npad	1
$LN7@Iterator_b:
	DD	1
	DD	$LN6@Iterator_b
$LN6@Iterator_b:
	DD	-24					; ffffffe8H
	DD	4
	DD	$LN4@Iterator_b
$LN4@Iterator_b:
	DB	95					; 0000005fH
	DB	76					; 0000004cH
	DB	111					; 0000006fH
	DB	99					; 00000063H
	DB	107					; 0000006bH
	DB	0
_TEXT	ENDS
;	COMDAT text$x
text$x	SEGMENT
__unwindfunclet$??1_Iterator_base12@std@@QAE@XZ$0:
	lea	ecx, DWORD PTR __Lock$[ebp]
	jmp	??1_Lockit@std@@QAE@XZ			; std::_Lockit::~_Lockit
__ehhandler$??1_Iterator_base12@std@@QAE@XZ:
	mov	edx, DWORD PTR [esp+8]
	lea	eax, DWORD PTR [edx+12]
	mov	ecx, DWORD PTR [edx-20]
	xor	ecx, eax
	call	@__security_check_cookie@4
	mov	eax, OFFSET __ehfuncinfo$??1_Iterator_base12@std@@QAE@XZ
	jmp	___CxxFrameHandler3
text$x	ENDS
??1_Iterator_base12@std@@QAE@XZ ENDP			; std::_Iterator_base12::~_Iterator_base12
PUBLIC	??_C@_1DC@POOIKBAO@?$AAI?$AAT?$AAE?$AAR?$AAA?$AAT?$AAO?$AAR?$AA?5?$AAL?$AAI?$AAS?$AAT?$AA?5?$AAC?$AAO?$AAR?$AAR?$AAU?$AAP?$AAT?$AAE?$AAD?$AA?$CB?$AA?$AA@ ; `string'
PUBLIC	??_C@_1JA@HCKHPKJH@?$AAc?$AA?3?$AA?2?$AAP?$AAr?$AAo?$AAg?$AAr?$AAa?$AAm?$AA?5?$AAF?$AAi?$AAl?$AAe?$AAs?$AA?5?$AA?$CI?$AAx?$AA8?$AA6?$AA?$CJ?$AA?2?$AAM?$AAi?$AAc?$AAr?$AAo?$AAs?$AAo?$AAf?$AAt@ ; `string'
EXTRN	?_Debug_message@std@@YAXPB_W0I@Z:PROC		; std::_Debug_message
;	COMDAT ??_C@_1DC@POOIKBAO@?$AAI?$AAT?$AAE?$AAR?$AAA?$AAT?$AAO?$AAR?$AA?5?$AAL?$AAI?$AAS?$AAT?$AA?5?$AAC?$AAO?$AAR?$AAR?$AAU?$AAP?$AAT?$AAE?$AAD?$AA?$CB?$AA?$AA@
CONST	SEGMENT
??_C@_1DC@POOIKBAO@?$AAI?$AAT?$AAE?$AAR?$AAA?$AAT?$AAO?$AAR?$AA?5?$AAL?$AAI?$AAS?$AAT?$AA?5?$AAC?$AAO?$AAR?$AAR?$AAU?$AAP?$AAT?$AAE?$AAD?$AA?$CB?$AA?$AA@ DB 'I'
	DB	00H, 'T', 00H, 'E', 00H, 'R', 00H, 'A', 00H, 'T', 00H, 'O', 00H
	DB	'R', 00H, ' ', 00H, 'L', 00H, 'I', 00H, 'S', 00H, 'T', 00H, ' '
	DB	00H, 'C', 00H, 'O', 00H, 'R', 00H, 'R', 00H, 'U', 00H, 'P', 00H
	DB	'T', 00H, 'E', 00H, 'D', 00H, '!', 00H, 00H, 00H ; `string'
CONST	ENDS
;	COMDAT ??_C@_1JA@HCKHPKJH@?$AAc?$AA?3?$AA?2?$AAP?$AAr?$AAo?$AAg?$AAr?$AAa?$AAm?$AA?5?$AAF?$AAi?$AAl?$AAe?$AAs?$AA?5?$AA?$CI?$AAx?$AA8?$AA6?$AA?$CJ?$AA?2?$AAM?$AAi?$AAc?$AAr?$AAo?$AAs?$AAo?$AAf?$AAt@
CONST	SEGMENT
??_C@_1JA@HCKHPKJH@?$AAc?$AA?3?$AA?2?$AAP?$AAr?$AAo?$AAg?$AAr?$AAa?$AAm?$AA?5?$AAF?$AAi?$AAl?$AAe?$AAs?$AA?5?$AA?$CI?$AAx?$AA8?$AA6?$AA?$CJ?$AA?2?$AAM?$AAi?$AAc?$AAr?$AAo?$AAs?$AAo?$AAf?$AAt@ DB 'c'
	DB	00H, ':', 00H, '\', 00H, 'P', 00H, 'r', 00H, 'o', 00H, 'g', 00H
	DB	'r', 00H, 'a', 00H, 'm', 00H, ' ', 00H, 'F', 00H, 'i', 00H, 'l'
	DB	00H, 'e', 00H, 's', 00H, ' ', 00H, '(', 00H, 'x', 00H, '8', 00H
	DB	'6', 00H, ')', 00H, '\', 00H, 'M', 00H, 'i', 00H, 'c', 00H, 'r'
	DB	00H, 'o', 00H, 's', 00H, 'o', 00H, 'f', 00H, 't', 00H, ' ', 00H
	DB	'V', 00H, 'i', 00H, 's', 00H, 'u', 00H, 'a', 00H, 'l', 00H, ' '
	DB	00H, 'S', 00H, 't', 00H, 'u', 00H, 'd', 00H, 'i', 00H, 'o', 00H
	DB	' ', 00H, '1', 00H, '0', 00H, '.', 00H, '0', 00H, '\', 00H, 'V'
	DB	00H, 'C', 00H, '\', 00H, 'i', 00H, 'n', 00H, 'c', 00H, 'l', 00H
	DB	'u', 00H, 'd', 00H, 'e', 00H, '\', 00H, 'x', 00H, 'u', 00H, 't'
	DB	00H, 'i', 00H, 'l', 00H, 'i', 00H, 't', 00H, 'y', 00H, 00H, 00H ; `string'
; Function compile flags: /Odtp /RTCsu
CONST	ENDS
;	COMDAT ?_Orphan_me@_Iterator_base12@std@@QAEXXZ
_TEXT	SEGMENT
__Pnext$15159 = -8					; size = 4
_this$ = -4						; size = 4
?_Orphan_me@_Iterator_base12@std@@QAEXXZ PROC		; std::_Iterator_base12::_Orphan_me, COMDAT
; _this$ = ecx

; 184  : 		{	// cut ties with parent

	push	ebp
	mov	ebp, esp
	sub	esp, 8
	mov	DWORD PTR [ebp-8], -858993460		; ccccccccH
	mov	DWORD PTR [ebp-4], -858993460		; ccccccccH
	mov	DWORD PTR _this$[ebp], ecx

; 185  :  #if _ITERATOR_DEBUG_LEVEL == 2
; 186  : 		if (_Myproxy != 0)

	mov	eax, DWORD PTR _this$[ebp]
	cmp	DWORD PTR [eax], 0
	je	SHORT $LN5@Orphan_me

; 187  : 			{	// adopted, remove self from list
; 188  : 			_Iterator_base12 **_Pnext = &_Myproxy->_Myfirstiter;

	mov	ecx, DWORD PTR _this$[ebp]
	mov	edx, DWORD PTR [ecx]
	add	edx, 4
	mov	DWORD PTR __Pnext$15159[ebp], edx
$LN3@Orphan_me:

; 189  : 			while (*_Pnext != 0 && *_Pnext != this)

	mov	eax, DWORD PTR __Pnext$15159[ebp]
	cmp	DWORD PTR [eax], 0
	je	SHORT $LN2@Orphan_me
	mov	ecx, DWORD PTR __Pnext$15159[ebp]
	mov	edx, DWORD PTR [ecx]
	cmp	edx, DWORD PTR _this$[ebp]
	je	SHORT $LN2@Orphan_me

; 190  : 				_Pnext = &(*_Pnext)->_Mynextiter;

	mov	eax, DWORD PTR __Pnext$15159[ebp]
	mov	ecx, DWORD PTR [eax]
	add	ecx, 4
	mov	DWORD PTR __Pnext$15159[ebp], ecx
	jmp	SHORT $LN3@Orphan_me
$LN2@Orphan_me:

; 191  : 
; 192  : 			if (*_Pnext == 0)

	mov	edx, DWORD PTR __Pnext$15159[ebp]
	cmp	DWORD PTR [edx], 0
	jne	SHORT $LN1@Orphan_me

; 193  : 				_DEBUG_ERROR("ITERATOR LIST CORRUPTED!");

	push	193					; 000000c1H
	push	OFFSET ??_C@_1JA@HCKHPKJH@?$AAc?$AA?3?$AA?2?$AAP?$AAr?$AAo?$AAg?$AAr?$AAa?$AAm?$AA?5?$AAF?$AAi?$AAl?$AAe?$AAs?$AA?5?$AA?$CI?$AAx?$AA8?$AA6?$AA?$CJ?$AA?2?$AAM?$AAi?$AAc?$AAr?$AAo?$AAs?$AAo?$AAf?$AAt@
	push	OFFSET ??_C@_1DC@POOIKBAO@?$AAI?$AAT?$AAE?$AAR?$AAA?$AAT?$AAO?$AAR?$AA?5?$AAL?$AAI?$AAS?$AAT?$AA?5?$AAC?$AAO?$AAR?$AAR?$AAU?$AAP?$AAT?$AAE?$AAD?$AA?$CB?$AA?$AA@
	call	?_Debug_message@std@@YAXPB_W0I@Z	; std::_Debug_message
	add	esp, 12					; 0000000cH
$LN1@Orphan_me:

; 194  : 			*_Pnext = _Mynextiter;

	mov	eax, DWORD PTR __Pnext$15159[ebp]
	mov	ecx, DWORD PTR _this$[ebp]
	mov	edx, DWORD PTR [ecx+4]
	mov	DWORD PTR [eax], edx

; 195  : 			_Myproxy = 0;

	mov	eax, DWORD PTR _this$[ebp]
	mov	DWORD PTR [eax], 0
$LN5@Orphan_me:

; 196  : 			}
; 197  :  #endif /* _ITERATOR_DEBUG_LEVEL == 2 */
; 198  : 		}

	add	esp, 8
	cmp	ebp, esp
	call	__RTC_CheckEsp
	mov	esp, ebp
	pop	ebp
	ret	0
?_Orphan_me@_Iterator_base12@std@@QAEXXZ ENDP		; std::_Iterator_base12::_Orphan_me
_TEXT	ENDS
PUBLIC	??4_Iterator_base12@std@@QAEAAU01@ABU01@@Z	; std::_Iterator_base12::operator=
; Function compile flags: /Odtp /RTCsu
;	COMDAT ??4?$_Iterator012@Ubidirectional_iterator_tag@std@@U?$pair@$$CBHPAVRaven_Weapon@@@2@HPBU32@ABU32@U_Iterator_base12@2@@std@@QAEAAU01@ABU01@@Z
_TEXT	SEGMENT
_this$ = -4						; size = 4
___that$ = 8						; size = 4
??4?$_Iterator012@Ubidirectional_iterator_tag@std@@U?$pair@$$CBHPAVRaven_Weapon@@@2@HPBU32@ABU32@U_Iterator_base12@2@@std@@QAEAAU01@ABU01@@Z PROC ; std::_Iterator012<std::bidirectional_iterator_tag,std::pair<int const ,Raven_Weapon *>,int,std::pair<int const ,Raven_Weapon *> const *,std::pair<int const ,Raven_Weapon *> const &,std::_Iterator_base12>::operator=, COMDAT
; _this$ = ecx
	push	ebp
	mov	ebp, esp
	push	ecx
	mov	DWORD PTR [ebp-4], -858993460		; ccccccccH
	mov	DWORD PTR _this$[ebp], ecx
	mov	eax, DWORD PTR ___that$[ebp]
	push	eax
	mov	ecx, DWORD PTR _this$[ebp]
	call	??4_Iterator_base12@std@@QAEAAU01@ABU01@@Z ; std::_Iterator_base12::operator=
	mov	eax, DWORD PTR _this$[ebp]
	add	esp, 4
	cmp	ebp, esp
	call	__RTC_CheckEsp
	mov	esp, ebp
	pop	ebp
	ret	4
??4?$_Iterator012@Ubidirectional_iterator_tag@std@@U?$pair@$$CBHPAVRaven_Weapon@@@2@HPBU32@ABU32@U_Iterator_base12@2@@std@@QAEAAU01@ABU01@@Z ENDP ; std::_Iterator012<std::bidirectional_iterator_tag,std::pair<int const ,Raven_Weapon *>,int,std::pair<int const ,Raven_Weapon *> const *,std::pair<int const ,Raven_Weapon *> const &,std::_Iterator_base12>::operator=
_TEXT	ENDS
PUBLIC	?_Adopt@_Iterator_base12@std@@QAEXPBU_Container_base12@2@@Z ; std::_Iterator_base12::_Adopt
;	COMDAT xdata$x
xdata$x	SEGMENT
__unwindtable$??4_Iterator_base12@std@@QAEAAU01@ABU01@@Z DD 0ffffffffH
	DD	FLAT:__unwindfunclet$??4_Iterator_base12@std@@QAEAAU01@ABU01@@Z$0
__ehfuncinfo$??4_Iterator_base12@std@@QAEAAU01@ABU01@@Z DD 019930522H
	DD	01H
	DD	FLAT:__unwindtable$??4_Iterator_base12@std@@QAEAAU01@ABU01@@Z
	DD	2 DUP(00H)
	DD	2 DUP(00H)
	DD	00H
	DD	01H
; Function compile flags: /Odtp /RTCsu
xdata$x	ENDS
;	COMDAT ??4_Iterator_base12@std@@QAEAAU01@ABU01@@Z
_TEXT	SEGMENT
__Lock$15138 = -24					; size = 4
_this$ = -16						; size = 4
__$EHRec$ = -12						; size = 12
__Right$ = 8						; size = 4
??4_Iterator_base12@std@@QAEAAU01@ABU01@@Z PROC		; std::_Iterator_base12::operator=, COMDAT
; _this$ = ecx

; 121  : 		{	// assign an iterator

	push	ebp
	mov	ebp, esp
	push	-1
	push	__ehhandler$??4_Iterator_base12@std@@QAEAAU01@ABU01@@Z
	mov	eax, DWORD PTR fs:0
	push	eax
	sub	esp, 16					; 00000010H
	mov	eax, -858993460				; ccccccccH
	mov	DWORD PTR [ebp-28], eax
	mov	DWORD PTR [ebp-24], eax
	mov	DWORD PTR [ebp-20], eax
	mov	DWORD PTR [ebp-16], eax
	mov	eax, DWORD PTR ___security_cookie
	xor	eax, ebp
	push	eax
	lea	eax, DWORD PTR __$EHRec$[ebp]
	mov	DWORD PTR fs:0, eax
	mov	DWORD PTR _this$[ebp], ecx

; 122  : 		if (_Myproxy == _Right._Myproxy)

	mov	eax, DWORD PTR _this$[ebp]
	mov	ecx, DWORD PTR __Right$[ebp]
	mov	edx, DWORD PTR [eax]
	cmp	edx, DWORD PTR [ecx]
	jne	SHORT $LN4@operator
	jmp	SHORT $LN3@operator
$LN4@operator:

; 123  : 			;
; 124  : 		else if (_Right._Myproxy != 0)

	mov	eax, DWORD PTR __Right$[ebp]
	cmp	DWORD PTR [eax], 0
	je	SHORT $LN2@operator

; 125  : 			_Adopt(_Right._Myproxy->_Mycont);

	mov	ecx, DWORD PTR __Right$[ebp]
	mov	edx, DWORD PTR [ecx]
	mov	eax, DWORD PTR [edx]
	push	eax
	mov	ecx, DWORD PTR _this$[ebp]
	call	?_Adopt@_Iterator_base12@std@@QAEXPBU_Container_base12@2@@Z ; std::_Iterator_base12::_Adopt

; 126  : 		else

	jmp	SHORT $LN3@operator
$LN2@operator:

; 127  : 			{	// becoming invalid, disown current parent
; 128  : 			_Lockit _Lock(_LOCK_DEBUG);

	push	3
	lea	ecx, DWORD PTR __Lock$15138[ebp]
	call	??0_Lockit@std@@QAE@H@Z			; std::_Lockit::_Lockit
	mov	DWORD PTR __$EHRec$[ebp+8], 0

; 129  : 			_Orphan_me();

	mov	ecx, DWORD PTR _this$[ebp]
	call	?_Orphan_me@_Iterator_base12@std@@QAEXXZ ; std::_Iterator_base12::_Orphan_me

; 130  : 			}

	mov	DWORD PTR __$EHRec$[ebp+8], -1
	lea	ecx, DWORD PTR __Lock$15138[ebp]
	call	??1_Lockit@std@@QAE@XZ			; std::_Lockit::~_Lockit
$LN3@operator:

; 131  : 		return (*this);

	mov	eax, DWORD PTR _this$[ebp]

; 132  : 		}

	push	edx
	mov	ecx, ebp
	push	eax
	lea	edx, DWORD PTR $LN11@operator
	call	@_RTC_CheckStackVars@8
	pop	eax
	pop	edx
	mov	ecx, DWORD PTR __$EHRec$[ebp]
	mov	DWORD PTR fs:0, ecx
	pop	ecx
	add	esp, 28					; 0000001cH
	cmp	ebp, esp
	call	__RTC_CheckEsp
	mov	esp, ebp
	pop	ebp
	ret	4
$LN11@operator:
	DD	1
	DD	$LN10@operator
$LN10@operator:
	DD	-24					; ffffffe8H
	DD	4
	DD	$LN8@operator
$LN8@operator:
	DB	95					; 0000005fH
	DB	76					; 0000004cH
	DB	111					; 0000006fH
	DB	99					; 00000063H
	DB	107					; 0000006bH
	DB	0
_TEXT	ENDS
;	COMDAT text$x
text$x	SEGMENT
__unwindfunclet$??4_Iterator_base12@std@@QAEAAU01@ABU01@@Z$0:
	lea	ecx, DWORD PTR __Lock$15138[ebp]
	jmp	??1_Lockit@std@@QAE@XZ			; std::_Lockit::~_Lockit
__ehhandler$??4_Iterator_base12@std@@QAEAAU01@ABU01@@Z:
	mov	edx, DWORD PTR [esp+8]
	lea	eax, DWORD PTR [edx+12]
	mov	ecx, DWORD PTR [edx-20]
	xor	ecx, eax
	call	@__security_check_cookie@4
	mov	eax, OFFSET __ehfuncinfo$??4_Iterator_base12@std@@QAEAAU01@ABU01@@Z
	jmp	___CxxFrameHandler3
text$x	ENDS
??4_Iterator_base12@std@@QAEAAU01@ABU01@@Z ENDP		; std::_Iterator_base12::operator=
;	COMDAT xdata$x
xdata$x	SEGMENT
__unwindtable$?_Adopt@_Iterator_base12@std@@QAEXPBU_Container_base12@2@@Z DD 0ffffffffH
	DD	FLAT:__unwindfunclet$?_Adopt@_Iterator_base12@std@@QAEXPBU_Container_base12@2@@Z$0
	DD	0ffffffffH
	DD	FLAT:__unwindfunclet$?_Adopt@_Iterator_base12@std@@QAEXPBU_Container_base12@2@@Z$1
__ehfuncinfo$?_Adopt@_Iterator_base12@std@@QAEXPBU_Container_base12@2@@Z DD 019930522H
	DD	02H
	DD	FLAT:__unwindtable$?_Adopt@_Iterator_base12@std@@QAEXPBU_Container_base12@2@@Z
	DD	2 DUP(00H)
	DD	2 DUP(00H)
	DD	00H
	DD	01H
; Function compile flags: /Odtp /RTCsu
xdata$x	ENDS
;	COMDAT ?_Adopt@_Iterator_base12@std@@QAEXPBU_Container_base12@2@@Z
_TEXT	SEGMENT
__Lock$15149 = -40					; size = 4
__Parent_proxy$15147 = -32				; size = 4
__Lock$15145 = -24					; size = 4
_this$ = -16						; size = 4
__$EHRec$ = -12						; size = 12
__Parent$ = 8						; size = 4
?_Adopt@_Iterator_base12@std@@QAEXPBU_Container_base12@2@@Z PROC ; std::_Iterator_base12::_Adopt, COMDAT
; _this$ = ecx

; 143  : 		{	// adopt this iterator by parent

	push	ebp
	mov	ebp, esp
	push	-1
	push	__ehhandler$?_Adopt@_Iterator_base12@std@@QAEXPBU_Container_base12@2@@Z
	mov	eax, DWORD PTR fs:0
	push	eax
	sub	esp, 32					; 00000020H
	mov	eax, -858993460				; ccccccccH
	mov	DWORD PTR [ebp-44], eax
	mov	DWORD PTR [ebp-40], eax
	mov	DWORD PTR [ebp-36], eax
	mov	DWORD PTR [ebp-32], eax
	mov	DWORD PTR [ebp-28], eax
	mov	DWORD PTR [ebp-24], eax
	mov	DWORD PTR [ebp-20], eax
	mov	DWORD PTR [ebp-16], eax
	mov	eax, DWORD PTR ___security_cookie
	xor	eax, ebp
	push	eax
	lea	eax, DWORD PTR __$EHRec$[ebp]
	mov	DWORD PTR fs:0, eax
	mov	DWORD PTR _this$[ebp], ecx

; 144  : 		if (_Parent == 0)

	cmp	DWORD PTR __Parent$[ebp], 0
	jne	SHORT $LN3@Adopt

; 145  : 			{	// no future parent, just disown current parent
; 146  : 			_Lockit _Lock(_LOCK_DEBUG);

	push	3
	lea	ecx, DWORD PTR __Lock$15145[ebp]
	call	??0_Lockit@std@@QAE@H@Z			; std::_Lockit::_Lockit
	mov	DWORD PTR __$EHRec$[ebp+8], 0

; 147  : 			_Orphan_me();

	mov	ecx, DWORD PTR _this$[ebp]
	call	?_Orphan_me@_Iterator_base12@std@@QAEXXZ ; std::_Iterator_base12::_Orphan_me

; 148  : 			}

	mov	DWORD PTR __$EHRec$[ebp+8], -1
	lea	ecx, DWORD PTR __Lock$15145[ebp]
	call	??1_Lockit@std@@QAE@XZ			; std::_Lockit::~_Lockit

; 149  : 		else

	jmp	SHORT $LN4@Adopt
$LN3@Adopt:

; 150  : 			{	// have a parent, do adoption
; 151  : 			_Container_proxy *_Parent_proxy = _Parent->_Myproxy;

	mov	eax, DWORD PTR __Parent$[ebp]
	mov	ecx, DWORD PTR [eax]
	mov	DWORD PTR __Parent_proxy$15147[ebp], ecx

; 152  : 
; 153  :  #if _ITERATOR_DEBUG_LEVEL == 2
; 154  : 			if (_Myproxy != _Parent_proxy)

	mov	edx, DWORD PTR _this$[ebp]
	mov	eax, DWORD PTR [edx]
	cmp	eax, DWORD PTR __Parent_proxy$15147[ebp]
	je	SHORT $LN4@Adopt

; 155  : 				{	// change parentage
; 156  : 				_Lockit _Lock(_LOCK_DEBUG);

	push	3
	lea	ecx, DWORD PTR __Lock$15149[ebp]
	call	??0_Lockit@std@@QAE@H@Z			; std::_Lockit::_Lockit
	mov	DWORD PTR __$EHRec$[ebp+8], 1

; 157  : 				_Orphan_me();

	mov	ecx, DWORD PTR _this$[ebp]
	call	?_Orphan_me@_Iterator_base12@std@@QAEXXZ ; std::_Iterator_base12::_Orphan_me

; 158  : 				_Mynextiter = _Parent_proxy->_Myfirstiter;

	mov	ecx, DWORD PTR _this$[ebp]
	mov	edx, DWORD PTR __Parent_proxy$15147[ebp]
	mov	eax, DWORD PTR [edx+4]
	mov	DWORD PTR [ecx+4], eax

; 159  : 				_Parent_proxy->_Myfirstiter = this;

	mov	ecx, DWORD PTR __Parent_proxy$15147[ebp]
	mov	edx, DWORD PTR _this$[ebp]
	mov	DWORD PTR [ecx+4], edx

; 160  : 				_Myproxy = _Parent_proxy;

	mov	eax, DWORD PTR _this$[ebp]
	mov	ecx, DWORD PTR __Parent_proxy$15147[ebp]
	mov	DWORD PTR [eax], ecx

; 161  : 				}

	mov	DWORD PTR __$EHRec$[ebp+8], -1
	lea	ecx, DWORD PTR __Lock$15149[ebp]
	call	??1_Lockit@std@@QAE@XZ			; std::_Lockit::~_Lockit
$LN4@Adopt:

; 162  :  #else /* _ITERATOR_DEBUG_LEVEL == 2 */
; 163  : 			_Myproxy = _Parent_proxy;
; 164  :  #endif /* _ITERATOR_DEBUG_LEVEL == 2 */
; 165  : 			}
; 166  : 		}

	push	edx
	mov	ecx, ebp
	push	eax
	lea	edx, DWORD PTR $LN12@Adopt
	call	@_RTC_CheckStackVars@8
	pop	eax
	pop	edx
	mov	ecx, DWORD PTR __$EHRec$[ebp]
	mov	DWORD PTR fs:0, ecx
	pop	ecx
	add	esp, 44					; 0000002cH
	cmp	ebp, esp
	call	__RTC_CheckEsp
	mov	esp, ebp
	pop	ebp
	ret	4
$LN12@Adopt:
	DD	2
	DD	$LN11@Adopt
$LN11@Adopt:
	DD	-24					; ffffffe8H
	DD	4
	DD	$LN8@Adopt
	DD	-40					; ffffffd8H
	DD	4
	DD	$LN9@Adopt
$LN9@Adopt:
	DB	95					; 0000005fH
	DB	76					; 0000004cH
	DB	111					; 0000006fH
	DB	99					; 00000063H
	DB	107					; 0000006bH
	DB	0
$LN8@Adopt:
	DB	95					; 0000005fH
	DB	76					; 0000004cH
	DB	111					; 0000006fH
	DB	99					; 00000063H
	DB	107					; 0000006bH
	DB	0
_TEXT	ENDS
;	COMDAT text$x
text$x	SEGMENT
__unwindfunclet$?_Adopt@_Iterator_base12@std@@QAEXPBU_Container_base12@2@@Z$0:
	lea	ecx, DWORD PTR __Lock$15145[ebp]
	jmp	??1_Lockit@std@@QAE@XZ			; std::_Lockit::~_Lockit
__unwindfunclet$?_Adopt@_Iterator_base12@std@@QAEXPBU_Container_base12@2@@Z$1:
	lea	ecx, DWORD PTR __Lock$15149[ebp]
	jmp	??1_Lockit@std@@QAE@XZ			; std::_Lockit::~_Lockit
__ehhandler$?_Adopt@_Iterator_base12@std@@QAEXPBU_Container_base12@2@@Z:
	mov	edx, DWORD PTR [esp+8]
	lea	eax, DWORD PTR [edx+12]
	mov	ecx, DWORD PTR [edx-36]
	xor	ecx, eax
	call	@__security_check_cookie@4
	mov	eax, OFFSET __ehfuncinfo$?_Adopt@_Iterator_base12@std@@QAEXPBU_Container_base12@2@@Z
	jmp	___CxxFrameHandler3
text$x	ENDS
?_Adopt@_Iterator_base12@std@@QAEXPBU_Container_base12@2@@Z ENDP ; std::_Iterator_base12::_Adopt
PUBLIC	??D?$_Tree_iterator@V?$_Tree_val@V?$_Tmap_traits@HPAVRaven_Weapon@@U?$less@H@std@@V?$allocator@U?$pair@$$CBHPAVRaven_Weapon@@@std@@@3@$0A@@std@@@std@@@std@@QBEAAU?$pair@$$CBHPAVRaven_Weapon@@@1@XZ ; std::_Tree_iterator<std::_Tree_val<std::_Tmap_traits<int,Raven_Weapon *,std::less<int>,std::allocator<std::pair<int const ,Raven_Weapon *> >,0> > >::operator*
PUBLIC	??4?$_Tree_iterator@V?$_Tree_val@V?$_Tmap_traits@HPAVRaven_Weapon@@U?$less@H@std@@V?$allocator@U?$pair@$$CBHPAVRaven_Weapon@@@std@@@3@$0A@@std@@@std@@@std@@QAEAAV01@ABV01@@Z ; std::_Tree_iterator<std::_Tree_val<std::_Tmap_traits<int,Raven_Weapon *,std::less<int>,std::allocator<std::pair<int const ,Raven_Weapon *> >,0> > >::operator=
PUBLIC	??$insert@U?$pair@HPAVRaven_Weapon@@@std@@@?$_Tree@V?$_Tmap_traits@HPAVRaven_Weapon@@U?$less@H@std@@V?$allocator@U?$pair@$$CBHPAVRaven_Weapon@@@std@@@3@$0A@@std@@@std@@QAE?AV?$_Tree_iterator@V?$_Tree_val@V?$_Tmap_traits@HPAVRaven_Weapon@@U?$less@H@std@@V?$allocator@U?$pair@$$CBHPAVRaven_Weapon@@@std@@@3@$0A@@std@@@std@@@1@V?$_Tree_const_iterator@V?$_Tree_val@V?$_Tmap_traits@HPAVRaven_Weapon@@U?$less@H@std@@V?$allocator@U?$pair@$$CBHPAVRaven_Weapon@@@std@@@3@$0A@@std@@@std@@@1@$$QAU?$pair@HPAVRaven_Weapon@@@1@@Z ; std::_Tree<std::_Tmap_traits<int,Raven_Weapon *,std::less<int>,std::allocator<std::pair<int const ,Raven_Weapon *> >,0> >::insert<std::pair<int,Raven_Weapon *> >
PUBLIC	??0?$_Tree_const_iterator@V?$_Tree_val@V?$_Tmap_traits@HPAVRaven_Weapon@@U?$less@H@std@@V?$allocator@U?$pair@$$CBHPAVRaven_Weapon@@@std@@@3@$0A@@std@@@std@@@std@@QAE@ABV01@@Z ; std::_Tree_const_iterator<std::_Tree_val<std::_Tmap_traits<int,Raven_Weapon *,std::less<int>,std::allocator<std::pair<int const ,Raven_Weapon *> >,0> > >::_Tree_const_iterator<std::_Tree_val<std::_Tmap_traits<int,Raven_Weapon *,std::less<int>,std::allocator<std::pair<int const ,Raven_Weapon *> >,0> > >
PUBLIC	??0?$pair@HPAVRaven_Weapon@@@std@@QAE@$$QAH$$QAPAVRaven_Weapon@@@Z ; std::pair<int,Raven_Weapon *>::pair<int,Raven_Weapon *>
PUBLIC	??$move@AAH@std@@YA$$QAHAAH@Z			; std::move<int &>
PUBLIC	??R?$less@H@std@@QBE_NABH0@Z			; std::less<int>::operator()
PUBLIC	?_Key@?$_Tree_val@V?$_Tmap_traits@HPAVRaven_Weapon@@U?$less@H@std@@V?$allocator@U?$pair@$$CBHPAVRaven_Weapon@@@std@@@3@$0A@@std@@@std@@SAAAHPAU_Node@?$_Tree_nod@V?$_Tmap_traits@HPAVRaven_Weapon@@U?$less@H@std@@V?$allocator@U?$pair@$$CBHPAVRaven_Weapon@@@std@@@3@$0A@@std@@@2@@Z ; std::_Tree_val<std::_Tmap_traits<int,Raven_Weapon *,std::less<int>,std::allocator<std::pair<int const ,Raven_Weapon *> >,0> >::_Key
PUBLIC	?_Mynode@?$_Tree_unchecked_const_iterator@V?$_Tree_val@V?$_Tmap_traits@HPAVRaven_Weapon@@U?$less@H@std@@V?$allocator@U?$pair@$$CBHPAVRaven_Weapon@@@std@@@3@$0A@@std@@@std@@U_Iterator_base12@2@@std@@QBEPAU_Node@?$_Tree_nod@V?$_Tmap_traits@HPAVRaven_Weapon@@U?$less@H@std@@V?$allocator@U?$pair@$$CBHPAVRaven_Weapon@@@std@@@3@$0A@@std@@@2@XZ ; std::_Tree_unchecked_const_iterator<std::_Tree_val<std::_Tmap_traits<int,Raven_Weapon *,std::less<int>,std::allocator<std::pair<int const ,Raven_Weapon *> >,0> >,std::_Iterator_base12>::_Mynode
PUBLIC	??8?$_Tree_const_iterator@V?$_Tree_val@V?$_Tmap_traits@HPAVRaven_Weapon@@U?$less@H@std@@V?$allocator@U?$pair@$$CBHPAVRaven_Weapon@@@std@@@3@$0A@@std@@@std@@@std@@QBE_NABV01@@Z ; std::_Tree_const_iterator<std::_Tree_val<std::_Tmap_traits<int,Raven_Weapon *,std::less<int>,std::allocator<std::pair<int const ,Raven_Weapon *> >,0> > >::operator==
PUBLIC	?lower_bound@?$_Tree@V?$_Tmap_traits@HPAVRaven_Weapon@@U?$less@H@std@@V?$allocator@U?$pair@$$CBHPAVRaven_Weapon@@@std@@@3@$0A@@std@@@std@@QAE?AV?$_Tree_iterator@V?$_Tree_val@V?$_Tmap_traits@HPAVRaven_Weapon@@U?$less@H@std@@V?$allocator@U?$pair@$$CBHPAVRaven_Weapon@@@std@@@3@$0A@@std@@@std@@@2@ABH@Z ; std::_Tree<std::_Tmap_traits<int,Raven_Weapon *,std::less<int>,std::allocator<std::pair<int const ,Raven_Weapon *> >,0> >::lower_bound
;	COMDAT xdata$x
; File c:\program files (x86)\microsoft visual studio 10.0\vc\include\map
xdata$x	SEGMENT
__unwindtable$??A?$map@HPAVRaven_Weapon@@U?$less@H@std@@V?$allocator@U?$pair@$$CBHPAVRaven_Weapon@@@std@@@3@@std@@QAEAAPAVRaven_Weapon@@$$QAH@Z DD 0ffffffffH
	DD	FLAT:__unwindfunclet$??A?$map@HPAVRaven_Weapon@@U?$less@H@std@@V?$allocator@U?$pair@$$CBHPAVRaven_Weapon@@@std@@@3@@std@@QAEAAPAVRaven_Weapon@@$$QAH@Z$0
	DD	00H
	DD	FLAT:__unwindfunclet$??A?$map@HPAVRaven_Weapon@@U?$less@H@std@@V?$allocator@U?$pair@$$CBHPAVRaven_Weapon@@@std@@@3@@std@@QAEAAPAVRaven_Weapon@@$$QAH@Z$1
	DD	00H
	DD	FLAT:__unwindfunclet$??A?$map@HPAVRaven_Weapon@@U?$less@H@std@@V?$allocator@U?$pair@$$CBHPAVRaven_Weapon@@@std@@@3@@std@@QAEAAPAVRaven_Weapon@@$$QAH@Z$3
__ehfuncinfo$??A?$map@HPAVRaven_Weapon@@U?$less@H@std@@V?$allocator@U?$pair@$$CBHPAVRaven_Weapon@@@std@@@3@@std@@QAEAAPAVRaven_Weapon@@$$QAH@Z DD 019930522H
	DD	03H
	DD	FLAT:__unwindtable$??A?$map@HPAVRaven_Weapon@@U?$less@H@std@@V?$allocator@U?$pair@$$CBHPAVRaven_Weapon@@@std@@@3@@std@@QAEAAPAVRaven_Weapon@@$$QAH@Z
	DD	2 DUP(00H)
	DD	2 DUP(00H)
	DD	00H
	DD	01H
; Function compile flags: /Odtp /RTCsu
xdata$x	ENDS
;	COMDAT ??A?$map@HPAVRaven_Weapon@@U?$less@H@std@@V?$allocator@U?$pair@$$CBHPAVRaven_Weapon@@@std@@@3@@std@@QAEAAPAVRaven_Weapon@@$$QAH@Z
_TEXT	SEGMENT
tv205 = -116						; size = 4
tv157 = -112						; size = 4
tv203 = -108						; size = 4
tv146 = -104						; size = 4
tv198 = -100						; size = 4
tv69 = -96						; size = 4
$T150313 = -92						; size = 4
$T150311 = -88						; size = 4
$T150310 = -84						; size = 12
$T150309 = -72						; size = 4
$T150308 = -68						; size = 4
$T150307 = -64						; size = 4
$T150306 = -60						; size = 8
$T150303 = -52						; size = 12
$T150302 = -37						; size = 1
__Where$ = -32						; size = 12
_this$ = -16						; size = 4
__$EHRec$ = -12						; size = 12
__Keyval$ = 8						; size = 4
??A?$map@HPAVRaven_Weapon@@U?$less@H@std@@V?$allocator@U?$pair@$$CBHPAVRaven_Weapon@@@std@@@3@@std@@QAEAAPAVRaven_Weapon@@$$QAH@Z PROC ; std::map<int,Raven_Weapon *,std::less<int>,std::allocator<std::pair<int const ,Raven_Weapon *> > >::operator[], COMDAT
; _this$ = ecx

; 165  : 		{	// find element matching _Keyval or insert with default mapped

	push	ebp
	mov	ebp, esp
	push	-1
	push	__ehhandler$??A?$map@HPAVRaven_Weapon@@U?$less@H@std@@V?$allocator@U?$pair@$$CBHPAVRaven_Weapon@@@std@@@3@@std@@QAEAAPAVRaven_Weapon@@$$QAH@Z
	mov	eax, DWORD PTR fs:0
	push	eax
	sub	esp, 104				; 00000068H
	push	edi
	push	ecx
	lea	edi, DWORD PTR [ebp-116]
	mov	ecx, 26					; 0000001aH
	mov	eax, -858993460				; ccccccccH
	rep stosd
	pop	ecx
	mov	eax, DWORD PTR ___security_cookie
	xor	eax, ebp
	push	eax
	lea	eax, DWORD PTR __$EHRec$[ebp]
	mov	DWORD PTR fs:0, eax
	mov	DWORD PTR _this$[ebp], ecx
	mov	DWORD PTR $T150313[ebp], 0

; 166  : 		iterator _Where = this->lower_bound(_Keyval);

	mov	eax, DWORD PTR __Keyval$[ebp]
	push	eax
	lea	ecx, DWORD PTR __Where$[ebp]
	push	ecx
	mov	ecx, DWORD PTR _this$[ebp]
	call	?lower_bound@?$_Tree@V?$_Tmap_traits@HPAVRaven_Weapon@@U?$less@H@std@@V?$allocator@U?$pair@$$CBHPAVRaven_Weapon@@@std@@@3@$0A@@std@@@std@@QAE?AV?$_Tree_iterator@V?$_Tree_val@V?$_Tmap_traits@HPAVRaven_Weapon@@U?$less@H@std@@V?$allocator@U?$pair@$$CBHPAVRaven_Weapon@@@std@@@3@$0A@@std@@@std@@@2@ABH@Z ; std::_Tree<std::_Tmap_traits<int,Raven_Weapon *,std::less<int>,std::allocator<std::pair<int const ,Raven_Weapon *> >,0> >::lower_bound
	mov	DWORD PTR __$EHRec$[ebp+8], 0

; 167  : 		if (_Where == this->end()
; 168  : 			|| this->comp(_Keyval, this->_Key(_Where._Mynode())))

	lea	edx, DWORD PTR $T150303[ebp]
	push	edx
	mov	ecx, DWORD PTR _this$[ebp]
	call	?end@?$_Tree@V?$_Tmap_traits@HPAVRaven_Weapon@@U?$less@H@std@@V?$allocator@U?$pair@$$CBHPAVRaven_Weapon@@@std@@@3@$0A@@std@@@std@@QAE?AV?$_Tree_iterator@V?$_Tree_val@V?$_Tmap_traits@HPAVRaven_Weapon@@U?$less@H@std@@V?$allocator@U?$pair@$$CBHPAVRaven_Weapon@@@std@@@3@$0A@@std@@@std@@@2@XZ ; std::_Tree<std::_Tmap_traits<int,Raven_Weapon *,std::less<int>,std::allocator<std::pair<int const ,Raven_Weapon *> >,0> >::end
	mov	DWORD PTR tv69[ebp], eax
	mov	eax, DWORD PTR tv69[ebp]
	mov	DWORD PTR tv198[ebp], eax
	mov	BYTE PTR __$EHRec$[ebp+8], 1
	mov	ecx, DWORD PTR $T150313[ebp]
	or	ecx, 1
	mov	DWORD PTR $T150313[ebp], ecx
	mov	edx, DWORD PTR tv198[ebp]
	push	edx
	lea	ecx, DWORD PTR __Where$[ebp]
	call	??8?$_Tree_const_iterator@V?$_Tree_val@V?$_Tmap_traits@HPAVRaven_Weapon@@U?$less@H@std@@V?$allocator@U?$pair@$$CBHPAVRaven_Weapon@@@std@@@3@$0A@@std@@@std@@@std@@QBE_NABV01@@Z ; std::_Tree_const_iterator<std::_Tree_val<std::_Tmap_traits<int,Raven_Weapon *,std::less<int>,std::allocator<std::pair<int const ,Raven_Weapon *> >,0> > >::operator==
	movzx	eax, al
	test	eax, eax
	jne	SHORT $LN4@operator@2
	lea	ecx, DWORD PTR __Where$[ebp]
	call	?_Mynode@?$_Tree_unchecked_const_iterator@V?$_Tree_val@V?$_Tmap_traits@HPAVRaven_Weapon@@U?$less@H@std@@V?$allocator@U?$pair@$$CBHPAVRaven_Weapon@@@std@@@3@$0A@@std@@@std@@U_Iterator_base12@2@@std@@QBEPAU_Node@?$_Tree_nod@V?$_Tmap_traits@HPAVRaven_Weapon@@U?$less@H@std@@V?$allocator@U?$pair@$$CBHPAVRaven_Weapon@@@std@@@3@$0A@@std@@@2@XZ ; std::_Tree_unchecked_const_iterator<std::_Tree_val<std::_Tmap_traits<int,Raven_Weapon *,std::less<int>,std::allocator<std::pair<int const ,Raven_Weapon *> >,0> >,std::_Iterator_base12>::_Mynode
	push	eax
	call	?_Key@?$_Tree_val@V?$_Tmap_traits@HPAVRaven_Weapon@@U?$less@H@std@@V?$allocator@U?$pair@$$CBHPAVRaven_Weapon@@@std@@@3@$0A@@std@@@std@@SAAAHPAU_Node@?$_Tree_nod@V?$_Tmap_traits@HPAVRaven_Weapon@@U?$less@H@std@@V?$allocator@U?$pair@$$CBHPAVRaven_Weapon@@@std@@@3@$0A@@std@@@2@@Z ; std::_Tree_val<std::_Tmap_traits<int,Raven_Weapon *,std::less<int>,std::allocator<std::pair<int const ,Raven_Weapon *> >,0> >::_Key
	add	esp, 4
	push	eax
	mov	ecx, DWORD PTR __Keyval$[ebp]
	push	ecx
	mov	ecx, DWORD PTR _this$[ebp]
	add	ecx, 4
	call	??R?$less@H@std@@QBE_NABH0@Z		; std::less<int>::operator()
	movzx	edx, al
	test	edx, edx
	jne	SHORT $LN4@operator@2
	mov	DWORD PTR tv146[ebp], 0
	jmp	SHORT $LN5@operator@2
$LN4@operator@2:
	mov	DWORD PTR tv146[ebp], 1
$LN5@operator@2:
	mov	al, BYTE PTR tv146[ebp]
	mov	BYTE PTR $T150302[ebp], al
	mov	DWORD PTR __$EHRec$[ebp+8], 0
	mov	ecx, DWORD PTR $T150313[ebp]
	and	ecx, 1
	je	SHORT $LN9@operator@2
	and	DWORD PTR $T150313[ebp], -2		; fffffffeH
	lea	ecx, DWORD PTR $T150303[ebp]
	call	??1?$_Tree_iterator@V?$_Tree_val@V?$_Tmap_traits@HPAVRaven_Weapon@@U?$less@H@std@@V?$allocator@U?$pair@$$CBHPAVRaven_Weapon@@@std@@@3@$0A@@std@@@std@@@std@@QAE@XZ
$LN9@operator@2:
	movzx	edx, BYTE PTR $T150302[ebp]
	test	edx, edx
	je	SHORT $LN1@operator@2

; 169  : 			_Where = this->insert(_Where,
; 170  : 				_STD pair<key_type, mapped_type>(
; 171  : 					_STD move(_Keyval),
; 172  : 					mapped_type()));

	mov	DWORD PTR $T150307[ebp], 0
	mov	eax, DWORD PTR __Keyval$[ebp]
	push	eax
	call	??$move@AAH@std@@YA$$QAHAAH@Z		; std::move<int &>
	add	esp, 4
	mov	ecx, DWORD PTR [eax]
	mov	DWORD PTR $T150308[ebp], ecx
	lea	edx, DWORD PTR $T150307[ebp]
	push	edx
	lea	eax, DWORD PTR $T150308[ebp]
	push	eax
	lea	ecx, DWORD PTR $T150306[ebp]
	call	??0?$pair@HPAVRaven_Weapon@@@std@@QAE@$$QAH$$QAPAVRaven_Weapon@@@Z ; std::pair<int,Raven_Weapon *>::pair<int,Raven_Weapon *>
	push	eax
	sub	esp, 12					; 0000000cH
	mov	ecx, esp
	mov	DWORD PTR $T150309[ebp], esp
	lea	edx, DWORD PTR __Where$[ebp]
	push	edx
	call	??0?$_Tree_const_iterator@V?$_Tree_val@V?$_Tmap_traits@HPAVRaven_Weapon@@U?$less@H@std@@V?$allocator@U?$pair@$$CBHPAVRaven_Weapon@@@std@@@3@$0A@@std@@@std@@@std@@QAE@ABV01@@Z
	mov	DWORD PTR tv203[ebp], eax
	lea	eax, DWORD PTR $T150310[ebp]
	push	eax
	mov	ecx, DWORD PTR _this$[ebp]
	call	??$insert@U?$pair@HPAVRaven_Weapon@@@std@@@?$_Tree@V?$_Tmap_traits@HPAVRaven_Weapon@@U?$less@H@std@@V?$allocator@U?$pair@$$CBHPAVRaven_Weapon@@@std@@@3@$0A@@std@@@std@@QAE?AV?$_Tree_iterator@V?$_Tree_val@V?$_Tmap_traits@HPAVRaven_Weapon@@U?$less@H@std@@V?$allocator@U?$pair@$$CBHPAVRaven_Weapon@@@std@@@3@$0A@@std@@@std@@@1@V?$_Tree_const_iterator@V?$_Tree_val@V?$_Tmap_traits@HPAVRaven_Weapon@@U?$less@H@std@@V?$allocator@U?$pair@$$CBHPAVRaven_Weapon@@@std@@@3@$0A@@std@@@std@@@1@$$QAU?$pair@HPAVRaven_Weapon@@@1@@Z ; std::_Tree<std::_Tmap_traits<int,Raven_Weapon *,std::less<int>,std::allocator<std::pair<int const ,Raven_Weapon *> >,0> >::insert<std::pair<int,Raven_Weapon *> >
	mov	DWORD PTR tv157[ebp], eax
	mov	ecx, DWORD PTR tv157[ebp]
	mov	DWORD PTR tv205[ebp], ecx
	mov	BYTE PTR __$EHRec$[ebp+8], 2
	mov	edx, DWORD PTR tv205[ebp]
	push	edx
	lea	ecx, DWORD PTR __Where$[ebp]
	call	??4?$_Tree_iterator@V?$_Tree_val@V?$_Tmap_traits@HPAVRaven_Weapon@@U?$less@H@std@@V?$allocator@U?$pair@$$CBHPAVRaven_Weapon@@@std@@@3@$0A@@std@@@std@@@std@@QAEAAV01@ABV01@@Z
	mov	BYTE PTR __$EHRec$[ebp+8], 0
	lea	ecx, DWORD PTR $T150310[ebp]
	call	??1?$_Tree_iterator@V?$_Tree_val@V?$_Tmap_traits@HPAVRaven_Weapon@@U?$less@H@std@@V?$allocator@U?$pair@$$CBHPAVRaven_Weapon@@@std@@@3@$0A@@std@@@std@@@std@@QAE@XZ
$LN1@operator@2:

; 173  : 		return ((*_Where).second);

	lea	ecx, DWORD PTR __Where$[ebp]
	call	??D?$_Tree_iterator@V?$_Tree_val@V?$_Tmap_traits@HPAVRaven_Weapon@@U?$less@H@std@@V?$allocator@U?$pair@$$CBHPAVRaven_Weapon@@@std@@@3@$0A@@std@@@std@@@std@@QBEAAU?$pair@$$CBHPAVRaven_Weapon@@@1@XZ ; std::_Tree_iterator<std::_Tree_val<std::_Tmap_traits<int,Raven_Weapon *,std::less<int>,std::allocator<std::pair<int const ,Raven_Weapon *> >,0> > >::operator*
	add	eax, 4
	mov	DWORD PTR $T150311[ebp], eax
	mov	DWORD PTR __$EHRec$[ebp+8], -1
	lea	ecx, DWORD PTR __Where$[ebp]
	call	??1?$_Tree_iterator@V?$_Tree_val@V?$_Tmap_traits@HPAVRaven_Weapon@@U?$less@H@std@@V?$allocator@U?$pair@$$CBHPAVRaven_Weapon@@@std@@@3@$0A@@std@@@std@@@std@@QAE@XZ
	mov	eax, DWORD PTR $T150311[ebp]

; 174  : 		}

	push	edx
	mov	ecx, ebp
	push	eax
	lea	edx, DWORD PTR $LN15@operator@2
	call	@_RTC_CheckStackVars@8
	pop	eax
	pop	edx
	mov	ecx, DWORD PTR __$EHRec$[ebp]
	mov	DWORD PTR fs:0, ecx
	pop	ecx
	pop	edi
	add	esp, 116				; 00000074H
	cmp	ebp, esp
	call	__RTC_CheckEsp
	mov	esp, ebp
	pop	ebp
	ret	4
	npad	3
$LN15@operator@2:
	DD	1
	DD	$LN14@operator@2
$LN14@operator@2:
	DD	-32					; ffffffe0H
	DD	12					; 0000000cH
	DD	$LN12@operator@2
$LN12@operator@2:
	DB	95					; 0000005fH
	DB	87					; 00000057H
	DB	104					; 00000068H
	DB	101					; 00000065H
	DB	114					; 00000072H
	DB	101					; 00000065H
	DB	0
_TEXT	ENDS
;	COMDAT text$x
text$x	SEGMENT
__unwindfunclet$??A?$map@HPAVRaven_Weapon@@U?$less@H@std@@V?$allocator@U?$pair@$$CBHPAVRaven_Weapon@@@std@@@3@@std@@QAEAAPAVRaven_Weapon@@$$QAH@Z$0:
	lea	ecx, DWORD PTR __Where$[ebp]
	jmp	??1?$_Tree_iterator@V?$_Tree_val@V?$_Tmap_traits@HPAVRaven_Weapon@@U?$less@H@std@@V?$allocator@U?$pair@$$CBHPAVRaven_Weapon@@@std@@@3@$0A@@std@@@std@@@std@@QAE@XZ
__unwindfunclet$??A?$map@HPAVRaven_Weapon@@U?$less@H@std@@V?$allocator@U?$pair@$$CBHPAVRaven_Weapon@@@std@@@3@@std@@QAEAAPAVRaven_Weapon@@$$QAH@Z$1:
	mov	eax, DWORD PTR $T150313[ebp]
	and	eax, 1
	je	$LN8@operator@2
	and	DWORD PTR $T150313[ebp], -2		; fffffffeH
	lea	ecx, DWORD PTR $T150303[ebp]
	jmp	??1?$_Tree_iterator@V?$_Tree_val@V?$_Tmap_traits@HPAVRaven_Weapon@@U?$less@H@std@@V?$allocator@U?$pair@$$CBHPAVRaven_Weapon@@@std@@@3@$0A@@std@@@std@@@std@@QAE@XZ
$LN8@operator@2:
	ret	0
__unwindfunclet$??A?$map@HPAVRaven_Weapon@@U?$less@H@std@@V?$allocator@U?$pair@$$CBHPAVRaven_Weapon@@@std@@@3@@std@@QAEAAPAVRaven_Weapon@@$$QAH@Z$3:
	lea	ecx, DWORD PTR $T150310[ebp]
	jmp	??1?$_Tree_iterator@V?$_Tree_val@V?$_Tmap_traits@HPAVRaven_Weapon@@U?$less@H@std@@V?$allocator@U?$pair@$$CBHPAVRaven_Weapon@@@std@@@3@$0A@@std@@@std@@@std@@QAE@XZ
__ehhandler$??A?$map@HPAVRaven_Weapon@@U?$less@H@std@@V?$allocator@U?$pair@$$CBHPAVRaven_Weapon@@@std@@@3@@std@@QAEAAPAVRaven_Weapon@@$$QAH@Z:
	mov	edx, DWORD PTR [esp+8]
	lea	eax, DWORD PTR [edx+12]
	mov	ecx, DWORD PTR [edx-112]
	xor	ecx, eax
	call	@__security_check_cookie@4
	mov	eax, OFFSET __ehfuncinfo$??A?$map@HPAVRaven_Weapon@@U?$less@H@std@@V?$allocator@U?$pair@$$CBHPAVRaven_Weapon@@@std@@@3@@std@@QAEAAPAVRaven_Weapon@@$$QAH@Z
	jmp	___CxxFrameHandler3
text$x	ENDS
??A?$map@HPAVRaven_Weapon@@U?$less@H@std@@V?$allocator@U?$pair@$$CBHPAVRaven_Weapon@@@std@@@3@@std@@QAEAAPAVRaven_Weapon@@$$QAH@Z ENDP ; std::map<int,Raven_Weapon *,std::less<int>,std::allocator<std::pair<int const ,Raven_Weapon *> > >::operator[]
PUBLIC	??0?$_Tree_iterator@V?$_Tree_val@V?$_Tmap_traits@HPAVRaven_Weapon@@U?$less@H@std@@V?$allocator@U?$pair@$$CBHPAVRaven_Weapon@@@std@@@3@$0A@@std@@@std@@@std@@QAE@PAU_Node@?$_Tree_nod@V?$_Tmap_traits@HPAVRaven_Weapon@@U?$less@H@std@@V?$allocator@U?$pair@$$CBHPAVRaven_Weapon@@@std@@@3@$0A@@std@@@1@PBV?$_Tree_val@V?$_Tmap_traits@HPAVRaven_Weapon@@U?$less@H@std@@V?$allocator@U?$pair@$$CBHPAVRaven_Weapon@@@std@@@3@$0A@@std@@@1@@Z ; std::_Tree_iterator<std::_Tree_val<std::_Tmap_traits<int,Raven_Weapon *,std::less<int>,std::allocator<std::pair<int const ,Raven_Weapon *> >,0> > >::_Tree_iterator<std::_Tree_val<std::_Tmap_traits<int,Raven_Weapon *,std::less<int>,std::allocator<std::pair<int const ,Raven_Weapon *> >,0> > >
PUBLIC	?_Lmost@?$_Tree@V?$_Tmap_traits@HPAVRaven_Weapon@@U?$less@H@std@@V?$allocator@U?$pair@$$CBHPAVRaven_Weapon@@@std@@@3@$0A@@std@@@std@@IBEAAPAU_Node@?$_Tree_nod@V?$_Tmap_traits@HPAVRaven_Weapon@@U?$less@H@std@@V?$allocator@U?$pair@$$CBHPAVRaven_Weapon@@@std@@@3@$0A@@std@@@2@XZ ; std::_Tree<std::_Tmap_traits<int,Raven_Weapon *,std::less<int>,std::allocator<std::pair<int const ,Raven_Weapon *> >,0> >::_Lmost
; Function compile flags: /Odtp /RTCsu
; File c:\program files (x86)\microsoft visual studio 10.0\vc\include\xtree
;	COMDAT ?begin@?$_Tree@V?$_Tmap_traits@HPAVRaven_Weapon@@U?$less@H@std@@V?$allocator@U?$pair@$$CBHPAVRaven_Weapon@@@std@@@3@$0A@@std@@@std@@QAE?AV?$_Tree_iterator@V?$_Tree_val@V?$_Tmap_traits@HPAVRaven_Weapon@@U?$less@H@std@@V?$allocator@U?$pair@$$CBHPAVRaven_Weapon@@@std@@@3@$0A@@std@@@std@@@2@XZ
_TEXT	SEGMENT
$T150331 = -8						; size = 4
_this$ = -4						; size = 4
___$ReturnUdt$ = 8					; size = 4
?begin@?$_Tree@V?$_Tmap_traits@HPAVRaven_Weapon@@U?$less@H@std@@V?$allocator@U?$pair@$$CBHPAVRaven_Weapon@@@std@@@3@$0A@@std@@@std@@QAE?AV?$_Tree_iterator@V?$_Tree_val@V?$_Tmap_traits@HPAVRaven_Weapon@@U?$less@H@std@@V?$allocator@U?$pair@$$CBHPAVRaven_Weapon@@@std@@@3@$0A@@std@@@std@@@2@XZ PROC ; std::_Tree<std::_Tmap_traits<int,Raven_Weapon *,std::less<int>,std::allocator<std::pair<int const ,Raven_Weapon *> >,0> >::begin, COMDAT
; _this$ = ecx

; 806  : 		{	// return iterator for beginning of mutable sequence

	push	ebp
	mov	ebp, esp
	sub	esp, 8
	mov	DWORD PTR [ebp-8], -858993460		; ccccccccH
	mov	DWORD PTR [ebp-4], -858993460		; ccccccccH
	mov	DWORD PTR _this$[ebp], ecx
	mov	DWORD PTR $T150331[ebp], 0

; 807  : 		return (iterator(_Lmost(), this));

	mov	eax, DWORD PTR _this$[ebp]
	push	eax
	mov	ecx, DWORD PTR _this$[ebp]
	call	?_Lmost@?$_Tree@V?$_Tmap_traits@HPAVRaven_Weapon@@U?$less@H@std@@V?$allocator@U?$pair@$$CBHPAVRaven_Weapon@@@std@@@3@$0A@@std@@@std@@IBEAAPAU_Node@?$_Tree_nod@V?$_Tmap_traits@HPAVRaven_Weapon@@U?$less@H@std@@V?$allocator@U?$pair@$$CBHPAVRaven_Weapon@@@std@@@3@$0A@@std@@@2@XZ ; std::_Tree<std::_Tmap_traits<int,Raven_Weapon *,std::less<int>,std::allocator<std::pair<int const ,Raven_Weapon *> >,0> >::_Lmost
	mov	ecx, DWORD PTR [eax]
	push	ecx
	mov	ecx, DWORD PTR ___$ReturnUdt$[ebp]
	call	??0?$_Tree_iterator@V?$_Tree_val@V?$_Tmap_traits@HPAVRaven_Weapon@@U?$less@H@std@@V?$allocator@U?$pair@$$CBHPAVRaven_Weapon@@@std@@@3@$0A@@std@@@std@@@std@@QAE@PAU_Node@?$_Tree_nod@V?$_Tmap_traits@HPAVRaven_Weapon@@U?$less@H@std@@V?$allocator@U?$pair@$$CBHPAVRaven_Weapon@@@std@@@3@$0A@@std@@@1@PBV?$_Tree_val@V?$_Tmap_traits@HPAVRaven_Weapon@@U?$less@H@std@@V?$allocator@U?$pair@$$CBHPAVRaven_Weapon@@@std@@@3@$0A@@std@@@1@@Z ; std::_Tree_iterator<std::_Tree_val<std::_Tmap_traits<int,Raven_Weapon *,std::less<int>,std::allocator<std::pair<int const ,Raven_Weapon *> >,0> > >::_Tree_iterator<std::_Tree_val<std::_Tmap_traits<int,Raven_Weapon *,std::less<int>,std::allocator<std::pair<int const ,Raven_Weapon *> >,0> > >
	mov	edx, DWORD PTR $T150331[ebp]
	or	edx, 1
	mov	DWORD PTR $T150331[ebp], edx
	mov	eax, DWORD PTR ___$ReturnUdt$[ebp]

; 808  : 		}

	add	esp, 8
	cmp	ebp, esp
	call	__RTC_CheckEsp
	mov	esp, ebp
	pop	ebp
	ret	4
?begin@?$_Tree@V?$_Tmap_traits@HPAVRaven_Weapon@@U?$less@H@std@@V?$allocator@U?$pair@$$CBHPAVRaven_Weapon@@@std@@@3@$0A@@std@@@std@@QAE?AV?$_Tree_iterator@V?$_Tree_val@V?$_Tmap_traits@HPAVRaven_Weapon@@U?$less@H@std@@V?$allocator@U?$pair@$$CBHPAVRaven_Weapon@@@std@@@3@$0A@@std@@@std@@@2@XZ ENDP ; std::_Tree<std::_Tmap_traits<int,Raven_Weapon *,std::less<int>,std::allocator<std::pair<int const ,Raven_Weapon *> >,0> >::begin
; Function compile flags: /Odtp /RTCsu
_TEXT	ENDS
;	COMDAT ?end@?$_Tree@V?$_Tmap_traits@HPAVRaven_Weapon@@U?$less@H@std@@V?$allocator@U?$pair@$$CBHPAVRaven_Weapon@@@std@@@3@$0A@@std@@@std@@QAE?AV?$_Tree_iterator@V?$_Tree_val@V?$_Tmap_traits@HPAVRaven_Weapon@@U?$less@H@std@@V?$allocator@U?$pair@$$CBHPAVRaven_Weapon@@@std@@@3@$0A@@std@@@std@@@2@XZ
_TEXT	SEGMENT
$T150336 = -8						; size = 4
_this$ = -4						; size = 4
___$ReturnUdt$ = 8					; size = 4
?end@?$_Tree@V?$_Tmap_traits@HPAVRaven_Weapon@@U?$less@H@std@@V?$allocator@U?$pair@$$CBHPAVRaven_Weapon@@@std@@@3@$0A@@std@@@std@@QAE?AV?$_Tree_iterator@V?$_Tree_val@V?$_Tmap_traits@HPAVRaven_Weapon@@U?$less@H@std@@V?$allocator@U?$pair@$$CBHPAVRaven_Weapon@@@std@@@3@$0A@@std@@@std@@@2@XZ PROC ; std::_Tree<std::_Tmap_traits<int,Raven_Weapon *,std::less<int>,std::allocator<std::pair<int const ,Raven_Weapon *> >,0> >::end, COMDAT
; _this$ = ecx

; 816  : 		{	// return iterator for end of mutable sequence

	push	ebp
	mov	ebp, esp
	sub	esp, 8
	mov	DWORD PTR [ebp-8], -858993460		; ccccccccH
	mov	DWORD PTR [ebp-4], -858993460		; ccccccccH
	mov	DWORD PTR _this$[ebp], ecx
	mov	DWORD PTR $T150336[ebp], 0

; 817  : 		return (iterator(this->_Myhead, this));

	mov	eax, DWORD PTR _this$[ebp]
	push	eax
	mov	ecx, DWORD PTR _this$[ebp]
	mov	edx, DWORD PTR [ecx+8]
	push	edx
	mov	ecx, DWORD PTR ___$ReturnUdt$[ebp]
	call	??0?$_Tree_iterator@V?$_Tree_val@V?$_Tmap_traits@HPAVRaven_Weapon@@U?$less@H@std@@V?$allocator@U?$pair@$$CBHPAVRaven_Weapon@@@std@@@3@$0A@@std@@@std@@@std@@QAE@PAU_Node@?$_Tree_nod@V?$_Tmap_traits@HPAVRaven_Weapon@@U?$less@H@std@@V?$allocator@U?$pair@$$CBHPAVRaven_Weapon@@@std@@@3@$0A@@std@@@1@PBV?$_Tree_val@V?$_Tmap_traits@HPAVRaven_Weapon@@U?$less@H@std@@V?$allocator@U?$pair@$$CBHPAVRaven_Weapon@@@std@@@3@$0A@@std@@@1@@Z ; std::_Tree_iterator<std::_Tree_val<std::_Tmap_traits<int,Raven_Weapon *,std::less<int>,std::allocator<std::pair<int const ,Raven_Weapon *> >,0> > >::_Tree_iterator<std::_Tree_val<std::_Tmap_traits<int,Raven_Weapon *,std::less<int>,std::allocator<std::pair<int const ,Raven_Weapon *> >,0> > >
	mov	eax, DWORD PTR $T150336[ebp]
	or	eax, 1
	mov	DWORD PTR $T150336[ebp], eax
	mov	eax, DWORD PTR ___$ReturnUdt$[ebp]

; 818  : 		}

	add	esp, 8
	cmp	ebp, esp
	call	__RTC_CheckEsp
	mov	esp, ebp
	pop	ebp
	ret	4
?end@?$_Tree@V?$_Tmap_traits@HPAVRaven_Weapon@@U?$less@H@std@@V?$allocator@U?$pair@$$CBHPAVRaven_Weapon@@@std@@@3@$0A@@std@@@std@@QAE?AV?$_Tree_iterator@V?$_Tree_val@V?$_Tmap_traits@HPAVRaven_Weapon@@U?$less@H@std@@V?$allocator@U?$pair@$$CBHPAVRaven_Weapon@@@std@@@3@$0A@@std@@@std@@@2@XZ ENDP ; std::_Tree<std::_Tmap_traits<int,Raven_Weapon *,std::less<int>,std::allocator<std::pair<int const ,Raven_Weapon *> >,0> >::end
_TEXT	ENDS
PUBLIC	??0?$_Tree_unchecked_const_iterator@V?$_Tree_val@V?$_Tmap_traits@HPAVRaven_Weapon@@U?$less@H@std@@V?$allocator@U?$pair@$$CBHPAVRaven_Weapon@@@std@@@3@$0A@@std@@@std@@U_Iterator_base12@2@@std@@QAE@XZ ; std::_Tree_unchecked_const_iterator<std::_Tree_val<std::_Tmap_traits<int,Raven_Weapon *,std::less<int>,std::allocator<std::pair<int const ,Raven_Weapon *> >,0> >,std::_Iterator_base12>::_Tree_unchecked_const_iterator<std::_Tree_val<std::_Tmap_traits<int,Raven_Weapon *,std::less<int>,std::allocator<std::pair<int const ,Raven_Weapon *> >,0> >,std::_Iterator_base12>
; Function compile flags: /Odtp /RTCsu
;	COMDAT ??0?$_Tree_const_iterator@V?$_Tree_val@V?$_Tmap_traits@HPAVRaven_Weapon@@U?$less@H@std@@V?$allocator@U?$pair@$$CBHPAVRaven_Weapon@@@std@@@3@$0A@@std@@@std@@@std@@QAE@XZ
_TEXT	SEGMENT
_this$ = -4						; size = 4
??0?$_Tree_const_iterator@V?$_Tree_val@V?$_Tmap_traits@HPAVRaven_Weapon@@U?$less@H@std@@V?$allocator@U?$pair@$$CBHPAVRaven_Weapon@@@std@@@3@$0A@@std@@@std@@@std@@QAE@XZ PROC ; std::_Tree_const_iterator<std::_Tree_val<std::_Tmap_traits<int,Raven_Weapon *,std::less<int>,std::allocator<std::pair<int const ,Raven_Weapon *> >,0> > >::_Tree_const_iterator<std::_Tree_val<std::_Tmap_traits<int,Raven_Weapon *,std::less<int>,std::allocator<std::pair<int const ,Raven_Weapon *> >,0> > >, COMDAT
; _this$ = ecx

; 208  : 		{	// construct with null node pointer

	push	ebp
	mov	ebp, esp
	push	ecx
	mov	DWORD PTR [ebp-4], -858993460		; ccccccccH
	mov	DWORD PTR _this$[ebp], ecx
	mov	ecx, DWORD PTR _this$[ebp]
	call	??0?$_Tree_unchecked_const_iterator@V?$_Tree_val@V?$_Tmap_traits@HPAVRaven_Weapon@@U?$less@H@std@@V?$allocator@U?$pair@$$CBHPAVRaven_Weapon@@@std@@@3@$0A@@std@@@std@@U_Iterator_base12@2@@std@@QAE@XZ ; std::_Tree_unchecked_const_iterator<std::_Tree_val<std::_Tmap_traits<int,Raven_Weapon *,std::less<int>,std::allocator<std::pair<int const ,Raven_Weapon *> >,0> >,std::_Iterator_base12>::_Tree_unchecked_const_iterator<std::_Tree_val<std::_Tmap_traits<int,Raven_Weapon *,std::less<int>,std::allocator<std::pair<int const ,Raven_Weapon *> >,0> >,std::_Iterator_base12>

; 209  : 		}

	mov	eax, DWORD PTR _this$[ebp]
	add	esp, 4
	cmp	ebp, esp
	call	__RTC_CheckEsp
	mov	esp, ebp
	pop	ebp
	ret	0
??0?$_Tree_const_iterator@V?$_Tree_val@V?$_Tmap_traits@HPAVRaven_Weapon@@U?$less@H@std@@V?$allocator@U?$pair@$$CBHPAVRaven_Weapon@@@std@@@3@$0A@@std@@@std@@@std@@QAE@XZ ENDP ; std::_Tree_const_iterator<std::_Tree_val<std::_Tmap_traits<int,Raven_Weapon *,std::less<int>,std::allocator<std::pair<int const ,Raven_Weapon *> >,0> > >::_Tree_const_iterator<std::_Tree_val<std::_Tmap_traits<int,Raven_Weapon *,std::less<int>,std::allocator<std::pair<int const ,Raven_Weapon *> >,0> > >
_TEXT	ENDS
PUBLIC	??E?$_Tree_unchecked_const_iterator@V?$_Tree_val@V?$_Tmap_traits@HPAVRaven_Weapon@@U?$less@H@std@@V?$allocator@U?$pair@$$CBHPAVRaven_Weapon@@@std@@@3@$0A@@std@@@std@@U_Iterator_base12@2@@std@@QAEAAV01@XZ ; std::_Tree_unchecked_const_iterator<std::_Tree_val<std::_Tmap_traits<int,Raven_Weapon *,std::less<int>,std::allocator<std::pair<int const ,Raven_Weapon *> >,0> >,std::_Iterator_base12>::operator++
PUBLIC	??_C@_1BO@MEPPHOO@?$AA?$CC?$AAo?$AAu?$AAt?$AA?5?$AAo?$AAf?$AA?5?$AAr?$AAa?$AAn?$AAg?$AAe?$AA?$CC?$AA?$AA@ ; `string'
PUBLIC	??_C@_1BKG@IMEFHEGI@?$AAs?$AAt?$AAd?$AA?3?$AA?3?$AA_?$AAT?$AAr?$AAe?$AAe?$AA_?$AAc?$AAo?$AAn?$AAs?$AAt?$AA_?$AAi?$AAt?$AAe?$AAr?$AAa?$AAt?$AAo?$AAr?$AA?$DM?$AAc?$AAl?$AAa?$AAs?$AAs?$AA?5@ ; `string'
PUBLIC	??_C@_1FG@IBPIFFN@?$AA?$CC?$AAS?$AAt?$AAa?$AAn?$AAd?$AAa?$AAr?$AAd?$AA?5?$AAC?$AA?$CL?$AA?$CL?$AA?5?$AAL?$AAi?$AAb?$AAr?$AAa?$AAr?$AAi?$AAe?$AAs?$AA?5?$AAO?$AAu?$AAt?$AA?5?$AAo?$AAf?$AA?5?$AAR@ ; `string'
PUBLIC	??_C@_0CE@OFMIGAMM@Standard?5C?$CL?$CL?5Libraries?5Out?5of?5Ra@ ; `string'
PUBLIC	??_C@_1EG@EHJFMBHJ@?$AAm?$AAa?$AAp?$AA?1?$AAs?$AAe?$AAt?$AA?5?$AAi?$AAt?$AAe?$AAr?$AAa?$AAt?$AAo?$AAr?$AA?5?$AAn?$AAo?$AAt?$AA?5?$AAi?$AAn?$AAc?$AAr?$AAe?$AAm?$AAe?$AAn?$AAt?$AAa?$AAb@ ; `string'
PUBLIC	??_C@_1IK@JNLFPKKF@?$AAc?$AA?3?$AA?2?$AAP?$AAr?$AAo?$AAg?$AAr?$AAa?$AAm?$AA?5?$AAF?$AAi?$AAl?$AAe?$AAs?$AA?5?$AA?$CI?$AAx?$AA8?$AA6?$AA?$CJ?$AA?2?$AAM?$AAi?$AAc?$AAr?$AAo?$AAs?$AAo?$AAf?$AAt@ ; `string'
PUBLIC	?_Isnil@?$_Tree_val@V?$_Tmap_traits@HPAVRaven_Weapon@@U?$less@H@std@@V?$allocator@U?$pair@$$CBHPAVRaven_Weapon@@@std@@@3@$0A@@std@@@std@@SAAADPAU_Node@?$_Tree_nod@V?$_Tmap_traits@HPAVRaven_Weapon@@U?$less@H@std@@V?$allocator@U?$pair@$$CBHPAVRaven_Weapon@@@std@@@3@$0A@@std@@@2@@Z ; std::_Tree_val<std::_Tmap_traits<int,Raven_Weapon *,std::less<int>,std::allocator<std::pair<int const ,Raven_Weapon *> >,0> >::_Isnil
PUBLIC	?_Getcont@_Iterator_base12@std@@QBEPBU_Container_base12@2@XZ ; std::_Iterator_base12::_Getcont
EXTRN	__invalid_parameter:PROC
EXTRN	__CrtDbgReportW:PROC
;	COMDAT ??_C@_1BO@MEPPHOO@?$AA?$CC?$AAo?$AAu?$AAt?$AA?5?$AAo?$AAf?$AA?5?$AAr?$AAa?$AAn?$AAg?$AAe?$AA?$CC?$AA?$AA@
CONST	SEGMENT
??_C@_1BO@MEPPHOO@?$AA?$CC?$AAo?$AAu?$AAt?$AA?5?$AAo?$AAf?$AA?5?$AAr?$AAa?$AAn?$AAg?$AAe?$AA?$CC?$AA?$AA@ DB '"'
	DB	00H, 'o', 00H, 'u', 00H, 't', 00H, ' ', 00H, 'o', 00H, 'f', 00H
	DB	' ', 00H, 'r', 00H, 'a', 00H, 'n', 00H, 'g', 00H, 'e', 00H, '"'
	DB	00H, 00H, 00H				; `string'
CONST	ENDS
;	COMDAT ??_C@_1BKG@IMEFHEGI@?$AAs?$AAt?$AAd?$AA?3?$AA?3?$AA_?$AAT?$AAr?$AAe?$AAe?$AA_?$AAc?$AAo?$AAn?$AAs?$AAt?$AA_?$AAi?$AAt?$AAe?$AAr?$AAa?$AAt?$AAo?$AAr?$AA?$DM?$AAc?$AAl?$AAa?$AAs?$AAs?$AA?5@
CONST	SEGMENT
??_C@_1BKG@IMEFHEGI@?$AAs?$AAt?$AAd?$AA?3?$AA?3?$AA_?$AAT?$AAr?$AAe?$AAe?$AA_?$AAc?$AAo?$AAn?$AAs?$AAt?$AA_?$AAi?$AAt?$AAe?$AAr?$AAa?$AAt?$AAo?$AAr?$AA?$DM?$AAc?$AAl?$AAa?$AAs?$AAs?$AA?5@ DB 's'
	DB	00H, 't', 00H, 'd', 00H, ':', 00H, ':', 00H, '_', 00H, 'T', 00H
	DB	'r', 00H, 'e', 00H, 'e', 00H, '_', 00H, 'c', 00H, 'o', 00H, 'n'
	DB	00H, 's', 00H, 't', 00H, '_', 00H, 'i', 00H, 't', 00H, 'e', 00H
	DB	'r', 00H, 'a', 00H, 't', 00H, 'o', 00H, 'r', 00H, '<', 00H, 'c'
	DB	00H, 'l', 00H, 'a', 00H, 's', 00H, 's', 00H, ' ', 00H, 's', 00H
	DB	't', 00H, 'd', 00H, ':', 00H, ':', 00H, '_', 00H, 'T', 00H, 'r'
	DB	00H, 'e', 00H, 'e', 00H, '_', 00H, 'v', 00H, 'a', 00H, 'l', 00H
	DB	'<', 00H, 'c', 00H, 'l', 00H, 'a', 00H, 's', 00H, 's', 00H, ' '
	DB	00H, 's', 00H, 't', 00H, 'd', 00H, ':', 00H, ':', 00H, '_', 00H
	DB	'T', 00H, 'm', 00H, 'a', 00H, 'p', 00H, '_', 00H, 't', 00H, 'r'
	DB	00H, 'a', 00H, 'i', 00H, 't', 00H, 's', 00H, '<', 00H, 'i', 00H
	DB	'n', 00H, 't', 00H, ',', 00H, 'c', 00H, 'l', 00H, 'a', 00H, 's'
	DB	00H, 's', 00H, ' ', 00H, 'R', 00H, 'a', 00H, 'v', 00H, 'e', 00H
	DB	'n', 00H, '_', 00H, 'W', 00H, 'e', 00H, 'a', 00H, 'p', 00H, 'o'
	DB	00H, 'n', 00H, ' ', 00H, '*', 00H, ',', 00H, 's', 00H, 't', 00H
	DB	'r', 00H, 'u', 00H, 'c', 00H, 't', 00H, ' ', 00H, 's', 00H, 't'
	DB	00H, 'd', 00H, ':', 00H, ':', 00H, 'l', 00H, 'e', 00H, 's', 00H
	DB	's', 00H, '<', 00H, 'i', 00H, 'n', 00H, 't', 00H, '>', 00H, ','
	DB	00H, 'c', 00H, 'l', 00H, 'a', 00H, 's', 00H, 's', 00H, ' ', 00H
	DB	's', 00H, 't', 00H, 'd', 00H, ':', 00H, ':', 00H, 'a', 00H, 'l'
	DB	00H, 'l', 00H, 'o', 00H, 'c', 00H, 'a', 00H, 't', 00H, 'o', 00H
	DB	'r', 00H, '<', 00H, 's', 00H, 't', 00H, 'r', 00H, 'u', 00H, 'c'
	DB	00H, 't', 00H, ' ', 00H, 's', 00H, 't', 00H, 'd', 00H, ':', 00H
	DB	':', 00H, 'p', 00H, 'a', 00H, 'i', 00H, 'r', 00H, '<', 00H, 'i'
	DB	00H, 'n', 00H, 't', 00H, ' ', 00H, 'c', 00H, 'o', 00H, 'n', 00H
	DB	's', 00H, 't', 00H, ' ', 00H, ',', 00H, 'c', 00H, 'l', 00H, 'a'
	DB	00H, 's', 00H, 's', 00H, ' ', 00H, 'R', 00H, 'a', 00H, 'v', 00H
	DB	'e', 00H, 'n', 00H, '_', 00H, 'W', 00H, 'e', 00H, 'a', 00H, 'p'
	DB	00H, 'o', 00H, 'n', 00H, ' ', 00H, '*', 00H, '>', 00H, ' ', 00H
	DB	'>', 00H, ',', 00H, '0', 00H, '>', 00H, ' ', 00H, '>', 00H, ' '
	DB	00H, '>', 00H, ':', 00H, ':', 00H, 'o', 00H, 'p', 00H, 'e', 00H
	DB	'r', 00H, 'a', 00H, 't', 00H, 'o', 00H, 'r', 00H, ' ', 00H, '+'
	DB	00H, '+', 00H, 00H, 00H			; `string'
CONST	ENDS
;	COMDAT ??_C@_1FG@IBPIFFN@?$AA?$CC?$AAS?$AAt?$AAa?$AAn?$AAd?$AAa?$AAr?$AAd?$AA?5?$AAC?$AA?$CL?$AA?$CL?$AA?5?$AAL?$AAi?$AAb?$AAr?$AAa?$AAr?$AAi?$AAe?$AAs?$AA?5?$AAO?$AAu?$AAt?$AA?5?$AAo?$AAf?$AA?5?$AAR@
CONST	SEGMENT
??_C@_1FG@IBPIFFN@?$AA?$CC?$AAS?$AAt?$AAa?$AAn?$AAd?$AAa?$AAr?$AAd?$AA?5?$AAC?$AA?$CL?$AA?$CL?$AA?5?$AAL?$AAi?$AAb?$AAr?$AAa?$AAr?$AAi?$AAe?$AAs?$AA?5?$AAO?$AAu?$AAt?$AA?5?$AAo?$AAf?$AA?5?$AAR@ DB '"'
	DB	00H, 'S', 00H, 't', 00H, 'a', 00H, 'n', 00H, 'd', 00H, 'a', 00H
	DB	'r', 00H, 'd', 00H, ' ', 00H, 'C', 00H, '+', 00H, '+', 00H, ' '
	DB	00H, 'L', 00H, 'i', 00H, 'b', 00H, 'r', 00H, 'a', 00H, 'r', 00H
	DB	'i', 00H, 'e', 00H, 's', 00H, ' ', 00H, 'O', 00H, 'u', 00H, 't'
	DB	00H, ' ', 00H, 'o', 00H, 'f', 00H, ' ', 00H, 'R', 00H, 'a', 00H
	DB	'n', 00H, 'g', 00H, 'e', 00H, '"', 00H, ' ', 00H, '&', 00H, '&'
	DB	00H, ' ', 00H, '0', 00H, 00H, 00H		; `string'
CONST	ENDS
;	COMDAT ??_C@_0CE@OFMIGAMM@Standard?5C?$CL?$CL?5Libraries?5Out?5of?5Ra@
CONST	SEGMENT
??_C@_0CE@OFMIGAMM@Standard?5C?$CL?$CL?5Libraries?5Out?5of?5Ra@ DB 'Stand'
	DB	'ard C++ Libraries Out of Range', 00H	; `string'
CONST	ENDS
;	COMDAT ??_C@_1EG@EHJFMBHJ@?$AAm?$AAa?$AAp?$AA?1?$AAs?$AAe?$AAt?$AA?5?$AAi?$AAt?$AAe?$AAr?$AAa?$AAt?$AAo?$AAr?$AA?5?$AAn?$AAo?$AAt?$AA?5?$AAi?$AAn?$AAc?$AAr?$AAe?$AAm?$AAe?$AAn?$AAt?$AAa?$AAb@
CONST	SEGMENT
??_C@_1EG@EHJFMBHJ@?$AAm?$AAa?$AAp?$AA?1?$AAs?$AAe?$AAt?$AA?5?$AAi?$AAt?$AAe?$AAr?$AAa?$AAt?$AAo?$AAr?$AA?5?$AAn?$AAo?$AAt?$AA?5?$AAi?$AAn?$AAc?$AAr?$AAe?$AAm?$AAe?$AAn?$AAt?$AAa?$AAb@ DB 'm'
	DB	00H, 'a', 00H, 'p', 00H, '/', 00H, 's', 00H, 'e', 00H, 't', 00H
	DB	' ', 00H, 'i', 00H, 't', 00H, 'e', 00H, 'r', 00H, 'a', 00H, 't'
	DB	00H, 'o', 00H, 'r', 00H, ' ', 00H, 'n', 00H, 'o', 00H, 't', 00H
	DB	' ', 00H, 'i', 00H, 'n', 00H, 'c', 00H, 'r', 00H, 'e', 00H, 'm'
	DB	00H, 'e', 00H, 'n', 00H, 't', 00H, 'a', 00H, 'b', 00H, 'l', 00H
	DB	'e', 00H, 00H, 00H				; `string'
CONST	ENDS
;	COMDAT ??_C@_1IK@JNLFPKKF@?$AAc?$AA?3?$AA?2?$AAP?$AAr?$AAo?$AAg?$AAr?$AAa?$AAm?$AA?5?$AAF?$AAi?$AAl?$AAe?$AAs?$AA?5?$AA?$CI?$AAx?$AA8?$AA6?$AA?$CJ?$AA?2?$AAM?$AAi?$AAc?$AAr?$AAo?$AAs?$AAo?$AAf?$AAt@
CONST	SEGMENT
??_C@_1IK@JNLFPKKF@?$AAc?$AA?3?$AA?2?$AAP?$AAr?$AAo?$AAg?$AAr?$AAa?$AAm?$AA?5?$AAF?$AAi?$AAl?$AAe?$AAs?$AA?5?$AA?$CI?$AAx?$AA8?$AA6?$AA?$CJ?$AA?2?$AAM?$AAi?$AAc?$AAr?$AAo?$AAs?$AAo?$AAf?$AAt@ DB 'c'
	DB	00H, ':', 00H, '\', 00H, 'P', 00H, 'r', 00H, 'o', 00H, 'g', 00H
	DB	'r', 00H, 'a', 00H, 'm', 00H, ' ', 00H, 'F', 00H, 'i', 00H, 'l'
	DB	00H, 'e', 00H, 's', 00H, ' ', 00H, '(', 00H, 'x', 00H, '8', 00H
	DB	'6', 00H, ')', 00H, '\', 00H, 'M', 00H, 'i', 00H, 'c', 00H, 'r'
	DB	00H, 'o', 00H, 's', 00H, 'o', 00H, 'f', 00H, 't', 00H, ' ', 00H
	DB	'V', 00H, 'i', 00H, 's', 00H, 'u', 00H, 'a', 00H, 'l', 00H, ' '
	DB	00H, 'S', 00H, 't', 00H, 'u', 00H, 'd', 00H, 'i', 00H, 'o', 00H
	DB	' ', 00H, '1', 00H, '0', 00H, '.', 00H, '0', 00H, '\', 00H, 'V'
	DB	00H, 'C', 00H, '\', 00H, 'i', 00H, 'n', 00H, 'c', 00H, 'l', 00H
	DB	'u', 00H, 'd', 00H, 'e', 00H, '\', 00H, 'x', 00H, 't', 00H, 'r'
	DB	00H, 'e', 00H, 'e', 00H, 00H, 00H		; `string'
; Function compile flags: /Odtp /RTCsu
CONST	ENDS
;	COMDAT ??E?$_Tree_const_iterator@V?$_Tree_val@V?$_Tmap_traits@HPAVRaven_Weapon@@U?$less@H@std@@V?$allocator@U?$pair@$$CBHPAVRaven_Weapon@@@std@@@3@$0A@@std@@@std@@@std@@QAEAAV01@XZ
_TEXT	SEGMENT
_this$ = -4						; size = 4
??E?$_Tree_const_iterator@V?$_Tree_val@V?$_Tmap_traits@HPAVRaven_Weapon@@U?$less@H@std@@V?$allocator@U?$pair@$$CBHPAVRaven_Weapon@@@std@@@3@$0A@@std@@@std@@@std@@QAEAAV01@XZ PROC ; std::_Tree_const_iterator<std::_Tree_val<std::_Tmap_traits<int,Raven_Weapon *,std::less<int>,std::allocator<std::pair<int const ,Raven_Weapon *> >,0> > >::operator++, COMDAT
; _this$ = ecx

; 250  : 		{	// preincrement

	push	ebp
	mov	ebp, esp
	push	ecx
	mov	DWORD PTR [ebp-4], -858993460		; ccccccccH
	mov	DWORD PTR _this$[ebp], ecx

; 251  :  #if _ITERATOR_DEBUG_LEVEL == 2
; 252  : 		if (this->_Getcont() == 0
; 253  : 			|| this->_Ptr == 0
; 254  : 			|| _Mytree::_Isnil(this->_Ptr))

	mov	ecx, DWORD PTR _this$[ebp]
	call	?_Getcont@_Iterator_base12@std@@QBEPBU_Container_base12@2@XZ ; std::_Iterator_base12::_Getcont
	test	eax, eax
	je	SHORT $LN1@operator@3
	mov	eax, DWORD PTR _this$[ebp]
	cmp	DWORD PTR [eax+8], 0
	je	SHORT $LN1@operator@3
	mov	ecx, DWORD PTR _this$[ebp]
	mov	edx, DWORD PTR [ecx+8]
	push	edx
	call	?_Isnil@?$_Tree_val@V?$_Tmap_traits@HPAVRaven_Weapon@@U?$less@H@std@@V?$allocator@U?$pair@$$CBHPAVRaven_Weapon@@@std@@@3@$0A@@std@@@std@@SAAADPAU_Node@?$_Tree_nod@V?$_Tmap_traits@HPAVRaven_Weapon@@U?$less@H@std@@V?$allocator@U?$pair@$$CBHPAVRaven_Weapon@@@std@@@3@$0A@@std@@@2@@Z ; std::_Tree_val<std::_Tmap_traits<int,Raven_Weapon *,std::less<int>,std::allocator<std::pair<int const ,Raven_Weapon *> >,0> >::_Isnil
	add	esp, 4
	movsx	eax, BYTE PTR [eax]
	test	eax, eax
	je	SHORT $LN2@operator@3
$LN1@operator@3:

; 255  : 			{	// report error
; 256  : 			_DEBUG_ERROR("map/set iterator not incrementable");

	push	256					; 00000100H
	push	OFFSET ??_C@_1IK@JNLFPKKF@?$AAc?$AA?3?$AA?2?$AAP?$AAr?$AAo?$AAg?$AAr?$AAa?$AAm?$AA?5?$AAF?$AAi?$AAl?$AAe?$AAs?$AA?5?$AA?$CI?$AAx?$AA8?$AA6?$AA?$CJ?$AA?2?$AAM?$AAi?$AAc?$AAr?$AAo?$AAs?$AAo?$AAf?$AAt@
	push	OFFSET ??_C@_1EG@EHJFMBHJ@?$AAm?$AAa?$AAp?$AA?1?$AAs?$AAe?$AAt?$AA?5?$AAi?$AAt?$AAe?$AAr?$AAa?$AAt?$AAo?$AAr?$AA?5?$AAn?$AAo?$AAt?$AA?5?$AAi?$AAn?$AAc?$AAr?$AAe?$AAm?$AAe?$AAn?$AAt?$AAa?$AAb@
	call	?_Debug_message@std@@YAXPB_W0I@Z	; std::_Debug_message
	add	esp, 12					; 0000000cH

; 257  : 			_SCL_SECURE_OUT_OF_RANGE;

	mov	ecx, OFFSET ??_C@_0CE@OFMIGAMM@Standard?5C?$CL?$CL?5Libraries?5Out?5of?5Ra@
	test	ecx, ecx
	je	SHORT $LN5@operator@3
	xor	edx, edx
	jne	SHORT $LN6@operator@3
$LN5@operator@3:
	push	OFFSET ??_C@_1FG@IBPIFFN@?$AA?$CC?$AAS?$AAt?$AAa?$AAn?$AAd?$AAa?$AAr?$AAd?$AA?5?$AAC?$AA?$CL?$AA?$CL?$AA?5?$AAL?$AAi?$AAb?$AAr?$AAa?$AAr?$AAi?$AAe?$AAs?$AA?5?$AAO?$AAu?$AAt?$AA?5?$AAo?$AAf?$AA?5?$AAR@
	push	0
	push	257					; 00000101H
	push	OFFSET ??_C@_1IK@JNLFPKKF@?$AAc?$AA?3?$AA?2?$AAP?$AAr?$AAo?$AAg?$AAr?$AAa?$AAm?$AA?5?$AAF?$AAi?$AAl?$AAe?$AAs?$AA?5?$AA?$CI?$AAx?$AA8?$AA6?$AA?$CJ?$AA?2?$AAM?$AAi?$AAc?$AAr?$AAo?$AAs?$AAo?$AAf?$AAt@
	push	2
	call	__CrtDbgReportW
	add	esp, 20					; 00000014H
	cmp	eax, 1
	jne	SHORT $LN6@operator@3
	int	3
$LN6@operator@3:
	push	0
	push	257					; 00000101H
	push	OFFSET ??_C@_1IK@JNLFPKKF@?$AAc?$AA?3?$AA?2?$AAP?$AAr?$AAo?$AAg?$AAr?$AAa?$AAm?$AA?5?$AAF?$AAi?$AAl?$AAe?$AAs?$AA?5?$AA?$CI?$AAx?$AA8?$AA6?$AA?$CJ?$AA?2?$AAM?$AAi?$AAc?$AAr?$AAo?$AAs?$AAo?$AAf?$AAt@
	push	OFFSET ??_C@_1BKG@IMEFHEGI@?$AAs?$AAt?$AAd?$AA?3?$AA?3?$AA_?$AAT?$AAr?$AAe?$AAe?$AA_?$AAc?$AAo?$AAn?$AAs?$AAt?$AA_?$AAi?$AAt?$AAe?$AAr?$AAa?$AAt?$AAo?$AAr?$AA?$DM?$AAc?$AAl?$AAa?$AAs?$AAs?$AA?5@
	push	OFFSET ??_C@_1BO@MEPPHOO@?$AA?$CC?$AAo?$AAu?$AAt?$AA?5?$AAo?$AAf?$AA?5?$AAr?$AAa?$AAn?$AAg?$AAe?$AA?$CC?$AA?$AA@
	call	__invalid_parameter
	add	esp, 20					; 00000014H
$LN2@operator@3:

; 258  : 			}
; 259  : 
; 260  :  #elif _ITERATOR_DEBUG_LEVEL == 1
; 261  : 		_SCL_SECURE_VALIDATE(this->_Getcont() != 0 && this->_Ptr != 0);
; 262  : 		_SCL_SECURE_VALIDATE_RANGE(!_Mytree::_Isnil(this->_Ptr));
; 263  :  #endif /* _ITERATOR_DEBUG_LEVEL */
; 264  : 
; 265  : 		++(*(_Mybase *)this);

	mov	ecx, DWORD PTR _this$[ebp]
	call	??E?$_Tree_unchecked_const_iterator@V?$_Tree_val@V?$_Tmap_traits@HPAVRaven_Weapon@@U?$less@H@std@@V?$allocator@U?$pair@$$CBHPAVRaven_Weapon@@@std@@@3@$0A@@std@@@std@@U_Iterator_base12@2@@std@@QAEAAV01@XZ ; std::_Tree_unchecked_const_iterator<std::_Tree_val<std::_Tmap_traits<int,Raven_Weapon *,std::less<int>,std::allocator<std::pair<int const ,Raven_Weapon *> >,0> >,std::_Iterator_base12>::operator++

; 266  : 		return (*this);

	mov	eax, DWORD PTR _this$[ebp]

; 267  : 		}

	add	esp, 4
	cmp	ebp, esp
	call	__RTC_CheckEsp
	mov	esp, ebp
	pop	ebp
	ret	0
??E?$_Tree_const_iterator@V?$_Tree_val@V?$_Tmap_traits@HPAVRaven_Weapon@@U?$less@H@std@@V?$allocator@U?$pair@$$CBHPAVRaven_Weapon@@@std@@@3@$0A@@std@@@std@@@std@@QAEAAV01@XZ ENDP ; std::_Tree_const_iterator<std::_Tree_val<std::_Tmap_traits<int,Raven_Weapon *,std::less<int>,std::allocator<std::pair<int const ,Raven_Weapon *> >,0> > >::operator++
; Function compile flags: /Odtp /RTCsu
; File c:\program files (x86)\microsoft visual studio 10.0\vc\include\xutility
_TEXT	ENDS
;	COMDAT ?_Getcont@_Iterator_base12@std@@QBEPBU_Container_base12@2@XZ
_TEXT	SEGMENT
tv66 = -8						; size = 4
_this$ = -4						; size = 4
?_Getcont@_Iterator_base12@std@@QBEPBU_Container_base12@2@XZ PROC ; std::_Iterator_base12::_Getcont, COMDAT
; _this$ = ecx

; 174  : 		{	// get owning container

	push	ebp
	mov	ebp, esp
	sub	esp, 8
	mov	DWORD PTR [ebp-8], -858993460		; ccccccccH
	mov	DWORD PTR [ebp-4], -858993460		; ccccccccH
	mov	DWORD PTR _this$[ebp], ecx

; 175  : 		return (_Myproxy == 0 ? 0 : _Myproxy->_Mycont);

	mov	eax, DWORD PTR _this$[ebp]
	cmp	DWORD PTR [eax], 0
	jne	SHORT $LN3@Getcont
	mov	DWORD PTR tv66[ebp], 0
	jmp	SHORT $LN4@Getcont
$LN3@Getcont:
	mov	ecx, DWORD PTR _this$[ebp]
	mov	edx, DWORD PTR [ecx]
	mov	eax, DWORD PTR [edx]
	mov	DWORD PTR tv66[ebp], eax
$LN4@Getcont:
	mov	eax, DWORD PTR tv66[ebp]

; 176  : 		}

	mov	esp, ebp
	pop	ebp
	ret	0
?_Getcont@_Iterator_base12@std@@QBEPBU_Container_base12@2@XZ ENDP ; std::_Iterator_base12::_Getcont
; Function compile flags: /Odtp /RTCsu
; File c:\program files (x86)\microsoft visual studio 10.0\vc\include\xtree
_TEXT	ENDS
;	COMDAT ??9?$_Tree_const_iterator@V?$_Tree_val@V?$_Tmap_traits@HPAVRaven_Weapon@@U?$less@H@std@@V?$allocator@U?$pair@$$CBHPAVRaven_Weapon@@@std@@@3@$0A@@std@@@std@@@std@@QBE_NABV01@@Z
_TEXT	SEGMENT
_this$ = -4						; size = 4
__Right$ = 8						; size = 4
??9?$_Tree_const_iterator@V?$_Tree_val@V?$_Tmap_traits@HPAVRaven_Weapon@@U?$less@H@std@@V?$allocator@U?$pair@$$CBHPAVRaven_Weapon@@@std@@@3@$0A@@std@@@std@@@std@@QBE_NABV01@@Z PROC ; std::_Tree_const_iterator<std::_Tree_val<std::_Tmap_traits<int,Raven_Weapon *,std::less<int>,std::allocator<std::pair<int const ,Raven_Weapon *> >,0> > >::operator!=, COMDAT
; _this$ = ecx

; 334  : 		{	// test for iterator inequality

	push	ebp
	mov	ebp, esp
	push	ecx
	mov	DWORD PTR [ebp-4], -858993460		; ccccccccH
	mov	DWORD PTR _this$[ebp], ecx

; 335  : 		return (!(*this == _Right));

	mov	eax, DWORD PTR __Right$[ebp]
	push	eax
	mov	ecx, DWORD PTR _this$[ebp]
	call	??8?$_Tree_const_iterator@V?$_Tree_val@V?$_Tmap_traits@HPAVRaven_Weapon@@U?$less@H@std@@V?$allocator@U?$pair@$$CBHPAVRaven_Weapon@@@std@@@3@$0A@@std@@@std@@@std@@QBE_NABV01@@Z ; std::_Tree_const_iterator<std::_Tree_val<std::_Tmap_traits<int,Raven_Weapon *,std::less<int>,std::allocator<std::pair<int const ,Raven_Weapon *> >,0> > >::operator==
	movzx	eax, al
	neg	eax
	sbb	eax, eax
	add	eax, 1

; 336  : 		}

	add	esp, 4
	cmp	ebp, esp
	call	__RTC_CheckEsp
	mov	esp, ebp
	pop	ebp
	ret	4
??9?$_Tree_const_iterator@V?$_Tree_val@V?$_Tmap_traits@HPAVRaven_Weapon@@U?$less@H@std@@V?$allocator@U?$pair@$$CBHPAVRaven_Weapon@@@std@@@3@$0A@@std@@@std@@@std@@QBE_NABV01@@Z ENDP ; std::_Tree_const_iterator<std::_Tree_val<std::_Tmap_traits<int,Raven_Weapon *,std::less<int>,std::allocator<std::pair<int const ,Raven_Weapon *> >,0> > >::operator!=
_TEXT	ENDS
PUBLIC	??D?$_Tree_unchecked_const_iterator@V?$_Tree_val@V?$_Tmap_traits@HPAVRaven_Weapon@@U?$less@H@std@@V?$allocator@U?$pair@$$CBHPAVRaven_Weapon@@@std@@@3@$0A@@std@@@std@@U_Iterator_base12@2@@std@@QBEABU?$pair@$$CBHPAVRaven_Weapon@@@1@XZ ; std::_Tree_unchecked_const_iterator<std::_Tree_val<std::_Tmap_traits<int,Raven_Weapon *,std::less<int>,std::allocator<std::pair<int const ,Raven_Weapon *> >,0> >,std::_Iterator_base12>::operator*
; Function compile flags: /Odtp /RTCsu
;	COMDAT ??C?$_Tree_unchecked_const_iterator@V?$_Tree_val@V?$_Tmap_traits@HPAVRaven_Weapon@@U?$less@H@std@@V?$allocator@U?$pair@$$CBHPAVRaven_Weapon@@@std@@@3@$0A@@std@@@std@@U_Iterator_base12@2@@std@@QBEPBU?$pair@$$CBHPAVRaven_Weapon@@@1@XZ
_TEXT	SEGMENT
_this$ = -4						; size = 4
??C?$_Tree_unchecked_const_iterator@V?$_Tree_val@V?$_Tmap_traits@HPAVRaven_Weapon@@U?$less@H@std@@V?$allocator@U?$pair@$$CBHPAVRaven_Weapon@@@std@@@3@$0A@@std@@@std@@U_Iterator_base12@2@@std@@QBEPBU?$pair@$$CBHPAVRaven_Weapon@@@1@XZ PROC ; std::_Tree_unchecked_const_iterator<std::_Tree_val<std::_Tmap_traits<int,Raven_Weapon *,std::less<int>,std::allocator<std::pair<int const ,Raven_Weapon *> >,0> >,std::_Iterator_base12>::operator->, COMDAT
; _this$ = ecx

; 53   : 		{	// return pointer to class object

	push	ebp
	mov	ebp, esp
	push	ecx
	mov	DWORD PTR [ebp-4], -858993460		; ccccccccH
	mov	DWORD PTR _this$[ebp], ecx

; 54   : 		return (&**this);

	mov	ecx, DWORD PTR _this$[ebp]
	call	??D?$_Tree_unchecked_const_iterator@V?$_Tree_val@V?$_Tmap_traits@HPAVRaven_Weapon@@U?$less@H@std@@V?$allocator@U?$pair@$$CBHPAVRaven_Weapon@@@std@@@3@$0A@@std@@@std@@U_Iterator_base12@2@@std@@QBEABU?$pair@$$CBHPAVRaven_Weapon@@@1@XZ ; std::_Tree_unchecked_const_iterator<std::_Tree_val<std::_Tmap_traits<int,Raven_Weapon *,std::less<int>,std::allocator<std::pair<int const ,Raven_Weapon *> >,0> >,std::_Iterator_base12>::operator*

; 55   : 		}

	add	esp, 4
	cmp	ebp, esp
	call	__RTC_CheckEsp
	mov	esp, ebp
	pop	ebp
	ret	0
??C?$_Tree_unchecked_const_iterator@V?$_Tree_val@V?$_Tmap_traits@HPAVRaven_Weapon@@U?$less@H@std@@V?$allocator@U?$pair@$$CBHPAVRaven_Weapon@@@std@@@3@$0A@@std@@@std@@U_Iterator_base12@2@@std@@QBEPBU?$pair@$$CBHPAVRaven_Weapon@@@1@XZ ENDP ; std::_Tree_unchecked_const_iterator<std::_Tree_val<std::_Tmap_traits<int,Raven_Weapon *,std::less<int>,std::allocator<std::pair<int const ,Raven_Weapon *> >,0> >,std::_Iterator_base12>::operator->
_TEXT	ENDS
PUBLIC	??0?$_Tree_unchecked_const_iterator@V?$_Tree_val@V?$_Tmap_traits@HPAVRaven_Weapon@@U?$less@H@std@@V?$allocator@U?$pair@$$CBHPAVRaven_Weapon@@@std@@@3@$0A@@std@@@std@@U_Iterator_base12@2@@std@@QAE@ABV01@@Z ; std::_Tree_unchecked_const_iterator<std::_Tree_val<std::_Tmap_traits<int,Raven_Weapon *,std::less<int>,std::allocator<std::pair<int const ,Raven_Weapon *> >,0> >,std::_Iterator_base12>::_Tree_unchecked_const_iterator<std::_Tree_val<std::_Tmap_traits<int,Raven_Weapon *,std::less<int>,std::allocator<std::pair<int const ,Raven_Weapon *> >,0> >,std::_Iterator_base12>
; Function compile flags: /Odtp /RTCsu
;	COMDAT ??0?$_Tree_const_iterator@V?$_Tree_val@V?$_Tmap_traits@HPAVRaven_Weapon@@U?$less@H@std@@V?$allocator@U?$pair@$$CBHPAVRaven_Weapon@@@std@@@3@$0A@@std@@@std@@@std@@QAE@ABV01@@Z
_TEXT	SEGMENT
_this$ = -4						; size = 4
___that$ = 8						; size = 4
??0?$_Tree_const_iterator@V?$_Tree_val@V?$_Tmap_traits@HPAVRaven_Weapon@@U?$less@H@std@@V?$allocator@U?$pair@$$CBHPAVRaven_Weapon@@@std@@@3@$0A@@std@@@std@@@std@@QAE@ABV01@@Z PROC ; std::_Tree_const_iterator<std::_Tree_val<std::_Tmap_traits<int,Raven_Weapon *,std::less<int>,std::allocator<std::pair<int const ,Raven_Weapon *> >,0> > >::_Tree_const_iterator<std::_Tree_val<std::_Tmap_traits<int,Raven_Weapon *,std::less<int>,std::allocator<std::pair<int const ,Raven_Weapon *> >,0> > >, COMDAT
; _this$ = ecx
	push	ebp
	mov	ebp, esp
	push	ecx
	mov	DWORD PTR [ebp-4], -858993460		; ccccccccH
	mov	DWORD PTR _this$[ebp], ecx
	mov	eax, DWORD PTR ___that$[ebp]
	push	eax
	mov	ecx, DWORD PTR _this$[ebp]
	call	??0?$_Tree_unchecked_const_iterator@V?$_Tree_val@V?$_Tmap_traits@HPAVRaven_Weapon@@U?$less@H@std@@V?$allocator@U?$pair@$$CBHPAVRaven_Weapon@@@std@@@3@$0A@@std@@@std@@U_Iterator_base12@2@@std@@QAE@ABV01@@Z
	mov	eax, DWORD PTR _this$[ebp]
	add	esp, 4
	cmp	ebp, esp
	call	__RTC_CheckEsp
	mov	esp, ebp
	pop	ebp
	ret	4
??0?$_Tree_const_iterator@V?$_Tree_val@V?$_Tmap_traits@HPAVRaven_Weapon@@U?$less@H@std@@V?$allocator@U?$pair@$$CBHPAVRaven_Weapon@@@std@@@3@$0A@@std@@@std@@@std@@QAE@ABV01@@Z ENDP ; std::_Tree_const_iterator<std::_Tree_val<std::_Tmap_traits<int,Raven_Weapon *,std::less<int>,std::allocator<std::pair<int const ,Raven_Weapon *> >,0> > >::_Tree_const_iterator<std::_Tree_val<std::_Tmap_traits<int,Raven_Weapon *,std::less<int>,std::allocator<std::pair<int const ,Raven_Weapon *> >,0> > >
; Function compile flags: /Odtp /RTCsu
_TEXT	ENDS
;	COMDAT ??4?$_Tree_iterator@V?$_Tree_val@V?$_Tmap_traits@HPAVRaven_Weapon@@U?$less@H@std@@V?$allocator@U?$pair@$$CBHPAVRaven_Weapon@@@std@@@3@$0A@@std@@@std@@@std@@QAEAAV01@ABV01@@Z
_TEXT	SEGMENT
_this$ = -4						; size = 4
___that$ = 8						; size = 4
??4?$_Tree_iterator@V?$_Tree_val@V?$_Tmap_traits@HPAVRaven_Weapon@@U?$less@H@std@@V?$allocator@U?$pair@$$CBHPAVRaven_Weapon@@@std@@@3@$0A@@std@@@std@@@std@@QAEAAV01@ABV01@@Z PROC ; std::_Tree_iterator<std::_Tree_val<std::_Tmap_traits<int,Raven_Weapon *,std::less<int>,std::allocator<std::pair<int const ,Raven_Weapon *> >,0> > >::operator=, COMDAT
; _this$ = ecx
	push	ebp
	mov	ebp, esp
	push	ecx
	mov	DWORD PTR [ebp-4], -858993460		; ccccccccH
	mov	DWORD PTR _this$[ebp], ecx
	mov	eax, DWORD PTR ___that$[ebp]
	push	eax
	mov	ecx, DWORD PTR _this$[ebp]
	call	??4?$_Tree_const_iterator@V?$_Tree_val@V?$_Tmap_traits@HPAVRaven_Weapon@@U?$less@H@std@@V?$allocator@U?$pair@$$CBHPAVRaven_Weapon@@@std@@@3@$0A@@std@@@std@@@std@@QAEAAV01@ABV01@@Z
	mov	eax, DWORD PTR _this$[ebp]
	add	esp, 4
	cmp	ebp, esp
	call	__RTC_CheckEsp
	mov	esp, ebp
	pop	ebp
	ret	4
??4?$_Tree_iterator@V?$_Tree_val@V?$_Tmap_traits@HPAVRaven_Weapon@@U?$less@H@std@@V?$allocator@U?$pair@$$CBHPAVRaven_Weapon@@@std@@@3@$0A@@std@@@std@@@std@@QAEAAV01@ABV01@@Z ENDP ; std::_Tree_iterator<std::_Tree_val<std::_Tmap_traits<int,Raven_Weapon *,std::less<int>,std::allocator<std::pair<int const ,Raven_Weapon *> >,0> > >::operator=
_TEXT	ENDS
PUBLIC	??0?$_Iterator012@Ubidirectional_iterator_tag@std@@U?$pair@$$CBHPAVRaven_Weapon@@@2@HPBU32@ABU32@U_Iterator_base12@2@@std@@QAE@ABU01@@Z ; std::_Iterator012<std::bidirectional_iterator_tag,std::pair<int const ,Raven_Weapon *>,int,std::pair<int const ,Raven_Weapon *> const *,std::pair<int const ,Raven_Weapon *> const &,std::_Iterator_base12>::_Iterator012<std::bidirectional_iterator_tag,std::pair<int const ,Raven_Weapon *>,int,std::pair<int const ,Raven_Weapon *> const *,std::pair<int const ,Raven_Weapon *> const &,std::_Iterator_base12>
; Function compile flags: /Odtp /RTCsu
;	COMDAT ??0?$_Tree_unchecked_const_iterator@V?$_Tree_val@V?$_Tmap_traits@HPAVRaven_Weapon@@U?$less@H@std@@V?$allocator@U?$pair@$$CBHPAVRaven_Weapon@@@std@@@3@$0A@@std@@@std@@U_Iterator_base12@2@@std@@QAE@ABV01@@Z
_TEXT	SEGMENT
_this$ = -4						; size = 4
___that$ = 8						; size = 4
??0?$_Tree_unchecked_const_iterator@V?$_Tree_val@V?$_Tmap_traits@HPAVRaven_Weapon@@U?$less@H@std@@V?$allocator@U?$pair@$$CBHPAVRaven_Weapon@@@std@@@3@$0A@@std@@@std@@U_Iterator_base12@2@@std@@QAE@ABV01@@Z PROC ; std::_Tree_unchecked_const_iterator<std::_Tree_val<std::_Tmap_traits<int,Raven_Weapon *,std::less<int>,std::allocator<std::pair<int const ,Raven_Weapon *> >,0> >,std::_Iterator_base12>::_Tree_unchecked_const_iterator<std::_Tree_val<std::_Tmap_traits<int,Raven_Weapon *,std::less<int>,std::allocator<std::pair<int const ,Raven_Weapon *> >,0> >,std::_Iterator_base12>, COMDAT
; _this$ = ecx
	push	ebp
	mov	ebp, esp
	push	ecx
	mov	DWORD PTR [ebp-4], -858993460		; ccccccccH
	mov	DWORD PTR _this$[ebp], ecx
	mov	eax, DWORD PTR ___that$[ebp]
	push	eax
	mov	ecx, DWORD PTR _this$[ebp]
	call	??0?$_Iterator012@Ubidirectional_iterator_tag@std@@U?$pair@$$CBHPAVRaven_Weapon@@@2@HPBU32@ABU32@U_Iterator_base12@2@@std@@QAE@ABU01@@Z
	mov	ecx, DWORD PTR _this$[ebp]
	mov	edx, DWORD PTR ___that$[ebp]
	mov	eax, DWORD PTR [edx+8]
	mov	DWORD PTR [ecx+8], eax
	mov	eax, DWORD PTR _this$[ebp]
	add	esp, 4
	cmp	ebp, esp
	call	__RTC_CheckEsp
	mov	esp, ebp
	pop	ebp
	ret	4
??0?$_Tree_unchecked_const_iterator@V?$_Tree_val@V?$_Tmap_traits@HPAVRaven_Weapon@@U?$less@H@std@@V?$allocator@U?$pair@$$CBHPAVRaven_Weapon@@@std@@@3@$0A@@std@@@std@@U_Iterator_base12@2@@std@@QAE@ABV01@@Z ENDP ; std::_Tree_unchecked_const_iterator<std::_Tree_val<std::_Tmap_traits<int,Raven_Weapon *,std::less<int>,std::allocator<std::pair<int const ,Raven_Weapon *> >,0> >,std::_Iterator_base12>::_Tree_unchecked_const_iterator<std::_Tree_val<std::_Tmap_traits<int,Raven_Weapon *,std::less<int>,std::allocator<std::pair<int const ,Raven_Weapon *> >,0> >,std::_Iterator_base12>
_TEXT	ENDS
PUBLIC	??0_Iterator_base12@std@@QAE@ABU01@@Z		; std::_Iterator_base12::_Iterator_base12
; Function compile flags: /Odtp /RTCsu
;	COMDAT ??0?$_Iterator012@Ubidirectional_iterator_tag@std@@U?$pair@$$CBHPAVRaven_Weapon@@@2@HPBU32@ABU32@U_Iterator_base12@2@@std@@QAE@ABU01@@Z
_TEXT	SEGMENT
_this$ = -4						; size = 4
___that$ = 8						; size = 4
??0?$_Iterator012@Ubidirectional_iterator_tag@std@@U?$pair@$$CBHPAVRaven_Weapon@@@2@HPBU32@ABU32@U_Iterator_base12@2@@std@@QAE@ABU01@@Z PROC ; std::_Iterator012<std::bidirectional_iterator_tag,std::pair<int const ,Raven_Weapon *>,int,std::pair<int const ,Raven_Weapon *> const *,std::pair<int const ,Raven_Weapon *> const &,std::_Iterator_base12>::_Iterator012<std::bidirectional_iterator_tag,std::pair<int const ,Raven_Weapon *>,int,std::pair<int const ,Raven_Weapon *> const *,std::pair<int const ,Raven_Weapon *> const &,std::_Iterator_base12>, COMDAT
; _this$ = ecx
	push	ebp
	mov	ebp, esp
	push	ecx
	mov	DWORD PTR [ebp-4], -858993460		; ccccccccH
	mov	DWORD PTR _this$[ebp], ecx
	mov	eax, DWORD PTR ___that$[ebp]
	push	eax
	mov	ecx, DWORD PTR _this$[ebp]
	call	??0_Iterator_base12@std@@QAE@ABU01@@Z	; std::_Iterator_base12::_Iterator_base12
	mov	eax, DWORD PTR _this$[ebp]
	add	esp, 4
	cmp	ebp, esp
	call	__RTC_CheckEsp
	mov	esp, ebp
	pop	ebp
	ret	4
??0?$_Iterator012@Ubidirectional_iterator_tag@std@@U?$pair@$$CBHPAVRaven_Weapon@@@2@HPBU32@ABU32@U_Iterator_base12@2@@std@@QAE@ABU01@@Z ENDP ; std::_Iterator012<std::bidirectional_iterator_tag,std::pair<int const ,Raven_Weapon *>,int,std::pair<int const ,Raven_Weapon *> const *,std::pair<int const ,Raven_Weapon *> const &,std::_Iterator_base12>::_Iterator012<std::bidirectional_iterator_tag,std::pair<int const ,Raven_Weapon *>,int,std::pair<int const ,Raven_Weapon *> const *,std::pair<int const ,Raven_Weapon *> const &,std::_Iterator_base12>
; Function compile flags: /Odtp /RTCsu
; File c:\program files (x86)\microsoft visual studio 10.0\vc\include\xutility
_TEXT	ENDS
;	COMDAT ??0_Iterator_base12@std@@QAE@ABU01@@Z
_TEXT	SEGMENT
_this$ = -4						; size = 4
__Right$ = 8						; size = 4
??0_Iterator_base12@std@@QAE@ABU01@@Z PROC		; std::_Iterator_base12::_Iterator_base12, COMDAT
; _this$ = ecx

; 116  : 		{	// copy an iterator

	push	ebp
	mov	ebp, esp
	push	ecx
	mov	DWORD PTR [ebp-4], -858993460		; ccccccccH
	mov	DWORD PTR _this$[ebp], ecx
	mov	eax, DWORD PTR _this$[ebp]
	mov	DWORD PTR [eax], 0
	mov	ecx, DWORD PTR _this$[ebp]
	mov	DWORD PTR [ecx+4], 0

; 117  : 		*this = _Right;

	mov	edx, DWORD PTR __Right$[ebp]
	push	edx
	mov	ecx, DWORD PTR _this$[ebp]
	call	??4_Iterator_base12@std@@QAEAAU01@ABU01@@Z ; std::_Iterator_base12::operator=

; 118  : 		}

	mov	eax, DWORD PTR _this$[ebp]
	add	esp, 4
	cmp	ebp, esp
	call	__RTC_CheckEsp
	mov	esp, ebp
	pop	ebp
	ret	4
??0_Iterator_base12@std@@QAE@ABU01@@Z ENDP		; std::_Iterator_base12::_Iterator_base12
_TEXT	ENDS
PUBLIC	?_Lbound@?$_Tree@V?$_Tmap_traits@HPAVRaven_Weapon@@U?$less@H@std@@V?$allocator@U?$pair@$$CBHPAVRaven_Weapon@@@std@@@3@$0A@@std@@@std@@IAEPAU_Node@?$_Tree_nod@V?$_Tmap_traits@HPAVRaven_Weapon@@U?$less@H@std@@V?$allocator@U?$pair@$$CBHPAVRaven_Weapon@@@std@@@3@$0A@@std@@@2@ABH@Z ; std::_Tree<std::_Tmap_traits<int,Raven_Weapon *,std::less<int>,std::allocator<std::pair<int const ,Raven_Weapon *> >,0> >::_Lbound
; Function compile flags: /Odtp /RTCsu
; File c:\program files (x86)\microsoft visual studio 10.0\vc\include\xtree
;	COMDAT ?lower_bound@?$_Tree@V?$_Tmap_traits@HPAVRaven_Weapon@@U?$less@H@std@@V?$allocator@U?$pair@$$CBHPAVRaven_Weapon@@@std@@@3@$0A@@std@@@std@@QAE?AV?$_Tree_iterator@V?$_Tree_val@V?$_Tmap_traits@HPAVRaven_Weapon@@U?$less@H@std@@V?$allocator@U?$pair@$$CBHPAVRaven_Weapon@@@std@@@3@$0A@@std@@@std@@@2@ABH@Z
_TEXT	SEGMENT
$T150369 = -8						; size = 4
_this$ = -4						; size = 4
___$ReturnUdt$ = 8					; size = 4
__Keyval$ = 12						; size = 4
?lower_bound@?$_Tree@V?$_Tmap_traits@HPAVRaven_Weapon@@U?$less@H@std@@V?$allocator@U?$pair@$$CBHPAVRaven_Weapon@@@std@@@3@$0A@@std@@@std@@QAE?AV?$_Tree_iterator@V?$_Tree_val@V?$_Tmap_traits@HPAVRaven_Weapon@@U?$less@H@std@@V?$allocator@U?$pair@$$CBHPAVRaven_Weapon@@@std@@@3@$0A@@std@@@std@@@2@ABH@Z PROC ; std::_Tree<std::_Tmap_traits<int,Raven_Weapon *,std::less<int>,std::allocator<std::pair<int const ,Raven_Weapon *> >,0> >::lower_bound, COMDAT
; _this$ = ecx

; 1449 : 		{	// find leftmost node not less than _Keyval in mutable tree

	push	ebp
	mov	ebp, esp
	sub	esp, 8
	mov	DWORD PTR [ebp-8], -858993460		; ccccccccH
	mov	DWORD PTR [ebp-4], -858993460		; ccccccccH
	mov	DWORD PTR _this$[ebp], ecx
	mov	DWORD PTR $T150369[ebp], 0

; 1450 : 		return (iterator(_Lbound(_Keyval), this));

	mov	eax, DWORD PTR _this$[ebp]
	push	eax
	mov	ecx, DWORD PTR __Keyval$[ebp]
	push	ecx
	mov	ecx, DWORD PTR _this$[ebp]
	call	?_Lbound@?$_Tree@V?$_Tmap_traits@HPAVRaven_Weapon@@U?$less@H@std@@V?$allocator@U?$pair@$$CBHPAVRaven_Weapon@@@std@@@3@$0A@@std@@@std@@IAEPAU_Node@?$_Tree_nod@V?$_Tmap_traits@HPAVRaven_Weapon@@U?$less@H@std@@V?$allocator@U?$pair@$$CBHPAVRaven_Weapon@@@std@@@3@$0A@@std@@@2@ABH@Z ; std::_Tree<std::_Tmap_traits<int,Raven_Weapon *,std::less<int>,std::allocator<std::pair<int const ,Raven_Weapon *> >,0> >::_Lbound
	push	eax
	mov	ecx, DWORD PTR ___$ReturnUdt$[ebp]
	call	??0?$_Tree_iterator@V?$_Tree_val@V?$_Tmap_traits@HPAVRaven_Weapon@@U?$less@H@std@@V?$allocator@U?$pair@$$CBHPAVRaven_Weapon@@@std@@@3@$0A@@std@@@std@@@std@@QAE@PAU_Node@?$_Tree_nod@V?$_Tmap_traits@HPAVRaven_Weapon@@U?$less@H@std@@V?$allocator@U?$pair@$$CBHPAVRaven_Weapon@@@std@@@3@$0A@@std@@@1@PBV?$_Tree_val@V?$_Tmap_traits@HPAVRaven_Weapon@@U?$less@H@std@@V?$allocator@U?$pair@$$CBHPAVRaven_Weapon@@@std@@@3@$0A@@std@@@1@@Z ; std::_Tree_iterator<std::_Tree_val<std::_Tmap_traits<int,Raven_Weapon *,std::less<int>,std::allocator<std::pair<int const ,Raven_Weapon *> >,0> > >::_Tree_iterator<std::_Tree_val<std::_Tmap_traits<int,Raven_Weapon *,std::less<int>,std::allocator<std::pair<int const ,Raven_Weapon *> >,0> > >
	mov	edx, DWORD PTR $T150369[ebp]
	or	edx, 1
	mov	DWORD PTR $T150369[ebp], edx
	mov	eax, DWORD PTR ___$ReturnUdt$[ebp]

; 1451 : 		}

	add	esp, 8
	cmp	ebp, esp
	call	__RTC_CheckEsp
	mov	esp, ebp
	pop	ebp
	ret	8
?lower_bound@?$_Tree@V?$_Tmap_traits@HPAVRaven_Weapon@@U?$less@H@std@@V?$allocator@U?$pair@$$CBHPAVRaven_Weapon@@@std@@@3@$0A@@std@@@std@@QAE?AV?$_Tree_iterator@V?$_Tree_val@V?$_Tmap_traits@HPAVRaven_Weapon@@U?$less@H@std@@V?$allocator@U?$pair@$$CBHPAVRaven_Weapon@@@std@@@3@$0A@@std@@@std@@@2@ABH@Z ENDP ; std::_Tree<std::_Tmap_traits<int,Raven_Weapon *,std::less<int>,std::allocator<std::pair<int const ,Raven_Weapon *> >,0> >::lower_bound
_TEXT	ENDS
PUBLIC	?_Left@?$_Tree_val@V?$_Tmap_traits@HPAVRaven_Weapon@@U?$less@H@std@@V?$allocator@U?$pair@$$CBHPAVRaven_Weapon@@@std@@@3@$0A@@std@@@std@@SAAAPAU_Node@?$_Tree_nod@V?$_Tmap_traits@HPAVRaven_Weapon@@U?$less@H@std@@V?$allocator@U?$pair@$$CBHPAVRaven_Weapon@@@std@@@3@$0A@@std@@@2@PAU342@@Z ; std::_Tree_val<std::_Tmap_traits<int,Raven_Weapon *,std::less<int>,std::allocator<std::pair<int const ,Raven_Weapon *> >,0> >::_Left
; Function compile flags: /Odtp /RTCsu
;	COMDAT ?_Lmost@?$_Tree@V?$_Tmap_traits@HPAVRaven_Weapon@@U?$less@H@std@@V?$allocator@U?$pair@$$CBHPAVRaven_Weapon@@@std@@@3@$0A@@std@@@std@@IBEAAPAU_Node@?$_Tree_nod@V?$_Tmap_traits@HPAVRaven_Weapon@@U?$less@H@std@@V?$allocator@U?$pair@$$CBHPAVRaven_Weapon@@@std@@@3@$0A@@std@@@2@XZ
_TEXT	SEGMENT
_this$ = -4						; size = 4
?_Lmost@?$_Tree@V?$_Tmap_traits@HPAVRaven_Weapon@@U?$less@H@std@@V?$allocator@U?$pair@$$CBHPAVRaven_Weapon@@@std@@@3@$0A@@std@@@std@@IBEAAPAU_Node@?$_Tree_nod@V?$_Tmap_traits@HPAVRaven_Weapon@@U?$less@H@std@@V?$allocator@U?$pair@$$CBHPAVRaven_Weapon@@@std@@@3@$0A@@std@@@2@XZ PROC ; std::_Tree<std::_Tmap_traits<int,Raven_Weapon *,std::less<int>,std::allocator<std::pair<int const ,Raven_Weapon *> >,0> >::_Lmost, COMDAT
; _this$ = ecx

; 1758 : 		{	// return leftmost node in nonmutable tree

	push	ebp
	mov	ebp, esp
	push	ecx
	mov	DWORD PTR [ebp-4], -858993460		; ccccccccH
	mov	DWORD PTR _this$[ebp], ecx

; 1759 : 		return (this->_Left(this->_Myhead));

	mov	eax, DWORD PTR _this$[ebp]
	mov	ecx, DWORD PTR [eax+8]
	push	ecx
	call	?_Left@?$_Tree_val@V?$_Tmap_traits@HPAVRaven_Weapon@@U?$less@H@std@@V?$allocator@U?$pair@$$CBHPAVRaven_Weapon@@@std@@@3@$0A@@std@@@std@@SAAAPAU_Node@?$_Tree_nod@V?$_Tmap_traits@HPAVRaven_Weapon@@U?$less@H@std@@V?$allocator@U?$pair@$$CBHPAVRaven_Weapon@@@std@@@3@$0A@@std@@@2@PAU342@@Z ; std::_Tree_val<std::_Tmap_traits<int,Raven_Weapon *,std::less<int>,std::allocator<std::pair<int const ,Raven_Weapon *> >,0> >::_Left
	add	esp, 4

; 1760 : 		}

	add	esp, 4
	cmp	ebp, esp
	call	__RTC_CheckEsp
	mov	esp, ebp
	pop	ebp
	ret	0
?_Lmost@?$_Tree@V?$_Tmap_traits@HPAVRaven_Weapon@@U?$less@H@std@@V?$allocator@U?$pair@$$CBHPAVRaven_Weapon@@@std@@@3@$0A@@std@@@std@@IBEAAPAU_Node@?$_Tree_nod@V?$_Tmap_traits@HPAVRaven_Weapon@@U?$less@H@std@@V?$allocator@U?$pair@$$CBHPAVRaven_Weapon@@@std@@@3@$0A@@std@@@2@XZ ENDP ; std::_Tree<std::_Tmap_traits<int,Raven_Weapon *,std::less<int>,std::allocator<std::pair<int const ,Raven_Weapon *> >,0> >::_Lmost
; Function compile flags: /Odtp /RTCsu
_TEXT	ENDS
;	COMDAT ?_Isnil@?$_Tree_val@V?$_Tmap_traits@HPAVRaven_Weapon@@U?$less@H@std@@V?$allocator@U?$pair@$$CBHPAVRaven_Weapon@@@std@@@3@$0A@@std@@@std@@SAAADPAU_Node@?$_Tree_nod@V?$_Tmap_traits@HPAVRaven_Weapon@@U?$less@H@std@@V?$allocator@U?$pair@$$CBHPAVRaven_Weapon@@@std@@@3@$0A@@std@@@2@@Z
_TEXT	SEGMENT
__Pnode$ = 8						; size = 4
?_Isnil@?$_Tree_val@V?$_Tmap_traits@HPAVRaven_Weapon@@U?$less@H@std@@V?$allocator@U?$pair@$$CBHPAVRaven_Weapon@@@std@@@3@$0A@@std@@@std@@SAAADPAU_Node@?$_Tree_nod@V?$_Tmap_traits@HPAVRaven_Weapon@@U?$less@H@std@@V?$allocator@U?$pair@$$CBHPAVRaven_Weapon@@@std@@@3@$0A@@std@@@2@@Z PROC ; std::_Tree_val<std::_Tmap_traits<int,Raven_Weapon *,std::less<int>,std::allocator<std::pair<int const ,Raven_Weapon *> >,0> >::_Isnil, COMDAT

; 611  : 		{	// return reference to nil flag in node

	push	ebp
	mov	ebp, esp

; 612  : 		return ((char&)(*_Pnode)._Isnil);

	mov	eax, DWORD PTR __Pnode$[ebp]
	add	eax, 21					; 00000015H

; 613  : 		}

	pop	ebp
	ret	0
?_Isnil@?$_Tree_val@V?$_Tmap_traits@HPAVRaven_Weapon@@U?$less@H@std@@V?$allocator@U?$pair@$$CBHPAVRaven_Weapon@@@std@@@3@$0A@@std@@@std@@SAAADPAU_Node@?$_Tree_nod@V?$_Tmap_traits@HPAVRaven_Weapon@@U?$less@H@std@@V?$allocator@U?$pair@$$CBHPAVRaven_Weapon@@@std@@@3@$0A@@std@@@2@@Z ENDP ; std::_Tree_val<std::_Tmap_traits<int,Raven_Weapon *,std::less<int>,std::allocator<std::pair<int const ,Raven_Weapon *> >,0> >::_Isnil
_TEXT	ENDS
PUBLIC	??$_Kfn@$$CBHPAVRaven_Weapon@@@?$_Tmap_traits@HPAVRaven_Weapon@@U?$less@H@std@@V?$allocator@U?$pair@$$CBHPAVRaven_Weapon@@@std@@@3@$0A@@std@@SAABHABU?$pair@$$CBHPAVRaven_Weapon@@@1@@Z ; std::_Tmap_traits<int,Raven_Weapon *,std::less<int>,std::allocator<std::pair<int const ,Raven_Weapon *> >,0>::_Kfn<int const ,Raven_Weapon *>
PUBLIC	?_Myval@?$_Tree_val@V?$_Tmap_traits@HPAVRaven_Weapon@@U?$less@H@std@@V?$allocator@U?$pair@$$CBHPAVRaven_Weapon@@@std@@@3@$0A@@std@@@std@@SAAAU?$pair@$$CBHPAVRaven_Weapon@@@2@PAU_Node@?$_Tree_nod@V?$_Tmap_traits@HPAVRaven_Weapon@@U?$less@H@std@@V?$allocator@U?$pair@$$CBHPAVRaven_Weapon@@@std@@@3@$0A@@std@@@2@@Z ; std::_Tree_val<std::_Tmap_traits<int,Raven_Weapon *,std::less<int>,std::allocator<std::pair<int const ,Raven_Weapon *> >,0> >::_Myval
; Function compile flags: /Odtp /RTCsu
;	COMDAT ?_Key@?$_Tree_val@V?$_Tmap_traits@HPAVRaven_Weapon@@U?$less@H@std@@V?$allocator@U?$pair@$$CBHPAVRaven_Weapon@@@std@@@3@$0A@@std@@@std@@SAAAHPAU_Node@?$_Tree_nod@V?$_Tmap_traits@HPAVRaven_Weapon@@U?$less@H@std@@V?$allocator@U?$pair@$$CBHPAVRaven_Weapon@@@std@@@3@$0A@@std@@@2@@Z
_TEXT	SEGMENT
__Pnode$ = 8						; size = 4
?_Key@?$_Tree_val@V?$_Tmap_traits@HPAVRaven_Weapon@@U?$less@H@std@@V?$allocator@U?$pair@$$CBHPAVRaven_Weapon@@@std@@@3@$0A@@std@@@std@@SAAAHPAU_Node@?$_Tree_nod@V?$_Tmap_traits@HPAVRaven_Weapon@@U?$less@H@std@@V?$allocator@U?$pair@$$CBHPAVRaven_Weapon@@@std@@@3@$0A@@std@@@2@@Z PROC ; std::_Tree_val<std::_Tmap_traits<int,Raven_Weapon *,std::less<int>,std::allocator<std::pair<int const ,Raven_Weapon *> >,0> >::_Key, COMDAT

; 616  : 		{	// return reference to key in node

	push	ebp
	mov	ebp, esp

; 617  : 		return ((key_type&)_Traits::_Kfn(_Myval(_Pnode)));

	mov	eax, DWORD PTR __Pnode$[ebp]
	push	eax
	call	?_Myval@?$_Tree_val@V?$_Tmap_traits@HPAVRaven_Weapon@@U?$less@H@std@@V?$allocator@U?$pair@$$CBHPAVRaven_Weapon@@@std@@@3@$0A@@std@@@std@@SAAAU?$pair@$$CBHPAVRaven_Weapon@@@2@PAU_Node@?$_Tree_nod@V?$_Tmap_traits@HPAVRaven_Weapon@@U?$less@H@std@@V?$allocator@U?$pair@$$CBHPAVRaven_Weapon@@@std@@@3@$0A@@std@@@2@@Z ; std::_Tree_val<std::_Tmap_traits<int,Raven_Weapon *,std::less<int>,std::allocator<std::pair<int const ,Raven_Weapon *> >,0> >::_Myval
	add	esp, 4
	push	eax
	call	??$_Kfn@$$CBHPAVRaven_Weapon@@@?$_Tmap_traits@HPAVRaven_Weapon@@U?$less@H@std@@V?$allocator@U?$pair@$$CBHPAVRaven_Weapon@@@std@@@3@$0A@@std@@SAABHABU?$pair@$$CBHPAVRaven_Weapon@@@1@@Z ; std::_Tmap_traits<int,Raven_Weapon *,std::less<int>,std::allocator<std::pair<int const ,Raven_Weapon *> >,0>::_Kfn<int const ,Raven_Weapon *>
	add	esp, 4

; 618  : 		}

	cmp	ebp, esp
	call	__RTC_CheckEsp
	pop	ebp
	ret	0
?_Key@?$_Tree_val@V?$_Tmap_traits@HPAVRaven_Weapon@@U?$less@H@std@@V?$allocator@U?$pair@$$CBHPAVRaven_Weapon@@@std@@@3@$0A@@std@@@std@@SAAAHPAU_Node@?$_Tree_nod@V?$_Tmap_traits@HPAVRaven_Weapon@@U?$less@H@std@@V?$allocator@U?$pair@$$CBHPAVRaven_Weapon@@@std@@@3@$0A@@std@@@2@@Z ENDP ; std::_Tree_val<std::_Tmap_traits<int,Raven_Weapon *,std::less<int>,std::allocator<std::pair<int const ,Raven_Weapon *> >,0> >::_Key
; Function compile flags: /Odtp /RTCsu
; File c:\program files (x86)\microsoft visual studio 10.0\vc\include\xfunctional
_TEXT	ENDS
;	COMDAT ??R?$less@H@std@@QBE_NABH0@Z
_TEXT	SEGMENT
_this$ = -4						; size = 4
__Left$ = 8						; size = 4
__Right$ = 12						; size = 4
??R?$less@H@std@@QBE_NABH0@Z PROC			; std::less<int>::operator(), COMDAT
; _this$ = ecx

; 124  : 		{	// apply operator< to operands

	push	ebp
	mov	ebp, esp
	push	ecx
	mov	DWORD PTR [ebp-4], -858993460		; ccccccccH
	mov	DWORD PTR _this$[ebp], ecx

; 125  : 		return (_Left < _Right);

	mov	eax, DWORD PTR __Left$[ebp]
	mov	ecx, DWORD PTR __Right$[ebp]
	mov	edx, DWORD PTR [eax]
	xor	eax, eax
	cmp	edx, DWORD PTR [ecx]
	setl	al

; 126  : 		}

	mov	esp, ebp
	pop	ebp
	ret	8
??R?$less@H@std@@QBE_NABH0@Z ENDP			; std::less<int>::operator()
_TEXT	ENDS
PUBLIC	??_C@_1CG@JNLFBNGN@?$AA?$CC?$AAi?$AAn?$AAv?$AAa?$AAl?$AAi?$AAd?$AA?5?$AAa?$AAr?$AAg?$AAu?$AAm?$AAe?$AAn?$AAt?$AA?$CC?$AA?$AA@ ; `string'
PUBLIC	??_C@_1BKG@CMLIJNKN@?$AAs?$AAt?$AAd?$AA?3?$AA?3?$AA_?$AAT?$AAr?$AAe?$AAe?$AA_?$AAc?$AAo?$AAn?$AAs?$AAt?$AA_?$AAi?$AAt?$AAe?$AAr?$AAa?$AAt?$AAo?$AAr?$AA?$DM?$AAc?$AAl?$AAa?$AAs?$AAs?$AA?5@ ; `string'
PUBLIC	??_C@_1FO@GJIHNDLM@?$AA?$CC?$AAS?$AAt?$AAa?$AAn?$AAd?$AAa?$AAr?$AAd?$AA?5?$AAC?$AA?$CL?$AA?$CL?$AA?5?$AAL?$AAi?$AAb?$AAr?$AAa?$AAr?$AAi?$AAe?$AAs?$AA?5?$AAI?$AAn?$AAv?$AAa?$AAl?$AAi?$AAd?$AA?5@ ; `string'
PUBLIC	??_C@_0CI@FNPHFCCM@Standard?5C?$CL?$CL?5Libraries?5Invalid?5A@ ; `string'
PUBLIC	??_C@_1DO@CFEEPGGJ@?$AAm?$AAa?$AAp?$AA?1?$AAs?$AAe?$AAt?$AA?5?$AAi?$AAt?$AAe?$AAr?$AAa?$AAt?$AAo?$AAr?$AAs?$AA?5?$AAi?$AAn?$AAc?$AAo?$AAm?$AAp?$AAa?$AAt?$AAi?$AAb?$AAl?$AAe?$AA?$AA@ ; `string'
;	COMDAT ??_C@_1CG@JNLFBNGN@?$AA?$CC?$AAi?$AAn?$AAv?$AAa?$AAl?$AAi?$AAd?$AA?5?$AAa?$AAr?$AAg?$AAu?$AAm?$AAe?$AAn?$AAt?$AA?$CC?$AA?$AA@
; File c:\program files (x86)\microsoft visual studio 10.0\vc\include\xtree
CONST	SEGMENT
??_C@_1CG@JNLFBNGN@?$AA?$CC?$AAi?$AAn?$AAv?$AAa?$AAl?$AAi?$AAd?$AA?5?$AAa?$AAr?$AAg?$AAu?$AAm?$AAe?$AAn?$AAt?$AA?$CC?$AA?$AA@ DB '"'
	DB	00H, 'i', 00H, 'n', 00H, 'v', 00H, 'a', 00H, 'l', 00H, 'i', 00H
	DB	'd', 00H, ' ', 00H, 'a', 00H, 'r', 00H, 'g', 00H, 'u', 00H, 'm'
	DB	00H, 'e', 00H, 'n', 00H, 't', 00H, '"', 00H, 00H, 00H ; `string'
CONST	ENDS
;	COMDAT ??_C@_1BKG@CMLIJNKN@?$AAs?$AAt?$AAd?$AA?3?$AA?3?$AA_?$AAT?$AAr?$AAe?$AAe?$AA_?$AAc?$AAo?$AAn?$AAs?$AAt?$AA_?$AAi?$AAt?$AAe?$AAr?$AAa?$AAt?$AAo?$AAr?$AA?$DM?$AAc?$AAl?$AAa?$AAs?$AAs?$AA?5@
CONST	SEGMENT
??_C@_1BKG@CMLIJNKN@?$AAs?$AAt?$AAd?$AA?3?$AA?3?$AA_?$AAT?$AAr?$AAe?$AAe?$AA_?$AAc?$AAo?$AAn?$AAs?$AAt?$AA_?$AAi?$AAt?$AAe?$AAr?$AAa?$AAt?$AAo?$AAr?$AA?$DM?$AAc?$AAl?$AAa?$AAs?$AAs?$AA?5@ DB 's'
	DB	00H, 't', 00H, 'd', 00H, ':', 00H, ':', 00H, '_', 00H, 'T', 00H
	DB	'r', 00H, 'e', 00H, 'e', 00H, '_', 00H, 'c', 00H, 'o', 00H, 'n'
	DB	00H, 's', 00H, 't', 00H, '_', 00H, 'i', 00H, 't', 00H, 'e', 00H
	DB	'r', 00H, 'a', 00H, 't', 00H, 'o', 00H, 'r', 00H, '<', 00H, 'c'
	DB	00H, 'l', 00H, 'a', 00H, 's', 00H, 's', 00H, ' ', 00H, 's', 00H
	DB	't', 00H, 'd', 00H, ':', 00H, ':', 00H, '_', 00H, 'T', 00H, 'r'
	DB	00H, 'e', 00H, 'e', 00H, '_', 00H, 'v', 00H, 'a', 00H, 'l', 00H
	DB	'<', 00H, 'c', 00H, 'l', 00H, 'a', 00H, 's', 00H, 's', 00H, ' '
	DB	00H, 's', 00H, 't', 00H, 'd', 00H, ':', 00H, ':', 00H, '_', 00H
	DB	'T', 00H, 'm', 00H, 'a', 00H, 'p', 00H, '_', 00H, 't', 00H, 'r'
	DB	00H, 'a', 00H, 'i', 00H, 't', 00H, 's', 00H, '<', 00H, 'i', 00H
	DB	'n', 00H, 't', 00H, ',', 00H, 'c', 00H, 'l', 00H, 'a', 00H, 's'
	DB	00H, 's', 00H, ' ', 00H, 'R', 00H, 'a', 00H, 'v', 00H, 'e', 00H
	DB	'n', 00H, '_', 00H, 'W', 00H, 'e', 00H, 'a', 00H, 'p', 00H, 'o'
	DB	00H, 'n', 00H, ' ', 00H, '*', 00H, ',', 00H, 's', 00H, 't', 00H
	DB	'r', 00H, 'u', 00H, 'c', 00H, 't', 00H, ' ', 00H, 's', 00H, 't'
	DB	00H, 'd', 00H, ':', 00H, ':', 00H, 'l', 00H, 'e', 00H, 's', 00H
	DB	's', 00H, '<', 00H, 'i', 00H, 'n', 00H, 't', 00H, '>', 00H, ','
	DB	00H, 'c', 00H, 'l', 00H, 'a', 00H, 's', 00H, 's', 00H, ' ', 00H
	DB	's', 00H, 't', 00H, 'd', 00H, ':', 00H, ':', 00H, 'a', 00H, 'l'
	DB	00H, 'l', 00H, 'o', 00H, 'c', 00H, 'a', 00H, 't', 00H, 'o', 00H
	DB	'r', 00H, '<', 00H, 's', 00H, 't', 00H, 'r', 00H, 'u', 00H, 'c'
	DB	00H, 't', 00H, ' ', 00H, 's', 00H, 't', 00H, 'd', 00H, ':', 00H
	DB	':', 00H, 'p', 00H, 'a', 00H, 'i', 00H, 'r', 00H, '<', 00H, 'i'
	DB	00H, 'n', 00H, 't', 00H, ' ', 00H, 'c', 00H, 'o', 00H, 'n', 00H
	DB	's', 00H, 't', 00H, ' ', 00H, ',', 00H, 'c', 00H, 'l', 00H, 'a'
	DB	00H, 's', 00H, 's', 00H, ' ', 00H, 'R', 00H, 'a', 00H, 'v', 00H
	DB	'e', 00H, 'n', 00H, '_', 00H, 'W', 00H, 'e', 00H, 'a', 00H, 'p'
	DB	00H, 'o', 00H, 'n', 00H, ' ', 00H, '*', 00H, '>', 00H, ' ', 00H
	DB	'>', 00H, ',', 00H, '0', 00H, '>', 00H, ' ', 00H, '>', 00H, ' '
	DB	00H, '>', 00H, ':', 00H, ':', 00H, 'o', 00H, 'p', 00H, 'e', 00H
	DB	'r', 00H, 'a', 00H, 't', 00H, 'o', 00H, 'r', 00H, ' ', 00H, '='
	DB	00H, '=', 00H, 00H, 00H			; `string'
CONST	ENDS
;	COMDAT ??_C@_1FO@GJIHNDLM@?$AA?$CC?$AAS?$AAt?$AAa?$AAn?$AAd?$AAa?$AAr?$AAd?$AA?5?$AAC?$AA?$CL?$AA?$CL?$AA?5?$AAL?$AAi?$AAb?$AAr?$AAa?$AAr?$AAi?$AAe?$AAs?$AA?5?$AAI?$AAn?$AAv?$AAa?$AAl?$AAi?$AAd?$AA?5@
CONST	SEGMENT
??_C@_1FO@GJIHNDLM@?$AA?$CC?$AAS?$AAt?$AAa?$AAn?$AAd?$AAa?$AAr?$AAd?$AA?5?$AAC?$AA?$CL?$AA?$CL?$AA?5?$AAL?$AAi?$AAb?$AAr?$AAa?$AAr?$AAi?$AAe?$AAs?$AA?5?$AAI?$AAn?$AAv?$AAa?$AAl?$AAi?$AAd?$AA?5@ DB '"'
	DB	00H, 'S', 00H, 't', 00H, 'a', 00H, 'n', 00H, 'd', 00H, 'a', 00H
	DB	'r', 00H, 'd', 00H, ' ', 00H, 'C', 00H, '+', 00H, '+', 00H, ' '
	DB	00H, 'L', 00H, 'i', 00H, 'b', 00H, 'r', 00H, 'a', 00H, 'r', 00H
	DB	'i', 00H, 'e', 00H, 's', 00H, ' ', 00H, 'I', 00H, 'n', 00H, 'v'
	DB	00H, 'a', 00H, 'l', 00H, 'i', 00H, 'd', 00H, ' ', 00H, 'A', 00H
	DB	'r', 00H, 'g', 00H, 'u', 00H, 'm', 00H, 'e', 00H, 'n', 00H, 't'
	DB	00H, '"', 00H, ' ', 00H, '&', 00H, '&', 00H, ' ', 00H, '0', 00H
	DB	00H, 00H					; `string'
CONST	ENDS
;	COMDAT ??_C@_0CI@FNPHFCCM@Standard?5C?$CL?$CL?5Libraries?5Invalid?5A@
CONST	SEGMENT
??_C@_0CI@FNPHFCCM@Standard?5C?$CL?$CL?5Libraries?5Invalid?5A@ DB 'Standa'
	DB	'rd C++ Libraries Invalid Argument', 00H	; `string'
CONST	ENDS
;	COMDAT ??_C@_1DO@CFEEPGGJ@?$AAm?$AAa?$AAp?$AA?1?$AAs?$AAe?$AAt?$AA?5?$AAi?$AAt?$AAe?$AAr?$AAa?$AAt?$AAo?$AAr?$AAs?$AA?5?$AAi?$AAn?$AAc?$AAo?$AAm?$AAp?$AAa?$AAt?$AAi?$AAb?$AAl?$AAe?$AA?$AA@
CONST	SEGMENT
??_C@_1DO@CFEEPGGJ@?$AAm?$AAa?$AAp?$AA?1?$AAs?$AAe?$AAt?$AA?5?$AAi?$AAt?$AAe?$AAr?$AAa?$AAt?$AAo?$AAr?$AAs?$AA?5?$AAi?$AAn?$AAc?$AAo?$AAm?$AAp?$AAa?$AAt?$AAi?$AAb?$AAl?$AAe?$AA?$AA@ DB 'm'
	DB	00H, 'a', 00H, 'p', 00H, '/', 00H, 's', 00H, 'e', 00H, 't', 00H
	DB	' ', 00H, 'i', 00H, 't', 00H, 'e', 00H, 'r', 00H, 'a', 00H, 't'
	DB	00H, 'o', 00H, 'r', 00H, 's', 00H, ' ', 00H, 'i', 00H, 'n', 00H
	DB	'c', 00H, 'o', 00H, 'm', 00H, 'p', 00H, 'a', 00H, 't', 00H, 'i'
	DB	00H, 'b', 00H, 'l', 00H, 'e', 00H, 00H, 00H	; `string'
; Function compile flags: /Odtp /RTCsu
CONST	ENDS
;	COMDAT ??8?$_Tree_const_iterator@V?$_Tree_val@V?$_Tmap_traits@HPAVRaven_Weapon@@U?$less@H@std@@V?$allocator@U?$pair@$$CBHPAVRaven_Weapon@@@std@@@3@$0A@@std@@@std@@@std@@QBE_NABV01@@Z
_TEXT	SEGMENT
_this$ = -4						; size = 4
__Right$ = 8						; size = 4
??8?$_Tree_const_iterator@V?$_Tree_val@V?$_Tmap_traits@HPAVRaven_Weapon@@U?$less@H@std@@V?$allocator@U?$pair@$$CBHPAVRaven_Weapon@@@std@@@3@$0A@@std@@@std@@@std@@QBE_NABV01@@Z PROC ; std::_Tree_const_iterator<std::_Tree_val<std::_Tmap_traits<int,Raven_Weapon *,std::less<int>,std::allocator<std::pair<int const ,Raven_Weapon *> >,0> > >::operator==, COMDAT
; _this$ = ecx

; 316  : 		{	// test for iterator equality

	push	ebp
	mov	ebp, esp
	push	ecx
	push	esi
	mov	DWORD PTR [ebp-4], -858993460		; ccccccccH
	mov	DWORD PTR _this$[ebp], ecx

; 317  :  #if _ITERATOR_DEBUG_LEVEL == 2
; 318  : 		if (this->_Getcont() == 0
; 319  : 			|| this->_Getcont() != _Right._Getcont())

	mov	ecx, DWORD PTR _this$[ebp]
	call	?_Getcont@_Iterator_base12@std@@QBEPBU_Container_base12@2@XZ ; std::_Iterator_base12::_Getcont
	test	eax, eax
	je	SHORT $LN1@operator@4
	mov	ecx, DWORD PTR _this$[ebp]
	call	?_Getcont@_Iterator_base12@std@@QBEPBU_Container_base12@2@XZ ; std::_Iterator_base12::_Getcont
	mov	esi, eax
	mov	ecx, DWORD PTR __Right$[ebp]
	call	?_Getcont@_Iterator_base12@std@@QBEPBU_Container_base12@2@XZ ; std::_Iterator_base12::_Getcont
	cmp	esi, eax
	je	SHORT $LN2@operator@4
$LN1@operator@4:

; 320  : 			{	// report error
; 321  : 			_DEBUG_ERROR("map/set iterators incompatible");

	push	321					; 00000141H
	push	OFFSET ??_C@_1IK@JNLFPKKF@?$AAc?$AA?3?$AA?2?$AAP?$AAr?$AAo?$AAg?$AAr?$AAa?$AAm?$AA?5?$AAF?$AAi?$AAl?$AAe?$AAs?$AA?5?$AA?$CI?$AAx?$AA8?$AA6?$AA?$CJ?$AA?2?$AAM?$AAi?$AAc?$AAr?$AAo?$AAs?$AAo?$AAf?$AAt@
	push	OFFSET ??_C@_1DO@CFEEPGGJ@?$AAm?$AAa?$AAp?$AA?1?$AAs?$AAe?$AAt?$AA?5?$AAi?$AAt?$AAe?$AAr?$AAa?$AAt?$AAo?$AAr?$AAs?$AA?5?$AAi?$AAn?$AAc?$AAo?$AAm?$AAp?$AAa?$AAt?$AAi?$AAb?$AAl?$AAe?$AA?$AA@
	call	?_Debug_message@std@@YAXPB_W0I@Z	; std::_Debug_message
	add	esp, 12					; 0000000cH

; 322  : 			_SCL_SECURE_INVALID_ARGUMENT;

	mov	eax, OFFSET ??_C@_0CI@FNPHFCCM@Standard?5C?$CL?$CL?5Libraries?5Invalid?5A@
	test	eax, eax
	je	SHORT $LN5@operator@4
	xor	ecx, ecx
	jne	SHORT $LN6@operator@4
$LN5@operator@4:
	push	OFFSET ??_C@_1FO@GJIHNDLM@?$AA?$CC?$AAS?$AAt?$AAa?$AAn?$AAd?$AAa?$AAr?$AAd?$AA?5?$AAC?$AA?$CL?$AA?$CL?$AA?5?$AAL?$AAi?$AAb?$AAr?$AAa?$AAr?$AAi?$AAe?$AAs?$AA?5?$AAI?$AAn?$AAv?$AAa?$AAl?$AAi?$AAd?$AA?5@
	push	0
	push	322					; 00000142H
	push	OFFSET ??_C@_1IK@JNLFPKKF@?$AAc?$AA?3?$AA?2?$AAP?$AAr?$AAo?$AAg?$AAr?$AAa?$AAm?$AA?5?$AAF?$AAi?$AAl?$AAe?$AAs?$AA?5?$AA?$CI?$AAx?$AA8?$AA6?$AA?$CJ?$AA?2?$AAM?$AAi?$AAc?$AAr?$AAo?$AAs?$AAo?$AAf?$AAt@
	push	2
	call	__CrtDbgReportW
	add	esp, 20					; 00000014H
	cmp	eax, 1
	jne	SHORT $LN6@operator@4
	int	3
$LN6@operator@4:
	push	0
	push	322					; 00000142H
	push	OFFSET ??_C@_1IK@JNLFPKKF@?$AAc?$AA?3?$AA?2?$AAP?$AAr?$AAo?$AAg?$AAr?$AAa?$AAm?$AA?5?$AAF?$AAi?$AAl?$AAe?$AAs?$AA?5?$AA?$CI?$AAx?$AA8?$AA6?$AA?$CJ?$AA?2?$AAM?$AAi?$AAc?$AAr?$AAo?$AAs?$AAo?$AAf?$AAt@
	push	OFFSET ??_C@_1BKG@CMLIJNKN@?$AAs?$AAt?$AAd?$AA?3?$AA?3?$AA_?$AAT?$AAr?$AAe?$AAe?$AA_?$AAc?$AAo?$AAn?$AAs?$AAt?$AA_?$AAi?$AAt?$AAe?$AAr?$AAa?$AAt?$AAo?$AAr?$AA?$DM?$AAc?$AAl?$AAa?$AAs?$AAs?$AA?5@
	push	OFFSET ??_C@_1CG@JNLFBNGN@?$AA?$CC?$AAi?$AAn?$AAv?$AAa?$AAl?$AAi?$AAd?$AA?5?$AAa?$AAr?$AAg?$AAu?$AAm?$AAe?$AAn?$AAt?$AA?$CC?$AA?$AA@
	call	__invalid_parameter
	add	esp, 20					; 00000014H
$LN2@operator@4:

; 323  : 			}
; 324  : 
; 325  :  #elif _ITERATOR_DEBUG_LEVEL == 1
; 326  : 		_SCL_SECURE_VALIDATE(this->_Getcont() != 0
; 327  : 			&& this->_Getcont() == _Right._Getcont());
; 328  :  #endif /* _ITERATOR_DEBUG_LEVEL */
; 329  : 
; 330  : 		return (this->_Ptr == _Right._Ptr);

	mov	eax, DWORD PTR _this$[ebp]
	mov	ecx, DWORD PTR __Right$[ebp]
	mov	edx, DWORD PTR [eax+8]
	xor	eax, eax
	cmp	edx, DWORD PTR [ecx+8]
	sete	al

; 331  : 		}

	pop	esi
	add	esp, 4
	cmp	ebp, esp
	call	__RTC_CheckEsp
	mov	esp, ebp
	pop	ebp
	ret	4
??8?$_Tree_const_iterator@V?$_Tree_val@V?$_Tmap_traits@HPAVRaven_Weapon@@U?$less@H@std@@V?$allocator@U?$pair@$$CBHPAVRaven_Weapon@@@std@@@3@$0A@@std@@@std@@@std@@QBE_NABV01@@Z ENDP ; std::_Tree_const_iterator<std::_Tree_val<std::_Tmap_traits<int,Raven_Weapon *,std::less<int>,std::allocator<std::pair<int const ,Raven_Weapon *> >,0> > >::operator==
_TEXT	ENDS
PUBLIC	??0?$_Iterator012@Ubidirectional_iterator_tag@std@@U?$pair@$$CBHPAVRaven_Weapon@@@2@HPBU32@ABU32@U_Iterator_base12@2@@std@@QAE@XZ ; std::_Iterator012<std::bidirectional_iterator_tag,std::pair<int const ,Raven_Weapon *>,int,std::pair<int const ,Raven_Weapon *> const *,std::pair<int const ,Raven_Weapon *> const &,std::_Iterator_base12>::_Iterator012<std::bidirectional_iterator_tag,std::pair<int const ,Raven_Weapon *>,int,std::pair<int const ,Raven_Weapon *> const *,std::pair<int const ,Raven_Weapon *> const &,std::_Iterator_base12>
; Function compile flags: /Odtp /RTCsu
;	COMDAT ??0?$_Tree_unchecked_const_iterator@V?$_Tree_val@V?$_Tmap_traits@HPAVRaven_Weapon@@U?$less@H@std@@V?$allocator@U?$pair@$$CBHPAVRaven_Weapon@@@std@@@3@$0A@@std@@@std@@U_Iterator_base12@2@@std@@QAE@XZ
_TEXT	SEGMENT
_this$ = -4						; size = 4
??0?$_Tree_unchecked_const_iterator@V?$_Tree_val@V?$_Tmap_traits@HPAVRaven_Weapon@@U?$less@H@std@@V?$allocator@U?$pair@$$CBHPAVRaven_Weapon@@@std@@@3@$0A@@std@@@std@@U_Iterator_base12@2@@std@@QAE@XZ PROC ; std::_Tree_unchecked_const_iterator<std::_Tree_val<std::_Tmap_traits<int,Raven_Weapon *,std::less<int>,std::allocator<std::pair<int const ,Raven_Weapon *> >,0> >,std::_Iterator_base12>::_Tree_unchecked_const_iterator<std::_Tree_val<std::_Tmap_traits<int,Raven_Weapon *,std::less<int>,std::allocator<std::pair<int const ,Raven_Weapon *> >,0> >,std::_Iterator_base12>, COMDAT
; _this$ = ecx

; 38   : 		{	// construct with null node pointer

	push	ebp
	mov	ebp, esp
	push	ecx
	mov	DWORD PTR [ebp-4], -858993460		; ccccccccH
	mov	DWORD PTR _this$[ebp], ecx
	mov	ecx, DWORD PTR _this$[ebp]
	call	??0?$_Iterator012@Ubidirectional_iterator_tag@std@@U?$pair@$$CBHPAVRaven_Weapon@@@2@HPBU32@ABU32@U_Iterator_base12@2@@std@@QAE@XZ
	mov	eax, DWORD PTR _this$[ebp]
	mov	DWORD PTR [eax+8], 0

; 39   : 		}

	mov	eax, DWORD PTR _this$[ebp]
	add	esp, 4
	cmp	ebp, esp
	call	__RTC_CheckEsp
	mov	esp, ebp
	pop	ebp
	ret	0
??0?$_Tree_unchecked_const_iterator@V?$_Tree_val@V?$_Tmap_traits@HPAVRaven_Weapon@@U?$less@H@std@@V?$allocator@U?$pair@$$CBHPAVRaven_Weapon@@@std@@@3@$0A@@std@@@std@@U_Iterator_base12@2@@std@@QAE@XZ ENDP ; std::_Tree_unchecked_const_iterator<std::_Tree_val<std::_Tmap_traits<int,Raven_Weapon *,std::less<int>,std::allocator<std::pair<int const ,Raven_Weapon *> >,0> >,std::_Iterator_base12>::_Tree_unchecked_const_iterator<std::_Tree_val<std::_Tmap_traits<int,Raven_Weapon *,std::less<int>,std::allocator<std::pair<int const ,Raven_Weapon *> >,0> >,std::_Iterator_base12>
; Function compile flags: /Odtp /RTCsu
_TEXT	ENDS
;	COMDAT ??D?$_Tree_unchecked_const_iterator@V?$_Tree_val@V?$_Tmap_traits@HPAVRaven_Weapon@@U?$less@H@std@@V?$allocator@U?$pair@$$CBHPAVRaven_Weapon@@@std@@@3@$0A@@std@@@std@@U_Iterator_base12@2@@std@@QBEABU?$pair@$$CBHPAVRaven_Weapon@@@1@XZ
_TEXT	SEGMENT
_this$ = -4						; size = 4
??D?$_Tree_unchecked_const_iterator@V?$_Tree_val@V?$_Tmap_traits@HPAVRaven_Weapon@@U?$less@H@std@@V?$allocator@U?$pair@$$CBHPAVRaven_Weapon@@@std@@@3@$0A@@std@@@std@@U_Iterator_base12@2@@std@@QBEABU?$pair@$$CBHPAVRaven_Weapon@@@1@XZ PROC ; std::_Tree_unchecked_const_iterator<std::_Tree_val<std::_Tmap_traits<int,Raven_Weapon *,std::less<int>,std::allocator<std::pair<int const ,Raven_Weapon *> >,0> >,std::_Iterator_base12>::operator*, COMDAT
; _this$ = ecx

; 48   : 		{	// return designated value

	push	ebp
	mov	ebp, esp
	push	ecx
	mov	DWORD PTR [ebp-4], -858993460		; ccccccccH
	mov	DWORD PTR _this$[ebp], ecx

; 49   : 		return (_Mytree::_Myval(_Ptr));

	mov	eax, DWORD PTR _this$[ebp]
	mov	ecx, DWORD PTR [eax+8]
	push	ecx
	call	?_Myval@?$_Tree_val@V?$_Tmap_traits@HPAVRaven_Weapon@@U?$less@H@std@@V?$allocator@U?$pair@$$CBHPAVRaven_Weapon@@@std@@@3@$0A@@std@@@std@@SAAAU?$pair@$$CBHPAVRaven_Weapon@@@2@PAU_Node@?$_Tree_nod@V?$_Tmap_traits@HPAVRaven_Weapon@@U?$less@H@std@@V?$allocator@U?$pair@$$CBHPAVRaven_Weapon@@@std@@@3@$0A@@std@@@2@@Z ; std::_Tree_val<std::_Tmap_traits<int,Raven_Weapon *,std::less<int>,std::allocator<std::pair<int const ,Raven_Weapon *> >,0> >::_Myval
	add	esp, 4

; 50   : 		}

	add	esp, 4
	cmp	ebp, esp
	call	__RTC_CheckEsp
	mov	esp, ebp
	pop	ebp
	ret	0
??D?$_Tree_unchecked_const_iterator@V?$_Tree_val@V?$_Tmap_traits@HPAVRaven_Weapon@@U?$less@H@std@@V?$allocator@U?$pair@$$CBHPAVRaven_Weapon@@@std@@@3@$0A@@std@@@std@@U_Iterator_base12@2@@std@@QBEABU?$pair@$$CBHPAVRaven_Weapon@@@1@XZ ENDP ; std::_Tree_unchecked_const_iterator<std::_Tree_val<std::_Tmap_traits<int,Raven_Weapon *,std::less<int>,std::allocator<std::pair<int const ,Raven_Weapon *> >,0> >,std::_Iterator_base12>::operator*
_TEXT	ENDS
PUBLIC	?_Parent@?$_Tree_val@V?$_Tmap_traits@HPAVRaven_Weapon@@U?$less@H@std@@V?$allocator@U?$pair@$$CBHPAVRaven_Weapon@@@std@@@3@$0A@@std@@@std@@SAAAPAU_Node@?$_Tree_nod@V?$_Tmap_traits@HPAVRaven_Weapon@@U?$less@H@std@@V?$allocator@U?$pair@$$CBHPAVRaven_Weapon@@@std@@@3@$0A@@std@@@2@PAU342@@Z ; std::_Tree_val<std::_Tmap_traits<int,Raven_Weapon *,std::less<int>,std::allocator<std::pair<int const ,Raven_Weapon *> >,0> >::_Parent
PUBLIC	?_Min@?$_Tree_val@V?$_Tmap_traits@HPAVRaven_Weapon@@U?$less@H@std@@V?$allocator@U?$pair@$$CBHPAVRaven_Weapon@@@std@@@3@$0A@@std@@@std@@SAPAU_Node@?$_Tree_nod@V?$_Tmap_traits@HPAVRaven_Weapon@@U?$less@H@std@@V?$allocator@U?$pair@$$CBHPAVRaven_Weapon@@@std@@@3@$0A@@std@@@2@PAU342@@Z ; std::_Tree_val<std::_Tmap_traits<int,Raven_Weapon *,std::less<int>,std::allocator<std::pair<int const ,Raven_Weapon *> >,0> >::_Min
PUBLIC	?_Right@?$_Tree_val@V?$_Tmap_traits@HPAVRaven_Weapon@@U?$less@H@std@@V?$allocator@U?$pair@$$CBHPAVRaven_Weapon@@@std@@@3@$0A@@std@@@std@@SAAAPAU_Node@?$_Tree_nod@V?$_Tmap_traits@HPAVRaven_Weapon@@U?$less@H@std@@V?$allocator@U?$pair@$$CBHPAVRaven_Weapon@@@std@@@3@$0A@@std@@@2@PAU342@@Z ; std::_Tree_val<std::_Tmap_traits<int,Raven_Weapon *,std::less<int>,std::allocator<std::pair<int const ,Raven_Weapon *> >,0> >::_Right
; Function compile flags: /Odtp /RTCsu
;	COMDAT ??E?$_Tree_unchecked_const_iterator@V?$_Tree_val@V?$_Tmap_traits@HPAVRaven_Weapon@@U?$less@H@std@@V?$allocator@U?$pair@$$CBHPAVRaven_Weapon@@@std@@@3@$0A@@std@@@std@@U_Iterator_base12@2@@std@@QAEAAV01@XZ
_TEXT	SEGMENT
__Pnode$141042 = -8					; size = 4
_this$ = -4						; size = 4
??E?$_Tree_unchecked_const_iterator@V?$_Tree_val@V?$_Tmap_traits@HPAVRaven_Weapon@@U?$less@H@std@@V?$allocator@U?$pair@$$CBHPAVRaven_Weapon@@@std@@@3@$0A@@std@@@std@@U_Iterator_base12@2@@std@@QAEAAV01@XZ PROC ; std::_Tree_unchecked_const_iterator<std::_Tree_val<std::_Tmap_traits<int,Raven_Weapon *,std::less<int>,std::allocator<std::pair<int const ,Raven_Weapon *> >,0> >,std::_Iterator_base12>::operator++, COMDAT
; _this$ = ecx

; 58   : 		{	// preincrement

	push	ebp
	mov	ebp, esp
	sub	esp, 8
	mov	DWORD PTR [ebp-8], -858993460		; ccccccccH
	mov	DWORD PTR [ebp-4], -858993460		; ccccccccH
	mov	DWORD PTR _this$[ebp], ecx

; 59   : 		if (_Mytree::_Isnil(_Ptr))

	mov	eax, DWORD PTR _this$[ebp]
	mov	ecx, DWORD PTR [eax+8]
	push	ecx
	call	?_Isnil@?$_Tree_val@V?$_Tmap_traits@HPAVRaven_Weapon@@U?$less@H@std@@V?$allocator@U?$pair@$$CBHPAVRaven_Weapon@@@std@@@3@$0A@@std@@@std@@SAAADPAU_Node@?$_Tree_nod@V?$_Tmap_traits@HPAVRaven_Weapon@@U?$less@H@std@@V?$allocator@U?$pair@$$CBHPAVRaven_Weapon@@@std@@@3@$0A@@std@@@2@@Z ; std::_Tree_val<std::_Tmap_traits<int,Raven_Weapon *,std::less<int>,std::allocator<std::pair<int const ,Raven_Weapon *> >,0> >::_Isnil
	add	esp, 4
	movsx	edx, BYTE PTR [eax]
	test	edx, edx
	je	SHORT $LN6@operator@5
	jmp	$LN5@operator@5
$LN6@operator@5:

; 60   : 			;	// end() shouldn't be incremented, don't move
; 61   : 		else if (!_Mytree::_Isnil(_Mytree::_Right(_Ptr)))

	mov	eax, DWORD PTR _this$[ebp]
	mov	ecx, DWORD PTR [eax+8]
	push	ecx
	call	?_Right@?$_Tree_val@V?$_Tmap_traits@HPAVRaven_Weapon@@U?$less@H@std@@V?$allocator@U?$pair@$$CBHPAVRaven_Weapon@@@std@@@3@$0A@@std@@@std@@SAAAPAU_Node@?$_Tree_nod@V?$_Tmap_traits@HPAVRaven_Weapon@@U?$less@H@std@@V?$allocator@U?$pair@$$CBHPAVRaven_Weapon@@@std@@@3@$0A@@std@@@2@PAU342@@Z ; std::_Tree_val<std::_Tmap_traits<int,Raven_Weapon *,std::less<int>,std::allocator<std::pair<int const ,Raven_Weapon *> >,0> >::_Right
	add	esp, 4
	mov	edx, DWORD PTR [eax]
	push	edx
	call	?_Isnil@?$_Tree_val@V?$_Tmap_traits@HPAVRaven_Weapon@@U?$less@H@std@@V?$allocator@U?$pair@$$CBHPAVRaven_Weapon@@@std@@@3@$0A@@std@@@std@@SAAADPAU_Node@?$_Tree_nod@V?$_Tmap_traits@HPAVRaven_Weapon@@U?$less@H@std@@V?$allocator@U?$pair@$$CBHPAVRaven_Weapon@@@std@@@3@$0A@@std@@@2@@Z ; std::_Tree_val<std::_Tmap_traits<int,Raven_Weapon *,std::less<int>,std::allocator<std::pair<int const ,Raven_Weapon *> >,0> >::_Isnil
	add	esp, 4
	movsx	eax, BYTE PTR [eax]
	test	eax, eax
	jne	SHORT $LN2@operator@5

; 62   : 			_Ptr = _Mytree::_Min(
; 63   : 				_Mytree::_Right(_Ptr));	// ==> smallest of right subtree

	mov	ecx, DWORD PTR _this$[ebp]
	mov	edx, DWORD PTR [ecx+8]
	push	edx
	call	?_Right@?$_Tree_val@V?$_Tmap_traits@HPAVRaven_Weapon@@U?$less@H@std@@V?$allocator@U?$pair@$$CBHPAVRaven_Weapon@@@std@@@3@$0A@@std@@@std@@SAAAPAU_Node@?$_Tree_nod@V?$_Tmap_traits@HPAVRaven_Weapon@@U?$less@H@std@@V?$allocator@U?$pair@$$CBHPAVRaven_Weapon@@@std@@@3@$0A@@std@@@2@PAU342@@Z ; std::_Tree_val<std::_Tmap_traits<int,Raven_Weapon *,std::less<int>,std::allocator<std::pair<int const ,Raven_Weapon *> >,0> >::_Right
	add	esp, 4
	mov	eax, DWORD PTR [eax]
	push	eax
	call	?_Min@?$_Tree_val@V?$_Tmap_traits@HPAVRaven_Weapon@@U?$less@H@std@@V?$allocator@U?$pair@$$CBHPAVRaven_Weapon@@@std@@@3@$0A@@std@@@std@@SAPAU_Node@?$_Tree_nod@V?$_Tmap_traits@HPAVRaven_Weapon@@U?$less@H@std@@V?$allocator@U?$pair@$$CBHPAVRaven_Weapon@@@std@@@3@$0A@@std@@@2@PAU342@@Z ; std::_Tree_val<std::_Tmap_traits<int,Raven_Weapon *,std::less<int>,std::allocator<std::pair<int const ,Raven_Weapon *> >,0> >::_Min
	add	esp, 4
	mov	ecx, DWORD PTR _this$[ebp]
	mov	DWORD PTR [ecx+8], eax

; 64   : 		else

	jmp	SHORT $LN5@operator@5
$LN2@operator@5:

; 65   : 			{	// climb looking for right subtree
; 66   : 			_Nodeptr _Pnode;
; 67   : 			while (!_Mytree::_Isnil(_Pnode = _Mytree::_Parent(_Ptr))
; 68   : 				&& _Ptr == _Mytree::_Right(_Pnode))

	mov	edx, DWORD PTR _this$[ebp]
	mov	eax, DWORD PTR [edx+8]
	push	eax
	call	?_Parent@?$_Tree_val@V?$_Tmap_traits@HPAVRaven_Weapon@@U?$less@H@std@@V?$allocator@U?$pair@$$CBHPAVRaven_Weapon@@@std@@@3@$0A@@std@@@std@@SAAAPAU_Node@?$_Tree_nod@V?$_Tmap_traits@HPAVRaven_Weapon@@U?$less@H@std@@V?$allocator@U?$pair@$$CBHPAVRaven_Weapon@@@std@@@3@$0A@@std@@@2@PAU342@@Z ; std::_Tree_val<std::_Tmap_traits<int,Raven_Weapon *,std::less<int>,std::allocator<std::pair<int const ,Raven_Weapon *> >,0> >::_Parent
	add	esp, 4
	mov	ecx, DWORD PTR [eax]
	mov	DWORD PTR __Pnode$141042[ebp], ecx
	mov	edx, DWORD PTR __Pnode$141042[ebp]
	push	edx
	call	?_Isnil@?$_Tree_val@V?$_Tmap_traits@HPAVRaven_Weapon@@U?$less@H@std@@V?$allocator@U?$pair@$$CBHPAVRaven_Weapon@@@std@@@3@$0A@@std@@@std@@SAAADPAU_Node@?$_Tree_nod@V?$_Tmap_traits@HPAVRaven_Weapon@@U?$less@H@std@@V?$allocator@U?$pair@$$CBHPAVRaven_Weapon@@@std@@@3@$0A@@std@@@2@@Z ; std::_Tree_val<std::_Tmap_traits<int,Raven_Weapon *,std::less<int>,std::allocator<std::pair<int const ,Raven_Weapon *> >,0> >::_Isnil
	add	esp, 4
	movsx	eax, BYTE PTR [eax]
	test	eax, eax
	jne	SHORT $LN1@operator@5
	mov	ecx, DWORD PTR __Pnode$141042[ebp]
	push	ecx
	call	?_Right@?$_Tree_val@V?$_Tmap_traits@HPAVRaven_Weapon@@U?$less@H@std@@V?$allocator@U?$pair@$$CBHPAVRaven_Weapon@@@std@@@3@$0A@@std@@@std@@SAAAPAU_Node@?$_Tree_nod@V?$_Tmap_traits@HPAVRaven_Weapon@@U?$less@H@std@@V?$allocator@U?$pair@$$CBHPAVRaven_Weapon@@@std@@@3@$0A@@std@@@2@PAU342@@Z ; std::_Tree_val<std::_Tmap_traits<int,Raven_Weapon *,std::less<int>,std::allocator<std::pair<int const ,Raven_Weapon *> >,0> >::_Right
	add	esp, 4
	mov	edx, DWORD PTR _this$[ebp]
	mov	ecx, DWORD PTR [edx+8]
	cmp	ecx, DWORD PTR [eax]
	jne	SHORT $LN1@operator@5

; 69   : 				_Ptr = _Pnode;	// ==> parent while right subtree

	mov	edx, DWORD PTR _this$[ebp]
	mov	eax, DWORD PTR __Pnode$141042[ebp]
	mov	DWORD PTR [edx+8], eax
	jmp	SHORT $LN2@operator@5
$LN1@operator@5:

; 70   : 			_Ptr = _Pnode;	// ==> parent (head if end())

	mov	ecx, DWORD PTR _this$[ebp]
	mov	edx, DWORD PTR __Pnode$141042[ebp]
	mov	DWORD PTR [ecx+8], edx
$LN5@operator@5:

; 71   : 			}
; 72   : 		return (*this);

	mov	eax, DWORD PTR _this$[ebp]

; 73   : 		}

	add	esp, 8
	cmp	ebp, esp
	call	__RTC_CheckEsp
	mov	esp, ebp
	pop	ebp
	ret	0
??E?$_Tree_unchecked_const_iterator@V?$_Tree_val@V?$_Tmap_traits@HPAVRaven_Weapon@@U?$less@H@std@@V?$allocator@U?$pair@$$CBHPAVRaven_Weapon@@@std@@@3@$0A@@std@@@std@@U_Iterator_base12@2@@std@@QAEAAV01@XZ ENDP ; std::_Tree_unchecked_const_iterator<std::_Tree_val<std::_Tmap_traits<int,Raven_Weapon *,std::less<int>,std::allocator<std::pair<int const ,Raven_Weapon *> >,0> >,std::_Iterator_base12>::operator++
; Function compile flags: /Odtp /RTCsu
_TEXT	ENDS
;	COMDAT ?_Mynode@?$_Tree_unchecked_const_iterator@V?$_Tree_val@V?$_Tmap_traits@HPAVRaven_Weapon@@U?$less@H@std@@V?$allocator@U?$pair@$$CBHPAVRaven_Weapon@@@std@@@3@$0A@@std@@@std@@U_Iterator_base12@2@@std@@QBEPAU_Node@?$_Tree_nod@V?$_Tmap_traits@HPAVRaven_Weapon@@U?$less@H@std@@V?$allocator@U?$pair@$$CBHPAVRaven_Weapon@@@std@@@3@$0A@@std@@@2@XZ
_TEXT	SEGMENT
_this$ = -4						; size = 4
?_Mynode@?$_Tree_unchecked_const_iterator@V?$_Tree_val@V?$_Tmap_traits@HPAVRaven_Weapon@@U?$less@H@std@@V?$allocator@U?$pair@$$CBHPAVRaven_Weapon@@@std@@@3@$0A@@std@@@std@@U_Iterator_base12@2@@std@@QBEPAU_Node@?$_Tree_nod@V?$_Tmap_traits@HPAVRaven_Weapon@@U?$less@H@std@@V?$allocator@U?$pair@$$CBHPAVRaven_Weapon@@@std@@@3@$0A@@std@@@2@XZ PROC ; std::_Tree_unchecked_const_iterator<std::_Tree_val<std::_Tmap_traits<int,Raven_Weapon *,std::less<int>,std::allocator<std::pair<int const ,Raven_Weapon *> >,0> >,std::_Iterator_base12>::_Mynode, COMDAT
; _this$ = ecx

; 121  : 		{	// return node pointer

	push	ebp
	mov	ebp, esp
	push	ecx
	mov	DWORD PTR [ebp-4], -858993460		; ccccccccH
	mov	DWORD PTR _this$[ebp], ecx

; 122  : 		return (_Ptr);

	mov	eax, DWORD PTR _this$[ebp]
	mov	eax, DWORD PTR [eax+8]

; 123  : 		}

	mov	esp, ebp
	pop	ebp
	ret	0
?_Mynode@?$_Tree_unchecked_const_iterator@V?$_Tree_val@V?$_Tmap_traits@HPAVRaven_Weapon@@U?$less@H@std@@V?$allocator@U?$pair@$$CBHPAVRaven_Weapon@@@std@@@3@$0A@@std@@@std@@U_Iterator_base12@2@@std@@QBEPAU_Node@?$_Tree_nod@V?$_Tmap_traits@HPAVRaven_Weapon@@U?$less@H@std@@V?$allocator@U?$pair@$$CBHPAVRaven_Weapon@@@std@@@3@$0A@@std@@@2@XZ ENDP ; std::_Tree_unchecked_const_iterator<std::_Tree_val<std::_Tmap_traits<int,Raven_Weapon *,std::less<int>,std::allocator<std::pair<int const ,Raven_Weapon *> >,0> >,std::_Iterator_base12>::_Mynode
_TEXT	ENDS
PUBLIC	??0?$_Tree_const_iterator@V?$_Tree_val@V?$_Tmap_traits@HPAVRaven_Weapon@@U?$less@H@std@@V?$allocator@U?$pair@$$CBHPAVRaven_Weapon@@@std@@@3@$0A@@std@@@std@@@std@@QAE@PAU_Node@?$_Tree_nod@V?$_Tmap_traits@HPAVRaven_Weapon@@U?$less@H@std@@V?$allocator@U?$pair@$$CBHPAVRaven_Weapon@@@std@@@3@$0A@@std@@@1@PBV?$_Tree_val@V?$_Tmap_traits@HPAVRaven_Weapon@@U?$less@H@std@@V?$allocator@U?$pair@$$CBHPAVRaven_Weapon@@@std@@@3@$0A@@std@@@1@@Z ; std::_Tree_const_iterator<std::_Tree_val<std::_Tmap_traits<int,Raven_Weapon *,std::less<int>,std::allocator<std::pair<int const ,Raven_Weapon *> >,0> > >::_Tree_const_iterator<std::_Tree_val<std::_Tmap_traits<int,Raven_Weapon *,std::less<int>,std::allocator<std::pair<int const ,Raven_Weapon *> >,0> > >
; Function compile flags: /Odtp /RTCsu
;	COMDAT ??0?$_Tree_iterator@V?$_Tree_val@V?$_Tmap_traits@HPAVRaven_Weapon@@U?$less@H@std@@V?$allocator@U?$pair@$$CBHPAVRaven_Weapon@@@std@@@3@$0A@@std@@@std@@@std@@QAE@PAU_Node@?$_Tree_nod@V?$_Tmap_traits@HPAVRaven_Weapon@@U?$less@H@std@@V?$allocator@U?$pair@$$CBHPAVRaven_Weapon@@@std@@@3@$0A@@std@@@1@PBV?$_Tree_val@V?$_Tmap_traits@HPAVRaven_Weapon@@U?$less@H@std@@V?$allocator@U?$pair@$$CBHPAVRaven_Weapon@@@std@@@3@$0A@@std@@@1@@Z
_TEXT	SEGMENT
_this$ = -4						; size = 4
__Pnode$ = 8						; size = 4
__Plist$ = 12						; size = 4
??0?$_Tree_iterator@V?$_Tree_val@V?$_Tmap_traits@HPAVRaven_Weapon@@U?$less@H@std@@V?$allocator@U?$pair@$$CBHPAVRaven_Weapon@@@std@@@3@$0A@@std@@@std@@@std@@QAE@PAU_Node@?$_Tree_nod@V?$_Tmap_traits@HPAVRaven_Weapon@@U?$less@H@std@@V?$allocator@U?$pair@$$CBHPAVRaven_Weapon@@@std@@@3@$0A@@std@@@1@PBV?$_Tree_val@V?$_Tmap_traits@HPAVRaven_Weapon@@U?$less@H@std@@V?$allocator@U?$pair@$$CBHPAVRaven_Weapon@@@std@@@3@$0A@@std@@@1@@Z PROC ; std::_Tree_iterator<std::_Tree_val<std::_Tmap_traits<int,Raven_Weapon *,std::less<int>,std::allocator<std::pair<int const ,Raven_Weapon *> >,0> > >::_Tree_iterator<std::_Tree_val<std::_Tmap_traits<int,Raven_Weapon *,std::less<int>,std::allocator<std::pair<int const ,Raven_Weapon *> >,0> > >, COMDAT
; _this$ = ecx

; 378  : 		{	// construct with node pointer _Pnode

	push	ebp
	mov	ebp, esp
	push	ecx
	mov	DWORD PTR [ebp-4], -858993460		; ccccccccH
	mov	DWORD PTR _this$[ebp], ecx
	mov	eax, DWORD PTR __Plist$[ebp]
	push	eax
	mov	ecx, DWORD PTR __Pnode$[ebp]
	push	ecx
	mov	ecx, DWORD PTR _this$[ebp]
	call	??0?$_Tree_const_iterator@V?$_Tree_val@V?$_Tmap_traits@HPAVRaven_Weapon@@U?$less@H@std@@V?$allocator@U?$pair@$$CBHPAVRaven_Weapon@@@std@@@3@$0A@@std@@@std@@@std@@QAE@PAU_Node@?$_Tree_nod@V?$_Tmap_traits@HPAVRaven_Weapon@@U?$less@H@std@@V?$allocator@U?$pair@$$CBHPAVRaven_Weapon@@@std@@@3@$0A@@std@@@1@PBV?$_Tree_val@V?$_Tmap_traits@HPAVRaven_Weapon@@U?$less@H@std@@V?$allocator@U?$pair@$$CBHPAVRaven_Weapon@@@std@@@3@$0A@@std@@@1@@Z ; std::_Tree_const_iterator<std::_Tree_val<std::_Tmap_traits<int,Raven_Weapon *,std::less<int>,std::allocator<std::pair<int const ,Raven_Weapon *> >,0> > >::_Tree_const_iterator<std::_Tree_val<std::_Tmap_traits<int,Raven_Weapon *,std::less<int>,std::allocator<std::pair<int const ,Raven_Weapon *> >,0> > >

; 379  : 		}

	mov	eax, DWORD PTR _this$[ebp]
	add	esp, 4
	cmp	ebp, esp
	call	__RTC_CheckEsp
	mov	esp, ebp
	pop	ebp
	ret	8
??0?$_Tree_iterator@V?$_Tree_val@V?$_Tmap_traits@HPAVRaven_Weapon@@U?$less@H@std@@V?$allocator@U?$pair@$$CBHPAVRaven_Weapon@@@std@@@3@$0A@@std@@@std@@@std@@QAE@PAU_Node@?$_Tree_nod@V?$_Tmap_traits@HPAVRaven_Weapon@@U?$less@H@std@@V?$allocator@U?$pair@$$CBHPAVRaven_Weapon@@@std@@@3@$0A@@std@@@1@PBV?$_Tree_val@V?$_Tmap_traits@HPAVRaven_Weapon@@U?$less@H@std@@V?$allocator@U?$pair@$$CBHPAVRaven_Weapon@@@std@@@3@$0A@@std@@@1@@Z ENDP ; std::_Tree_iterator<std::_Tree_val<std::_Tmap_traits<int,Raven_Weapon *,std::less<int>,std::allocator<std::pair<int const ,Raven_Weapon *> >,0> > >::_Tree_iterator<std::_Tree_val<std::_Tmap_traits<int,Raven_Weapon *,std::less<int>,std::allocator<std::pair<int const ,Raven_Weapon *> >,0> > >
_TEXT	ENDS
PUBLIC	??D?$_Tree_const_iterator@V?$_Tree_val@V?$_Tmap_traits@HPAVRaven_Weapon@@U?$less@H@std@@V?$allocator@U?$pair@$$CBHPAVRaven_Weapon@@@std@@@3@$0A@@std@@@std@@@std@@QBEABU?$pair@$$CBHPAVRaven_Weapon@@@1@XZ ; std::_Tree_const_iterator<std::_Tree_val<std::_Tmap_traits<int,Raven_Weapon *,std::less<int>,std::allocator<std::pair<int const ,Raven_Weapon *> >,0> > >::operator*
; Function compile flags: /Odtp /RTCsu
;	COMDAT ??D?$_Tree_iterator@V?$_Tree_val@V?$_Tmap_traits@HPAVRaven_Weapon@@U?$less@H@std@@V?$allocator@U?$pair@$$CBHPAVRaven_Weapon@@@std@@@3@$0A@@std@@@std@@@std@@QBEAAU?$pair@$$CBHPAVRaven_Weapon@@@1@XZ
_TEXT	SEGMENT
_this$ = -4						; size = 4
??D?$_Tree_iterator@V?$_Tree_val@V?$_Tmap_traits@HPAVRaven_Weapon@@U?$less@H@std@@V?$allocator@U?$pair@$$CBHPAVRaven_Weapon@@@std@@@3@$0A@@std@@@std@@@std@@QBEAAU?$pair@$$CBHPAVRaven_Weapon@@@1@XZ PROC ; std::_Tree_iterator<std::_Tree_val<std::_Tmap_traits<int,Raven_Weapon *,std::less<int>,std::allocator<std::pair<int const ,Raven_Weapon *> >,0> > >::operator*, COMDAT
; _this$ = ecx

; 395  : 		{	// return designated value

	push	ebp
	mov	ebp, esp
	push	ecx
	mov	DWORD PTR [ebp-4], -858993460		; ccccccccH
	mov	DWORD PTR _this$[ebp], ecx

; 396  : 		return ((reference)**(_Mybase *)this);

	mov	ecx, DWORD PTR _this$[ebp]
	call	??D?$_Tree_const_iterator@V?$_Tree_val@V?$_Tmap_traits@HPAVRaven_Weapon@@U?$less@H@std@@V?$allocator@U?$pair@$$CBHPAVRaven_Weapon@@@std@@@3@$0A@@std@@@std@@@std@@QBEABU?$pair@$$CBHPAVRaven_Weapon@@@1@XZ ; std::_Tree_const_iterator<std::_Tree_val<std::_Tmap_traits<int,Raven_Weapon *,std::less<int>,std::allocator<std::pair<int const ,Raven_Weapon *> >,0> > >::operator*

; 397  : 		}

	add	esp, 4
	cmp	ebp, esp
	call	__RTC_CheckEsp
	mov	esp, ebp
	pop	ebp
	ret	0
??D?$_Tree_iterator@V?$_Tree_val@V?$_Tmap_traits@HPAVRaven_Weapon@@U?$less@H@std@@V?$allocator@U?$pair@$$CBHPAVRaven_Weapon@@@std@@@3@$0A@@std@@@std@@@std@@QBEAAU?$pair@$$CBHPAVRaven_Weapon@@@1@XZ ENDP ; std::_Tree_iterator<std::_Tree_val<std::_Tmap_traits<int,Raven_Weapon *,std::less<int>,std::allocator<std::pair<int const ,Raven_Weapon *> >,0> > >::operator*
_TEXT	ENDS
PUBLIC	??0?$_Pair_base@HPAVRaven_Weapon@@@std@@QAE@$$QAH$$QAPAVRaven_Weapon@@@Z ; std::_Pair_base<int,Raven_Weapon *>::_Pair_base<int,Raven_Weapon *>
PUBLIC	??$move@AAPAVRaven_Weapon@@@std@@YA$$QAPAVRaven_Weapon@@AAPAV1@@Z ; std::move<Raven_Weapon * &>
; Function compile flags: /Odtp /RTCsu
; File c:\program files (x86)\microsoft visual studio 10.0\vc\include\utility
;	COMDAT ??0?$pair@HPAVRaven_Weapon@@@std@@QAE@$$QAH$$QAPAVRaven_Weapon@@@Z
_TEXT	SEGMENT
_this$ = -4						; size = 4
__Val1$ = 8						; size = 4
__Val2$ = 12						; size = 4
??0?$pair@HPAVRaven_Weapon@@@std@@QAE@$$QAH$$QAPAVRaven_Weapon@@@Z PROC ; std::pair<int,Raven_Weapon *>::pair<int,Raven_Weapon *>, COMDAT
; _this$ = ecx

; 227  : 		{	// construct from specified values

	push	ebp
	mov	ebp, esp
	push	ecx
	mov	DWORD PTR [ebp-4], -858993460		; ccccccccH
	mov	DWORD PTR _this$[ebp], ecx
	mov	eax, DWORD PTR __Val2$[ebp]
	push	eax
	call	??$move@AAPAVRaven_Weapon@@@std@@YA$$QAPAVRaven_Weapon@@AAPAV1@@Z ; std::move<Raven_Weapon * &>
	add	esp, 4
	push	eax
	mov	ecx, DWORD PTR __Val1$[ebp]
	push	ecx
	call	??$move@AAH@std@@YA$$QAHAAH@Z		; std::move<int &>
	add	esp, 4
	push	eax
	mov	ecx, DWORD PTR _this$[ebp]
	call	??0?$_Pair_base@HPAVRaven_Weapon@@@std@@QAE@$$QAH$$QAPAVRaven_Weapon@@@Z ; std::_Pair_base<int,Raven_Weapon *>::_Pair_base<int,Raven_Weapon *>

; 228  : 		}

	mov	eax, DWORD PTR _this$[ebp]
	add	esp, 4
	cmp	ebp, esp
	call	__RTC_CheckEsp
	mov	esp, ebp
	pop	ebp
	ret	8
??0?$pair@HPAVRaven_Weapon@@@std@@QAE@$$QAH$$QAPAVRaven_Weapon@@@Z ENDP ; std::pair<int,Raven_Weapon *>::pair<int,Raven_Weapon *>
_TEXT	ENDS
PUBLIC	??0_Iterator_base12@std@@QAE@XZ			; std::_Iterator_base12::_Iterator_base12
; Function compile flags: /Odtp /RTCsu
;	COMDAT ??0?$_Iterator012@Ubidirectional_iterator_tag@std@@U?$pair@$$CBHPAVRaven_Weapon@@@2@HPBU32@ABU32@U_Iterator_base12@2@@std@@QAE@XZ
_TEXT	SEGMENT
_this$ = -4						; size = 4
??0?$_Iterator012@Ubidirectional_iterator_tag@std@@U?$pair@$$CBHPAVRaven_Weapon@@@2@HPBU32@ABU32@U_Iterator_base12@2@@std@@QAE@XZ PROC ; std::_Iterator012<std::bidirectional_iterator_tag,std::pair<int const ,Raven_Weapon *>,int,std::pair<int const ,Raven_Weapon *> const *,std::pair<int const ,Raven_Weapon *> const &,std::_Iterator_base12>::_Iterator012<std::bidirectional_iterator_tag,std::pair<int const ,Raven_Weapon *>,int,std::pair<int const ,Raven_Weapon *> const *,std::pair<int const ,Raven_Weapon *> const &,std::_Iterator_base12>, COMDAT
; _this$ = ecx
	push	ebp
	mov	ebp, esp
	push	ecx
	mov	DWORD PTR [ebp-4], -858993460		; ccccccccH
	mov	DWORD PTR _this$[ebp], ecx
	mov	ecx, DWORD PTR _this$[ebp]
	call	??0_Iterator_base12@std@@QAE@XZ		; std::_Iterator_base12::_Iterator_base12
	mov	eax, DWORD PTR _this$[ebp]
	add	esp, 4
	cmp	ebp, esp
	call	__RTC_CheckEsp
	mov	esp, ebp
	pop	ebp
	ret	0
??0?$_Iterator012@Ubidirectional_iterator_tag@std@@U?$pair@$$CBHPAVRaven_Weapon@@@2@HPBU32@ABU32@U_Iterator_base12@2@@std@@QAE@XZ ENDP ; std::_Iterator012<std::bidirectional_iterator_tag,std::pair<int const ,Raven_Weapon *>,int,std::pair<int const ,Raven_Weapon *> const *,std::pair<int const ,Raven_Weapon *> const &,std::_Iterator_base12>::_Iterator012<std::bidirectional_iterator_tag,std::pair<int const ,Raven_Weapon *>,int,std::pair<int const ,Raven_Weapon *> const *,std::pair<int const ,Raven_Weapon *> const &,std::_Iterator_base12>
; Function compile flags: /Odtp /RTCsu
; File c:\program files (x86)\microsoft visual studio 10.0\vc\include\xutility
_TEXT	ENDS
;	COMDAT ??0_Iterator_base12@std@@QAE@XZ
_TEXT	SEGMENT
_this$ = -4						; size = 4
??0_Iterator_base12@std@@QAE@XZ PROC			; std::_Iterator_base12::_Iterator_base12, COMDAT
; _this$ = ecx

; 111  : 		{	// construct orphaned iterator

	push	ebp
	mov	ebp, esp
	push	ecx
	mov	DWORD PTR [ebp-4], -858993460		; ccccccccH
	mov	DWORD PTR _this$[ebp], ecx
	mov	eax, DWORD PTR _this$[ebp]
	mov	DWORD PTR [eax], 0
	mov	ecx, DWORD PTR _this$[ebp]
	mov	DWORD PTR [ecx+4], 0

; 112  : 		}

	mov	eax, DWORD PTR _this$[ebp]
	mov	esp, ebp
	pop	ebp
	ret	0
??0_Iterator_base12@std@@QAE@XZ ENDP			; std::_Iterator_base12::_Iterator_base12
_TEXT	ENDS
PUBLIC	??$_Debug_lt_pred@U?$less@H@std@@HH@std@@YA_NU?$less@H@0@AAHABHPB_WI@Z ; std::_Debug_lt_pred<std::less<int>,int,int>
PUBLIC	?_Root@?$_Tree@V?$_Tmap_traits@HPAVRaven_Weapon@@U?$less@H@std@@V?$allocator@U?$pair@$$CBHPAVRaven_Weapon@@@std@@@3@$0A@@std@@@std@@IBEAAPAU_Node@?$_Tree_nod@V?$_Tmap_traits@HPAVRaven_Weapon@@U?$less@H@std@@V?$allocator@U?$pair@$$CBHPAVRaven_Weapon@@@std@@@3@$0A@@std@@@2@XZ ; std::_Tree<std::_Tmap_traits<int,Raven_Weapon *,std::less<int>,std::allocator<std::pair<int const ,Raven_Weapon *> >,0> >::_Root
; Function compile flags: /Odtp /RTCsu
; File c:\program files (x86)\microsoft visual studio 10.0\vc\include\xtree
;	COMDAT ?_Lbound@?$_Tree@V?$_Tmap_traits@HPAVRaven_Weapon@@U?$less@H@std@@V?$allocator@U?$pair@$$CBHPAVRaven_Weapon@@@std@@@3@$0A@@std@@@std@@IAEPAU_Node@?$_Tree_nod@V?$_Tmap_traits@HPAVRaven_Weapon@@U?$less@H@std@@V?$allocator@U?$pair@$$CBHPAVRaven_Weapon@@@std@@@3@$0A@@std@@@2@ABH@Z
_TEXT	SEGMENT
__Wherenode$ = -12					; size = 4
__Pnode$ = -8						; size = 4
_this$ = -4						; size = 4
__Keyval$ = 8						; size = 4
?_Lbound@?$_Tree@V?$_Tmap_traits@HPAVRaven_Weapon@@U?$less@H@std@@V?$allocator@U?$pair@$$CBHPAVRaven_Weapon@@@std@@@3@$0A@@std@@@std@@IAEPAU_Node@?$_Tree_nod@V?$_Tmap_traits@HPAVRaven_Weapon@@U?$less@H@std@@V?$allocator@U?$pair@$$CBHPAVRaven_Weapon@@@std@@@3@$0A@@std@@@2@ABH@Z PROC ; std::_Tree<std::_Tmap_traits<int,Raven_Weapon *,std::less<int>,std::allocator<std::pair<int const ,Raven_Weapon *> >,0> >::_Lbound, COMDAT
; _this$ = ecx

; 1741 : 		{	// find leftmost node not less than _Keyval

	push	ebp
	mov	ebp, esp
	sub	esp, 12					; 0000000cH
	mov	DWORD PTR [ebp-12], -858993460		; ccccccccH
	mov	DWORD PTR [ebp-8], -858993460		; ccccccccH
	mov	DWORD PTR [ebp-4], -858993460		; ccccccccH
	mov	DWORD PTR _this$[ebp], ecx

; 1742 : 		_Nodeptr _Pnode = _Root();

	mov	ecx, DWORD PTR _this$[ebp]
	call	?_Root@?$_Tree@V?$_Tmap_traits@HPAVRaven_Weapon@@U?$less@H@std@@V?$allocator@U?$pair@$$CBHPAVRaven_Weapon@@@std@@@3@$0A@@std@@@std@@IBEAAPAU_Node@?$_Tree_nod@V?$_Tmap_traits@HPAVRaven_Weapon@@U?$less@H@std@@V?$allocator@U?$pair@$$CBHPAVRaven_Weapon@@@std@@@3@$0A@@std@@@2@XZ ; std::_Tree<std::_Tmap_traits<int,Raven_Weapon *,std::less<int>,std::allocator<std::pair<int const ,Raven_Weapon *> >,0> >::_Root
	mov	eax, DWORD PTR [eax]
	mov	DWORD PTR __Pnode$[ebp], eax

; 1743 : 		_Nodeptr _Wherenode = this->_Myhead;	// end() if search fails

	mov	ecx, DWORD PTR _this$[ebp]
	mov	edx, DWORD PTR [ecx+8]
	mov	DWORD PTR __Wherenode$[ebp], edx
$LN4@Lbound:

; 1744 : 
; 1745 : 		while (!this->_Isnil(_Pnode))

	mov	eax, DWORD PTR __Pnode$[ebp]
	push	eax
	call	?_Isnil@?$_Tree_val@V?$_Tmap_traits@HPAVRaven_Weapon@@U?$less@H@std@@V?$allocator@U?$pair@$$CBHPAVRaven_Weapon@@@std@@@3@$0A@@std@@@std@@SAAADPAU_Node@?$_Tree_nod@V?$_Tmap_traits@HPAVRaven_Weapon@@U?$less@H@std@@V?$allocator@U?$pair@$$CBHPAVRaven_Weapon@@@std@@@3@$0A@@std@@@2@@Z ; std::_Tree_val<std::_Tmap_traits<int,Raven_Weapon *,std::less<int>,std::allocator<std::pair<int const ,Raven_Weapon *> >,0> >::_Isnil
	add	esp, 4
	movsx	ecx, BYTE PTR [eax]
	test	ecx, ecx
	jne	SHORT $LN3@Lbound

; 1746 : 			if (_DEBUG_LT_PRED(this->comp, this->_Key(_Pnode), _Keyval))

	push	1746					; 000006d2H
	push	OFFSET ??_C@_1IK@JNLFPKKF@?$AAc?$AA?3?$AA?2?$AAP?$AAr?$AAo?$AAg?$AAr?$AAa?$AAm?$AA?5?$AAF?$AAi?$AAl?$AAe?$AAs?$AA?5?$AA?$CI?$AAx?$AA8?$AA6?$AA?$CJ?$AA?2?$AAM?$AAi?$AAc?$AAr?$AAo?$AAs?$AAo?$AAf?$AAt@
	mov	edx, DWORD PTR __Keyval$[ebp]
	push	edx
	mov	eax, DWORD PTR __Pnode$[ebp]
	push	eax
	call	?_Key@?$_Tree_val@V?$_Tmap_traits@HPAVRaven_Weapon@@U?$less@H@std@@V?$allocator@U?$pair@$$CBHPAVRaven_Weapon@@@std@@@3@$0A@@std@@@std@@SAAAHPAU_Node@?$_Tree_nod@V?$_Tmap_traits@HPAVRaven_Weapon@@U?$less@H@std@@V?$allocator@U?$pair@$$CBHPAVRaven_Weapon@@@std@@@3@$0A@@std@@@2@@Z ; std::_Tree_val<std::_Tmap_traits<int,Raven_Weapon *,std::less<int>,std::allocator<std::pair<int const ,Raven_Weapon *> >,0> >::_Key
	add	esp, 4
	push	eax
	mov	ecx, DWORD PTR _this$[ebp]
	movzx	edx, BYTE PTR [ecx+4]
	push	edx
	call	??$_Debug_lt_pred@U?$less@H@std@@HH@std@@YA_NU?$less@H@0@AAHABHPB_WI@Z ; std::_Debug_lt_pred<std::less<int>,int,int>
	add	esp, 20					; 00000014H
	movzx	eax, al
	test	eax, eax
	je	SHORT $LN2@Lbound

; 1747 : 				_Pnode = this->_Right(_Pnode);	// descend right subtree

	mov	ecx, DWORD PTR __Pnode$[ebp]
	push	ecx
	call	?_Right@?$_Tree_val@V?$_Tmap_traits@HPAVRaven_Weapon@@U?$less@H@std@@V?$allocator@U?$pair@$$CBHPAVRaven_Weapon@@@std@@@3@$0A@@std@@@std@@SAAAPAU_Node@?$_Tree_nod@V?$_Tmap_traits@HPAVRaven_Weapon@@U?$less@H@std@@V?$allocator@U?$pair@$$CBHPAVRaven_Weapon@@@std@@@3@$0A@@std@@@2@PAU342@@Z ; std::_Tree_val<std::_Tmap_traits<int,Raven_Weapon *,std::less<int>,std::allocator<std::pair<int const ,Raven_Weapon *> >,0> >::_Right
	add	esp, 4
	mov	edx, DWORD PTR [eax]
	mov	DWORD PTR __Pnode$[ebp], edx

; 1748 : 			else

	jmp	SHORT $LN1@Lbound
$LN2@Lbound:

; 1749 : 				{	// _Pnode not less than _Keyval, remember it
; 1750 : 				_Wherenode = _Pnode;

	mov	eax, DWORD PTR __Pnode$[ebp]
	mov	DWORD PTR __Wherenode$[ebp], eax

; 1751 : 				_Pnode = this->_Left(_Pnode);	// descend left subtree

	mov	ecx, DWORD PTR __Pnode$[ebp]
	push	ecx
	call	?_Left@?$_Tree_val@V?$_Tmap_traits@HPAVRaven_Weapon@@U?$less@H@std@@V?$allocator@U?$pair@$$CBHPAVRaven_Weapon@@@std@@@3@$0A@@std@@@std@@SAAAPAU_Node@?$_Tree_nod@V?$_Tmap_traits@HPAVRaven_Weapon@@U?$less@H@std@@V?$allocator@U?$pair@$$CBHPAVRaven_Weapon@@@std@@@3@$0A@@std@@@2@PAU342@@Z ; std::_Tree_val<std::_Tmap_traits<int,Raven_Weapon *,std::less<int>,std::allocator<std::pair<int const ,Raven_Weapon *> >,0> >::_Left
	add	esp, 4
	mov	edx, DWORD PTR [eax]
	mov	DWORD PTR __Pnode$[ebp], edx
$LN1@Lbound:

; 1752 : 				}

	jmp	SHORT $LN4@Lbound
$LN3@Lbound:

; 1753 : 
; 1754 : 		return (_Wherenode);	// return best remembered candidate

	mov	eax, DWORD PTR __Wherenode$[ebp]

; 1755 : 		}

	add	esp, 12					; 0000000cH
	cmp	ebp, esp
	call	__RTC_CheckEsp
	mov	esp, ebp
	pop	ebp
	ret	4
?_Lbound@?$_Tree@V?$_Tmap_traits@HPAVRaven_Weapon@@U?$less@H@std@@V?$allocator@U?$pair@$$CBHPAVRaven_Weapon@@@std@@@3@$0A@@std@@@std@@IAEPAU_Node@?$_Tree_nod@V?$_Tmap_traits@HPAVRaven_Weapon@@U?$less@H@std@@V?$allocator@U?$pair@$$CBHPAVRaven_Weapon@@@std@@@3@$0A@@std@@@2@ABH@Z ENDP ; std::_Tree<std::_Tmap_traits<int,Raven_Weapon *,std::less<int>,std::allocator<std::pair<int const ,Raven_Weapon *> >,0> >::_Lbound
; Function compile flags: /Odtp /RTCsu
_TEXT	ENDS
;	COMDAT ?_Left@?$_Tree_val@V?$_Tmap_traits@HPAVRaven_Weapon@@U?$less@H@std@@V?$allocator@U?$pair@$$CBHPAVRaven_Weapon@@@std@@@3@$0A@@std@@@std@@SAAAPAU_Node@?$_Tree_nod@V?$_Tmap_traits@HPAVRaven_Weapon@@U?$less@H@std@@V?$allocator@U?$pair@$$CBHPAVRaven_Weapon@@@std@@@3@$0A@@std@@@2@PAU342@@Z
_TEXT	SEGMENT
__Pnode$ = 8						; size = 4
?_Left@?$_Tree_val@V?$_Tmap_traits@HPAVRaven_Weapon@@U?$less@H@std@@V?$allocator@U?$pair@$$CBHPAVRaven_Weapon@@@std@@@3@$0A@@std@@@std@@SAAAPAU_Node@?$_Tree_nod@V?$_Tmap_traits@HPAVRaven_Weapon@@U?$less@H@std@@V?$allocator@U?$pair@$$CBHPAVRaven_Weapon@@@std@@@3@$0A@@std@@@2@PAU342@@Z PROC ; std::_Tree_val<std::_Tmap_traits<int,Raven_Weapon *,std::less<int>,std::allocator<std::pair<int const ,Raven_Weapon *> >,0> >::_Left, COMDAT

; 621  : 		{	// return reference to left pointer in node

	push	ebp
	mov	ebp, esp

; 622  : 		return ((_Nodepref)(*_Pnode)._Left);

	mov	eax, DWORD PTR __Pnode$[ebp]

; 623  : 		}

	pop	ebp
	ret	0
?_Left@?$_Tree_val@V?$_Tmap_traits@HPAVRaven_Weapon@@U?$less@H@std@@V?$allocator@U?$pair@$$CBHPAVRaven_Weapon@@@std@@@3@$0A@@std@@@std@@SAAAPAU_Node@?$_Tree_nod@V?$_Tmap_traits@HPAVRaven_Weapon@@U?$less@H@std@@V?$allocator@U?$pair@$$CBHPAVRaven_Weapon@@@std@@@3@$0A@@std@@@2@PAU342@@Z ENDP ; std::_Tree_val<std::_Tmap_traits<int,Raven_Weapon *,std::less<int>,std::allocator<std::pair<int const ,Raven_Weapon *> >,0> >::_Left
; Function compile flags: /Odtp /RTCsu
_TEXT	ENDS
;	COMDAT ?_Parent@?$_Tree_val@V?$_Tmap_traits@HPAVRaven_Weapon@@U?$less@H@std@@V?$allocator@U?$pair@$$CBHPAVRaven_Weapon@@@std@@@3@$0A@@std@@@std@@SAAAPAU_Node@?$_Tree_nod@V?$_Tmap_traits@HPAVRaven_Weapon@@U?$less@H@std@@V?$allocator@U?$pair@$$CBHPAVRaven_Weapon@@@std@@@3@$0A@@std@@@2@PAU342@@Z
_TEXT	SEGMENT
__Pnode$ = 8						; size = 4
?_Parent@?$_Tree_val@V?$_Tmap_traits@HPAVRaven_Weapon@@U?$less@H@std@@V?$allocator@U?$pair@$$CBHPAVRaven_Weapon@@@std@@@3@$0A@@std@@@std@@SAAAPAU_Node@?$_Tree_nod@V?$_Tmap_traits@HPAVRaven_Weapon@@U?$less@H@std@@V?$allocator@U?$pair@$$CBHPAVRaven_Weapon@@@std@@@3@$0A@@std@@@2@PAU342@@Z PROC ; std::_Tree_val<std::_Tmap_traits<int,Raven_Weapon *,std::less<int>,std::allocator<std::pair<int const ,Raven_Weapon *> >,0> >::_Parent, COMDAT

; 626  : 		{	// return reference to parent pointer in node

	push	ebp
	mov	ebp, esp

; 627  : 		return ((_Nodepref)(*_Pnode)._Parent);

	mov	eax, DWORD PTR __Pnode$[ebp]
	add	eax, 4

; 628  : 		}

	pop	ebp
	ret	0
?_Parent@?$_Tree_val@V?$_Tmap_traits@HPAVRaven_Weapon@@U?$less@H@std@@V?$allocator@U?$pair@$$CBHPAVRaven_Weapon@@@std@@@3@$0A@@std@@@std@@SAAAPAU_Node@?$_Tree_nod@V?$_Tmap_traits@HPAVRaven_Weapon@@U?$less@H@std@@V?$allocator@U?$pair@$$CBHPAVRaven_Weapon@@@std@@@3@$0A@@std@@@2@PAU342@@Z ENDP ; std::_Tree_val<std::_Tmap_traits<int,Raven_Weapon *,std::less<int>,std::allocator<std::pair<int const ,Raven_Weapon *> >,0> >::_Parent
; Function compile flags: /Odtp /RTCsu
_TEXT	ENDS
;	COMDAT ?_Right@?$_Tree_val@V?$_Tmap_traits@HPAVRaven_Weapon@@U?$less@H@std@@V?$allocator@U?$pair@$$CBHPAVRaven_Weapon@@@std@@@3@$0A@@std@@@std@@SAAAPAU_Node@?$_Tree_nod@V?$_Tmap_traits@HPAVRaven_Weapon@@U?$less@H@std@@V?$allocator@U?$pair@$$CBHPAVRaven_Weapon@@@std@@@3@$0A@@std@@@2@PAU342@@Z
_TEXT	SEGMENT
__Pnode$ = 8						; size = 4
?_Right@?$_Tree_val@V?$_Tmap_traits@HPAVRaven_Weapon@@U?$less@H@std@@V?$allocator@U?$pair@$$CBHPAVRaven_Weapon@@@std@@@3@$0A@@std@@@std@@SAAAPAU_Node@?$_Tree_nod@V?$_Tmap_traits@HPAVRaven_Weapon@@U?$less@H@std@@V?$allocator@U?$pair@$$CBHPAVRaven_Weapon@@@std@@@3@$0A@@std@@@2@PAU342@@Z PROC ; std::_Tree_val<std::_Tmap_traits<int,Raven_Weapon *,std::less<int>,std::allocator<std::pair<int const ,Raven_Weapon *> >,0> >::_Right, COMDAT

; 631  : 		{	// return reference to right pointer in node

	push	ebp
	mov	ebp, esp

; 632  : 		return ((_Nodepref)(*_Pnode)._Right);

	mov	eax, DWORD PTR __Pnode$[ebp]
	add	eax, 8

; 633  : 		}

	pop	ebp
	ret	0
?_Right@?$_Tree_val@V?$_Tmap_traits@HPAVRaven_Weapon@@U?$less@H@std@@V?$allocator@U?$pair@$$CBHPAVRaven_Weapon@@@std@@@3@$0A@@std@@@std@@SAAAPAU_Node@?$_Tree_nod@V?$_Tmap_traits@HPAVRaven_Weapon@@U?$less@H@std@@V?$allocator@U?$pair@$$CBHPAVRaven_Weapon@@@std@@@3@$0A@@std@@@2@PAU342@@Z ENDP ; std::_Tree_val<std::_Tmap_traits<int,Raven_Weapon *,std::less<int>,std::allocator<std::pair<int const ,Raven_Weapon *> >,0> >::_Right
; Function compile flags: /Odtp /RTCsu
_TEXT	ENDS
;	COMDAT ?_Myval@?$_Tree_val@V?$_Tmap_traits@HPAVRaven_Weapon@@U?$less@H@std@@V?$allocator@U?$pair@$$CBHPAVRaven_Weapon@@@std@@@3@$0A@@std@@@std@@SAAAU?$pair@$$CBHPAVRaven_Weapon@@@2@PAU_Node@?$_Tree_nod@V?$_Tmap_traits@HPAVRaven_Weapon@@U?$less@H@std@@V?$allocator@U?$pair@$$CBHPAVRaven_Weapon@@@std@@@3@$0A@@std@@@2@@Z
_TEXT	SEGMENT
__Pnode$ = 8						; size = 4
?_Myval@?$_Tree_val@V?$_Tmap_traits@HPAVRaven_Weapon@@U?$less@H@std@@V?$allocator@U?$pair@$$CBHPAVRaven_Weapon@@@std@@@3@$0A@@std@@@std@@SAAAU?$pair@$$CBHPAVRaven_Weapon@@@2@PAU_Node@?$_Tree_nod@V?$_Tmap_traits@HPAVRaven_Weapon@@U?$less@H@std@@V?$allocator@U?$pair@$$CBHPAVRaven_Weapon@@@std@@@3@$0A@@std@@@2@@Z PROC ; std::_Tree_val<std::_Tmap_traits<int,Raven_Weapon *,std::less<int>,std::allocator<std::pair<int const ,Raven_Weapon *> >,0> >::_Myval, COMDAT

; 636  : 		{	// return reference to value in node

	push	ebp
	mov	ebp, esp

; 637  : 		return ((reference)(*_Pnode)._Myval);

	mov	eax, DWORD PTR __Pnode$[ebp]
	add	eax, 12					; 0000000cH

; 638  : 		}

	pop	ebp
	ret	0
?_Myval@?$_Tree_val@V?$_Tmap_traits@HPAVRaven_Weapon@@U?$less@H@std@@V?$allocator@U?$pair@$$CBHPAVRaven_Weapon@@@std@@@3@$0A@@std@@@std@@SAAAU?$pair@$$CBHPAVRaven_Weapon@@@2@PAU_Node@?$_Tree_nod@V?$_Tmap_traits@HPAVRaven_Weapon@@U?$less@H@std@@V?$allocator@U?$pair@$$CBHPAVRaven_Weapon@@@std@@@3@$0A@@std@@@2@@Z ENDP ; std::_Tree_val<std::_Tmap_traits<int,Raven_Weapon *,std::less<int>,std::allocator<std::pair<int const ,Raven_Weapon *> >,0> >::_Myval
; Function compile flags: /Odtp /RTCsu
_TEXT	ENDS
;	COMDAT ?_Min@?$_Tree_val@V?$_Tmap_traits@HPAVRaven_Weapon@@U?$less@H@std@@V?$allocator@U?$pair@$$CBHPAVRaven_Weapon@@@std@@@3@$0A@@std@@@std@@SAPAU_Node@?$_Tree_nod@V?$_Tmap_traits@HPAVRaven_Weapon@@U?$less@H@std@@V?$allocator@U?$pair@$$CBHPAVRaven_Weapon@@@std@@@3@$0A@@std@@@2@PAU342@@Z
_TEXT	SEGMENT
__Pnode$ = 8						; size = 4
?_Min@?$_Tree_val@V?$_Tmap_traits@HPAVRaven_Weapon@@U?$less@H@std@@V?$allocator@U?$pair@$$CBHPAVRaven_Weapon@@@std@@@3@$0A@@std@@@std@@SAPAU_Node@?$_Tree_nod@V?$_Tmap_traits@HPAVRaven_Weapon@@U?$less@H@std@@V?$allocator@U?$pair@$$CBHPAVRaven_Weapon@@@std@@@3@$0A@@std@@@2@PAU342@@Z PROC ; std::_Tree_val<std::_Tmap_traits<int,Raven_Weapon *,std::less<int>,std::allocator<std::pair<int const ,Raven_Weapon *> >,0> >::_Min, COMDAT

; 648  : 		{	// return leftmost node in subtree at _Pnode

	push	ebp
	mov	ebp, esp
$LN2@Min:

; 649  : 		while (!_Isnil(_Left(_Pnode)))

	mov	eax, DWORD PTR __Pnode$[ebp]
	push	eax
	call	?_Left@?$_Tree_val@V?$_Tmap_traits@HPAVRaven_Weapon@@U?$less@H@std@@V?$allocator@U?$pair@$$CBHPAVRaven_Weapon@@@std@@@3@$0A@@std@@@std@@SAAAPAU_Node@?$_Tree_nod@V?$_Tmap_traits@HPAVRaven_Weapon@@U?$less@H@std@@V?$allocator@U?$pair@$$CBHPAVRaven_Weapon@@@std@@@3@$0A@@std@@@2@PAU342@@Z ; std::_Tree_val<std::_Tmap_traits<int,Raven_Weapon *,std::less<int>,std::allocator<std::pair<int const ,Raven_Weapon *> >,0> >::_Left
	add	esp, 4
	mov	ecx, DWORD PTR [eax]
	push	ecx
	call	?_Isnil@?$_Tree_val@V?$_Tmap_traits@HPAVRaven_Weapon@@U?$less@H@std@@V?$allocator@U?$pair@$$CBHPAVRaven_Weapon@@@std@@@3@$0A@@std@@@std@@SAAADPAU_Node@?$_Tree_nod@V?$_Tmap_traits@HPAVRaven_Weapon@@U?$less@H@std@@V?$allocator@U?$pair@$$CBHPAVRaven_Weapon@@@std@@@3@$0A@@std@@@2@@Z ; std::_Tree_val<std::_Tmap_traits<int,Raven_Weapon *,std::less<int>,std::allocator<std::pair<int const ,Raven_Weapon *> >,0> >::_Isnil
	add	esp, 4
	movsx	edx, BYTE PTR [eax]
	test	edx, edx
	jne	SHORT $LN1@Min

; 650  : 			_Pnode = _Left(_Pnode);

	mov	eax, DWORD PTR __Pnode$[ebp]
	push	eax
	call	?_Left@?$_Tree_val@V?$_Tmap_traits@HPAVRaven_Weapon@@U?$less@H@std@@V?$allocator@U?$pair@$$CBHPAVRaven_Weapon@@@std@@@3@$0A@@std@@@std@@SAAAPAU_Node@?$_Tree_nod@V?$_Tmap_traits@HPAVRaven_Weapon@@U?$less@H@std@@V?$allocator@U?$pair@$$CBHPAVRaven_Weapon@@@std@@@3@$0A@@std@@@2@PAU342@@Z ; std::_Tree_val<std::_Tmap_traits<int,Raven_Weapon *,std::less<int>,std::allocator<std::pair<int const ,Raven_Weapon *> >,0> >::_Left
	add	esp, 4
	mov	ecx, DWORD PTR [eax]
	mov	DWORD PTR __Pnode$[ebp], ecx
	jmp	SHORT $LN2@Min
$LN1@Min:

; 651  : 		return (_Pnode);

	mov	eax, DWORD PTR __Pnode$[ebp]

; 652  : 		}

	cmp	ebp, esp
	call	__RTC_CheckEsp
	pop	ebp
	ret	0
?_Min@?$_Tree_val@V?$_Tmap_traits@HPAVRaven_Weapon@@U?$less@H@std@@V?$allocator@U?$pair@$$CBHPAVRaven_Weapon@@@std@@@3@$0A@@std@@@std@@SAPAU_Node@?$_Tree_nod@V?$_Tmap_traits@HPAVRaven_Weapon@@U?$less@H@std@@V?$allocator@U?$pair@$$CBHPAVRaven_Weapon@@@std@@@3@$0A@@std@@@2@PAU342@@Z ENDP ; std::_Tree_val<std::_Tmap_traits<int,Raven_Weapon *,std::less<int>,std::allocator<std::pair<int const ,Raven_Weapon *> >,0> >::_Min
_TEXT	ENDS
PUBLIC	??0?$_Tree_unchecked_const_iterator@V?$_Tree_val@V?$_Tmap_traits@HPAVRaven_Weapon@@U?$less@H@std@@V?$allocator@U?$pair@$$CBHPAVRaven_Weapon@@@std@@@3@$0A@@std@@@std@@U_Iterator_base12@2@@std@@QAE@PAU_Node@?$_Tree_nod@V?$_Tmap_traits@HPAVRaven_Weapon@@U?$less@H@std@@V?$allocator@U?$pair@$$CBHPAVRaven_Weapon@@@std@@@3@$0A@@std@@@1@PBV?$_Tree_val@V?$_Tmap_traits@HPAVRaven_Weapon@@U?$less@H@std@@V?$allocator@U?$pair@$$CBHPAVRaven_Weapon@@@std@@@3@$0A@@std@@@1@@Z ; std::_Tree_unchecked_const_iterator<std::_Tree_val<std::_Tmap_traits<int,Raven_Weapon *,std::less<int>,std::allocator<std::pair<int const ,Raven_Weapon *> >,0> >,std::_Iterator_base12>::_Tree_unchecked_const_iterator<std::_Tree_val<std::_Tmap_traits<int,Raven_Weapon *,std::less<int>,std::allocator<std::pair<int const ,Raven_Weapon *> >,0> >,std::_Iterator_base12>
; Function compile flags: /Odtp /RTCsu
;	COMDAT ??0?$_Tree_const_iterator@V?$_Tree_val@V?$_Tmap_traits@HPAVRaven_Weapon@@U?$less@H@std@@V?$allocator@U?$pair@$$CBHPAVRaven_Weapon@@@std@@@3@$0A@@std@@@std@@@std@@QAE@PAU_Node@?$_Tree_nod@V?$_Tmap_traits@HPAVRaven_Weapon@@U?$less@H@std@@V?$allocator@U?$pair@$$CBHPAVRaven_Weapon@@@std@@@3@$0A@@std@@@1@PBV?$_Tree_val@V?$_Tmap_traits@HPAVRaven_Weapon@@U?$less@H@std@@V?$allocator@U?$pair@$$CBHPAVRaven_Weapon@@@std@@@3@$0A@@std@@@1@@Z
_TEXT	SEGMENT
_this$ = -4						; size = 4
__Pnode$ = 8						; size = 4
__Plist$ = 12						; size = 4
??0?$_Tree_const_iterator@V?$_Tree_val@V?$_Tmap_traits@HPAVRaven_Weapon@@U?$less@H@std@@V?$allocator@U?$pair@$$CBHPAVRaven_Weapon@@@std@@@3@$0A@@std@@@std@@@std@@QAE@PAU_Node@?$_Tree_nod@V?$_Tmap_traits@HPAVRaven_Weapon@@U?$less@H@std@@V?$allocator@U?$pair@$$CBHPAVRaven_Weapon@@@std@@@3@$0A@@std@@@1@PBV?$_Tree_val@V?$_Tmap_traits@HPAVRaven_Weapon@@U?$less@H@std@@V?$allocator@U?$pair@$$CBHPAVRaven_Weapon@@@std@@@3@$0A@@std@@@1@@Z PROC ; std::_Tree_const_iterator<std::_Tree_val<std::_Tmap_traits<int,Raven_Weapon *,std::less<int>,std::allocator<std::pair<int const ,Raven_Weapon *> >,0> > >::_Tree_const_iterator<std::_Tree_val<std::_Tmap_traits<int,Raven_Weapon *,std::less<int>,std::allocator<std::pair<int const ,Raven_Weapon *> >,0> > >, COMDAT
; _this$ = ecx

; 213  : 		{	// construct with node pointer _Pnode

	push	ebp
	mov	ebp, esp
	push	ecx
	mov	DWORD PTR [ebp-4], -858993460		; ccccccccH
	mov	DWORD PTR _this$[ebp], ecx
	mov	eax, DWORD PTR __Plist$[ebp]
	push	eax
	mov	ecx, DWORD PTR __Pnode$[ebp]
	push	ecx
	mov	ecx, DWORD PTR _this$[ebp]
	call	??0?$_Tree_unchecked_const_iterator@V?$_Tree_val@V?$_Tmap_traits@HPAVRaven_Weapon@@U?$less@H@std@@V?$allocator@U?$pair@$$CBHPAVRaven_Weapon@@@std@@@3@$0A@@std@@@std@@U_Iterator_base12@2@@std@@QAE@PAU_Node@?$_Tree_nod@V?$_Tmap_traits@HPAVRaven_Weapon@@U?$less@H@std@@V?$allocator@U?$pair@$$CBHPAVRaven_Weapon@@@std@@@3@$0A@@std@@@1@PBV?$_Tree_val@V?$_Tmap_traits@HPAVRaven_Weapon@@U?$less@H@std@@V?$allocator@U?$pair@$$CBHPAVRaven_Weapon@@@std@@@3@$0A@@std@@@1@@Z ; std::_Tree_unchecked_const_iterator<std::_Tree_val<std::_Tmap_traits<int,Raven_Weapon *,std::less<int>,std::allocator<std::pair<int const ,Raven_Weapon *> >,0> >,std::_Iterator_base12>::_Tree_unchecked_const_iterator<std::_Tree_val<std::_Tmap_traits<int,Raven_Weapon *,std::less<int>,std::allocator<std::pair<int const ,Raven_Weapon *> >,0> >,std::_Iterator_base12>

; 214  : 		}

	mov	eax, DWORD PTR _this$[ebp]
	add	esp, 4
	cmp	ebp, esp
	call	__RTC_CheckEsp
	mov	esp, ebp
	pop	ebp
	ret	8
??0?$_Tree_const_iterator@V?$_Tree_val@V?$_Tmap_traits@HPAVRaven_Weapon@@U?$less@H@std@@V?$allocator@U?$pair@$$CBHPAVRaven_Weapon@@@std@@@3@$0A@@std@@@std@@@std@@QAE@PAU_Node@?$_Tree_nod@V?$_Tmap_traits@HPAVRaven_Weapon@@U?$less@H@std@@V?$allocator@U?$pair@$$CBHPAVRaven_Weapon@@@std@@@3@$0A@@std@@@1@PBV?$_Tree_val@V?$_Tmap_traits@HPAVRaven_Weapon@@U?$less@H@std@@V?$allocator@U?$pair@$$CBHPAVRaven_Weapon@@@std@@@3@$0A@@std@@@1@@Z ENDP ; std::_Tree_const_iterator<std::_Tree_val<std::_Tmap_traits<int,Raven_Weapon *,std::less<int>,std::allocator<std::pair<int const ,Raven_Weapon *> >,0> > >::_Tree_const_iterator<std::_Tree_val<std::_Tmap_traits<int,Raven_Weapon *,std::less<int>,std::allocator<std::pair<int const ,Raven_Weapon *> >,0> > >
_TEXT	ENDS
PUBLIC	??_C@_1BKE@MPPPEKEG@?$AAs?$AAt?$AAd?$AA?3?$AA?3?$AA_?$AAT?$AAr?$AAe?$AAe?$AA_?$AAc?$AAo?$AAn?$AAs?$AAt?$AA_?$AAi?$AAt?$AAe?$AAr?$AAa?$AAt?$AAo?$AAr?$AA?$DM?$AAc?$AAl?$AAa?$AAs?$AAs?$AA?5@ ; `string'
PUBLIC	??_C@_1EI@FHEHNNNM@?$AAm?$AAa?$AAp?$AA?1?$AAs?$AAe?$AAt?$AA?5?$AAi?$AAt?$AAe?$AAr?$AAa?$AAt?$AAo?$AAr?$AA?5?$AAn?$AAo?$AAt?$AA?5?$AAd?$AAe?$AAr?$AAe?$AAf?$AAe?$AAr?$AAe?$AAn?$AAc?$AAa@ ; `string'
;	COMDAT ??_C@_1BKE@MPPPEKEG@?$AAs?$AAt?$AAd?$AA?3?$AA?3?$AA_?$AAT?$AAr?$AAe?$AAe?$AA_?$AAc?$AAo?$AAn?$AAs?$AAt?$AA_?$AAi?$AAt?$AAe?$AAr?$AAa?$AAt?$AAo?$AAr?$AA?$DM?$AAc?$AAl?$AAa?$AAs?$AAs?$AA?5@
CONST	SEGMENT
??_C@_1BKE@MPPPEKEG@?$AAs?$AAt?$AAd?$AA?3?$AA?3?$AA_?$AAT?$AAr?$AAe?$AAe?$AA_?$AAc?$AAo?$AAn?$AAs?$AAt?$AA_?$AAi?$AAt?$AAe?$AAr?$AAa?$AAt?$AAo?$AAr?$AA?$DM?$AAc?$AAl?$AAa?$AAs?$AAs?$AA?5@ DB 's'
	DB	00H, 't', 00H, 'd', 00H, ':', 00H, ':', 00H, '_', 00H, 'T', 00H
	DB	'r', 00H, 'e', 00H, 'e', 00H, '_', 00H, 'c', 00H, 'o', 00H, 'n'
	DB	00H, 's', 00H, 't', 00H, '_', 00H, 'i', 00H, 't', 00H, 'e', 00H
	DB	'r', 00H, 'a', 00H, 't', 00H, 'o', 00H, 'r', 00H, '<', 00H, 'c'
	DB	00H, 'l', 00H, 'a', 00H, 's', 00H, 's', 00H, ' ', 00H, 's', 00H
	DB	't', 00H, 'd', 00H, ':', 00H, ':', 00H, '_', 00H, 'T', 00H, 'r'
	DB	00H, 'e', 00H, 'e', 00H, '_', 00H, 'v', 00H, 'a', 00H, 'l', 00H
	DB	'<', 00H, 'c', 00H, 'l', 00H, 'a', 00H, 's', 00H, 's', 00H, ' '
	DB	00H, 's', 00H, 't', 00H, 'd', 00H, ':', 00H, ':', 00H, '_', 00H
	DB	'T', 00H, 'm', 00H, 'a', 00H, 'p', 00H, '_', 00H, 't', 00H, 'r'
	DB	00H, 'a', 00H, 'i', 00H, 't', 00H, 's', 00H, '<', 00H, 'i', 00H
	DB	'n', 00H, 't', 00H, ',', 00H, 'c', 00H, 'l', 00H, 'a', 00H, 's'
	DB	00H, 's', 00H, ' ', 00H, 'R', 00H, 'a', 00H, 'v', 00H, 'e', 00H
	DB	'n', 00H, '_', 00H, 'W', 00H, 'e', 00H, 'a', 00H, 'p', 00H, 'o'
	DB	00H, 'n', 00H, ' ', 00H, '*', 00H, ',', 00H, 's', 00H, 't', 00H
	DB	'r', 00H, 'u', 00H, 'c', 00H, 't', 00H, ' ', 00H, 's', 00H, 't'
	DB	00H, 'd', 00H, ':', 00H, ':', 00H, 'l', 00H, 'e', 00H, 's', 00H
	DB	's', 00H, '<', 00H, 'i', 00H, 'n', 00H, 't', 00H, '>', 00H, ','
	DB	00H, 'c', 00H, 'l', 00H, 'a', 00H, 's', 00H, 's', 00H, ' ', 00H
	DB	's', 00H, 't', 00H, 'd', 00H, ':', 00H, ':', 00H, 'a', 00H, 'l'
	DB	00H, 'l', 00H, 'o', 00H, 'c', 00H, 'a', 00H, 't', 00H, 'o', 00H
	DB	'r', 00H, '<', 00H, 's', 00H, 't', 00H, 'r', 00H, 'u', 00H, 'c'
	DB	00H, 't', 00H, ' ', 00H, 's', 00H, 't', 00H, 'd', 00H, ':', 00H
	DB	':', 00H, 'p', 00H, 'a', 00H, 'i', 00H, 'r', 00H, '<', 00H, 'i'
	DB	00H, 'n', 00H, 't', 00H, ' ', 00H, 'c', 00H, 'o', 00H, 'n', 00H
	DB	's', 00H, 't', 00H, ' ', 00H, ',', 00H, 'c', 00H, 'l', 00H, 'a'
	DB	00H, 's', 00H, 's', 00H, ' ', 00H, 'R', 00H, 'a', 00H, 'v', 00H
	DB	'e', 00H, 'n', 00H, '_', 00H, 'W', 00H, 'e', 00H, 'a', 00H, 'p'
	DB	00H, 'o', 00H, 'n', 00H, ' ', 00H, '*', 00H, '>', 00H, ' ', 00H
	DB	'>', 00H, ',', 00H, '0', 00H, '>', 00H, ' ', 00H, '>', 00H, ' '
	DB	00H, '>', 00H, ':', 00H, ':', 00H, 'o', 00H, 'p', 00H, 'e', 00H
	DB	'r', 00H, 'a', 00H, 't', 00H, 'o', 00H, 'r', 00H, ' ', 00H, '*'
	DB	00H, 00H, 00H				; `string'
CONST	ENDS
;	COMDAT ??_C@_1EI@FHEHNNNM@?$AAm?$AAa?$AAp?$AA?1?$AAs?$AAe?$AAt?$AA?5?$AAi?$AAt?$AAe?$AAr?$AAa?$AAt?$AAo?$AAr?$AA?5?$AAn?$AAo?$AAt?$AA?5?$AAd?$AAe?$AAr?$AAe?$AAf?$AAe?$AAr?$AAe?$AAn?$AAc?$AAa@
CONST	SEGMENT
??_C@_1EI@FHEHNNNM@?$AAm?$AAa?$AAp?$AA?1?$AAs?$AAe?$AAt?$AA?5?$AAi?$AAt?$AAe?$AAr?$AAa?$AAt?$AAo?$AAr?$AA?5?$AAn?$AAo?$AAt?$AA?5?$AAd?$AAe?$AAr?$AAe?$AAf?$AAe?$AAr?$AAe?$AAn?$AAc?$AAa@ DB 'm'
	DB	00H, 'a', 00H, 'p', 00H, '/', 00H, 's', 00H, 'e', 00H, 't', 00H
	DB	' ', 00H, 'i', 00H, 't', 00H, 'e', 00H, 'r', 00H, 'a', 00H, 't'
	DB	00H, 'o', 00H, 'r', 00H, ' ', 00H, 'n', 00H, 'o', 00H, 't', 00H
	DB	' ', 00H, 'd', 00H, 'e', 00H, 'r', 00H, 'e', 00H, 'f', 00H, 'e'
	DB	00H, 'r', 00H, 'e', 00H, 'n', 00H, 'c', 00H, 'a', 00H, 'b', 00H
	DB	'l', 00H, 'e', 00H, 00H, 00H			; `string'
; Function compile flags: /Odtp /RTCsu
CONST	ENDS
;	COMDAT ??D?$_Tree_const_iterator@V?$_Tree_val@V?$_Tmap_traits@HPAVRaven_Weapon@@U?$less@H@std@@V?$allocator@U?$pair@$$CBHPAVRaven_Weapon@@@std@@@3@$0A@@std@@@std@@@std@@QBEABU?$pair@$$CBHPAVRaven_Weapon@@@1@XZ
_TEXT	SEGMENT
_this$ = -4						; size = 4
??D?$_Tree_const_iterator@V?$_Tree_val@V?$_Tmap_traits@HPAVRaven_Weapon@@U?$less@H@std@@V?$allocator@U?$pair@$$CBHPAVRaven_Weapon@@@std@@@3@$0A@@std@@@std@@@std@@QBEABU?$pair@$$CBHPAVRaven_Weapon@@@1@XZ PROC ; std::_Tree_const_iterator<std::_Tree_val<std::_Tmap_traits<int,Raven_Weapon *,std::less<int>,std::allocator<std::pair<int const ,Raven_Weapon *> >,0> > >::operator*, COMDAT
; _this$ = ecx

; 230  : 		{	// return designated value

	push	ebp
	mov	ebp, esp
	push	ecx
	mov	DWORD PTR [ebp-4], -858993460		; ccccccccH
	mov	DWORD PTR _this$[ebp], ecx

; 231  :  #if _ITERATOR_DEBUG_LEVEL == 2
; 232  : 		if (this->_Getcont() == 0
; 233  : 			|| this->_Ptr == 0
; 234  : 			|| this->_Ptr == ((_Mytree *)this->_Getcont())->_Myhead)

	mov	ecx, DWORD PTR _this$[ebp]
	call	?_Getcont@_Iterator_base12@std@@QBEPBU_Container_base12@2@XZ ; std::_Iterator_base12::_Getcont
	test	eax, eax
	je	SHORT $LN1@operator@6
	mov	eax, DWORD PTR _this$[ebp]
	cmp	DWORD PTR [eax+8], 0
	je	SHORT $LN1@operator@6
	mov	ecx, DWORD PTR _this$[ebp]
	call	?_Getcont@_Iterator_base12@std@@QBEPBU_Container_base12@2@XZ ; std::_Iterator_base12::_Getcont
	mov	ecx, DWORD PTR _this$[ebp]
	mov	edx, DWORD PTR [ecx+8]
	cmp	edx, DWORD PTR [eax+8]
	jne	SHORT $LN2@operator@6
$LN1@operator@6:

; 235  : 			{	// report error
; 236  : 			_DEBUG_ERROR("map/set iterator not dereferencable");

	push	236					; 000000ecH
	push	OFFSET ??_C@_1IK@JNLFPKKF@?$AAc?$AA?3?$AA?2?$AAP?$AAr?$AAo?$AAg?$AAr?$AAa?$AAm?$AA?5?$AAF?$AAi?$AAl?$AAe?$AAs?$AA?5?$AA?$CI?$AAx?$AA8?$AA6?$AA?$CJ?$AA?2?$AAM?$AAi?$AAc?$AAr?$AAo?$AAs?$AAo?$AAf?$AAt@
	push	OFFSET ??_C@_1EI@FHEHNNNM@?$AAm?$AAa?$AAp?$AA?1?$AAs?$AAe?$AAt?$AA?5?$AAi?$AAt?$AAe?$AAr?$AAa?$AAt?$AAo?$AAr?$AA?5?$AAn?$AAo?$AAt?$AA?5?$AAd?$AAe?$AAr?$AAe?$AAf?$AAe?$AAr?$AAe?$AAn?$AAc?$AAa@
	call	?_Debug_message@std@@YAXPB_W0I@Z	; std::_Debug_message
	add	esp, 12					; 0000000cH

; 237  : 			_SCL_SECURE_OUT_OF_RANGE;

	mov	eax, OFFSET ??_C@_0CE@OFMIGAMM@Standard?5C?$CL?$CL?5Libraries?5Out?5of?5Ra@
	test	eax, eax
	je	SHORT $LN5@operator@6
	xor	ecx, ecx
	jne	SHORT $LN6@operator@6
$LN5@operator@6:
	push	OFFSET ??_C@_1FG@IBPIFFN@?$AA?$CC?$AAS?$AAt?$AAa?$AAn?$AAd?$AAa?$AAr?$AAd?$AA?5?$AAC?$AA?$CL?$AA?$CL?$AA?5?$AAL?$AAi?$AAb?$AAr?$AAa?$AAr?$AAi?$AAe?$AAs?$AA?5?$AAO?$AAu?$AAt?$AA?5?$AAo?$AAf?$AA?5?$AAR@
	push	0
	push	237					; 000000edH
	push	OFFSET ??_C@_1IK@JNLFPKKF@?$AAc?$AA?3?$AA?2?$AAP?$AAr?$AAo?$AAg?$AAr?$AAa?$AAm?$AA?5?$AAF?$AAi?$AAl?$AAe?$AAs?$AA?5?$AA?$CI?$AAx?$AA8?$AA6?$AA?$CJ?$AA?2?$AAM?$AAi?$AAc?$AAr?$AAo?$AAs?$AAo?$AAf?$AAt@
	push	2
	call	__CrtDbgReportW
	add	esp, 20					; 00000014H
	cmp	eax, 1
	jne	SHORT $LN6@operator@6
	int	3
$LN6@operator@6:
	push	0
	push	237					; 000000edH
	push	OFFSET ??_C@_1IK@JNLFPKKF@?$AAc?$AA?3?$AA?2?$AAP?$AAr?$AAo?$AAg?$AAr?$AAa?$AAm?$AA?5?$AAF?$AAi?$AAl?$AAe?$AAs?$AA?5?$AA?$CI?$AAx?$AA8?$AA6?$AA?$CJ?$AA?2?$AAM?$AAi?$AAc?$AAr?$AAo?$AAs?$AAo?$AAf?$AAt@
	push	OFFSET ??_C@_1BKE@MPPPEKEG@?$AAs?$AAt?$AAd?$AA?3?$AA?3?$AA_?$AAT?$AAr?$AAe?$AAe?$AA_?$AAc?$AAo?$AAn?$AAs?$AAt?$AA_?$AAi?$AAt?$AAe?$AAr?$AAa?$AAt?$AAo?$AAr?$AA?$DM?$AAc?$AAl?$AAa?$AAs?$AAs?$AA?5@
	push	OFFSET ??_C@_1BO@MEPPHOO@?$AA?$CC?$AAo?$AAu?$AAt?$AA?5?$AAo?$AAf?$AA?5?$AAr?$AAa?$AAn?$AAg?$AAe?$AA?$CC?$AA?$AA@
	call	__invalid_parameter
	add	esp, 20					; 00000014H
$LN2@operator@6:

; 238  : 			}
; 239  : 
; 240  :  #elif _ITERATOR_DEBUG_LEVEL == 1
; 241  : 		_SCL_SECURE_VALIDATE(this->_Getcont() != 0 && this->_Ptr != 0);
; 242  : 		_SCL_SECURE_VALIDATE_RANGE(this->_Ptr !=
; 243  : 			((_Mytree *)this->_Getcont())->_Myhead);
; 244  :  #endif /* _ITERATOR_DEBUG_LEVEL */
; 245  : 
; 246  : 		return (_Mytree::_Myval(this->_Ptr));

	mov	eax, DWORD PTR _this$[ebp]
	mov	ecx, DWORD PTR [eax+8]
	push	ecx
	call	?_Myval@?$_Tree_val@V?$_Tmap_traits@HPAVRaven_Weapon@@U?$less@H@std@@V?$allocator@U?$pair@$$CBHPAVRaven_Weapon@@@std@@@3@$0A@@std@@@std@@SAAAU?$pair@$$CBHPAVRaven_Weapon@@@2@PAU_Node@?$_Tree_nod@V?$_Tmap_traits@HPAVRaven_Weapon@@U?$less@H@std@@V?$allocator@U?$pair@$$CBHPAVRaven_Weapon@@@std@@@3@$0A@@std@@@2@@Z ; std::_Tree_val<std::_Tmap_traits<int,Raven_Weapon *,std::less<int>,std::allocator<std::pair<int const ,Raven_Weapon *> >,0> >::_Myval
	add	esp, 4

; 247  : 		}

	add	esp, 4
	cmp	ebp, esp
	call	__RTC_CheckEsp
	mov	esp, ebp
	pop	ebp
	ret	0
??D?$_Tree_const_iterator@V?$_Tree_val@V?$_Tmap_traits@HPAVRaven_Weapon@@U?$less@H@std@@V?$allocator@U?$pair@$$CBHPAVRaven_Weapon@@@std@@@3@$0A@@std@@@std@@@std@@QBEABU?$pair@$$CBHPAVRaven_Weapon@@@1@XZ ENDP ; std::_Tree_const_iterator<std::_Tree_val<std::_Tmap_traits<int,Raven_Weapon *,std::less<int>,std::allocator<std::pair<int const ,Raven_Weapon *> >,0> > >::operator*
; Function compile flags: /Odtp /RTCsu
; File c:\program files (x86)\microsoft visual studio 10.0\vc\include\utility
_TEXT	ENDS
;	COMDAT ??0?$_Pair_base@HPAVRaven_Weapon@@@std@@QAE@$$QAH$$QAPAVRaven_Weapon@@@Z
_TEXT	SEGMENT
_this$ = -4						; size = 4
__Val1$ = 8						; size = 4
__Val2$ = 12						; size = 4
??0?$_Pair_base@HPAVRaven_Weapon@@@std@@QAE@$$QAH$$QAPAVRaven_Weapon@@@Z PROC ; std::_Pair_base<int,Raven_Weapon *>::_Pair_base<int,Raven_Weapon *>, COMDAT
; _this$ = ecx

; 145  : 		{	// construct from specified values

	push	ebp
	mov	ebp, esp
	push	ecx
	mov	DWORD PTR [ebp-4], -858993460		; ccccccccH
	mov	DWORD PTR _this$[ebp], ecx
	mov	eax, DWORD PTR __Val1$[ebp]
	push	eax
	call	??$move@AAH@std@@YA$$QAHAAH@Z		; std::move<int &>
	add	esp, 4
	mov	ecx, DWORD PTR _this$[ebp]
	mov	edx, DWORD PTR [eax]
	mov	DWORD PTR [ecx], edx
	mov	eax, DWORD PTR __Val2$[ebp]
	push	eax
	call	??$move@AAPAVRaven_Weapon@@@std@@YA$$QAPAVRaven_Weapon@@AAPAV1@@Z ; std::move<Raven_Weapon * &>
	add	esp, 4
	mov	ecx, DWORD PTR _this$[ebp]
	mov	edx, DWORD PTR [eax]
	mov	DWORD PTR [ecx+4], edx

; 146  : 		}

	mov	eax, DWORD PTR _this$[ebp]
	add	esp, 4
	cmp	ebp, esp
	call	__RTC_CheckEsp
	mov	esp, ebp
	pop	ebp
	ret	8
??0?$_Pair_base@HPAVRaven_Weapon@@@std@@QAE@$$QAH$$QAPAVRaven_Weapon@@@Z ENDP ; std::_Pair_base<int,Raven_Weapon *>::_Pair_base<int,Raven_Weapon *>
; Function compile flags: /Odtp /RTCsu
; File c:\program files (x86)\microsoft visual studio 10.0\vc\include\xtree
_TEXT	ENDS
;	COMDAT ?_Root@?$_Tree@V?$_Tmap_traits@HPAVRaven_Weapon@@U?$less@H@std@@V?$allocator@U?$pair@$$CBHPAVRaven_Weapon@@@std@@@3@$0A@@std@@@std@@IBEAAPAU_Node@?$_Tree_nod@V?$_Tmap_traits@HPAVRaven_Weapon@@U?$less@H@std@@V?$allocator@U?$pair@$$CBHPAVRaven_Weapon@@@std@@@3@$0A@@std@@@2@XZ
_TEXT	SEGMENT
_this$ = -4						; size = 4
?_Root@?$_Tree@V?$_Tmap_traits@HPAVRaven_Weapon@@U?$less@H@std@@V?$allocator@U?$pair@$$CBHPAVRaven_Weapon@@@std@@@3@$0A@@std@@@std@@IBEAAPAU_Node@?$_Tree_nod@V?$_Tmap_traits@HPAVRaven_Weapon@@U?$less@H@std@@V?$allocator@U?$pair@$$CBHPAVRaven_Weapon@@@std@@@3@$0A@@std@@@2@XZ PROC ; std::_Tree<std::_Tmap_traits<int,Raven_Weapon *,std::less<int>,std::allocator<std::pair<int const ,Raven_Weapon *> >,0> >::_Root, COMDAT
; _this$ = ecx

; 1788 : 		{	// return root of nonmutable tree

	push	ebp
	mov	ebp, esp
	push	ecx
	mov	DWORD PTR [ebp-4], -858993460		; ccccccccH
	mov	DWORD PTR _this$[ebp], ecx

; 1789 : 		return (this->_Parent(this->_Myhead));

	mov	eax, DWORD PTR _this$[ebp]
	mov	ecx, DWORD PTR [eax+8]
	push	ecx
	call	?_Parent@?$_Tree_val@V?$_Tmap_traits@HPAVRaven_Weapon@@U?$less@H@std@@V?$allocator@U?$pair@$$CBHPAVRaven_Weapon@@@std@@@3@$0A@@std@@@std@@SAAAPAU_Node@?$_Tree_nod@V?$_Tmap_traits@HPAVRaven_Weapon@@U?$less@H@std@@V?$allocator@U?$pair@$$CBHPAVRaven_Weapon@@@std@@@3@$0A@@std@@@2@PAU342@@Z ; std::_Tree_val<std::_Tmap_traits<int,Raven_Weapon *,std::less<int>,std::allocator<std::pair<int const ,Raven_Weapon *> >,0> >::_Parent
	add	esp, 4

; 1790 : 		}

	add	esp, 4
	cmp	ebp, esp
	call	__RTC_CheckEsp
	mov	esp, ebp
	pop	ebp
	ret	0
?_Root@?$_Tree@V?$_Tmap_traits@HPAVRaven_Weapon@@U?$less@H@std@@V?$allocator@U?$pair@$$CBHPAVRaven_Weapon@@@std@@@3@$0A@@std@@@std@@IBEAAPAU_Node@?$_Tree_nod@V?$_Tmap_traits@HPAVRaven_Weapon@@U?$less@H@std@@V?$allocator@U?$pair@$$CBHPAVRaven_Weapon@@@std@@@3@$0A@@std@@@2@XZ ENDP ; std::_Tree<std::_Tmap_traits<int,Raven_Weapon *,std::less<int>,std::allocator<std::pair<int const ,Raven_Weapon *> >,0> >::_Root
_TEXT	ENDS
;	COMDAT xdata$x
xdata$x	SEGMENT
__unwindtable$??0?$_Tree_unchecked_const_iterator@V?$_Tree_val@V?$_Tmap_traits@HPAVRaven_Weapon@@U?$less@H@std@@V?$allocator@U?$pair@$$CBHPAVRaven_Weapon@@@std@@@3@$0A@@std@@@std@@U_Iterator_base12@2@@std@@QAE@PAU_Node@?$_Tree_nod@V?$_Tmap_traits@HPAVRaven_Weapon@@U?$less@H@std@@V?$allocator@U?$pair@$$CBHPAVRaven_Weapon@@@std@@@3@$0A@@std@@@1@PBV?$_Tree_val@V?$_Tmap_traits@HPAVRaven_Weapon@@U?$less@H@std@@V?$allocator@U?$pair@$$CBHPAVRaven_Weapon@@@std@@@3@$0A@@std@@@1@@Z DD 0ffffffffH
	DD	FLAT:__unwindfunclet$??0?$_Tree_unchecked_const_iterator@V?$_Tree_val@V?$_Tmap_traits@HPAVRaven_Weapon@@U?$less@H@std@@V?$allocator@U?$pair@$$CBHPAVRaven_Weapon@@@std@@@3@$0A@@std@@@std@@U_Iterator_base12@2@@std@@QAE@PAU_Node@?$_Tree_nod@V?$_Tmap_traits@HPAVRaven_Weapon@@U?$less@H@std@@V?$allocator@U?$pair@$$CBHPAVRaven_Weapon@@@std@@@3@$0A@@std@@@1@PBV?$_Tree_val@V?$_Tmap_traits@HPAVRaven_Weapon@@U?$less@H@std@@V?$allocator@U?$pair@$$CBHPAVRaven_Weapon@@@std@@@3@$0A@@std@@@1@@Z$0
__ehfuncinfo$??0?$_Tree_unchecked_const_iterator@V?$_Tree_val@V?$_Tmap_traits@HPAVRaven_Weapon@@U?$less@H@std@@V?$allocator@U?$pair@$$CBHPAVRaven_Weapon@@@std@@@3@$0A@@std@@@std@@U_Iterator_base12@2@@std@@QAE@PAU_Node@?$_Tree_nod@V?$_Tmap_traits@HPAVRaven_Weapon@@U?$less@H@std@@V?$allocator@U?$pair@$$CBHPAVRaven_Weapon@@@std@@@3@$0A@@std@@@1@PBV?$_Tree_val@V?$_Tmap_traits@HPAVRaven_Weapon@@U?$less@H@std@@V?$allocator@U?$pair@$$CBHPAVRaven_Weapon@@@std@@@3@$0A@@std@@@1@@Z DD 019930522H
	DD	01H
	DD	FLAT:__unwindtable$??0?$_Tree_unchecked_const_iterator@V?$_Tree_val@V?$_Tmap_traits@HPAVRaven_Weapon@@U?$less@H@std@@V?$allocator@U?$pair@$$CBHPAVRaven_Weapon@@@std@@@3@$0A@@std@@@std@@U_Iterator_base12@2@@std@@QAE@PAU_Node@?$_Tree_nod@V?$_Tmap_traits@HPAVRaven_Weapon@@U?$less@H@std@@V?$allocator@U?$pair@$$CBHPAVRaven_Weapon@@@std@@@3@$0A@@std@@@1@PBV?$_Tree_val@V?$_Tmap_traits@HPAVRaven_Weapon@@U?$less@H@std@@V?$allocator@U?$pair@$$CBHPAVRaven_Weapon@@@std@@@3@$0A@@std@@@1@@Z
	DD	2 DUP(00H)
	DD	2 DUP(00H)
	DD	00H
	DD	01H
; Function compile flags: /Odtp /RTCsu
xdata$x	ENDS
;	COMDAT ??0?$_Tree_unchecked_const_iterator@V?$_Tree_val@V?$_Tmap_traits@HPAVRaven_Weapon@@U?$less@H@std@@V?$allocator@U?$pair@$$CBHPAVRaven_Weapon@@@std@@@3@$0A@@std@@@std@@U_Iterator_base12@2@@std@@QAE@PAU_Node@?$_Tree_nod@V?$_Tmap_traits@HPAVRaven_Weapon@@U?$less@H@std@@V?$allocator@U?$pair@$$CBHPAVRaven_Weapon@@@std@@@3@$0A@@std@@@1@PBV?$_Tree_val@V?$_Tmap_traits@HPAVRaven_Weapon@@U?$less@H@std@@V?$allocator@U?$pair@$$CBHPAVRaven_Weapon@@@std@@@3@$0A@@std@@@1@@Z
_TEXT	SEGMENT
_this$ = -16						; size = 4
__$EHRec$ = -12						; size = 12
__Pnode$ = 8						; size = 4
__Plist$ = 12						; size = 4
??0?$_Tree_unchecked_const_iterator@V?$_Tree_val@V?$_Tmap_traits@HPAVRaven_Weapon@@U?$less@H@std@@V?$allocator@U?$pair@$$CBHPAVRaven_Weapon@@@std@@@3@$0A@@std@@@std@@U_Iterator_base12@2@@std@@QAE@PAU_Node@?$_Tree_nod@V?$_Tmap_traits@HPAVRaven_Weapon@@U?$less@H@std@@V?$allocator@U?$pair@$$CBHPAVRaven_Weapon@@@std@@@3@$0A@@std@@@1@PBV?$_Tree_val@V?$_Tmap_traits@HPAVRaven_Weapon@@U?$less@H@std@@V?$allocator@U?$pair@$$CBHPAVRaven_Weapon@@@std@@@3@$0A@@std@@@1@@Z PROC ; std::_Tree_unchecked_const_iterator<std::_Tree_val<std::_Tmap_traits<int,Raven_Weapon *,std::less<int>,std::allocator<std::pair<int const ,Raven_Weapon *> >,0> >,std::_Iterator_base12>::_Tree_unchecked_const_iterator<std::_Tree_val<std::_Tmap_traits<int,Raven_Weapon *,std::less<int>,std::allocator<std::pair<int const ,Raven_Weapon *> >,0> >,std::_Iterator_base12>, COMDAT
; _this$ = ecx

; 43   : 		{	// construct with node pointer _Pnode

	push	ebp
	mov	ebp, esp
	push	-1
	push	__ehhandler$??0?$_Tree_unchecked_const_iterator@V?$_Tree_val@V?$_Tmap_traits@HPAVRaven_Weapon@@U?$less@H@std@@V?$allocator@U?$pair@$$CBHPAVRaven_Weapon@@@std@@@3@$0A@@std@@@std@@U_Iterator_base12@2@@std@@QAE@PAU_Node@?$_Tree_nod@V?$_Tmap_traits@HPAVRaven_Weapon@@U?$less@H@std@@V?$allocator@U?$pair@$$CBHPAVRaven_Weapon@@@std@@@3@$0A@@std@@@1@PBV?$_Tree_val@V?$_Tmap_traits@HPAVRaven_Weapon@@U?$less@H@std@@V?$allocator@U?$pair@$$CBHPAVRaven_Weapon@@@std@@@3@$0A@@std@@@1@@Z
	mov	eax, DWORD PTR fs:0
	push	eax
	push	ecx
	mov	DWORD PTR [ebp-16], -858993460		; ccccccccH
	mov	eax, DWORD PTR ___security_cookie
	xor	eax, ebp
	push	eax
	lea	eax, DWORD PTR __$EHRec$[ebp]
	mov	DWORD PTR fs:0, eax
	mov	DWORD PTR _this$[ebp], ecx
	mov	ecx, DWORD PTR _this$[ebp]
	call	??0?$_Iterator012@Ubidirectional_iterator_tag@std@@U?$pair@$$CBHPAVRaven_Weapon@@@2@HPBU32@ABU32@U_Iterator_base12@2@@std@@QAE@XZ
	mov	DWORD PTR __$EHRec$[ebp+8], 0
	mov	eax, DWORD PTR _this$[ebp]
	mov	ecx, DWORD PTR __Pnode$[ebp]
	mov	DWORD PTR [eax+8], ecx

; 44   : 		this->_Adopt(_Plist);

	mov	edx, DWORD PTR __Plist$[ebp]
	push	edx
	mov	ecx, DWORD PTR _this$[ebp]
	call	?_Adopt@_Iterator_base12@std@@QAEXPBU_Container_base12@2@@Z ; std::_Iterator_base12::_Adopt

; 45   : 		}

	mov	DWORD PTR __$EHRec$[ebp+8], -1
	mov	eax, DWORD PTR _this$[ebp]
	mov	ecx, DWORD PTR __$EHRec$[ebp]
	mov	DWORD PTR fs:0, ecx
	pop	ecx
	add	esp, 16					; 00000010H
	cmp	ebp, esp
	call	__RTC_CheckEsp
	mov	esp, ebp
	pop	ebp
	ret	8
_TEXT	ENDS
;	COMDAT text$x
text$x	SEGMENT
__unwindfunclet$??0?$_Tree_unchecked_const_iterator@V?$_Tree_val@V?$_Tmap_traits@HPAVRaven_Weapon@@U?$less@H@std@@V?$allocator@U?$pair@$$CBHPAVRaven_Weapon@@@std@@@3@$0A@@std@@@std@@U_Iterator_base12@2@@std@@QAE@PAU_Node@?$_Tree_nod@V?$_Tmap_traits@HPAVRaven_Weapon@@U?$less@H@std@@V?$allocator@U?$pair@$$CBHPAVRaven_Weapon@@@std@@@3@$0A@@std@@@1@PBV?$_Tree_val@V?$_Tmap_traits@HPAVRaven_Weapon@@U?$less@H@std@@V?$allocator@U?$pair@$$CBHPAVRaven_Weapon@@@std@@@3@$0A@@std@@@1@@Z$0:
	mov	ecx, DWORD PTR _this$[ebp]
	jmp	??1?$_Iterator012@Ubidirectional_iterator_tag@std@@U?$pair@$$CBHPAVRaven_Weapon@@@2@HPBU32@ABU32@U_Iterator_base12@2@@std@@QAE@XZ
__ehhandler$??0?$_Tree_unchecked_const_iterator@V?$_Tree_val@V?$_Tmap_traits@HPAVRaven_Weapon@@U?$less@H@std@@V?$allocator@U?$pair@$$CBHPAVRaven_Weapon@@@std@@@3@$0A@@std@@@std@@U_Iterator_base12@2@@std@@QAE@PAU_Node@?$_Tree_nod@V?$_Tmap_traits@HPAVRaven_Weapon@@U?$less@H@std@@V?$allocator@U?$pair@$$CBHPAVRaven_Weapon@@@std@@@3@$0A@@std@@@1@PBV?$_Tree_val@V?$_Tmap_traits@HPAVRaven_Weapon@@U?$less@H@std@@V?$allocator@U?$pair@$$CBHPAVRaven_Weapon@@@std@@@3@$0A@@std@@@1@@Z:
	mov	edx, DWORD PTR [esp+8]
	lea	eax, DWORD PTR [edx+12]
	mov	ecx, DWORD PTR [edx-8]
	xor	ecx, eax
	call	@__security_check_cookie@4
	mov	eax, OFFSET __ehfuncinfo$??0?$_Tree_unchecked_const_iterator@V?$_Tree_val@V?$_Tmap_traits@HPAVRaven_Weapon@@U?$less@H@std@@V?$allocator@U?$pair@$$CBHPAVRaven_Weapon@@@std@@@3@$0A@@std@@@std@@U_Iterator_base12@2@@std@@QAE@PAU_Node@?$_Tree_nod@V?$_Tmap_traits@HPAVRaven_Weapon@@U?$less@H@std@@V?$allocator@U?$pair@$$CBHPAVRaven_Weapon@@@std@@@3@$0A@@std@@@1@PBV?$_Tree_val@V?$_Tmap_traits@HPAVRaven_Weapon@@U?$less@H@std@@V?$allocator@U?$pair@$$CBHPAVRaven_Weapon@@@std@@@3@$0A@@std@@@1@@Z
	jmp	___CxxFrameHandler3
text$x	ENDS
??0?$_Tree_unchecked_const_iterator@V?$_Tree_val@V?$_Tmap_traits@HPAVRaven_Weapon@@U?$less@H@std@@V?$allocator@U?$pair@$$CBHPAVRaven_Weapon@@@std@@@3@$0A@@std@@@std@@U_Iterator_base12@2@@std@@QAE@PAU_Node@?$_Tree_nod@V?$_Tmap_traits@HPAVRaven_Weapon@@U?$less@H@std@@V?$allocator@U?$pair@$$CBHPAVRaven_Weapon@@@std@@@3@$0A@@std@@@1@PBV?$_Tree_val@V?$_Tmap_traits@HPAVRaven_Weapon@@U?$less@H@std@@V?$allocator@U?$pair@$$CBHPAVRaven_Weapon@@@std@@@3@$0A@@std@@@1@@Z ENDP ; std::_Tree_unchecked_const_iterator<std::_Tree_val<std::_Tmap_traits<int,Raven_Weapon *,std::less<int>,std::allocator<std::pair<int const ,Raven_Weapon *> >,0> >,std::_Iterator_base12>::_Tree_unchecked_const_iterator<std::_Tree_val<std::_Tmap_traits<int,Raven_Weapon *,std::less<int>,std::allocator<std::pair<int const ,Raven_Weapon *> >,0> >,std::_Iterator_base12>
; Function compile flags: /Odtp /RTCsu
; File c:\program files (x86)\microsoft visual studio 10.0\vc\include\utility
;	COMDAT ??$move@AAH@std@@YA$$QAHAAH@Z
_TEXT	SEGMENT
__Arg$ = 8						; size = 4
??$move@AAH@std@@YA$$QAHAAH@Z PROC			; std::move<int &>, COMDAT

; 86   : 	{	// forward _Arg as movable

	push	ebp
	mov	ebp, esp

; 87   : 	return ((typename tr1::_Remove_reference<_Ty>::_Type&&)_Arg);

	mov	eax, DWORD PTR __Arg$[ebp]

; 88   : 	}

	pop	ebp
	ret	0
??$move@AAH@std@@YA$$QAHAAH@Z ENDP			; std::move<int &>
_TEXT	ENDS
PUBLIC	?_Insert@?$_Tree@V?$_Tmap_traits@HPAVRaven_Weapon@@U?$less@H@std@@V?$allocator@U?$pair@$$CBHPAVRaven_Weapon@@@std@@@3@$0A@@std@@@std@@QAE?AV?$_Tree_iterator@V?$_Tree_val@V?$_Tmap_traits@HPAVRaven_Weapon@@U?$less@H@std@@V?$allocator@U?$pair@$$CBHPAVRaven_Weapon@@@std@@@3@$0A@@std@@@std@@@2@V?$_Tree_const_iterator@V?$_Tree_val@V?$_Tmap_traits@HPAVRaven_Weapon@@U?$less@H@std@@V?$allocator@U?$pair@$$CBHPAVRaven_Weapon@@@std@@@3@$0A@@std@@@std@@@2@PAU_Node@?$_Tree_nod@V?$_Tmap_traits@HPAVRaven_Weapon@@U?$less@H@std@@V?$allocator@U?$pair@$$CBHPAVRaven_Weapon@@@std@@@3@$0A@@std@@@2@@Z ; std::_Tree<std::_Tmap_traits<int,Raven_Weapon *,std::less<int>,std::allocator<std::pair<int const ,Raven_Weapon *> >,0> >::_Insert
PUBLIC	??$_Buynode@U?$pair@HPAVRaven_Weapon@@@std@@@?$_Tree_val@V?$_Tmap_traits@HPAVRaven_Weapon@@U?$less@H@std@@V?$allocator@U?$pair@$$CBHPAVRaven_Weapon@@@std@@@3@$0A@@std@@@std@@QAEPAU_Node@?$_Tree_nod@V?$_Tmap_traits@HPAVRaven_Weapon@@U?$less@H@std@@V?$allocator@U?$pair@$$CBHPAVRaven_Weapon@@@std@@@3@$0A@@std@@@1@$$QAU?$pair@HPAVRaven_Weapon@@@1@@Z ; std::_Tree_val<std::_Tmap_traits<int,Raven_Weapon *,std::less<int>,std::allocator<std::pair<int const ,Raven_Weapon *> >,0> >::_Buynode<std::pair<int,Raven_Weapon *> >
PUBLIC	??$forward@U?$pair@HPAVRaven_Weapon@@@std@@@std@@YA$$QAU?$pair@HPAVRaven_Weapon@@@0@AAU10@@Z ; std::forward<std::pair<int,Raven_Weapon *> >
;	COMDAT xdata$x
; File c:\program files (x86)\microsoft visual studio 10.0\vc\include\xtree
xdata$x	SEGMENT
__unwindtable$??$insert@U?$pair@HPAVRaven_Weapon@@@std@@@?$_Tree@V?$_Tmap_traits@HPAVRaven_Weapon@@U?$less@H@std@@V?$allocator@U?$pair@$$CBHPAVRaven_Weapon@@@std@@@3@$0A@@std@@@std@@QAE?AV?$_Tree_iterator@V?$_Tree_val@V?$_Tmap_traits@HPAVRaven_Weapon@@U?$less@H@std@@V?$allocator@U?$pair@$$CBHPAVRaven_Weapon@@@std@@@3@$0A@@std@@@std@@@1@V?$_Tree_const_iterator@V?$_Tree_val@V?$_Tmap_traits@HPAVRaven_Weapon@@U?$less@H@std@@V?$allocator@U?$pair@$$CBHPAVRaven_Weapon@@@std@@@3@$0A@@std@@@std@@@1@$$QAU?$pair@HPAVRaven_Weapon@@@1@@Z DD 0ffffffffH
	DD	FLAT:__unwindfunclet$??$insert@U?$pair@HPAVRaven_Weapon@@@std@@@?$_Tree@V?$_Tmap_traits@HPAVRaven_Weapon@@U?$less@H@std@@V?$allocator@U?$pair@$$CBHPAVRaven_Weapon@@@std@@@3@$0A@@std@@@std@@QAE?AV?$_Tree_iterator@V?$_Tree_val@V?$_Tmap_traits@HPAVRaven_Weapon@@U?$less@H@std@@V?$allocator@U?$pair@$$CBHPAVRaven_Weapon@@@std@@@3@$0A@@std@@@std@@@1@V?$_Tree_const_iterator@V?$_Tree_val@V?$_Tmap_traits@HPAVRaven_Weapon@@U?$less@H@std@@V?$allocator@U?$pair@$$CBHPAVRaven_Weapon@@@std@@@3@$0A@@std@@@std@@@1@$$QAU?$pair@HPAVRaven_Weapon@@@1@@Z$2
	DD	00H
	DD	FLAT:__unwindfunclet$??$insert@U?$pair@HPAVRaven_Weapon@@@std@@@?$_Tree@V?$_Tmap_traits@HPAVRaven_Weapon@@U?$less@H@std@@V?$allocator@U?$pair@$$CBHPAVRaven_Weapon@@@std@@@3@$0A@@std@@@std@@QAE?AV?$_Tree_iterator@V?$_Tree_val@V?$_Tmap_traits@HPAVRaven_Weapon@@U?$less@H@std@@V?$allocator@U?$pair@$$CBHPAVRaven_Weapon@@@std@@@3@$0A@@std@@@std@@@1@V?$_Tree_const_iterator@V?$_Tree_val@V?$_Tmap_traits@HPAVRaven_Weapon@@U?$less@H@std@@V?$allocator@U?$pair@$$CBHPAVRaven_Weapon@@@std@@@3@$0A@@std@@@std@@@1@$$QAU?$pair@HPAVRaven_Weapon@@@1@@Z$0
__ehfuncinfo$??$insert@U?$pair@HPAVRaven_Weapon@@@std@@@?$_Tree@V?$_Tmap_traits@HPAVRaven_Weapon@@U?$less@H@std@@V?$allocator@U?$pair@$$CBHPAVRaven_Weapon@@@std@@@3@$0A@@std@@@std@@QAE?AV?$_Tree_iterator@V?$_Tree_val@V?$_Tmap_traits@HPAVRaven_Weapon@@U?$less@H@std@@V?$allocator@U?$pair@$$CBHPAVRaven_Weapon@@@std@@@3@$0A@@std@@@std@@@1@V?$_Tree_const_iterator@V?$_Tree_val@V?$_Tmap_traits@HPAVRaven_Weapon@@U?$less@H@std@@V?$allocator@U?$pair@$$CBHPAVRaven_Weapon@@@std@@@3@$0A@@std@@@std@@@1@$$QAU?$pair@HPAVRaven_Weapon@@@1@@Z DD 019930522H
	DD	02H
	DD	FLAT:__unwindtable$??$insert@U?$pair@HPAVRaven_Weapon@@@std@@@?$_Tree@V?$_Tmap_traits@HPAVRaven_Weapon@@U?$less@H@std@@V?$allocator@U?$pair@$$CBHPAVRaven_Weapon@@@std@@@3@$0A@@std@@@std@@QAE?AV?$_Tree_iterator@V?$_Tree_val@V?$_Tmap_traits@HPAVRaven_Weapon@@U?$less@H@std@@V?$allocator@U?$pair@$$CBHPAVRaven_Weapon@@@std@@@3@$0A@@std@@@std@@@1@V?$_Tree_const_iterator@V?$_Tree_val@V?$_Tmap_traits@HPAVRaven_Weapon@@U?$less@H@std@@V?$allocator@U?$pair@$$CBHPAVRaven_Weapon@@@std@@@3@$0A@@std@@@std@@@1@$$QAU?$pair@HPAVRaven_Weapon@@@1@@Z
	DD	2 DUP(00H)
	DD	2 DUP(00H)
	DD	00H
	DD	01H
; Function compile flags: /Odtp /RTCsu
xdata$x	ENDS
;	COMDAT ??$insert@U?$pair@HPAVRaven_Weapon@@@std@@@?$_Tree@V?$_Tmap_traits@HPAVRaven_Weapon@@U?$less@H@std@@V?$allocator@U?$pair@$$CBHPAVRaven_Weapon@@@std@@@3@$0A@@std@@@std@@QAE?AV?$_Tree_iterator@V?$_Tree_val@V?$_Tmap_traits@HPAVRaven_Weapon@@U?$less@H@std@@V?$allocator@U?$pair@$$CBHPAVRaven_Weapon@@@std@@@3@$0A@@std@@@std@@@1@V?$_Tree_const_iterator@V?$_Tree_val@V?$_Tmap_traits@HPAVRaven_Weapon@@U?$less@H@std@@V?$allocator@U?$pair@$$CBHPAVRaven_Weapon@@@std@@@3@$0A@@std@@@std@@@1@$$QAU?$pair@HPAVRaven_Weapon@@@1@@Z
_TEXT	SEGMENT
tv66 = -32						; size = 4
tv128 = -28						; size = 4
$T150444 = -24						; size = 4
$T150440 = -20						; size = 4
_this$ = -16						; size = 4
__$EHRec$ = -12						; size = 12
___$ReturnUdt$ = 8					; size = 4
__Where$ = 12						; size = 12
__Val$ = 24						; size = 4
??$insert@U?$pair@HPAVRaven_Weapon@@@std@@@?$_Tree@V?$_Tmap_traits@HPAVRaven_Weapon@@U?$less@H@std@@V?$allocator@U?$pair@$$CBHPAVRaven_Weapon@@@std@@@3@$0A@@std@@@std@@QAE?AV?$_Tree_iterator@V?$_Tree_val@V?$_Tmap_traits@HPAVRaven_Weapon@@U?$less@H@std@@V?$allocator@U?$pair@$$CBHPAVRaven_Weapon@@@std@@@3@$0A@@std@@@std@@@1@V?$_Tree_const_iterator@V?$_Tree_val@V?$_Tmap_traits@HPAVRaven_Weapon@@U?$less@H@std@@V?$allocator@U?$pair@$$CBHPAVRaven_Weapon@@@std@@@3@$0A@@std@@@std@@@1@$$QAU?$pair@HPAVRaven_Weapon@@@1@@Z PROC ; std::_Tree<std::_Tmap_traits<int,Raven_Weapon *,std::less<int>,std::allocator<std::pair<int const ,Raven_Weapon *> >,0> >::insert<std::pair<int,Raven_Weapon *> >, COMDAT
; _this$ = ecx

; 760  : 		typename _STD tr1::enable_if<!_STD tr1::is_same<const_iterator,

	push	ebp
	mov	ebp, esp
	push	-1
	push	__ehhandler$??$insert@U?$pair@HPAVRaven_Weapon@@@std@@@?$_Tree@V?$_Tmap_traits@HPAVRaven_Weapon@@U?$less@H@std@@V?$allocator@U?$pair@$$CBHPAVRaven_Weapon@@@std@@@3@$0A@@std@@@std@@QAE?AV?$_Tree_iterator@V?$_Tree_val@V?$_Tmap_traits@HPAVRaven_Weapon@@U?$less@H@std@@V?$allocator@U?$pair@$$CBHPAVRaven_Weapon@@@std@@@3@$0A@@std@@@std@@@1@V?$_Tree_const_iterator@V?$_Tree_val@V?$_Tmap_traits@HPAVRaven_Weapon@@U?$less@H@std@@V?$allocator@U?$pair@$$CBHPAVRaven_Weapon@@@std@@@3@$0A@@std@@@std@@@1@$$QAU?$pair@HPAVRaven_Weapon@@@1@@Z
	mov	eax, DWORD PTR fs:0
	push	eax
	sub	esp, 20					; 00000014H
	mov	eax, -858993460				; ccccccccH
	mov	DWORD PTR [ebp-32], eax
	mov	DWORD PTR [ebp-28], eax
