; Listing generated by Microsoft (R) Optimizing Compiler Version 16.00.40219.01 

	TITLE	C:\Users\Teaja\Documents\Artificial-Fun\LabRavenProjectTest\Common\fuzzy\FuzzyModule.cpp
	.686P
	.XMM
	include listing.inc
	.model	flat

INCLUDELIB LIBCMTD
INCLUDELIB OLDNAMES

PUBLIC	?has_denorm@_Num_base@std@@2W4float_denorm_style@2@B ; std::_Num_base::has_denorm
PUBLIC	?has_denorm_loss@_Num_base@std@@2_NB		; std::_Num_base::has_denorm_loss
PUBLIC	?has_infinity@_Num_base@std@@2_NB		; std::_Num_base::has_infinity
PUBLIC	?has_quiet_NaN@_Num_base@std@@2_NB		; std::_Num_base::has_quiet_NaN
PUBLIC	?has_signaling_NaN@_Num_base@std@@2_NB		; std::_Num_base::has_signaling_NaN
PUBLIC	?is_bounded@_Num_base@std@@2_NB			; std::_Num_base::is_bounded
PUBLIC	?is_exact@_Num_base@std@@2_NB			; std::_Num_base::is_exact
PUBLIC	?is_iec559@_Num_base@std@@2_NB			; std::_Num_base::is_iec559
PUBLIC	?is_integer@_Num_base@std@@2_NB			; std::_Num_base::is_integer
PUBLIC	?is_modulo@_Num_base@std@@2_NB			; std::_Num_base::is_modulo
PUBLIC	?is_signed@_Num_base@std@@2_NB			; std::_Num_base::is_signed
PUBLIC	?is_specialized@_Num_base@std@@2_NB		; std::_Num_base::is_specialized
PUBLIC	?tinyness_before@_Num_base@std@@2_NB		; std::_Num_base::tinyness_before
PUBLIC	?traps@_Num_base@std@@2_NB			; std::_Num_base::traps
PUBLIC	?round_style@_Num_base@std@@2W4float_round_style@2@B ; std::_Num_base::round_style
PUBLIC	?digits@_Num_base@std@@2HB			; std::_Num_base::digits
PUBLIC	?digits10@_Num_base@std@@2HB			; std::_Num_base::digits10
PUBLIC	?max_digits10@_Num_base@std@@2HB		; std::_Num_base::max_digits10
PUBLIC	?max_exponent@_Num_base@std@@2HB		; std::_Num_base::max_exponent
PUBLIC	?max_exponent10@_Num_base@std@@2HB		; std::_Num_base::max_exponent10
PUBLIC	?min_exponent@_Num_base@std@@2HB		; std::_Num_base::min_exponent
PUBLIC	?min_exponent10@_Num_base@std@@2HB		; std::_Num_base::min_exponent10
PUBLIC	?radix@_Num_base@std@@2HB			; std::_Num_base::radix
PUBLIC	?is_bounded@_Num_int_base@std@@2_NB		; std::_Num_int_base::is_bounded
PUBLIC	?is_exact@_Num_int_base@std@@2_NB		; std::_Num_int_base::is_exact
PUBLIC	?is_integer@_Num_int_base@std@@2_NB		; std::_Num_int_base::is_integer
PUBLIC	?is_modulo@_Num_int_base@std@@2_NB		; std::_Num_int_base::is_modulo
PUBLIC	?is_specialized@_Num_int_base@std@@2_NB		; std::_Num_int_base::is_specialized
PUBLIC	?radix@_Num_int_base@std@@2HB			; std::_Num_int_base::radix
PUBLIC	?has_denorm@_Num_float_base@std@@2W4float_denorm_style@2@B ; std::_Num_float_base::has_denorm
PUBLIC	?has_denorm_loss@_Num_float_base@std@@2_NB	; std::_Num_float_base::has_denorm_loss
PUBLIC	?has_infinity@_Num_float_base@std@@2_NB		; std::_Num_float_base::has_infinity
PUBLIC	?has_quiet_NaN@_Num_float_base@std@@2_NB	; std::_Num_float_base::has_quiet_NaN
PUBLIC	?has_signaling_NaN@_Num_float_base@std@@2_NB	; std::_Num_float_base::has_signaling_NaN
PUBLIC	?is_bounded@_Num_float_base@std@@2_NB		; std::_Num_float_base::is_bounded
PUBLIC	?is_exact@_Num_float_base@std@@2_NB		; std::_Num_float_base::is_exact
PUBLIC	?is_iec559@_Num_float_base@std@@2_NB		; std::_Num_float_base::is_iec559
PUBLIC	?is_integer@_Num_float_base@std@@2_NB		; std::_Num_float_base::is_integer
PUBLIC	?is_modulo@_Num_float_base@std@@2_NB		; std::_Num_float_base::is_modulo
PUBLIC	?is_signed@_Num_float_base@std@@2_NB		; std::_Num_float_base::is_signed
PUBLIC	?is_specialized@_Num_float_base@std@@2_NB	; std::_Num_float_base::is_specialized
PUBLIC	?tinyness_before@_Num_float_base@std@@2_NB	; std::_Num_float_base::tinyness_before
PUBLIC	?traps@_Num_float_base@std@@2_NB		; std::_Num_float_base::traps
PUBLIC	?round_style@_Num_float_base@std@@2W4float_round_style@2@B ; std::_Num_float_base::round_style
PUBLIC	?radix@_Num_float_base@std@@2HB			; std::_Num_float_base::radix
PUBLIC	?is_signed@?$numeric_limits@D@std@@2_NB		; std::numeric_limits<char>::is_signed
PUBLIC	?digits@?$numeric_limits@D@std@@2HB		; std::numeric_limits<char>::digits
PUBLIC	?digits10@?$numeric_limits@D@std@@2HB		; std::numeric_limits<char>::digits10
PUBLIC	?max_digits10@?$numeric_limits@D@std@@2HB	; std::numeric_limits<char>::max_digits10
PUBLIC	?is_signed@?$numeric_limits@_W@std@@2_NB	; std::numeric_limits<wchar_t>::is_signed
PUBLIC	?digits@?$numeric_limits@_W@std@@2HB		; std::numeric_limits<wchar_t>::digits
PUBLIC	?digits10@?$numeric_limits@_W@std@@2HB		; std::numeric_limits<wchar_t>::digits10
PUBLIC	?max_digits10@?$numeric_limits@_W@std@@2HB	; std::numeric_limits<wchar_t>::max_digits10
PUBLIC	?is_modulo@?$numeric_limits@_N@std@@2_NB	; std::numeric_limits<bool>::is_modulo
PUBLIC	?is_signed@?$numeric_limits@_N@std@@2_NB	; std::numeric_limits<bool>::is_signed
PUBLIC	?digits@?$numeric_limits@_N@std@@2HB		; std::numeric_limits<bool>::digits
PUBLIC	?digits10@?$numeric_limits@_N@std@@2HB		; std::numeric_limits<bool>::digits10
PUBLIC	?max_digits10@?$numeric_limits@_N@std@@2HB	; std::numeric_limits<bool>::max_digits10
PUBLIC	?is_signed@?$numeric_limits@C@std@@2_NB		; std::numeric_limits<signed char>::is_signed
PUBLIC	?digits@?$numeric_limits@C@std@@2HB		; std::numeric_limits<signed char>::digits
PUBLIC	?digits10@?$numeric_limits@C@std@@2HB		; std::numeric_limits<signed char>::digits10
PUBLIC	?max_digits10@?$numeric_limits@C@std@@2HB	; std::numeric_limits<signed char>::max_digits10
PUBLIC	?is_signed@?$numeric_limits@E@std@@2_NB		; std::numeric_limits<unsigned char>::is_signed
PUBLIC	?digits@?$numeric_limits@E@std@@2HB		; std::numeric_limits<unsigned char>::digits
PUBLIC	?digits10@?$numeric_limits@E@std@@2HB		; std::numeric_limits<unsigned char>::digits10
PUBLIC	?max_digits10@?$numeric_limits@E@std@@2HB	; std::numeric_limits<unsigned char>::max_digits10
PUBLIC	?is_signed@?$numeric_limits@F@std@@2_NB		; std::numeric_limits<short>::is_signed
PUBLIC	?digits@?$numeric_limits@F@std@@2HB		; std::numeric_limits<short>::digits
PUBLIC	?digits10@?$numeric_limits@F@std@@2HB		; std::numeric_limits<short>::digits10
PUBLIC	?max_digits10@?$numeric_limits@F@std@@2HB	; std::numeric_limits<short>::max_digits10
PUBLIC	?is_signed@?$numeric_limits@G@std@@2_NB		; std::numeric_limits<unsigned short>::is_signed
PUBLIC	?digits@?$numeric_limits@G@std@@2HB		; std::numeric_limits<unsigned short>::digits
PUBLIC	?digits10@?$numeric_limits@G@std@@2HB		; std::numeric_limits<unsigned short>::digits10
PUBLIC	?max_digits10@?$numeric_limits@G@std@@2HB	; std::numeric_limits<unsigned short>::max_digits10
PUBLIC	?is_signed@?$numeric_limits@H@std@@2_NB		; std::numeric_limits<int>::is_signed
PUBLIC	?digits@?$numeric_limits@H@std@@2HB		; std::numeric_limits<int>::digits
PUBLIC	?digits10@?$numeric_limits@H@std@@2HB		; std::numeric_limits<int>::digits10
PUBLIC	?max_digits10@?$numeric_limits@H@std@@2HB	; std::numeric_limits<int>::max_digits10
PUBLIC	?is_signed@?$numeric_limits@I@std@@2_NB		; std::numeric_limits<unsigned int>::is_signed
PUBLIC	?digits@?$numeric_limits@I@std@@2HB		; std::numeric_limits<unsigned int>::digits
PUBLIC	?digits10@?$numeric_limits@I@std@@2HB		; std::numeric_limits<unsigned int>::digits10
PUBLIC	?max_digits10@?$numeric_limits@I@std@@2HB	; std::numeric_limits<unsigned int>::max_digits10
PUBLIC	?is_signed@?$numeric_limits@J@std@@2_NB		; std::numeric_limits<long>::is_signed
PUBLIC	?digits@?$numeric_limits@J@std@@2HB		; std::numeric_limits<long>::digits
PUBLIC	?digits10@?$numeric_limits@J@std@@2HB		; std::numeric_limits<long>::digits10
PUBLIC	?max_digits10@?$numeric_limits@J@std@@2HB	; std::numeric_limits<long>::max_digits10
PUBLIC	?is_signed@?$numeric_limits@K@std@@2_NB		; std::numeric_limits<unsigned long>::is_signed
PUBLIC	?digits@?$numeric_limits@K@std@@2HB		; std::numeric_limits<unsigned long>::digits
PUBLIC	?digits10@?$numeric_limits@K@std@@2HB		; std::numeric_limits<unsigned long>::digits10
PUBLIC	?max_digits10@?$numeric_limits@K@std@@2HB	; std::numeric_limits<unsigned long>::max_digits10
PUBLIC	?is_signed@?$numeric_limits@_J@std@@2_NB	; std::numeric_limits<__int64>::is_signed
PUBLIC	?digits@?$numeric_limits@_J@std@@2HB		; std::numeric_limits<__int64>::digits
PUBLIC	?digits10@?$numeric_limits@_J@std@@2HB		; std::numeric_limits<__int64>::digits10
PUBLIC	?max_digits10@?$numeric_limits@_J@std@@2HB	; std::numeric_limits<__int64>::max_digits10
PUBLIC	?is_signed@?$numeric_limits@_K@std@@2_NB	; std::numeric_limits<unsigned __int64>::is_signed
PUBLIC	?digits@?$numeric_limits@_K@std@@2HB		; std::numeric_limits<unsigned __int64>::digits
PUBLIC	?digits10@?$numeric_limits@_K@std@@2HB		; std::numeric_limits<unsigned __int64>::digits10
PUBLIC	?max_digits10@?$numeric_limits@_K@std@@2HB	; std::numeric_limits<unsigned __int64>::max_digits10
PUBLIC	?digits@?$numeric_limits@M@std@@2HB		; std::numeric_limits<float>::digits
PUBLIC	?digits10@?$numeric_limits@M@std@@2HB		; std::numeric_limits<float>::digits10
PUBLIC	?max_digits10@?$numeric_limits@M@std@@2HB	; std::numeric_limits<float>::max_digits10
PUBLIC	?max_exponent@?$numeric_limits@M@std@@2HB	; std::numeric_limits<float>::max_exponent
PUBLIC	?max_exponent10@?$numeric_limits@M@std@@2HB	; std::numeric_limits<float>::max_exponent10
PUBLIC	?min_exponent@?$numeric_limits@M@std@@2HB	; std::numeric_limits<float>::min_exponent
PUBLIC	?min_exponent10@?$numeric_limits@M@std@@2HB	; std::numeric_limits<float>::min_exponent10
PUBLIC	?digits@?$numeric_limits@N@std@@2HB		; std::numeric_limits<double>::digits
PUBLIC	?digits10@?$numeric_limits@N@std@@2HB		; std::numeric_limits<double>::digits10
PUBLIC	?max_digits10@?$numeric_limits@N@std@@2HB	; std::numeric_limits<double>::max_digits10
PUBLIC	?max_exponent@?$numeric_limits@N@std@@2HB	; std::numeric_limits<double>::max_exponent
PUBLIC	?max_exponent10@?$numeric_limits@N@std@@2HB	; std::numeric_limits<double>::max_exponent10
PUBLIC	?min_exponent@?$numeric_limits@N@std@@2HB	; std::numeric_limits<double>::min_exponent
PUBLIC	?min_exponent10@?$numeric_limits@N@std@@2HB	; std::numeric_limits<double>::min_exponent10
PUBLIC	?digits@?$numeric_limits@O@std@@2HB		; std::numeric_limits<long double>::digits
PUBLIC	?digits10@?$numeric_limits@O@std@@2HB		; std::numeric_limits<long double>::digits10
PUBLIC	?max_digits10@?$numeric_limits@O@std@@2HB	; std::numeric_limits<long double>::max_digits10
PUBLIC	?max_exponent@?$numeric_limits@O@std@@2HB	; std::numeric_limits<long double>::max_exponent
PUBLIC	?max_exponent10@?$numeric_limits@O@std@@2HB	; std::numeric_limits<long double>::max_exponent10
PUBLIC	?min_exponent@?$numeric_limits@O@std@@2HB	; std::numeric_limits<long double>::min_exponent
PUBLIC	?min_exponent10@?$numeric_limits@O@std@@2HB	; std::numeric_limits<long double>::min_exponent10
PUBLIC	?value@?$integral_constant@_N$0A@@tr1@std@@2_NB	; std::tr1::integral_constant<bool,0>::value
PUBLIC	?value@?$integral_constant@_N$00@tr1@std@@2_NB	; std::tr1::integral_constant<bool,1>::value
PUBLIC	?value@?$integral_constant@I$0A@@tr1@std@@2IB	; std::tr1::integral_constant<unsigned int,0>::value
PUBLIC	?_Rank@?$_Arithmetic_traits@_N@std@@2HB		; std::_Arithmetic_traits<bool>::_Rank
PUBLIC	?_Rank@?$_Arithmetic_traits@D@std@@2HB		; std::_Arithmetic_traits<char>::_Rank
PUBLIC	?_Rank@?$_Arithmetic_traits@C@std@@2HB		; std::_Arithmetic_traits<signed char>::_Rank
PUBLIC	?_Rank@?$_Arithmetic_traits@E@std@@2HB		; std::_Arithmetic_traits<unsigned char>::_Rank
PUBLIC	?_Rank@?$_Arithmetic_traits@F@std@@2HB		; std::_Arithmetic_traits<short>::_Rank
PUBLIC	?_Rank@?$_Arithmetic_traits@G@std@@2HB		; std::_Arithmetic_traits<unsigned short>::_Rank
PUBLIC	?_Rank@?$_Arithmetic_traits@H@std@@2HB		; std::_Arithmetic_traits<int>::_Rank
PUBLIC	?_Rank@?$_Arithmetic_traits@I@std@@2HB		; std::_Arithmetic_traits<unsigned int>::_Rank
PUBLIC	?_Rank@?$_Arithmetic_traits@J@std@@2HB		; std::_Arithmetic_traits<long>::_Rank
PUBLIC	?_Rank@?$_Arithmetic_traits@K@std@@2HB		; std::_Arithmetic_traits<unsigned long>::_Rank
PUBLIC	?_Rank@?$_Arithmetic_traits@_J@std@@2HB		; std::_Arithmetic_traits<__int64>::_Rank
PUBLIC	?_Rank@?$_Arithmetic_traits@_K@std@@2HB		; std::_Arithmetic_traits<unsigned __int64>::_Rank
PUBLIC	?_Rank@?$_Arithmetic_traits@M@std@@2HB		; std::_Arithmetic_traits<float>::_Rank
PUBLIC	?_Rank@?$_Arithmetic_traits@N@std@@2HB		; std::_Arithmetic_traits<double>::_Rank
PUBLIC	?_Rank@?$_Arithmetic_traits@O@std@@2HB		; std::_Arithmetic_traits<long double>::_Rank
PUBLIC	?collate@?$_Locbase@H@std@@2HB			; std::_Locbase<int>::collate
PUBLIC	?ctype@?$_Locbase@H@std@@2HB			; std::_Locbase<int>::ctype
PUBLIC	?monetary@?$_Locbase@H@std@@2HB			; std::_Locbase<int>::monetary
PUBLIC	?numeric@?$_Locbase@H@std@@2HB			; std::_Locbase<int>::numeric
PUBLIC	?time@?$_Locbase@H@std@@2HB			; std::_Locbase<int>::time
PUBLIC	?messages@?$_Locbase@H@std@@2HB			; std::_Locbase<int>::messages
PUBLIC	?all@?$_Locbase@H@std@@2HB			; std::_Locbase<int>::all
PUBLIC	?none@?$_Locbase@H@std@@2HB			; std::_Locbase<int>::none
PUBLIC	?table_size@?$ctype@D@std@@2IB			; std::ctype<char>::table_size
PUBLIC	?skipws@?$_Iosb@H@std@@2W4_Fmtflags@12@B	; std::_Iosb<int>::skipws
PUBLIC	?unitbuf@?$_Iosb@H@std@@2W4_Fmtflags@12@B	; std::_Iosb<int>::unitbuf
PUBLIC	?uppercase@?$_Iosb@H@std@@2W4_Fmtflags@12@B	; std::_Iosb<int>::uppercase
PUBLIC	?showbase@?$_Iosb@H@std@@2W4_Fmtflags@12@B	; std::_Iosb<int>::showbase
PUBLIC	?showpoint@?$_Iosb@H@std@@2W4_Fmtflags@12@B	; std::_Iosb<int>::showpoint
PUBLIC	?showpos@?$_Iosb@H@std@@2W4_Fmtflags@12@B	; std::_Iosb<int>::showpos
PUBLIC	?left@?$_Iosb@H@std@@2W4_Fmtflags@12@B		; std::_Iosb<int>::left
PUBLIC	?right@?$_Iosb@H@std@@2W4_Fmtflags@12@B		; std::_Iosb<int>::right
PUBLIC	?internal@?$_Iosb@H@std@@2W4_Fmtflags@12@B	; std::_Iosb<int>::internal
PUBLIC	?dec@?$_Iosb@H@std@@2W4_Fmtflags@12@B		; std::_Iosb<int>::dec
PUBLIC	?oct@?$_Iosb@H@std@@2W4_Fmtflags@12@B		; std::_Iosb<int>::oct
PUBLIC	?hex@?$_Iosb@H@std@@2W4_Fmtflags@12@B		; std::_Iosb<int>::hex
PUBLIC	?scientific@?$_Iosb@H@std@@2W4_Fmtflags@12@B	; std::_Iosb<int>::scientific
PUBLIC	?fixed@?$_Iosb@H@std@@2W4_Fmtflags@12@B		; std::_Iosb<int>::fixed
PUBLIC	?hexfloat@?$_Iosb@H@std@@2W4_Fmtflags@12@B	; std::_Iosb<int>::hexfloat
PUBLIC	?boolalpha@?$_Iosb@H@std@@2W4_Fmtflags@12@B	; std::_Iosb<int>::boolalpha
PUBLIC	?_Stdio@?$_Iosb@H@std@@2W4_Fmtflags@12@B	; std::_Iosb<int>::_Stdio
PUBLIC	?adjustfield@?$_Iosb@H@std@@2W4_Fmtflags@12@B	; std::_Iosb<int>::adjustfield
PUBLIC	?basefield@?$_Iosb@H@std@@2W4_Fmtflags@12@B	; std::_Iosb<int>::basefield
PUBLIC	?floatfield@?$_Iosb@H@std@@2W4_Fmtflags@12@B	; std::_Iosb<int>::floatfield
PUBLIC	?goodbit@?$_Iosb@H@std@@2W4_Iostate@12@B	; std::_Iosb<int>::goodbit
PUBLIC	?eofbit@?$_Iosb@H@std@@2W4_Iostate@12@B		; std::_Iosb<int>::eofbit
PUBLIC	?failbit@?$_Iosb@H@std@@2W4_Iostate@12@B	; std::_Iosb<int>::failbit
PUBLIC	?badbit@?$_Iosb@H@std@@2W4_Iostate@12@B		; std::_Iosb<int>::badbit
PUBLIC	?_Hardfail@?$_Iosb@H@std@@2W4_Iostate@12@B	; std::_Iosb<int>::_Hardfail
PUBLIC	?in@?$_Iosb@H@std@@2W4_Openmode@12@B		; std::_Iosb<int>::in
PUBLIC	?out@?$_Iosb@H@std@@2W4_Openmode@12@B		; std::_Iosb<int>::out
PUBLIC	?ate@?$_Iosb@H@std@@2W4_Openmode@12@B		; std::_Iosb<int>::ate
PUBLIC	?app@?$_Iosb@H@std@@2W4_Openmode@12@B		; std::_Iosb<int>::app
PUBLIC	?trunc@?$_Iosb@H@std@@2W4_Openmode@12@B		; std::_Iosb<int>::trunc
PUBLIC	?_Nocreate@?$_Iosb@H@std@@2W4_Openmode@12@B	; std::_Iosb<int>::_Nocreate
PUBLIC	?_Noreplace@?$_Iosb@H@std@@2W4_Openmode@12@B	; std::_Iosb<int>::_Noreplace
PUBLIC	?binary@?$_Iosb@H@std@@2W4_Openmode@12@B	; std::_Iosb<int>::binary
PUBLIC	?beg@?$_Iosb@H@std@@2W4_Seekdir@12@B		; std::_Iosb<int>::beg
PUBLIC	?cur@?$_Iosb@H@std@@2W4_Seekdir@12@B		; std::_Iosb<int>::cur
PUBLIC	?end@?$_Iosb@H@std@@2W4_Seekdir@12@B		; std::_Iosb<int>::end
CONST	SEGMENT
_Pi	DQ	0400921f9f01b866er		; 3.14159
$SG46136 DB	0aH, 0aH, 00H
	ORG $+1
$SG46177 DB	0aH, '--------------------------- ', 00H
CONST	ENDS
;	COMDAT ?end@?$_Iosb@H@std@@2W4_Seekdir@12@B
CONST	SEGMENT
?end@?$_Iosb@H@std@@2W4_Seekdir@12@B DD 02H		; std::_Iosb<int>::end
CONST	ENDS
;	COMDAT ?cur@?$_Iosb@H@std@@2W4_Seekdir@12@B
CONST	SEGMENT
?cur@?$_Iosb@H@std@@2W4_Seekdir@12@B DD 01H		; std::_Iosb<int>::cur
CONST	ENDS
;	COMDAT ?beg@?$_Iosb@H@std@@2W4_Seekdir@12@B
CONST	SEGMENT
?beg@?$_Iosb@H@std@@2W4_Seekdir@12@B DD 00H		; std::_Iosb<int>::beg
CONST	ENDS
;	COMDAT ?binary@?$_Iosb@H@std@@2W4_Openmode@12@B
CONST	SEGMENT
?binary@?$_Iosb@H@std@@2W4_Openmode@12@B DD 020H	; std::_Iosb<int>::binary
CONST	ENDS
;	COMDAT ?_Noreplace@?$_Iosb@H@std@@2W4_Openmode@12@B
CONST	SEGMENT
?_Noreplace@?$_Iosb@H@std@@2W4_Openmode@12@B DD 080H	; std::_Iosb<int>::_Noreplace
CONST	ENDS
;	COMDAT ?_Nocreate@?$_Iosb@H@std@@2W4_Openmode@12@B
CONST	SEGMENT
?_Nocreate@?$_Iosb@H@std@@2W4_Openmode@12@B DD 040H	; std::_Iosb<int>::_Nocreate
CONST	ENDS
;	COMDAT ?trunc@?$_Iosb@H@std@@2W4_Openmode@12@B
CONST	SEGMENT
?trunc@?$_Iosb@H@std@@2W4_Openmode@12@B DD 010H		; std::_Iosb<int>::trunc
CONST	ENDS
;	COMDAT ?app@?$_Iosb@H@std@@2W4_Openmode@12@B
CONST	SEGMENT
?app@?$_Iosb@H@std@@2W4_Openmode@12@B DD 08H		; std::_Iosb<int>::app
CONST	ENDS
;	COMDAT ?ate@?$_Iosb@H@std@@2W4_Openmode@12@B
CONST	SEGMENT
?ate@?$_Iosb@H@std@@2W4_Openmode@12@B DD 04H		; std::_Iosb<int>::ate
CONST	ENDS
;	COMDAT ?out@?$_Iosb@H@std@@2W4_Openmode@12@B
CONST	SEGMENT
?out@?$_Iosb@H@std@@2W4_Openmode@12@B DD 02H		; std::_Iosb<int>::out
CONST	ENDS
;	COMDAT ?in@?$_Iosb@H@std@@2W4_Openmode@12@B
CONST	SEGMENT
?in@?$_Iosb@H@std@@2W4_Openmode@12@B DD 01H		; std::_Iosb<int>::in
CONST	ENDS
;	COMDAT ?_Hardfail@?$_Iosb@H@std@@2W4_Iostate@12@B
CONST	SEGMENT
?_Hardfail@?$_Iosb@H@std@@2W4_Iostate@12@B DD 010H	; std::_Iosb<int>::_Hardfail
CONST	ENDS
;	COMDAT ?badbit@?$_Iosb@H@std@@2W4_Iostate@12@B
CONST	SEGMENT
?badbit@?$_Iosb@H@std@@2W4_Iostate@12@B DD 04H		; std::_Iosb<int>::badbit
CONST	ENDS
;	COMDAT ?failbit@?$_Iosb@H@std@@2W4_Iostate@12@B
CONST	SEGMENT
?failbit@?$_Iosb@H@std@@2W4_Iostate@12@B DD 02H		; std::_Iosb<int>::failbit
CONST	ENDS
;	COMDAT ?eofbit@?$_Iosb@H@std@@2W4_Iostate@12@B
CONST	SEGMENT
?eofbit@?$_Iosb@H@std@@2W4_Iostate@12@B DD 01H		; std::_Iosb<int>::eofbit
CONST	ENDS
;	COMDAT ?goodbit@?$_Iosb@H@std@@2W4_Iostate@12@B
CONST	SEGMENT
?goodbit@?$_Iosb@H@std@@2W4_Iostate@12@B DD 00H		; std::_Iosb<int>::goodbit
CONST	ENDS
;	COMDAT ?floatfield@?$_Iosb@H@std@@2W4_Fmtflags@12@B
CONST	SEGMENT
?floatfield@?$_Iosb@H@std@@2W4_Fmtflags@12@B DD 03000H	; std::_Iosb<int>::floatfield
CONST	ENDS
;	COMDAT ?basefield@?$_Iosb@H@std@@2W4_Fmtflags@12@B
CONST	SEGMENT
?basefield@?$_Iosb@H@std@@2W4_Fmtflags@12@B DD 0e00H	; std::_Iosb<int>::basefield
CONST	ENDS
;	COMDAT ?adjustfield@?$_Iosb@H@std@@2W4_Fmtflags@12@B
CONST	SEGMENT
?adjustfield@?$_Iosb@H@std@@2W4_Fmtflags@12@B DD 01c0H	; std::_Iosb<int>::adjustfield
CONST	ENDS
;	COMDAT ?_Stdio@?$_Iosb@H@std@@2W4_Fmtflags@12@B
CONST	SEGMENT
?_Stdio@?$_Iosb@H@std@@2W4_Fmtflags@12@B DD 08000H	; std::_Iosb<int>::_Stdio
CONST	ENDS
;	COMDAT ?boolalpha@?$_Iosb@H@std@@2W4_Fmtflags@12@B
CONST	SEGMENT
?boolalpha@?$_Iosb@H@std@@2W4_Fmtflags@12@B DD 04000H	; std::_Iosb<int>::boolalpha
CONST	ENDS
;	COMDAT ?hexfloat@?$_Iosb@H@std@@2W4_Fmtflags@12@B
CONST	SEGMENT
?hexfloat@?$_Iosb@H@std@@2W4_Fmtflags@12@B DD 03000H	; std::_Iosb<int>::hexfloat
CONST	ENDS
;	COMDAT ?fixed@?$_Iosb@H@std@@2W4_Fmtflags@12@B
CONST	SEGMENT
?fixed@?$_Iosb@H@std@@2W4_Fmtflags@12@B DD 02000H	; std::_Iosb<int>::fixed
CONST	ENDS
;	COMDAT ?scientific@?$_Iosb@H@std@@2W4_Fmtflags@12@B
CONST	SEGMENT
?scientific@?$_Iosb@H@std@@2W4_Fmtflags@12@B DD 01000H	; std::_Iosb<int>::scientific
CONST	ENDS
;	COMDAT ?hex@?$_Iosb@H@std@@2W4_Fmtflags@12@B
CONST	SEGMENT
?hex@?$_Iosb@H@std@@2W4_Fmtflags@12@B DD 0800H		; std::_Iosb<int>::hex
CONST	ENDS
;	COMDAT ?oct@?$_Iosb@H@std@@2W4_Fmtflags@12@B
CONST	SEGMENT
?oct@?$_Iosb@H@std@@2W4_Fmtflags@12@B DD 0400H		; std::_Iosb<int>::oct
CONST	ENDS
;	COMDAT ?dec@?$_Iosb@H@std@@2W4_Fmtflags@12@B
CONST	SEGMENT
?dec@?$_Iosb@H@std@@2W4_Fmtflags@12@B DD 0200H		; std::_Iosb<int>::dec
CONST	ENDS
;	COMDAT ?internal@?$_Iosb@H@std@@2W4_Fmtflags@12@B
CONST	SEGMENT
?internal@?$_Iosb@H@std@@2W4_Fmtflags@12@B DD 0100H	; std::_Iosb<int>::internal
CONST	ENDS
;	COMDAT ?right@?$_Iosb@H@std@@2W4_Fmtflags@12@B
CONST	SEGMENT
?right@?$_Iosb@H@std@@2W4_Fmtflags@12@B DD 080H		; std::_Iosb<int>::right
CONST	ENDS
;	COMDAT ?left@?$_Iosb@H@std@@2W4_Fmtflags@12@B
CONST	SEGMENT
?left@?$_Iosb@H@std@@2W4_Fmtflags@12@B DD 040H		; std::_Iosb<int>::left
CONST	ENDS
;	COMDAT ?showpos@?$_Iosb@H@std@@2W4_Fmtflags@12@B
CONST	SEGMENT
?showpos@?$_Iosb@H@std@@2W4_Fmtflags@12@B DD 020H	; std::_Iosb<int>::showpos
CONST	ENDS
;	COMDAT ?showpoint@?$_Iosb@H@std@@2W4_Fmtflags@12@B
CONST	SEGMENT
?showpoint@?$_Iosb@H@std@@2W4_Fmtflags@12@B DD 010H	; std::_Iosb<int>::showpoint
CONST	ENDS
;	COMDAT ?showbase@?$_Iosb@H@std@@2W4_Fmtflags@12@B
CONST	SEGMENT
?showbase@?$_Iosb@H@std@@2W4_Fmtflags@12@B DD 08H	; std::_Iosb<int>::showbase
CONST	ENDS
;	COMDAT ?uppercase@?$_Iosb@H@std@@2W4_Fmtflags@12@B
CONST	SEGMENT
?uppercase@?$_Iosb@H@std@@2W4_Fmtflags@12@B DD 04H	; std::_Iosb<int>::uppercase
CONST	ENDS
;	COMDAT ?unitbuf@?$_Iosb@H@std@@2W4_Fmtflags@12@B
CONST	SEGMENT
?unitbuf@?$_Iosb@H@std@@2W4_Fmtflags@12@B DD 02H	; std::_Iosb<int>::unitbuf
CONST	ENDS
;	COMDAT ?skipws@?$_Iosb@H@std@@2W4_Fmtflags@12@B
CONST	SEGMENT
?skipws@?$_Iosb@H@std@@2W4_Fmtflags@12@B DD 01H		; std::_Iosb<int>::skipws
CONST	ENDS
;	COMDAT ?table_size@?$ctype@D@std@@2IB
CONST	SEGMENT
?table_size@?$ctype@D@std@@2IB DD 0100H			; std::ctype<char>::table_size
CONST	ENDS
;	COMDAT ?none@?$_Locbase@H@std@@2HB
CONST	SEGMENT
?none@?$_Locbase@H@std@@2HB DD 00H			; std::_Locbase<int>::none
CONST	ENDS
;	COMDAT ?all@?$_Locbase@H@std@@2HB
CONST	SEGMENT
?all@?$_Locbase@H@std@@2HB DD 03fH			; std::_Locbase<int>::all
CONST	ENDS
;	COMDAT ?messages@?$_Locbase@H@std@@2HB
CONST	SEGMENT
?messages@?$_Locbase@H@std@@2HB DD 020H			; std::_Locbase<int>::messages
CONST	ENDS
;	COMDAT ?time@?$_Locbase@H@std@@2HB
CONST	SEGMENT
?time@?$_Locbase@H@std@@2HB DD 010H			; std::_Locbase<int>::time
CONST	ENDS
;	COMDAT ?numeric@?$_Locbase@H@std@@2HB
CONST	SEGMENT
?numeric@?$_Locbase@H@std@@2HB DD 08H			; std::_Locbase<int>::numeric
CONST	ENDS
;	COMDAT ?monetary@?$_Locbase@H@std@@2HB
CONST	SEGMENT
?monetary@?$_Locbase@H@std@@2HB DD 04H			; std::_Locbase<int>::monetary
CONST	ENDS
;	COMDAT ?ctype@?$_Locbase@H@std@@2HB
CONST	SEGMENT
?ctype@?$_Locbase@H@std@@2HB DD 02H			; std::_Locbase<int>::ctype
CONST	ENDS
;	COMDAT ?collate@?$_Locbase@H@std@@2HB
CONST	SEGMENT
?collate@?$_Locbase@H@std@@2HB DD 01H			; std::_Locbase<int>::collate
CONST	ENDS
;	COMDAT ?_Rank@?$_Arithmetic_traits@O@std@@2HB
CONST	SEGMENT
?_Rank@?$_Arithmetic_traits@O@std@@2HB DD 09H		; std::_Arithmetic_traits<long double>::_Rank
CONST	ENDS
;	COMDAT ?_Rank@?$_Arithmetic_traits@N@std@@2HB
CONST	SEGMENT
?_Rank@?$_Arithmetic_traits@N@std@@2HB DD 08H		; std::_Arithmetic_traits<double>::_Rank
CONST	ENDS
;	COMDAT ?_Rank@?$_Arithmetic_traits@M@std@@2HB
CONST	SEGMENT
?_Rank@?$_Arithmetic_traits@M@std@@2HB DD 07H		; std::_Arithmetic_traits<float>::_Rank
CONST	ENDS
;	COMDAT ?_Rank@?$_Arithmetic_traits@_K@std@@2HB
CONST	SEGMENT
?_Rank@?$_Arithmetic_traits@_K@std@@2HB DD 06H		; std::_Arithmetic_traits<unsigned __int64>::_Rank
CONST	ENDS
;	COMDAT ?_Rank@?$_Arithmetic_traits@_J@std@@2HB
CONST	SEGMENT
?_Rank@?$_Arithmetic_traits@_J@std@@2HB DD 06H		; std::_Arithmetic_traits<__int64>::_Rank
CONST	ENDS
;	COMDAT ?_Rank@?$_Arithmetic_traits@K@std@@2HB
CONST	SEGMENT
?_Rank@?$_Arithmetic_traits@K@std@@2HB DD 05H		; std::_Arithmetic_traits<unsigned long>::_Rank
CONST	ENDS
;	COMDAT ?_Rank@?$_Arithmetic_traits@J@std@@2HB
CONST	SEGMENT
?_Rank@?$_Arithmetic_traits@J@std@@2HB DD 05H		; std::_Arithmetic_traits<long>::_Rank
CONST	ENDS
;	COMDAT ?_Rank@?$_Arithmetic_traits@I@std@@2HB
CONST	SEGMENT
?_Rank@?$_Arithmetic_traits@I@std@@2HB DD 04H		; std::_Arithmetic_traits<unsigned int>::_Rank
CONST	ENDS
;	COMDAT ?_Rank@?$_Arithmetic_traits@H@std@@2HB
CONST	SEGMENT
?_Rank@?$_Arithmetic_traits@H@std@@2HB DD 04H		; std::_Arithmetic_traits<int>::_Rank
CONST	ENDS
;	COMDAT ?_Rank@?$_Arithmetic_traits@G@std@@2HB
CONST	SEGMENT
?_Rank@?$_Arithmetic_traits@G@std@@2HB DD 03H		; std::_Arithmetic_traits<unsigned short>::_Rank
CONST	ENDS
;	COMDAT ?_Rank@?$_Arithmetic_traits@F@std@@2HB
CONST	SEGMENT
?_Rank@?$_Arithmetic_traits@F@std@@2HB DD 03H		; std::_Arithmetic_traits<short>::_Rank
CONST	ENDS
;	COMDAT ?_Rank@?$_Arithmetic_traits@E@std@@2HB
CONST	SEGMENT
?_Rank@?$_Arithmetic_traits@E@std@@2HB DD 02H		; std::_Arithmetic_traits<unsigned char>::_Rank
CONST	ENDS
;	COMDAT ?_Rank@?$_Arithmetic_traits@C@std@@2HB
CONST	SEGMENT
?_Rank@?$_Arithmetic_traits@C@std@@2HB DD 02H		; std::_Arithmetic_traits<signed char>::_Rank
CONST	ENDS
;	COMDAT ?_Rank@?$_Arithmetic_traits@D@std@@2HB
CONST	SEGMENT
?_Rank@?$_Arithmetic_traits@D@std@@2HB DD 02H		; std::_Arithmetic_traits<char>::_Rank
CONST	ENDS
;	COMDAT ?_Rank@?$_Arithmetic_traits@_N@std@@2HB
CONST	SEGMENT
?_Rank@?$_Arithmetic_traits@_N@std@@2HB DD 01H		; std::_Arithmetic_traits<bool>::_Rank
CONST	ENDS
;	COMDAT ?value@?$integral_constant@I$0A@@tr1@std@@2IB
CONST	SEGMENT
?value@?$integral_constant@I$0A@@tr1@std@@2IB DD 00H	; std::tr1::integral_constant<unsigned int,0>::value
CONST	ENDS
;	COMDAT ?value@?$integral_constant@_N$00@tr1@std@@2_NB
CONST	SEGMENT
?value@?$integral_constant@_N$00@tr1@std@@2_NB DB 01H	; std::tr1::integral_constant<bool,1>::value
CONST	ENDS
;	COMDAT ?value@?$integral_constant@_N$0A@@tr1@std@@2_NB
CONST	SEGMENT
?value@?$integral_constant@_N$0A@@tr1@std@@2_NB DB 00H	; std::tr1::integral_constant<bool,0>::value
CONST	ENDS
;	COMDAT ?min_exponent10@?$numeric_limits@O@std@@2HB
CONST	SEGMENT
?min_exponent10@?$numeric_limits@O@std@@2HB DD 0fffffecdH ; std::numeric_limits<long double>::min_exponent10
CONST	ENDS
;	COMDAT ?min_exponent@?$numeric_limits@O@std@@2HB
CONST	SEGMENT
?min_exponent@?$numeric_limits@O@std@@2HB DD 0fffffc03H	; std::numeric_limits<long double>::min_exponent
CONST	ENDS
;	COMDAT ?max_exponent10@?$numeric_limits@O@std@@2HB
CONST	SEGMENT
?max_exponent10@?$numeric_limits@O@std@@2HB DD 0134H	; std::numeric_limits<long double>::max_exponent10
CONST	ENDS
;	COMDAT ?max_exponent@?$numeric_limits@O@std@@2HB
CONST	SEGMENT
?max_exponent@?$numeric_limits@O@std@@2HB DD 0400H	; std::numeric_limits<long double>::max_exponent
CONST	ENDS
;	COMDAT ?max_digits10@?$numeric_limits@O@std@@2HB
CONST	SEGMENT
?max_digits10@?$numeric_limits@O@std@@2HB DD 011H	; std::numeric_limits<long double>::max_digits10
CONST	ENDS
;	COMDAT ?digits10@?$numeric_limits@O@std@@2HB
CONST	SEGMENT
?digits10@?$numeric_limits@O@std@@2HB DD 0fH		; std::numeric_limits<long double>::digits10
CONST	ENDS
;	COMDAT ?digits@?$numeric_limits@O@std@@2HB
CONST	SEGMENT
?digits@?$numeric_limits@O@std@@2HB DD 035H		; std::numeric_limits<long double>::digits
CONST	ENDS
;	COMDAT ?min_exponent10@?$numeric_limits@N@std@@2HB
CONST	SEGMENT
?min_exponent10@?$numeric_limits@N@std@@2HB DD 0fffffecdH ; std::numeric_limits<double>::min_exponent10
CONST	ENDS
;	COMDAT ?min_exponent@?$numeric_limits@N@std@@2HB
CONST	SEGMENT
?min_exponent@?$numeric_limits@N@std@@2HB DD 0fffffc03H	; std::numeric_limits<double>::min_exponent
CONST	ENDS
;	COMDAT ?max_exponent10@?$numeric_limits@N@std@@2HB
CONST	SEGMENT
?max_exponent10@?$numeric_limits@N@std@@2HB DD 0134H	; std::numeric_limits<double>::max_exponent10
CONST	ENDS
;	COMDAT ?max_exponent@?$numeric_limits@N@std@@2HB
CONST	SEGMENT
?max_exponent@?$numeric_limits@N@std@@2HB DD 0400H	; std::numeric_limits<double>::max_exponent
CONST	ENDS
;	COMDAT ?max_digits10@?$numeric_limits@N@std@@2HB
CONST	SEGMENT
?max_digits10@?$numeric_limits@N@std@@2HB DD 011H	; std::numeric_limits<double>::max_digits10
CONST	ENDS
;	COMDAT ?digits10@?$numeric_limits@N@std@@2HB
CONST	SEGMENT
?digits10@?$numeric_limits@N@std@@2HB DD 0fH		; std::numeric_limits<double>::digits10
CONST	ENDS
;	COMDAT ?digits@?$numeric_limits@N@std@@2HB
CONST	SEGMENT
?digits@?$numeric_limits@N@std@@2HB DD 035H		; std::numeric_limits<double>::digits
CONST	ENDS
;	COMDAT ?min_exponent10@?$numeric_limits@M@std@@2HB
CONST	SEGMENT
?min_exponent10@?$numeric_limits@M@std@@2HB DD 0ffffffdbH ; std::numeric_limits<float>::min_exponent10
CONST	ENDS
;	COMDAT ?min_exponent@?$numeric_limits@M@std@@2HB
CONST	SEGMENT
?min_exponent@?$numeric_limits@M@std@@2HB DD 0ffffff83H	; std::numeric_limits<float>::min_exponent
CONST	ENDS
;	COMDAT ?max_exponent10@?$numeric_limits@M@std@@2HB
CONST	SEGMENT
?max_exponent10@?$numeric_limits@M@std@@2HB DD 026H	; std::numeric_limits<float>::max_exponent10
CONST	ENDS
;	COMDAT ?max_exponent@?$numeric_limits@M@std@@2HB
CONST	SEGMENT
?max_exponent@?$numeric_limits@M@std@@2HB DD 080H	; std::numeric_limits<float>::max_exponent
CONST	ENDS
;	COMDAT ?max_digits10@?$numeric_limits@M@std@@2HB
CONST	SEGMENT
?max_digits10@?$numeric_limits@M@std@@2HB DD 08H	; std::numeric_limits<float>::max_digits10
CONST	ENDS
;	COMDAT ?digits10@?$numeric_limits@M@std@@2HB
CONST	SEGMENT
?digits10@?$numeric_limits@M@std@@2HB DD 06H		; std::numeric_limits<float>::digits10
CONST	ENDS
;	COMDAT ?digits@?$numeric_limits@M@std@@2HB
CONST	SEGMENT
?digits@?$numeric_limits@M@std@@2HB DD 018H		; std::numeric_limits<float>::digits
CONST	ENDS
;	COMDAT ?max_digits10@?$numeric_limits@_K@std@@2HB
CONST	SEGMENT
?max_digits10@?$numeric_limits@_K@std@@2HB DD 015H	; std::numeric_limits<unsigned __int64>::max_digits10
CONST	ENDS
;	COMDAT ?digits10@?$numeric_limits@_K@std@@2HB
CONST	SEGMENT
?digits10@?$numeric_limits@_K@std@@2HB DD 013H		; std::numeric_limits<unsigned __int64>::digits10
CONST	ENDS
;	COMDAT ?digits@?$numeric_limits@_K@std@@2HB
CONST	SEGMENT
?digits@?$numeric_limits@_K@std@@2HB DD 040H		; std::numeric_limits<unsigned __int64>::digits
CONST	ENDS
;	COMDAT ?is_signed@?$numeric_limits@_K@std@@2_NB
CONST	SEGMENT
?is_signed@?$numeric_limits@_K@std@@2_NB DB 00H		; std::numeric_limits<unsigned __int64>::is_signed
CONST	ENDS
;	COMDAT ?max_digits10@?$numeric_limits@_J@std@@2HB
CONST	SEGMENT
?max_digits10@?$numeric_limits@_J@std@@2HB DD 014H	; std::numeric_limits<__int64>::max_digits10
CONST	ENDS
;	COMDAT ?digits10@?$numeric_limits@_J@std@@2HB
CONST	SEGMENT
?digits10@?$numeric_limits@_J@std@@2HB DD 012H		; std::numeric_limits<__int64>::digits10
CONST	ENDS
;	COMDAT ?digits@?$numeric_limits@_J@std@@2HB
CONST	SEGMENT
?digits@?$numeric_limits@_J@std@@2HB DD 03fH		; std::numeric_limits<__int64>::digits
CONST	ENDS
;	COMDAT ?is_signed@?$numeric_limits@_J@std@@2_NB
CONST	SEGMENT
?is_signed@?$numeric_limits@_J@std@@2_NB DB 01H		; std::numeric_limits<__int64>::is_signed
CONST	ENDS
;	COMDAT ?max_digits10@?$numeric_limits@K@std@@2HB
CONST	SEGMENT
?max_digits10@?$numeric_limits@K@std@@2HB DD 0bH	; std::numeric_limits<unsigned long>::max_digits10
CONST	ENDS
;	COMDAT ?digits10@?$numeric_limits@K@std@@2HB
CONST	SEGMENT
?digits10@?$numeric_limits@K@std@@2HB DD 09H		; std::numeric_limits<unsigned long>::digits10
CONST	ENDS
;	COMDAT ?digits@?$numeric_limits@K@std@@2HB
CONST	SEGMENT
?digits@?$numeric_limits@K@std@@2HB DD 020H		; std::numeric_limits<unsigned long>::digits
CONST	ENDS
;	COMDAT ?is_signed@?$numeric_limits@K@std@@2_NB
CONST	SEGMENT
?is_signed@?$numeric_limits@K@std@@2_NB DB 00H		; std::numeric_limits<unsigned long>::is_signed
CONST	ENDS
;	COMDAT ?max_digits10@?$numeric_limits@J@std@@2HB
CONST	SEGMENT
?max_digits10@?$numeric_limits@J@std@@2HB DD 0bH	; std::numeric_limits<long>::max_digits10
CONST	ENDS
;	COMDAT ?digits10@?$numeric_limits@J@std@@2HB
CONST	SEGMENT
?digits10@?$numeric_limits@J@std@@2HB DD 09H		; std::numeric_limits<long>::digits10
CONST	ENDS
;	COMDAT ?digits@?$numeric_limits@J@std@@2HB
CONST	SEGMENT
?digits@?$numeric_limits@J@std@@2HB DD 01fH		; std::numeric_limits<long>::digits
CONST	ENDS
;	COMDAT ?is_signed@?$numeric_limits@J@std@@2_NB
CONST	SEGMENT
?is_signed@?$numeric_limits@J@std@@2_NB DB 01H		; std::numeric_limits<long>::is_signed
CONST	ENDS
;	COMDAT ?max_digits10@?$numeric_limits@I@std@@2HB
CONST	SEGMENT
?max_digits10@?$numeric_limits@I@std@@2HB DD 0bH	; std::numeric_limits<unsigned int>::max_digits10
CONST	ENDS
;	COMDAT ?digits10@?$numeric_limits@I@std@@2HB
CONST	SEGMENT
?digits10@?$numeric_limits@I@std@@2HB DD 09H		; std::numeric_limits<unsigned int>::digits10
CONST	ENDS
;	COMDAT ?digits@?$numeric_limits@I@std@@2HB
CONST	SEGMENT
?digits@?$numeric_limits@I@std@@2HB DD 020H		; std::numeric_limits<unsigned int>::digits
CONST	ENDS
;	COMDAT ?is_signed@?$numeric_limits@I@std@@2_NB
CONST	SEGMENT
?is_signed@?$numeric_limits@I@std@@2_NB DB 00H		; std::numeric_limits<unsigned int>::is_signed
CONST	ENDS
;	COMDAT ?max_digits10@?$numeric_limits@H@std@@2HB
CONST	SEGMENT
?max_digits10@?$numeric_limits@H@std@@2HB DD 0bH	; std::numeric_limits<int>::max_digits10
CONST	ENDS
;	COMDAT ?digits10@?$numeric_limits@H@std@@2HB
CONST	SEGMENT
?digits10@?$numeric_limits@H@std@@2HB DD 09H		; std::numeric_limits<int>::digits10
CONST	ENDS
;	COMDAT ?digits@?$numeric_limits@H@std@@2HB
CONST	SEGMENT
?digits@?$numeric_limits@H@std@@2HB DD 01fH		; std::numeric_limits<int>::digits
CONST	ENDS
;	COMDAT ?is_signed@?$numeric_limits@H@std@@2_NB
CONST	SEGMENT
?is_signed@?$numeric_limits@H@std@@2_NB DB 01H		; std::numeric_limits<int>::is_signed
CONST	ENDS
;	COMDAT ?max_digits10@?$numeric_limits@G@std@@2HB
CONST	SEGMENT
?max_digits10@?$numeric_limits@G@std@@2HB DD 06H	; std::numeric_limits<unsigned short>::max_digits10
CONST	ENDS
;	COMDAT ?digits10@?$numeric_limits@G@std@@2HB
CONST	SEGMENT
?digits10@?$numeric_limits@G@std@@2HB DD 04H		; std::numeric_limits<unsigned short>::digits10
CONST	ENDS
;	COMDAT ?digits@?$numeric_limits@G@std@@2HB
CONST	SEGMENT
?digits@?$numeric_limits@G@std@@2HB DD 010H		; std::numeric_limits<unsigned short>::digits
CONST	ENDS
;	COMDAT ?is_signed@?$numeric_limits@G@std@@2_NB
CONST	SEGMENT
?is_signed@?$numeric_limits@G@std@@2_NB DB 00H		; std::numeric_limits<unsigned short>::is_signed
CONST	ENDS
;	COMDAT ?max_digits10@?$numeric_limits@F@std@@2HB
CONST	SEGMENT
?max_digits10@?$numeric_limits@F@std@@2HB DD 06H	; std::numeric_limits<short>::max_digits10
CONST	ENDS
;	COMDAT ?digits10@?$numeric_limits@F@std@@2HB
CONST	SEGMENT
?digits10@?$numeric_limits@F@std@@2HB DD 04H		; std::numeric_limits<short>::digits10
CONST	ENDS
;	COMDAT ?digits@?$numeric_limits@F@std@@2HB
CONST	SEGMENT
?digits@?$numeric_limits@F@std@@2HB DD 0fH		; std::numeric_limits<short>::digits
CONST	ENDS
;	COMDAT ?is_signed@?$numeric_limits@F@std@@2_NB
CONST	SEGMENT
?is_signed@?$numeric_limits@F@std@@2_NB DB 01H		; std::numeric_limits<short>::is_signed
CONST	ENDS
;	COMDAT ?max_digits10@?$numeric_limits@E@std@@2HB
CONST	SEGMENT
?max_digits10@?$numeric_limits@E@std@@2HB DD 04H	; std::numeric_limits<unsigned char>::max_digits10
CONST	ENDS
;	COMDAT ?digits10@?$numeric_limits@E@std@@2HB
CONST	SEGMENT
?digits10@?$numeric_limits@E@std@@2HB DD 02H		; std::numeric_limits<unsigned char>::digits10
CONST	ENDS
;	COMDAT ?digits@?$numeric_limits@E@std@@2HB
CONST	SEGMENT
?digits@?$numeric_limits@E@std@@2HB DD 08H		; std::numeric_limits<unsigned char>::digits
CONST	ENDS
;	COMDAT ?is_signed@?$numeric_limits@E@std@@2_NB
CONST	SEGMENT
?is_signed@?$numeric_limits@E@std@@2_NB DB 00H		; std::numeric_limits<unsigned char>::is_signed
CONST	ENDS
;	COMDAT ?max_digits10@?$numeric_limits@C@std@@2HB
CONST	SEGMENT
?max_digits10@?$numeric_limits@C@std@@2HB DD 04H	; std::numeric_limits<signed char>::max_digits10
CONST	ENDS
;	COMDAT ?digits10@?$numeric_limits@C@std@@2HB
CONST	SEGMENT
?digits10@?$numeric_limits@C@std@@2HB DD 02H		; std::numeric_limits<signed char>::digits10
CONST	ENDS
;	COMDAT ?digits@?$numeric_limits@C@std@@2HB
CONST	SEGMENT
?digits@?$numeric_limits@C@std@@2HB DD 07H		; std::numeric_limits<signed char>::digits
CONST	ENDS
;	COMDAT ?is_signed@?$numeric_limits@C@std@@2_NB
CONST	SEGMENT
?is_signed@?$numeric_limits@C@std@@2_NB DB 01H		; std::numeric_limits<signed char>::is_signed
CONST	ENDS
;	COMDAT ?max_digits10@?$numeric_limits@_N@std@@2HB
CONST	SEGMENT
?max_digits10@?$numeric_limits@_N@std@@2HB DD 00H	; std::numeric_limits<bool>::max_digits10
CONST	ENDS
;	COMDAT ?digits10@?$numeric_limits@_N@std@@2HB
CONST	SEGMENT
?digits10@?$numeric_limits@_N@std@@2HB DD 00H		; std::numeric_limits<bool>::digits10
CONST	ENDS
;	COMDAT ?digits@?$numeric_limits@_N@std@@2HB
CONST	SEGMENT
?digits@?$numeric_limits@_N@std@@2HB DD 01H		; std::numeric_limits<bool>::digits
CONST	ENDS
;	COMDAT ?is_signed@?$numeric_limits@_N@std@@2_NB
CONST	SEGMENT
?is_signed@?$numeric_limits@_N@std@@2_NB DB 00H		; std::numeric_limits<bool>::is_signed
CONST	ENDS
;	COMDAT ?is_modulo@?$numeric_limits@_N@std@@2_NB
CONST	SEGMENT
?is_modulo@?$numeric_limits@_N@std@@2_NB DB 00H		; std::numeric_limits<bool>::is_modulo
CONST	ENDS
;	COMDAT ?max_digits10@?$numeric_limits@_W@std@@2HB
CONST	SEGMENT
?max_digits10@?$numeric_limits@_W@std@@2HB DD 06H	; std::numeric_limits<wchar_t>::max_digits10
CONST	ENDS
;	COMDAT ?digits10@?$numeric_limits@_W@std@@2HB
CONST	SEGMENT
?digits10@?$numeric_limits@_W@std@@2HB DD 04H		; std::numeric_limits<wchar_t>::digits10
CONST	ENDS
;	COMDAT ?digits@?$numeric_limits@_W@std@@2HB
CONST	SEGMENT
?digits@?$numeric_limits@_W@std@@2HB DD 010H		; std::numeric_limits<wchar_t>::digits
CONST	ENDS
;	COMDAT ?is_signed@?$numeric_limits@_W@std@@2_NB
CONST	SEGMENT
?is_signed@?$numeric_limits@_W@std@@2_NB DB 00H		; std::numeric_limits<wchar_t>::is_signed
CONST	ENDS
;	COMDAT ?max_digits10@?$numeric_limits@D@std@@2HB
CONST	SEGMENT
?max_digits10@?$numeric_limits@D@std@@2HB DD 04H	; std::numeric_limits<char>::max_digits10
CONST	ENDS
;	COMDAT ?digits10@?$numeric_limits@D@std@@2HB
CONST	SEGMENT
?digits10@?$numeric_limits@D@std@@2HB DD 02H		; std::numeric_limits<char>::digits10
CONST	ENDS
;	COMDAT ?digits@?$numeric_limits@D@std@@2HB
CONST	SEGMENT
?digits@?$numeric_limits@D@std@@2HB DD 07H		; std::numeric_limits<char>::digits
CONST	ENDS
;	COMDAT ?is_signed@?$numeric_limits@D@std@@2_NB
CONST	SEGMENT
?is_signed@?$numeric_limits@D@std@@2_NB DB 01H		; std::numeric_limits<char>::is_signed
CONST	ENDS
;	COMDAT ?radix@_Num_float_base@std@@2HB
CONST	SEGMENT
?radix@_Num_float_base@std@@2HB DD 02H			; std::_Num_float_base::radix
CONST	ENDS
;	COMDAT ?round_style@_Num_float_base@std@@2W4float_round_style@2@B
CONST	SEGMENT
?round_style@_Num_float_base@std@@2W4float_round_style@2@B DD 01H ; std::_Num_float_base::round_style
CONST	ENDS
;	COMDAT ?traps@_Num_float_base@std@@2_NB
CONST	SEGMENT
?traps@_Num_float_base@std@@2_NB DB 01H			; std::_Num_float_base::traps
CONST	ENDS
;	COMDAT ?tinyness_before@_Num_float_base@std@@2_NB
CONST	SEGMENT
?tinyness_before@_Num_float_base@std@@2_NB DB 01H	; std::_Num_float_base::tinyness_before
CONST	ENDS
;	COMDAT ?is_specialized@_Num_float_base@std@@2_NB
CONST	SEGMENT
?is_specialized@_Num_float_base@std@@2_NB DB 01H	; std::_Num_float_base::is_specialized
CONST	ENDS
;	COMDAT ?is_signed@_Num_float_base@std@@2_NB
CONST	SEGMENT
?is_signed@_Num_float_base@std@@2_NB DB 01H		; std::_Num_float_base::is_signed
CONST	ENDS
;	COMDAT ?is_modulo@_Num_float_base@std@@2_NB
CONST	SEGMENT
?is_modulo@_Num_float_base@std@@2_NB DB 00H		; std::_Num_float_base::is_modulo
CONST	ENDS
;	COMDAT ?is_integer@_Num_float_base@std@@2_NB
CONST	SEGMENT
?is_integer@_Num_float_base@std@@2_NB DB 00H		; std::_Num_float_base::is_integer
CONST	ENDS
;	COMDAT ?is_iec559@_Num_float_base@std@@2_NB
CONST	SEGMENT
?is_iec559@_Num_float_base@std@@2_NB DB 01H		; std::_Num_float_base::is_iec559
CONST	ENDS
;	COMDAT ?is_exact@_Num_float_base@std@@2_NB
CONST	SEGMENT
?is_exact@_Num_float_base@std@@2_NB DB 00H		; std::_Num_float_base::is_exact
CONST	ENDS
;	COMDAT ?is_bounded@_Num_float_base@std@@2_NB
CONST	SEGMENT
?is_bounded@_Num_float_base@std@@2_NB DB 01H		; std::_Num_float_base::is_bounded
CONST	ENDS
;	COMDAT ?has_signaling_NaN@_Num_float_base@std@@2_NB
CONST	SEGMENT
?has_signaling_NaN@_Num_float_base@std@@2_NB DB 01H	; std::_Num_float_base::has_signaling_NaN
CONST	ENDS
;	COMDAT ?has_quiet_NaN@_Num_float_base@std@@2_NB
CONST	SEGMENT
?has_quiet_NaN@_Num_float_base@std@@2_NB DB 01H		; std::_Num_float_base::has_quiet_NaN
CONST	ENDS
;	COMDAT ?has_infinity@_Num_float_base@std@@2_NB
CONST	SEGMENT
?has_infinity@_Num_float_base@std@@2_NB DB 01H		; std::_Num_float_base::has_infinity
CONST	ENDS
;	COMDAT ?has_denorm_loss@_Num_float_base@std@@2_NB
CONST	SEGMENT
?has_denorm_loss@_Num_float_base@std@@2_NB DB 01H	; std::_Num_float_base::has_denorm_loss
CONST	ENDS
;	COMDAT ?has_denorm@_Num_float_base@std@@2W4float_denorm_style@2@B
CONST	SEGMENT
?has_denorm@_Num_float_base@std@@2W4float_denorm_style@2@B DD 01H ; std::_Num_float_base::has_denorm
CONST	ENDS
;	COMDAT ?radix@_Num_int_base@std@@2HB
CONST	SEGMENT
?radix@_Num_int_base@std@@2HB DD 02H			; std::_Num_int_base::radix
CONST	ENDS
;	COMDAT ?is_specialized@_Num_int_base@std@@2_NB
CONST	SEGMENT
?is_specialized@_Num_int_base@std@@2_NB DB 01H		; std::_Num_int_base::is_specialized
CONST	ENDS
;	COMDAT ?is_modulo@_Num_int_base@std@@2_NB
CONST	SEGMENT
?is_modulo@_Num_int_base@std@@2_NB DB 01H		; std::_Num_int_base::is_modulo
CONST	ENDS
;	COMDAT ?is_integer@_Num_int_base@std@@2_NB
CONST	SEGMENT
?is_integer@_Num_int_base@std@@2_NB DB 01H		; std::_Num_int_base::is_integer
CONST	ENDS
;	COMDAT ?is_exact@_Num_int_base@std@@2_NB
CONST	SEGMENT
?is_exact@_Num_int_base@std@@2_NB DB 01H		; std::_Num_int_base::is_exact
CONST	ENDS
;	COMDAT ?is_bounded@_Num_int_base@std@@2_NB
CONST	SEGMENT
?is_bounded@_Num_int_base@std@@2_NB DB 01H		; std::_Num_int_base::is_bounded
CONST	ENDS
;	COMDAT ?radix@_Num_base@std@@2HB
CONST	SEGMENT
?radix@_Num_base@std@@2HB DD 00H			; std::_Num_base::radix
CONST	ENDS
;	COMDAT ?min_exponent10@_Num_base@std@@2HB
CONST	SEGMENT
?min_exponent10@_Num_base@std@@2HB DD 00H		; std::_Num_base::min_exponent10
CONST	ENDS
;	COMDAT ?min_exponent@_Num_base@std@@2HB
CONST	SEGMENT
?min_exponent@_Num_base@std@@2HB DD 00H			; std::_Num_base::min_exponent
CONST	ENDS
;	COMDAT ?max_exponent10@_Num_base@std@@2HB
CONST	SEGMENT
?max_exponent10@_Num_base@std@@2HB DD 00H		; std::_Num_base::max_exponent10
CONST	ENDS
;	COMDAT ?max_exponent@_Num_base@std@@2HB
CONST	SEGMENT
?max_exponent@_Num_base@std@@2HB DD 00H			; std::_Num_base::max_exponent
CONST	ENDS
;	COMDAT ?max_digits10@_Num_base@std@@2HB
CONST	SEGMENT
?max_digits10@_Num_base@std@@2HB DD 00H			; std::_Num_base::max_digits10
CONST	ENDS
;	COMDAT ?digits10@_Num_base@std@@2HB
CONST	SEGMENT
?digits10@_Num_base@std@@2HB DD 00H			; std::_Num_base::digits10
CONST	ENDS
;	COMDAT ?digits@_Num_base@std@@2HB
CONST	SEGMENT
?digits@_Num_base@std@@2HB DD 00H			; std::_Num_base::digits
CONST	ENDS
;	COMDAT ?round_style@_Num_base@std@@2W4float_round_style@2@B
CONST	SEGMENT
?round_style@_Num_base@std@@2W4float_round_style@2@B DD 00H ; std::_Num_base::round_style
CONST	ENDS
;	COMDAT ?traps@_Num_base@std@@2_NB
CONST	SEGMENT
?traps@_Num_base@std@@2_NB DB 00H			; std::_Num_base::traps
CONST	ENDS
;	COMDAT ?tinyness_before@_Num_base@std@@2_NB
CONST	SEGMENT
?tinyness_before@_Num_base@std@@2_NB DB 00H		; std::_Num_base::tinyness_before
CONST	ENDS
;	COMDAT ?is_specialized@_Num_base@std@@2_NB
CONST	SEGMENT
?is_specialized@_Num_base@std@@2_NB DB 00H		; std::_Num_base::is_specialized
CONST	ENDS
;	COMDAT ?is_signed@_Num_base@std@@2_NB
CONST	SEGMENT
?is_signed@_Num_base@std@@2_NB DB 00H			; std::_Num_base::is_signed
CONST	ENDS
;	COMDAT ?is_modulo@_Num_base@std@@2_NB
CONST	SEGMENT
?is_modulo@_Num_base@std@@2_NB DB 00H			; std::_Num_base::is_modulo
CONST	ENDS
;	COMDAT ?is_integer@_Num_base@std@@2_NB
CONST	SEGMENT
?is_integer@_Num_base@std@@2_NB DB 00H			; std::_Num_base::is_integer
CONST	ENDS
;	COMDAT ?is_iec559@_Num_base@std@@2_NB
CONST	SEGMENT
?is_iec559@_Num_base@std@@2_NB DB 00H			; std::_Num_base::is_iec559
CONST	ENDS
;	COMDAT ?is_exact@_Num_base@std@@2_NB
CONST	SEGMENT
?is_exact@_Num_base@std@@2_NB DB 00H			; std::_Num_base::is_exact
CONST	ENDS
;	COMDAT ?is_bounded@_Num_base@std@@2_NB
CONST	SEGMENT
?is_bounded@_Num_base@std@@2_NB DB 00H			; std::_Num_base::is_bounded
CONST	ENDS
;	COMDAT ?has_signaling_NaN@_Num_base@std@@2_NB
CONST	SEGMENT
?has_signaling_NaN@_Num_base@std@@2_NB DB 00H		; std::_Num_base::has_signaling_NaN
CONST	ENDS
;	COMDAT ?has_quiet_NaN@_Num_base@std@@2_NB
CONST	SEGMENT
?has_quiet_NaN@_Num_base@std@@2_NB DB 00H		; std::_Num_base::has_quiet_NaN
CONST	ENDS
;	COMDAT ?has_infinity@_Num_base@std@@2_NB
CONST	SEGMENT
?has_infinity@_Num_base@std@@2_NB DB 00H		; std::_Num_base::has_infinity
CONST	ENDS
;	COMDAT ?has_denorm_loss@_Num_base@std@@2_NB
CONST	SEGMENT
?has_denorm_loss@_Num_base@std@@2_NB DB 00H		; std::_Num_base::has_denorm_loss
CONST	ENDS
;	COMDAT ?has_denorm@_Num_base@std@@2W4float_denorm_style@2@B
CONST	SEGMENT
?has_denorm@_Num_base@std@@2W4float_denorm_style@2@B DD 00H ; std::_Num_base::has_denorm
CONST	ENDS
PUBLIC	??1?$map@V?$basic_string@DU?$char_traits@D@std@@V?$allocator@D@2@@std@@PAVFuzzyVariable@@U?$less@V?$basic_string@DU?$char_traits@D@std@@V?$allocator@D@2@@std@@@2@V?$allocator@U?$pair@$$CBV?$basic_string@DU?$char_traits@D@std@@V?$allocator@D@2@@std@@PAVFuzzyVariable@@@std@@@2@@std@@QAE@XZ ; std::map<std::basic_string<char,std::char_traits<char>,std::allocator<char> >,FuzzyVariable *,std::less<std::basic_string<char,std::char_traits<char>,std::allocator<char> > >,std::allocator<std::pair<std::basic_string<char,std::char_traits<char>,std::allocator<char> > const ,FuzzyVariable *> > >::~map<std::basic_string<char,std::char_traits<char>,std::allocator<char> >,FuzzyVariable *,std::less<std::basic_string<char,std::char_traits<char>,std::allocator<char> > >,std::allocator<std::pair<std::basic_string<char,std::char_traits<char>,std::allocator<char> > const ,FuzzyVariable *> > >
PUBLIC	??1?$vector@PAVFuzzyRule@@V?$allocator@PAVFuzzyRule@@@std@@@std@@QAE@XZ ; std::vector<FuzzyRule *,std::allocator<FuzzyRule *> >::~vector<FuzzyRule *,std::allocator<FuzzyRule *> >
PUBLIC	??_GFuzzyRule@@QAEPAXI@Z			; FuzzyRule::`scalar deleting destructor'
PUBLIC	??D?$_Vector_iterator@V?$_Vector_val@PAVFuzzyRule@@V?$allocator@PAVFuzzyRule@@@std@@@std@@@std@@QBEAAPAVFuzzyRule@@XZ ; std::_Vector_iterator<std::_Vector_val<FuzzyRule *,std::allocator<FuzzyRule *> > >::operator*
PUBLIC	??1?$_Vector_iterator@V?$_Vector_val@PAVFuzzyRule@@V?$allocator@PAVFuzzyRule@@@std@@@std@@@std@@QAE@XZ ; std::_Vector_iterator<std::_Vector_val<FuzzyRule *,std::allocator<FuzzyRule *> > >::~_Vector_iterator<std::_Vector_val<FuzzyRule *,std::allocator<FuzzyRule *> > >
PUBLIC	??9?$_Vector_const_iterator@V?$_Vector_val@PAVFuzzyRule@@V?$allocator@PAVFuzzyRule@@@std@@@std@@@std@@QBE_NABV01@@Z ; std::_Vector_const_iterator<std::_Vector_val<FuzzyRule *,std::allocator<FuzzyRule *> > >::operator!=
PUBLIC	?end@?$vector@PAVFuzzyRule@@V?$allocator@PAVFuzzyRule@@@std@@@std@@QAE?AV?$_Vector_iterator@V?$_Vector_val@PAVFuzzyRule@@V?$allocator@PAVFuzzyRule@@@std@@@std@@@2@XZ ; std::vector<FuzzyRule *,std::allocator<FuzzyRule *> >::end
PUBLIC	??E?$_Vector_iterator@V?$_Vector_val@PAVFuzzyRule@@V?$allocator@PAVFuzzyRule@@@std@@@std@@@std@@QAEAAV01@XZ ; std::_Vector_iterator<std::_Vector_val<FuzzyRule *,std::allocator<FuzzyRule *> > >::operator++
PUBLIC	?begin@?$vector@PAVFuzzyRule@@V?$allocator@PAVFuzzyRule@@@std@@@std@@QAE?AV?$_Vector_iterator@V?$_Vector_val@PAVFuzzyRule@@V?$allocator@PAVFuzzyRule@@@std@@@std@@@2@XZ ; std::vector<FuzzyRule *,std::allocator<FuzzyRule *> >::begin
PUBLIC	??_GFuzzyVariable@@AAEPAXI@Z			; FuzzyVariable::`scalar deleting destructor'
PUBLIC	??C?$_Tree_iterator@V?$_Tree_val@V?$_Tmap_traits@V?$basic_string@DU?$char_traits@D@std@@V?$allocator@D@2@@std@@PAVFuzzyVariable@@U?$less@V?$basic_string@DU?$char_traits@D@std@@V?$allocator@D@2@@std@@@2@V?$allocator@U?$pair@$$CBV?$basic_string@DU?$char_traits@D@std@@V?$allocator@D@2@@std@@PAVFuzzyVariable@@@std@@@2@$0A@@std@@@std@@@std@@QBEPAU?$pair@$$CBV?$basic_string@DU?$char_traits@D@std@@V?$allocator@D@2@@std@@PAVFuzzyVariable@@@1@XZ ; std::_Tree_iterator<std::_Tree_val<std::_Tmap_traits<std::basic_string<char,std::char_traits<char>,std::allocator<char> >,FuzzyVariable *,std::less<std::basic_string<char,std::char_traits<char>,std::allocator<char> > >,std::allocator<std::pair<std::basic_string<char,std::char_traits<char>,std::allocator<char> > const ,FuzzyVariable *> >,0> > >::operator->
PUBLIC	??1?$_Tree_iterator@V?$_Tree_val@V?$_Tmap_traits@V?$basic_string@DU?$char_traits@D@std@@V?$allocator@D@2@@std@@PAVFuzzyVariable@@U?$less@V?$basic_string@DU?$char_traits@D@std@@V?$allocator@D@2@@std@@@2@V?$allocator@U?$pair@$$CBV?$basic_string@DU?$char_traits@D@std@@V?$allocator@D@2@@std@@PAVFuzzyVariable@@@std@@@2@$0A@@std@@@std@@@std@@QAE@XZ ; std::_Tree_iterator<std::_Tree_val<std::_Tmap_traits<std::basic_string<char,std::char_traits<char>,std::allocator<char> >,FuzzyVariable *,std::less<std::basic_string<char,std::char_traits<char>,std::allocator<char> > >,std::allocator<std::pair<std::basic_string<char,std::char_traits<char>,std::allocator<char> > const ,FuzzyVariable *> >,0> > >::~_Tree_iterator<std::_Tree_val<std::_Tmap_traits<std::basic_string<char,std::char_traits<char>,std::allocator<char> >,FuzzyVariable *,std::less<std::basic_string<char,std::char_traits<char>,std::allocator<char> > >,std::allocator<std::pair<std::basic_string<char,std::char_traits<char>,std::allocator<char> > const ,FuzzyVariable *> >,0> > >
PUBLIC	??9?$_Tree_const_iterator@V?$_Tree_val@V?$_Tmap_traits@V?$basic_string@DU?$char_traits@D@std@@V?$allocator@D@2@@std@@PAVFuzzyVariable@@U?$less@V?$basic_string@DU?$char_traits@D@std@@V?$allocator@D@2@@std@@@2@V?$allocator@U?$pair@$$CBV?$basic_string@DU?$char_traits@D@std@@V?$allocator@D@2@@std@@PAVFuzzyVariable@@@std@@@2@$0A@@std@@@std@@@std@@QBE_NABV01@@Z ; std::_Tree_const_iterator<std::_Tree_val<std::_Tmap_traits<std::basic_string<char,std::char_traits<char>,std::allocator<char> >,FuzzyVariable *,std::less<std::basic_string<char,std::char_traits<char>,std::allocator<char> > >,std::allocator<std::pair<std::basic_string<char,std::char_traits<char>,std::allocator<char> > const ,FuzzyVariable *> >,0> > >::operator!=
PUBLIC	?end@?$_Tree@V?$_Tmap_traits@V?$basic_string@DU?$char_traits@D@std@@V?$allocator@D@2@@std@@PAVFuzzyVariable@@U?$less@V?$basic_string@DU?$char_traits@D@std@@V?$allocator@D@2@@std@@@2@V?$allocator@U?$pair@$$CBV?$basic_string@DU?$char_traits@D@std@@V?$allocator@D@2@@std@@PAVFuzzyVariable@@@std@@@2@$0A@@std@@@std@@QAE?AV?$_Tree_iterator@V?$_Tree_val@V?$_Tmap_traits@V?$basic_string@DU?$char_traits@D@std@@V?$allocator@D@2@@std@@PAVFuzzyVariable@@U?$less@V?$basic_string@DU?$char_traits@D@std@@V?$allocator@D@2@@std@@@2@V?$allocator@U?$pair@$$CBV?$basic_string@DU?$char_traits@D@std@@V?$allocator@D@2@@std@@PAVFuzzyVariable@@@std@@@2@$0A@@std@@@std@@@2@XZ ; std::_Tree<std::_Tmap_traits<std::basic_string<char,std::char_traits<char>,std::allocator<char> >,FuzzyVariable *,std::less<std::basic_string<char,std::char_traits<char>,std::allocator<char> > >,std::allocator<std::pair<std::basic_string<char,std::char_traits<char>,std::allocator<char> > const ,FuzzyVariable *> >,0> >::end
PUBLIC	??E?$_Tree_iterator@V?$_Tree_val@V?$_Tmap_traits@V?$basic_string@DU?$char_traits@D@std@@V?$allocator@D@2@@std@@PAVFuzzyVariable@@U?$less@V?$basic_string@DU?$char_traits@D@std@@V?$allocator@D@2@@std@@@2@V?$allocator@U?$pair@$$CBV?$basic_string@DU?$char_traits@D@std@@V?$allocator@D@2@@std@@PAVFuzzyVariable@@@std@@@2@$0A@@std@@@std@@@std@@QAEAAV01@XZ ; std::_Tree_iterator<std::_Tree_val<std::_Tmap_traits<std::basic_string<char,std::char_traits<char>,std::allocator<char> >,FuzzyVariable *,std::less<std::basic_string<char,std::char_traits<char>,std::allocator<char> > >,std::allocator<std::pair<std::basic_string<char,std::char_traits<char>,std::allocator<char> > const ,FuzzyVariable *> >,0> > >::operator++
PUBLIC	?begin@?$_Tree@V?$_Tmap_traits@V?$basic_string@DU?$char_traits@D@std@@V?$allocator@D@2@@std@@PAVFuzzyVariable@@U?$less@V?$basic_string@DU?$char_traits@D@std@@V?$allocator@D@2@@std@@@2@V?$allocator@U?$pair@$$CBV?$basic_string@DU?$char_traits@D@std@@V?$allocator@D@2@@std@@PAVFuzzyVariable@@@std@@@2@$0A@@std@@@std@@QAE?AV?$_Tree_iterator@V?$_Tree_val@V?$_Tmap_traits@V?$basic_string@DU?$char_traits@D@std@@V?$allocator@D@2@@std@@PAVFuzzyVariable@@U?$less@V?$basic_string@DU?$char_traits@D@std@@V?$allocator@D@2@@std@@@2@V?$allocator@U?$pair@$$CBV?$basic_string@DU?$char_traits@D@std@@V?$allocator@D@2@@std@@PAVFuzzyVariable@@@std@@@2@$0A@@std@@@std@@@2@XZ ; std::_Tree<std::_Tmap_traits<std::basic_string<char,std::char_traits<char>,std::allocator<char> >,FuzzyVariable *,std::less<std::basic_string<char,std::char_traits<char>,std::allocator<char> > >,std::allocator<std::pair<std::basic_string<char,std::char_traits<char>,std::allocator<char> > const ,FuzzyVariable *> >,0> >::begin
PUBLIC	??1FuzzyModule@@QAE@XZ				; FuzzyModule::~FuzzyModule
EXTRN	___security_cookie:DWORD
EXTRN	___CxxFrameHandler3:PROC
EXTRN	@__security_check_cookie@4:PROC
EXTRN	__RTC_CheckEsp:PROC
EXTRN	@_RTC_CheckStackVars@8:PROC
EXTRN	__RTC_Shutdown:PROC
EXTRN	__RTC_InitBase:PROC
xdata$x	SEGMENT
__ehfuncinfo$??1FuzzyModule@@QAE@XZ DD 019930522H
	DD	06H
	DD	FLAT:__unwindtable$??1FuzzyModule@@QAE@XZ
	DD	2 DUP(00H)
	DD	2 DUP(00H)
	DD	00H
	DD	01H
__unwindtable$??1FuzzyModule@@QAE@XZ DD 0ffffffffH
	DD	FLAT:__unwindfunclet$??1FuzzyModule@@QAE@XZ$0
	DD	00H
	DD	FLAT:__unwindfunclet$??1FuzzyModule@@QAE@XZ$1
	DD	01H
	DD	FLAT:__unwindfunclet$??1FuzzyModule@@QAE@XZ$2
	DD	02H
	DD	FLAT:__unwindfunclet$??1FuzzyModule@@QAE@XZ$3
	DD	02H
	DD	FLAT:__unwindfunclet$??1FuzzyModule@@QAE@XZ$4
	DD	04H
	DD	FLAT:__unwindfunclet$??1FuzzyModule@@QAE@XZ$5
xdata$x	ENDS
;	COMDAT rtc$TMZ
; File c:\users\teaja\documents\artificial-fun\labravenprojecttest\common\fuzzy\fuzzymodule.cpp
rtc$TMZ	SEGMENT
__RTC_Shutdown.rtc$TMZ DD FLAT:__RTC_Shutdown
rtc$TMZ	ENDS
;	COMDAT rtc$IMZ
rtc$IMZ	SEGMENT
__RTC_InitBase.rtc$IMZ DD FLAT:__RTC_InitBase
; Function compile flags: /Odtp /RTCsu
rtc$IMZ	ENDS
_TEXT	SEGMENT
tv173 = -128						; size = 4
tv182 = -124						; size = 4
tv144 = -120						; size = 4
tv141 = -116						; size = 4
tv179 = -112						; size = 4
tv72 = -108						; size = 4
$T52762 = -104						; size = 4
$T52761 = -100						; size = 4
$T52760 = -96						; size = 12
$T52759 = -81						; size = 1
$T52756 = -80						; size = 4
$T52755 = -76						; size = 4
$T52754 = -72						; size = 12
$T52753 = -57						; size = 1
_curRule$ = -52						; size = 12
_curVar$ = -32						; size = 12
_this$ = -16						; size = 4
__$EHRec$ = -12						; size = 12
??1FuzzyModule@@QAE@XZ PROC				; FuzzyModule::~FuzzyModule
; _this$ = ecx

; 10   : {

	push	ebp
	mov	ebp, esp
	push	-1
	push	__ehhandler$??1FuzzyModule@@QAE@XZ
	mov	eax, DWORD PTR fs:0
	push	eax
	sub	esp, 116				; 00000074H
	push	edi
	push	ecx
	lea	edi, DWORD PTR [ebp-128]
	mov	ecx, 29					; 0000001dH
	mov	eax, -858993460				; ccccccccH
	rep stosd
	pop	ecx
	mov	eax, DWORD PTR ___security_cookie
	xor	eax, ebp
	push	eax
	lea	eax, DWORD PTR __$EHRec$[ebp]
	mov	DWORD PTR fs:0, eax
	mov	DWORD PTR _this$[ebp], ecx
	mov	DWORD PTR __$EHRec$[ebp+8], 1

; 11   :   VarMap::iterator curVar = m_Variables.begin();

	lea	eax, DWORD PTR _curVar$[ebp]
	push	eax
	mov	ecx, DWORD PTR _this$[ebp]
	call	?begin@?$_Tree@V?$_Tmap_traits@V?$basic_string@DU?$char_traits@D@std@@V?$allocator@D@2@@std@@PAVFuzzyVariable@@U?$less@V?$basic_string@DU?$char_traits@D@std@@V?$allocator@D@2@@std@@@2@V?$allocator@U?$pair@$$CBV?$basic_string@DU?$char_traits@D@std@@V?$allocator@D@2@@std@@PAVFuzzyVariable@@@std@@@2@$0A@@std@@@std@@QAE?AV?$_Tree_iterator@V?$_Tree_val@V?$_Tmap_traits@V?$basic_string@DU?$char_traits@D@std@@V?$allocator@D@2@@std@@PAVFuzzyVariable@@U?$less@V?$basic_string@DU?$char_traits@D@std@@V?$allocator@D@2@@std@@@2@V?$allocator@U?$pair@$$CBV?$basic_string@DU?$char_traits@D@std@@V?$allocator@D@2@@std@@PAVFuzzyVariable@@@std@@@2@$0A@@std@@@std@@@2@XZ ; std::_Tree<std::_Tmap_traits<std::basic_string<char,std::char_traits<char>,std::allocator<char> >,FuzzyVariable *,std::less<std::basic_string<char,std::char_traits<char>,std::allocator<char> > >,std::allocator<std::pair<std::basic_string<char,std::char_traits<char>,std::allocator<char> > const ,FuzzyVariable *> >,0> >::begin
	mov	BYTE PTR __$EHRec$[ebp+8], 2
	jmp	SHORT $LN6@FuzzyModul
$LN5@FuzzyModul:

; 12   :   for (curVar; curVar != m_Variables.end(); ++curVar)

	lea	ecx, DWORD PTR _curVar$[ebp]
	call	??E?$_Tree_iterator@V?$_Tree_val@V?$_Tmap_traits@V?$basic_string@DU?$char_traits@D@std@@V?$allocator@D@2@@std@@PAVFuzzyVariable@@U?$less@V?$basic_string@DU?$char_traits@D@std@@V?$allocator@D@2@@std@@@2@V?$allocator@U?$pair@$$CBV?$basic_string@DU?$char_traits@D@std@@V?$allocator@D@2@@std@@PAVFuzzyVariable@@@std@@@2@$0A@@std@@@std@@@std@@QAEAAV01@XZ ; std::_Tree_iterator<std::_Tree_val<std::_Tmap_traits<std::basic_string<char,std::char_traits<char>,std::allocator<char> >,FuzzyVariable *,std::less<std::basic_string<char,std::char_traits<char>,std::allocator<char> > >,std::allocator<std::pair<std::basic_string<char,std::char_traits<char>,std::allocator<char> > const ,FuzzyVariable *> >,0> > >::operator++
$LN6@FuzzyModul:
	lea	ecx, DWORD PTR $T52754[ebp]
	push	ecx
	mov	ecx, DWORD PTR _this$[ebp]
	call	?end@?$_Tree@V?$_Tmap_traits@V?$basic_string@DU?$char_traits@D@std@@V?$allocator@D@2@@std@@PAVFuzzyVariable@@U?$less@V?$basic_string@DU?$char_traits@D@std@@V?$allocator@D@2@@std@@@2@V?$allocator@U?$pair@$$CBV?$basic_string@DU?$char_traits@D@std@@V?$allocator@D@2@@std@@PAVFuzzyVariable@@@std@@@2@$0A@@std@@@std@@QAE?AV?$_Tree_iterator@V?$_Tree_val@V?$_Tmap_traits@V?$basic_string@DU?$char_traits@D@std@@V?$allocator@D@2@@std@@PAVFuzzyVariable@@U?$less@V?$basic_string@DU?$char_traits@D@std@@V?$allocator@D@2@@std@@@2@V?$allocator@U?$pair@$$CBV?$basic_string@DU?$char_traits@D@std@@V?$allocator@D@2@@std@@PAVFuzzyVariable@@@std@@@2@$0A@@std@@@std@@@2@XZ ; std::_Tree<std::_Tmap_traits<std::basic_string<char,std::char_traits<char>,std::allocator<char> >,FuzzyVariable *,std::less<std::basic_string<char,std::char_traits<char>,std::allocator<char> > >,std::allocator<std::pair<std::basic_string<char,std::char_traits<char>,std::allocator<char> > const ,FuzzyVariable *> >,0> >::end
	mov	DWORD PTR tv72[ebp], eax
	mov	edx, DWORD PTR tv72[ebp]
	mov	DWORD PTR tv179[ebp], edx
	mov	BYTE PTR __$EHRec$[ebp+8], 3
	mov	eax, DWORD PTR tv179[ebp]
	push	eax
	lea	ecx, DWORD PTR _curVar$[ebp]
	call	??9?$_Tree_const_iterator@V?$_Tree_val@V?$_Tmap_traits@V?$basic_string@DU?$char_traits@D@std@@V?$allocator@D@2@@std@@PAVFuzzyVariable@@U?$less@V?$basic_string@DU?$char_traits@D@std@@V?$allocator@D@2@@std@@@2@V?$allocator@U?$pair@$$CBV?$basic_string@DU?$char_traits@D@std@@V?$allocator@D@2@@std@@PAVFuzzyVariable@@@std@@@2@$0A@@std@@@std@@@std@@QBE_NABV01@@Z ; std::_Tree_const_iterator<std::_Tree_val<std::_Tmap_traits<std::basic_string<char,std::char_traits<char>,std::allocator<char> >,FuzzyVariable *,std::less<std::basic_string<char,std::char_traits<char>,std::allocator<char> > >,std::allocator<std::pair<std::basic_string<char,std::char_traits<char>,std::allocator<char> > const ,FuzzyVariable *> >,0> > >::operator!=
	mov	BYTE PTR $T52753[ebp], al
	mov	BYTE PTR __$EHRec$[ebp+8], 2
	lea	ecx, DWORD PTR $T52754[ebp]
	call	??1?$_Tree_iterator@V?$_Tree_val@V?$_Tmap_traits@V?$basic_string@DU?$char_traits@D@std@@V?$allocator@D@2@@std@@PAVFuzzyVariable@@U?$less@V?$basic_string@DU?$char_traits@D@std@@V?$allocator@D@2@@std@@@2@V?$allocator@U?$pair@$$CBV?$basic_string@DU?$char_traits@D@std@@V?$allocator@D@2@@std@@PAVFuzzyVariable@@@std@@@2@$0A@@std@@@std@@@std@@QAE@XZ
	movzx	ecx, BYTE PTR $T52753[ebp]
	test	ecx, ecx
	je	SHORT $LN4@FuzzyModul

; 13   :   {
; 14   :     delete curVar->second;

	lea	ecx, DWORD PTR _curVar$[ebp]
	call	??C?$_Tree_iterator@V?$_Tree_val@V?$_Tmap_traits@V?$basic_string@DU?$char_traits@D@std@@V?$allocator@D@2@@std@@PAVFuzzyVariable@@U?$less@V?$basic_string@DU?$char_traits@D@std@@V?$allocator@D@2@@std@@@2@V?$allocator@U?$pair@$$CBV?$basic_string@DU?$char_traits@D@std@@V?$allocator@D@2@@std@@PAVFuzzyVariable@@@std@@@2@$0A@@std@@@std@@@std@@QBEPAU?$pair@$$CBV?$basic_string@DU?$char_traits@D@std@@V?$allocator@D@2@@std@@PAVFuzzyVariable@@@1@XZ ; std::_Tree_iterator<std::_Tree_val<std::_Tmap_traits<std::basic_string<char,std::char_traits<char>,std::allocator<char> >,FuzzyVariable *,std::less<std::basic_string<char,std::char_traits<char>,std::allocator<char> > >,std::allocator<std::pair<std::basic_string<char,std::char_traits<char>,std::allocator<char> > const ,FuzzyVariable *> >,0> > >::operator->
	mov	edx, DWORD PTR [eax+32]
	mov	DWORD PTR $T52756[ebp], edx
	mov	eax, DWORD PTR $T52756[ebp]
	mov	DWORD PTR $T52755[ebp], eax
	cmp	DWORD PTR $T52755[ebp], 0
	je	SHORT $LN9@FuzzyModul
	push	1
	mov	ecx, DWORD PTR $T52755[ebp]
	call	??_GFuzzyVariable@@AAEPAXI@Z
	mov	DWORD PTR tv141[ebp], eax
	jmp	SHORT $LN10@FuzzyModul
$LN9@FuzzyModul:
	mov	DWORD PTR tv141[ebp], 0
$LN10@FuzzyModul:

; 15   :   }

	jmp	SHORT $LN5@FuzzyModul
$LN4@FuzzyModul:

; 16   : 
; 17   :   std::vector<FuzzyRule*>::iterator curRule = m_Rules.begin();

	lea	ecx, DWORD PTR _curRule$[ebp]
	push	ecx
	mov	ecx, DWORD PTR _this$[ebp]
	add	ecx, 20					; 00000014H
	call	?begin@?$vector@PAVFuzzyRule@@V?$allocator@PAVFuzzyRule@@@std@@@std@@QAE?AV?$_Vector_iterator@V?$_Vector_val@PAVFuzzyRule@@V?$allocator@PAVFuzzyRule@@@std@@@std@@@2@XZ ; std::vector<FuzzyRule *,std::allocator<FuzzyRule *> >::begin
	mov	BYTE PTR __$EHRec$[ebp+8], 4
	jmp	SHORT $LN3@FuzzyModul
$LN2@FuzzyModul:

; 18   :   for (curRule; curRule != m_Rules.end(); ++curRule)

	lea	ecx, DWORD PTR _curRule$[ebp]
	call	??E?$_Vector_iterator@V?$_Vector_val@PAVFuzzyRule@@V?$allocator@PAVFuzzyRule@@@std@@@std@@@std@@QAEAAV01@XZ ; std::_Vector_iterator<std::_Vector_val<FuzzyRule *,std::allocator<FuzzyRule *> > >::operator++
$LN3@FuzzyModul:
	lea	edx, DWORD PTR $T52760[ebp]
	push	edx
	mov	ecx, DWORD PTR _this$[ebp]
	add	ecx, 20					; 00000014H
	call	?end@?$vector@PAVFuzzyRule@@V?$allocator@PAVFuzzyRule@@@std@@@std@@QAE?AV?$_Vector_iterator@V?$_Vector_val@PAVFuzzyRule@@V?$allocator@PAVFuzzyRule@@@std@@@std@@@2@XZ ; std::vector<FuzzyRule *,std::allocator<FuzzyRule *> >::end
	mov	DWORD PTR tv144[ebp], eax
	mov	eax, DWORD PTR tv144[ebp]
	mov	DWORD PTR tv182[ebp], eax
	mov	BYTE PTR __$EHRec$[ebp+8], 5
	mov	ecx, DWORD PTR tv182[ebp]
	push	ecx
	lea	ecx, DWORD PTR _curRule$[ebp]
	call	??9?$_Vector_const_iterator@V?$_Vector_val@PAVFuzzyRule@@V?$allocator@PAVFuzzyRule@@@std@@@std@@@std@@QBE_NABV01@@Z ; std::_Vector_const_iterator<std::_Vector_val<FuzzyRule *,std::allocator<FuzzyRule *> > >::operator!=
	mov	BYTE PTR $T52759[ebp], al
	mov	BYTE PTR __$EHRec$[ebp+8], 4
	lea	ecx, DWORD PTR $T52760[ebp]
	call	??1?$_Vector_iterator@V?$_Vector_val@PAVFuzzyRule@@V?$allocator@PAVFuzzyRule@@@std@@@std@@@std@@QAE@XZ
	movzx	edx, BYTE PTR $T52759[ebp]
	test	edx, edx
	je	SHORT $LN1@FuzzyModul

; 19   :   {
; 20   :     delete *curRule;

	lea	ecx, DWORD PTR _curRule$[ebp]
	call	??D?$_Vector_iterator@V?$_Vector_val@PAVFuzzyRule@@V?$allocator@PAVFuzzyRule@@@std@@@std@@@std@@QBEAAPAVFuzzyRule@@XZ ; std::_Vector_iterator<std::_Vector_val<FuzzyRule *,std::allocator<FuzzyRule *> > >::operator*
	mov	eax, DWORD PTR [eax]
	mov	DWORD PTR $T52762[ebp], eax
	mov	ecx, DWORD PTR $T52762[ebp]
	mov	DWORD PTR $T52761[ebp], ecx
	cmp	DWORD PTR $T52761[ebp], 0
	je	SHORT $LN11@FuzzyModul
	push	1
	mov	ecx, DWORD PTR $T52761[ebp]
	call	??_GFuzzyRule@@QAEPAXI@Z
	mov	DWORD PTR tv173[ebp], eax
	jmp	SHORT $LN12@FuzzyModul
$LN11@FuzzyModul:
	mov	DWORD PTR tv173[ebp], 0
$LN12@FuzzyModul:

; 21   :   }

	jmp	SHORT $LN2@FuzzyModul
$LN1@FuzzyModul:

; 22   : }

	mov	BYTE PTR __$EHRec$[ebp+8], 2
	lea	ecx, DWORD PTR _curRule$[ebp]
	call	??1?$_Vector_iterator@V?$_Vector_val@PAVFuzzyRule@@V?$allocator@PAVFuzzyRule@@@std@@@std@@@std@@QAE@XZ
	mov	BYTE PTR __$EHRec$[ebp+8], 1
	lea	ecx, DWORD PTR _curVar$[ebp]
	call	??1?$_Tree_iterator@V?$_Tree_val@V?$_Tmap_traits@V?$basic_string@DU?$char_traits@D@std@@V?$allocator@D@2@@std@@PAVFuzzyVariable@@U?$less@V?$basic_string@DU?$char_traits@D@std@@V?$allocator@D@2@@std@@@2@V?$allocator@U?$pair@$$CBV?$basic_string@DU?$char_traits@D@std@@V?$allocator@D@2@@std@@PAVFuzzyVariable@@@std@@@2@$0A@@std@@@std@@@std@@QAE@XZ
	mov	BYTE PTR __$EHRec$[ebp+8], 0
	mov	ecx, DWORD PTR _this$[ebp]
	add	ecx, 20					; 00000014H
	call	??1?$vector@PAVFuzzyRule@@V?$allocator@PAVFuzzyRule@@@std@@@std@@QAE@XZ ; std::vector<FuzzyRule *,std::allocator<FuzzyRule *> >::~vector<FuzzyRule *,std::allocator<FuzzyRule *> >
	mov	DWORD PTR __$EHRec$[ebp+8], -1
	mov	ecx, DWORD PTR _this$[ebp]
	call	??1?$map@V?$basic_string@DU?$char_traits@D@std@@V?$allocator@D@2@@std@@PAVFuzzyVariable@@U?$less@V?$basic_string@DU?$char_traits@D@std@@V?$allocator@D@2@@std@@@2@V?$allocator@U?$pair@$$CBV?$basic_string@DU?$char_traits@D@std@@V?$allocator@D@2@@std@@PAVFuzzyVariable@@@std@@@2@@std@@QAE@XZ
	push	edx
	mov	ecx, ebp
	push	eax
	lea	edx, DWORD PTR $LN23@FuzzyModul
	call	@_RTC_CheckStackVars@8
	pop	eax
	pop	edx
	mov	ecx, DWORD PTR __$EHRec$[ebp]
	mov	DWORD PTR fs:0, ecx
	pop	ecx
	pop	edi
	add	esp, 128				; 00000080H
	cmp	ebp, esp
	call	__RTC_CheckEsp
	mov	esp, ebp
	pop	ebp
	ret	0
	npad	2
$LN23@FuzzyModul:
	DD	2
	DD	$LN22@FuzzyModul
$LN22@FuzzyModul:
	DD	-32					; ffffffe0H
	DD	12					; 0000000cH
	DD	$LN19@FuzzyModul
	DD	-52					; ffffffccH
	DD	12					; 0000000cH
	DD	$LN20@FuzzyModul
$LN20@FuzzyModul:
	DB	99					; 00000063H
	DB	117					; 00000075H
	DB	114					; 00000072H
	DB	82					; 00000052H
	DB	117					; 00000075H
	DB	108					; 0000006cH
	DB	101					; 00000065H
	DB	0
$LN19@FuzzyModul:
	DB	99					; 00000063H
	DB	117					; 00000075H
	DB	114					; 00000072H
	DB	86					; 00000056H
	DB	97					; 00000061H
	DB	114					; 00000072H
	DB	0
_TEXT	ENDS
text$x	SEGMENT
__unwindfunclet$??1FuzzyModule@@QAE@XZ$0:
	mov	ecx, DWORD PTR _this$[ebp]
	jmp	??1?$map@V?$basic_string@DU?$char_traits@D@std@@V?$allocator@D@2@@std@@PAVFuzzyVariable@@U?$less@V?$basic_string@DU?$char_traits@D@std@@V?$allocator@D@2@@std@@@2@V?$allocator@U?$pair@$$CBV?$basic_string@DU?$char_traits@D@std@@V?$allocator@D@2@@std@@PAVFuzzyVariable@@@std@@@2@@std@@QAE@XZ
__unwindfunclet$??1FuzzyModule@@QAE@XZ$1:
	mov	ecx, DWORD PTR _this$[ebp]
	add	ecx, 20					; 00000014H
	jmp	??1?$vector@PAVFuzzyRule@@V?$allocator@PAVFuzzyRule@@@std@@@std@@QAE@XZ ; std::vector<FuzzyRule *,std::allocator<FuzzyRule *> >::~vector<FuzzyRule *,std::allocator<FuzzyRule *> >
__unwindfunclet$??1FuzzyModule@@QAE@XZ$2:
	lea	ecx, DWORD PTR _curVar$[ebp]
	jmp	??1?$_Tree_iterator@V?$_Tree_val@V?$_Tmap_traits@V?$basic_string@DU?$char_traits@D@std@@V?$allocator@D@2@@std@@PAVFuzzyVariable@@U?$less@V?$basic_string@DU?$char_traits@D@std@@V?$allocator@D@2@@std@@@2@V?$allocator@U?$pair@$$CBV?$basic_string@DU?$char_traits@D@std@@V?$allocator@D@2@@std@@PAVFuzzyVariable@@@std@@@2@$0A@@std@@@std@@@std@@QAE@XZ
__unwindfunclet$??1FuzzyModule@@QAE@XZ$3:
	lea	ecx, DWORD PTR $T52754[ebp]
	jmp	??1?$_Tree_iterator@V?$_Tree_val@V?$_Tmap_traits@V?$basic_string@DU?$char_traits@D@std@@V?$allocator@D@2@@std@@PAVFuzzyVariable@@U?$less@V?$basic_string@DU?$char_traits@D@std@@V?$allocator@D@2@@std@@@2@V?$allocator@U?$pair@$$CBV?$basic_string@DU?$char_traits@D@std@@V?$allocator@D@2@@std@@PAVFuzzyVariable@@@std@@@2@$0A@@std@@@std@@@std@@QAE@XZ
__unwindfunclet$??1FuzzyModule@@QAE@XZ$4:
	lea	ecx, DWORD PTR _curRule$[ebp]
	jmp	??1?$_Vector_iterator@V?$_Vector_val@PAVFuzzyRule@@V?$allocator@PAVFuzzyRule@@@std@@@std@@@std@@QAE@XZ
__unwindfunclet$??1FuzzyModule@@QAE@XZ$5:
	lea	ecx, DWORD PTR $T52760[ebp]
	jmp	??1?$_Vector_iterator@V?$_Vector_val@PAVFuzzyRule@@V?$allocator@PAVFuzzyRule@@@std@@@std@@@std@@QAE@XZ
__ehhandler$??1FuzzyModule@@QAE@XZ:
	mov	edx, DWORD PTR [esp+8]
	lea	eax, DWORD PTR [edx+12]
	mov	ecx, DWORD PTR [edx-124]
	xor	ecx, eax
	call	@__security_check_cookie@4
	mov	eax, OFFSET __ehfuncinfo$??1FuzzyModule@@QAE@XZ
	jmp	___CxxFrameHandler3
text$x	ENDS
??1FuzzyModule@@QAE@XZ ENDP				; FuzzyModule::~FuzzyModule
PUBLIC	??1?$_Tree_const_iterator@V?$_Tree_val@V?$_Tmap_traits@V?$basic_string@DU?$char_traits@D@std@@V?$allocator@D@2@@std@@PAVFuzzyVariable@@U?$less@V?$basic_string@DU?$char_traits@D@std@@V?$allocator@D@2@@std@@@2@V?$allocator@U?$pair@$$CBV?$basic_string@DU?$char_traits@D@std@@V?$allocator@D@2@@std@@PAVFuzzyVariable@@@std@@@2@$0A@@std@@@std@@@std@@QAE@XZ ; std::_Tree_const_iterator<std::_Tree_val<std::_Tmap_traits<std::basic_string<char,std::char_traits<char>,std::allocator<char> >,FuzzyVariable *,std::less<std::basic_string<char,std::char_traits<char>,std::allocator<char> > >,std::allocator<std::pair<std::basic_string<char,std::char_traits<char>,std::allocator<char> > const ,FuzzyVariable *> >,0> > >::~_Tree_const_iterator<std::_Tree_val<std::_Tmap_traits<std::basic_string<char,std::char_traits<char>,std::allocator<char> >,FuzzyVariable *,std::less<std::basic_string<char,std::char_traits<char>,std::allocator<char> > >,std::allocator<std::pair<std::basic_string<char,std::char_traits<char>,std::allocator<char> > const ,FuzzyVariable *> >,0> > >
; Function compile flags: /Odtp /RTCsu
;	COMDAT ??1?$_Tree_iterator@V?$_Tree_val@V?$_Tmap_traits@V?$basic_string@DU?$char_traits@D@std@@V?$allocator@D@2@@std@@PAVFuzzyVariable@@U?$less@V?$basic_string@DU?$char_traits@D@std@@V?$allocator@D@2@@std@@@2@V?$allocator@U?$pair@$$CBV?$basic_string@DU?$char_traits@D@std@@V?$allocator@D@2@@std@@PAVFuzzyVariable@@@std@@@2@$0A@@std@@@std@@@std@@QAE@XZ
_TEXT	SEGMENT
_this$ = -4						; size = 4
??1?$_Tree_iterator@V?$_Tree_val@V?$_Tmap_traits@V?$basic_string@DU?$char_traits@D@std@@V?$allocator@D@2@@std@@PAVFuzzyVariable@@U?$less@V?$basic_string@DU?$char_traits@D@std@@V?$allocator@D@2@@std@@@2@V?$allocator@U?$pair@$$CBV?$basic_string@DU?$char_traits@D@std@@V?$allocator@D@2@@std@@PAVFuzzyVariable@@@std@@@2@$0A@@std@@@std@@@std@@QAE@XZ PROC ; std::_Tree_iterator<std::_Tree_val<std::_Tmap_traits<std::basic_string<char,std::char_traits<char>,std::allocator<char> >,FuzzyVariable *,std::less<std::basic_string<char,std::char_traits<char>,std::allocator<char> > >,std::allocator<std::pair<std::basic_string<char,std::char_traits<char>,std::allocator<char> > const ,FuzzyVariable *> >,0> > >::~_Tree_iterator<std::_Tree_val<std::_Tmap_traits<std::basic_string<char,std::char_traits<char>,std::allocator<char> >,FuzzyVariable *,std::less<std::basic_string<char,std::char_traits<char>,std::allocator<char> > >,std::allocator<std::pair<std::basic_string<char,std::char_traits<char>,std::allocator<char> > const ,FuzzyVariable *> >,0> > >, COMDAT
; _this$ = ecx
	push	ebp
	mov	ebp, esp
	push	ecx
	mov	DWORD PTR [ebp-4], -858993460		; ccccccccH
	mov	DWORD PTR _this$[ebp], ecx
	mov	ecx, DWORD PTR _this$[ebp]
	call	??1?$_Tree_const_iterator@V?$_Tree_val@V?$_Tmap_traits@V?$basic_string@DU?$char_traits@D@std@@V?$allocator@D@2@@std@@PAVFuzzyVariable@@U?$less@V?$basic_string@DU?$char_traits@D@std@@V?$allocator@D@2@@std@@@2@V?$allocator@U?$pair@$$CBV?$basic_string@DU?$char_traits@D@std@@V?$allocator@D@2@@std@@PAVFuzzyVariable@@@std@@@2@$0A@@std@@@std@@@std@@QAE@XZ
	add	esp, 4
	cmp	ebp, esp
	call	__RTC_CheckEsp
	mov	esp, ebp
	pop	ebp
	ret	0
??1?$_Tree_iterator@V?$_Tree_val@V?$_Tmap_traits@V?$basic_string@DU?$char_traits@D@std@@V?$allocator@D@2@@std@@PAVFuzzyVariable@@U?$less@V?$basic_string@DU?$char_traits@D@std@@V?$allocator@D@2@@std@@@2@V?$allocator@U?$pair@$$CBV?$basic_string@DU?$char_traits@D@std@@V?$allocator@D@2@@std@@PAVFuzzyVariable@@@std@@@2@$0A@@std@@@std@@@std@@QAE@XZ ENDP ; std::_Tree_iterator<std::_Tree_val<std::_Tmap_traits<std::basic_string<char,std::char_traits<char>,std::allocator<char> >,FuzzyVariable *,std::less<std::basic_string<char,std::char_traits<char>,std::allocator<char> > >,std::allocator<std::pair<std::basic_string<char,std::char_traits<char>,std::allocator<char> > const ,FuzzyVariable *> >,0> > >::~_Tree_iterator<std::_Tree_val<std::_Tmap_traits<std::basic_string<char,std::char_traits<char>,std::allocator<char> >,FuzzyVariable *,std::less<std::basic_string<char,std::char_traits<char>,std::allocator<char> > >,std::allocator<std::pair<std::basic_string<char,std::char_traits<char>,std::allocator<char> > const ,FuzzyVariable *> >,0> > >
_TEXT	ENDS
PUBLIC	??1?$_Tree_unchecked_const_iterator@V?$_Tree_val@V?$_Tmap_traits@V?$basic_string@DU?$char_traits@D@std@@V?$allocator@D@2@@std@@PAVFuzzyVariable@@U?$less@V?$basic_string@DU?$char_traits@D@std@@V?$allocator@D@2@@std@@@2@V?$allocator@U?$pair@$$CBV?$basic_string@DU?$char_traits@D@std@@V?$allocator@D@2@@std@@PAVFuzzyVariable@@@std@@@2@$0A@@std@@@std@@U_Iterator_base12@2@@std@@QAE@XZ ; std::_Tree_unchecked_const_iterator<std::_Tree_val<std::_Tmap_traits<std::basic_string<char,std::char_traits<char>,std::allocator<char> >,FuzzyVariable *,std::less<std::basic_string<char,std::char_traits<char>,std::allocator<char> > >,std::allocator<std::pair<std::basic_string<char,std::char_traits<char>,std::allocator<char> > const ,FuzzyVariable *> >,0> >,std::_Iterator_base12>::~_Tree_unchecked_const_iterator<std::_Tree_val<std::_Tmap_traits<std::basic_string<char,std::char_traits<char>,std::allocator<char> >,FuzzyVariable *,std::less<std::basic_string<char,std::char_traits<char>,std::allocator<char> > >,std::allocator<std::pair<std::basic_string<char,std::char_traits<char>,std::allocator<char> > const ,FuzzyVariable *> >,0> >,std::_Iterator_base12>
; Function compile flags: /Odtp /RTCsu
;	COMDAT ??1?$_Tree_const_iterator@V?$_Tree_val@V?$_Tmap_traits@V?$basic_string@DU?$char_traits@D@std@@V?$allocator@D@2@@std@@PAVFuzzyVariable@@U?$less@V?$basic_string@DU?$char_traits@D@std@@V?$allocator@D@2@@std@@@2@V?$allocator@U?$pair@$$CBV?$basic_string@DU?$char_traits@D@std@@V?$allocator@D@2@@std@@PAVFuzzyVariable@@@std@@@2@$0A@@std@@@std@@@std@@QAE@XZ
_TEXT	SEGMENT
_this$ = -4						; size = 4
??1?$_Tree_const_iterator@V?$_Tree_val@V?$_Tmap_traits@V?$basic_string@DU?$char_traits@D@std@@V?$allocator@D@2@@std@@PAVFuzzyVariable@@U?$less@V?$basic_string@DU?$char_traits@D@std@@V?$allocator@D@2@@std@@@2@V?$allocator@U?$pair@$$CBV?$basic_string@DU?$char_traits@D@std@@V?$allocator@D@2@@std@@PAVFuzzyVariable@@@std@@@2@$0A@@std@@@std@@@std@@QAE@XZ PROC ; std::_Tree_const_iterator<std::_Tree_val<std::_Tmap_traits<std::basic_string<char,std::char_traits<char>,std::allocator<char> >,FuzzyVariable *,std::less<std::basic_string<char,std::char_traits<char>,std::allocator<char> > >,std::allocator<std::pair<std::basic_string<char,std::char_traits<char>,std::allocator<char> > const ,FuzzyVariable *> >,0> > >::~_Tree_const_iterator<std::_Tree_val<std::_Tmap_traits<std::basic_string<char,std::char_traits<char>,std::allocator<char> >,FuzzyVariable *,std::less<std::basic_string<char,std::char_traits<char>,std::allocator<char> > >,std::allocator<std::pair<std::basic_string<char,std::char_traits<char>,std::allocator<char> > const ,FuzzyVariable *> >,0> > >, COMDAT
; _this$ = ecx
	push	ebp
	mov	ebp, esp
	push	ecx
	mov	DWORD PTR [ebp-4], -858993460		; ccccccccH
	mov	DWORD PTR _this$[ebp], ecx
	mov	ecx, DWORD PTR _this$[ebp]
	call	??1?$_Tree_unchecked_const_iterator@V?$_Tree_val@V?$_Tmap_traits@V?$basic_string@DU?$char_traits@D@std@@V?$allocator@D@2@@std@@PAVFuzzyVariable@@U?$less@V?$basic_string@DU?$char_traits@D@std@@V?$allocator@D@2@@std@@@2@V?$allocator@U?$pair@$$CBV?$basic_string@DU?$char_traits@D@std@@V?$allocator@D@2@@std@@PAVFuzzyVariable@@@std@@@2@$0A@@std@@@std@@U_Iterator_base12@2@@std@@QAE@XZ
	add	esp, 4
	cmp	ebp, esp
	call	__RTC_CheckEsp
	mov	esp, ebp
	pop	ebp
	ret	0
??1?$_Tree_const_iterator@V?$_Tree_val@V?$_Tmap_traits@V?$basic_string@DU?$char_traits@D@std@@V?$allocator@D@2@@std@@PAVFuzzyVariable@@U?$less@V?$basic_string@DU?$char_traits@D@std@@V?$allocator@D@2@@std@@@2@V?$allocator@U?$pair@$$CBV?$basic_string@DU?$char_traits@D@std@@V?$allocator@D@2@@std@@PAVFuzzyVariable@@@std@@@2@$0A@@std@@@std@@@std@@QAE@XZ ENDP ; std::_Tree_const_iterator<std::_Tree_val<std::_Tmap_traits<std::basic_string<char,std::char_traits<char>,std::allocator<char> >,FuzzyVariable *,std::less<std::basic_string<char,std::char_traits<char>,std::allocator<char> > >,std::allocator<std::pair<std::basic_string<char,std::char_traits<char>,std::allocator<char> > const ,FuzzyVariable *> >,0> > >::~_Tree_const_iterator<std::_Tree_val<std::_Tmap_traits<std::basic_string<char,std::char_traits<char>,std::allocator<char> >,FuzzyVariable *,std::less<std::basic_string<char,std::char_traits<char>,std::allocator<char> > >,std::allocator<std::pair<std::basic_string<char,std::char_traits<char>,std::allocator<char> > const ,FuzzyVariable *> >,0> > >
_TEXT	ENDS
PUBLIC	??1?$_Iterator012@Ubidirectional_iterator_tag@std@@U?$pair@$$CBV?$basic_string@DU?$char_traits@D@std@@V?$allocator@D@2@@std@@PAVFuzzyVariable@@@2@HPBU32@ABU32@U_Iterator_base12@2@@std@@QAE@XZ ; std::_Iterator012<std::bidirectional_iterator_tag,std::pair<std::basic_string<char,std::char_traits<char>,std::allocator<char> > const ,FuzzyVariable *>,int,std::pair<std::basic_string<char,std::char_traits<char>,std::allocator<char> > const ,FuzzyVariable *> const *,std::pair<std::basic_string<char,std::char_traits<char>,std::allocator<char> > const ,FuzzyVariable *> const &,std::_Iterator_base12>::~_Iterator012<std::bidirectional_iterator_tag,std::pair<std::basic_string<char,std::char_traits<char>,std::allocator<char> > const ,FuzzyVariable *>,int,std::pair<std::basic_string<char,std::char_traits<char>,std::allocator<char> > const ,FuzzyVariable *> const *,std::pair<std::basic_string<char,std::char_traits<char>,std::allocator<char> > const ,FuzzyVariable *> const &,std::_Iterator_base12>
; Function compile flags: /Odtp /RTCsu
;	COMDAT ??1?$_Tree_unchecked_const_iterator@V?$_Tree_val@V?$_Tmap_traits@V?$basic_string@DU?$char_traits@D@std@@V?$allocator@D@2@@std@@PAVFuzzyVariable@@U?$less@V?$basic_string@DU?$char_traits@D@std@@V?$allocator@D@2@@std@@@2@V?$allocator@U?$pair@$$CBV?$basic_string@DU?$char_traits@D@std@@V?$allocator@D@2@@std@@PAVFuzzyVariable@@@std@@@2@$0A@@std@@@std@@U_Iterator_base12@2@@std@@QAE@XZ
_TEXT	SEGMENT
_this$ = -4						; size = 4
??1?$_Tree_unchecked_const_iterator@V?$_Tree_val@V?$_Tmap_traits@V?$basic_string@DU?$char_traits@D@std@@V?$allocator@D@2@@std@@PAVFuzzyVariable@@U?$less@V?$basic_string@DU?$char_traits@D@std@@V?$allocator@D@2@@std@@@2@V?$allocator@U?$pair@$$CBV?$basic_string@DU?$char_traits@D@std@@V?$allocator@D@2@@std@@PAVFuzzyVariable@@@std@@@2@$0A@@std@@@std@@U_Iterator_base12@2@@std@@QAE@XZ PROC ; std::_Tree_unchecked_const_iterator<std::_Tree_val<std::_Tmap_traits<std::basic_string<char,std::char_traits<char>,std::allocator<char> >,FuzzyVariable *,std::less<std::basic_string<char,std::char_traits<char>,std::allocator<char> > >,std::allocator<std::pair<std::basic_string<char,std::char_traits<char>,std::allocator<char> > const ,FuzzyVariable *> >,0> >,std::_Iterator_base12>::~_Tree_unchecked_const_iterator<std::_Tree_val<std::_Tmap_traits<std::basic_string<char,std::char_traits<char>,std::allocator<char> >,FuzzyVariable *,std::less<std::basic_string<char,std::char_traits<char>,std::allocator<char> > >,std::allocator<std::pair<std::basic_string<char,std::char_traits<char>,std::allocator<char> > const ,FuzzyVariable *> >,0> >,std::_Iterator_base12>, COMDAT
; _this$ = ecx
	push	ebp
	mov	ebp, esp
	push	ecx
	mov	DWORD PTR [ebp-4], -858993460		; ccccccccH
	mov	DWORD PTR _this$[ebp], ecx
	mov	ecx, DWORD PTR _this$[ebp]
	call	??1?$_Iterator012@Ubidirectional_iterator_tag@std@@U?$pair@$$CBV?$basic_string@DU?$char_traits@D@std@@V?$allocator@D@2@@std@@PAVFuzzyVariable@@@2@HPBU32@ABU32@U_Iterator_base12@2@@std@@QAE@XZ
	add	esp, 4
	cmp	ebp, esp
	call	__RTC_CheckEsp
	mov	esp, ebp
	pop	ebp
	ret	0
??1?$_Tree_unchecked_const_iterator@V?$_Tree_val@V?$_Tmap_traits@V?$basic_string@DU?$char_traits@D@std@@V?$allocator@D@2@@std@@PAVFuzzyVariable@@U?$less@V?$basic_string@DU?$char_traits@D@std@@V?$allocator@D@2@@std@@@2@V?$allocator@U?$pair@$$CBV?$basic_string@DU?$char_traits@D@std@@V?$allocator@D@2@@std@@PAVFuzzyVariable@@@std@@@2@$0A@@std@@@std@@U_Iterator_base12@2@@std@@QAE@XZ ENDP ; std::_Tree_unchecked_const_iterator<std::_Tree_val<std::_Tmap_traits<std::basic_string<char,std::char_traits<char>,std::allocator<char> >,FuzzyVariable *,std::less<std::basic_string<char,std::char_traits<char>,std::allocator<char> > >,std::allocator<std::pair<std::basic_string<char,std::char_traits<char>,std::allocator<char> > const ,FuzzyVariable *> >,0> >,std::_Iterator_base12>::~_Tree_unchecked_const_iterator<std::_Tree_val<std::_Tmap_traits<std::basic_string<char,std::char_traits<char>,std::allocator<char> >,FuzzyVariable *,std::less<std::basic_string<char,std::char_traits<char>,std::allocator<char> > >,std::allocator<std::pair<std::basic_string<char,std::char_traits<char>,std::allocator<char> > const ,FuzzyVariable *> >,0> >,std::_Iterator_base12>
_TEXT	ENDS
PUBLIC	??1_Iterator_base12@std@@QAE@XZ			; std::_Iterator_base12::~_Iterator_base12
; Function compile flags: /Odtp /RTCsu
;	COMDAT ??1?$_Iterator012@Ubidirectional_iterator_tag@std@@U?$pair@$$CBV?$basic_string@DU?$char_traits@D@std@@V?$allocator@D@2@@std@@PAVFuzzyVariable@@@2@HPBU32@ABU32@U_Iterator_base12@2@@std@@QAE@XZ
_TEXT	SEGMENT
_this$ = -4						; size = 4
??1?$_Iterator012@Ubidirectional_iterator_tag@std@@U?$pair@$$CBV?$basic_string@DU?$char_traits@D@std@@V?$allocator@D@2@@std@@PAVFuzzyVariable@@@2@HPBU32@ABU32@U_Iterator_base12@2@@std@@QAE@XZ PROC ; std::_Iterator012<std::bidirectional_iterator_tag,std::pair<std::basic_string<char,std::char_traits<char>,std::allocator<char> > const ,FuzzyVariable *>,int,std::pair<std::basic_string<char,std::char_traits<char>,std::allocator<char> > const ,FuzzyVariable *> const *,std::pair<std::basic_string<char,std::char_traits<char>,std::allocator<char> > const ,FuzzyVariable *> const &,std::_Iterator_base12>::~_Iterator012<std::bidirectional_iterator_tag,std::pair<std::basic_string<char,std::char_traits<char>,std::allocator<char> > const ,FuzzyVariable *>,int,std::pair<std::basic_string<char,std::char_traits<char>,std::allocator<char> > const ,FuzzyVariable *> const *,std::pair<std::basic_string<char,std::char_traits<char>,std::allocator<char> > const ,FuzzyVariable *> const &,std::_Iterator_base12>, COMDAT
; _this$ = ecx
	push	ebp
	mov	ebp, esp
	push	ecx
	mov	DWORD PTR [ebp-4], -858993460		; ccccccccH
	mov	DWORD PTR _this$[ebp], ecx
	mov	ecx, DWORD PTR _this$[ebp]
	call	??1_Iterator_base12@std@@QAE@XZ		; std::_Iterator_base12::~_Iterator_base12
	add	esp, 4
	cmp	ebp, esp
	call	__RTC_CheckEsp
	mov	esp, ebp
	pop	ebp
	ret	0
??1?$_Iterator012@Ubidirectional_iterator_tag@std@@U?$pair@$$CBV?$basic_string@DU?$char_traits@D@std@@V?$allocator@D@2@@std@@PAVFuzzyVariable@@@2@HPBU32@ABU32@U_Iterator_base12@2@@std@@QAE@XZ ENDP ; std::_Iterator012<std::bidirectional_iterator_tag,std::pair<std::basic_string<char,std::char_traits<char>,std::allocator<char> > const ,FuzzyVariable *>,int,std::pair<std::basic_string<char,std::char_traits<char>,std::allocator<char> > const ,FuzzyVariable *> const *,std::pair<std::basic_string<char,std::char_traits<char>,std::allocator<char> > const ,FuzzyVariable *> const &,std::_Iterator_base12>::~_Iterator012<std::bidirectional_iterator_tag,std::pair<std::basic_string<char,std::char_traits<char>,std::allocator<char> > const ,FuzzyVariable *>,int,std::pair<std::basic_string<char,std::char_traits<char>,std::allocator<char> > const ,FuzzyVariable *> const *,std::pair<std::basic_string<char,std::char_traits<char>,std::allocator<char> > const ,FuzzyVariable *> const &,std::_Iterator_base12>
_TEXT	ENDS
PUBLIC	?_Orphan_me@_Iterator_base12@std@@QAEXXZ	; std::_Iterator_base12::_Orphan_me
EXTRN	??1_Lockit@std@@QAE@XZ:PROC			; std::_Lockit::~_Lockit
EXTRN	??0_Lockit@std@@QAE@H@Z:PROC			; std::_Lockit::_Lockit
;	COMDAT xdata$x
; File c:\program files (x86)\microsoft visual studio 10.0\vc\include\xutility
xdata$x	SEGMENT
__unwindtable$??1_Iterator_base12@std@@QAE@XZ DD 0ffffffffH
	DD	FLAT:__unwindfunclet$??1_Iterator_base12@std@@QAE@XZ$0
__ehfuncinfo$??1_Iterator_base12@std@@QAE@XZ DD 019930522H
	DD	01H
	DD	FLAT:__unwindtable$??1_Iterator_base12@std@@QAE@XZ
	DD	2 DUP(00H)
	DD	2 DUP(00H)
	DD	00H
	DD	01H
; Function compile flags: /Odtp /RTCsu
xdata$x	ENDS
;	COMDAT ??1_Iterator_base12@std@@QAE@XZ
_TEXT	SEGMENT
__Lock$ = -24						; size = 4
_this$ = -16						; size = 4
__$EHRec$ = -12						; size = 12
??1_Iterator_base12@std@@QAE@XZ PROC			; std::_Iterator_base12::~_Iterator_base12, COMDAT
; _this$ = ecx

; 135  : 		{	// destroy the iterator

	push	ebp
	mov	ebp, esp
	push	-1
	push	__ehhandler$??1_Iterator_base12@std@@QAE@XZ
	mov	eax, DWORD PTR fs:0
	push	eax
	sub	esp, 16					; 00000010H
	mov	eax, -858993460				; ccccccccH
	mov	DWORD PTR [ebp-28], eax
	mov	DWORD PTR [ebp-24], eax
	mov	DWORD PTR [ebp-20], eax
	mov	DWORD PTR [ebp-16], eax
	mov	eax, DWORD PTR ___security_cookie
	xor	eax, ebp
	push	eax
	lea	eax, DWORD PTR __$EHRec$[ebp]
	mov	DWORD PTR fs:0, eax
	mov	DWORD PTR _this$[ebp], ecx

; 136  :  #if _ITERATOR_DEBUG_LEVEL == 2
; 137  : 		_Lockit _Lock(_LOCK_DEBUG);

	push	3
	lea	ecx, DWORD PTR __Lock$[ebp]
	call	??0_Lockit@std@@QAE@H@Z			; std::_Lockit::_Lockit
	mov	DWORD PTR __$EHRec$[ebp+8], 0

; 138  : 		_Orphan_me();

	mov	ecx, DWORD PTR _this$[ebp]
	call	?_Orphan_me@_Iterator_base12@std@@QAEXXZ ; std::_Iterator_base12::_Orphan_me

; 139  :  #endif /* _ITERATOR_DEBUG_LEVEL == 2 */
; 140  : 		}

	mov	DWORD PTR __$EHRec$[ebp+8], -1
	lea	ecx, DWORD PTR __Lock$[ebp]
	call	??1_Lockit@std@@QAE@XZ			; std::_Lockit::~_Lockit
	push	edx
	mov	ecx, ebp
	push	eax
	lea	edx, DWORD PTR $LN7@Iterator_b
	call	@_RTC_CheckStackVars@8
	pop	eax
	pop	edx
	mov	ecx, DWORD PTR __$EHRec$[ebp]
	mov	DWORD PTR fs:0, ecx
	pop	ecx
	add	esp, 28					; 0000001cH
	cmp	ebp, esp
	call	__RTC_CheckEsp
	mov	esp, ebp
	pop	ebp
	ret	0
	npad	1
$LN7@Iterator_b:
	DD	1
	DD	$LN6@Iterator_b
$LN6@Iterator_b:
	DD	-24					; ffffffe8H
	DD	4
	DD	$LN4@Iterator_b
$LN4@Iterator_b:
	DB	95					; 0000005fH
	DB	76					; 0000004cH
	DB	111					; 0000006fH
	DB	99					; 00000063H
	DB	107					; 0000006bH
	DB	0
_TEXT	ENDS
;	COMDAT text$x
text$x	SEGMENT
__unwindfunclet$??1_Iterator_base12@std@@QAE@XZ$0:
	lea	ecx, DWORD PTR __Lock$[ebp]
	jmp	??1_Lockit@std@@QAE@XZ			; std::_Lockit::~_Lockit
__ehhandler$??1_Iterator_base12@std@@QAE@XZ:
	mov	edx, DWORD PTR [esp+8]
	lea	eax, DWORD PTR [edx+12]
	mov	ecx, DWORD PTR [edx-20]
	xor	ecx, eax
	call	@__security_check_cookie@4
	mov	eax, OFFSET __ehfuncinfo$??1_Iterator_base12@std@@QAE@XZ
	jmp	___CxxFrameHandler3
text$x	ENDS
??1_Iterator_base12@std@@QAE@XZ ENDP			; std::_Iterator_base12::~_Iterator_base12
PUBLIC	??_C@_1DC@POOIKBAO@?$AAI?$AAT?$AAE?$AAR?$AAA?$AAT?$AAO?$AAR?$AA?5?$AAL?$AAI?$AAS?$AAT?$AA?5?$AAC?$AAO?$AAR?$AAR?$AAU?$AAP?$AAT?$AAE?$AAD?$AA?$CB?$AA?$AA@ ; `string'
PUBLIC	??_C@_1JA@HCKHPKJH@?$AAc?$AA?3?$AA?2?$AAP?$AAr?$AAo?$AAg?$AAr?$AAa?$AAm?$AA?5?$AAF?$AAi?$AAl?$AAe?$AAs?$AA?5?$AA?$CI?$AAx?$AA8?$AA6?$AA?$CJ?$AA?2?$AAM?$AAi?$AAc?$AAr?$AAo?$AAs?$AAo?$AAf?$AAt@ ; `string'
EXTRN	?_Debug_message@std@@YAXPB_W0I@Z:PROC		; std::_Debug_message
;	COMDAT ??_C@_1DC@POOIKBAO@?$AAI?$AAT?$AAE?$AAR?$AAA?$AAT?$AAO?$AAR?$AA?5?$AAL?$AAI?$AAS?$AAT?$AA?5?$AAC?$AAO?$AAR?$AAR?$AAU?$AAP?$AAT?$AAE?$AAD?$AA?$CB?$AA?$AA@
CONST	SEGMENT
??_C@_1DC@POOIKBAO@?$AAI?$AAT?$AAE?$AAR?$AAA?$AAT?$AAO?$AAR?$AA?5?$AAL?$AAI?$AAS?$AAT?$AA?5?$AAC?$AAO?$AAR?$AAR?$AAU?$AAP?$AAT?$AAE?$AAD?$AA?$CB?$AA?$AA@ DB 'I'
	DB	00H, 'T', 00H, 'E', 00H, 'R', 00H, 'A', 00H, 'T', 00H, 'O', 00H
	DB	'R', 00H, ' ', 00H, 'L', 00H, 'I', 00H, 'S', 00H, 'T', 00H, ' '
	DB	00H, 'C', 00H, 'O', 00H, 'R', 00H, 'R', 00H, 'U', 00H, 'P', 00H
	DB	'T', 00H, 'E', 00H, 'D', 00H, '!', 00H, 00H, 00H ; `string'
CONST	ENDS
;	COMDAT ??_C@_1JA@HCKHPKJH@?$AAc?$AA?3?$AA?2?$AAP?$AAr?$AAo?$AAg?$AAr?$AAa?$AAm?$AA?5?$AAF?$AAi?$AAl?$AAe?$AAs?$AA?5?$AA?$CI?$AAx?$AA8?$AA6?$AA?$CJ?$AA?2?$AAM?$AAi?$AAc?$AAr?$AAo?$AAs?$AAo?$AAf?$AAt@
CONST	SEGMENT
??_C@_1JA@HCKHPKJH@?$AAc?$AA?3?$AA?2?$AAP?$AAr?$AAo?$AAg?$AAr?$AAa?$AAm?$AA?5?$AAF?$AAi?$AAl?$AAe?$AAs?$AA?5?$AA?$CI?$AAx?$AA8?$AA6?$AA?$CJ?$AA?2?$AAM?$AAi?$AAc?$AAr?$AAo?$AAs?$AAo?$AAf?$AAt@ DB 'c'
	DB	00H, ':', 00H, '\', 00H, 'P', 00H, 'r', 00H, 'o', 00H, 'g', 00H
	DB	'r', 00H, 'a', 00H, 'm', 00H, ' ', 00H, 'F', 00H, 'i', 00H, 'l'
	DB	00H, 'e', 00H, 's', 00H, ' ', 00H, '(', 00H, 'x', 00H, '8', 00H
	DB	'6', 00H, ')', 00H, '\', 00H, 'M', 00H, 'i', 00H, 'c', 00H, 'r'
	DB	00H, 'o', 00H, 's', 00H, 'o', 00H, 'f', 00H, 't', 00H, ' ', 00H
	DB	'V', 00H, 'i', 00H, 's', 00H, 'u', 00H, 'a', 00H, 'l', 00H, ' '
	DB	00H, 'S', 00H, 't', 00H, 'u', 00H, 'd', 00H, 'i', 00H, 'o', 00H
	DB	' ', 00H, '1', 00H, '0', 00H, '.', 00H, '0', 00H, '\', 00H, 'V'
	DB	00H, 'C', 00H, '\', 00H, 'i', 00H, 'n', 00H, 'c', 00H, 'l', 00H
	DB	'u', 00H, 'd', 00H, 'e', 00H, '\', 00H, 'x', 00H, 'u', 00H, 't'
	DB	00H, 'i', 00H, 'l', 00H, 'i', 00H, 't', 00H, 'y', 00H, 00H, 00H ; `string'
; Function compile flags: /Odtp /RTCsu
CONST	ENDS
;	COMDAT ?_Orphan_me@_Iterator_base12@std@@QAEXXZ
_TEXT	SEGMENT
__Pnext$15174 = -8					; size = 4
_this$ = -4						; size = 4
?_Orphan_me@_Iterator_base12@std@@QAEXXZ PROC		; std::_Iterator_base12::_Orphan_me, COMDAT
; _this$ = ecx

; 184  : 		{	// cut ties with parent

	push	ebp
	mov	ebp, esp
	sub	esp, 8
	mov	DWORD PTR [ebp-8], -858993460		; ccccccccH
	mov	DWORD PTR [ebp-4], -858993460		; ccccccccH
	mov	DWORD PTR _this$[ebp], ecx

; 185  :  #if _ITERATOR_DEBUG_LEVEL == 2
; 186  : 		if (_Myproxy != 0)

	mov	eax, DWORD PTR _this$[ebp]
	cmp	DWORD PTR [eax], 0
	je	SHORT $LN5@Orphan_me

; 187  : 			{	// adopted, remove self from list
; 188  : 			_Iterator_base12 **_Pnext = &_Myproxy->_Myfirstiter;

	mov	ecx, DWORD PTR _this$[ebp]
	mov	edx, DWORD PTR [ecx]
	add	edx, 4
	mov	DWORD PTR __Pnext$15174[ebp], edx
$LN3@Orphan_me:

; 189  : 			while (*_Pnext != 0 && *_Pnext != this)

	mov	eax, DWORD PTR __Pnext$15174[ebp]
	cmp	DWORD PTR [eax], 0
	je	SHORT $LN2@Orphan_me
	mov	ecx, DWORD PTR __Pnext$15174[ebp]
	mov	edx, DWORD PTR [ecx]
	cmp	edx, DWORD PTR _this$[ebp]
	je	SHORT $LN2@Orphan_me

; 190  : 				_Pnext = &(*_Pnext)->_Mynextiter;

	mov	eax, DWORD PTR __Pnext$15174[ebp]
	mov	ecx, DWORD PTR [eax]
	add	ecx, 4
	mov	DWORD PTR __Pnext$15174[ebp], ecx
	jmp	SHORT $LN3@Orphan_me
$LN2@Orphan_me:

; 191  : 
; 192  : 			if (*_Pnext == 0)

	mov	edx, DWORD PTR __Pnext$15174[ebp]
	cmp	DWORD PTR [edx], 0
	jne	SHORT $LN1@Orphan_me

; 193  : 				_DEBUG_ERROR("ITERATOR LIST CORRUPTED!");

	push	193					; 000000c1H
	push	OFFSET ??_C@_1JA@HCKHPKJH@?$AAc?$AA?3?$AA?2?$AAP?$AAr?$AAo?$AAg?$AAr?$AAa?$AAm?$AA?5?$AAF?$AAi?$AAl?$AAe?$AAs?$AA?5?$AA?$CI?$AAx?$AA8?$AA6?$AA?$CJ?$AA?2?$AAM?$AAi?$AAc?$AAr?$AAo?$AAs?$AAo?$AAf?$AAt@
	push	OFFSET ??_C@_1DC@POOIKBAO@?$AAI?$AAT?$AAE?$AAR?$AAA?$AAT?$AAO?$AAR?$AA?5?$AAL?$AAI?$AAS?$AAT?$AA?5?$AAC?$AAO?$AAR?$AAR?$AAU?$AAP?$AAT?$AAE?$AAD?$AA?$CB?$AA?$AA@
	call	?_Debug_message@std@@YAXPB_W0I@Z	; std::_Debug_message
	add	esp, 12					; 0000000cH
$LN1@Orphan_me:

; 194  : 			*_Pnext = _Mynextiter;

	mov	eax, DWORD PTR __Pnext$15174[ebp]
	mov	ecx, DWORD PTR _this$[ebp]
	mov	edx, DWORD PTR [ecx+4]
	mov	DWORD PTR [eax], edx

; 195  : 			_Myproxy = 0;

	mov	eax, DWORD PTR _this$[ebp]
	mov	DWORD PTR [eax], 0
$LN5@Orphan_me:

; 196  : 			}
; 197  :  #endif /* _ITERATOR_DEBUG_LEVEL == 2 */
; 198  : 		}

	add	esp, 8
	cmp	ebp, esp
	call	__RTC_CheckEsp
	mov	esp, ebp
	pop	ebp
	ret	0
?_Orphan_me@_Iterator_base12@std@@QAEXXZ ENDP		; std::_Iterator_base12::_Orphan_me
_TEXT	ENDS
PUBLIC	??1?$_Vector_const_iterator@V?$_Vector_val@PAVFuzzyRule@@V?$allocator@PAVFuzzyRule@@@std@@@std@@@std@@QAE@XZ ; std::_Vector_const_iterator<std::_Vector_val<FuzzyRule *,std::allocator<FuzzyRule *> > >::~_Vector_const_iterator<std::_Vector_val<FuzzyRule *,std::allocator<FuzzyRule *> > >
; Function compile flags: /Odtp /RTCsu
;	COMDAT ??1?$_Vector_iterator@V?$_Vector_val@PAVFuzzyRule@@V?$allocator@PAVFuzzyRule@@@std@@@std@@@std@@QAE@XZ
_TEXT	SEGMENT
_this$ = -4						; size = 4
??1?$_Vector_iterator@V?$_Vector_val@PAVFuzzyRule@@V?$allocator@PAVFuzzyRule@@@std@@@std@@@std@@QAE@XZ PROC ; std::_Vector_iterator<std::_Vector_val<FuzzyRule *,std::allocator<FuzzyRule *> > >::~_Vector_iterator<std::_Vector_val<FuzzyRule *,std::allocator<FuzzyRule *> > >, COMDAT
; _this$ = ecx
	push	ebp
	mov	ebp, esp
	push	ecx
	mov	DWORD PTR [ebp-4], -858993460		; ccccccccH
	mov	DWORD PTR _this$[ebp], ecx
	mov	ecx, DWORD PTR _this$[ebp]
	call	??1?$_Vector_const_iterator@V?$_Vector_val@PAVFuzzyRule@@V?$allocator@PAVFuzzyRule@@@std@@@std@@@std@@QAE@XZ
	add	esp, 4
	cmp	ebp, esp
	call	__RTC_CheckEsp
	mov	esp, ebp
	pop	ebp
	ret	0
??1?$_Vector_iterator@V?$_Vector_val@PAVFuzzyRule@@V?$allocator@PAVFuzzyRule@@@std@@@std@@@std@@QAE@XZ ENDP ; std::_Vector_iterator<std::_Vector_val<FuzzyRule *,std::allocator<FuzzyRule *> > >::~_Vector_iterator<std::_Vector_val<FuzzyRule *,std::allocator<FuzzyRule *> > >
_TEXT	ENDS
PUBLIC	??1?$_Iterator012@Urandom_access_iterator_tag@std@@PAVFuzzyRule@@HPBQAV3@ABQAV3@U_Iterator_base12@2@@std@@QAE@XZ ; std::_Iterator012<std::random_access_iterator_tag,FuzzyRule *,int,FuzzyRule * const *,FuzzyRule * const &,std::_Iterator_base12>::~_Iterator012<std::random_access_iterator_tag,FuzzyRule *,int,FuzzyRule * const *,FuzzyRule * const &,std::_Iterator_base12>
; Function compile flags: /Odtp /RTCsu
;	COMDAT ??1?$_Vector_const_iterator@V?$_Vector_val@PAVFuzzyRule@@V?$allocator@PAVFuzzyRule@@@std@@@std@@@std@@QAE@XZ
_TEXT	SEGMENT
_this$ = -4						; size = 4
??1?$_Vector_const_iterator@V?$_Vector_val@PAVFuzzyRule@@V?$allocator@PAVFuzzyRule@@@std@@@std@@@std@@QAE@XZ PROC ; std::_Vector_const_iterator<std::_Vector_val<FuzzyRule *,std::allocator<FuzzyRule *> > >::~_Vector_const_iterator<std::_Vector_val<FuzzyRule *,std::allocator<FuzzyRule *> > >, COMDAT
; _this$ = ecx
	push	ebp
	mov	ebp, esp
	push	ecx
	mov	DWORD PTR [ebp-4], -858993460		; ccccccccH
	mov	DWORD PTR _this$[ebp], ecx
	mov	ecx, DWORD PTR _this$[ebp]
	call	??1?$_Iterator012@Urandom_access_iterator_tag@std@@PAVFuzzyRule@@HPBQAV3@ABQAV3@U_Iterator_base12@2@@std@@QAE@XZ
	add	esp, 4
	cmp	ebp, esp
	call	__RTC_CheckEsp
	mov	esp, ebp
	pop	ebp
	ret	0
??1?$_Vector_const_iterator@V?$_Vector_val@PAVFuzzyRule@@V?$allocator@PAVFuzzyRule@@@std@@@std@@@std@@QAE@XZ ENDP ; std::_Vector_const_iterator<std::_Vector_val<FuzzyRule *,std::allocator<FuzzyRule *> > >::~_Vector_const_iterator<std::_Vector_val<FuzzyRule *,std::allocator<FuzzyRule *> > >
; Function compile flags: /Odtp /RTCsu
_TEXT	ENDS
;	COMDAT ??1?$_Iterator012@Urandom_access_iterator_tag@std@@PAVFuzzyRule@@HPBQAV3@ABQAV3@U_Iterator_base12@2@@std@@QAE@XZ
_TEXT	SEGMENT
_this$ = -4						; size = 4
??1?$_Iterator012@Urandom_access_iterator_tag@std@@PAVFuzzyRule@@HPBQAV3@ABQAV3@U_Iterator_base12@2@@std@@QAE@XZ PROC ; std::_Iterator012<std::random_access_iterator_tag,FuzzyRule *,int,FuzzyRule * const *,FuzzyRule * const &,std::_Iterator_base12>::~_Iterator012<std::random_access_iterator_tag,FuzzyRule *,int,FuzzyRule * const *,FuzzyRule * const &,std::_Iterator_base12>, COMDAT
; _this$ = ecx
	push	ebp
	mov	ebp, esp
	push	ecx
	mov	DWORD PTR [ebp-4], -858993460		; ccccccccH
	mov	DWORD PTR _this$[ebp], ecx
	mov	ecx, DWORD PTR _this$[ebp]
	call	??1_Iterator_base12@std@@QAE@XZ		; std::_Iterator_base12::~_Iterator_base12
	add	esp, 4
	cmp	ebp, esp
	call	__RTC_CheckEsp
	mov	esp, ebp
	pop	ebp
	ret	0
??1?$_Iterator012@Urandom_access_iterator_tag@std@@PAVFuzzyRule@@HPBQAV3@ABQAV3@U_Iterator_base12@2@@std@@QAE@XZ ENDP ; std::_Iterator012<std::random_access_iterator_tag,FuzzyRule *,int,FuzzyRule * const *,FuzzyRule * const &,std::_Iterator_base12>::~_Iterator012<std::random_access_iterator_tag,FuzzyRule *,int,FuzzyRule * const *,FuzzyRule * const &,std::_Iterator_base12>
_TEXT	ENDS
PUBLIC	??1?$_Tree@V?$_Tmap_traits@V?$basic_string@DU?$char_traits@D@std@@V?$allocator@D@2@@std@@PAVFuzzyVariable@@U?$less@V?$basic_string@DU?$char_traits@D@std@@V?$allocator@D@2@@std@@@2@V?$allocator@U?$pair@$$CBV?$basic_string@DU?$char_traits@D@std@@V?$allocator@D@2@@std@@PAVFuzzyVariable@@@std@@@2@$0A@@std@@@std@@QAE@XZ ; std::_Tree<std::_Tmap_traits<std::basic_string<char,std::char_traits<char>,std::allocator<char> >,FuzzyVariable *,std::less<std::basic_string<char,std::char_traits<char>,std::allocator<char> > >,std::allocator<std::pair<std::basic_string<char,std::char_traits<char>,std::allocator<char> > const ,FuzzyVariable *> >,0> >::~_Tree<std::_Tmap_traits<std::basic_string<char,std::char_traits<char>,std::allocator<char> >,FuzzyVariable *,std::less<std::basic_string<char,std::char_traits<char>,std::allocator<char> > >,std::allocator<std::pair<std::basic_string<char,std::char_traits<char>,std::allocator<char> > const ,FuzzyVariable *> >,0> >
; Function compile flags: /Odtp /RTCsu
;	COMDAT ??1?$map@V?$basic_string@DU?$char_traits@D@std@@V?$allocator@D@2@@std@@PAVFuzzyVariable@@U?$less@V?$basic_string@DU?$char_traits@D@std@@V?$allocator@D@2@@std@@@2@V?$allocator@U?$pair@$$CBV?$basic_string@DU?$char_traits@D@std@@V?$allocator@D@2@@std@@PAVFuzzyVariable@@@std@@@2@@std@@QAE@XZ
_TEXT	SEGMENT
_this$ = -4						; size = 4
??1?$map@V?$basic_string@DU?$char_traits@D@std@@V?$allocator@D@2@@std@@PAVFuzzyVariable@@U?$less@V?$basic_string@DU?$char_traits@D@std@@V?$allocator@D@2@@std@@@2@V?$allocator@U?$pair@$$CBV?$basic_string@DU?$char_traits@D@std@@V?$allocator@D@2@@std@@PAVFuzzyVariable@@@std@@@2@@std@@QAE@XZ PROC ; std::map<std::basic_string<char,std::char_traits<char>,std::allocator<char> >,FuzzyVariable *,std::less<std::basic_string<char,std::char_traits<char>,std::allocator<char> > >,std::allocator<std::pair<std::basic_string<char,std::char_traits<char>,std::allocator<char> > const ,FuzzyVariable *> > >::~map<std::basic_string<char,std::char_traits<char>,std::allocator<char> >,FuzzyVariable *,std::less<std::basic_string<char,std::char_traits<char>,std::allocator<char> > >,std::allocator<std::pair<std::basic_string<char,std::char_traits<char>,std::allocator<char> > const ,FuzzyVariable *> > >, COMDAT
; _this$ = ecx
	push	ebp
	mov	ebp, esp
	push	ecx
	mov	DWORD PTR [ebp-4], -858993460		; ccccccccH
	mov	DWORD PTR _this$[ebp], ecx
	mov	ecx, DWORD PTR _this$[ebp]
	call	??1?$_Tree@V?$_Tmap_traits@V?$basic_string@DU?$char_traits@D@std@@V?$allocator@D@2@@std@@PAVFuzzyVariable@@U?$less@V?$basic_string@DU?$char_traits@D@std@@V?$allocator@D@2@@std@@@2@V?$allocator@U?$pair@$$CBV?$basic_string@DU?$char_traits@D@std@@V?$allocator@D@2@@std@@PAVFuzzyVariable@@@std@@@2@$0A@@std@@@std@@QAE@XZ ; std::_Tree<std::_Tmap_traits<std::basic_string<char,std::char_traits<char>,std::allocator<char> >,FuzzyVariable *,std::less<std::basic_string<char,std::char_traits<char>,std::allocator<char> > >,std::allocator<std::pair<std::basic_string<char,std::char_traits<char>,std::allocator<char> > const ,FuzzyVariable *> >,0> >::~_Tree<std::_Tmap_traits<std::basic_string<char,std::char_traits<char>,std::allocator<char> >,FuzzyVariable *,std::less<std::basic_string<char,std::char_traits<char>,std::allocator<char> > >,std::allocator<std::pair<std::basic_string<char,std::char_traits<char>,std::allocator<char> > const ,FuzzyVariable *> >,0> >
	add	esp, 4
	cmp	ebp, esp
	call	__RTC_CheckEsp
	mov	esp, ebp
	pop	ebp
	ret	0
??1?$map@V?$basic_string@DU?$char_traits@D@std@@V?$allocator@D@2@@std@@PAVFuzzyVariable@@U?$less@V?$basic_string@DU?$char_traits@D@std@@V?$allocator@D@2@@std@@@2@V?$allocator@U?$pair@$$CBV?$basic_string@DU?$char_traits@D@std@@V?$allocator@D@2@@std@@PAVFuzzyVariable@@@std@@@2@@std@@QAE@XZ ENDP ; std::map<std::basic_string<char,std::char_traits<char>,std::allocator<char> >,FuzzyVariable *,std::less<std::basic_string<char,std::char_traits<char>,std::allocator<char> > >,std::allocator<std::pair<std::basic_string<char,std::char_traits<char>,std::allocator<char> > const ,FuzzyVariable *> > >::~map<std::basic_string<char,std::char_traits<char>,std::allocator<char> >,FuzzyVariable *,std::less<std::basic_string<char,std::char_traits<char>,std::allocator<char> > >,std::allocator<std::pair<std::basic_string<char,std::char_traits<char>,std::allocator<char> > const ,FuzzyVariable *> > >
_TEXT	ENDS
EXTRN	??3@YAXPAX@Z:PROC				; operator delete
EXTRN	??1FuzzyVariable@@AAE@XZ:PROC			; FuzzyVariable::~FuzzyVariable
; Function compile flags: /Odtp /RTCsu
;	COMDAT ??_GFuzzyVariable@@AAEPAXI@Z
_TEXT	SEGMENT
_this$ = -4						; size = 4
___flags$ = 8						; size = 4
??_GFuzzyVariable@@AAEPAXI@Z PROC			; FuzzyVariable::`scalar deleting destructor', COMDAT
; _this$ = ecx
	push	ebp
	mov	ebp, esp
	push	ecx
	mov	DWORD PTR [ebp-4], -858993460		; ccccccccH
	mov	DWORD PTR _this$[ebp], ecx
	mov	ecx, DWORD PTR _this$[ebp]
	call	??1FuzzyVariable@@AAE@XZ		; FuzzyVariable::~FuzzyVariable
	mov	eax, DWORD PTR ___flags$[ebp]
	and	eax, 1
	je	SHORT $LN1@scalar
	mov	ecx, DWORD PTR _this$[ebp]
	push	ecx
	call	??3@YAXPAX@Z				; operator delete
	add	esp, 4
$LN1@scalar:
	mov	eax, DWORD PTR _this$[ebp]
	add	esp, 4
	cmp	ebp, esp
	call	__RTC_CheckEsp
	mov	esp, ebp
	pop	ebp
	ret	4
??_GFuzzyVariable@@AAEPAXI@Z ENDP			; FuzzyVariable::`scalar deleting destructor'
_TEXT	ENDS
PUBLIC	??1FuzzyRule@@QAE@XZ				; FuzzyRule::~FuzzyRule
; Function compile flags: /Odtp /RTCsu
;	COMDAT ??_GFuzzyRule@@QAEPAXI@Z
_TEXT	SEGMENT
_this$ = -4						; size = 4
___flags$ = 8						; size = 4
??_GFuzzyRule@@QAEPAXI@Z PROC				; FuzzyRule::`scalar deleting destructor', COMDAT
; _this$ = ecx
	push	ebp
	mov	ebp, esp
	push	ecx
	mov	DWORD PTR [ebp-4], -858993460		; ccccccccH
	mov	DWORD PTR _this$[ebp], ecx
	mov	ecx, DWORD PTR _this$[ebp]
	call	??1FuzzyRule@@QAE@XZ			; FuzzyRule::~FuzzyRule
	mov	eax, DWORD PTR ___flags$[ebp]
	and	eax, 1
	je	SHORT $LN1@scalar@2
	mov	ecx, DWORD PTR _this$[ebp]
	push	ecx
	call	??3@YAXPAX@Z				; operator delete
	add	esp, 4
$LN1@scalar@2:
	mov	eax, DWORD PTR _this$[ebp]
	add	esp, 4
	cmp	ebp, esp
	call	__RTC_CheckEsp
	mov	esp, ebp
	pop	ebp
	ret	4
??_GFuzzyRule@@QAEPAXI@Z ENDP				; FuzzyRule::`scalar deleting destructor'
; Function compile flags: /Odtp /RTCsu
; File c:\users\teaja\documents\artificial-fun\labravenprojecttest\common\fuzzy\fuzzyrule.h
_TEXT	ENDS
;	COMDAT ??1FuzzyRule@@QAE@XZ
_TEXT	SEGMENT
tv78 = -28						; size = 4
tv70 = -24						; size = 4
$T52840 = -20						; size = 4
$T52839 = -16						; size = 4
$T52836 = -12						; size = 4
$T52835 = -8						; size = 4
_this$ = -4						; size = 4
??1FuzzyRule@@QAE@XZ PROC				; FuzzyRule::~FuzzyRule, COMDAT
; _this$ = ecx

; 43   :   ~FuzzyRule(){delete m_pAntecedent; delete m_pConsequence;}

	push	ebp
	mov	ebp, esp
	sub	esp, 28					; 0000001cH
	push	esi
	mov	eax, -858993460				; ccccccccH
	mov	DWORD PTR [ebp-28], eax
	mov	DWORD PTR [ebp-24], eax
	mov	DWORD PTR [ebp-20], eax
	mov	DWORD PTR [ebp-16], eax
	mov	DWORD PTR [ebp-12], eax
	mov	DWORD PTR [ebp-8], eax
	mov	DWORD PTR [ebp-4], eax
	mov	DWORD PTR _this$[ebp], ecx
	mov	eax, DWORD PTR _this$[ebp]
	mov	ecx, DWORD PTR [eax]
	mov	DWORD PTR $T52836[ebp], ecx
	mov	edx, DWORD PTR $T52836[ebp]
	mov	DWORD PTR $T52835[ebp], edx
	cmp	DWORD PTR $T52835[ebp], 0
	je	SHORT $LN3@FuzzyRule
	mov	esi, esp
	push	1
	mov	eax, DWORD PTR $T52835[ebp]
	mov	edx, DWORD PTR [eax]
	mov	ecx, DWORD PTR $T52835[ebp]
	mov	eax, DWORD PTR [edx]
	call	eax
	cmp	esi, esp
	call	__RTC_CheckEsp
	mov	DWORD PTR tv70[ebp], eax
	jmp	SHORT $LN4@FuzzyRule
$LN3@FuzzyRule:
	mov	DWORD PTR tv70[ebp], 0
$LN4@FuzzyRule:
	mov	ecx, DWORD PTR _this$[ebp]
	mov	edx, DWORD PTR [ecx+4]
	mov	DWORD PTR $T52840[ebp], edx
	mov	eax, DWORD PTR $T52840[ebp]
	mov	DWORD PTR $T52839[ebp], eax
	cmp	DWORD PTR $T52839[ebp], 0
	je	SHORT $LN5@FuzzyRule
	mov	esi, esp
	push	1
	mov	ecx, DWORD PTR $T52839[ebp]
	mov	edx, DWORD PTR [ecx]
	mov	ecx, DWORD PTR $T52839[ebp]
	mov	eax, DWORD PTR [edx]
	call	eax
	cmp	esi, esp
	call	__RTC_CheckEsp
	mov	DWORD PTR tv78[ebp], eax
	jmp	SHORT $LN1@FuzzyRule
$LN5@FuzzyRule:
	mov	DWORD PTR tv78[ebp], 0
$LN1@FuzzyRule:
	pop	esi
	add	esp, 28					; 0000001cH
	cmp	ebp, esp
	call	__RTC_CheckEsp
	mov	esp, ebp
	pop	ebp
	ret	0
??1FuzzyRule@@QAE@XZ ENDP				; FuzzyRule::~FuzzyRule
_TEXT	ENDS
PUBLIC	?push_back@?$vector@PAVFuzzyRule@@V?$allocator@PAVFuzzyRule@@@std@@@std@@QAEX$$QAPAVFuzzyRule@@@Z ; std::vector<FuzzyRule *,std::allocator<FuzzyRule *> >::push_back
PUBLIC	??0FuzzyRule@@QAE@ABVFuzzyTerm@@0@Z		; FuzzyRule::FuzzyRule
PUBLIC	?AddRule@FuzzyModule@@QAEXAAVFuzzyTerm@@0@Z	; FuzzyModule::AddRule
EXTRN	??2@YAPAXI@Z:PROC				; operator new
xdata$x	SEGMENT
__unwindtable$?AddRule@FuzzyModule@@QAEXAAVFuzzyTerm@@0@Z DD 0ffffffffH
	DD	FLAT:__unwindfunclet$?AddRule@FuzzyModule@@QAEXAAVFuzzyTerm@@0@Z$0
__ehfuncinfo$?AddRule@FuzzyModule@@QAEXAAVFuzzyTerm@@0@Z DD 019930522H
	DD	01H
	DD	FLAT:__unwindtable$?AddRule@FuzzyModule@@QAEXAAVFuzzyTerm@@0@Z
	DD	2 DUP(00H)
	DD	2 DUP(00H)
	DD	00H
	DD	01H
; Function compile flags: /Odtp /RTCsu
; File c:\users\teaja\documents\artificial-fun\labravenprojecttest\common\fuzzy\fuzzymodule.cpp
xdata$x	ENDS
_TEXT	SEGMENT
tv75 = -32						; size = 4
$T52847 = -28						; size = 4
$T52846 = -24						; size = 4
$T52845 = -20						; size = 4
_this$ = -16						; size = 4
__$EHRec$ = -12						; size = 12
_antecedent$ = 8					; size = 4
_consequence$ = 12					; size = 4
?AddRule@FuzzyModule@@QAEXAAVFuzzyTerm@@0@Z PROC	; FuzzyModule::AddRule
; _this$ = ecx

; 26   : {

	push	ebp
	mov	ebp, esp
	push	-1
	push	__ehhandler$?AddRule@FuzzyModule@@QAEXAAVFuzzyTerm@@0@Z
	mov	eax, DWORD PTR fs:0
	push	eax
	sub	esp, 20					; 00000014H
	mov	eax, -858993460				; ccccccccH
	mov	DWORD PTR [ebp-32], eax
	mov	DWORD PTR [ebp-28], eax
	mov	DWORD PTR [ebp-24], eax
	mov	DWORD PTR [ebp-20], eax
	mov	DWORD PTR [ebp-16], eax
	mov	eax, DWORD PTR ___security_cookie
	xor	eax, ebp
	push	eax
	lea	eax, DWORD PTR __$EHRec$[ebp]
	mov	DWORD PTR fs:0, eax
	mov	DWORD PTR _this$[ebp], ecx

; 27   :   m_Rules.push_back(new FuzzyRule(antecedent, consequence));

	push	8
	call	??2@YAPAXI@Z				; operator new
	add	esp, 4
	mov	DWORD PTR $T52847[ebp], eax
	mov	DWORD PTR __$EHRec$[ebp+8], 0
	cmp	DWORD PTR $T52847[ebp], 0
	je	SHORT $LN3@AddRule
	mov	eax, DWORD PTR _consequence$[ebp]
	push	eax
	mov	ecx, DWORD PTR _antecedent$[ebp]
	push	ecx
	mov	ecx, DWORD PTR $T52847[ebp]
	call	??0FuzzyRule@@QAE@ABVFuzzyTerm@@0@Z	; FuzzyRule::FuzzyRule
	mov	DWORD PTR tv75[ebp], eax
	jmp	SHORT $LN4@AddRule
$LN3@AddRule:
	mov	DWORD PTR tv75[ebp], 0
$LN4@AddRule:
	mov	edx, DWORD PTR tv75[ebp]
	mov	DWORD PTR $T52846[ebp], edx
	mov	DWORD PTR __$EHRec$[ebp+8], -1
	mov	eax, DWORD PTR $T52846[ebp]
	mov	DWORD PTR $T52845[ebp], eax
	lea	ecx, DWORD PTR $T52845[ebp]
	push	ecx
	mov	ecx, DWORD PTR _this$[ebp]
	add	ecx, 20					; 00000014H
	call	?push_back@?$vector@PAVFuzzyRule@@V?$allocator@PAVFuzzyRule@@@std@@@std@@QAEX$$QAPAVFuzzyRule@@@Z ; std::vector<FuzzyRule *,std::allocator<FuzzyRule *> >::push_back

; 28   : }

	mov	ecx, DWORD PTR __$EHRec$[ebp]
	mov	DWORD PTR fs:0, ecx
	pop	ecx
	add	esp, 32					; 00000020H
	cmp	ebp, esp
	call	__RTC_CheckEsp
	mov	esp, ebp
	pop	ebp
	ret	8
_TEXT	ENDS
text$x	SEGMENT
__unwindfunclet$?AddRule@FuzzyModule@@QAEXAAVFuzzyTerm@@0@Z$0:
	mov	eax, DWORD PTR $T52847[ebp]
	push	eax
	call	??3@YAXPAX@Z				; operator delete
	pop	ecx
	ret	0
__ehhandler$?AddRule@FuzzyModule@@QAEXAAVFuzzyTerm@@0@Z:
	mov	edx, DWORD PTR [esp+8]
	lea	eax, DWORD PTR [edx+12]
	mov	ecx, DWORD PTR [edx-24]
	xor	ecx, eax
	call	@__security_check_cookie@4
	mov	eax, OFFSET __ehfuncinfo$?AddRule@FuzzyModule@@QAEXAAVFuzzyTerm@@0@Z
	jmp	___CxxFrameHandler3
text$x	ENDS
?AddRule@FuzzyModule@@QAEXAAVFuzzyTerm@@0@Z ENDP	; FuzzyModule::AddRule
; Function compile flags: /Odtp /RTCsu
; File c:\users\teaja\documents\artificial-fun\labravenprojecttest\common\fuzzy\fuzzyrule.h
;	COMDAT ??0FuzzyRule@@QAE@ABVFuzzyTerm@@0@Z
_TEXT	SEGMENT
_this$ = -4						; size = 4
_ant$ = 8						; size = 4
_con$ = 12						; size = 4
??0FuzzyRule@@QAE@ABVFuzzyTerm@@0@Z PROC		; FuzzyRule::FuzzyRule, COMDAT
; _this$ = ecx

; 41   :   {}

	push	ebp
	mov	ebp, esp
	push	ecx
	push	esi
	mov	DWORD PTR [ebp-4], -858993460		; ccccccccH
	mov	DWORD PTR _this$[ebp], ecx
	mov	eax, DWORD PTR _ant$[ebp]
	mov	edx, DWORD PTR [eax]
	mov	esi, esp
	mov	ecx, DWORD PTR _ant$[ebp]
	mov	eax, DWORD PTR [edx+4]
	call	eax
	cmp	esi, esp
	call	__RTC_CheckEsp
	mov	ecx, DWORD PTR _this$[ebp]
	mov	DWORD PTR [ecx], eax
	mov	edx, DWORD PTR _con$[ebp]
	mov	eax, DWORD PTR [edx]
	mov	esi, esp
	mov	ecx, DWORD PTR _con$[ebp]
	mov	edx, DWORD PTR [eax+4]
	call	edx
	cmp	esi, esp
	call	__RTC_CheckEsp
	mov	ecx, DWORD PTR _this$[ebp]
	mov	DWORD PTR [ecx+4], eax
	mov	eax, DWORD PTR _this$[ebp]
	pop	esi
	add	esp, 4
	cmp	ebp, esp
	call	__RTC_CheckEsp
	mov	esp, ebp
	pop	ebp
	ret	8
??0FuzzyRule@@QAE@ABVFuzzyTerm@@0@Z ENDP		; FuzzyRule::FuzzyRule
_TEXT	ENDS
PUBLIC	??A?$map@V?$basic_string@DU?$char_traits@D@std@@V?$allocator@D@2@@std@@PAVFuzzyVariable@@U?$less@V?$basic_string@DU?$char_traits@D@std@@V?$allocator@D@2@@std@@@2@V?$allocator@U?$pair@$$CBV?$basic_string@DU?$char_traits@D@std@@V?$allocator@D@2@@std@@PAVFuzzyVariable@@@std@@@2@@std@@QAEAAPAVFuzzyVariable@@ABV?$basic_string@DU?$char_traits@D@std@@V?$allocator@D@2@@1@@Z ; std::map<std::basic_string<char,std::char_traits<char>,std::allocator<char> >,FuzzyVariable *,std::less<std::basic_string<char,std::char_traits<char>,std::allocator<char> > >,std::allocator<std::pair<std::basic_string<char,std::char_traits<char>,std::allocator<char> > const ,FuzzyVariable *> > >::operator[]
PUBLIC	??0FuzzyVariable@@QAE@XZ			; FuzzyVariable::FuzzyVariable
PUBLIC	?CreateFLV@FuzzyModule@@QAEAAVFuzzyVariable@@ABV?$basic_string@DU?$char_traits@D@std@@V?$allocator@D@2@@std@@@Z ; FuzzyModule::CreateFLV
xdata$x	SEGMENT
__unwindtable$?CreateFLV@FuzzyModule@@QAEAAVFuzzyVariable@@ABV?$basic_string@DU?$char_traits@D@std@@V?$allocator@D@2@@std@@@Z DD 0ffffffffH
	DD	FLAT:__unwindfunclet$?CreateFLV@FuzzyModule@@QAEAAVFuzzyVariable@@ABV?$basic_string@DU?$char_traits@D@std@@V?$allocator@D@2@@std@@@Z$0
__ehfuncinfo$?CreateFLV@FuzzyModule@@QAEAAVFuzzyVariable@@ABV?$basic_string@DU?$char_traits@D@std@@V?$allocator@D@2@@std@@@Z DD 019930522H
	DD	01H
	DD	FLAT:__unwindtable$?CreateFLV@FuzzyModule@@QAEAAVFuzzyVariable@@ABV?$basic_string@DU?$char_traits@D@std@@V?$allocator@D@2@@std@@@Z
	DD	2 DUP(00H)
	DD	2 DUP(00H)
	DD	00H
	DD	01H
; Function compile flags: /Odtp /RTCsu
; File c:\users\teaja\documents\artificial-fun\labravenprojecttest\common\fuzzy\fuzzymodule.cpp
xdata$x	ENDS
_TEXT	SEGMENT
tv74 = -28						; size = 4
$T52859 = -24						; size = 4
$T52858 = -20						; size = 4
_this$ = -16						; size = 4
__$EHRec$ = -12						; size = 12
_VarName$ = 8						; size = 4
?CreateFLV@FuzzyModule@@QAEAAVFuzzyVariable@@ABV?$basic_string@DU?$char_traits@D@std@@V?$allocator@D@2@@std@@@Z PROC ; FuzzyModule::CreateFLV
; _this$ = ecx

; 36   : {

	push	ebp
	mov	ebp, esp
	push	-1
	push	__ehhandler$?CreateFLV@FuzzyModule@@QAEAAVFuzzyVariable@@ABV?$basic_string@DU?$char_traits@D@std@@V?$allocator@D@2@@std@@@Z
	mov	eax, DWORD PTR fs:0
	push	eax
	sub	esp, 16					; 00000010H
	mov	eax, -858993460				; ccccccccH
	mov	DWORD PTR [ebp-28], eax
	mov	DWORD PTR [ebp-24], eax
	mov	DWORD PTR [ebp-20], eax
	mov	DWORD PTR [ebp-16], eax
	mov	eax, DWORD PTR ___security_cookie
	xor	eax, ebp
	push	eax
	lea	eax, DWORD PTR __$EHRec$[ebp]
	mov	DWORD PTR fs:0, eax
	mov	DWORD PTR _this$[ebp], ecx

; 37   :   m_Variables[VarName] = new FuzzyVariable();;

	push	40					; 00000028H
	call	??2@YAPAXI@Z				; operator new
	add	esp, 4
	mov	DWORD PTR $T52859[ebp], eax
	mov	DWORD PTR __$EHRec$[ebp+8], 0
	cmp	DWORD PTR $T52859[ebp], 0
	je	SHORT $LN3@CreateFLV
	mov	ecx, DWORD PTR $T52859[ebp]
	call	??0FuzzyVariable@@QAE@XZ		; FuzzyVariable::FuzzyVariable
	mov	DWORD PTR tv74[ebp], eax
	jmp	SHORT $LN4@CreateFLV
$LN3@CreateFLV:
	mov	DWORD PTR tv74[ebp], 0
$LN4@CreateFLV:
	mov	eax, DWORD PTR tv74[ebp]
	mov	DWORD PTR $T52858[ebp], eax
	mov	DWORD PTR __$EHRec$[ebp+8], -1
	mov	ecx, DWORD PTR _VarName$[ebp]
	push	ecx
	mov	ecx, DWORD PTR _this$[ebp]
	call	??A?$map@V?$basic_string@DU?$char_traits@D@std@@V?$allocator@D@2@@std@@PAVFuzzyVariable@@U?$less@V?$basic_string@DU?$char_traits@D@std@@V?$allocator@D@2@@std@@@2@V?$allocator@U?$pair@$$CBV?$basic_string@DU?$char_traits@D@std@@V?$allocator@D@2@@std@@PAVFuzzyVariable@@@std@@@2@@std@@QAEAAPAVFuzzyVariable@@ABV?$basic_string@DU?$char_traits@D@std@@V?$allocator@D@2@@1@@Z ; std::map<std::basic_string<char,std::char_traits<char>,std::allocator<char> >,FuzzyVariable *,std::less<std::basic_string<char,std::char_traits<char>,std::allocator<char> > >,std::allocator<std::pair<std::basic_string<char,std::char_traits<char>,std::allocator<char> > const ,FuzzyVariable *> > >::operator[]
	mov	edx, DWORD PTR $T52858[ebp]
	mov	DWORD PTR [eax], edx

; 38   : 
; 39   :   return *m_Variables[VarName];

	mov	eax, DWORD PTR _VarName$[ebp]
	push	eax
	mov	ecx, DWORD PTR _this$[ebp]
	call	??A?$map@V?$basic_string@DU?$char_traits@D@std@@V?$allocator@D@2@@std@@PAVFuzzyVariable@@U?$less@V?$basic_string@DU?$char_traits@D@std@@V?$allocator@D@2@@std@@@2@V?$allocator@U?$pair@$$CBV?$basic_string@DU?$char_traits@D@std@@V?$allocator@D@2@@std@@PAVFuzzyVariable@@@std@@@2@@std@@QAEAAPAVFuzzyVariable@@ABV?$basic_string@DU?$char_traits@D@std@@V?$allocator@D@2@@1@@Z ; std::map<std::basic_string<char,std::char_traits<char>,std::allocator<char> >,FuzzyVariable *,std::less<std::basic_string<char,std::char_traits<char>,std::allocator<char> > >,std::allocator<std::pair<std::basic_string<char,std::char_traits<char>,std::allocator<char> > const ,FuzzyVariable *> > >::operator[]
	mov	eax, DWORD PTR [eax]

; 40   : }

	mov	ecx, DWORD PTR __$EHRec$[ebp]
	mov	DWORD PTR fs:0, ecx
	pop	ecx
	add	esp, 28					; 0000001cH
	cmp	ebp, esp
	call	__RTC_CheckEsp
	mov	esp, ebp
	pop	ebp
	ret	4
_TEXT	ENDS
text$x	SEGMENT
__unwindfunclet$?CreateFLV@FuzzyModule@@QAEAAVFuzzyVariable@@ABV?$basic_string@DU?$char_traits@D@std@@V?$allocator@D@2@@std@@@Z$0:
	mov	eax, DWORD PTR $T52859[ebp]
	push	eax
	call	??3@YAXPAX@Z				; operator delete
	pop	ecx
	ret	0
__ehhandler$?CreateFLV@FuzzyModule@@QAEAAVFuzzyVariable@@ABV?$basic_string@DU?$char_traits@D@std@@V?$allocator@D@2@@std@@@Z:
	mov	edx, DWORD PTR [esp+8]
	lea	eax, DWORD PTR [edx+12]
	mov	ecx, DWORD PTR [edx-20]
	xor	ecx, eax
	call	@__security_check_cookie@4
	mov	eax, OFFSET __ehfuncinfo$?CreateFLV@FuzzyModule@@QAEAAVFuzzyVariable@@ABV?$basic_string@DU?$char_traits@D@std@@V?$allocator@D@2@@std@@@Z
	jmp	___CxxFrameHandler3
text$x	ENDS
?CreateFLV@FuzzyModule@@QAEAAVFuzzyVariable@@ABV?$basic_string@DU?$char_traits@D@std@@V?$allocator@D@2@@std@@@Z ENDP ; FuzzyModule::CreateFLV
PUBLIC	__real@0000000000000000
PUBLIC	??0?$map@V?$basic_string@DU?$char_traits@D@std@@V?$allocator@D@2@@std@@PAVFuzzySet@@U?$less@V?$basic_string@DU?$char_traits@D@std@@V?$allocator@D@2@@std@@@2@V?$allocator@U?$pair@$$CBV?$basic_string@DU?$char_traits@D@std@@V?$allocator@D@2@@std@@PAVFuzzySet@@@std@@@2@@std@@QAE@XZ ; std::map<std::basic_string<char,std::char_traits<char>,std::allocator<char> >,FuzzySet *,std::less<std::basic_string<char,std::char_traits<char>,std::allocator<char> > >,std::allocator<std::pair<std::basic_string<char,std::char_traits<char>,std::allocator<char> > const ,FuzzySet *> > >::map<std::basic_string<char,std::char_traits<char>,std::allocator<char> >,FuzzySet *,std::less<std::basic_string<char,std::char_traits<char>,std::allocator<char> > >,std::allocator<std::pair<std::basic_string<char,std::char_traits<char>,std::allocator<char> > const ,FuzzySet *> > >
EXTRN	__fltused:DWORD
;	COMDAT __real@0000000000000000
; File c:\users\teaja\documents\artificial-fun\labravenprojecttest\common\fuzzy\fuzzyvariable.h
CONST	SEGMENT
__real@0000000000000000 DQ 00000000000000000r	; 0
; Function compile flags: /Odtp /RTCsu
CONST	ENDS
;	COMDAT ??0FuzzyVariable@@QAE@XZ
_TEXT	SEGMENT
_this$ = -4						; size = 4
??0FuzzyVariable@@QAE@XZ PROC				; FuzzyVariable::FuzzyVariable, COMDAT
; _this$ = ecx

; 61   :   FuzzyVariable():m_dMinRange(0.0),m_dMaxRange(0.0){}

	push	ebp
	mov	ebp, esp
	push	ecx
	mov	DWORD PTR [ebp-4], -858993460		; ccccccccH
	mov	DWORD PTR _this$[ebp], ecx
	mov	ecx, DWORD PTR _this$[ebp]
	call	??0?$map@V?$basic_string@DU?$char_traits@D@std@@V?$allocator@D@2@@std@@PAVFuzzySet@@U?$less@V?$basic_string@DU?$char_traits@D@std@@V?$allocator@D@2@@std@@@2@V?$allocator@U?$pair@$$CBV?$basic_string@DU?$char_traits@D@std@@V?$allocator@D@2@@std@@PAVFuzzySet@@@std@@@2@@std@@QAE@XZ ; std::map<std::basic_string<char,std::char_traits<char>,std::allocator<char> >,FuzzySet *,std::less<std::basic_string<char,std::char_traits<char>,std::allocator<char> > >,std::allocator<std::pair<std::basic_string<char,std::char_traits<char>,std::allocator<char> > const ,FuzzySet *> > >::map<std::basic_string<char,std::char_traits<char>,std::allocator<char> >,FuzzySet *,std::less<std::basic_string<char,std::char_traits<char>,std::allocator<char> > >,std::allocator<std::pair<std::basic_string<char,std::char_traits<char>,std::allocator<char> > const ,FuzzySet *> > >
	mov	eax, DWORD PTR _this$[ebp]
	fldz
	fstp	QWORD PTR [eax+24]
	mov	ecx, DWORD PTR _this$[ebp]
	fldz
	fstp	QWORD PTR [ecx+32]
	mov	eax, DWORD PTR _this$[ebp]
	add	esp, 4
	cmp	ebp, esp
	call	__RTC_CheckEsp
	mov	esp, ebp
	pop	ebp
	ret	0
??0FuzzyVariable@@QAE@XZ ENDP				; FuzzyVariable::FuzzyVariable
_TEXT	ENDS
PUBLIC	??6?$basic_ostream@DU?$char_traits@D@std@@@std@@QAEAAV01@P6AAAV01@AAV01@@Z@Z ; std::basic_ostream<char,std::char_traits<char> >::operator<<
PUBLIC	?endl@std@@YAAAV?$basic_ostream@DU?$char_traits@D@std@@@1@AAV21@@Z ; std::endl
PUBLIC	??$?6DU?$char_traits@D@std@@V?$allocator@D@1@@std@@YAAAV?$basic_ostream@DU?$char_traits@D@std@@@0@AAV10@ABV?$basic_string@DU?$char_traits@D@std@@V?$allocator@D@2@@0@@Z ; std::operator<<<char,std::char_traits<char>,std::allocator<char> >
PUBLIC	??$?6U?$char_traits@D@std@@@std@@YAAAV?$basic_ostream@DU?$char_traits@D@std@@@0@AAV10@PBD@Z ; std::operator<<<std::char_traits<char> >
PUBLIC	?WriteAllDOMs@FuzzyModule@@QAEAAV?$basic_ostream@DU?$char_traits@D@std@@@std@@AAV23@@Z ; FuzzyModule::WriteAllDOMs
EXTRN	?WriteDOMs@FuzzyVariable@@QAEAAV?$basic_ostream@DU?$char_traits@D@std@@@std@@AAV23@@Z:PROC ; FuzzyVariable::WriteDOMs
xdata$x	SEGMENT
__unwindtable$?WriteAllDOMs@FuzzyModule@@QAEAAV?$basic_ostream@DU?$char_traits@D@std@@@std@@AAV23@@Z DD 0ffffffffH
	DD	FLAT:__unwindfunclet$?WriteAllDOMs@FuzzyModule@@QAEAAV?$basic_ostream@DU?$char_traits@D@std@@@std@@AAV23@@Z$0
	DD	00H
	DD	FLAT:__unwindfunclet$?WriteAllDOMs@FuzzyModule@@QAEAAV?$basic_ostream@DU?$char_traits@D@std@@@std@@AAV23@@Z$1
__ehfuncinfo$?WriteAllDOMs@FuzzyModule@@QAEAAV?$basic_ostream@DU?$char_traits@D@std@@@std@@AAV23@@Z DD 019930522H
	DD	02H
	DD	FLAT:__unwindtable$?WriteAllDOMs@FuzzyModule@@QAEAAV?$basic_ostream@DU?$char_traits@D@std@@@std@@AAV23@@Z
	DD	2 DUP(00H)
	DD	2 DUP(00H)
	DD	00H
	DD	01H
; Function compile flags: /Odtp /RTCsu
; File c:\users\teaja\documents\artificial-fun\labravenprojecttest\common\fuzzy\fuzzymodule.cpp
xdata$x	ENDS
_TEXT	SEGMENT
tv154 = -64						; size = 4
tv71 = -60						; size = 4
$T52876 = -56						; size = 4
$T52875 = -52						; size = 12
$T52874 = -37						; size = 1
_curVar$ = -32						; size = 12
_this$ = -16						; size = 4
__$EHRec$ = -12						; size = 12
_os$ = 8						; size = 4
?WriteAllDOMs@FuzzyModule@@QAEAAV?$basic_ostream@DU?$char_traits@D@std@@@std@@AAV23@@Z PROC ; FuzzyModule::WriteAllDOMs
; _this$ = ecx

; 45   : {

	push	ebp
	mov	ebp, esp
	push	-1
	push	__ehhandler$?WriteAllDOMs@FuzzyModule@@QAEAAV?$basic_ostream@DU?$char_traits@D@std@@@std@@AAV23@@Z
	mov	eax, DWORD PTR fs:0
	push	eax
	sub	esp, 52					; 00000034H
	push	edi
	push	ecx
	lea	edi, DWORD PTR [ebp-64]
	mov	ecx, 13					; 0000000dH
	mov	eax, -858993460				; ccccccccH
	rep stosd
	pop	ecx
	mov	eax, DWORD PTR ___security_cookie
	xor	eax, ebp
	push	eax
	lea	eax, DWORD PTR __$EHRec$[ebp]
	mov	DWORD PTR fs:0, eax
	mov	DWORD PTR _this$[ebp], ecx

; 46   :   os << "\n\n";

	push	OFFSET $SG46136
	mov	eax, DWORD PTR _os$[ebp]
	push	eax
	call	??$?6U?$char_traits@D@std@@@std@@YAAAV?$basic_ostream@DU?$char_traits@D@std@@@0@AAV10@PBD@Z ; std::operator<<<std::char_traits<char> >
	add	esp, 8

; 47   :   
; 48   :   VarMap::iterator curVar = m_Variables.begin();

	lea	ecx, DWORD PTR _curVar$[ebp]
	push	ecx
	mov	ecx, DWORD PTR _this$[ebp]
	call	?begin@?$_Tree@V?$_Tmap_traits@V?$basic_string@DU?$char_traits@D@std@@V?$allocator@D@2@@std@@PAVFuzzyVariable@@U?$less@V?$basic_string@DU?$char_traits@D@std@@V?$allocator@D@2@@std@@@2@V?$allocator@U?$pair@$$CBV?$basic_string@DU?$char_traits@D@std@@V?$allocator@D@2@@std@@PAVFuzzyVariable@@@std@@@2@$0A@@std@@@std@@QAE?AV?$_Tree_iterator@V?$_Tree_val@V?$_Tmap_traits@V?$basic_string@DU?$char_traits@D@std@@V?$allocator@D@2@@std@@PAVFuzzyVariable@@U?$less@V?$basic_string@DU?$char_traits@D@std@@V?$allocator@D@2@@std@@@2@V?$allocator@U?$pair@$$CBV?$basic_string@DU?$char_traits@D@std@@V?$allocator@D@2@@std@@PAVFuzzyVariable@@@std@@@2@$0A@@std@@@std@@@2@XZ ; std::_Tree<std::_Tmap_traits<std::basic_string<char,std::char_traits<char>,std::allocator<char> >,FuzzyVariable *,std::less<std::basic_string<char,std::char_traits<char>,std::allocator<char> > >,std::allocator<std::pair<std::basic_string<char,std::char_traits<char>,std::allocator<char> > const ,FuzzyVariable *> >,0> >::begin
	mov	DWORD PTR __$EHRec$[ebp+8], 0
	jmp	SHORT $LN3@WriteAllDO
$LN2@WriteAllDO:

; 49   :   for (curVar; curVar != m_Variables.end(); ++curVar)

	lea	ecx, DWORD PTR _curVar$[ebp]
	call	??E?$_Tree_iterator@V?$_Tree_val@V?$_Tmap_traits@V?$basic_string@DU?$char_traits@D@std@@V?$allocator@D@2@@std@@PAVFuzzyVariable@@U?$less@V?$basic_string@DU?$char_traits@D@std@@V?$allocator@D@2@@std@@@2@V?$allocator@U?$pair@$$CBV?$basic_string@DU?$char_traits@D@std@@V?$allocator@D@2@@std@@PAVFuzzyVariable@@@std@@@2@$0A@@std@@@std@@@std@@QAEAAV01@XZ ; std::_Tree_iterator<std::_Tree_val<std::_Tmap_traits<std::basic_string<char,std::char_traits<char>,std::allocator<char> >,FuzzyVariable *,std::less<std::basic_string<char,std::char_traits<char>,std::allocator<char> > >,std::allocator<std::pair<std::basic_string<char,std::char_traits<char>,std::allocator<char> > const ,FuzzyVariable *> >,0> > >::operator++
$LN3@WriteAllDO:
	lea	edx, DWORD PTR $T52875[ebp]
	push	edx
	mov	ecx, DWORD PTR _this$[ebp]
	call	?end@?$_Tree@V?$_Tmap_traits@V?$basic_string@DU?$char_traits@D@std@@V?$allocator@D@2@@std@@PAVFuzzyVariable@@U?$less@V?$basic_string@DU?$char_traits@D@std@@V?$allocator@D@2@@std@@@2@V?$allocator@U?$pair@$$CBV?$basic_string@DU?$char_traits@D@std@@V?$allocator@D@2@@std@@PAVFuzzyVariable@@@std@@@2@$0A@@std@@@std@@QAE?AV?$_Tree_iterator@V?$_Tree_val@V?$_Tmap_traits@V?$basic_string@DU?$char_traits@D@std@@V?$allocator@D@2@@std@@PAVFuzzyVariable@@U?$less@V?$basic_string@DU?$char_traits@D@std@@V?$allocator@D@2@@std@@@2@V?$allocator@U?$pair@$$CBV?$basic_string@DU?$char_traits@D@std@@V?$allocator@D@2@@std@@PAVFuzzyVariable@@@std@@@2@$0A@@std@@@std@@@2@XZ ; std::_Tree<std::_Tmap_traits<std::basic_string<char,std::char_traits<char>,std::allocator<char> >,FuzzyVariable *,std::less<std::basic_string<char,std::char_traits<char>,std::allocator<char> > >,std::allocator<std::pair<std::basic_string<char,std::char_traits<char>,std::allocator<char> > const ,FuzzyVariable *> >,0> >::end
	mov	DWORD PTR tv71[ebp], eax
	mov	eax, DWORD PTR tv71[ebp]
	mov	DWORD PTR tv154[ebp], eax
	mov	BYTE PTR __$EHRec$[ebp+8], 1
	mov	ecx, DWORD PTR tv154[ebp]
	push	ecx
	lea	ecx, DWORD PTR _curVar$[ebp]
	call	??9?$_Tree_const_iterator@V?$_Tree_val@V?$_Tmap_traits@V?$basic_string@DU?$char_traits@D@std@@V?$allocator@D@2@@std@@PAVFuzzyVariable@@U?$less@V?$basic_string@DU?$char_traits@D@std@@V?$allocator@D@2@@std@@@2@V?$allocator@U?$pair@$$CBV?$basic_string@DU?$char_traits@D@std@@V?$allocator@D@2@@std@@PAVFuzzyVariable@@@std@@@2@$0A@@std@@@std@@@std@@QBE_NABV01@@Z ; std::_Tree_const_iterator<std::_Tree_val<std::_Tmap_traits<std::basic_string<char,std::char_traits<char>,std::allocator<char> >,FuzzyVariable *,std::less<std::basic_string<char,std::char_traits<char>,std::allocator<char> > >,std::allocator<std::pair<std::basic_string<char,std::char_traits<char>,std::allocator<char> > const ,FuzzyVariable *> >,0> > >::operator!=
	mov	BYTE PTR $T52874[ebp], al
	mov	BYTE PTR __$EHRec$[ebp+8], 0
	lea	ecx, DWORD PTR $T52875[ebp]
	call	??1?$_Tree_iterator@V?$_Tree_val@V?$_Tmap_traits@V?$basic_string@DU?$char_traits@D@std@@V?$allocator@D@2@@std@@PAVFuzzyVariable@@U?$less@V?$basic_string@DU?$char_traits@D@std@@V?$allocator@D@2@@std@@@2@V?$allocator@U?$pair@$$CBV?$basic_string@DU?$char_traits@D@std@@V?$allocator@D@2@@std@@PAVFuzzyVariable@@@std@@@2@$0A@@std@@@std@@@std@@QAE@XZ
	movzx	edx, BYTE PTR $T52874[ebp]
	test	edx, edx
	je	SHORT $LN1@WriteAllDO

; 50   :   {
; 51   :     os << "\n--------------------------- " << curVar->first;;

	lea	ecx, DWORD PTR _curVar$[ebp]
	call	??C?$_Tree_iterator@V?$_Tree_val@V?$_Tmap_traits@V?$basic_string@DU?$char_traits@D@std@@V?$allocator@D@2@@std@@PAVFuzzyVariable@@U?$less@V?$basic_string@DU?$char_traits@D@std@@V?$allocator@D@2@@std@@@2@V?$allocator@U?$pair@$$CBV?$basic_string@DU?$char_traits@D@std@@V?$allocator@D@2@@std@@PAVFuzzyVariable@@@std@@@2@$0A@@std@@@std@@@std@@QBEPAU?$pair@$$CBV?$basic_string@DU?$char_traits@D@std@@V?$allocator@D@2@@std@@PAVFuzzyVariable@@@1@XZ ; std::_Tree_iterator<std::_Tree_val<std::_Tmap_traits<std::basic_string<char,std::char_traits<char>,std::allocator<char> >,FuzzyVariable *,std::less<std::basic_string<char,std::char_traits<char>,std::allocator<char> > >,std::allocator<std::pair<std::basic_string<char,std::char_traits<char>,std::allocator<char> > const ,FuzzyVariable *> >,0> > >::operator->
	push	eax
	push	OFFSET $SG46177
	mov	eax, DWORD PTR _os$[ebp]
	push	eax
	call	??$?6U?$char_traits@D@std@@@std@@YAAAV?$basic_ostream@DU?$char_traits@D@std@@@0@AAV10@PBD@Z ; std::operator<<<std::char_traits<char> >
	add	esp, 8
	push	eax
	call	??$?6DU?$char_traits@D@std@@V?$allocator@D@1@@std@@YAAAV?$basic_ostream@DU?$char_traits@D@std@@@0@AAV10@ABV?$basic_string@DU?$char_traits@D@std@@V?$allocator@D@2@@0@@Z ; std::operator<<<char,std::char_traits<char>,std::allocator<char> >
	add	esp, 8

; 52   :     curVar->second->WriteDOMs(os);

	mov	ecx, DWORD PTR _os$[ebp]
	push	ecx
	lea	ecx, DWORD PTR _curVar$[ebp]
	call	??C?$_Tree_iterator@V?$_Tree_val@V?$_Tmap_traits@V?$basic_string@DU?$char_traits@D@std@@V?$allocator@D@2@@std@@PAVFuzzyVariable@@U?$less@V?$basic_string@DU?$char_traits@D@std@@V?$allocator@D@2@@std@@@2@V?$allocator@U?$pair@$$CBV?$basic_string@DU?$char_traits@D@std@@V?$allocator@D@2@@std@@PAVFuzzyVariable@@@std@@@2@$0A@@std@@@std@@@std@@QBEPAU?$pair@$$CBV?$basic_string@DU?$char_traits@D@std@@V?$allocator@D@2@@std@@PAVFuzzyVariable@@@1@XZ ; std::_Tree_iterator<std::_Tree_val<std::_Tmap_traits<std::basic_string<char,std::char_traits<char>,std::allocator<char> >,FuzzyVariable *,std::less<std::basic_string<char,std::char_traits<char>,std::allocator<char> > >,std::allocator<std::pair<std::basic_string<char,std::char_traits<char>,std::allocator<char> > const ,FuzzyVariable *> >,0> > >::operator->
	mov	ecx, DWORD PTR [eax+32]
	call	?WriteDOMs@FuzzyVariable@@QAEAAV?$basic_ostream@DU?$char_traits@D@std@@@std@@AAV23@@Z ; FuzzyVariable::WriteDOMs

; 53   : 
; 54   :     os << std::endl;

	push	OFFSET ?endl@std@@YAAAV?$basic_ostream@DU?$char_traits@D@std@@@1@AAV21@@Z ; std::endl
	mov	ecx, DWORD PTR _os$[ebp]
	call	??6?$basic_ostream@DU?$char_traits@D@std@@@std@@QAEAAV01@P6AAAV01@AAV01@@Z@Z ; std::basic_ostream<char,std::char_traits<char> >::operator<<

; 55   :   }

	jmp	$LN2@WriteAllDO
$LN1@WriteAllDO:

; 56   : 
; 57   :   return os;

	mov	edx, DWORD PTR _os$[ebp]
	mov	DWORD PTR $T52876[ebp], edx
	mov	DWORD PTR __$EHRec$[ebp+8], -1
	lea	ecx, DWORD PTR _curVar$[ebp]
	call	??1?$_Tree_iterator@V?$_Tree_val@V?$_Tmap_traits@V?$basic_string@DU?$char_traits@D@std@@V?$allocator@D@2@@std@@PAVFuzzyVariable@@U?$less@V?$basic_string@DU?$char_traits@D@std@@V?$allocator@D@2@@std@@@2@V?$allocator@U?$pair@$$CBV?$basic_string@DU?$char_traits@D@std@@V?$allocator@D@2@@std@@PAVFuzzyVariable@@@std@@@2@$0A@@std@@@std@@@std@@QAE@XZ
	mov	eax, DWORD PTR $T52876[ebp]

; 58   : }

	push	edx
	mov	ecx, ebp
	push	eax
	lea	edx, DWORD PTR $LN11@WriteAllDO
	call	@_RTC_CheckStackVars@8
	pop	eax
	pop	edx
	mov	ecx, DWORD PTR __$EHRec$[ebp]
	mov	DWORD PTR fs:0, ecx
	pop	ecx
	pop	edi
	add	esp, 64					; 00000040H
	cmp	ebp, esp
	call	__RTC_CheckEsp
	mov	esp, ebp
	pop	ebp
	ret	4
	npad	2
$LN11@WriteAllDO:
	DD	1
	DD	$LN10@WriteAllDO
$LN10@WriteAllDO:
	DD	-32					; ffffffe0H
	DD	12					; 0000000cH
	DD	$LN8@WriteAllDO
$LN8@WriteAllDO:
	DB	99					; 00000063H
	DB	117					; 00000075H
	DB	114					; 00000072H
	DB	86					; 00000056H
	DB	97					; 00000061H
	DB	114					; 00000072H
	DB	0
_TEXT	ENDS
text$x	SEGMENT
__unwindfunclet$?WriteAllDOMs@FuzzyModule@@QAEAAV?$basic_ostream@DU?$char_traits@D@std@@@std@@AAV23@@Z$0:
	lea	ecx, DWORD PTR _curVar$[ebp]
	jmp	??1?$_Tree_iterator@V?$_Tree_val@V?$_Tmap_traits@V?$basic_string@DU?$char_traits@D@std@@V?$allocator@D@2@@std@@PAVFuzzyVariable@@U?$less@V?$basic_string@DU?$char_traits@D@std@@V?$allocator@D@2@@std@@@2@V?$allocator@U?$pair@$$CBV?$basic_string@DU?$char_traits@D@std@@V?$allocator@D@2@@std@@PAVFuzzyVariable@@@std@@@2@$0A@@std@@@std@@@std@@QAE@XZ
__unwindfunclet$?WriteAllDOMs@FuzzyModule@@QAEAAV?$basic_ostream@DU?$char_traits@D@std@@@std@@AAV23@@Z$1:
	lea	ecx, DWORD PTR $T52875[ebp]
	jmp	??1?$_Tree_iterator@V?$_Tree_val@V?$_Tmap_traits@V?$basic_string@DU?$char_traits@D@std@@V?$allocator@D@2@@std@@PAVFuzzyVariable@@U?$less@V?$basic_string@DU?$char_traits@D@std@@V?$allocator@D@2@@std@@@2@V?$allocator@U?$pair@$$CBV?$basic_string@DU?$char_traits@D@std@@V?$allocator@D@2@@std@@PAVFuzzyVariable@@@std@@@2@$0A@@std@@@std@@@std@@QAE@XZ
__ehhandler$?WriteAllDOMs@FuzzyModule@@QAEAAV?$basic_ostream@DU?$char_traits@D@std@@@std@@AAV23@@Z:
	mov	edx, DWORD PTR [esp+8]
	lea	eax, DWORD PTR [edx+12]
	mov	ecx, DWORD PTR [edx-60]
	xor	ecx, eax
	call	@__security_check_cookie@4
	mov	eax, OFFSET __ehfuncinfo$?WriteAllDOMs@FuzzyModule@@QAEAAV?$basic_ostream@DU?$char_traits@D@std@@@std@@AAV23@@Z
	jmp	___CxxFrameHandler3
text$x	ENDS
?WriteAllDOMs@FuzzyModule@@QAEAAV?$basic_ostream@DU?$char_traits@D@std@@@std@@AAV23@@Z ENDP ; FuzzyModule::WriteAllDOMs
PUBLIC	?flush@?$basic_ostream@DU?$char_traits@D@std@@@std@@QAEAAV12@XZ ; std::basic_ostream<char,std::char_traits<char> >::flush
PUBLIC	?put@?$basic_ostream@DU?$char_traits@D@std@@@std@@QAEAAV12@D@Z ; std::basic_ostream<char,std::char_traits<char> >::put
; Function compile flags: /Odtp /RTCsu
; File c:\program files (x86)\microsoft visual studio 10.0\vc\include\ostream
;	COMDAT ?endl@std@@YAAAV?$basic_ostream@DU?$char_traits@D@std@@@1@AAV21@@Z
_TEXT	SEGMENT
__Ostr$ = 8						; size = 4
?endl@std@@YAAAV?$basic_ostream@DU?$char_traits@D@std@@@1@AAV21@@Z PROC ; std::endl, COMDAT

; 1004 : 	{	// insert newline and flush byte stream

	push	ebp
	mov	ebp, esp

; 1005 : 	_Ostr.put('\n');

	push	10					; 0000000aH
	mov	ecx, DWORD PTR __Ostr$[ebp]
	call	?put@?$basic_ostream@DU?$char_traits@D@std@@@std@@QAEAAV12@D@Z ; std::basic_ostream<char,std::char_traits<char> >::put

; 1006 : 	_Ostr.flush();

	mov	ecx, DWORD PTR __Ostr$[ebp]
	call	?flush@?$basic_ostream@DU?$char_traits@D@std@@@std@@QAEAAV12@XZ ; std::basic_ostream<char,std::char_traits<char> >::flush

; 1007 : 	return (_Ostr);

	mov	eax, DWORD PTR __Ostr$[ebp]

; 1008 : 	}

	cmp	ebp, esp
	call	__RTC_CheckEsp
	pop	ebp
	ret	0
?endl@std@@YAAAV?$basic_ostream@DU?$char_traits@D@std@@@1@AAV21@@Z ENDP ; std::endl
_TEXT	ENDS
PUBLIC	??$_Debug_pointer@$$A6AAAV?$basic_ostream@DU?$char_traits@D@std@@@std@@AAV12@@Z@std@@YAXP6AAAV?$basic_ostream@DU?$char_traits@D@std@@@0@AAV10@@ZPB_WI@Z ; std::_Debug_pointer<std::basic_ostream<char,std::char_traits<char> > & __cdecl(std::basic_ostream<char,std::char_traits<char> > &)>
PUBLIC	??_C@_1IO@ILFCAKEO@?$AAc?$AA?3?$AA?2?$AAP?$AAr?$AAo?$AAg?$AAr?$AAa?$AAm?$AA?5?$AAF?$AAi?$AAl?$AAe?$AAs?$AA?5?$AA?$CI?$AAx?$AA8?$AA6?$AA?$CJ?$AA?2?$AAM?$AAi?$AAc?$AAr?$AAo?$AAs?$AAo?$AAf?$AAt@ ; `string'
;	COMDAT ??_C@_1IO@ILFCAKEO@?$AAc?$AA?3?$AA?2?$AAP?$AAr?$AAo?$AAg?$AAr?$AAa?$AAm?$AA?5?$AAF?$AAi?$AAl?$AAe?$AAs?$AA?5?$AA?$CI?$AAx?$AA8?$AA6?$AA?$CJ?$AA?2?$AAM?$AAi?$AAc?$AAr?$AAo?$AAs?$AAo?$AAf?$AAt@
CONST	SEGMENT
??_C@_1IO@ILFCAKEO@?$AAc?$AA?3?$AA?2?$AAP?$AAr?$AAo?$AAg?$AAr?$AAa?$AAm?$AA?5?$AAF?$AAi?$AAl?$AAe?$AAs?$AA?5?$AA?$CI?$AAx?$AA8?$AA6?$AA?$CJ?$AA?2?$AAM?$AAi?$AAc?$AAr?$AAo?$AAs?$AAo?$AAf?$AAt@ DB 'c'
	DB	00H, ':', 00H, '\', 00H, 'P', 00H, 'r', 00H, 'o', 00H, 'g', 00H
	DB	'r', 00H, 'a', 00H, 'm', 00H, ' ', 00H, 'F', 00H, 'i', 00H, 'l'
	DB	00H, 'e', 00H, 's', 00H, ' ', 00H, '(', 00H, 'x', 00H, '8', 00H
	DB	'6', 00H, ')', 00H, '\', 00H, 'M', 00H, 'i', 00H, 'c', 00H, 'r'
	DB	00H, 'o', 00H, 's', 00H, 'o', 00H, 'f', 00H, 't', 00H, ' ', 00H
	DB	'V', 00H, 'i', 00H, 's', 00H, 'u', 00H, 'a', 00H, 'l', 00H, ' '
	DB	00H, 'S', 00H, 't', 00H, 'u', 00H, 'd', 00H, 'i', 00H, 'o', 00H
	DB	' ', 00H, '1', 00H, '0', 00H, '.', 00H, '0', 00H, '\', 00H, 'V'
	DB	00H, 'C', 00H, '\', 00H, 'i', 00H, 'n', 00H, 'c', 00H, 'l', 00H
	DB	'u', 00H, 'd', 00H, 'e', 00H, '\', 00H, 'o', 00H, 's', 00H, 't'
	DB	00H, 'r', 00H, 'e', 00H, 'a', 00H, 'm', 00H, 00H, 00H ; `string'
; Function compile flags: /Odtp /RTCsu
CONST	ENDS
;	COMDAT ??6?$basic_ostream@DU?$char_traits@D@std@@@std@@QAEAAV01@P6AAAV01@AAV01@@Z@Z
_TEXT	SEGMENT
_this$ = -4						; size = 4
__Pfn$ = 8						; size = 4
??6?$basic_ostream@DU?$char_traits@D@std@@@std@@QAEAAV01@P6AAAV01@AAV01@@Z@Z PROC ; std::basic_ostream<char,std::char_traits<char> >::operator<<, COMDAT
; _this$ = ecx

; 187  : 		{	// call basic_ostream manipulator

	push	ebp
	mov	ebp, esp
	push	ecx
	push	esi
	mov	DWORD PTR [ebp-4], -858993460		; ccccccccH
	mov	DWORD PTR _this$[ebp], ecx

; 188  : 		_DEBUG_POINTER(_Pfn);

	push	188					; 000000bcH
	push	OFFSET ??_C@_1IO@ILFCAKEO@?$AAc?$AA?3?$AA?2?$AAP?$AAr?$AAo?$AAg?$AAr?$AAa?$AAm?$AA?5?$AAF?$AAi?$AAl?$AAe?$AAs?$AA?5?$AA?$CI?$AAx?$AA8?$AA6?$AA?$CJ?$AA?2?$AAM?$AAi?$AAc?$AAr?$AAo?$AAs?$AAo?$AAf?$AAt@
	mov	eax, DWORD PTR __Pfn$[ebp]
	push	eax
	call	??$_Debug_pointer@$$A6AAAV?$basic_ostream@DU?$char_traits@D@std@@@std@@AAV12@@Z@std@@YAXP6AAAV?$basic_ostream@DU?$char_traits@D@std@@@0@AAV10@@ZPB_WI@Z ; std::_Debug_pointer<std::basic_ostream<char,std::char_traits<char> > & __cdecl(std::basic_ostream<char,std::char_traits<char> > &)>
	add	esp, 12					; 0000000cH

; 189  : 		return ((*_Pfn)(*this));

	mov	esi, esp
	mov	ecx, DWORD PTR _this$[ebp]
	push	ecx
	call	DWORD PTR __Pfn$[ebp]
	add	esp, 4
	cmp	esi, esp
	call	__RTC_CheckEsp

; 190  : 		}

	pop	esi
	add	esp, 4
	cmp	ebp, esp
	call	__RTC_CheckEsp
	mov	esp, ebp
	pop	ebp
	ret	4
??6?$basic_ostream@DU?$char_traits@D@std@@@std@@QAEAAV01@P6AAAV01@AAV01@@Z@Z ENDP ; std::basic_ostream<char,std::char_traits<char> >::operator<<
_TEXT	ENDS
PUBLIC	??1sentry@?$basic_ostream@DU?$char_traits@D@std@@@std@@QAE@XZ ; std::basic_ostream<char,std::char_traits<char> >::sentry::~sentry
PUBLIC	?setstate@?$basic_ios@DU?$char_traits@D@std@@@std@@QAEXH_N@Z ; std::basic_ios<char,std::char_traits<char> >::setstate
PUBLIC	?eq_int_type@?$char_traits@D@std@@SA_NABH0@Z	; std::char_traits<char>::eq_int_type
PUBLIC	?eof@?$char_traits@D@std@@SAHXZ			; std::char_traits<char>::eof
PUBLIC	?sputc@?$basic_streambuf@DU?$char_traits@D@std@@@std@@QAEHD@Z ; std::basic_streambuf<char,std::char_traits<char> >::sputc
PUBLIC	?rdbuf@?$basic_ios@DU?$char_traits@D@std@@@std@@QBEPAV?$basic_streambuf@DU?$char_traits@D@std@@@2@XZ ; std::basic_ios<char,std::char_traits<char> >::rdbuf
PUBLIC	??Bsentry@?$basic_ostream@DU?$char_traits@D@std@@@std@@QBEPQ_Bool_struct@2@HXZ ; std::basic_ostream<char,std::char_traits<char> >::sentry::operator int std::_Bool_struct::*
PUBLIC	??0sentry@?$basic_ostream@DU?$char_traits@D@std@@@std@@QAE@AAV12@@Z ; std::basic_ostream<char,std::char_traits<char> >::sentry::sentry
;	COMDAT xdata$x
xdata$x	SEGMENT
__catchsym$?put@?$basic_ostream@DU?$char_traits@D@std@@@std@@QAEAAV12@D@Z$3 DD 040H
	DD	00H
	DD	00H
	DD	FLAT:__catch$?put@?$basic_ostream@DU?$char_traits@D@std@@@std@@QAEAAV12@D@Z$0
__tryblocktable$?put@?$basic_ostream@DU?$char_traits@D@std@@@std@@QAEAAV12@D@Z DD 01H
	DD	01H
	DD	02H
	DD	01H
	DD	FLAT:__catchsym$?put@?$basic_ostream@DU?$char_traits@D@std@@@std@@QAEAAV12@D@Z$3
__unwindtable$?put@?$basic_ostream@DU?$char_traits@D@std@@@std@@QAEAAV12@D@Z DD 0ffffffffH
	DD	FLAT:__unwindfunclet$?put@?$basic_ostream@DU?$char_traits@D@std@@@std@@QAEAAV12@D@Z$2
	DD	00H
	DD	00H
	DD	00H
	DD	00H
__ehfuncinfo$?put@?$basic_ostream@DU?$char_traits@D@std@@@std@@QAEAAV12@D@Z DD 019930522H
	DD	03H
	DD	FLAT:__unwindtable$?put@?$basic_ostream@DU?$char_traits@D@std@@@std@@QAEAAV12@D@Z
	DD	01H
	DD	FLAT:__tryblocktable$?put@?$basic_ostream@DU?$char_traits@D@std@@@std@@QAEAAV12@D@Z
	DD	2 DUP(00H)
	DD	00H
	DD	01H
; Function compile flags: /Odtp /RTCsu
xdata$x	ENDS
;	COMDAT ?put@?$basic_ostream@DU?$char_traits@D@std@@@std@@QAEAAV12@D@Z
_TEXT	SEGMENT
tv154 = -65						; size = 1
tv153 = -64						; size = 4
tv152 = -60						; size = 4
tv65 = -56						; size = 4
$T52893 = -52						; size = 4
$T52892 = -48						; size = 4
$T52891 = -44						; size = 4
__Ok$ = -36						; size = 8
__State$ = -24						; size = 4
_this$ = -20						; size = 4
__$EHRec$ = -16						; size = 16
__Ch$ = 8						; size = 1
?put@?$basic_ostream@DU?$char_traits@D@std@@@std@@QAEAAV12@D@Z PROC ; std::basic_ostream<char,std::char_traits<char> >::put, COMDAT
; _this$ = ecx

; 525  : 		{	// insert a character

	push	ebp
	mov	ebp, esp
	push	-1
	push	__ehhandler$?put@?$basic_ostream@DU?$char_traits@D@std@@@std@@QAEAAV12@D@Z
	mov	eax, DWORD PTR fs:0
	push	eax
	push	ecx
	sub	esp, 52					; 00000034H
	push	ebx
	push	esi
	push	edi
	push	ecx
	lea	edi, DWORD PTR [ebp-68]
	mov	ecx, 13					; 0000000dH
	mov	eax, -858993460				; ccccccccH
	rep stosd
	pop	ecx
	mov	eax, DWORD PTR ___security_cookie
	xor	eax, ebp
	push	eax
	lea	eax, DWORD PTR __$EHRec$[ebp+4]
	mov	DWORD PTR fs:0, eax
	mov	DWORD PTR __$EHRec$[ebp], esp
	mov	DWORD PTR _this$[ebp], ecx

; 526  : 		ios_base::iostate _State = ios_base::goodbit;

	mov	DWORD PTR __State$[ebp], 0

; 527  : 		const sentry _Ok(*this);

	mov	eax, DWORD PTR _this$[ebp]
	push	eax
	lea	ecx, DWORD PTR __Ok$[ebp]
	call	??0sentry@?$basic_ostream@DU?$char_traits@D@std@@@std@@QAE@AAV12@@Z ; std::basic_ostream<char,std::char_traits<char> >::sentry::sentry
	mov	DWORD PTR __$EHRec$[ebp+12], 0

; 528  : 
; 529  : 		if (!_Ok)

	lea	ecx, DWORD PTR __Ok$[ebp]
	call	??Bsentry@?$basic_ostream@DU?$char_traits@D@std@@@std@@QBEPQ_Bool_struct@2@HXZ ; std::basic_ostream<char,std::char_traits<char> >::sentry::operator int std::_Bool_struct::*
	cmp	eax, -1
	jne	SHORT $LN4@put

; 530  : 			_State |= ios_base::badbit;

	mov	ecx, DWORD PTR __State$[ebp]
	or	ecx, 4
	mov	DWORD PTR __State$[ebp], ecx

; 531  : 		else

	jmp	$LN3@put
$LN4@put:

; 532  : 			{	// state okay, insert character
; 533  : 			_TRY_IO_BEGIN

	mov	BYTE PTR __$EHRec$[ebp+12], 1

; 534  : 			if (_Traits::eq_int_type(_Traits::eof(),
; 535  : 				_Myios::rdbuf()->sputc(_Ch)))

	mov	edx, DWORD PTR _this$[ebp]
	mov	eax, DWORD PTR [edx]
	mov	ecx, DWORD PTR _this$[ebp]
	add	ecx, DWORD PTR [eax+4]
	call	?rdbuf@?$basic_ios@DU?$char_traits@D@std@@@std@@QBEPAV?$basic_streambuf@DU?$char_traits@D@std@@@2@XZ ; std::basic_ios<char,std::char_traits<char> >::rdbuf
	mov	DWORD PTR tv65[ebp], eax
	movzx	ecx, BYTE PTR __Ch$[ebp]
	push	ecx
	mov	ecx, DWORD PTR tv65[ebp]
	call	?sputc@?$basic_streambuf@DU?$char_traits@D@std@@@std@@QAEHD@Z ; std::basic_streambuf<char,std::char_traits<char> >::sputc
	mov	DWORD PTR tv152[ebp], eax
	mov	edx, DWORD PTR tv152[ebp]
	mov	DWORD PTR $T52891[ebp], edx
	call	?eof@?$char_traits@D@std@@SAHXZ		; std::char_traits<char>::eof
	mov	DWORD PTR tv153[ebp], eax
	mov	eax, DWORD PTR tv153[ebp]
	mov	DWORD PTR $T52892[ebp], eax
	lea	ecx, DWORD PTR $T52891[ebp]
	push	ecx
	lea	edx, DWORD PTR $T52892[ebp]
	push	edx
	call	?eq_int_type@?$char_traits@D@std@@SA_NABH0@Z ; std::char_traits<char>::eq_int_type
	add	esp, 8
	mov	BYTE PTR tv154[ebp], al
	movzx	eax, BYTE PTR tv154[ebp]
	test	eax, eax
	je	SHORT $LN1@put

; 536  : 				_State |= ios_base::badbit;

	mov	ecx, DWORD PTR __State$[ebp]
	or	ecx, 4
	mov	DWORD PTR __State$[ebp], ecx
$LN1@put:
	jmp	SHORT $LN7@put
__catch$?put@?$basic_ostream@DU?$char_traits@D@std@@@std@@QAEAAV12@D@Z$0:

; 537  : 			_CATCH_IO_END

	push	1
	push	4
	mov	edx, DWORD PTR _this$[ebp]
	mov	eax, DWORD PTR [edx]
	mov	ecx, DWORD PTR _this$[ebp]
	add	ecx, DWORD PTR [eax+4]
	call	?setstate@?$basic_ios@DU?$char_traits@D@std@@@std@@QAEXH_N@Z ; std::basic_ios<char,std::char_traits<char> >::setstate
	mov	DWORD PTR __$EHRec$[ebp+12], 0
	mov	eax, $LN3@put
	ret	0
$LN7@put:
	mov	DWORD PTR __$EHRec$[ebp+12], 0
$LN3@put:

; 538  : 			}
; 539  : 
; 540  : 		_Myios::setstate(_State);

	push	0
	mov	ecx, DWORD PTR __State$[ebp]
	push	ecx
	mov	edx, DWORD PTR _this$[ebp]
	mov	eax, DWORD PTR [edx]
	mov	ecx, DWORD PTR _this$[ebp]
	add	ecx, DWORD PTR [eax+4]
	call	?setstate@?$basic_ios@DU?$char_traits@D@std@@@std@@QAEXH_N@Z ; std::basic_ios<char,std::char_traits<char> >::setstate

; 541  : 		return (*this);

	mov	ecx, DWORD PTR _this$[ebp]
	mov	DWORD PTR $T52893[ebp], ecx
	mov	DWORD PTR __$EHRec$[ebp+12], -1
	lea	ecx, DWORD PTR __Ok$[ebp]
	call	??1sentry@?$basic_ostream@DU?$char_traits@D@std@@@std@@QAE@XZ ; std::basic_ostream<char,std::char_traits<char> >::sentry::~sentry
	mov	eax, DWORD PTR $T52893[ebp]

; 542  : 		}

	push	edx
	mov	ecx, ebp
	push	eax
	lea	edx, DWORD PTR $LN16@put
	call	@_RTC_CheckStackVars@8
	pop	eax
	pop	edx
	mov	ecx, DWORD PTR __$EHRec$[ebp+4]
	mov	DWORD PTR fs:0, ecx
	pop	ecx
	pop	edi
	pop	esi
	pop	ebx
	add	esp, 68					; 00000044H
	cmp	ebp, esp
	call	__RTC_CheckEsp
	mov	esp, ebp
	pop	ebp
	ret	4
	npad	1
$LN16@put:
	DD	1
	DD	$LN15@put
$LN15@put:
	DD	-36					; ffffffdcH
	DD	8
	DD	$LN13@put
$LN13@put:
	DB	95					; 0000005fH
	DB	79					; 0000004fH
	DB	107					; 0000006bH
	DB	0
_TEXT	ENDS
;	COMDAT text$x
text$x	SEGMENT
__unwindfunclet$?put@?$basic_ostream@DU?$char_traits@D@std@@@std@@QAEAAV12@D@Z$2:
	lea	ecx, DWORD PTR __Ok$[ebp]
	jmp	??1sentry@?$basic_ostream@DU?$char_traits@D@std@@@std@@QAE@XZ ; std::basic_ostream<char,std::char_traits<char> >::sentry::~sentry
__ehhandler$?put@?$basic_ostream@DU?$char_traits@D@std@@@std@@QAEAAV12@D@Z:
	mov	edx, DWORD PTR [esp+8]
	lea	eax, DWORD PTR [edx+12]
	mov	ecx, DWORD PTR [edx-72]
	xor	ecx, eax
	call	@__security_check_cookie@4
	mov	eax, OFFSET __ehfuncinfo$?put@?$basic_ostream@DU?$char_traits@D@std@@@std@@QAEAAV12@D@Z
	jmp	___CxxFrameHandler3
text$x	ENDS
?put@?$basic_ostream@DU?$char_traits@D@std@@@std@@QAEAAV12@D@Z ENDP ; std::basic_ostream<char,std::char_traits<char> >::put
; Function compile flags: /Odtp /RTCsu
; File c:\program files (x86)\microsoft visual studio 10.0\vc\include\iosfwd
;	COMDAT ?eq_int_type@?$char_traits@D@std@@SA_NABH0@Z
_TEXT	SEGMENT
__Left$ = 8						; size = 4
__Right$ = 12						; size = 4
?eq_int_type@?$char_traits@D@std@@SA_NABH0@Z PROC	; std::char_traits<char>::eq_int_type, COMDAT

; 552  : 		{	// test for metacharacter equality

	push	ebp
	mov	ebp, esp

; 553  : 		return (_Left == _Right);

	mov	eax, DWORD PTR __Left$[ebp]
	mov	ecx, DWORD PTR __Right$[ebp]
	mov	edx, DWORD PTR [eax]
	xor	eax, eax
	cmp	edx, DWORD PTR [ecx]
	sete	al

; 554  : 		}

	pop	ebp
	ret	0
?eq_int_type@?$char_traits@D@std@@SA_NABH0@Z ENDP	; std::char_traits<char>::eq_int_type
; Function compile flags: /Odtp /RTCsu
_TEXT	ENDS
;	COMDAT ?eof@?$char_traits@D@std@@SAHXZ
_TEXT	SEGMENT
?eof@?$char_traits@D@std@@SAHXZ PROC			; std::char_traits<char>::eof, COMDAT

; 562  : 		{	// return end-of-file metacharacter

	push	ebp
	mov	ebp, esp

; 563  : 		return (EOF);

	or	eax, -1

; 564  : 		}

	pop	ebp
	ret	0
?eof@?$char_traits@D@std@@SAHXZ ENDP			; std::char_traits<char>::eof
_TEXT	ENDS
PUBLIC	?pubsync@?$basic_streambuf@DU?$char_traits@D@std@@@std@@QAEHXZ ; std::basic_streambuf<char,std::char_traits<char> >::pubsync
PUBLIC	?fail@ios_base@std@@QBE_NXZ			; std::ios_base::fail
; Function compile flags: /Odtp /RTCsu
; File c:\program files (x86)\microsoft visual studio 10.0\vc\include\ostream
;	COMDAT ?flush@?$basic_ostream@DU?$char_traits@D@std@@@std@@QAEAAV12@XZ
_TEXT	SEGMENT
__State$ = -8						; size = 4
_this$ = -4						; size = 4
?flush@?$basic_ostream@DU?$char_traits@D@std@@@std@@QAEAAV12@XZ PROC ; std::basic_ostream<char,std::char_traits<char> >::flush, COMDAT
; _this$ = ecx

; 570  : 		{	// flush output stream

	push	ebp
	mov	ebp, esp
	sub	esp, 8
	mov	DWORD PTR [ebp-8], -858993460		; ccccccccH
	mov	DWORD PTR [ebp-4], -858993460		; ccccccccH
	mov	DWORD PTR _this$[ebp], ecx

; 571  : 		ios_base::iostate _State = ios_base::goodbit;

	mov	DWORD PTR __State$[ebp], 0

; 572  : 		if (!ios_base::fail() && _Myios::rdbuf()->pubsync() == -1)

	mov	eax, DWORD PTR _this$[ebp]
	mov	ecx, DWORD PTR [eax]
	mov	edx, DWORD PTR _this$[ebp]
	add	edx, DWORD PTR [ecx+4]
	mov	ecx, edx
	call	?fail@ios_base@std@@QBE_NXZ		; std::ios_base::fail
	movzx	eax, al
	test	eax, eax
	jne	SHORT $LN1@flush
	mov	ecx, DWORD PTR _this$[ebp]
	mov	edx, DWORD PTR [ecx]
	mov	ecx, DWORD PTR _this$[ebp]
	add	ecx, DWORD PTR [edx+4]
	call	?rdbuf@?$basic_ios@DU?$char_traits@D@std@@@std@@QBEPAV?$basic_streambuf@DU?$char_traits@D@std@@@2@XZ ; std::basic_ios<char,std::char_traits<char> >::rdbuf
	mov	ecx, eax
	call	?pubsync@?$basic_streambuf@DU?$char_traits@D@std@@@std@@QAEHXZ ; std::basic_streambuf<char,std::char_traits<char> >::pubsync
	cmp	eax, -1
	jne	SHORT $LN1@flush

; 573  : 			_State |= ios_base::badbit;	// sync failed

	mov	eax, DWORD PTR __State$[ebp]
	or	eax, 4
	mov	DWORD PTR __State$[ebp], eax
$LN1@flush:

; 574  : 		_Myios::setstate(_State);

	push	0
	mov	ecx, DWORD PTR __State$[ebp]
	push	ecx
	mov	edx, DWORD PTR _this$[ebp]
	mov	eax, DWORD PTR [edx]
	mov	ecx, DWORD PTR _this$[ebp]
	add	ecx, DWORD PTR [eax+4]
	call	?setstate@?$basic_ios@DU?$char_traits@D@std@@@std@@QAEXH_N@Z ; std::basic_ios<char,std::char_traits<char> >::setstate

; 575  : 		return (*this);

	mov	eax, DWORD PTR _this$[ebp]

; 576  : 		}

	add	esp, 8
	cmp	ebp, esp
	call	__RTC_CheckEsp
	mov	esp, ebp
	pop	ebp
	ret	0
?flush@?$basic_ostream@DU?$char_traits@D@std@@@std@@QAEAAV12@XZ ENDP ; std::basic_ostream<char,std::char_traits<char> >::flush
_TEXT	ENDS
PUBLIC	?rdstate@ios_base@std@@QBEHXZ			; std::ios_base::rdstate
; Function compile flags: /Odtp /RTCsu
; File c:\program files (x86)\microsoft visual studio 10.0\vc\include\xiosbase
;	COMDAT ?fail@ios_base@std@@QBE_NXZ
_TEXT	SEGMENT
_this$ = -4						; size = 4
?fail@ios_base@std@@QBE_NXZ PROC			; std::ios_base::fail, COMDAT
; _this$ = ecx

; 367  : 		{	// test if badbit or failbit is set in stream state

	push	ebp
	mov	ebp, esp
	push	ecx
	mov	DWORD PTR [ebp-4], -858993460		; ccccccccH
	mov	DWORD PTR _this$[ebp], ecx

; 368  : 		return (((int)rdstate()
; 369  : 			& ((int)badbit | (int)failbit)) != 0);

	mov	ecx, DWORD PTR _this$[ebp]
	call	?rdstate@ios_base@std@@QBEHXZ		; std::ios_base::rdstate
	and	eax, 6
	neg	eax
	sbb	eax, eax
	neg	eax

; 370  : 		}

	add	esp, 4
	cmp	ebp, esp
	call	__RTC_CheckEsp
	mov	esp, ebp
	pop	ebp
	ret	0
?fail@ios_base@std@@QBE_NXZ ENDP			; std::ios_base::fail
; Function compile flags: /Odtp /RTCsu
_TEXT	ENDS
;	COMDAT ?rdstate@ios_base@std@@QBEHXZ
_TEXT	SEGMENT
_this$ = -4						; size = 4
?rdstate@ios_base@std@@QBEHXZ PROC			; std::ios_base::rdstate, COMDAT
; _this$ = ecx

; 335  : 		{	// return stream state

	push	ebp
	mov	ebp, esp
	push	ecx
	mov	DWORD PTR [ebp-4], -858993460		; ccccccccH
	mov	DWORD PTR _this$[ebp], ecx

; 336  : 		return (_Mystate);

	mov	eax, DWORD PTR _this$[ebp]
	mov	eax, DWORD PTR [eax+12]

; 337  : 		}

	mov	esp, ebp
	pop	ebp
	ret	0
?rdstate@ios_base@std@@QBEHXZ ENDP			; std::ios_base::rdstate
_TEXT	ENDS
PUBLIC	?clear@?$basic_ios@DU?$char_traits@D@std@@@std@@QAEXH_N@Z ; std::basic_ios<char,std::char_traits<char> >::clear
; Function compile flags: /Odtp /RTCsu
; File c:\program files (x86)\microsoft visual studio 10.0\vc\include\ios
;	COMDAT ?setstate@?$basic_ios@DU?$char_traits@D@std@@@std@@QAEXH_N@Z
_TEXT	SEGMENT
_this$ = -4						; size = 4
__State$ = 8						; size = 4
__Reraise$ = 12						; size = 1
?setstate@?$basic_ios@DU?$char_traits@D@std@@@std@@QAEXH_N@Z PROC ; std::basic_ios<char,std::char_traits<char> >::setstate, COMDAT
; _this$ = ecx

; 54   : 		{	// merge _State into state, possible reraise exception

	push	ebp
	mov	ebp, esp
	push	ecx
	mov	DWORD PTR [ebp-4], -858993460		; ccccccccH
	mov	DWORD PTR _this$[ebp], ecx

; 55   : 		if (_State != goodbit)

	cmp	DWORD PTR __State$[ebp], 0
	je	SHORT $LN2@setstate

; 56   : 			clear((iostate)((int)rdstate() | (int)_State), _Reraise);

	movzx	eax, BYTE PTR __Reraise$[ebp]
	push	eax
	mov	ecx, DWORD PTR _this$[ebp]
	call	?rdstate@ios_base@std@@QBEHXZ		; std::ios_base::rdstate
	or	eax, DWORD PTR __State$[ebp]
	push	eax
	mov	ecx, DWORD PTR _this$[ebp]
	call	?clear@?$basic_ios@DU?$char_traits@D@std@@@std@@QAEXH_N@Z ; std::basic_ios<char,std::char_traits<char> >::clear
$LN2@setstate:

; 57   : 		}

	add	esp, 4
	cmp	ebp, esp
	call	__RTC_CheckEsp
	mov	esp, ebp
	pop	ebp
	ret	8
?setstate@?$basic_ios@DU?$char_traits@D@std@@@std@@QAEXH_N@Z ENDP ; std::basic_ios<char,std::char_traits<char> >::setstate
; Function compile flags: /Odtp /RTCsu
_TEXT	ENDS
;	COMDAT ?rdbuf@?$basic_ios@DU?$char_traits@D@std@@@std@@QBEPAV?$basic_streambuf@DU?$char_traits@D@std@@@2@XZ
_TEXT	SEGMENT
_this$ = -4						; size = 4
?rdbuf@?$basic_ios@DU?$char_traits@D@std@@@std@@QBEPAV?$basic_streambuf@DU?$char_traits@D@std@@@2@XZ PROC ; std::basic_ios<char,std::char_traits<char> >::rdbuf, COMDAT
; _this$ = ecx

; 85   : 		{	// return stream buffer pointer

	push	ebp
	mov	ebp, esp
	push	ecx
	mov	DWORD PTR [ebp-4], -858993460		; ccccccccH
	mov	DWORD PTR _this$[ebp], ecx

; 86   : 		return (_Mystrbuf);

	mov	eax, DWORD PTR _this$[ebp]
	mov	eax, DWORD PTR [eax+56]

; 87   : 		}

	mov	esp, ebp
	pop	ebp
	ret	0
?rdbuf@?$basic_ios@DU?$char_traits@D@std@@@std@@QBEPAV?$basic_streambuf@DU?$char_traits@D@std@@@2@XZ ENDP ; std::basic_ios<char,std::char_traits<char> >::rdbuf
_TEXT	ENDS
PUBLIC	??0?$_Tree@V?$_Tmap_traits@V?$basic_string@DU?$char_traits@D@std@@V?$allocator@D@2@@std@@PAVFuzzySet@@U?$less@V?$basic_string@DU?$char_traits@D@std@@V?$allocator@D@2@@std@@@2@V?$allocator@U?$pair@$$CBV?$basic_string@DU?$char_traits@D@std@@V?$allocator@D@2@@std@@PAVFuzzySet@@@std@@@2@$0A@@std@@@std@@QAE@ABU?$less@V?$basic_string@DU?$char_traits@D@std@@V?$allocator@D@2@@std@@@1@ABV?$allocator@U?$pair@$$CBV?$basic_string@DU?$char_traits@D@std@@V?$allocator@D@2@@std@@PAVFuzzySet@@@std@@@1@@Z ; std::_Tree<std::_Tmap_traits<std::basic_string<char,std::char_traits<char>,std::allocator<char> >,FuzzySet *,std::less<std::basic_string<char,std::char_traits<char>,std::allocator<char> > >,std::allocator<std::pair<std::basic_string<char,std::char_traits<char>,std::allocator<char> > const ,FuzzySet *> >,0> >::_Tree<std::_Tmap_traits<std::basic_string<char,std::char_traits<char>,std::allocator<char> >,FuzzySet *,std::less<std::basic_string<char,std::char_traits<char>,std::allocator<char> > >,std::allocator<std::pair<std::basic_string<char,std::char_traits<char>,std::allocator<char> > const ,FuzzySet *> >,0> >
PUBLIC	??0?$allocator@U?$pair@$$CBV?$basic_string@DU?$char_traits@D@std@@V?$allocator@D@2@@std@@PAVFuzzySet@@@std@@@std@@QAE@XZ ; std::allocator<std::pair<std::basic_string<char,std::char_traits<char>,std::allocator<char> > const ,FuzzySet *> >::allocator<std::pair<std::basic_string<char,std::char_traits<char>,std::allocator<char> > const ,FuzzySet *> >
; Function compile flags: /Odtp /RTCsu
; File c:\program files (x86)\microsoft visual studio 10.0\vc\include\map
;	COMDAT ??0?$map@V?$basic_string@DU?$char_traits@D@std@@V?$allocator@D@2@@std@@PAVFuzzySet@@U?$less@V?$basic_string@DU?$char_traits@D@std@@V?$allocator@D@2@@std@@@2@V?$allocator@U?$pair@$$CBV?$basic_string@DU?$char_traits@D@std@@V?$allocator@D@2@@std@@PAVFuzzySet@@@std@@@2@@std@@QAE@XZ
_TEXT	SEGMENT
$T52928 = -6						; size = 1
$T52927 = -5						; size = 1
_this$ = -4						; size = 4
??0?$map@V?$basic_string@DU?$char_traits@D@std@@V?$allocator@D@2@@std@@PAVFuzzySet@@U?$less@V?$basic_string@DU?$char_traits@D@std@@V?$allocator@D@2@@std@@@2@V?$allocator@U?$pair@$$CBV?$basic_string@DU?$char_traits@D@std@@V?$allocator@D@2@@std@@PAVFuzzySet@@@std@@@2@@std@@QAE@XZ PROC ; std::map<std::basic_string<char,std::char_traits<char>,std::allocator<char> >,FuzzySet *,std::less<std::basic_string<char,std::char_traits<char>,std::allocator<char> > >,std::allocator<std::pair<std::basic_string<char,std::char_traits<char>,std::allocator<char> > const ,FuzzySet *> > >::map<std::basic_string<char,std::char_traits<char>,std::allocator<char> >,FuzzySet *,std::less<std::basic_string<char,std::char_traits<char>,std::allocator<char> > >,std::allocator<std::pair<std::basic_string<char,std::char_traits<char>,std::allocator<char> > const ,FuzzySet *> > >, COMDAT
; _this$ = ecx

; 106  : 		{	// construct empty map from defaults

	push	ebp
	mov	ebp, esp
	sub	esp, 8
	mov	DWORD PTR [ebp-8], -858993460		; ccccccccH
	mov	DWORD PTR [ebp-4], -858993460		; ccccccccH
	mov	DWORD PTR _this$[ebp], ecx
	lea	ecx, DWORD PTR $T52927[ebp]
	call	??0?$allocator@U?$pair@$$CBV?$basic_string@DU?$char_traits@D@std@@V?$allocator@D@2@@std@@PAVFuzzySet@@@std@@@std@@QAE@XZ ; std::allocator<std::pair<std::basic_string<char,std::char_traits<char>,std::allocator<char> > const ,FuzzySet *> >::allocator<std::pair<std::basic_string<char,std::char_traits<char>,std::allocator<char> > const ,FuzzySet *> >
	push	eax
	lea	eax, DWORD PTR $T52928[ebp]
	push	eax
	mov	ecx, DWORD PTR _this$[ebp]
	call	??0?$_Tree@V?$_Tmap_traits@V?$basic_string@DU?$char_traits@D@std@@V?$allocator@D@2@@std@@PAVFuzzySet@@U?$less@V?$basic_string@DU?$char_traits@D@std@@V?$allocator@D@2@@std@@@2@V?$allocator@U?$pair@$$CBV?$basic_string@DU?$char_traits@D@std@@V?$allocator@D@2@@std@@PAVFuzzySet@@@std@@@2@$0A@@std@@@std@@QAE@ABU?$less@V?$basic_string@DU?$char_traits@D@std@@V?$allocator@D@2@@std@@@1@ABV?$allocator@U?$pair@$$CBV?$basic_string@DU?$char_traits@D@std@@V?$allocator@D@2@@std@@PAVFuzzySet@@@std@@@1@@Z ; std::_Tree<std::_Tmap_traits<std::basic_string<char,std::char_traits<char>,std::allocator<char> >,FuzzySet *,std::less<std::basic_string<char,std::char_traits<char>,std::allocator<char> > >,std::allocator<std::pair<std::basic_string<char,std::char_traits<char>,std::allocator<char> > const ,FuzzySet *> >,0> >::_Tree<std::_Tmap_traits<std::basic_string<char,std::char_traits<char>,std::allocator<char> >,FuzzySet *,std::less<std::basic_string<char,std::char_traits<char>,std::allocator<char> > >,std::allocator<std::pair<std::basic_string<char,std::char_traits<char>,std::allocator<char> > const ,FuzzySet *> >,0> >

; 107  : 		}

	mov	eax, DWORD PTR _this$[ebp]
	add	esp, 8
	cmp	ebp, esp
	call	__RTC_CheckEsp
	mov	esp, ebp
	pop	ebp
	ret	0
??0?$map@V?$basic_string@DU?$char_traits@D@std@@V?$allocator@D@2@@std@@PAVFuzzySet@@U?$less@V?$basic_string@DU?$char_traits@D@std@@V?$allocator@D@2@@std@@@2@V?$allocator@U?$pair@$$CBV?$basic_string@DU?$char_traits@D@std@@V?$allocator@D@2@@std@@PAVFuzzySet@@@std@@@2@@std@@QAE@XZ ENDP ; std::map<std::basic_string<char,std::char_traits<char>,std::allocator<char> >,FuzzySet *,std::less<std::basic_string<char,std::char_traits<char>,std::allocator<char> > >,std::allocator<std::pair<std::basic_string<char,std::char_traits<char>,std::allocator<char> > const ,FuzzySet *> > >::map<std::basic_string<char,std::char_traits<char>,std::allocator<char> >,FuzzySet *,std::less<std::basic_string<char,std::char_traits<char>,std::allocator<char> > >,std::allocator<std::pair<std::basic_string<char,std::char_traits<char>,std::allocator<char> > const ,FuzzySet *> > >
_TEXT	ENDS
PUBLIC	??D?$_Tree_iterator@V?$_Tree_val@V?$_Tmap_traits@V?$basic_string@DU?$char_traits@D@std@@V?$allocator@D@2@@std@@PAVFuzzyVariable@@U?$less@V?$basic_string@DU?$char_traits@D@std@@V?$allocator@D@2@@std@@@2@V?$allocator@U?$pair@$$CBV?$basic_string@DU?$char_traits@D@std@@V?$allocator@D@2@@std@@PAVFuzzyVariable@@@std@@@2@$0A@@std@@@std@@@std@@QBEAAU?$pair@$$CBV?$basic_string@DU?$char_traits@D@std@@V?$allocator@D@2@@std@@PAVFuzzyVariable@@@1@XZ ; std::_Tree_iterator<std::_Tree_val<std::_Tmap_traits<std::basic_string<char,std::char_traits<char>,std::allocator<char> >,FuzzyVariable *,std::less<std::basic_string<char,std::char_traits<char>,std::allocator<char> > >,std::allocator<std::pair<std::basic_string<char,std::char_traits<char>,std::allocator<char> > const ,FuzzyVariable *> >,0> > >::operator*
PUBLIC	??1?$pair@$$CBV?$basic_string@DU?$char_traits@D@std@@V?$allocator@D@2@@std@@PAVFuzzyVariable@@@std@@QAE@XZ ; std::pair<std::basic_string<char,std::char_traits<char>,std::allocator<char> > const ,FuzzyVariable *>::~pair<std::basic_string<char,std::char_traits<char>,std::allocator<char> > const ,FuzzyVariable *>
PUBLIC	??4?$_Tree_iterator@V?$_Tree_val@V?$_Tmap_traits@V?$basic_string@DU?$char_traits@D@std@@V?$allocator@D@2@@std@@PAVFuzzyVariable@@U?$less@V?$basic_string@DU?$char_traits@D@std@@V?$allocator@D@2@@std@@@2@V?$allocator@U?$pair@$$CBV?$basic_string@DU?$char_traits@D@std@@V?$allocator@D@2@@std@@PAVFuzzyVariable@@@std@@@2@$0A@@std@@@std@@@std@@QAEAAV01@ABV01@@Z ; std::_Tree_iterator<std::_Tree_val<std::_Tmap_traits<std::basic_string<char,std::char_traits<char>,std::allocator<char> >,FuzzyVariable *,std::less<std::basic_string<char,std::char_traits<char>,std::allocator<char> > >,std::allocator<std::pair<std::basic_string<char,std::char_traits<char>,std::allocator<char> > const ,FuzzyVariable *> >,0> > >::operator=
PUBLIC	??$insert@U?$pair@$$CBV?$basic_string@DU?$char_traits@D@std@@V?$allocator@D@2@@std@@PAVFuzzyVariable@@@std@@@?$_Tree@V?$_Tmap_traits@V?$basic_string@DU?$char_traits@D@std@@V?$allocator@D@2@@std@@PAVFuzzyVariable@@U?$less@V?$basic_string@DU?$char_traits@D@std@@V?$allocator@D@2@@std@@@2@V?$allocator@U?$pair@$$CBV?$basic_string@DU?$char_traits@D@std@@V?$allocator@D@2@@std@@PAVFuzzyVariable@@@std@@@2@$0A@@std@@@std@@QAE?AV?$_Tree_iterator@V?$_Tree_val@V?$_Tmap_traits@V?$basic_string@DU?$char_traits@D@std@@V?$allocator@D@2@@std@@PAVFuzzyVariable@@U?$less@V?$basic_string@DU?$char_traits@D@std@@V?$allocator@D@2@@std@@@2@V?$allocator@U?$pair@$$CBV?$basic_string@DU?$char_traits@D@std@@V?$allocator@D@2@@std@@PAVFuzzyVariable@@@std@@@2@$0A@@std@@@std@@@1@V?$_Tree_const_iterator@V?$_Tree_val@V?$_Tmap_traits@V?$basic_string@DU?$char_traits@D@std@@V?$allocator@D@2@@std@@PAVFuzzyVariable@@U?$less@V?$basic_string@DU?$char_traits@D@std@@V?$allocator@D@2@@std@@@2@V?$allocator@U?$pair@$$CBV?$basic_string@DU?$char_traits@D@std@@V?$allocator@D@2@@std@@PAVFuzzyVariable@@@std@@@2@$0A@@std@@@std@@@1@$$QAU?$pair@$$CBV?$basic_string@DU?$char_traits@D@std@@V?$allocator@D@2@@std@@PAVFuzzyVariable@@@1@@Z ; std::_Tree<std::_Tmap_traits<std::basic_string<char,std::char_traits<char>,std::allocator<char> >,FuzzyVariable *,std::less<std::basic_string<char,std::char_traits<char>,std::allocator<char> > >,std::allocator<std::pair<std::basic_string<char,std::char_traits<char>,std::allocator<char> > const ,FuzzyVariable *> >,0> >::insert<std::pair<std::basic_string<char,std::char_traits<char>,std::allocator<char> > const ,FuzzyVariable *> >
PUBLIC	??0?$_Tree_const_iterator@V?$_Tree_val@V?$_Tmap_traits@V?$basic_string@DU?$char_traits@D@std@@V?$allocator@D@2@@std@@PAVFuzzyVariable@@U?$less@V?$basic_string@DU?$char_traits@D@std@@V?$allocator@D@2@@std@@@2@V?$allocator@U?$pair@$$CBV?$basic_string@DU?$char_traits@D@std@@V?$allocator@D@2@@std@@PAVFuzzyVariable@@@std@@@2@$0A@@std@@@std@@@std@@QAE@ABV01@@Z ; std::_Tree_const_iterator<std::_Tree_val<std::_Tmap_traits<std::basic_string<char,std::char_traits<char>,std::allocator<char> >,FuzzyVariable *,std::less<std::basic_string<char,std::char_traits<char>,std::allocator<char> > >,std::allocator<std::pair<std::basic_string<char,std::char_traits<char>,std::allocator<char> > const ,FuzzyVariable *> >,0> > >::_Tree_const_iterator<std::_Tree_val<std::_Tmap_traits<std::basic_string<char,std::char_traits<char>,std::allocator<char> >,FuzzyVariable *,std::less<std::basic_string<char,std::char_traits<char>,std::allocator<char> > >,std::allocator<std::pair<std::basic_string<char,std::char_traits<char>,std::allocator<char> > const ,FuzzyVariable *> >,0> > >
PUBLIC	??0?$pair@$$CBV?$basic_string@DU?$char_traits@D@std@@V?$allocator@D@2@@std@@PAVFuzzyVariable@@@std@@QAE@ABV?$basic_string@DU?$char_traits@D@std@@V?$allocator@D@2@@1@$$QAPAVFuzzyVariable@@@Z ; std::pair<std::basic_string<char,std::char_traits<char>,std::allocator<char> > const ,FuzzyVariable *>::pair<std::basic_string<char,std::char_traits<char>,std::allocator<char> > const ,FuzzyVariable *>
PUBLIC	??R?$less@V?$basic_string@DU?$char_traits@D@std@@V?$allocator@D@2@@std@@@std@@QBE_NABV?$basic_string@DU?$char_traits@D@std@@V?$allocator@D@2@@1@0@Z ; std::less<std::basic_string<char,std::char_traits<char>,std::allocator<char> > >::operator()
PUBLIC	?_Key@?$_Tree_val@V?$_Tmap_traits@V?$basic_string@DU?$char_traits@D@std@@V?$allocator@D@2@@std@@PAVFuzzyVariable@@U?$less@V?$basic_string@DU?$char_traits@D@std@@V?$allocator@D@2@@std@@@2@V?$allocator@U?$pair@$$CBV?$basic_string@DU?$char_traits@D@std@@V?$allocator@D@2@@std@@PAVFuzzyVariable@@@std@@@2@$0A@@std@@@std@@SAAAV?$basic_string@DU?$char_traits@D@std@@V?$allocator@D@2@@2@PAU_Node@?$_Tree_nod@V?$_Tmap_traits@V?$basic_string@DU?$char_traits@D@std@@V?$allocator@D@2@@std@@PAVFuzzyVariable@@U?$less@V?$basic_string@DU?$char_traits@D@std@@V?$allocator@D@2@@std@@@2@V?$allocator@U?$pair@$$CBV?$basic_string@DU?$char_traits@D@std@@V?$allocator@D@2@@std@@PAVFuzzyVariable@@@std@@@2@$0A@@std@@@2@@Z ; std::_Tree_val<std::_Tmap_traits<std::basic_string<char,std::char_traits<char>,std::allocator<char> >,FuzzyVariable *,std::less<std::basic_string<char,std::char_traits<char>,std::allocator<char> > >,std::allocator<std::pair<std::basic_string<char,std::char_traits<char>,std::allocator<char> > const ,FuzzyVariable *> >,0> >::_Key
PUBLIC	?_Mynode@?$_Tree_unchecked_const_iterator@V?$_Tree_val@V?$_Tmap_traits@V?$basic_string@DU?$char_traits@D@std@@V?$allocator@D@2@@std@@PAVFuzzyVariable@@U?$less@V?$basic_string@DU?$char_traits@D@std@@V?$allocator@D@2@@std@@@2@V?$allocator@U?$pair@$$CBV?$basic_string@DU?$char_traits@D@std@@V?$allocator@D@2@@std@@PAVFuzzyVariable@@@std@@@2@$0A@@std@@@std@@U_Iterator_base12@2@@std@@QBEPAU_Node@?$_Tree_nod@V?$_Tmap_traits@V?$basic_string@DU?$char_traits@D@std@@V?$allocator@D@2@@std@@PAVFuzzyVariable@@U?$less@V?$basic_string@DU?$char_traits@D@std@@V?$allocator@D@2@@std@@@2@V?$allocator@U?$pair@$$CBV?$basic_string@DU?$char_traits@D@std@@V?$allocator@D@2@@std@@PAVFuzzyVariable@@@std@@@2@$0A@@std@@@2@XZ ; std::_Tree_unchecked_const_iterator<std::_Tree_val<std::_Tmap_traits<std::basic_string<char,std::char_traits<char>,std::allocator<char> >,FuzzyVariable *,std::less<std::basic_string<char,std::char_traits<char>,std::allocator<char> > >,std::allocator<std::pair<std::basic_string<char,std::char_traits<char>,std::allocator<char> > const ,FuzzyVariable *> >,0> >,std::_Iterator_base12>::_Mynode
PUBLIC	??8?$_Tree_const_iterator@V?$_Tree_val@V?$_Tmap_traits@V?$basic_string@DU?$char_traits@D@std@@V?$allocator@D@2@@std@@PAVFuzzyVariable@@U?$less@V?$basic_string@DU?$char_traits@D@std@@V?$allocator@D@2@@std@@@2@V?$allocator@U?$pair@$$CBV?$basic_string@DU?$char_traits@D@std@@V?$allocator@D@2@@std@@PAVFuzzyVariable@@@std@@@2@$0A@@std@@@std@@@std@@QBE_NABV01@@Z ; std::_Tree_const_iterator<std::_Tree_val<std::_Tmap_traits<std::basic_string<char,std::char_traits<char>,std::allocator<char> >,FuzzyVariable *,std::less<std::basic_string<char,std::char_traits<char>,std::allocator<char> > >,std::allocator<std::pair<std::basic_string<char,std::char_traits<char>,std::allocator<char> > const ,FuzzyVariable *> >,0> > >::operator==
PUBLIC	?lower_bound@?$_Tree@V?$_Tmap_traits@V?$basic_string@DU?$char_traits@D@std@@V?$allocator@D@2@@std@@PAVFuzzyVariable@@U?$less@V?$basic_string@DU?$char_traits@D@std@@V?$allocator@D@2@@std@@@2@V?$allocator@U?$pair@$$CBV?$basic_string@DU?$char_traits@D@std@@V?$allocator@D@2@@std@@PAVFuzzyVariable@@@std@@@2@$0A@@std@@@std@@QAE?AV?$_Tree_iterator@V?$_Tree_val@V?$_Tmap_traits@V?$basic_string@DU?$char_traits@D@std@@V?$allocator@D@2@@std@@PAVFuzzyVariable@@U?$less@V?$basic_string@DU?$char_traits@D@std@@V?$allocator@D@2@@std@@@2@V?$allocator@U?$pair@$$CBV?$basic_string@DU?$char_traits@D@std@@V?$allocator@D@2@@std@@PAVFuzzyVariable@@@std@@@2@$0A@@std@@@std@@@2@ABV?$basic_string@DU?$char_traits@D@std@@V?$allocator@D@2@@2@@Z ; std::_Tree<std::_Tmap_traits<std::basic_string<char,std::char_traits<char>,std::allocator<char> >,FuzzyVariable *,std::less<std::basic_string<char,std::char_traits<char>,std::allocator<char> > >,std::allocator<std::pair<std::basic_string<char,std::char_traits<char>,std::allocator<char> > const ,FuzzyVariable *> >,0> >::lower_bound
PUBLIC	__$ArrayPad$
;	COMDAT xdata$x
xdata$x	SEGMENT
__unwindtable$??A?$map@V?$basic_string@DU?$char_traits@D@std@@V?$allocator@D@2@@std@@PAVFuzzyVariable@@U?$less@V?$basic_string@DU?$char_traits@D@std@@V?$allocator@D@2@@std@@@2@V?$allocator@U?$pair@$$CBV?$basic_string@DU?$char_traits@D@std@@V?$allocator@D@2@@std@@PAVFuzzyVariable@@@std@@@2@@std@@QAEAAPAVFuzzyVariable@@ABV?$basic_string@DU?$char_traits@D@std@@V?$allocator@D@2@@1@@Z DD 0ffffffffH
	DD	FLAT:__unwindfunclet$??A?$map@V?$basic_string@DU?$char_traits@D@std@@V?$allocator@D@2@@std@@PAVFuzzyVariable@@U?$less@V?$basic_string@DU?$char_traits@D@std@@V?$allocator@D@2@@std@@@2@V?$allocator@U?$pair@$$CBV?$basic_string@DU?$char_traits@D@std@@V?$allocator@D@2@@std@@PAVFuzzyVariable@@@std@@@2@@std@@QAEAAPAVFuzzyVariable@@ABV?$basic_string@DU?$char_traits@D@std@@V?$allocator@D@2@@1@@Z$0
	DD	00H
	DD	FLAT:__unwindfunclet$??A?$map@V?$basic_string@DU?$char_traits@D@std@@V?$allocator@D@2@@std@@PAVFuzzyVariable@@U?$less@V?$basic_string@DU?$char_traits@D@std@@V?$allocator@D@2@@std@@@2@V?$allocator@U?$pair@$$CBV?$basic_string@DU?$char_traits@D@std@@V?$allocator@D@2@@std@@PAVFuzzyVariable@@@std@@@2@@std@@QAEAAPAVFuzzyVariable@@ABV?$basic_string@DU?$char_traits@D@std@@V?$allocator@D@2@@1@@Z$1
	DD	00H
	DD	FLAT:__unwindfunclet$??A?$map@V?$basic_string@DU?$char_traits@D@std@@V?$allocator@D@2@@std@@PAVFuzzyVariable@@U?$less@V?$basic_string@DU?$char_traits@D@std@@V?$allocator@D@2@@std@@@2@V?$allocator@U?$pair@$$CBV?$basic_string@DU?$char_traits@D@std@@V?$allocator@D@2@@std@@PAVFuzzyVariable@@@std@@@2@@std@@QAEAAPAVFuzzyVariable@@ABV?$basic_string@DU?$char_traits@D@std@@V?$allocator@D@2@@1@@Z$2
	DD	02H
	DD	FLAT:__unwindfunclet$??A?$map@V?$basic_string@DU?$char_traits@D@std@@V?$allocator@D@2@@std@@PAVFuzzyVariable@@U?$less@V?$basic_string@DU?$char_traits@D@std@@V?$allocator@D@2@@std@@@2@V?$allocator@U?$pair@$$CBV?$basic_string@DU?$char_traits@D@std@@V?$allocator@D@2@@std@@PAVFuzzyVariable@@@std@@@2@@std@@QAEAAPAVFuzzyVariable@@ABV?$basic_string@DU?$char_traits@D@std@@V?$allocator@D@2@@1@@Z$4
__ehfuncinfo$??A?$map@V?$basic_string@DU?$char_traits@D@std@@V?$allocator@D@2@@std@@PAVFuzzyVariable@@U?$less@V?$basic_string@DU?$char_traits@D@std@@V?$allocator@D@2@@std@@@2@V?$allocator@U?$pair@$$CBV?$basic_string@DU?$char_traits@D@std@@V?$allocator@D@2@@std@@PAVFuzzyVariable@@@std@@@2@@std@@QAEAAPAVFuzzyVariable@@ABV?$basic_string@DU?$char_traits@D@std@@V?$allocator@D@2@@1@@Z DD 019930522H
	DD	04H
	DD	FLAT:__unwindtable$??A?$map@V?$basic_string@DU?$char_traits@D@std@@V?$allocator@D@2@@std@@PAVFuzzyVariable@@U?$less@V?$basic_string@DU?$char_traits@D@std@@V?$allocator@D@2@@std@@@2@V?$allocator@U?$pair@$$CBV?$basic_string@DU?$char_traits@D@std@@V?$allocator@D@2@@std@@PAVFuzzyVariable@@@std@@@2@@std@@QAEAAPAVFuzzyVariable@@ABV?$basic_string@DU?$char_traits@D@std@@V?$allocator@D@2@@1@@Z
	DD	2 DUP(00H)
	DD	2 DUP(00H)
	DD	00H
	DD	01H
; Function compile flags: /Odtp /RTCsu
xdata$x	ENDS
;	COMDAT ??A?$map@V?$basic_string@DU?$char_traits@D@std@@V?$allocator@D@2@@std@@PAVFuzzyVariable@@U?$less@V?$basic_string@DU?$char_traits@D@std@@V?$allocator@D@2@@std@@@2@V?$allocator@U?$pair@$$CBV?$basic_string@DU?$char_traits@D@std@@V?$allocator@D@2@@std@@PAVFuzzyVariable@@@std@@@2@@std@@QAEAAPAVFuzzyVariable@@ABV?$basic_string@DU?$char_traits@D@std@@V?$allocator@D@2@@1@@Z
_TEXT	SEGMENT
tv207 = -152						; size = 4
tv157 = -148						; size = 4
tv205 = -144						; size = 4
tv202 = -140						; size = 4
tv210 = -136						; size = 4
tv146 = -132						; size = 4
tv198 = -128						; size = 4
tv69 = -124						; size = 4
$T52942 = -120						; size = 4
$T52940 = -116						; size = 4
$T52939 = -112						; size = 12
$T52938 = -100						; size = 4
$T52937 = -96						; size = 4
$T52934 = -92						; size = 12
$T52933 = -77						; size = 1
$T46968 = -76						; size = 36
__Where$ = -36						; size = 12
_this$ = -20						; size = 4
__$ArrayPad$ = -16					; size = 4
__$EHRec$ = -12						; size = 12
__Keyval$ = 8						; size = 4
??A?$map@V?$basic_string@DU?$char_traits@D@std@@V?$allocator@D@2@@std@@PAVFuzzyVariable@@U?$less@V?$basic_string@DU?$char_traits@D@std@@V?$allocator@D@2@@std@@@2@V?$allocator@U?$pair@$$CBV?$basic_string@DU?$char_traits@D@std@@V?$allocator@D@2@@std@@PAVFuzzyVariable@@@std@@@2@@std@@QAEAAPAVFuzzyVariable@@ABV?$basic_string@DU?$char_traits@D@std@@V?$allocator@D@2@@1@@Z PROC ; std::map<std::basic_string<char,std::char_traits<char>,std::allocator<char> >,FuzzyVariable *,std::less<std::basic_string<char,std::char_traits<char>,std::allocator<char> > >,std::allocator<std::pair<std::basic_string<char,std::char_traits<char>,std::allocator<char> > const ,FuzzyVariable *> > >::operator[], COMDAT
; _this$ = ecx

; 210  : 		{	// find element matching _Keyval or insert with default mapped

	push	ebp
	mov	ebp, esp
	push	-1
	push	__ehhandler$??A?$map@V?$basic_string@DU?$char_traits@D@std@@V?$allocator@D@2@@std@@PAVFuzzyVariable@@U?$less@V?$basic_string@DU?$char_traits@D@std@@V?$allocator@D@2@@std@@@2@V?$allocator@U?$pair@$$CBV?$basic_string@DU?$char_traits@D@std@@V?$allocator@D@2@@std@@PAVFuzzyVariable@@@std@@@2@@std@@QAEAAPAVFuzzyVariable@@ABV?$basic_string@DU?$char_traits@D@std@@V?$allocator@D@2@@1@@Z
	mov	eax, DWORD PTR fs:0
	push	eax
	sub	esp, 140				; 0000008cH
	push	edi
	push	ecx
	lea	edi, DWORD PTR [ebp-152]
	mov	ecx, 35					; 00000023H
	mov	eax, -858993460				; ccccccccH
	rep stosd
	pop	ecx
	mov	eax, DWORD PTR ___security_cookie
	xor	eax, ebp
	mov	DWORD PTR __$ArrayPad$[ebp], eax
	push	eax
	lea	eax, DWORD PTR __$EHRec$[ebp]
	mov	DWORD PTR fs:0, eax
	mov	DWORD PTR _this$[ebp], ecx
	mov	DWORD PTR $T52942[ebp], 0

; 211  : 		iterator _Where = this->lower_bound(_Keyval);

	mov	eax, DWORD PTR __Keyval$[ebp]
	push	eax
	lea	ecx, DWORD PTR __Where$[ebp]
	push	ecx
	mov	ecx, DWORD PTR _this$[ebp]
	call	?lower_bound@?$_Tree@V?$_Tmap_traits@V?$basic_string@DU?$char_traits@D@std@@V?$allocator@D@2@@std@@PAVFuzzyVariable@@U?$less@V?$basic_string@DU?$char_traits@D@std@@V?$allocator@D@2@@std@@@2@V?$allocator@U?$pair@$$CBV?$basic_string@DU?$char_traits@D@std@@V?$allocator@D@2@@std@@PAVFuzzyVariable@@@std@@@2@$0A@@std@@@std@@QAE?AV?$_Tree_iterator@V?$_Tree_val@V?$_Tmap_traits@V?$basic_string@DU?$char_traits@D@std@@V?$allocator@D@2@@std@@PAVFuzzyVariable@@U?$less@V?$basic_string@DU?$char_traits@D@std@@V?$allocator@D@2@@std@@@2@V?$allocator@U?$pair@$$CBV?$basic_string@DU?$char_traits@D@std@@V?$allocator@D@2@@std@@PAVFuzzyVariable@@@std@@@2@$0A@@std@@@std@@@2@ABV?$basic_string@DU?$char_traits@D@std@@V?$allocator@D@2@@2@@Z ; std::_Tree<std::_Tmap_traits<std::basic_string<char,std::char_traits<char>,std::allocator<char> >,FuzzyVariable *,std::less<std::basic_string<char,std::char_traits<char>,std::allocator<char> > >,std::allocator<std::pair<std::basic_string<char,std::char_traits<char>,std::allocator<char> > const ,FuzzyVariable *> >,0> >::lower_bound
	mov	DWORD PTR __$EHRec$[ebp+8], 0

; 212  : 		if (_Where == this->end()
; 213  : 			|| this->comp(_Keyval, this->_Key(_Where._Mynode())))

	lea	edx, DWORD PTR $T52934[ebp]
	push	edx
	mov	ecx, DWORD PTR _this$[ebp]
	call	?end@?$_Tree@V?$_Tmap_traits@V?$basic_string@DU?$char_traits@D@std@@V?$allocator@D@2@@std@@PAVFuzzyVariable@@U?$less@V?$basic_string@DU?$char_traits@D@std@@V?$allocator@D@2@@std@@@2@V?$allocator@U?$pair@$$CBV?$basic_string@DU?$char_traits@D@std@@V?$allocator@D@2@@std@@PAVFuzzyVariable@@@std@@@2@$0A@@std@@@std@@QAE?AV?$_Tree_iterator@V?$_Tree_val@V?$_Tmap_traits@V?$basic_string@DU?$char_traits@D@std@@V?$allocator@D@2@@std@@PAVFuzzyVariable@@U?$less@V?$basic_string@DU?$char_traits@D@std@@V?$allocator@D@2@@std@@@2@V?$allocator@U?$pair@$$CBV?$basic_string@DU?$char_traits@D@std@@V?$allocator@D@2@@std@@PAVFuzzyVariable@@@std@@@2@$0A@@std@@@std@@@2@XZ ; std::_Tree<std::_Tmap_traits<std::basic_string<char,std::char_traits<char>,std::allocator<char> >,FuzzyVariable *,std::less<std::basic_string<char,std::char_traits<char>,std::allocator<char> > >,std::allocator<std::pair<std::basic_string<char,std::char_traits<char>,std::allocator<char> > const ,FuzzyVariable *> >,0> >::end
	mov	DWORD PTR tv69[ebp], eax
	mov	eax, DWORD PTR tv69[ebp]
	mov	DWORD PTR tv198[ebp], eax
	mov	BYTE PTR __$EHRec$[ebp+8], 1
	mov	ecx, DWORD PTR $T52942[ebp]
	or	ecx, 1
	mov	DWORD PTR $T52942[ebp], ecx
	mov	edx, DWORD PTR tv198[ebp]
	push	edx
	lea	ecx, DWORD PTR __Where$[ebp]
	call	??8?$_Tree_const_iterator@V?$_Tree_val@V?$_Tmap_traits@V?$basic_string@DU?$char_traits@D@std@@V?$allocator@D@2@@std@@PAVFuzzyVariable@@U?$less@V?$basic_string@DU?$char_traits@D@std@@V?$allocator@D@2@@std@@@2@V?$allocator@U?$pair@$$CBV?$basic_string@DU?$char_traits@D@std@@V?$allocator@D@2@@std@@PAVFuzzyVariable@@@std@@@2@$0A@@std@@@std@@@std@@QBE_NABV01@@Z ; std::_Tree_const_iterator<std::_Tree_val<std::_Tmap_traits<std::basic_string<char,std::char_traits<char>,std::allocator<char> >,FuzzyVariable *,std::less<std::basic_string<char,std::char_traits<char>,std::allocator<char> > >,std::allocator<std::pair<std::basic_string<char,std::char_traits<char>,std::allocator<char> > const ,FuzzyVariable *> >,0> > >::operator==
	movzx	eax, al
	test	eax, eax
	jne	SHORT $LN4@operator
	lea	ecx, DWORD PTR __Where$[ebp]
	call	?_Mynode@?$_Tree_unchecked_const_iterator@V?$_Tree_val@V?$_Tmap_traits@V?$basic_string@DU?$char_traits@D@std@@V?$allocator@D@2@@std@@PAVFuzzyVariable@@U?$less@V?$basic_string@DU?$char_traits@D@std@@V?$allocator@D@2@@std@@@2@V?$allocator@U?$pair@$$CBV?$basic_string@DU?$char_traits@D@std@@V?$allocator@D@2@@std@@PAVFuzzyVariable@@@std@@@2@$0A@@std@@@std@@U_Iterator_base12@2@@std@@QBEPAU_Node@?$_Tree_nod@V?$_Tmap_traits@V?$basic_string@DU?$char_traits@D@std@@V?$allocator@D@2@@std@@PAVFuzzyVariable@@U?$less@V?$basic_string@DU?$char_traits@D@std@@V?$allocator@D@2@@std@@@2@V?$allocator@U?$pair@$$CBV?$basic_string@DU?$char_traits@D@std@@V?$allocator@D@2@@std@@PAVFuzzyVariable@@@std@@@2@$0A@@std@@@2@XZ ; std::_Tree_unchecked_const_iterator<std::_Tree_val<std::_Tmap_traits<std::basic_string<char,std::char_traits<char>,std::allocator<char> >,FuzzyVariable *,std::less<std::basic_string<char,std::char_traits<char>,std::allocator<char> > >,std::allocator<std::pair<std::basic_string<char,std::char_traits<char>,std::allocator<char> > const ,FuzzyVariable *> >,0> >,std::_Iterator_base12>::_Mynode
	push	eax
	call	?_Key@?$_Tree_val@V?$_Tmap_traits@V?$basic_string@DU?$char_traits@D@std@@V?$allocator@D@2@@std@@PAVFuzzyVariable@@U?$less@V?$basic_string@DU?$char_traits@D@std@@V?$allocator@D@2@@std@@@2@V?$allocator@U?$pair@$$CBV?$basic_string@DU?$char_traits@D@std@@V?$allocator@D@2@@std@@PAVFuzzyVariable@@@std@@@2@$0A@@std@@@std@@SAAAV?$basic_string@DU?$char_traits@D@std@@V?$allocator@D@2@@2@PAU_Node@?$_Tree_nod@V?$_Tmap_traits@V?$basic_string@DU?$char_traits@D@std@@V?$allocator@D@2@@std@@PAVFuzzyVariable@@U?$less@V?$basic_string@DU?$char_traits@D@std@@V?$allocator@D@2@@std@@@2@V?$allocator@U?$pair@$$CBV?$basic_string@DU?$char_traits@D@std@@V?$allocator@D@2@@std@@PAVFuzzyVariable@@@std@@@2@$0A@@std@@@2@@Z ; std::_Tree_val<std::_Tmap_traits<std::basic_string<char,std::char_traits<char>,std::allocator<char> >,FuzzyVariable *,std::less<std::basic_string<char,std::char_traits<char>,std::allocator<char> > >,std::allocator<std::pair<std::basic_string<char,std::char_traits<char>,std::allocator<char> > const ,FuzzyVariable *> >,0> >::_Key
	add	esp, 4
	push	eax
	mov	ecx, DWORD PTR __Keyval$[ebp]
	push	ecx
	mov	ecx, DWORD PTR _this$[ebp]
	add	ecx, 4
	call	??R?$less@V?$basic_string@DU?$char_traits@D@std@@V?$allocator@D@2@@std@@@std@@QBE_NABV?$basic_string@DU?$char_traits@D@std@@V?$allocator@D@2@@1@0@Z ; std::less<std::basic_string<char,std::char_traits<char>,std::allocator<char> > >::operator()
	movzx	edx, al
	test	edx, edx
	jne	SHORT $LN4@operator
	mov	DWORD PTR tv146[ebp], 0
	jmp	SHORT $LN5@operator
$LN4@operator:
	mov	DWORD PTR tv146[ebp], 1
$LN5@operator:
	mov	al, BYTE PTR tv146[ebp]
	mov	BYTE PTR $T52933[ebp], al
	mov	DWORD PTR __$EHRec$[ebp+8], 0
	mov	ecx, DWORD PTR $T52942[ebp]
	and	ecx, 1
	je	SHORT $LN9@operator
	and	DWORD PTR $T52942[ebp], -2		; fffffffeH
	lea	ecx, DWORD PTR $T52934[ebp]
	call	??1?$_Tree_iterator@V?$_Tree_val@V?$_Tmap_traits@V?$basic_string@DU?$char_traits@D@std@@V?$allocator@D@2@@std@@PAVFuzzyVariable@@U?$less@V?$basic_string@DU?$char_traits@D@std@@V?$allocator@D@2@@std@@@2@V?$allocator@U?$pair@$$CBV?$basic_string@DU?$char_traits@D@std@@V?$allocator@D@2@@std@@PAVFuzzyVariable@@@std@@@2@$0A@@std@@@std@@@std@@QAE@XZ
$LN9@operator:
	movzx	edx, BYTE PTR $T52933[ebp]
	test	edx, edx
	je	$LN1@operator

; 214  : 			_Where = this->insert(_Where,
; 215  : 				value_type(_Keyval, mapped_type()));

	mov	DWORD PTR $T52937[ebp], 0
	lea	eax, DWORD PTR $T52937[ebp]
	push	eax
	mov	ecx, DWORD PTR __Keyval$[ebp]
	push	ecx
	lea	ecx, DWORD PTR $T46968[ebp]
	call	??0?$pair@$$CBV?$basic_string@DU?$char_traits@D@std@@V?$allocator@D@2@@std@@PAVFuzzyVariable@@@std@@QAE@ABV?$basic_string@DU?$char_traits@D@std@@V?$allocator@D@2@@1@$$QAPAVFuzzyVariable@@@Z ; std::pair<std::basic_string<char,std::char_traits<char>,std::allocator<char> > const ,FuzzyVariable *>::pair<std::basic_string<char,std::char_traits<char>,std::allocator<char> > const ,FuzzyVariable *>
	mov	DWORD PTR tv210[ebp], eax
	mov	edx, DWORD PTR tv210[ebp]
	mov	DWORD PTR tv202[ebp], edx
	mov	BYTE PTR __$EHRec$[ebp+8], 2
	mov	eax, DWORD PTR tv202[ebp]
	push	eax
	sub	esp, 12					; 0000000cH
	mov	ecx, esp
	mov	DWORD PTR $T52938[ebp], esp
	lea	edx, DWORD PTR __Where$[ebp]
	push	edx
	call	??0?$_Tree_const_iterator@V?$_Tree_val@V?$_Tmap_traits@V?$basic_string@DU?$char_traits@D@std@@V?$allocator@D@2@@std@@PAVFuzzyVariable@@U?$less@V?$basic_string@DU?$char_traits@D@std@@V?$allocator@D@2@@std@@@2@V?$allocator@U?$pair@$$CBV?$basic_string@DU?$char_traits@D@std@@V?$allocator@D@2@@std@@PAVFuzzyVariable@@@std@@@2@$0A@@std@@@std@@@std@@QAE@ABV01@@Z
	mov	DWORD PTR tv205[ebp], eax
	lea	eax, DWORD PTR $T52939[ebp]
	push	eax
	mov	ecx, DWORD PTR _this$[ebp]
	call	??$insert@U?$pair@$$CBV?$basic_string@DU?$char_traits@D@std@@V?$allocator@D@2@@std@@PAVFuzzyVariable@@@std@@@?$_Tree@V?$_Tmap_traits@V?$basic_string@DU?$char_traits@D@std@@V?$allocator@D@2@@std@@PAVFuzzyVariable@@U?$less@V?$basic_string@DU?$char_traits@D@std@@V?$allocator@D@2@@std@@@2@V?$allocator@U?$pair@$$CBV?$basic_string@DU?$char_traits@D@std@@V?$allocator@D@2@@std@@PAVFuzzyVariable@@@std@@@2@$0A@@std@@@std@@QAE?AV?$_Tree_iterator@V?$_Tree_val@V?$_Tmap_traits@V?$basic_string@DU?$char_traits@D@std@@V?$allocator@D@2@@std@@PAVFuzzyVariable@@U?$less@V?$basic_string@DU?$char_traits@D@std@@V?$allocator@D@2@@std@@@2@V?$allocator@U?$pair@$$CBV?$basic_string@DU?$char_traits@D@std@@V?$allocator@D@2@@std@@PAVFuzzyVariable@@@std@@@2@$0A@@std@@@std@@@1@V?$_Tree_const_iterator@V?$_Tree_val@V?$_Tmap_traits@V?$basic_string@DU?$char_traits@D@std@@V?$allocator@D@2@@std@@PAVFuzzyVariable@@U?$less@V?$basic_string@DU?$char_traits@D@std@@V?$allocator@D@2@@std@@@2@V?$allocator@U?$pair@$$CBV?$basic_string@DU?$char_traits@D@std@@V?$allocator@D@2@@std@@PAVFuzzyVariable@@@std@@@2@$0A@@std@@@std@@@1@$$QAU?$pair@$$CBV?$basic_string@DU?$char_traits@D@std@@V?$allocator@D@2@@std@@PAVFuzzyVariable@@@1@@Z ; std::_Tree<std::_Tmap_traits<std::basic_string<char,std::char_traits<char>,std::allocator<char> >,FuzzyVariable *,std::less<std::basic_string<char,std::char_traits<char>,std::allocator<char> > >,std::allocator<std::pair<std::basic_string<char,std::char_traits<char>,std::allocator<char> > const ,FuzzyVariable *> >,0> >::insert<std::pair<std::basic_string<char,std::char_traits<char>,std::allocator<char> > const ,FuzzyVariable *> >
	mov	DWORD PTR tv157[ebp], eax
	mov	ecx, DWORD PTR tv157[ebp]
	mov	DWORD PTR tv207[ebp], ecx
	mov	BYTE PTR __$EHRec$[ebp+8], 3
	mov	edx, DWORD PTR tv207[ebp]
	push	edx
	lea	ecx, DWORD PTR __Where$[ebp]
	call	??4?$_Tree_iterator@V?$_Tree_val@V?$_Tmap_traits@V?$basic_string@DU?$char_traits@D@std@@V?$allocator@D@2@@std@@PAVFuzzyVariable@@U?$less@V?$basic_string@DU?$char_traits@D@std@@V?$allocator@D@2@@std@@@2@V?$allocator@U?$pair@$$CBV?$basic_string@DU?$char_traits@D@std@@V?$allocator@D@2@@std@@PAVFuzzyVariable@@@std@@@2@$0A@@std@@@std@@@std@@QAEAAV01@ABV01@@Z
	mov	BYTE PTR __$EHRec$[ebp+8], 2
	lea	ecx, DWORD PTR $T52939[ebp]
	call	??1?$_Tree_iterator@V?$_Tree_val@V?$_Tmap_traits@V?$basic_string@DU?$char_traits@D@std@@V?$allocator@D@2@@std@@PAVFuzzyVariable@@U?$less@V?$basic_string@DU?$char_traits@D@std@@V?$allocator@D@2@@std@@@2@V?$allocator@U?$pair@$$CBV?$basic_string@DU?$char_traits@D@std@@V?$allocator@D@2@@std@@PAVFuzzyVariable@@@std@@@2@$0A@@std@@@std@@@std@@QAE@XZ
	mov	BYTE PTR __$EHRec$[ebp+8], 0
	lea	ecx, DWORD PTR $T46968[ebp]
	call	??1?$pair@$$CBV?$basic_string@DU?$char_traits@D@std@@V?$allocator@D@2@@std@@PAVFuzzyVariable@@@std@@QAE@XZ
$LN1@operator:

; 216  : 		return ((*_Where).second);

	lea	ecx, DWORD PTR __Where$[ebp]
	call	??D?$_Tree_iterator@V?$_Tree_val@V?$_Tmap_traits@V?$basic_string@DU?$char_traits@D@std@@V?$allocator@D@2@@std@@PAVFuzzyVariable@@U?$less@V?$basic_string@DU?$char_traits@D@std@@V?$allocator@D@2@@std@@@2@V?$allocator@U?$pair@$$CBV?$basic_string@DU?$char_traits@D@std@@V?$allocator@D@2@@std@@PAVFuzzyVariable@@@std@@@2@$0A@@std@@@std@@@std@@QBEAAU?$pair@$$CBV?$basic_string@DU?$char_traits@D@std@@V?$allocator@D@2@@std@@PAVFuzzyVariable@@@1@XZ ; std::_Tree_iterator<std::_Tree_val<std::_Tmap_traits<std::basic_string<char,std::char_traits<char>,std::allocator<char> >,FuzzyVariable *,std::less<std::basic_string<char,std::char_traits<char>,std::allocator<char> > >,std::allocator<std::pair<std::basic_string<char,std::char_traits<char>,std::allocator<char> > const ,FuzzyVariable *> >,0> > >::operator*
	add	eax, 32					; 00000020H
	mov	DWORD PTR $T52940[ebp], eax
	mov	DWORD PTR __$EHRec$[ebp+8], -1
	lea	ecx, DWORD PTR __Where$[ebp]
	call	??1?$_Tree_iterator@V?$_Tree_val@V?$_Tmap_traits@V?$basic_string@DU?$char_traits@D@std@@V?$allocator@D@2@@std@@PAVFuzzyVariable@@U?$less@V?$basic_string@DU?$char_traits@D@std@@V?$allocator@D@2@@std@@@2@V?$allocator@U?$pair@$$CBV?$basic_string@DU?$char_traits@D@std@@V?$allocator@D@2@@std@@PAVFuzzyVariable@@@std@@@2@$0A@@std@@@std@@@std@@QAE@XZ
	mov	eax, DWORD PTR $T52940[ebp]

; 217  : 		}

	push	edx
	mov	ecx, ebp
	push	eax
	lea	edx, DWORD PTR $LN16@operator
	call	@_RTC_CheckStackVars@8
	pop	eax
	pop	edx
	mov	ecx, DWORD PTR __$EHRec$[ebp]
	mov	DWORD PTR fs:0, ecx
	pop	ecx
	pop	edi
	mov	ecx, DWORD PTR __$ArrayPad$[ebp]
	xor	ecx, ebp
	call	@__security_check_cookie@4
	add	esp, 152				; 00000098H
	cmp	ebp, esp
	call	__RTC_CheckEsp
	mov	esp, ebp
	pop	ebp
	ret	4
	npad	2
$LN16@operator:
	DD	1
	DD	$LN15@operator
$LN15@operator:
	DD	-36					; ffffffdcH
	DD	12					; 0000000cH
	DD	$LN13@operator
$LN13@operator:
	DB	95					; 0000005fH
	DB	87					; 00000057H
	DB	104					; 00000068H
	DB	101					; 00000065H
	DB	114					; 00000072H
	DB	101					; 00000065H
	DB	0
_TEXT	ENDS
;	COMDAT text$x
text$x	SEGMENT
__unwindfunclet$??A?$map@V?$basic_string@DU?$char_traits@D@std@@V?$allocator@D@2@@std@@PAVFuzzyVariable@@U?$less@V?$basic_string@DU?$char_traits@D@std@@V?$allocator@D@2@@std@@@2@V?$allocator@U?$pair@$$CBV?$basic_string@DU?$char_traits@D@std@@V?$allocator@D@2@@std@@PAVFuzzyVariable@@@std@@@2@@std@@QAEAAPAVFuzzyVariable@@ABV?$basic_string@DU?$char_traits@D@std@@V?$allocator@D@2@@1@@Z$0:
	lea	ecx, DWORD PTR __Where$[ebp]
	jmp	??1?$_Tree_iterator@V?$_Tree_val@V?$_Tmap_traits@V?$basic_string@DU?$char_traits@D@std@@V?$allocator@D@2@@std@@PAVFuzzyVariable@@U?$less@V?$basic_string@DU?$char_traits@D@std@@V?$allocator@D@2@@std@@@2@V?$allocator@U?$pair@$$CBV?$basic_string@DU?$char_traits@D@std@@V?$allocator@D@2@@std@@PAVFuzzyVariable@@@std@@@2@$0A@@std@@@std@@@std@@QAE@XZ
__unwindfunclet$??A?$map@V?$basic_string@DU?$char_traits@D@std@@V?$allocator@D@2@@std@@PAVFuzzyVariable@@U?$less@V?$basic_string@DU?$char_traits@D@std@@V?$allocator@D@2@@std@@@2@V?$allocator@U?$pair@$$CBV?$basic_string@DU?$char_traits@D@std@@V?$allocator@D@2@@std@@PAVFuzzyVariable@@@std@@@2@@std@@QAEAAPAVFuzzyVariable@@ABV?$basic_string@DU?$char_traits@D@std@@V?$allocator@D@2@@1@@Z$1:
	mov	eax, DWORD PTR $T52942[ebp]
	and	eax, 1
	je	$LN8@operator
	and	DWORD PTR $T52942[ebp], -2		; fffffffeH
	lea	ecx, DWORD PTR $T52934[ebp]
	jmp	??1?$_Tree_iterator@V?$_Tree_val@V?$_Tmap_traits@V?$basic_string@DU?$char_traits@D@std@@V?$allocator@D@2@@std@@PAVFuzzyVariable@@U?$less@V?$basic_string@DU?$char_traits@D@std@@V?$allocator@D@2@@std@@@2@V?$allocator@U?$pair@$$CBV?$basic_string@DU?$char_traits@D@std@@V?$allocator@D@2@@std@@PAVFuzzyVariable@@@std@@@2@$0A@@std@@@std@@@std@@QAE@XZ
$LN8@operator:
	ret	0
__unwindfunclet$??A?$map@V?$basic_string@DU?$char_traits@D@std@@V?$allocator@D@2@@std@@PAVFuzzyVariable@@U?$less@V?$basic_string@DU?$char_traits@D@std@@V?$allocator@D@2@@std@@@2@V?$allocator@U?$pair@$$CBV?$basic_string@DU?$char_traits@D@std@@V?$allocator@D@2@@std@@PAVFuzzyVariable@@@std@@@2@@std@@QAEAAPAVFuzzyVariable@@ABV?$basic_string@DU?$char_traits@D@std@@V?$allocator@D@2@@1@@Z$2:
	lea	ecx, DWORD PTR $T46968[ebp]
	jmp	??1?$pair@$$CBV?$basic_string@DU?$char_traits@D@std@@V?$allocator@D@2@@std@@PAVFuzzyVariable@@@std@@QAE@XZ
__unwindfunclet$??A?$map@V?$basic_string@DU?$char_traits@D@std@@V?$allocator@D@2@@std@@PAVFuzzyVariable@@U?$less@V?$basic_string@DU?$char_traits@D@std@@V?$allocator@D@2@@std@@@2@V?$allocator@U?$pair@$$CBV?$basic_string@DU?$char_traits@D@std@@V?$allocator@D@2@@std@@PAVFuzzyVariable@@@std@@@2@@std@@QAEAAPAVFuzzyVariable@@ABV?$basic_string@DU?$char_traits@D@std@@V?$allocator@D@2@@1@@Z$4:
	lea	ecx, DWORD PTR $T52939[ebp]
	jmp	??1?$_Tree_iterator@V?$_Tree_val@V?$_Tmap_traits@V?$basic_string@DU?$char_traits@D@std@@V?$allocator@D@2@@std@@PAVFuzzyVariable@@U?$less@V?$basic_string@DU?$char_traits@D@std@@V?$allocator@D@2@@std@@@2@V?$allocator@U?$pair@$$CBV?$basic_string@DU?$char_traits@D@std@@V?$allocator@D@2@@std@@PAVFuzzyVariable@@@std@@@2@$0A@@std@@@std@@@std@@QAE@XZ
__ehhandler$??A?$map@V?$basic_string@DU?$char_traits@D@std@@V?$allocator@D@2@@std@@PAVFuzzyVariable@@U?$less@V?$basic_string@DU?$char_traits@D@std@@V?$allocator@D@2@@std@@@2@V?$allocator@U?$pair@$$CBV?$basic_string@DU?$char_traits@D@std@@V?$allocator@D@2@@std@@PAVFuzzyVariable@@@std@@@2@@std@@QAEAAPAVFuzzyVariable@@ABV?$basic_string@DU?$char_traits@D@std@@V?$allocator@D@2@@1@@Z:
	mov	edx, DWORD PTR [esp+8]
	lea	eax, DWORD PTR [edx+12]
	mov	ecx, DWORD PTR [edx-148]
	xor	ecx, eax
	call	@__security_check_cookie@4
	mov	ecx, DWORD PTR [edx-4]
	xor	ecx, eax
	call	@__security_check_cookie@4
	mov	eax, OFFSET __ehfuncinfo$??A?$map@V?$basic_string@DU?$char_traits@D@std@@V?$allocator@D@2@@std@@PAVFuzzyVariable@@U?$less@V?$basic_string@DU?$char_traits@D@std@@V?$allocator@D@2@@std@@@2@V?$allocator@U?$pair@$$CBV?$basic_string@DU?$char_traits@D@std@@V?$allocator@D@2@@std@@PAVFuzzyVariable@@@std@@@2@@std@@QAEAAPAVFuzzyVariable@@ABV?$basic_string@DU?$char_traits@D@std@@V?$allocator@D@2@@1@@Z
	jmp	___CxxFrameHandler3
text$x	ENDS
??A?$map@V?$basic_string@DU?$char_traits@D@std@@V?$allocator@D@2@@std@@PAVFuzzyVariable@@U?$less@V?$basic_string@DU?$char_traits@D@std@@V?$allocator@D@2@@std@@@2@V?$allocator@U?$pair@$$CBV?$basic_string@DU?$char_traits@D@std@@V?$allocator@D@2@@std@@PAVFuzzyVariable@@@std@@@2@@std@@QAEAAPAVFuzzyVariable@@ABV?$basic_string@DU?$char_traits@D@std@@V?$allocator@D@2@@1@@Z ENDP ; std::map<std::basic_string<char,std::char_traits<char>,std::allocator<char> >,FuzzyVariable *,std::less<std::basic_string<char,std::char_traits<char>,std::allocator<char> > >,std::allocator<std::pair<std::basic_string<char,std::char_traits<char>,std::allocator<char> > const ,FuzzyVariable *> > >::operator[]
PUBLIC	??1?$_Tree_val@V?$_Tmap_traits@V?$basic_string@DU?$char_traits@D@std@@V?$allocator@D@2@@std@@PAVFuzzyVariable@@U?$less@V?$basic_string@DU?$char_traits@D@std@@V?$allocator@D@2@@std@@@2@V?$allocator@U?$pair@$$CBV?$basic_string@DU?$char_traits@D@std@@V?$allocator@D@2@@std@@PAVFuzzyVariable@@@std@@@2@$0A@@std@@@std@@QAE@XZ ; std::_Tree_val<std::_Tmap_traits<std::basic_string<char,std::char_traits<char>,std::allocator<char> >,FuzzyVariable *,std::less<std::basic_string<char,std::char_traits<char>,std::allocator<char> > >,std::allocator<std::pair<std::basic_string<char,std::char_traits<char>,std::allocator<char> > const ,FuzzyVariable *> >,0> >::~_Tree_val<std::_Tmap_traits<std::basic_string<char,std::char_traits<char>,std::allocator<char> >,FuzzyVariable *,std::less<std::basic_string<char,std::char_traits<char>,std::allocator<char> > >,std::allocator<std::pair<std::basic_string<char,std::char_traits<char>,std::allocator<char> > const ,FuzzyVariable *> >,0> >
PUBLIC	?_Tidy@?$_Tree@V?$_Tmap_traits@V?$basic_string@DU?$char_traits@D@std@@V?$allocator@D@2@@std@@PAVFuzzyVariable@@U?$less@V?$basic_string@DU?$char_traits@D@std@@V?$allocator@D@2@@std@@@2@V?$allocator@U?$pair@$$CBV?$basic_string@DU?$char_traits@D@std@@V?$allocator@D@2@@std@@PAVFuzzyVariable@@@std@@@2@$0A@@std@@@std@@IAEXXZ ; std::_Tree<std::_Tmap_traits<std::basic_string<char,std::char_traits<char>,std::allocator<char> >,FuzzyVariable *,std::less<std::basic_string<char,std::char_traits<char>,std::allocator<char> > >,std::allocator<std::pair<std::basic_string<char,std::char_traits<char>,std::allocator<char> > const ,FuzzyVariable *> >,0> >::_Tidy
;	COMDAT xdata$x
; File c:\program files (x86)\microsoft visual studio 10.0\vc\include\xtree
xdata$x	SEGMENT
__unwindtable$??1?$_Tree@V?$_Tmap_traits@V?$basic_string@DU?$char_traits@D@std@@V?$allocator@D@2@@std@@PAVFuzzyVariable@@U?$less@V?$basic_string@DU?$char_traits@D@std@@V?$allocator@D@2@@std@@@2@V?$allocator@U?$pair@$$CBV?$basic_string@DU?$char_traits@D@std@@V?$allocator@D@2@@std@@PAVFuzzyVariable@@@std@@@2@$0A@@std@@@std@@QAE@XZ DD 0ffffffffH
	DD	FLAT:__unwindfunclet$??1?$_Tree@V?$_Tmap_traits@V?$basic_string@DU?$char_traits@D@std@@V?$allocator@D@2@@std@@PAVFuzzyVariable@@U?$less@V?$basic_string@DU?$char_traits@D@std@@V?$allocator@D@2@@std@@@2@V?$allocator@U?$pair@$$CBV?$basic_string@DU?$char_traits@D@std@@V?$allocator@D@2@@std@@PAVFuzzyVariable@@@std@@@2@$0A@@std@@@std@@QAE@XZ$0
__ehfuncinfo$??1?$_Tree@V?$_Tmap_traits@V?$basic_string@DU?$char_traits@D@std@@V?$allocator@D@2@@std@@PAVFuzzyVariable@@U?$less@V?$basic_string@DU?$char_traits@D@std@@V?$allocator@D@2@@std@@@2@V?$allocator@U?$pair@$$CBV?$basic_string@DU?$char_traits@D@std@@V?$allocator@D@2@@std@@PAVFuzzyVariable@@@std@@@2@$0A@@std@@@std@@QAE@XZ DD 019930522H
	DD	01H
	DD	FLAT:__unwindtable$??1?$_Tree@V?$_Tmap_traits@V?$basic_string@DU?$char_traits@D@std@@V?$allocator@D@2@@std@@PAVFuzzyVariable@@U?$less@V?$basic_string@DU?$char_traits@D@std@@V?$allocator@D@2@@std@@@2@V?$allocator@U?$pair@$$CBV?$basic_string@DU?$char_traits@D@std@@V?$allocator@D@2@@std@@PAVFuzzyVariable@@@std@@@2@$0A@@std@@@std@@QAE@XZ
	DD	2 DUP(00H)
	DD	2 DUP(00H)
	DD	00H
	DD	01H
; Function compile flags: /Odtp /RTCsu
xdata$x	ENDS
;	COMDAT ??1?$_Tree@V?$_Tmap_traits@V?$basic_string@DU?$char_traits@D@std@@V?$allocator@D@2@@std@@PAVFuzzyVariable@@U?$less@V?$basic_string@DU?$char_traits@D@std@@V?$allocator@D@2@@std@@@2@V?$allocator@U?$pair@$$CBV?$basic_string@DU?$char_traits@D@std@@V?$allocator@D@2@@std@@PAVFuzzyVariable@@@std@@@2@$0A@@std@@@std@@QAE@XZ
_TEXT	SEGMENT
_this$ = -16						; size = 4
__$EHRec$ = -12						; size = 12
??1?$_Tree@V?$_Tmap_traits@V?$basic_string@DU?$char_traits@D@std@@V?$allocator@D@2@@std@@PAVFuzzyVariable@@U?$less@V?$basic_string@DU?$char_traits@D@std@@V?$allocator@D@2@@std@@@2@V?$allocator@U?$pair@$$CBV?$basic_string@DU?$char_traits@D@std@@V?$allocator@D@2@@std@@PAVFuzzyVariable@@@std@@@2@$0A@@std@@@std@@QAE@XZ PROC ; std::_Tree<std::_Tmap_traits<std::basic_string<char,std::char_traits<char>,std::allocator<char> >,FuzzyVariable *,std::less<std::basic_string<char,std::char_traits<char>,std::allocator<char> > >,std::allocator<std::pair<std::basic_string<char,std::char_traits<char>,std::allocator<char> > const ,FuzzyVariable *> >,0> >::~_Tree<std::_Tmap_traits<std::basic_string<char,std::char_traits<char>,std::allocator<char> >,FuzzyVariable *,std::less<std::basic_string<char,std::char_traits<char>,std::allocator<char> > >,std::allocator<std::pair<std::basic_string<char,std::char_traits<char>,std::allocator<char> > const ,FuzzyVariable *> >,0> >, COMDAT
; _this$ = ecx

; 790  : 		{	// destroy tree

	push	ebp
	mov	ebp, esp
	push	-1
	push	__ehhandler$??1?$_Tree@V?$_Tmap_traits@V?$basic_string@DU?$char_traits@D@std@@V?$allocator@D@2@@std@@PAVFuzzyVariable@@U?$less@V?$basic_string@DU?$char_traits@D@std@@V?$allocator@D@2@@std@@@2@V?$allocator@U?$pair@$$CBV?$basic_string@DU?$char_traits@D@std@@V?$allocator@D@2@@std@@PAVFuzzyVariable@@@std@@@2@$0A@@std@@@std@@QAE@XZ
	mov	eax, DWORD PTR fs:0
	push	eax
	push	ecx
	mov	DWORD PTR [ebp-16], -858993460		; ccccccccH
	mov	eax, DWORD PTR ___security_cookie
	xor	eax, ebp
	push	eax
	lea	eax, DWORD PTR __$EHRec$[ebp]
	mov	DWORD PTR fs:0, eax
	mov	DWORD PTR _this$[ebp], ecx
	mov	DWORD PTR __$EHRec$[ebp+8], 0

; 791  : 		_Tidy();

	mov	ecx, DWORD PTR _this$[ebp]
	call	?_Tidy@?$_Tree@V?$_Tmap_traits@V?$basic_string@DU?$char_traits@D@std@@V?$allocator@D@2@@std@@PAVFuzzyVariable@@U?$less@V?$basic_string@DU?$char_traits@D@std@@V?$allocator@D@2@@std@@@2@V?$allocator@U?$pair@$$CBV?$basic_string@DU?$char_traits@D@std@@V?$allocator@D@2@@std@@PAVFuzzyVariable@@@std@@@2@$0A@@std@@@std@@IAEXXZ ; std::_Tree<std::_Tmap_traits<std::basic_string<char,std::char_traits<char>,std::allocator<char> >,FuzzyVariable *,std::less<std::basic_string<char,std::char_traits<char>,std::allocator<char> > >,std::allocator<std::pair<std::basic_string<char,std::char_traits<char>,std::allocator<char> > const ,FuzzyVariable *> >,0> >::_Tidy

; 792  : 		}

	mov	DWORD PTR __$EHRec$[ebp+8], -1
	mov	ecx, DWORD PTR _this$[ebp]
	call	??1?$_Tree_val@V?$_Tmap_traits@V?$basic_string@DU?$char_traits@D@std@@V?$allocator@D@2@@std@@PAVFuzzyVariable@@U?$less@V?$basic_string@DU?$char_traits@D@std@@V?$allocator@D@2@@std@@@2@V?$allocator@U?$pair@$$CBV?$basic_string@DU?$char_traits@D@std@@V?$allocator@D@2@@std@@PAVFuzzyVariable@@@std@@@2@$0A@@std@@@std@@QAE@XZ ; std::_Tree_val<std::_Tmap_traits<std::basic_string<char,std::char_traits<char>,std::allocator<char> >,FuzzyVariable *,std::less<std::basic_string<char,std::char_traits<char>,std::allocator<char> > >,std::allocator<std::pair<std::basic_string<char,std::char_traits<char>,std::allocator<char> > const ,FuzzyVariable *> >,0> >::~_Tree_val<std::_Tmap_traits<std::basic_string<char,std::char_traits<char>,std::allocator<char> >,FuzzyVariable *,std::less<std::basic_string<char,std::char_traits<char>,std::allocator<char> > >,std::allocator<std::pair<std::basic_string<char,std::char_traits<char>,std::allocator<char> > const ,FuzzyVariable *> >,0> >
	mov	ecx, DWORD PTR __$EHRec$[ebp]
	mov	DWORD PTR fs:0, ecx
	pop	ecx
	add	esp, 16					; 00000010H
	cmp	ebp, esp
	call	__RTC_CheckEsp
	mov	esp, ebp
	pop	ebp
	ret	0
_TEXT	ENDS
;	COMDAT text$x
text$x	SEGMENT
__unwindfunclet$??1?$_Tree@V?$_Tmap_traits@V?$basic_string@DU?$char_traits@D@std@@V?$allocator@D@2@@std@@PAVFuzzyVariable@@U?$less@V?$basic_string@DU?$char_traits@D@std@@V?$allocator@D@2@@std@@@2@V?$allocator@U?$pair@$$CBV?$basic_string@DU?$char_traits@D@std@@V?$allocator@D@2@@std@@PAVFuzzyVariable@@@std@@@2@$0A@@std@@@std@@QAE@XZ$0:
	mov	ecx, DWORD PTR _this$[ebp]
	jmp	??1?$_Tree_val@V?$_Tmap_traits@V?$basic_string@DU?$char_traits@D@std@@V?$allocator@D@2@@std@@PAVFuzzyVariable@@U?$less@V?$basic_string@DU?$char_traits@D@std@@V?$allocator@D@2@@std@@@2@V?$allocator@U?$pair@$$CBV?$basic_string@DU?$char_traits@D@std@@V?$allocator@D@2@@std@@PAVFuzzyVariable@@@std@@@2@$0A@@std@@@std@@QAE@XZ ; std::_Tree_val<std::_Tmap_traits<std::basic_string<char,std::char_traits<char>,std::allocator<char> >,FuzzyVariable *,std::less<std::basic_string<char,std::char_traits<char>,std::allocator<char> > >,std::allocator<std::pair<std::basic_string<char,std::char_traits<char>,std::allocator<char> > const ,FuzzyVariable *> >,0> >::~_Tree_val<std::_Tmap_traits<std::basic_string<char,std::char_traits<char>,std::allocator<char> >,FuzzyVariable *,std::less<std::basic_string<char,std::char_traits<char>,std::allocator<char> > >,std::allocator<std::pair<std::basic_string<char,std::char_traits<char>,std::allocator<char> > const ,FuzzyVariable *> >,0> >
__ehhandler$??1?$_Tree@V?$_Tmap_traits@V?$basic_string@DU?$char_traits@D@std@@V?$allocator@D@2@@std@@PAVFuzzyVariable@@U?$less@V?$basic_string@DU?$char_traits@D@std@@V?$allocator@D@2@@std@@@2@V?$allocator@U?$pair@$$CBV?$basic_string@DU?$char_traits@D@std@@V?$allocator@D@2@@std@@PAVFuzzyVariable@@@std@@@2@$0A@@std@@@std@@QAE@XZ:
	mov	edx, DWORD PTR [esp+8]
	lea	eax, DWORD PTR [edx+12]
	mov	ecx, DWORD PTR [edx-8]
	xor	ecx, eax
	call	@__security_check_cookie@4
	mov	eax, OFFSET __ehfuncinfo$??1?$_Tree@V?$_Tmap_traits@V?$basic_string@DU?$char_traits@D@std@@V?$allocator@D@2@@std@@PAVFuzzyVariable@@U?$less@V?$basic_string@DU?$char_traits@D@std@@V?$allocator@D@2@@std@@@2@V?$allocator@U?$pair@$$CBV?$basic_string@DU?$char_traits@D@std@@V?$allocator@D@2@@std@@PAVFuzzyVariable@@@std@@@2@$0A@@std@@@std@@QAE@XZ
	jmp	___CxxFrameHandler3
text$x	ENDS
??1?$_Tree@V?$_Tmap_traits@V?$basic_string@DU?$char_traits@D@std@@V?$allocator@D@2@@std@@PAVFuzzyVariable@@U?$less@V?$basic_string@DU?$char_traits@D@std@@V?$allocator@D@2@@std@@@2@V?$allocator@U?$pair@$$CBV?$basic_string@DU?$char_traits@D@std@@V?$allocator@D@2@@std@@PAVFuzzyVariable@@@std@@@2@$0A@@std@@@std@@QAE@XZ ENDP ; std::_Tree<std::_Tmap_traits<std::basic_string<char,std::char_traits<char>,std::allocator<char> >,FuzzyVariable *,std::less<std::basic_string<char,std::char_traits<char>,std::allocator<char> > >,std::allocator<std::pair<std::basic_string<char,std::char_traits<char>,std::allocator<char> > const ,FuzzyVariable *> >,0> >::~_Tree<std::_Tmap_traits<std::basic_string<char,std::char_traits<char>,std::allocator<char> >,FuzzyVariable *,std::less<std::basic_string<char,std::char_traits<char>,std::allocator<char> > >,std::allocator<std::pair<std::basic_string<char,std::char_traits<char>,std::allocator<char> > const ,FuzzyVariable *> >,0> >
PUBLIC	??0?$_Tree_iterator@V?$_Tree_val@V?$_Tmap_traits@V?$basic_string@DU?$char_traits@D@std@@V?$allocator@D@2@@std@@PAVFuzzyVariable@@U?$less@V?$basic_string@DU?$char_traits@D@std@@V?$allocator@D@2@@std@@@2@V?$allocator@U?$pair@$$CBV?$basic_string@DU?$char_traits@D@std@@V?$allocator@D@2@@std@@PAVFuzzyVariable@@@std@@@2@$0A@@std@@@std@@@std@@QAE@PAU_Node@?$_Tree_nod@V?$_Tmap_traits@V?$basic_string@DU?$char_traits@D@std@@V?$allocator@D@2@@std@@PAVFuzzyVariable@@U?$less@V?$basic_string@DU?$char_traits@D@std@@V?$allocator@D@2@@std@@@2@V?$allocator@U?$pair@$$CBV?$basic_string@DU?$char_traits@D@std@@V?$allocator@D@2@@std@@PAVFuzzyVariable@@@std@@@2@$0A@@std@@@1@PBV?$_Tree_val@V?$_Tmap_traits@V?$basic_string@DU?$char_traits@D@std@@V?$allocator@D@2@@std@@PAVFuzzyVariable@@U?$less@V?$basic_string@DU?$char_traits@D@std@@V?$allocator@D@2@@std@@@2@V?$allocator@U?$pair@$$CBV?$basic_string@DU?$char_traits@D@std@@V?$allocator@D@2@@std@@PAVFuzzyVariable@@@std@@@2@$0A@@std@@@1@@Z ; std::_Tree_iterator<std::_Tree_val<std::_Tmap_traits<std::basic_string<char,std::char_traits<char>,std::allocator<char> >,FuzzyVariable *,std::less<std::basic_string<char,std::char_traits<char>,std::allocator<char> > >,std::allocator<std::pair<std::basic_string<char,std::char_traits<char>,std::allocator<char> > const ,FuzzyVariable *> >,0> > >::_Tree_iterator<std::_Tree_val<std::_Tmap_traits<std::basic_string<char,std::char_traits<char>,std::allocator<char> >,FuzzyVariable *,std::less<std::basic_string<char,std::char_traits<char>,std::allocator<char> > >,std::allocator<std::pair<std::basic_string<char,std::char_traits<char>,std::allocator<char> > const ,FuzzyVariable *> >,0> > >
PUBLIC	?_Lmost@?$_Tree@V?$_Tmap_traits@V?$basic_string@DU?$char_traits@D@std@@V?$allocator@D@2@@std@@PAVFuzzyVariable@@U?$less@V?$basic_string@DU?$char_traits@D@std@@V?$allocator@D@2@@std@@@2@V?$allocator@U?$pair@$$CBV?$basic_string@DU?$char_traits@D@std@@V?$allocator@D@2@@std@@PAVFuzzyVariable@@@std@@@2@$0A@@std@@@std@@IBEAAPAU_Node@?$_Tree_nod@V?$_Tmap_traits@V?$basic_string@DU?$char_traits@D@std@@V?$allocator@D@2@@std@@PAVFuzzyVariable@@U?$less@V?$basic_string@DU?$char_traits@D@std@@V?$allocator@D@2@@std@@@2@V?$allocator@U?$pair@$$CBV?$basic_string@DU?$char_traits@D@std@@V?$allocator@D@2@@std@@PAVFuzzyVariable@@@std@@@2@$0A@@std@@@2@XZ ; std::_Tree<std::_Tmap_traits<std::basic_string<char,std::char_traits<char>,std::allocator<char> >,FuzzyVariable *,std::less<std::basic_string<char,std::char_traits<char>,std::allocator<char> > >,std::allocator<std::pair<std::basic_string<char,std::char_traits<char>,std::allocator<char> > const ,FuzzyVariable *> >,0> >::_Lmost
; Function compile flags: /Odtp /RTCsu
;	COMDAT ?begin@?$_Tree@V?$_Tmap_traits@V?$basic_string@DU?$char_traits@D@std@@V?$allocator@D@2@@std@@PAVFuzzyVariable@@U?$less@V?$basic_string@DU?$char_traits@D@std@@V?$allocator@D@2@@std@@@2@V?$allocator@U?$pair@$$CBV?$basic_string@DU?$char_traits@D@std@@V?$allocator@D@2@@std@@PAVFuzzyVariable@@@std@@@2@$0A@@std@@@std@@QAE?AV?$_Tree_iterator@V?$_Tree_val@V?$_Tmap_traits@V?$basic_string@DU?$char_traits@D@std@@V?$allocator@D@2@@std@@PAVFuzzyVariable@@U?$less@V?$basic_string@DU?$char_traits@D@std@@V?$allocator@D@2@@std@@@2@V?$allocator@U?$pair@$$CBV?$basic_string@DU?$char_traits@D@std@@V?$allocator@D@2@@std@@PAVFuzzyVariable@@@std@@@2@$0A@@std@@@std@@@2@XZ
_TEXT	SEGMENT
$T52970 = -8						; size = 4
_this$ = -4						; size = 4
___$ReturnUdt$ = 8					; size = 4
?begin@?$_Tree@V?$_Tmap_traits@V?$basic_string@DU?$char_traits@D@std@@V?$allocator@D@2@@std@@PAVFuzzyVariable@@U?$less@V?$basic_string@DU?$char_traits@D@std@@V?$allocator@D@2@@std@@@2@V?$allocator@U?$pair@$$CBV?$basic_string@DU?$char_traits@D@std@@V?$allocator@D@2@@std@@PAVFuzzyVariable@@@std@@@2@$0A@@std@@@std@@QAE?AV?$_Tree_iterator@V?$_Tree_val@V?$_Tmap_traits@V?$basic_string@DU?$char_traits@D@std@@V?$allocator@D@2@@std@@PAVFuzzyVariable@@U?$less@V?$basic_string@DU?$char_traits@D@std@@V?$allocator@D@2@@std@@@2@V?$allocator@U?$pair@$$CBV?$basic_string@DU?$char_traits@D@std@@V?$allocator@D@2@@std@@PAVFuzzyVariable@@@std@@@2@$0A@@std@@@std@@@2@XZ PROC ; std::_Tree<std::_Tmap_traits<std::basic_string<char,std::char_traits<char>,std::allocator<char> >,FuzzyVariable *,std::less<std::basic_string<char,std::char_traits<char>,std::allocator<char> > >,std::allocator<std::pair<std::basic_string<char,std::char_traits<char>,std::allocator<char> > const ,FuzzyVariable *> >,0> >::begin, COMDAT
; _this$ = ecx

; 806  : 		{	// return iterator for beginning of mutable sequence

	push	ebp
	mov	ebp, esp
	sub	esp, 8
	mov	DWORD PTR [ebp-8], -858993460		; ccccccccH
	mov	DWORD PTR [ebp-4], -858993460		; ccccccccH
	mov	DWORD PTR _this$[ebp], ecx
	mov	DWORD PTR $T52970[ebp], 0

; 807  : 		return (iterator(_Lmost(), this));

	mov	eax, DWORD PTR _this$[ebp]
	push	eax
	mov	ecx, DWORD PTR _this$[ebp]
	call	?_Lmost@?$_Tree@V?$_Tmap_traits@V?$basic_string@DU?$char_traits@D@std@@V?$allocator@D@2@@std@@PAVFuzzyVariable@@U?$less@V?$basic_string@DU?$char_traits@D@std@@V?$allocator@D@2@@std@@@2@V?$allocator@U?$pair@$$CBV?$basic_string@DU?$char_traits@D@std@@V?$allocator@D@2@@std@@PAVFuzzyVariable@@@std@@@2@$0A@@std@@@std@@IBEAAPAU_Node@?$_Tree_nod@V?$_Tmap_traits@V?$basic_string@DU?$char_traits@D@std@@V?$allocator@D@2@@std@@PAVFuzzyVariable@@U?$less@V?$basic_string@DU?$char_traits@D@std@@V?$allocator@D@2@@std@@@2@V?$allocator@U?$pair@$$CBV?$basic_string@DU?$char_traits@D@std@@V?$allocator@D@2@@std@@PAVFuzzyVariable@@@std@@@2@$0A@@std@@@2@XZ ; std::_Tree<std::_Tmap_traits<std::basic_string<char,std::char_traits<char>,std::allocator<char> >,FuzzyVariable *,std::less<std::basic_string<char,std::char_traits<char>,std::allocator<char> > >,std::allocator<std::pair<std::basic_string<char,std::char_traits<char>,std::allocator<char> > const ,FuzzyVariable *> >,0> >::_Lmost
	mov	ecx, DWORD PTR [eax]
	push	ecx
	mov	ecx, DWORD PTR ___$ReturnUdt$[ebp]
	call	??0?$_Tree_iterator@V?$_Tree_val@V?$_Tmap_traits@V?$basic_string@DU?$char_traits@D@std@@V?$allocator@D@2@@std@@PAVFuzzyVariable@@U?$less@V?$basic_string@DU?$char_traits@D@std@@V?$allocator@D@2@@std@@@2@V?$allocator@U?$pair@$$CBV?$basic_string@DU?$char_traits@D@std@@V?$allocator@D@2@@std@@PAVFuzzyVariable@@@std@@@2@$0A@@std@@@std@@@std@@QAE@PAU_Node@?$_Tree_nod@V?$_Tmap_traits@V?$basic_string@DU?$char_traits@D@std@@V?$allocator@D@2@@std@@PAVFuzzyVariable@@U?$less@V?$basic_string@DU?$char_traits@D@std@@V?$allocator@D@2@@std@@@2@V?$allocator@U?$pair@$$CBV?$basic_string@DU?$char_traits@D@std@@V?$allocator@D@2@@std@@PAVFuzzyVariable@@@std@@@2@$0A@@std@@@1@PBV?$_Tree_val@V?$_Tmap_traits@V?$basic_string@DU?$char_traits@D@std@@V?$allocator@D@2@@std@@PAVFuzzyVariable@@U?$less@V?$basic_string@DU?$char_traits@D@std@@V?$allocator@D@2@@std@@@2@V?$allocator@U?$pair@$$CBV?$basic_string@DU?$char_traits@D@std@@V?$allocator@D@2@@std@@PAVFuzzyVariable@@@std@@@2@$0A@@std@@@1@@Z ; std::_Tree_iterator<std::_Tree_val<std::_Tmap_traits<std::basic_string<char,std::char_traits<char>,std::allocator<char> >,FuzzyVariable *,std::less<std::basic_string<char,std::char_traits<char>,std::allocator<char> > >,std::allocator<std::pair<std::basic_string<char,std::char_traits<char>,std::allocator<char> > const ,FuzzyVariable *> >,0> > >::_Tree_iterator<std::_Tree_val<std::_Tmap_traits<std::basic_string<char,std::char_traits<char>,std::allocator<char> >,FuzzyVariable *,std::less<std::basic_string<char,std::char_traits<char>,std::allocator<char> > >,std::allocator<std::pair<std::basic_string<char,std::char_traits<char>,std::allocator<char> > const ,FuzzyVariable *> >,0> > >
	mov	edx, DWORD PTR $T52970[ebp]
	or	edx, 1
	mov	DWORD PTR $T52970[ebp], edx
	mov	eax, DWORD PTR ___$ReturnUdt$[ebp]

; 808  : 		}

	add	esp, 8
	cmp	ebp, esp
	call	__RTC_CheckEsp
	mov	esp, ebp
	pop	ebp
	ret	4
?begin@?$_Tree@V?$_Tmap_traits@V?$basic_string@DU?$char_traits@D@std@@V?$allocator@D@2@@std@@PAVFuzzyVariable@@U?$less@V?$basic_string@DU?$char_traits@D@std@@V?$allocator@D@2@@std@@@2@V?$allocator@U?$pair@$$CBV?$basic_string@DU?$char_traits@D@std@@V?$allocator@D@2@@std@@PAVFuzzyVariable@@@std@@@2@$0A@@std@@@std@@QAE?AV?$_Tree_iterator@V?$_Tree_val@V?$_Tmap_traits@V?$basic_string@DU?$char_traits@D@std@@V?$allocator@D@2@@std@@PAVFuzzyVariable@@U?$less@V?$basic_string@DU?$char_traits@D@std@@V?$allocator@D@2@@std@@@2@V?$allocator@U?$pair@$$CBV?$basic_string@DU?$char_traits@D@std@@V?$allocator@D@2@@std@@PAVFuzzyVariable@@@std@@@2@$0A@@std@@@std@@@2@XZ ENDP ; std::_Tree<std::_Tmap_traits<std::basic_string<char,std::char_traits<char>,std::allocator<char> >,FuzzyVariable *,std::less<std::basic_string<char,std::char_traits<char>,std::allocator<char> > >,std::allocator<std::pair<std::basic_string<char,std::char_traits<char>,std::allocator<char> > const ,FuzzyVariable *> >,0> >::begin
; Function compile flags: /Odtp /RTCsu
_TEXT	ENDS
;	COMDAT ?end@?$_Tree@V?$_Tmap_traits@V?$basic_string@DU?$char_traits@D@std@@V?$allocator@D@2@@std@@PAVFuzzyVariable@@U?$less@V?$basic_string@DU?$char_traits@D@std@@V?$allocator@D@2@@std@@@2@V?$allocator@U?$pair@$$CBV?$basic_string@DU?$char_traits@D@std@@V?$allocator@D@2@@std@@PAVFuzzyVariable@@@std@@@2@$0A@@std@@@std@@QAE?AV?$_Tree_iterator@V?$_Tree_val@V?$_Tmap_traits@V?$basic_string@DU?$char_traits@D@std@@V?$allocator@D@2@@std@@PAVFuzzyVariable@@U?$less@V?$basic_string@DU?$char_traits@D@std@@V?$allocator@D@2@@std@@@2@V?$allocator@U?$pair@$$CBV?$basic_string@DU?$char_traits@D@std@@V?$allocator@D@2@@std@@PAVFuzzyVariable@@@std@@@2@$0A@@std@@@std@@@2@XZ
_TEXT	SEGMENT
$T52975 = -8						; size = 4
_this$ = -4						; size = 4
___$ReturnUdt$ = 8					; size = 4
?end@?$_Tree@V?$_Tmap_traits@V?$basic_string@DU?$char_traits@D@std@@V?$allocator@D@2@@std@@PAVFuzzyVariable@@U?$less@V?$basic_string@DU?$char_traits@D@std@@V?$allocator@D@2@@std@@@2@V?$allocator@U?$pair@$$CBV?$basic_string@DU?$char_traits@D@std@@V?$allocator@D@2@@std@@PAVFuzzyVariable@@@std@@@2@$0A@@std@@@std@@QAE?AV?$_Tree_iterator@V?$_Tree_val@V?$_Tmap_traits@V?$basic_string@DU?$char_traits@D@std@@V?$allocator@D@2@@std@@PAVFuzzyVariable@@U?$less@V?$basic_string@DU?$char_traits@D@std@@V?$allocator@D@2@@std@@@2@V?$allocator@U?$pair@$$CBV?$basic_string@DU?$char_traits@D@std@@V?$allocator@D@2@@std@@PAVFuzzyVariable@@@std@@@2@$0A@@std@@@std@@@2@XZ PROC ; std::_Tree<std::_Tmap_traits<std::basic_string<char,std::char_traits<char>,std::allocator<char> >,FuzzyVariable *,std::less<std::basic_string<char,std::char_traits<char>,std::allocator<char> > >,std::allocator<std::pair<std::basic_string<char,std::char_traits<char>,std::allocator<char> > const ,FuzzyVariable *> >,0> >::end, COMDAT
; _this$ = ecx

; 816  : 		{	// return iterator for end of mutable sequence

	push	ebp
	mov	ebp, esp
	sub	esp, 8
	mov	DWORD PTR [ebp-8], -858993460		; ccccccccH
	mov	DWORD PTR [ebp-4], -858993460		; ccccccccH
	mov	DWORD PTR _this$[ebp], ecx
	mov	DWORD PTR $T52975[ebp], 0

; 817  : 		return (iterator(this->_Myhead, this));

	mov	eax, DWORD PTR _this$[ebp]
	push	eax
	mov	ecx, DWORD PTR _this$[ebp]
	mov	edx, DWORD PTR [ecx+8]
	push	edx
	mov	ecx, DWORD PTR ___$ReturnUdt$[ebp]
	call	??0?$_Tree_iterator@V?$_Tree_val@V?$_Tmap_traits@V?$basic_string@DU?$char_traits@D@std@@V?$allocator@D@2@@std@@PAVFuzzyVariable@@U?$less@V?$basic_string@DU?$char_traits@D@std@@V?$allocator@D@2@@std@@@2@V?$allocator@U?$pair@$$CBV?$basic_string@DU?$char_traits@D@std@@V?$allocator@D@2@@std@@PAVFuzzyVariable@@@std@@@2@$0A@@std@@@std@@@std@@QAE@PAU_Node@?$_Tree_nod@V?$_Tmap_traits@V?$basic_string@DU?$char_traits@D@std@@V?$allocator@D@2@@std@@PAVFuzzyVariable@@U?$less@V?$basic_string@DU?$char_traits@D@std@@V?$allocator@D@2@@std@@@2@V?$allocator@U?$pair@$$CBV?$basic_string@DU?$char_traits@D@std@@V?$allocator@D@2@@std@@PAVFuzzyVariable@@@std@@@2@$0A@@std@@@1@PBV?$_Tree_val@V?$_Tmap_traits@V?$basic_string@DU?$char_traits@D@std@@V?$allocator@D@2@@std@@PAVFuzzyVariable@@U?$less@V?$basic_string@DU?$char_traits@D@std@@V?$allocator@D@2@@std@@@2@V?$allocator@U?$pair@$$CBV?$basic_string@DU?$char_traits@D@std@@V?$allocator@D@2@@std@@PAVFuzzyVariable@@@std@@@2@$0A@@std@@@1@@Z ; std::_Tree_iterator<std::_Tree_val<std::_Tmap_traits<std::basic_string<char,std::char_traits<char>,std::allocator<char> >,FuzzyVariable *,std::less<std::basic_string<char,std::char_traits<char>,std::allocator<char> > >,std::allocator<std::pair<std::basic_string<char,std::char_traits<char>,std::allocator<char> > const ,FuzzyVariable *> >,0> > >::_Tree_iterator<std::_Tree_val<std::_Tmap_traits<std::basic_string<char,std::char_traits<char>,std::allocator<char> >,FuzzyVariable *,std::less<std::basic_string<char,std::char_traits<char>,std::allocator<char> > >,std::allocator<std::pair<std::basic_string<char,std::char_traits<char>,std::allocator<char> > const ,FuzzyVariable *> >,0> > >
	mov	eax, DWORD PTR $T52975[ebp]
	or	eax, 1
	mov	DWORD PTR $T52975[ebp], eax
	mov	eax, DWORD PTR ___$ReturnUdt$[ebp]

; 818  : 		}

	add	esp, 8
	cmp	ebp, esp
	call	__RTC_CheckEsp
	mov	esp, ebp
	pop	ebp
	ret	4
?end@?$_Tree@V?$_Tmap_traits@V?$basic_string@DU?$char_traits@D@std@@V?$allocator@D@2@@std@@PAVFuzzyVariable@@U?$less@V?$basic_string@DU?$char_traits@D@std@@V?$allocator@D@2@@std@@@2@V?$allocator@U?$pair@$$CBV?$basic_string@DU?$char_traits@D@std@@V?$allocator@D@2@@std@@PAVFuzzyVariable@@@std@@@2@$0A@@std@@@std@@QAE?AV?$_Tree_iterator@V?$_Tree_val@V?$_Tmap_traits@V?$basic_string@DU?$char_traits@D@std@@V?$allocator@D@2@@std@@PAVFuzzyVariable@@U?$less@V?$basic_string@DU?$char_traits@D@std@@V?$allocator@D@2@@std@@@2@V?$allocator@U?$pair@$$CBV?$basic_string@DU?$char_traits@D@std@@V?$allocator@D@2@@std@@PAVFuzzyVariable@@@std@@@2@$0A@@std@@@std@@@2@XZ ENDP ; std::_Tree<std::_Tmap_traits<std::basic_string<char,std::char_traits<char>,std::allocator<char> >,FuzzyVariable *,std::less<std::basic_string<char,std::char_traits<char>,std::allocator<char> > >,std::allocator<std::pair<std::basic_string<char,std::char_traits<char>,std::allocator<char> > const ,FuzzyVariable *> >,0> >::end
_TEXT	ENDS
PUBLIC	??$_Cons_val@V?$allocator@PAVFuzzyRule@@@std@@PAVFuzzyRule@@PAV3@@std@@YAXAAV?$allocator@PAVFuzzyRule@@@0@PAPAVFuzzyRule@@$$QAPAV2@@Z ; std::_Cons_val<std::allocator<FuzzyRule *>,FuzzyRule *,FuzzyRule *>
PUBLIC	??$forward@PAVFuzzyRule@@@std@@YA$$QAPAVFuzzyRule@@AAPAV1@@Z ; std::forward<FuzzyRule *>
PUBLIC	?_Orphan_range@?$vector@PAVFuzzyRule@@V?$allocator@PAVFuzzyRule@@@std@@@std@@IBEXPAPAVFuzzyRule@@0@Z ; std::vector<FuzzyRule *,std::allocator<FuzzyRule *> >::_Orphan_range
PUBLIC	?_Reserve@?$vector@PAVFuzzyRule@@V?$allocator@PAVFuzzyRule@@@std@@@std@@IAEXI@Z ; std::vector<FuzzyRule *,std::allocator<FuzzyRule *> >::_Reserve
PUBLIC	?_Inside@?$vector@PAVFuzzyRule@@V?$allocator@PAVFuzzyRule@@@std@@@std@@IBE_NPBQAVFuzzyRule@@@Z ; std::vector<FuzzyRule *,std::allocator<FuzzyRule *> >::_Inside
PUBLIC	??$addressof@PAVFuzzyRule@@@std@@YAPAPAVFuzzyRule@@AAPAV1@@Z ; std::addressof<FuzzyRule *>
; Function compile flags: /Odtp /RTCsu
; File c:\program files (x86)\microsoft visual studio 10.0\vc\include\vector
;	COMDAT ?push_back@?$vector@PAVFuzzyRule@@V?$allocator@PAVFuzzyRule@@@std@@@std@@QAEX$$QAPAVFuzzyRule@@@Z
_TEXT	SEGMENT
__Idx$47087 = -8					; size = 4
_this$ = -4						; size = 4
__Val$ = 8						; size = 4
?push_back@?$vector@PAVFuzzyRule@@V?$allocator@PAVFuzzyRule@@@std@@@std@@QAEX$$QAPAVFuzzyRule@@@Z PROC ; std::vector<FuzzyRule *,std::allocator<FuzzyRule *> >::push_back, COMDAT
; _this$ = ecx

; 631  : 		{	// insert element at end

	push	ebp
	mov	ebp, esp
	sub	esp, 8
	mov	DWORD PTR [ebp-8], -858993460		; ccccccccH
	mov	DWORD PTR [ebp-4], -858993460		; ccccccccH
	mov	DWORD PTR _this$[ebp], ecx

; 632  : 		if (_Inside(_STD addressof(_Val)))

	mov	eax, DWORD PTR __Val$[ebp]
	push	eax
	call	??$addressof@PAVFuzzyRule@@@std@@YAPAPAVFuzzyRule@@AAPAV1@@Z ; std::addressof<FuzzyRule *>
	add	esp, 4
	push	eax
	mov	ecx, DWORD PTR _this$[ebp]
	call	?_Inside@?$vector@PAVFuzzyRule@@V?$allocator@PAVFuzzyRule@@@std@@@std@@IBE_NPBQAVFuzzyRule@@@Z ; std::vector<FuzzyRule *,std::allocator<FuzzyRule *> >::_Inside
	movzx	ecx, al
	test	ecx, ecx
	je	$LN4@push_back

; 633  : 			{	// push back an element
; 634  : 			size_type _Idx = _STD addressof(_Val) - this->_Myfirst;

	mov	edx, DWORD PTR __Val$[ebp]
	push	edx
	call	??$addressof@PAVFuzzyRule@@@std@@YAPAPAVFuzzyRule@@AAPAV1@@Z ; std::addressof<FuzzyRule *>
	add	esp, 4
	mov	ecx, DWORD PTR _this$[ebp]
	sub	eax, DWORD PTR [ecx+4]
	sar	eax, 2
	mov	DWORD PTR __Idx$47087[ebp], eax

; 635  : 			if (this->_Mylast == this->_Myend)

	mov	edx, DWORD PTR _this$[ebp]
	mov	eax, DWORD PTR _this$[ebp]
	mov	ecx, DWORD PTR [edx+8]
	cmp	ecx, DWORD PTR [eax+12]
	jne	SHORT $LN3@push_back

; 636  : 				_Reserve(1);

	push	1
	mov	ecx, DWORD PTR _this$[ebp]
	call	?_Reserve@?$vector@PAVFuzzyRule@@V?$allocator@PAVFuzzyRule@@@std@@@std@@IAEXI@Z ; std::vector<FuzzyRule *,std::allocator<FuzzyRule *> >::_Reserve
$LN3@push_back:

; 637  : 			_Orphan_range(this->_Mylast, this->_Mylast);

	mov	edx, DWORD PTR _this$[ebp]
	mov	eax, DWORD PTR [edx+8]
	push	eax
	mov	ecx, DWORD PTR _this$[ebp]
	mov	edx, DWORD PTR [ecx+8]
	push	edx
	mov	ecx, DWORD PTR _this$[ebp]
	call	?_Orphan_range@?$vector@PAVFuzzyRule@@V?$allocator@PAVFuzzyRule@@@std@@@std@@IBEXPAPAVFuzzyRule@@0@Z ; std::vector<FuzzyRule *,std::allocator<FuzzyRule *> >::_Orphan_range

; 638  : 			_Cons_val(this->_Alval,
; 639  : 				this->_Mylast,
; 640  : 				_STD forward<_Ty>(this->_Myfirst[_Idx]));

	mov	eax, DWORD PTR _this$[ebp]
	mov	ecx, DWORD PTR [eax+4]
	mov	edx, DWORD PTR __Idx$47087[ebp]
	lea	eax, DWORD PTR [ecx+edx*4]
	push	eax
	call	??$forward@PAVFuzzyRule@@@std@@YA$$QAPAVFuzzyRule@@AAPAV1@@Z ; std::forward<FuzzyRule *>
	add	esp, 4
	push	eax
	mov	ecx, DWORD PTR _this$[ebp]
	mov	edx, DWORD PTR [ecx+8]
	push	edx
	mov	eax, DWORD PTR _this$[ebp]
	add	eax, 16					; 00000010H
	push	eax
	call	??$_Cons_val@V?$allocator@PAVFuzzyRule@@@std@@PAVFuzzyRule@@PAV3@@std@@YAXAAV?$allocator@PAVFuzzyRule@@@0@PAPAVFuzzyRule@@$$QAPAV2@@Z ; std::_Cons_val<std::allocator<FuzzyRule *>,FuzzyRule *,FuzzyRule *>
	add	esp, 12					; 0000000cH

; 641  : 			++this->_Mylast;

	mov	ecx, DWORD PTR _this$[ebp]
	mov	edx, DWORD PTR [ecx+8]
	add	edx, 4
	mov	eax, DWORD PTR _this$[ebp]
	mov	DWORD PTR [eax+8], edx

; 642  : 			}
; 643  : 		else

	jmp	SHORT $LN5@push_back
$LN4@push_back:

; 644  : 			{	// push back a non-element
; 645  : 			if (this->_Mylast == this->_Myend)

	mov	ecx, DWORD PTR _this$[ebp]
	mov	edx, DWORD PTR _this$[ebp]
	mov	eax, DWORD PTR [ecx+8]
	cmp	eax, DWORD PTR [edx+12]
	jne	SHORT $LN1@push_back

; 646  : 				_Reserve(1);

	push	1
	mov	ecx, DWORD PTR _this$[ebp]
	call	?_Reserve@?$vector@PAVFuzzyRule@@V?$allocator@PAVFuzzyRule@@@std@@@std@@IAEXI@Z ; std::vector<FuzzyRule *,std::allocator<FuzzyRule *> >::_Reserve
$LN1@push_back:

; 647  : 			_Orphan_range(this->_Mylast, this->_Mylast);

	mov	ecx, DWORD PTR _this$[ebp]
	mov	edx, DWORD PTR [ecx+8]
	push	edx
	mov	eax, DWORD PTR _this$[ebp]
	mov	ecx, DWORD PTR [eax+8]
	push	ecx
	mov	ecx, DWORD PTR _this$[ebp]
	call	?_Orphan_range@?$vector@PAVFuzzyRule@@V?$allocator@PAVFuzzyRule@@@std@@@std@@IBEXPAPAVFuzzyRule@@0@Z ; std::vector<FuzzyRule *,std::allocator<FuzzyRule *> >::_Orphan_range

; 648  : 			_Cons_val(this->_Alval,
; 649  : 				this->_Mylast,
; 650  : 				_STD forward<_Ty>(_Val));

	mov	edx, DWORD PTR __Val$[ebp]
	push	edx
	call	??$forward@PAVFuzzyRule@@@std@@YA$$QAPAVFuzzyRule@@AAPAV1@@Z ; std::forward<FuzzyRule *>
	add	esp, 4
	push	eax
	mov	eax, DWORD PTR _this$[ebp]
	mov	ecx, DWORD PTR [eax+8]
	push	ecx
	mov	edx, DWORD PTR _this$[ebp]
	add	edx, 16					; 00000010H
	push	edx
	call	??$_Cons_val@V?$allocator@PAVFuzzyRule@@@std@@PAVFuzzyRule@@PAV3@@std@@YAXAAV?$allocator@PAVFuzzyRule@@@0@PAPAVFuzzyRule@@$$QAPAV2@@Z ; std::_Cons_val<std::allocator<FuzzyRule *>,FuzzyRule *,FuzzyRule *>
	add	esp, 12					; 0000000cH

; 651  : 			++this->_Mylast;

	mov	eax, DWORD PTR _this$[ebp]
	mov	ecx, DWORD PTR [eax+8]
	add	ecx, 4
	mov	edx, DWORD PTR _this$[ebp]
	mov	DWORD PTR [edx+8], ecx
$LN5@push_back:

; 652  : 			}
; 653  : 		}

	add	esp, 8
	cmp	ebp, esp
	call	__RTC_CheckEsp
	mov	esp, ebp
	pop	ebp
	ret	4
?push_back@?$vector@PAVFuzzyRule@@V?$allocator@PAVFuzzyRule@@@std@@@std@@QAEX$$QAPAVFuzzyRule@@@Z ENDP ; std::vector<FuzzyRule *,std::allocator<FuzzyRule *> >::push_back
_TEXT	ENDS
PUBLIC	??1?$_Vector_val@PAVFuzzyRule@@V?$allocator@PAVFuzzyRule@@@std@@@std@@QAE@XZ ; std::_Vector_val<FuzzyRule *,std::allocator<FuzzyRule *> >::~_Vector_val<FuzzyRule *,std::allocator<FuzzyRule *> >
PUBLIC	?_Tidy@?$vector@PAVFuzzyRule@@V?$allocator@PAVFuzzyRule@@@std@@@std@@IAEXXZ ; std::vector<FuzzyRule *,std::allocator<FuzzyRule *> >::_Tidy
;	COMDAT xdata$x
xdata$x	SEGMENT
__unwindtable$??1?$vector@PAVFuzzyRule@@V?$allocator@PAVFuzzyRule@@@std@@@std@@QAE@XZ DD 0ffffffffH
	DD	FLAT:__unwindfunclet$??1?$vector@PAVFuzzyRule@@V?$allocator@PAVFuzzyRule@@@std@@@std@@QAE@XZ$0
__ehfuncinfo$??1?$vector@PAVFuzzyRule@@V?$allocator@PAVFuzzyRule@@@std@@@std@@QAE@XZ DD 019930522H
	DD	01H
	DD	FLAT:__unwindtable$??1?$vector@PAVFuzzyRule@@V?$allocator@PAVFuzzyRule@@@std@@@std@@QAE@XZ
	DD	2 DUP(00H)
	DD	2 DUP(00H)
	DD	00H
	DD	01H
; Function compile flags: /Odtp /RTCsu
xdata$x	ENDS
;	COMDAT ??1?$vector@PAVFuzzyRule@@V?$allocator@PAVFuzzyRule@@@std@@@std@@QAE@XZ
_TEXT	SEGMENT
_this$ = -16						; size = 4
__$EHRec$ = -12						; size = 12
??1?$vector@PAVFuzzyRule@@V?$allocator@PAVFuzzyRule@@@std@@@std@@QAE@XZ PROC ; std::vector<FuzzyRule *,std::allocator<FuzzyRule *> >::~vector<FuzzyRule *,std::allocator<FuzzyRule *> >, COMDAT
; _this$ = ecx

; 704  : 		{	// destroy the object

	push	ebp
	mov	ebp, esp
	push	-1
	push	__ehhandler$??1?$vector@PAVFuzzyRule@@V?$allocator@PAVFuzzyRule@@@std@@@std@@QAE@XZ
	mov	eax, DWORD PTR fs:0
	push	eax
	push	ecx
	mov	DWORD PTR [ebp-16], -858993460		; ccccccccH
	mov	eax, DWORD PTR ___security_cookie
	xor	eax, ebp
	push	eax
	lea	eax, DWORD PTR __$EHRec$[ebp]
	mov	DWORD PTR fs:0, eax
	mov	DWORD PTR _this$[ebp], ecx
	mov	DWORD PTR __$EHRec$[ebp+8], 0

; 705  : 		_Tidy();

	mov	ecx, DWORD PTR _this$[ebp]
	call	?_Tidy@?$vector@PAVFuzzyRule@@V?$allocator@PAVFuzzyRule@@@std@@@std@@IAEXXZ ; std::vector<FuzzyRule *,std::allocator<FuzzyRule *> >::_Tidy

; 706  : 		}

	mov	DWORD PTR __$EHRec$[ebp+8], -1
	mov	ecx, DWORD PTR _this$[ebp]
	call	??1?$_Vector_val@PAVFuzzyRule@@V?$allocator@PAVFuzzyRule@@@std@@@std@@QAE@XZ ; std::_Vector_val<FuzzyRule *,std::allocator<FuzzyRule *> >::~_Vector_val<FuzzyRule *,std::allocator<FuzzyRule *> >
	mov	ecx, DWORD PTR __$EHRec$[ebp]
	mov	DWORD PTR fs:0, ecx
	pop	ecx
	add	esp, 16					; 00000010H
	cmp	ebp, esp
	call	__RTC_CheckEsp
	mov	esp, ebp
	pop	ebp
	ret	0
_TEXT	ENDS
;	COMDAT text$x
text$x	SEGMENT
__unwindfunclet$??1?$vector@PAVFuzzyRule@@V?$allocator@PAVFuzzyRule@@@std@@@std@@QAE@XZ$0:
	mov	ecx, DWORD PTR _this$[ebp]
	jmp	??1?$_Vector_val@PAVFuzzyRule@@V?$allocator@PAVFuzzyRule@@@std@@@std@@QAE@XZ ; std::_Vector_val<FuzzyRule *,std::allocator<FuzzyRule *> >::~_Vector_val<FuzzyRule *,std::allocator<FuzzyRule *> >
__ehhandler$??1?$vector@PAVFuzzyRule@@V?$allocator@PAVFuzzyRule@@@std@@@std@@QAE@XZ:
	mov	edx, DWORD PTR [esp+8]
	lea	eax, DWORD PTR [edx+12]
	mov	ecx, DWORD PTR [edx-8]
	xor	ecx, eax
	call	@__security_check_cookie@4
	mov	eax, OFFSET __ehfuncinfo$??1?$vector@PAVFuzzyRule@@V?$allocator@PAVFuzzyRule@@@std@@@std@@QAE@XZ
	jmp	___CxxFrameHandler3
text$x	ENDS
??1?$vector@PAVFuzzyRule@@V?$allocator@PAVFuzzyRule@@@std@@@std@@QAE@XZ ENDP ; std::vector<FuzzyRule *,std::allocator<FuzzyRule *> >::~vector<FuzzyRule *,std::allocator<FuzzyRule *> >
PUBLIC	??0?$_Vector_iterator@V?$_Vector_val@PAVFuzzyRule@@V?$allocator@PAVFuzzyRule@@@std@@@std@@@std@@QAE@PAPAVFuzzyRule@@PBU_Container_base12@1@@Z ; std::_Vector_iterator<std::_Vector_val<FuzzyRule *,std::allocator<FuzzyRule *> > >::_Vector_iterator<std::_Vector_val<FuzzyRule *,std::allocator<FuzzyRule *> > >
; Function compile flags: /Odtp /RTCsu
;	COMDAT ?begin@?$vector@PAVFuzzyRule@@V?$allocator@PAVFuzzyRule@@@std@@@std@@QAE?AV?$_Vector_iterator@V?$_Vector_val@PAVFuzzyRule@@V?$allocator@PAVFuzzyRule@@@std@@@std@@@2@XZ
_TEXT	SEGMENT
$T52991 = -8						; size = 4
_this$ = -4						; size = 4
___$ReturnUdt$ = 8					; size = 4
?begin@?$vector@PAVFuzzyRule@@V?$allocator@PAVFuzzyRule@@@std@@@std@@QAE?AV?$_Vector_iterator@V?$_Vector_val@PAVFuzzyRule@@V?$allocator@PAVFuzzyRule@@@std@@@std@@@2@XZ PROC ; std::vector<FuzzyRule *,std::allocator<FuzzyRule *> >::begin, COMDAT
; _this$ = ecx

; 781  : 		{	// return iterator for beginning of mutable sequence

	push	ebp
	mov	ebp, esp
	sub	esp, 8
	mov	DWORD PTR [ebp-8], -858993460		; ccccccccH
	mov	DWORD PTR [ebp-4], -858993460		; ccccccccH
	mov	DWORD PTR _this$[ebp], ecx
	mov	DWORD PTR $T52991[ebp], 0

; 782  : 		return (iterator(this->_Myfirst, this));

	mov	eax, DWORD PTR _this$[ebp]
	push	eax
	mov	ecx, DWORD PTR _this$[ebp]
	mov	edx, DWORD PTR [ecx+4]
	push	edx
	mov	ecx, DWORD PTR ___$ReturnUdt$[ebp]
	call	??0?$_Vector_iterator@V?$_Vector_val@PAVFuzzyRule@@V?$allocator@PAVFuzzyRule@@@std@@@std@@@std@@QAE@PAPAVFuzzyRule@@PBU_Container_base12@1@@Z ; std::_Vector_iterator<std::_Vector_val<FuzzyRule *,std::allocator<FuzzyRule *> > >::_Vector_iterator<std::_Vector_val<FuzzyRule *,std::allocator<FuzzyRule *> > >
	mov	eax, DWORD PTR $T52991[ebp]
	or	eax, 1
	mov	DWORD PTR $T52991[ebp], eax
	mov	eax, DWORD PTR ___$ReturnUdt$[ebp]

; 783  : 		}

	add	esp, 8
	cmp	ebp, esp
	call	__RTC_CheckEsp
	mov	esp, ebp
	pop	ebp
	ret	4
?begin@?$vector@PAVFuzzyRule@@V?$allocator@PAVFuzzyRule@@@std@@@std@@QAE?AV?$_Vector_iterator@V?$_Vector_val@PAVFuzzyRule@@V?$allocator@PAVFuzzyRule@@@std@@@std@@@2@XZ ENDP ; std::vector<FuzzyRule *,std::allocator<FuzzyRule *> >::begin
; Function compile flags: /Odtp /RTCsu
_TEXT	ENDS
;	COMDAT ?end@?$vector@PAVFuzzyRule@@V?$allocator@PAVFuzzyRule@@@std@@@std@@QAE?AV?$_Vector_iterator@V?$_Vector_val@PAVFuzzyRule@@V?$allocator@PAVFuzzyRule@@@std@@@std@@@2@XZ
_TEXT	SEGMENT
$T52996 = -8						; size = 4
_this$ = -4						; size = 4
___$ReturnUdt$ = 8					; size = 4
?end@?$vector@PAVFuzzyRule@@V?$allocator@PAVFuzzyRule@@@std@@@std@@QAE?AV?$_Vector_iterator@V?$_Vector_val@PAVFuzzyRule@@V?$allocator@PAVFuzzyRule@@@std@@@std@@@2@XZ PROC ; std::vector<FuzzyRule *,std::allocator<FuzzyRule *> >::end, COMDAT
; _this$ = ecx

; 791  : 		{	// return iterator for end of mutable sequence

	push	ebp
	mov	ebp, esp
	sub	esp, 8
	mov	DWORD PTR [ebp-8], -858993460		; ccccccccH
	mov	DWORD PTR [ebp-4], -858993460		; ccccccccH
	mov	DWORD PTR _this$[ebp], ecx
	mov	DWORD PTR $T52996[ebp], 0

; 792  : 		return (iterator(this->_Mylast, this));

	mov	eax, DWORD PTR _this$[ebp]
	push	eax
	mov	ecx, DWORD PTR _this$[ebp]
	mov	edx, DWORD PTR [ecx+8]
	push	edx
	mov	ecx, DWORD PTR ___$ReturnUdt$[ebp]
	call	??0?$_Vector_iterator@V?$_Vector_val@PAVFuzzyRule@@V?$allocator@PAVFuzzyRule@@@std@@@std@@@std@@QAE@PAPAVFuzzyRule@@PBU_Container_base12@1@@Z ; std::_Vector_iterator<std::_Vector_val<FuzzyRule *,std::allocator<FuzzyRule *> > >::_Vector_iterator<std::_Vector_val<FuzzyRule *,std::allocator<FuzzyRule *> > >
	mov	eax, DWORD PTR $T52996[ebp]
	or	eax, 1
	mov	DWORD PTR $T52996[ebp], eax
	mov	eax, DWORD PTR ___$ReturnUdt$[ebp]

; 793  : 		}

	add	esp, 8
	cmp	ebp, esp
	call	__RTC_CheckEsp
	mov	esp, ebp
	pop	ebp
	ret	4
?end@?$vector@PAVFuzzyRule@@V?$allocator@PAVFuzzyRule@@@std@@@std@@QAE?AV?$_Vector_iterator@V?$_Vector_val@PAVFuzzyRule@@V?$allocator@PAVFuzzyRule@@@std@@@std@@@2@XZ ENDP ; std::vector<FuzzyRule *,std::allocator<FuzzyRule *> >::end
; Function compile flags: /Odtp /RTCsu
; File c:\program files (x86)\microsoft visual studio 10.0\vc\include\xtree
_TEXT	ENDS
;	COMDAT ??C?$_Tree_iterator@V?$_Tree_val@V?$_Tmap_traits@V?$basic_string@DU?$char_traits@D@std@@V?$allocator@D@2@@std@@PAVFuzzyVariable@@U?$less@V?$basic_string@DU?$char_traits@D@std@@V?$allocator@D@2@@std@@@2@V?$allocator@U?$pair@$$CBV?$basic_string@DU?$char_traits@D@std@@V?$allocator@D@2@@std@@PAVFuzzyVariable@@@std@@@2@$0A@@std@@@std@@@std@@QBEPAU?$pair@$$CBV?$basic_string@DU?$char_traits@D@std@@V?$allocator@D@2@@std@@PAVFuzzyVariable@@@1@XZ
_TEXT	SEGMENT
_this$ = -4						; size = 4
??C?$_Tree_iterator@V?$_Tree_val@V?$_Tmap_traits@V?$basic_string@DU?$char_traits@D@std@@V?$allocator@D@2@@std@@PAVFuzzyVariable@@U?$less@V?$basic_string@DU?$char_traits@D@std@@V?$allocator@D@2@@std@@@2@V?$allocator@U?$pair@$$CBV?$basic_string@DU?$char_traits@D@std@@V?$allocator@D@2@@std@@PAVFuzzyVariable@@@std@@@2@$0A@@std@@@std@@@std@@QBEPAU?$pair@$$CBV?$basic_string@DU?$char_traits@D@std@@V?$allocator@D@2@@std@@PAVFuzzyVariable@@@1@XZ PROC ; std::_Tree_iterator<std::_Tree_val<std::_Tmap_traits<std::basic_string<char,std::char_traits<char>,std::allocator<char> >,FuzzyVariable *,std::less<std::basic_string<char,std::char_traits<char>,std::allocator<char> > >,std::allocator<std::pair<std::basic_string<char,std::char_traits<char>,std::allocator<char> > const ,FuzzyVariable *> >,0> > >::operator->, COMDAT
; _this$ = ecx

; 400  : 		{	// return pointer to class object

	push	ebp
	mov	ebp, esp
	push	ecx
	mov	DWORD PTR [ebp-4], -858993460		; ccccccccH
	mov	DWORD PTR _this$[ebp], ecx

; 401  : 		return (&**this);

	mov	ecx, DWORD PTR _this$[ebp]
	call	??D?$_Tree_iterator@V?$_Tree_val@V?$_Tmap_traits@V?$basic_string@DU?$char_traits@D@std@@V?$allocator@D@2@@std@@PAVFuzzyVariable@@U?$less@V?$basic_string@DU?$char_traits@D@std@@V?$allocator@D@2@@std@@@2@V?$allocator@U?$pair@$$CBV?$basic_string@DU?$char_traits@D@std@@V?$allocator@D@2@@std@@PAVFuzzyVariable@@@std@@@2@$0A@@std@@@std@@@std@@QBEAAU?$pair@$$CBV?$basic_string@DU?$char_traits@D@std@@V?$allocator@D@2@@std@@PAVFuzzyVariable@@@1@XZ ; std::_Tree_iterator<std::_Tree_val<std::_Tmap_traits<std::basic_string<char,std::char_traits<char>,std::allocator<char> >,FuzzyVariable *,std::less<std::basic_string<char,std::char_traits<char>,std::allocator<char> > >,std::allocator<std::pair<std::basic_string<char,std::char_traits<char>,std::allocator<char> > const ,FuzzyVariable *> >,0> > >::operator*

; 402  : 		}

	add	esp, 4
	cmp	ebp, esp
	call	__RTC_CheckEsp
	mov	esp, ebp
	pop	ebp
	ret	0
??C?$_Tree_iterator@V?$_Tree_val@V?$_Tmap_traits@V?$basic_string@DU?$char_traits@D@std@@V?$allocator@D@2@@std@@PAVFuzzyVariable@@U?$less@V?$basic_string@DU?$char_traits@D@std@@V?$allocator@D@2@@std@@@2@V?$allocator@U?$pair@$$CBV?$basic_string@DU?$char_traits@D@std@@V?$allocator@D@2@@std@@PAVFuzzyVariable@@@std@@@2@$0A@@std@@@std@@@std@@QBEPAU?$pair@$$CBV?$basic_string@DU?$char_traits@D@std@@V?$allocator@D@2@@std@@PAVFuzzyVariable@@@1@XZ ENDP ; std::_Tree_iterator<std::_Tree_val<std::_Tmap_traits<std::basic_string<char,std::char_traits<char>,std::allocator<char> >,FuzzyVariable *,std::less<std::basic_string<char,std::char_traits<char>,std::allocator<char> > >,std::allocator<std::pair<std::basic_string<char,std::char_traits<char>,std::allocator<char> > const ,FuzzyVariable *> >,0> > >::operator->
_TEXT	ENDS
PUBLIC	??E?$_Tree_const_iterator@V?$_Tree_val@V?$_Tmap_traits@V?$basic_string@DU?$char_traits@D@std@@V?$allocator@D@2@@std@@PAVFuzzyVariable@@U?$less@V?$basic_string@DU?$char_traits@D@std@@V?$allocator@D@2@@std@@@2@V?$allocator@U?$pair@$$CBV?$basic_string@DU?$char_traits@D@std@@V?$allocator@D@2@@std@@PAVFuzzyVariable@@@std@@@2@$0A@@std@@@std@@@std@@QAEAAV01@XZ ; std::_Tree_const_iterator<std::_Tree_val<std::_Tmap_traits<std::basic_string<char,std::char_traits<char>,std::allocator<char> >,FuzzyVariable *,std::less<std::basic_string<char,std::char_traits<char>,std::allocator<char> > >,std::allocator<std::pair<std::basic_string<char,std::char_traits<char>,std::allocator<char> > const ,FuzzyVariable *> >,0> > >::operator++
; Function compile flags: /Odtp /RTCsu
;	COMDAT ??E?$_Tree_iterator@V?$_Tree_val@V?$_Tmap_traits@V?$basic_string@DU?$char_traits@D@std@@V?$allocator@D@2@@std@@PAVFuzzyVariable@@U?$less@V?$basic_string@DU?$char_traits@D@std@@V?$allocator@D@2@@std@@@2@V?$allocator@U?$pair@$$CBV?$basic_string@DU?$char_traits@D@std@@V?$allocator@D@2@@std@@PAVFuzzyVariable@@@std@@@2@$0A@@std@@@std@@@std@@QAEAAV01@XZ
_TEXT	SEGMENT
_this$ = -4						; size = 4
??E?$_Tree_iterator@V?$_Tree_val@V?$_Tmap_traits@V?$basic_string@DU?$char_traits@D@std@@V?$allocator@D@2@@std@@PAVFuzzyVariable@@U?$less@V?$basic_string@DU?$char_traits@D@std@@V?$allocator@D@2@@std@@@2@V?$allocator@U?$pair@$$CBV?$basic_string@DU?$char_traits@D@std@@V?$allocator@D@2@@std@@PAVFuzzyVariable@@@std@@@2@$0A@@std@@@std@@@std@@QAEAAV01@XZ PROC ; std::_Tree_iterator<std::_Tree_val<std::_Tmap_traits<std::basic_string<char,std::char_traits<char>,std::allocator<char> >,FuzzyVariable *,std::less<std::basic_string<char,std::char_traits<char>,std::allocator<char> > >,std::allocator<std::pair<std::basic_string<char,std::char_traits<char>,std::allocator<char> > const ,FuzzyVariable *> >,0> > >::operator++, COMDAT
; _this$ = ecx

; 405  : 		{	// preincrement

	push	ebp
	mov	ebp, esp
	push	ecx
	mov	DWORD PTR [ebp-4], -858993460		; ccccccccH
	mov	DWORD PTR _this$[ebp], ecx

; 406  : 		++(*(_Mybase *)this);

	mov	ecx, DWORD PTR _this$[ebp]
	call	??E?$_Tree_const_iterator@V?$_Tree_val@V?$_Tmap_traits@V?$basic_string@DU?$char_traits@D@std@@V?$allocator@D@2@@std@@PAVFuzzyVariable@@U?$less@V?$basic_string@DU?$char_traits@D@std@@V?$allocator@D@2@@std@@@2@V?$allocator@U?$pair@$$CBV?$basic_string@DU?$char_traits@D@std@@V?$allocator@D@2@@std@@PAVFuzzyVariable@@@std@@@2@$0A@@std@@@std@@@std@@QAEAAV01@XZ ; std::_Tree_const_iterator<std::_Tree_val<std::_Tmap_traits<std::basic_string<char,std::char_traits<char>,std::allocator<char> >,FuzzyVariable *,std::less<std::basic_string<char,std::char_traits<char>,std::allocator<char> > >,std::allocator<std::pair<std::basic_string<char,std::char_traits<char>,std::allocator<char> > const ,FuzzyVariable *> >,0> > >::operator++

; 407  : 		return (*this);

	mov	eax, DWORD PTR _this$[ebp]

; 408  : 		}

	add	esp, 4
	cmp	ebp, esp
	call	__RTC_CheckEsp
	mov	esp, ebp
	pop	ebp
	ret	0
??E?$_Tree_iterator@V?$_Tree_val@V?$_Tmap_traits@V?$basic_string@DU?$char_traits@D@std@@V?$allocator@D@2@@std@@PAVFuzzyVariable@@U?$less@V?$basic_string@DU?$char_traits@D@std@@V?$allocator@D@2@@std@@@2@V?$allocator@U?$pair@$$CBV?$basic_string@DU?$char_traits@D@std@@V?$allocator@D@2@@std@@PAVFuzzyVariable@@@std@@@2@$0A@@std@@@std@@@std@@QAEAAV01@XZ ENDP ; std::_Tree_iterator<std::_Tree_val<std::_Tmap_traits<std::basic_string<char,std::char_traits<char>,std::allocator<char> >,FuzzyVariable *,std::less<std::basic_string<char,std::char_traits<char>,std::allocator<char> > >,std::allocator<std::pair<std::basic_string<char,std::char_traits<char>,std::allocator<char> > const ,FuzzyVariable *> >,0> > >::operator++
; Function compile flags: /Odtp /RTCsu
_TEXT	ENDS
;	COMDAT ??9?$_Tree_const_iterator@V?$_Tree_val@V?$_Tmap_traits@V?$basic_string@DU?$char_traits@D@std@@V?$allocator@D@2@@std@@PAVFuzzyVariable@@U?$less@V?$basic_string@DU?$char_traits@D@std@@V?$allocator@D@2@@std@@@2@V?$allocator@U?$pair@$$CBV?$basic_string@DU?$char_traits@D@std@@V?$allocator@D@2@@std@@PAVFuzzyVariable@@@std@@@2@$0A@@std@@@std@@@std@@QBE_NABV01@@Z
_TEXT	SEGMENT
_this$ = -4						; size = 4
__Right$ = 8						; size = 4
??9?$_Tree_const_iterator@V?$_Tree_val@V?$_Tmap_traits@V?$basic_string@DU?$char_traits@D@std@@V?$allocator@D@2@@std@@PAVFuzzyVariable@@U?$less@V?$basic_string@DU?$char_traits@D@std@@V?$allocator@D@2@@std@@@2@V?$allocator@U?$pair@$$CBV?$basic_string@DU?$char_traits@D@std@@V?$allocator@D@2@@std@@PAVFuzzyVariable@@@std@@@2@$0A@@std@@@std@@@std@@QBE_NABV01@@Z PROC ; std::_Tree_const_iterator<std::_Tree_val<std::_Tmap_traits<std::basic_string<char,std::char_traits<char>,std::allocator<char> >,FuzzyVariable *,std::less<std::basic_string<char,std::char_traits<char>,std::allocator<char> > >,std::allocator<std::pair<std::basic_string<char,std::char_traits<char>,std::allocator<char> > const ,FuzzyVariable *> >,0> > >::operator!=, COMDAT
; _this$ = ecx

; 334  : 		{	// test for iterator inequality

	push	ebp
	mov	ebp, esp
	push	ecx
	mov	DWORD PTR [ebp-4], -858993460		; ccccccccH
	mov	DWORD PTR _this$[ebp], ecx

; 335  : 		return (!(*this == _Right));

	mov	eax, DWORD PTR __Right$[ebp]
	push	eax
	mov	ecx, DWORD PTR _this$[ebp]
	call	??8?$_Tree_const_iterator@V?$_Tree_val@V?$_Tmap_traits@V?$basic_string@DU?$char_traits@D@std@@V?$allocator@D@2@@std@@PAVFuzzyVariable@@U?$less@V?$basic_string@DU?$char_traits@D@std@@V?$allocator@D@2@@std@@@2@V?$allocator@U?$pair@$$CBV?$basic_string@DU?$char_traits@D@std@@V?$allocator@D@2@@std@@PAVFuzzyVariable@@@std@@@2@$0A@@std@@@std@@@std@@QBE_NABV01@@Z ; std::_Tree_const_iterator<std::_Tree_val<std::_Tmap_traits<std::basic_string<char,std::char_traits<char>,std::allocator<char> >,FuzzyVariable *,std::less<std::basic_string<char,std::char_traits<char>,std::allocator<char> > >,std::allocator<std::pair<std::basic_string<char,std::char_traits<char>,std::allocator<char> > const ,FuzzyVariable *> >,0> > >::operator==
	movzx	eax, al
	neg	eax
	sbb	eax, eax
	add	eax, 1

; 336  : 		}

	add	esp, 4
	cmp	ebp, esp
	call	__RTC_CheckEsp
	mov	esp, ebp
	pop	ebp
	ret	4
??9?$_Tree_const_iterator@V?$_Tree_val@V?$_Tmap_traits@V?$basic_string@DU?$char_traits@D@std@@V?$allocator@D@2@@std@@PAVFuzzyVariable@@U?$less@V?$basic_string@DU?$char_traits@D@std@@V?$allocator@D@2@@std@@@2@V?$allocator@U?$pair@$$CBV?$basic_string@DU?$char_traits@D@std@@V?$allocator@D@2@@std@@PAVFuzzyVariable@@@std@@@2@$0A@@std@@@std@@@std@@QBE_NABV01@@Z ENDP ; std::_Tree_const_iterator<std::_Tree_val<std::_Tmap_traits<std::basic_string<char,std::char_traits<char>,std::allocator<char> >,FuzzyVariable *,std::less<std::basic_string<char,std::char_traits<char>,std::allocator<char> > >,std::allocator<std::pair<std::basic_string<char,std::char_traits<char>,std::allocator<char> > const ,FuzzyVariable *> >,0> > >::operator!=
_TEXT	ENDS
PUBLIC	??D?$_Vector_const_iterator@V?$_Vector_val@PAVFuzzyRule@@V?$allocator@PAVFuzzyRule@@@std@@@std@@@std@@QBEABQAVFuzzyRule@@XZ ; std::_Vector_const_iterator<std::_Vector_val<FuzzyRule *,std::allocator<FuzzyRule *> > >::operator*
; Function compile flags: /Odtp /RTCsu
; File c:\program files (x86)\microsoft visual studio 10.0\vc\include\vector
;	COMDAT ??D?$_Vector_iterator@V?$_Vector_val@PAVFuzzyRule@@V?$allocator@PAVFuzzyRule@@@std@@@std@@@std@@QBEAAPAVFuzzyRule@@XZ
_TEXT	SEGMENT
_this$ = -4						; size = 4
??D?$_Vector_iterator@V?$_Vector_val@PAVFuzzyRule@@V?$allocator@PAVFuzzyRule@@@std@@@std@@@std@@QBEAAPAVFuzzyRule@@XZ PROC ; std::_Vector_iterator<std::_Vector_val<FuzzyRule *,std::allocator<FuzzyRule *> > >::operator*, COMDAT
; _this$ = ecx

; 321  : 		{	// return designated object

	push	ebp
	mov	ebp, esp
	push	ecx
	mov	DWORD PTR [ebp-4], -858993460		; ccccccccH
	mov	DWORD PTR _this$[ebp], ecx

; 322  : 		return ((reference)**(_Mybase *)this);

	mov	ecx, DWORD PTR _this$[ebp]
	call	??D?$_Vector_const_iterator@V?$_Vector_val@PAVFuzzyRule@@V?$allocator@PAVFuzzyRule@@@std@@@std@@@std@@QBEABQAVFuzzyRule@@XZ ; std::_Vector_const_iterator<std::_Vector_val<FuzzyRule *,std::allocator<FuzzyRule *> > >::operator*

; 323  : 		}

	add	esp, 4
	cmp	ebp, esp
	call	__RTC_CheckEsp
	mov	esp, ebp
	pop	ebp
	ret	0
??D?$_Vector_iterator@V?$_Vector_val@PAVFuzzyRule@@V?$allocator@PAVFuzzyRule@@@std@@@std@@@std@@QBEAAPAVFuzzyRule@@XZ ENDP ; std::_Vector_iterator<std::_Vector_val<FuzzyRule *,std::allocator<FuzzyRule *> > >::operator*
_TEXT	ENDS
PUBLIC	??E?$_Vector_const_iterator@V?$_Vector_val@PAVFuzzyRule@@V?$allocator@PAVFuzzyRule@@@std@@@std@@@std@@QAEAAV01@XZ ; std::_Vector_const_iterator<std::_Vector_val<FuzzyRule *,std::allocator<FuzzyRule *> > >::operator++
; Function compile flags: /Odtp /RTCsu
;	COMDAT ??E?$_Vector_iterator@V?$_Vector_val@PAVFuzzyRule@@V?$allocator@PAVFuzzyRule@@@std@@@std@@@std@@QAEAAV01@XZ
_TEXT	SEGMENT
_this$ = -4						; size = 4
??E?$_Vector_iterator@V?$_Vector_val@PAVFuzzyRule@@V?$allocator@PAVFuzzyRule@@@std@@@std@@@std@@QAEAAV01@XZ PROC ; std::_Vector_iterator<std::_Vector_val<FuzzyRule *,std::allocator<FuzzyRule *> > >::operator++, COMDAT
; _this$ = ecx

; 331  : 		{	// preincrement

	push	ebp
	mov	ebp, esp
	push	ecx
	mov	DWORD PTR [ebp-4], -858993460		; ccccccccH
	mov	DWORD PTR _this$[ebp], ecx

; 332  : 		++*(_Mybase *)this;

	mov	ecx, DWORD PTR _this$[ebp]
	call	??E?$_Vector_const_iterator@V?$_Vector_val@PAVFuzzyRule@@V?$allocator@PAVFuzzyRule@@@std@@@std@@@std@@QAEAAV01@XZ ; std::_Vector_const_iterator<std::_Vector_val<FuzzyRule *,std::allocator<FuzzyRule *> > >::operator++

; 333  : 		return (*this);

	mov	eax, DWORD PTR _this$[ebp]

; 334  : 		}

	add	esp, 4
	cmp	ebp, esp
	call	__RTC_CheckEsp
	mov	esp, ebp
	pop	ebp
	ret	0
??E?$_Vector_iterator@V?$_Vector_val@PAVFuzzyRule@@V?$allocator@PAVFuzzyRule@@@std@@@std@@@std@@QAEAAV01@XZ ENDP ; std::_Vector_iterator<std::_Vector_val<FuzzyRule *,std::allocator<FuzzyRule *> > >::operator++
_TEXT	ENDS
PUBLIC	??8?$_Vector_const_iterator@V?$_Vector_val@PAVFuzzyRule@@V?$allocator@PAVFuzzyRule@@@std@@@std@@@std@@QBE_NABV01@@Z ; std::_Vector_const_iterator<std::_Vector_val<FuzzyRule *,std::allocator<FuzzyRule *> > >::operator==
; Function compile flags: /Odtp /RTCsu
;	COMDAT ??9?$_Vector_const_iterator@V?$_Vector_val@PAVFuzzyRule@@V?$allocator@PAVFuzzyRule@@@std@@@std@@@std@@QBE_NABV01@@Z
_TEXT	SEGMENT
_this$ = -4						; size = 4
__Right$ = 8						; size = 4
??9?$_Vector_const_iterator@V?$_Vector_val@PAVFuzzyRule@@V?$allocator@PAVFuzzyRule@@@std@@@std@@@std@@QBE_NABV01@@Z PROC ; std::_Vector_const_iterator<std::_Vector_val<FuzzyRule *,std::allocator<FuzzyRule *> > >::operator!=, COMDAT
; _this$ = ecx

; 207  : 		{	// test for iterator inequality

	push	ebp
	mov	ebp, esp
	push	ecx
	mov	DWORD PTR [ebp-4], -858993460		; ccccccccH
	mov	DWORD PTR _this$[ebp], ecx

; 208  : 		return (!(*this == _Right));

	mov	eax, DWORD PTR __Right$[ebp]
	push	eax
	mov	ecx, DWORD PTR _this$[ebp]
	call	??8?$_Vector_const_iterator@V?$_Vector_val@PAVFuzzyRule@@V?$allocator@PAVFuzzyRule@@@std@@@std@@@std@@QBE_NABV01@@Z ; std::_Vector_const_iterator<std::_Vector_val<FuzzyRule *,std::allocator<FuzzyRule *> > >::operator==
	movzx	eax, al
	neg	eax
	sbb	eax, eax
	add	eax, 1

; 209  : 		}

	add	esp, 4
	cmp	ebp, esp
	call	__RTC_CheckEsp
	mov	esp, ebp
	pop	ebp
	ret	4
??9?$_Vector_const_iterator@V?$_Vector_val@PAVFuzzyRule@@V?$allocator@PAVFuzzyRule@@@std@@@std@@@std@@QBE_NABV01@@Z ENDP ; std::_Vector_const_iterator<std::_Vector_val<FuzzyRule *,std::allocator<FuzzyRule *> > >::operator!=
_TEXT	ENDS
PUBLIC	??1?$_Pair_base@$$CBV?$basic_string@DU?$char_traits@D@std@@V?$allocator@D@2@@std@@PAVFuzzyVariable@@@std@@QAE@XZ ; std::_Pair_base<std::basic_string<char,std::char_traits<char>,std::allocator<char> > const ,FuzzyVariable *>::~_Pair_base<std::basic_string<char,std::char_traits<char>,std::allocator<char> > const ,FuzzyVariable *>
; Function compile flags: /Odtp /RTCsu
;	COMDAT ??1?$pair@$$CBV?$basic_string@DU?$char_traits@D@std@@V?$allocator@D@2@@std@@PAVFuzzyVariable@@@std@@QAE@XZ
_TEXT	SEGMENT
_this$ = -4						; size = 4
??1?$pair@$$CBV?$basic_string@DU?$char_traits@D@std@@V?$allocator@D@2@@std@@PAVFuzzyVariable@@@std@@QAE@XZ PROC ; std::pair<std::basic_string<char,std::char_traits<char>,std::allocator<char> > const ,FuzzyVariable *>::~pair<std::basic_string<char,std::char_traits<char>,std::allocator<char> > const ,FuzzyVariable *>, COMDAT
; _this$ = ecx
	push	ebp
	mov	ebp, esp
	push	ecx
	mov	DWORD PTR [ebp-4], -858993460		; ccccccccH
	mov	DWORD PTR _this$[ebp], ecx
	mov	ecx, DWORD PTR _this$[ebp]
	call	??1?$_Pair_base@$$CBV?$basic_string@DU?$char_traits@D@std@@V?$allocator@D@2@@std@@PAVFuzzyVariable@@@std@@QAE@XZ
	add	esp, 4
	cmp	ebp, esp
	call	__RTC_CheckEsp
	mov	esp, ebp
	pop	ebp
	ret	0
??1?$pair@$$CBV?$basic_string@DU?$char_traits@D@std@@V?$allocator@D@2@@std@@PAVFuzzyVariable@@@std@@QAE@XZ ENDP ; std::pair<std::basic_string<char,std::char_traits<char>,std::allocator<char> > const ,FuzzyVariable *>::~pair<std::basic_string<char,std::char_traits<char>,std::allocator<char> > const ,FuzzyVariable *>
_TEXT	ENDS
PUBLIC	??0?$_Tree_unchecked_const_iterator@V?$_Tree_val@V?$_Tmap_traits@V?$basic_string@DU?$char_traits@D@std@@V?$allocator@D@2@@std@@PAVFuzzyVariable@@U?$less@V?$basic_string@DU?$char_traits@D@std@@V?$allocator@D@2@@std@@@2@V?$allocator@U?$pair@$$CBV?$basic_string@DU?$char_traits@D@std@@V?$allocator@D@2@@std@@PAVFuzzyVariable@@@std@@@2@$0A@@std@@@std@@U_Iterator_base12@2@@std@@QAE@ABV01@@Z ; std::_Tree_unchecked_const_iterator<std::_Tree_val<std::_Tmap_traits<std::basic_string<char,std::char_traits<char>,std::allocator<char> >,FuzzyVariable *,std::less<std::basic_string<char,std::char_traits<char>,std::allocator<char> > >,std::allocator<std::pair<std::basic_string<char,std::char_traits<char>,std::allocator<char> > const ,FuzzyVariable *> >,0> >,std::_Iterator_base12>::_Tree_unchecked_const_iterator<std::_Tree_val<std::_Tmap_traits<std::basic_string<char,std::char_traits<char>,std::allocator<char> >,FuzzyVariable *,std::less<std::basic_string<char,std::char_traits<char>,std::allocator<char> > >,std::allocator<std::pair<std::basic_string<char,std::char_traits<char>,std::allocator<char> > const ,FuzzyVariable *> >,0> >,std::_Iterator_base12>
; Function compile flags: /Odtp /RTCsu
;	COMDAT ??0?$_Tree_const_iterator@V?$_Tree_val@V?$_Tmap_traits@V?$basic_string@DU?$char_traits@D@std@@V?$allocator@D@2@@std@@PAVFuzzyVariable@@U?$less@V?$basic_string@DU?$char_traits@D@std@@V?$allocator@D@2@@std@@@2@V?$allocator@U?$pair@$$CBV?$basic_string@DU?$char_traits@D@std@@V?$allocator@D@2@@std@@PAVFuzzyVariable@@@std@@@2@$0A@@std@@@std@@@std@@QAE@ABV01@@Z
_TEXT	SEGMENT
_this$ = -4						; size = 4
___that$ = 8						; size = 4
??0?$_Tree_const_iterator@V?$_Tree_val@V?$_Tmap_traits@V?$basic_string@DU?$char_traits@D@std@@V?$allocator@D@2@@std@@PAVFuzzyVariable@@U?$less@V?$basic_string@DU?$char_traits@D@std@@V?$allocator@D@2@@std@@@2@V?$allocator@U?$pair@$$CBV?$basic_string@DU?$char_traits@D@std@@V?$allocator@D@2@@std@@PAVFuzzyVariable@@@std@@@2@$0A@@std@@@std@@@std@@QAE@ABV01@@Z PROC ; std::_Tree_const_iterator<std::_Tree_val<std::_Tmap_traits<std::basic_string<char,std::char_traits<char>,std::allocator<char> >,FuzzyVariable *,std::less<std::basic_string<char,std::char_traits<char>,std::allocator<char> > >,std::allocator<std::pair<std::basic_string<char,std::char_traits<char>,std::allocator<char> > const ,FuzzyVariable *> >,0> > >::_Tree_const_iterator<std::_Tree_val<std::_Tmap_traits<std::basic_string<char,std::char_traits<char>,std::allocator<char> >,FuzzyVariable *,std::less<std::basic_string<char,std::char_traits<char>,std::allocator<char> > >,std::allocator<std::pair<std::basic_string<char,std::char_traits<char>,std::allocator<char> > const ,FuzzyVariable *> >,0> > >, COMDAT
; _this$ = ecx
	push	ebp
	mov	ebp, esp
	push	ecx
	mov	DWORD PTR [ebp-4], -858993460		; ccccccccH
	mov	DWORD PTR _this$[ebp], ecx
	mov	eax, DWORD PTR ___that$[ebp]
	push	eax
	mov	ecx, DWORD PTR _this$[ebp]
	call	??0?$_Tree_unchecked_const_iterator@V?$_Tree_val@V?$_Tmap_traits@V?$basic_string@DU?$char_traits@D@std@@V?$allocator@D@2@@std@@PAVFuzzyVariable@@U?$less@V?$basic_string@DU?$char_traits@D@std@@V?$allocator@D@2@@std@@@2@V?$allocator@U?$pair@$$CBV?$basic_string@DU?$char_traits@D@std@@V?$allocator@D@2@@std@@PAVFuzzyVariable@@@std@@@2@$0A@@std@@@std@@U_Iterator_base12@2@@std@@QAE@ABV01@@Z
	mov	eax, DWORD PTR _this$[ebp]
	add	esp, 4
	cmp	ebp, esp
	call	__RTC_CheckEsp
	mov	esp, ebp
	pop	ebp
	ret	4
??0?$_Tree_const_iterator@V?$_Tree_val@V?$_Tmap_traits@V?$basic_string@DU?$char_traits@D@std@@V?$allocator@D@2@@std@@PAVFuzzyVariable@@U?$less@V?$basic_string@DU?$char_traits@D@std@@V?$allocator@D@2@@std@@@2@V?$allocator@U?$pair@$$CBV?$basic_string@DU?$char_traits@D@std@@V?$allocator@D@2@@std@@PAVFuzzyVariable@@@std@@@2@$0A@@std@@@std@@@std@@QAE@ABV01@@Z ENDP ; std::_Tree_const_iterator<std::_Tree_val<std::_Tmap_traits<std::basic_string<char,std::char_traits<char>,std::allocator<char> >,FuzzyVariable *,std::less<std::basic_string<char,std::char_traits<char>,std::allocator<char> > >,std::allocator<std::pair<std::basic_string<char,std::char_traits<char>,std::allocator<char> > const ,FuzzyVariable *> >,0> > >::_Tree_const_iterator<std::_Tree_val<std::_Tmap_traits<std::basic_string<char,std::char_traits<char>,std::allocator<char> >,FuzzyVariable *,std::less<std::basic_string<char,std::char_traits<char>,std::allocator<char> > >,std::allocator<std::pair<std::basic_string<char,std::char_traits<char>,std::allocator<char> > const ,FuzzyVariable *> >,0> > >
_TEXT	ENDS
PUBLIC	??4?$_Tree_const_iterator@V?$_Tree_val@V?$_Tmap_traits@V?$basic_string@DU?$char_traits@D@std@@V?$allocator@D@2@@std@@PAVFuzzyVariable@@U?$less@V?$basic_string@DU?$char_traits@D@std@@V?$allocator@D@2@@std@@@2@V?$allocator@U?$pair@$$CBV?$basic_string@DU?$char_traits@D@std@@V?$allocator@D@2@@std@@PAVFuzzyVariable@@@std@@@2@$0A@@std@@@std@@@std@@QAEAAV01@ABV01@@Z ; std::_Tree_const_iterator<std::_Tree_val<std::_Tmap_traits<std::basic_string<char,std::char_traits<char>,std::allocator<char> >,FuzzyVariable *,std::less<std::basic_string<char,std::char_traits<char>,std::allocator<char> > >,std::allocator<std::pair<std::basic_string<char,std::char_traits<char>,std::allocator<char> > const ,FuzzyVariable *> >,0> > >::operator=
; Function compile flags: /Odtp /RTCsu
;	COMDAT ??4?$_Tree_iterator@V?$_Tree_val@V?$_Tmap_traits@V?$basic_string@DU?$char_traits@D@std@@V?$allocator@D@2@@std@@PAVFuzzyVariable@@U?$less@V?$basic_string@DU?$char_traits@D@std@@V?$allocator@D@2@@std@@@2@V?$allocator@U?$pair@$$CBV?$basic_string@DU?$char_traits@D@std@@V?$allocator@D@2@@std@@PAVFuzzyVariable@@@std@@@2@$0A@@std@@@std@@@std@@QAEAAV01@ABV01@@Z
_TEXT	SEGMENT
_this$ = -4						; size = 4
___that$ = 8						; size = 4
??4?$_Tree_iterator@V?$_Tree_val@V?$_Tmap_traits@V?$basic_string@DU?$char_traits@D@std@@V?$allocator@D@2@@std@@PAVFuzzyVariable@@U?$less@V?$basic_string@DU?$char_traits@D@std@@V?$allocator@D@2@@std@@@2@V?$allocator@U?$pair@$$CBV?$basic_string@DU?$char_traits@D@std@@V?$allocator@D@2@@std@@PAVFuzzyVariable@@@std@@@2@$0A@@std@@@std@@@std@@QAEAAV01@ABV01@@Z PROC ; std::_Tree_iterator<std::_Tree_val<std::_Tmap_traits<std::basic_string<char,std::char_traits<char>,std::allocator<char> >,FuzzyVariable *,std::less<std::basic_string<char,std::char_traits<char>,std::allocator<char> > >,std::allocator<std::pair<std::basic_string<char,std::char_traits<char>,std::allocator<char> > const ,FuzzyVariable *> >,0> > >::operator=, COMDAT
; _this$ = ecx
	push	ebp
	mov	ebp, esp
	push	ecx
	mov	DWORD PTR [ebp-4], -858993460		; ccccccccH
	mov	DWORD PTR _this$[ebp], ecx
	mov	eax, DWORD PTR ___that$[ebp]
	push	eax
	mov	ecx, DWORD PTR _this$[ebp]
	call	??4?$_Tree_const_iterator@V?$_Tree_val@V?$_Tmap_traits@V?$basic_string@DU?$char_traits@D@std@@V?$allocator@D@2@@std@@PAVFuzzyVariable@@U?$less@V?$basic_string@DU?$char_traits@D@std@@V?$allocator@D@2@@std@@@2@V?$allocator@U?$pair@$$CBV?$basic_string@DU?$char_traits@D@std@@V?$allocator@D@2@@std@@PAVFuzzyVariable@@@std@@@2@$0A@@std@@@std@@@std@@QAEAAV01@ABV01@@Z
	mov	eax, DWORD PTR _this$[ebp]
	add	esp, 4
	cmp	ebp, esp
	call	__RTC_CheckEsp
	mov	esp, ebp
	pop	ebp
	ret	4
??4?$_Tree_iterator@V?$_Tree_val@V?$_Tmap_traits@V?$basic_string@DU?$char_traits@D@std@@V?$allocator@D@2@@std@@PAVFuzzyVariable@@U?$less@V?$basic_string@DU?$char_traits@D@std@@V?$allocator@D@2@@std@@@2@V?$allocator@U?$pair@$$CBV?$basic_string@DU?$char_traits@D@std@@V?$allocator@D@2@@std@@PAVFuzzyVariable@@@std@@@2@$0A@@std@@@std@@@std@@QAEAAV01@ABV01@@Z ENDP ; std::_Tree_iterator<std::_Tree_val<std::_Tmap_traits<std::basic_string<char,std::char_traits<char>,std::allocator<char> >,FuzzyVariable *,std::less<std::basic_string<char,std::char_traits<char>,std::allocator<char> > >,std::allocator<std::pair<std::basic_string<char,std::char_traits<char>,std::allocator<char> > const ,FuzzyVariable *> >,0> > >::operator=
_TEXT	ENDS
PUBLIC	??1?$basic_string@DU?$char_traits@D@std@@V?$allocator@D@2@@std@@QAE@XZ ; std::basic_string<char,std::char_traits<char>,std::allocator<char> >::~basic_string<char,std::char_traits<char>,std::allocator<char> >
; Function compile flags: /Odtp /RTCsu
;	COMDAT ??1?$_Pair_base@$$CBV?$basic_string@DU?$char_traits@D@std@@V?$allocator@D@2@@std@@PAVFuzzyVariable@@@std@@QAE@XZ
_TEXT	SEGMENT
_this$ = -4						; size = 4
??1?$_Pair_base@$$CBV?$basic_string@DU?$char_traits@D@std@@V?$allocator@D@2@@std@@PAVFuzzyVariable@@@std@@QAE@XZ PROC ; std::_Pair_base<std::basic_string<char,std::char_traits<char>,std::allocator<char> > const ,FuzzyVariable *>::~_Pair_base<std::basic_string<char,std::char_traits<char>,std::allocator<char> > const ,FuzzyVariable *>, COMDAT
; _this$ = ecx
	push	ebp
	mov	ebp, esp
	push	ecx
	mov	DWORD PTR [ebp-4], -858993460		; ccccccccH
	mov	DWORD PTR _this$[ebp], ecx
	mov	ecx, DWORD PTR _this$[ebp]
