; Listing generated by Microsoft (R) Optimizing Compiler Version 16.00.40219.01 

	TITLE	C:\Users\Teaja\Documents\Artificial-Fun\LabRavenProjectTest\Raven\goals\GetWeaponGoal_Evaluator.cpp
	.686P
	.XMM
	include listing.inc
	.model	flat

INCLUDELIB LIBCMTD
INCLUDELIB OLDNAMES

PUBLIC	?has_denorm@_Num_base@std@@2W4float_denorm_style@2@B ; std::_Num_base::has_denorm
PUBLIC	?has_denorm_loss@_Num_base@std@@2_NB		; std::_Num_base::has_denorm_loss
PUBLIC	?has_infinity@_Num_base@std@@2_NB		; std::_Num_base::has_infinity
PUBLIC	?has_quiet_NaN@_Num_base@std@@2_NB		; std::_Num_base::has_quiet_NaN
PUBLIC	?has_signaling_NaN@_Num_base@std@@2_NB		; std::_Num_base::has_signaling_NaN
PUBLIC	?is_bounded@_Num_base@std@@2_NB			; std::_Num_base::is_bounded
PUBLIC	?is_exact@_Num_base@std@@2_NB			; std::_Num_base::is_exact
PUBLIC	?is_iec559@_Num_base@std@@2_NB			; std::_Num_base::is_iec559
PUBLIC	?is_integer@_Num_base@std@@2_NB			; std::_Num_base::is_integer
PUBLIC	?is_modulo@_Num_base@std@@2_NB			; std::_Num_base::is_modulo
PUBLIC	?is_signed@_Num_base@std@@2_NB			; std::_Num_base::is_signed
PUBLIC	?is_specialized@_Num_base@std@@2_NB		; std::_Num_base::is_specialized
PUBLIC	?tinyness_before@_Num_base@std@@2_NB		; std::_Num_base::tinyness_before
PUBLIC	?traps@_Num_base@std@@2_NB			; std::_Num_base::traps
PUBLIC	?round_style@_Num_base@std@@2W4float_round_style@2@B ; std::_Num_base::round_style
PUBLIC	?digits@_Num_base@std@@2HB			; std::_Num_base::digits
PUBLIC	?digits10@_Num_base@std@@2HB			; std::_Num_base::digits10
PUBLIC	?max_digits10@_Num_base@std@@2HB		; std::_Num_base::max_digits10
PUBLIC	?max_exponent@_Num_base@std@@2HB		; std::_Num_base::max_exponent
PUBLIC	?max_exponent10@_Num_base@std@@2HB		; std::_Num_base::max_exponent10
PUBLIC	?min_exponent@_Num_base@std@@2HB		; std::_Num_base::min_exponent
PUBLIC	?min_exponent10@_Num_base@std@@2HB		; std::_Num_base::min_exponent10
PUBLIC	?radix@_Num_base@std@@2HB			; std::_Num_base::radix
PUBLIC	?is_bounded@_Num_int_base@std@@2_NB		; std::_Num_int_base::is_bounded
PUBLIC	?is_exact@_Num_int_base@std@@2_NB		; std::_Num_int_base::is_exact
PUBLIC	?is_integer@_Num_int_base@std@@2_NB		; std::_Num_int_base::is_integer
PUBLIC	?is_modulo@_Num_int_base@std@@2_NB		; std::_Num_int_base::is_modulo
PUBLIC	?is_specialized@_Num_int_base@std@@2_NB		; std::_Num_int_base::is_specialized
PUBLIC	?radix@_Num_int_base@std@@2HB			; std::_Num_int_base::radix
PUBLIC	?has_denorm@_Num_float_base@std@@2W4float_denorm_style@2@B ; std::_Num_float_base::has_denorm
PUBLIC	?has_denorm_loss@_Num_float_base@std@@2_NB	; std::_Num_float_base::has_denorm_loss
PUBLIC	?has_infinity@_Num_float_base@std@@2_NB		; std::_Num_float_base::has_infinity
PUBLIC	?has_quiet_NaN@_Num_float_base@std@@2_NB	; std::_Num_float_base::has_quiet_NaN
PUBLIC	?has_signaling_NaN@_Num_float_base@std@@2_NB	; std::_Num_float_base::has_signaling_NaN
PUBLIC	?is_bounded@_Num_float_base@std@@2_NB		; std::_Num_float_base::is_bounded
PUBLIC	?is_exact@_Num_float_base@std@@2_NB		; std::_Num_float_base::is_exact
PUBLIC	?is_iec559@_Num_float_base@std@@2_NB		; std::_Num_float_base::is_iec559
PUBLIC	?is_integer@_Num_float_base@std@@2_NB		; std::_Num_float_base::is_integer
PUBLIC	?is_modulo@_Num_float_base@std@@2_NB		; std::_Num_float_base::is_modulo
PUBLIC	?is_signed@_Num_float_base@std@@2_NB		; std::_Num_float_base::is_signed
PUBLIC	?is_specialized@_Num_float_base@std@@2_NB	; std::_Num_float_base::is_specialized
PUBLIC	?tinyness_before@_Num_float_base@std@@2_NB	; std::_Num_float_base::tinyness_before
PUBLIC	?traps@_Num_float_base@std@@2_NB		; std::_Num_float_base::traps
PUBLIC	?round_style@_Num_float_base@std@@2W4float_round_style@2@B ; std::_Num_float_base::round_style
PUBLIC	?radix@_Num_float_base@std@@2HB			; std::_Num_float_base::radix
PUBLIC	?is_signed@?$numeric_limits@D@std@@2_NB		; std::numeric_limits<char>::is_signed
PUBLIC	?digits@?$numeric_limits@D@std@@2HB		; std::numeric_limits<char>::digits
PUBLIC	?digits10@?$numeric_limits@D@std@@2HB		; std::numeric_limits<char>::digits10
PUBLIC	?max_digits10@?$numeric_limits@D@std@@2HB	; std::numeric_limits<char>::max_digits10
PUBLIC	?is_signed@?$numeric_limits@_W@std@@2_NB	; std::numeric_limits<wchar_t>::is_signed
PUBLIC	?digits@?$numeric_limits@_W@std@@2HB		; std::numeric_limits<wchar_t>::digits
PUBLIC	?digits10@?$numeric_limits@_W@std@@2HB		; std::numeric_limits<wchar_t>::digits10
PUBLIC	?max_digits10@?$numeric_limits@_W@std@@2HB	; std::numeric_limits<wchar_t>::max_digits10
PUBLIC	?is_modulo@?$numeric_limits@_N@std@@2_NB	; std::numeric_limits<bool>::is_modulo
PUBLIC	?is_signed@?$numeric_limits@_N@std@@2_NB	; std::numeric_limits<bool>::is_signed
PUBLIC	?digits@?$numeric_limits@_N@std@@2HB		; std::numeric_limits<bool>::digits
PUBLIC	?digits10@?$numeric_limits@_N@std@@2HB		; std::numeric_limits<bool>::digits10
PUBLIC	?max_digits10@?$numeric_limits@_N@std@@2HB	; std::numeric_limits<bool>::max_digits10
PUBLIC	?is_signed@?$numeric_limits@C@std@@2_NB		; std::numeric_limits<signed char>::is_signed
PUBLIC	?digits@?$numeric_limits@C@std@@2HB		; std::numeric_limits<signed char>::digits
PUBLIC	?digits10@?$numeric_limits@C@std@@2HB		; std::numeric_limits<signed char>::digits10
PUBLIC	?max_digits10@?$numeric_limits@C@std@@2HB	; std::numeric_limits<signed char>::max_digits10
PUBLIC	?is_signed@?$numeric_limits@E@std@@2_NB		; std::numeric_limits<unsigned char>::is_signed
PUBLIC	?digits@?$numeric_limits@E@std@@2HB		; std::numeric_limits<unsigned char>::digits
PUBLIC	?digits10@?$numeric_limits@E@std@@2HB		; std::numeric_limits<unsigned char>::digits10
PUBLIC	?max_digits10@?$numeric_limits@E@std@@2HB	; std::numeric_limits<unsigned char>::max_digits10
PUBLIC	?is_signed@?$numeric_limits@F@std@@2_NB		; std::numeric_limits<short>::is_signed
PUBLIC	?digits@?$numeric_limits@F@std@@2HB		; std::numeric_limits<short>::digits
PUBLIC	?digits10@?$numeric_limits@F@std@@2HB		; std::numeric_limits<short>::digits10
PUBLIC	?max_digits10@?$numeric_limits@F@std@@2HB	; std::numeric_limits<short>::max_digits10
PUBLIC	?is_signed@?$numeric_limits@G@std@@2_NB		; std::numeric_limits<unsigned short>::is_signed
PUBLIC	?digits@?$numeric_limits@G@std@@2HB		; std::numeric_limits<unsigned short>::digits
PUBLIC	?digits10@?$numeric_limits@G@std@@2HB		; std::numeric_limits<unsigned short>::digits10
PUBLIC	?max_digits10@?$numeric_limits@G@std@@2HB	; std::numeric_limits<unsigned short>::max_digits10
PUBLIC	?is_signed@?$numeric_limits@H@std@@2_NB		; std::numeric_limits<int>::is_signed
PUBLIC	?digits@?$numeric_limits@H@std@@2HB		; std::numeric_limits<int>::digits
PUBLIC	?digits10@?$numeric_limits@H@std@@2HB		; std::numeric_limits<int>::digits10
PUBLIC	?max_digits10@?$numeric_limits@H@std@@2HB	; std::numeric_limits<int>::max_digits10
PUBLIC	?is_signed@?$numeric_limits@I@std@@2_NB		; std::numeric_limits<unsigned int>::is_signed
PUBLIC	?digits@?$numeric_limits@I@std@@2HB		; std::numeric_limits<unsigned int>::digits
PUBLIC	?digits10@?$numeric_limits@I@std@@2HB		; std::numeric_limits<unsigned int>::digits10
PUBLIC	?max_digits10@?$numeric_limits@I@std@@2HB	; std::numeric_limits<unsigned int>::max_digits10
PUBLIC	?is_signed@?$numeric_limits@J@std@@2_NB		; std::numeric_limits<long>::is_signed
PUBLIC	?digits@?$numeric_limits@J@std@@2HB		; std::numeric_limits<long>::digits
PUBLIC	?digits10@?$numeric_limits@J@std@@2HB		; std::numeric_limits<long>::digits10
PUBLIC	?max_digits10@?$numeric_limits@J@std@@2HB	; std::numeric_limits<long>::max_digits10
PUBLIC	?is_signed@?$numeric_limits@K@std@@2_NB		; std::numeric_limits<unsigned long>::is_signed
PUBLIC	?digits@?$numeric_limits@K@std@@2HB		; std::numeric_limits<unsigned long>::digits
PUBLIC	?digits10@?$numeric_limits@K@std@@2HB		; std::numeric_limits<unsigned long>::digits10
PUBLIC	?max_digits10@?$numeric_limits@K@std@@2HB	; std::numeric_limits<unsigned long>::max_digits10
PUBLIC	?is_signed@?$numeric_limits@_J@std@@2_NB	; std::numeric_limits<__int64>::is_signed
PUBLIC	?digits@?$numeric_limits@_J@std@@2HB		; std::numeric_limits<__int64>::digits
PUBLIC	?digits10@?$numeric_limits@_J@std@@2HB		; std::numeric_limits<__int64>::digits10
PUBLIC	?max_digits10@?$numeric_limits@_J@std@@2HB	; std::numeric_limits<__int64>::max_digits10
PUBLIC	?is_signed@?$numeric_limits@_K@std@@2_NB	; std::numeric_limits<unsigned __int64>::is_signed
PUBLIC	?digits@?$numeric_limits@_K@std@@2HB		; std::numeric_limits<unsigned __int64>::digits
PUBLIC	?digits10@?$numeric_limits@_K@std@@2HB		; std::numeric_limits<unsigned __int64>::digits10
PUBLIC	?max_digits10@?$numeric_limits@_K@std@@2HB	; std::numeric_limits<unsigned __int64>::max_digits10
PUBLIC	?digits@?$numeric_limits@M@std@@2HB		; std::numeric_limits<float>::digits
PUBLIC	?digits10@?$numeric_limits@M@std@@2HB		; std::numeric_limits<float>::digits10
PUBLIC	?max_digits10@?$numeric_limits@M@std@@2HB	; std::numeric_limits<float>::max_digits10
PUBLIC	?max_exponent@?$numeric_limits@M@std@@2HB	; std::numeric_limits<float>::max_exponent
PUBLIC	?max_exponent10@?$numeric_limits@M@std@@2HB	; std::numeric_limits<float>::max_exponent10
PUBLIC	?min_exponent@?$numeric_limits@M@std@@2HB	; std::numeric_limits<float>::min_exponent
PUBLIC	?min_exponent10@?$numeric_limits@M@std@@2HB	; std::numeric_limits<float>::min_exponent10
PUBLIC	?digits@?$numeric_limits@N@std@@2HB		; std::numeric_limits<double>::digits
PUBLIC	?digits10@?$numeric_limits@N@std@@2HB		; std::numeric_limits<double>::digits10
PUBLIC	?max_digits10@?$numeric_limits@N@std@@2HB	; std::numeric_limits<double>::max_digits10
PUBLIC	?max_exponent@?$numeric_limits@N@std@@2HB	; std::numeric_limits<double>::max_exponent
PUBLIC	?max_exponent10@?$numeric_limits@N@std@@2HB	; std::numeric_limits<double>::max_exponent10
PUBLIC	?min_exponent@?$numeric_limits@N@std@@2HB	; std::numeric_limits<double>::min_exponent
PUBLIC	?min_exponent10@?$numeric_limits@N@std@@2HB	; std::numeric_limits<double>::min_exponent10
PUBLIC	?digits@?$numeric_limits@O@std@@2HB		; std::numeric_limits<long double>::digits
PUBLIC	?digits10@?$numeric_limits@O@std@@2HB		; std::numeric_limits<long double>::digits10
PUBLIC	?max_digits10@?$numeric_limits@O@std@@2HB	; std::numeric_limits<long double>::max_digits10
PUBLIC	?max_exponent@?$numeric_limits@O@std@@2HB	; std::numeric_limits<long double>::max_exponent
PUBLIC	?max_exponent10@?$numeric_limits@O@std@@2HB	; std::numeric_limits<long double>::max_exponent10
PUBLIC	?min_exponent@?$numeric_limits@O@std@@2HB	; std::numeric_limits<long double>::min_exponent
PUBLIC	?min_exponent10@?$numeric_limits@O@std@@2HB	; std::numeric_limits<long double>::min_exponent10
PUBLIC	?value@?$integral_constant@_N$0A@@tr1@std@@2_NB	; std::tr1::integral_constant<bool,0>::value
PUBLIC	?value@?$integral_constant@_N$00@tr1@std@@2_NB	; std::tr1::integral_constant<bool,1>::value
PUBLIC	?value@?$integral_constant@I$0A@@tr1@std@@2IB	; std::tr1::integral_constant<unsigned int,0>::value
PUBLIC	?_Rank@?$_Arithmetic_traits@_N@std@@2HB		; std::_Arithmetic_traits<bool>::_Rank
PUBLIC	?_Rank@?$_Arithmetic_traits@D@std@@2HB		; std::_Arithmetic_traits<char>::_Rank
PUBLIC	?_Rank@?$_Arithmetic_traits@C@std@@2HB		; std::_Arithmetic_traits<signed char>::_Rank
PUBLIC	?_Rank@?$_Arithmetic_traits@E@std@@2HB		; std::_Arithmetic_traits<unsigned char>::_Rank
PUBLIC	?_Rank@?$_Arithmetic_traits@F@std@@2HB		; std::_Arithmetic_traits<short>::_Rank
PUBLIC	?_Rank@?$_Arithmetic_traits@G@std@@2HB		; std::_Arithmetic_traits<unsigned short>::_Rank
PUBLIC	?_Rank@?$_Arithmetic_traits@H@std@@2HB		; std::_Arithmetic_traits<int>::_Rank
PUBLIC	?_Rank@?$_Arithmetic_traits@I@std@@2HB		; std::_Arithmetic_traits<unsigned int>::_Rank
PUBLIC	?_Rank@?$_Arithmetic_traits@J@std@@2HB		; std::_Arithmetic_traits<long>::_Rank
PUBLIC	?_Rank@?$_Arithmetic_traits@K@std@@2HB		; std::_Arithmetic_traits<unsigned long>::_Rank
PUBLIC	?_Rank@?$_Arithmetic_traits@_J@std@@2HB		; std::_Arithmetic_traits<__int64>::_Rank
PUBLIC	?_Rank@?$_Arithmetic_traits@_K@std@@2HB		; std::_Arithmetic_traits<unsigned __int64>::_Rank
PUBLIC	?_Rank@?$_Arithmetic_traits@M@std@@2HB		; std::_Arithmetic_traits<float>::_Rank
PUBLIC	?_Rank@?$_Arithmetic_traits@N@std@@2HB		; std::_Arithmetic_traits<double>::_Rank
PUBLIC	?_Rank@?$_Arithmetic_traits@O@std@@2HB		; std::_Arithmetic_traits<long double>::_Rank
PUBLIC	?collate@?$_Locbase@H@std@@2HB			; std::_Locbase<int>::collate
PUBLIC	?ctype@?$_Locbase@H@std@@2HB			; std::_Locbase<int>::ctype
PUBLIC	?monetary@?$_Locbase@H@std@@2HB			; std::_Locbase<int>::monetary
PUBLIC	?numeric@?$_Locbase@H@std@@2HB			; std::_Locbase<int>::numeric
PUBLIC	?time@?$_Locbase@H@std@@2HB			; std::_Locbase<int>::time
PUBLIC	?messages@?$_Locbase@H@std@@2HB			; std::_Locbase<int>::messages
PUBLIC	?all@?$_Locbase@H@std@@2HB			; std::_Locbase<int>::all
PUBLIC	?none@?$_Locbase@H@std@@2HB			; std::_Locbase<int>::none
PUBLIC	?table_size@?$ctype@D@std@@2IB			; std::ctype<char>::table_size
PUBLIC	?skipws@?$_Iosb@H@std@@2W4_Fmtflags@12@B	; std::_Iosb<int>::skipws
PUBLIC	?unitbuf@?$_Iosb@H@std@@2W4_Fmtflags@12@B	; std::_Iosb<int>::unitbuf
PUBLIC	?uppercase@?$_Iosb@H@std@@2W4_Fmtflags@12@B	; std::_Iosb<int>::uppercase
PUBLIC	?showbase@?$_Iosb@H@std@@2W4_Fmtflags@12@B	; std::_Iosb<int>::showbase
PUBLIC	?showpoint@?$_Iosb@H@std@@2W4_Fmtflags@12@B	; std::_Iosb<int>::showpoint
PUBLIC	?showpos@?$_Iosb@H@std@@2W4_Fmtflags@12@B	; std::_Iosb<int>::showpos
PUBLIC	?left@?$_Iosb@H@std@@2W4_Fmtflags@12@B		; std::_Iosb<int>::left
PUBLIC	?right@?$_Iosb@H@std@@2W4_Fmtflags@12@B		; std::_Iosb<int>::right
PUBLIC	?internal@?$_Iosb@H@std@@2W4_Fmtflags@12@B	; std::_Iosb<int>::internal
PUBLIC	?dec@?$_Iosb@H@std@@2W4_Fmtflags@12@B		; std::_Iosb<int>::dec
PUBLIC	?oct@?$_Iosb@H@std@@2W4_Fmtflags@12@B		; std::_Iosb<int>::oct
PUBLIC	?hex@?$_Iosb@H@std@@2W4_Fmtflags@12@B		; std::_Iosb<int>::hex
PUBLIC	?scientific@?$_Iosb@H@std@@2W4_Fmtflags@12@B	; std::_Iosb<int>::scientific
PUBLIC	?fixed@?$_Iosb@H@std@@2W4_Fmtflags@12@B		; std::_Iosb<int>::fixed
PUBLIC	?hexfloat@?$_Iosb@H@std@@2W4_Fmtflags@12@B	; std::_Iosb<int>::hexfloat
PUBLIC	?boolalpha@?$_Iosb@H@std@@2W4_Fmtflags@12@B	; std::_Iosb<int>::boolalpha
PUBLIC	?_Stdio@?$_Iosb@H@std@@2W4_Fmtflags@12@B	; std::_Iosb<int>::_Stdio
PUBLIC	?adjustfield@?$_Iosb@H@std@@2W4_Fmtflags@12@B	; std::_Iosb<int>::adjustfield
PUBLIC	?basefield@?$_Iosb@H@std@@2W4_Fmtflags@12@B	; std::_Iosb<int>::basefield
PUBLIC	?floatfield@?$_Iosb@H@std@@2W4_Fmtflags@12@B	; std::_Iosb<int>::floatfield
PUBLIC	?goodbit@?$_Iosb@H@std@@2W4_Iostate@12@B	; std::_Iosb<int>::goodbit
PUBLIC	?eofbit@?$_Iosb@H@std@@2W4_Iostate@12@B		; std::_Iosb<int>::eofbit
PUBLIC	?failbit@?$_Iosb@H@std@@2W4_Iostate@12@B	; std::_Iosb<int>::failbit
PUBLIC	?badbit@?$_Iosb@H@std@@2W4_Iostate@12@B		; std::_Iosb<int>::badbit
PUBLIC	?_Hardfail@?$_Iosb@H@std@@2W4_Iostate@12@B	; std::_Iosb<int>::_Hardfail
PUBLIC	?in@?$_Iosb@H@std@@2W4_Openmode@12@B		; std::_Iosb<int>::in
PUBLIC	?out@?$_Iosb@H@std@@2W4_Openmode@12@B		; std::_Iosb<int>::out
PUBLIC	?ate@?$_Iosb@H@std@@2W4_Openmode@12@B		; std::_Iosb<int>::ate
PUBLIC	?app@?$_Iosb@H@std@@2W4_Openmode@12@B		; std::_Iosb<int>::app
PUBLIC	?trunc@?$_Iosb@H@std@@2W4_Openmode@12@B		; std::_Iosb<int>::trunc
PUBLIC	?_Nocreate@?$_Iosb@H@std@@2W4_Openmode@12@B	; std::_Iosb<int>::_Nocreate
PUBLIC	?_Noreplace@?$_Iosb@H@std@@2W4_Openmode@12@B	; std::_Iosb<int>::_Noreplace
PUBLIC	?binary@?$_Iosb@H@std@@2W4_Openmode@12@B	; std::_Iosb<int>::binary
PUBLIC	?beg@?$_Iosb@H@std@@2W4_Seekdir@12@B		; std::_Iosb<int>::beg
PUBLIC	?cur@?$_Iosb@H@std@@2W4_Seekdir@12@B		; std::_Iosb<int>::cur
PUBLIC	?end@?$_Iosb@H@std@@2W4_Seekdir@12@B		; std::_Iosb<int>::end
CONST	SEGMENT
_Pi	DQ	0400921f9f01b866er		; 3.14159
_pi	DQ	0400921f9f01b866er		; 3.14159
_colors	DD	0ffH
	DD	0ff0000H
	DD	0ff00H
	DD	00H
	DD	0c8c8ffH
	DD	0c8c8c8H
	DD	0ffffH
	DD	0aaffH
	DD	0aa00ffH
	DD	05a85H
	DD	0ffffffH
	DD	06400H
	DD	0ffff00H
	DD	0c8c8c8H
	DD	0e6e6ffH
$SG137025 DB	'RG: ', 00H
	ORG $+3
$SG137027 DB	'RL: ', 00H
	ORG $+3
$SG137029 DB	'SG: ', 00H
CONST	ENDS
;	COMDAT ?end@?$_Iosb@H@std@@2W4_Seekdir@12@B
CONST	SEGMENT
?end@?$_Iosb@H@std@@2W4_Seekdir@12@B DD 02H		; std::_Iosb<int>::end
CONST	ENDS
;	COMDAT ?cur@?$_Iosb@H@std@@2W4_Seekdir@12@B
CONST	SEGMENT
?cur@?$_Iosb@H@std@@2W4_Seekdir@12@B DD 01H		; std::_Iosb<int>::cur
CONST	ENDS
;	COMDAT ?beg@?$_Iosb@H@std@@2W4_Seekdir@12@B
CONST	SEGMENT
?beg@?$_Iosb@H@std@@2W4_Seekdir@12@B DD 00H		; std::_Iosb<int>::beg
CONST	ENDS
;	COMDAT ?binary@?$_Iosb@H@std@@2W4_Openmode@12@B
CONST	SEGMENT
?binary@?$_Iosb@H@std@@2W4_Openmode@12@B DD 020H	; std::_Iosb<int>::binary
CONST	ENDS
;	COMDAT ?_Noreplace@?$_Iosb@H@std@@2W4_Openmode@12@B
CONST	SEGMENT
?_Noreplace@?$_Iosb@H@std@@2W4_Openmode@12@B DD 080H	; std::_Iosb<int>::_Noreplace
CONST	ENDS
;	COMDAT ?_Nocreate@?$_Iosb@H@std@@2W4_Openmode@12@B
CONST	SEGMENT
?_Nocreate@?$_Iosb@H@std@@2W4_Openmode@12@B DD 040H	; std::_Iosb<int>::_Nocreate
CONST	ENDS
;	COMDAT ?trunc@?$_Iosb@H@std@@2W4_Openmode@12@B
CONST	SEGMENT
?trunc@?$_Iosb@H@std@@2W4_Openmode@12@B DD 010H		; std::_Iosb<int>::trunc
CONST	ENDS
;	COMDAT ?app@?$_Iosb@H@std@@2W4_Openmode@12@B
CONST	SEGMENT
?app@?$_Iosb@H@std@@2W4_Openmode@12@B DD 08H		; std::_Iosb<int>::app
CONST	ENDS
;	COMDAT ?ate@?$_Iosb@H@std@@2W4_Openmode@12@B
CONST	SEGMENT
?ate@?$_Iosb@H@std@@2W4_Openmode@12@B DD 04H		; std::_Iosb<int>::ate
CONST	ENDS
;	COMDAT ?out@?$_Iosb@H@std@@2W4_Openmode@12@B
CONST	SEGMENT
?out@?$_Iosb@H@std@@2W4_Openmode@12@B DD 02H		; std::_Iosb<int>::out
CONST	ENDS
;	COMDAT ?in@?$_Iosb@H@std@@2W4_Openmode@12@B
CONST	SEGMENT
?in@?$_Iosb@H@std@@2W4_Openmode@12@B DD 01H		; std::_Iosb<int>::in
CONST	ENDS
;	COMDAT ?_Hardfail@?$_Iosb@H@std@@2W4_Iostate@12@B
CONST	SEGMENT
?_Hardfail@?$_Iosb@H@std@@2W4_Iostate@12@B DD 010H	; std::_Iosb<int>::_Hardfail
CONST	ENDS
;	COMDAT ?badbit@?$_Iosb@H@std@@2W4_Iostate@12@B
CONST	SEGMENT
?badbit@?$_Iosb@H@std@@2W4_Iostate@12@B DD 04H		; std::_Iosb<int>::badbit
CONST	ENDS
;	COMDAT ?failbit@?$_Iosb@H@std@@2W4_Iostate@12@B
CONST	SEGMENT
?failbit@?$_Iosb@H@std@@2W4_Iostate@12@B DD 02H		; std::_Iosb<int>::failbit
CONST	ENDS
;	COMDAT ?eofbit@?$_Iosb@H@std@@2W4_Iostate@12@B
CONST	SEGMENT
?eofbit@?$_Iosb@H@std@@2W4_Iostate@12@B DD 01H		; std::_Iosb<int>::eofbit
CONST	ENDS
;	COMDAT ?goodbit@?$_Iosb@H@std@@2W4_Iostate@12@B
CONST	SEGMENT
?goodbit@?$_Iosb@H@std@@2W4_Iostate@12@B DD 00H		; std::_Iosb<int>::goodbit
CONST	ENDS
;	COMDAT ?floatfield@?$_Iosb@H@std@@2W4_Fmtflags@12@B
CONST	SEGMENT
?floatfield@?$_Iosb@H@std@@2W4_Fmtflags@12@B DD 03000H	; std::_Iosb<int>::floatfield
CONST	ENDS
;	COMDAT ?basefield@?$_Iosb@H@std@@2W4_Fmtflags@12@B
CONST	SEGMENT
?basefield@?$_Iosb@H@std@@2W4_Fmtflags@12@B DD 0e00H	; std::_Iosb<int>::basefield
CONST	ENDS
;	COMDAT ?adjustfield@?$_Iosb@H@std@@2W4_Fmtflags@12@B
CONST	SEGMENT
?adjustfield@?$_Iosb@H@std@@2W4_Fmtflags@12@B DD 01c0H	; std::_Iosb<int>::adjustfield
CONST	ENDS
;	COMDAT ?_Stdio@?$_Iosb@H@std@@2W4_Fmtflags@12@B
CONST	SEGMENT
?_Stdio@?$_Iosb@H@std@@2W4_Fmtflags@12@B DD 08000H	; std::_Iosb<int>::_Stdio
CONST	ENDS
;	COMDAT ?boolalpha@?$_Iosb@H@std@@2W4_Fmtflags@12@B
CONST	SEGMENT
?boolalpha@?$_Iosb@H@std@@2W4_Fmtflags@12@B DD 04000H	; std::_Iosb<int>::boolalpha
CONST	ENDS
;	COMDAT ?hexfloat@?$_Iosb@H@std@@2W4_Fmtflags@12@B
CONST	SEGMENT
?hexfloat@?$_Iosb@H@std@@2W4_Fmtflags@12@B DD 03000H	; std::_Iosb<int>::hexfloat
CONST	ENDS
;	COMDAT ?fixed@?$_Iosb@H@std@@2W4_Fmtflags@12@B
CONST	SEGMENT
?fixed@?$_Iosb@H@std@@2W4_Fmtflags@12@B DD 02000H	; std::_Iosb<int>::fixed
CONST	ENDS
;	COMDAT ?scientific@?$_Iosb@H@std@@2W4_Fmtflags@12@B
CONST	SEGMENT
?scientific@?$_Iosb@H@std@@2W4_Fmtflags@12@B DD 01000H	; std::_Iosb<int>::scientific
CONST	ENDS
;	COMDAT ?hex@?$_Iosb@H@std@@2W4_Fmtflags@12@B
CONST	SEGMENT
?hex@?$_Iosb@H@std@@2W4_Fmtflags@12@B DD 0800H		; std::_Iosb<int>::hex
CONST	ENDS
;	COMDAT ?oct@?$_Iosb@H@std@@2W4_Fmtflags@12@B
CONST	SEGMENT
?oct@?$_Iosb@H@std@@2W4_Fmtflags@12@B DD 0400H		; std::_Iosb<int>::oct
CONST	ENDS
;	COMDAT ?dec@?$_Iosb@H@std@@2W4_Fmtflags@12@B
CONST	SEGMENT
?dec@?$_Iosb@H@std@@2W4_Fmtflags@12@B DD 0200H		; std::_Iosb<int>::dec
CONST	ENDS
;	COMDAT ?internal@?$_Iosb@H@std@@2W4_Fmtflags@12@B
CONST	SEGMENT
?internal@?$_Iosb@H@std@@2W4_Fmtflags@12@B DD 0100H	; std::_Iosb<int>::internal
CONST	ENDS
;	COMDAT ?right@?$_Iosb@H@std@@2W4_Fmtflags@12@B
CONST	SEGMENT
?right@?$_Iosb@H@std@@2W4_Fmtflags@12@B DD 080H		; std::_Iosb<int>::right
CONST	ENDS
;	COMDAT ?left@?$_Iosb@H@std@@2W4_Fmtflags@12@B
CONST	SEGMENT
?left@?$_Iosb@H@std@@2W4_Fmtflags@12@B DD 040H		; std::_Iosb<int>::left
CONST	ENDS
;	COMDAT ?showpos@?$_Iosb@H@std@@2W4_Fmtflags@12@B
CONST	SEGMENT
?showpos@?$_Iosb@H@std@@2W4_Fmtflags@12@B DD 020H	; std::_Iosb<int>::showpos
CONST	ENDS
;	COMDAT ?showpoint@?$_Iosb@H@std@@2W4_Fmtflags@12@B
CONST	SEGMENT
?showpoint@?$_Iosb@H@std@@2W4_Fmtflags@12@B DD 010H	; std::_Iosb<int>::showpoint
CONST	ENDS
;	COMDAT ?showbase@?$_Iosb@H@std@@2W4_Fmtflags@12@B
CONST	SEGMENT
?showbase@?$_Iosb@H@std@@2W4_Fmtflags@12@B DD 08H	; std::_Iosb<int>::showbase
CONST	ENDS
;	COMDAT ?uppercase@?$_Iosb@H@std@@2W4_Fmtflags@12@B
CONST	SEGMENT
?uppercase@?$_Iosb@H@std@@2W4_Fmtflags@12@B DD 04H	; std::_Iosb<int>::uppercase
CONST	ENDS
;	COMDAT ?unitbuf@?$_Iosb@H@std@@2W4_Fmtflags@12@B
CONST	SEGMENT
?unitbuf@?$_Iosb@H@std@@2W4_Fmtflags@12@B DD 02H	; std::_Iosb<int>::unitbuf
CONST	ENDS
;	COMDAT ?skipws@?$_Iosb@H@std@@2W4_Fmtflags@12@B
CONST	SEGMENT
?skipws@?$_Iosb@H@std@@2W4_Fmtflags@12@B DD 01H		; std::_Iosb<int>::skipws
CONST	ENDS
;	COMDAT ?table_size@?$ctype@D@std@@2IB
CONST	SEGMENT
?table_size@?$ctype@D@std@@2IB DD 0100H			; std::ctype<char>::table_size
CONST	ENDS
;	COMDAT ?none@?$_Locbase@H@std@@2HB
CONST	SEGMENT
?none@?$_Locbase@H@std@@2HB DD 00H			; std::_Locbase<int>::none
CONST	ENDS
;	COMDAT ?all@?$_Locbase@H@std@@2HB
CONST	SEGMENT
?all@?$_Locbase@H@std@@2HB DD 03fH			; std::_Locbase<int>::all
CONST	ENDS
;	COMDAT ?messages@?$_Locbase@H@std@@2HB
CONST	SEGMENT
?messages@?$_Locbase@H@std@@2HB DD 020H			; std::_Locbase<int>::messages
CONST	ENDS
;	COMDAT ?time@?$_Locbase@H@std@@2HB
CONST	SEGMENT
?time@?$_Locbase@H@std@@2HB DD 010H			; std::_Locbase<int>::time
CONST	ENDS
;	COMDAT ?numeric@?$_Locbase@H@std@@2HB
CONST	SEGMENT
?numeric@?$_Locbase@H@std@@2HB DD 08H			; std::_Locbase<int>::numeric
CONST	ENDS
;	COMDAT ?monetary@?$_Locbase@H@std@@2HB
CONST	SEGMENT
?monetary@?$_Locbase@H@std@@2HB DD 04H			; std::_Locbase<int>::monetary
CONST	ENDS
;	COMDAT ?ctype@?$_Locbase@H@std@@2HB
CONST	SEGMENT
?ctype@?$_Locbase@H@std@@2HB DD 02H			; std::_Locbase<int>::ctype
CONST	ENDS
;	COMDAT ?collate@?$_Locbase@H@std@@2HB
CONST	SEGMENT
?collate@?$_Locbase@H@std@@2HB DD 01H			; std::_Locbase<int>::collate
CONST	ENDS
;	COMDAT ?_Rank@?$_Arithmetic_traits@O@std@@2HB
CONST	SEGMENT
?_Rank@?$_Arithmetic_traits@O@std@@2HB DD 09H		; std::_Arithmetic_traits<long double>::_Rank
CONST	ENDS
;	COMDAT ?_Rank@?$_Arithmetic_traits@N@std@@2HB
CONST	SEGMENT
?_Rank@?$_Arithmetic_traits@N@std@@2HB DD 08H		; std::_Arithmetic_traits<double>::_Rank
CONST	ENDS
;	COMDAT ?_Rank@?$_Arithmetic_traits@M@std@@2HB
CONST	SEGMENT
?_Rank@?$_Arithmetic_traits@M@std@@2HB DD 07H		; std::_Arithmetic_traits<float>::_Rank
CONST	ENDS
;	COMDAT ?_Rank@?$_Arithmetic_traits@_K@std@@2HB
CONST	SEGMENT
?_Rank@?$_Arithmetic_traits@_K@std@@2HB DD 06H		; std::_Arithmetic_traits<unsigned __int64>::_Rank
CONST	ENDS
;	COMDAT ?_Rank@?$_Arithmetic_traits@_J@std@@2HB
CONST	SEGMENT
?_Rank@?$_Arithmetic_traits@_J@std@@2HB DD 06H		; std::_Arithmetic_traits<__int64>::_Rank
CONST	ENDS
;	COMDAT ?_Rank@?$_Arithmetic_traits@K@std@@2HB
CONST	SEGMENT
?_Rank@?$_Arithmetic_traits@K@std@@2HB DD 05H		; std::_Arithmetic_traits<unsigned long>::_Rank
CONST	ENDS
;	COMDAT ?_Rank@?$_Arithmetic_traits@J@std@@2HB
CONST	SEGMENT
?_Rank@?$_Arithmetic_traits@J@std@@2HB DD 05H		; std::_Arithmetic_traits<long>::_Rank
CONST	ENDS
;	COMDAT ?_Rank@?$_Arithmetic_traits@I@std@@2HB
CONST	SEGMENT
?_Rank@?$_Arithmetic_traits@I@std@@2HB DD 04H		; std::_Arithmetic_traits<unsigned int>::_Rank
CONST	ENDS
;	COMDAT ?_Rank@?$_Arithmetic_traits@H@std@@2HB
CONST	SEGMENT
?_Rank@?$_Arithmetic_traits@H@std@@2HB DD 04H		; std::_Arithmetic_traits<int>::_Rank
CONST	ENDS
;	COMDAT ?_Rank@?$_Arithmetic_traits@G@std@@2HB
CONST	SEGMENT
?_Rank@?$_Arithmetic_traits@G@std@@2HB DD 03H		; std::_Arithmetic_traits<unsigned short>::_Rank
CONST	ENDS
;	COMDAT ?_Rank@?$_Arithmetic_traits@F@std@@2HB
CONST	SEGMENT
?_Rank@?$_Arithmetic_traits@F@std@@2HB DD 03H		; std::_Arithmetic_traits<short>::_Rank
CONST	ENDS
;	COMDAT ?_Rank@?$_Arithmetic_traits@E@std@@2HB
CONST	SEGMENT
?_Rank@?$_Arithmetic_traits@E@std@@2HB DD 02H		; std::_Arithmetic_traits<unsigned char>::_Rank
CONST	ENDS
;	COMDAT ?_Rank@?$_Arithmetic_traits@C@std@@2HB
CONST	SEGMENT
?_Rank@?$_Arithmetic_traits@C@std@@2HB DD 02H		; std::_Arithmetic_traits<signed char>::_Rank
CONST	ENDS
;	COMDAT ?_Rank@?$_Arithmetic_traits@D@std@@2HB
CONST	SEGMENT
?_Rank@?$_Arithmetic_traits@D@std@@2HB DD 02H		; std::_Arithmetic_traits<char>::_Rank
CONST	ENDS
;	COMDAT ?_Rank@?$_Arithmetic_traits@_N@std@@2HB
CONST	SEGMENT
?_Rank@?$_Arithmetic_traits@_N@std@@2HB DD 01H		; std::_Arithmetic_traits<bool>::_Rank
CONST	ENDS
;	COMDAT ?value@?$integral_constant@I$0A@@tr1@std@@2IB
CONST	SEGMENT
?value@?$integral_constant@I$0A@@tr1@std@@2IB DD 00H	; std::tr1::integral_constant<unsigned int,0>::value
CONST	ENDS
;	COMDAT ?value@?$integral_constant@_N$00@tr1@std@@2_NB
CONST	SEGMENT
?value@?$integral_constant@_N$00@tr1@std@@2_NB DB 01H	; std::tr1::integral_constant<bool,1>::value
CONST	ENDS
;	COMDAT ?value@?$integral_constant@_N$0A@@tr1@std@@2_NB
CONST	SEGMENT
?value@?$integral_constant@_N$0A@@tr1@std@@2_NB DB 00H	; std::tr1::integral_constant<bool,0>::value
CONST	ENDS
;	COMDAT ?min_exponent10@?$numeric_limits@O@std@@2HB
CONST	SEGMENT
?min_exponent10@?$numeric_limits@O@std@@2HB DD 0fffffecdH ; std::numeric_limits<long double>::min_exponent10
CONST	ENDS
;	COMDAT ?min_exponent@?$numeric_limits@O@std@@2HB
CONST	SEGMENT
?min_exponent@?$numeric_limits@O@std@@2HB DD 0fffffc03H	; std::numeric_limits<long double>::min_exponent
CONST	ENDS
;	COMDAT ?max_exponent10@?$numeric_limits@O@std@@2HB
CONST	SEGMENT
?max_exponent10@?$numeric_limits@O@std@@2HB DD 0134H	; std::numeric_limits<long double>::max_exponent10
CONST	ENDS
;	COMDAT ?max_exponent@?$numeric_limits@O@std@@2HB
CONST	SEGMENT
?max_exponent@?$numeric_limits@O@std@@2HB DD 0400H	; std::numeric_limits<long double>::max_exponent
CONST	ENDS
;	COMDAT ?max_digits10@?$numeric_limits@O@std@@2HB
CONST	SEGMENT
?max_digits10@?$numeric_limits@O@std@@2HB DD 011H	; std::numeric_limits<long double>::max_digits10
CONST	ENDS
;	COMDAT ?digits10@?$numeric_limits@O@std@@2HB
CONST	SEGMENT
?digits10@?$numeric_limits@O@std@@2HB DD 0fH		; std::numeric_limits<long double>::digits10
CONST	ENDS
;	COMDAT ?digits@?$numeric_limits@O@std@@2HB
CONST	SEGMENT
?digits@?$numeric_limits@O@std@@2HB DD 035H		; std::numeric_limits<long double>::digits
CONST	ENDS
;	COMDAT ?min_exponent10@?$numeric_limits@N@std@@2HB
CONST	SEGMENT
?min_exponent10@?$numeric_limits@N@std@@2HB DD 0fffffecdH ; std::numeric_limits<double>::min_exponent10
CONST	ENDS
;	COMDAT ?min_exponent@?$numeric_limits@N@std@@2HB
CONST	SEGMENT
?min_exponent@?$numeric_limits@N@std@@2HB DD 0fffffc03H	; std::numeric_limits<double>::min_exponent
CONST	ENDS
;	COMDAT ?max_exponent10@?$numeric_limits@N@std@@2HB
CONST	SEGMENT
?max_exponent10@?$numeric_limits@N@std@@2HB DD 0134H	; std::numeric_limits<double>::max_exponent10
CONST	ENDS
;	COMDAT ?max_exponent@?$numeric_limits@N@std@@2HB
CONST	SEGMENT
?max_exponent@?$numeric_limits@N@std@@2HB DD 0400H	; std::numeric_limits<double>::max_exponent
CONST	ENDS
;	COMDAT ?max_digits10@?$numeric_limits@N@std@@2HB
CONST	SEGMENT
?max_digits10@?$numeric_limits@N@std@@2HB DD 011H	; std::numeric_limits<double>::max_digits10
CONST	ENDS
;	COMDAT ?digits10@?$numeric_limits@N@std@@2HB
CONST	SEGMENT
?digits10@?$numeric_limits@N@std@@2HB DD 0fH		; std::numeric_limits<double>::digits10
CONST	ENDS
;	COMDAT ?digits@?$numeric_limits@N@std@@2HB
CONST	SEGMENT
?digits@?$numeric_limits@N@std@@2HB DD 035H		; std::numeric_limits<double>::digits
CONST	ENDS
;	COMDAT ?min_exponent10@?$numeric_limits@M@std@@2HB
CONST	SEGMENT
?min_exponent10@?$numeric_limits@M@std@@2HB DD 0ffffffdbH ; std::numeric_limits<float>::min_exponent10
CONST	ENDS
;	COMDAT ?min_exponent@?$numeric_limits@M@std@@2HB
CONST	SEGMENT
?min_exponent@?$numeric_limits@M@std@@2HB DD 0ffffff83H	; std::numeric_limits<float>::min_exponent
CONST	ENDS
;	COMDAT ?max_exponent10@?$numeric_limits@M@std@@2HB
CONST	SEGMENT
?max_exponent10@?$numeric_limits@M@std@@2HB DD 026H	; std::numeric_limits<float>::max_exponent10
CONST	ENDS
;	COMDAT ?max_exponent@?$numeric_limits@M@std@@2HB
CONST	SEGMENT
?max_exponent@?$numeric_limits@M@std@@2HB DD 080H	; std::numeric_limits<float>::max_exponent
CONST	ENDS
;	COMDAT ?max_digits10@?$numeric_limits@M@std@@2HB
CONST	SEGMENT
?max_digits10@?$numeric_limits@M@std@@2HB DD 08H	; std::numeric_limits<float>::max_digits10
CONST	ENDS
;	COMDAT ?digits10@?$numeric_limits@M@std@@2HB
CONST	SEGMENT
?digits10@?$numeric_limits@M@std@@2HB DD 06H		; std::numeric_limits<float>::digits10
CONST	ENDS
;	COMDAT ?digits@?$numeric_limits@M@std@@2HB
CONST	SEGMENT
?digits@?$numeric_limits@M@std@@2HB DD 018H		; std::numeric_limits<float>::digits
CONST	ENDS
;	COMDAT ?max_digits10@?$numeric_limits@_K@std@@2HB
CONST	SEGMENT
?max_digits10@?$numeric_limits@_K@std@@2HB DD 015H	; std::numeric_limits<unsigned __int64>::max_digits10
CONST	ENDS
;	COMDAT ?digits10@?$numeric_limits@_K@std@@2HB
CONST	SEGMENT
?digits10@?$numeric_limits@_K@std@@2HB DD 013H		; std::numeric_limits<unsigned __int64>::digits10
CONST	ENDS
;	COMDAT ?digits@?$numeric_limits@_K@std@@2HB
CONST	SEGMENT
?digits@?$numeric_limits@_K@std@@2HB DD 040H		; std::numeric_limits<unsigned __int64>::digits
CONST	ENDS
;	COMDAT ?is_signed@?$numeric_limits@_K@std@@2_NB
CONST	SEGMENT
?is_signed@?$numeric_limits@_K@std@@2_NB DB 00H		; std::numeric_limits<unsigned __int64>::is_signed
CONST	ENDS
;	COMDAT ?max_digits10@?$numeric_limits@_J@std@@2HB
CONST	SEGMENT
?max_digits10@?$numeric_limits@_J@std@@2HB DD 014H	; std::numeric_limits<__int64>::max_digits10
CONST	ENDS
;	COMDAT ?digits10@?$numeric_limits@_J@std@@2HB
CONST	SEGMENT
?digits10@?$numeric_limits@_J@std@@2HB DD 012H		; std::numeric_limits<__int64>::digits10
CONST	ENDS
;	COMDAT ?digits@?$numeric_limits@_J@std@@2HB
CONST	SEGMENT
?digits@?$numeric_limits@_J@std@@2HB DD 03fH		; std::numeric_limits<__int64>::digits
CONST	ENDS
;	COMDAT ?is_signed@?$numeric_limits@_J@std@@2_NB
CONST	SEGMENT
?is_signed@?$numeric_limits@_J@std@@2_NB DB 01H		; std::numeric_limits<__int64>::is_signed
CONST	ENDS
;	COMDAT ?max_digits10@?$numeric_limits@K@std@@2HB
CONST	SEGMENT
?max_digits10@?$numeric_limits@K@std@@2HB DD 0bH	; std::numeric_limits<unsigned long>::max_digits10
CONST	ENDS
;	COMDAT ?digits10@?$numeric_limits@K@std@@2HB
CONST	SEGMENT
?digits10@?$numeric_limits@K@std@@2HB DD 09H		; std::numeric_limits<unsigned long>::digits10
CONST	ENDS
;	COMDAT ?digits@?$numeric_limits@K@std@@2HB
CONST	SEGMENT
?digits@?$numeric_limits@K@std@@2HB DD 020H		; std::numeric_limits<unsigned long>::digits
CONST	ENDS
;	COMDAT ?is_signed@?$numeric_limits@K@std@@2_NB
CONST	SEGMENT
?is_signed@?$numeric_limits@K@std@@2_NB DB 00H		; std::numeric_limits<unsigned long>::is_signed
CONST	ENDS
;	COMDAT ?max_digits10@?$numeric_limits@J@std@@2HB
CONST	SEGMENT
?max_digits10@?$numeric_limits@J@std@@2HB DD 0bH	; std::numeric_limits<long>::max_digits10
CONST	ENDS
;	COMDAT ?digits10@?$numeric_limits@J@std@@2HB
CONST	SEGMENT
?digits10@?$numeric_limits@J@std@@2HB DD 09H		; std::numeric_limits<long>::digits10
CONST	ENDS
;	COMDAT ?digits@?$numeric_limits@J@std@@2HB
CONST	SEGMENT
?digits@?$numeric_limits@J@std@@2HB DD 01fH		; std::numeric_limits<long>::digits
CONST	ENDS
;	COMDAT ?is_signed@?$numeric_limits@J@std@@2_NB
CONST	SEGMENT
?is_signed@?$numeric_limits@J@std@@2_NB DB 01H		; std::numeric_limits<long>::is_signed
CONST	ENDS
;	COMDAT ?max_digits10@?$numeric_limits@I@std@@2HB
CONST	SEGMENT
?max_digits10@?$numeric_limits@I@std@@2HB DD 0bH	; std::numeric_limits<unsigned int>::max_digits10
CONST	ENDS
;	COMDAT ?digits10@?$numeric_limits@I@std@@2HB
CONST	SEGMENT
?digits10@?$numeric_limits@I@std@@2HB DD 09H		; std::numeric_limits<unsigned int>::digits10
CONST	ENDS
;	COMDAT ?digits@?$numeric_limits@I@std@@2HB
CONST	SEGMENT
?digits@?$numeric_limits@I@std@@2HB DD 020H		; std::numeric_limits<unsigned int>::digits
CONST	ENDS
;	COMDAT ?is_signed@?$numeric_limits@I@std@@2_NB
CONST	SEGMENT
?is_signed@?$numeric_limits@I@std@@2_NB DB 00H		; std::numeric_limits<unsigned int>::is_signed
CONST	ENDS
;	COMDAT ?max_digits10@?$numeric_limits@H@std@@2HB
CONST	SEGMENT
?max_digits10@?$numeric_limits@H@std@@2HB DD 0bH	; std::numeric_limits<int>::max_digits10
CONST	ENDS
;	COMDAT ?digits10@?$numeric_limits@H@std@@2HB
CONST	SEGMENT
?digits10@?$numeric_limits@H@std@@2HB DD 09H		; std::numeric_limits<int>::digits10
CONST	ENDS
;	COMDAT ?digits@?$numeric_limits@H@std@@2HB
CONST	SEGMENT
?digits@?$numeric_limits@H@std@@2HB DD 01fH		; std::numeric_limits<int>::digits
CONST	ENDS
;	COMDAT ?is_signed@?$numeric_limits@H@std@@2_NB
CONST	SEGMENT
?is_signed@?$numeric_limits@H@std@@2_NB DB 01H		; std::numeric_limits<int>::is_signed
CONST	ENDS
;	COMDAT ?max_digits10@?$numeric_limits@G@std@@2HB
CONST	SEGMENT
?max_digits10@?$numeric_limits@G@std@@2HB DD 06H	; std::numeric_limits<unsigned short>::max_digits10
CONST	ENDS
;	COMDAT ?digits10@?$numeric_limits@G@std@@2HB
CONST	SEGMENT
?digits10@?$numeric_limits@G@std@@2HB DD 04H		; std::numeric_limits<unsigned short>::digits10
CONST	ENDS
;	COMDAT ?digits@?$numeric_limits@G@std@@2HB
CONST	SEGMENT
?digits@?$numeric_limits@G@std@@2HB DD 010H		; std::numeric_limits<unsigned short>::digits
CONST	ENDS
;	COMDAT ?is_signed@?$numeric_limits@G@std@@2_NB
CONST	SEGMENT
?is_signed@?$numeric_limits@G@std@@2_NB DB 00H		; std::numeric_limits<unsigned short>::is_signed
CONST	ENDS
;	COMDAT ?max_digits10@?$numeric_limits@F@std@@2HB
CONST	SEGMENT
?max_digits10@?$numeric_limits@F@std@@2HB DD 06H	; std::numeric_limits<short>::max_digits10
CONST	ENDS
;	COMDAT ?digits10@?$numeric_limits@F@std@@2HB
CONST	SEGMENT
?digits10@?$numeric_limits@F@std@@2HB DD 04H		; std::numeric_limits<short>::digits10
CONST	ENDS
;	COMDAT ?digits@?$numeric_limits@F@std@@2HB
CONST	SEGMENT
?digits@?$numeric_limits@F@std@@2HB DD 0fH		; std::numeric_limits<short>::digits
CONST	ENDS
;	COMDAT ?is_signed@?$numeric_limits@F@std@@2_NB
CONST	SEGMENT
?is_signed@?$numeric_limits@F@std@@2_NB DB 01H		; std::numeric_limits<short>::is_signed
CONST	ENDS
;	COMDAT ?max_digits10@?$numeric_limits@E@std@@2HB
CONST	SEGMENT
?max_digits10@?$numeric_limits@E@std@@2HB DD 04H	; std::numeric_limits<unsigned char>::max_digits10
CONST	ENDS
;	COMDAT ?digits10@?$numeric_limits@E@std@@2HB
CONST	SEGMENT
?digits10@?$numeric_limits@E@std@@2HB DD 02H		; std::numeric_limits<unsigned char>::digits10
CONST	ENDS
;	COMDAT ?digits@?$numeric_limits@E@std@@2HB
CONST	SEGMENT
?digits@?$numeric_limits@E@std@@2HB DD 08H		; std::numeric_limits<unsigned char>::digits
CONST	ENDS
;	COMDAT ?is_signed@?$numeric_limits@E@std@@2_NB
CONST	SEGMENT
?is_signed@?$numeric_limits@E@std@@2_NB DB 00H		; std::numeric_limits<unsigned char>::is_signed
CONST	ENDS
;	COMDAT ?max_digits10@?$numeric_limits@C@std@@2HB
CONST	SEGMENT
?max_digits10@?$numeric_limits@C@std@@2HB DD 04H	; std::numeric_limits<signed char>::max_digits10
CONST	ENDS
;	COMDAT ?digits10@?$numeric_limits@C@std@@2HB
CONST	SEGMENT
?digits10@?$numeric_limits@C@std@@2HB DD 02H		; std::numeric_limits<signed char>::digits10
CONST	ENDS
;	COMDAT ?digits@?$numeric_limits@C@std@@2HB
CONST	SEGMENT
?digits@?$numeric_limits@C@std@@2HB DD 07H		; std::numeric_limits<signed char>::digits
CONST	ENDS
;	COMDAT ?is_signed@?$numeric_limits@C@std@@2_NB
CONST	SEGMENT
?is_signed@?$numeric_limits@C@std@@2_NB DB 01H		; std::numeric_limits<signed char>::is_signed
CONST	ENDS
;	COMDAT ?max_digits10@?$numeric_limits@_N@std@@2HB
CONST	SEGMENT
?max_digits10@?$numeric_limits@_N@std@@2HB DD 00H	; std::numeric_limits<bool>::max_digits10
CONST	ENDS
;	COMDAT ?digits10@?$numeric_limits@_N@std@@2HB
CONST	SEGMENT
?digits10@?$numeric_limits@_N@std@@2HB DD 00H		; std::numeric_limits<bool>::digits10
CONST	ENDS
;	COMDAT ?digits@?$numeric_limits@_N@std@@2HB
CONST	SEGMENT
?digits@?$numeric_limits@_N@std@@2HB DD 01H		; std::numeric_limits<bool>::digits
CONST	ENDS
;	COMDAT ?is_signed@?$numeric_limits@_N@std@@2_NB
CONST	SEGMENT
?is_signed@?$numeric_limits@_N@std@@2_NB DB 00H		; std::numeric_limits<bool>::is_signed
CONST	ENDS
;	COMDAT ?is_modulo@?$numeric_limits@_N@std@@2_NB
CONST	SEGMENT
?is_modulo@?$numeric_limits@_N@std@@2_NB DB 00H		; std::numeric_limits<bool>::is_modulo
CONST	ENDS
;	COMDAT ?max_digits10@?$numeric_limits@_W@std@@2HB
CONST	SEGMENT
?max_digits10@?$numeric_limits@_W@std@@2HB DD 06H	; std::numeric_limits<wchar_t>::max_digits10
CONST	ENDS
;	COMDAT ?digits10@?$numeric_limits@_W@std@@2HB
CONST	SEGMENT
?digits10@?$numeric_limits@_W@std@@2HB DD 04H		; std::numeric_limits<wchar_t>::digits10
CONST	ENDS
;	COMDAT ?digits@?$numeric_limits@_W@std@@2HB
CONST	SEGMENT
?digits@?$numeric_limits@_W@std@@2HB DD 010H		; std::numeric_limits<wchar_t>::digits
CONST	ENDS
;	COMDAT ?is_signed@?$numeric_limits@_W@std@@2_NB
CONST	SEGMENT
?is_signed@?$numeric_limits@_W@std@@2_NB DB 00H		; std::numeric_limits<wchar_t>::is_signed
CONST	ENDS
;	COMDAT ?max_digits10@?$numeric_limits@D@std@@2HB
CONST	SEGMENT
?max_digits10@?$numeric_limits@D@std@@2HB DD 04H	; std::numeric_limits<char>::max_digits10
CONST	ENDS
;	COMDAT ?digits10@?$numeric_limits@D@std@@2HB
CONST	SEGMENT
?digits10@?$numeric_limits@D@std@@2HB DD 02H		; std::numeric_limits<char>::digits10
CONST	ENDS
;	COMDAT ?digits@?$numeric_limits@D@std@@2HB
CONST	SEGMENT
?digits@?$numeric_limits@D@std@@2HB DD 07H		; std::numeric_limits<char>::digits
CONST	ENDS
;	COMDAT ?is_signed@?$numeric_limits@D@std@@2_NB
CONST	SEGMENT
?is_signed@?$numeric_limits@D@std@@2_NB DB 01H		; std::numeric_limits<char>::is_signed
CONST	ENDS
;	COMDAT ?radix@_Num_float_base@std@@2HB
CONST	SEGMENT
?radix@_Num_float_base@std@@2HB DD 02H			; std::_Num_float_base::radix
CONST	ENDS
;	COMDAT ?round_style@_Num_float_base@std@@2W4float_round_style@2@B
CONST	SEGMENT
?round_style@_Num_float_base@std@@2W4float_round_style@2@B DD 01H ; std::_Num_float_base::round_style
CONST	ENDS
;	COMDAT ?traps@_Num_float_base@std@@2_NB
CONST	SEGMENT
?traps@_Num_float_base@std@@2_NB DB 01H			; std::_Num_float_base::traps
CONST	ENDS
;	COMDAT ?tinyness_before@_Num_float_base@std@@2_NB
CONST	SEGMENT
?tinyness_before@_Num_float_base@std@@2_NB DB 01H	; std::_Num_float_base::tinyness_before
CONST	ENDS
;	COMDAT ?is_specialized@_Num_float_base@std@@2_NB
CONST	SEGMENT
?is_specialized@_Num_float_base@std@@2_NB DB 01H	; std::_Num_float_base::is_specialized
CONST	ENDS
;	COMDAT ?is_signed@_Num_float_base@std@@2_NB
CONST	SEGMENT
?is_signed@_Num_float_base@std@@2_NB DB 01H		; std::_Num_float_base::is_signed
CONST	ENDS
;	COMDAT ?is_modulo@_Num_float_base@std@@2_NB
CONST	SEGMENT
?is_modulo@_Num_float_base@std@@2_NB DB 00H		; std::_Num_float_base::is_modulo
CONST	ENDS
;	COMDAT ?is_integer@_Num_float_base@std@@2_NB
CONST	SEGMENT
?is_integer@_Num_float_base@std@@2_NB DB 00H		; std::_Num_float_base::is_integer
CONST	ENDS
;	COMDAT ?is_iec559@_Num_float_base@std@@2_NB
CONST	SEGMENT
?is_iec559@_Num_float_base@std@@2_NB DB 01H		; std::_Num_float_base::is_iec559
CONST	ENDS
;	COMDAT ?is_exact@_Num_float_base@std@@2_NB
CONST	SEGMENT
?is_exact@_Num_float_base@std@@2_NB DB 00H		; std::_Num_float_base::is_exact
CONST	ENDS
;	COMDAT ?is_bounded@_Num_float_base@std@@2_NB
CONST	SEGMENT
?is_bounded@_Num_float_base@std@@2_NB DB 01H		; std::_Num_float_base::is_bounded
CONST	ENDS
;	COMDAT ?has_signaling_NaN@_Num_float_base@std@@2_NB
CONST	SEGMENT
?has_signaling_NaN@_Num_float_base@std@@2_NB DB 01H	; std::_Num_float_base::has_signaling_NaN
CONST	ENDS
;	COMDAT ?has_quiet_NaN@_Num_float_base@std@@2_NB
CONST	SEGMENT
?has_quiet_NaN@_Num_float_base@std@@2_NB DB 01H		; std::_Num_float_base::has_quiet_NaN
CONST	ENDS
;	COMDAT ?has_infinity@_Num_float_base@std@@2_NB
CONST	SEGMENT
?has_infinity@_Num_float_base@std@@2_NB DB 01H		; std::_Num_float_base::has_infinity
CONST	ENDS
;	COMDAT ?has_denorm_loss@_Num_float_base@std@@2_NB
CONST	SEGMENT
?has_denorm_loss@_Num_float_base@std@@2_NB DB 01H	; std::_Num_float_base::has_denorm_loss
CONST	ENDS
;	COMDAT ?has_denorm@_Num_float_base@std@@2W4float_denorm_style@2@B
CONST	SEGMENT
?has_denorm@_Num_float_base@std@@2W4float_denorm_style@2@B DD 01H ; std::_Num_float_base::has_denorm
CONST	ENDS
;	COMDAT ?radix@_Num_int_base@std@@2HB
CONST	SEGMENT
?radix@_Num_int_base@std@@2HB DD 02H			; std::_Num_int_base::radix
CONST	ENDS
;	COMDAT ?is_specialized@_Num_int_base@std@@2_NB
CONST	SEGMENT
?is_specialized@_Num_int_base@std@@2_NB DB 01H		; std::_Num_int_base::is_specialized
CONST	ENDS
;	COMDAT ?is_modulo@_Num_int_base@std@@2_NB
CONST	SEGMENT
?is_modulo@_Num_int_base@std@@2_NB DB 01H		; std::_Num_int_base::is_modulo
CONST	ENDS
;	COMDAT ?is_integer@_Num_int_base@std@@2_NB
CONST	SEGMENT
?is_integer@_Num_int_base@std@@2_NB DB 01H		; std::_Num_int_base::is_integer
CONST	ENDS
;	COMDAT ?is_exact@_Num_int_base@std@@2_NB
CONST	SEGMENT
?is_exact@_Num_int_base@std@@2_NB DB 01H		; std::_Num_int_base::is_exact
CONST	ENDS
;	COMDAT ?is_bounded@_Num_int_base@std@@2_NB
CONST	SEGMENT
?is_bounded@_Num_int_base@std@@2_NB DB 01H		; std::_Num_int_base::is_bounded
CONST	ENDS
;	COMDAT ?radix@_Num_base@std@@2HB
CONST	SEGMENT
?radix@_Num_base@std@@2HB DD 00H			; std::_Num_base::radix
CONST	ENDS
;	COMDAT ?min_exponent10@_Num_base@std@@2HB
CONST	SEGMENT
?min_exponent10@_Num_base@std@@2HB DD 00H		; std::_Num_base::min_exponent10
CONST	ENDS
;	COMDAT ?min_exponent@_Num_base@std@@2HB
CONST	SEGMENT
?min_exponent@_Num_base@std@@2HB DD 00H			; std::_Num_base::min_exponent
CONST	ENDS
;	COMDAT ?max_exponent10@_Num_base@std@@2HB
CONST	SEGMENT
?max_exponent10@_Num_base@std@@2HB DD 00H		; std::_Num_base::max_exponent10
CONST	ENDS
;	COMDAT ?max_exponent@_Num_base@std@@2HB
CONST	SEGMENT
?max_exponent@_Num_base@std@@2HB DD 00H			; std::_Num_base::max_exponent
CONST	ENDS
;	COMDAT ?max_digits10@_Num_base@std@@2HB
CONST	SEGMENT
?max_digits10@_Num_base@std@@2HB DD 00H			; std::_Num_base::max_digits10
CONST	ENDS
;	COMDAT ?digits10@_Num_base@std@@2HB
CONST	SEGMENT
?digits10@_Num_base@std@@2HB DD 00H			; std::_Num_base::digits10
CONST	ENDS
;	COMDAT ?digits@_Num_base@std@@2HB
CONST	SEGMENT
?digits@_Num_base@std@@2HB DD 00H			; std::_Num_base::digits
CONST	ENDS
;	COMDAT ?round_style@_Num_base@std@@2W4float_round_style@2@B
CONST	SEGMENT
?round_style@_Num_base@std@@2W4float_round_style@2@B DD 00H ; std::_Num_base::round_style
CONST	ENDS
;	COMDAT ?traps@_Num_base@std@@2_NB
CONST	SEGMENT
?traps@_Num_base@std@@2_NB DB 00H			; std::_Num_base::traps
CONST	ENDS
;	COMDAT ?tinyness_before@_Num_base@std@@2_NB
CONST	SEGMENT
?tinyness_before@_Num_base@std@@2_NB DB 00H		; std::_Num_base::tinyness_before
CONST	ENDS
;	COMDAT ?is_specialized@_Num_base@std@@2_NB
CONST	SEGMENT
?is_specialized@_Num_base@std@@2_NB DB 00H		; std::_Num_base::is_specialized
CONST	ENDS
;	COMDAT ?is_signed@_Num_base@std@@2_NB
CONST	SEGMENT
?is_signed@_Num_base@std@@2_NB DB 00H			; std::_Num_base::is_signed
CONST	ENDS
;	COMDAT ?is_modulo@_Num_base@std@@2_NB
CONST	SEGMENT
?is_modulo@_Num_base@std@@2_NB DB 00H			; std::_Num_base::is_modulo
CONST	ENDS
;	COMDAT ?is_integer@_Num_base@std@@2_NB
CONST	SEGMENT
?is_integer@_Num_base@std@@2_NB DB 00H			; std::_Num_base::is_integer
CONST	ENDS
;	COMDAT ?is_iec559@_Num_base@std@@2_NB
CONST	SEGMENT
?is_iec559@_Num_base@std@@2_NB DB 00H			; std::_Num_base::is_iec559
CONST	ENDS
;	COMDAT ?is_exact@_Num_base@std@@2_NB
CONST	SEGMENT
?is_exact@_Num_base@std@@2_NB DB 00H			; std::_Num_base::is_exact
CONST	ENDS
;	COMDAT ?is_bounded@_Num_base@std@@2_NB
CONST	SEGMENT
?is_bounded@_Num_base@std@@2_NB DB 00H			; std::_Num_base::is_bounded
CONST	ENDS
;	COMDAT ?has_signaling_NaN@_Num_base@std@@2_NB
CONST	SEGMENT
?has_signaling_NaN@_Num_base@std@@2_NB DB 00H		; std::_Num_base::has_signaling_NaN
CONST	ENDS
;	COMDAT ?has_quiet_NaN@_Num_base@std@@2_NB
CONST	SEGMENT
?has_quiet_NaN@_Num_base@std@@2_NB DB 00H		; std::_Num_base::has_quiet_NaN
CONST	ENDS
;	COMDAT ?has_infinity@_Num_base@std@@2_NB
CONST	SEGMENT
?has_infinity@_Num_base@std@@2_NB DB 00H		; std::_Num_base::has_infinity
CONST	ENDS
;	COMDAT ?has_denorm_loss@_Num_base@std@@2_NB
CONST	SEGMENT
?has_denorm_loss@_Num_base@std@@2_NB DB 00H		; std::_Num_base::has_denorm_loss
CONST	ENDS
;	COMDAT ?has_denorm@_Num_base@std@@2W4float_denorm_style@2@B
CONST	SEGMENT
?has_denorm@_Num_base@std@@2W4float_denorm_style@2@B DD 00H ; std::_Num_base::has_denorm
CONST	ENDS
PUBLIC	??$Clamp@NHH@@YAXAANABH1@Z			; Clamp<double,int,int>
PUBLIC	__real@3fc3333333333333
PUBLIC	__real@0000000000000000
PUBLIC	__real@3ff0000000000000
PUBLIC	?CalculateDesirability@GetWeaponGoal_Evaluator@@UAENPAVAbstRaven_Bot@@@Z ; GetWeaponGoal_Evaluator::CalculateDesirability
EXTRN	?IndividualWeaponStrength@Raven_Feature@@SANPAVAbstRaven_Bot@@H@Z:PROC ; Raven_Feature::IndividualWeaponStrength
EXTRN	?Health@Raven_Feature@@SANPAVAbstRaven_Bot@@@Z:PROC ; Raven_Feature::Health
EXTRN	?DistanceToItem@Raven_Feature@@SANPAVAbstRaven_Bot@@H@Z:PROC ; Raven_Feature::DistanceToItem
EXTRN	__fltused:DWORD
EXTRN	__RTC_CheckEsp:PROC
EXTRN	@_RTC_CheckStackVars@8:PROC
EXTRN	__RTC_Shutdown:PROC
EXTRN	__RTC_InitBase:PROC
;	COMDAT __real@3fc3333333333333
; File c:\users\teaja\documents\artificial-fun\labravenprojecttest\raven\goals\getweapongoal_evaluator.cpp
CONST	SEGMENT
__real@3fc3333333333333 DQ 03fc3333333333333r	; 0.15
CONST	ENDS
;	COMDAT __real@0000000000000000
CONST	SEGMENT
__real@0000000000000000 DQ 00000000000000000r	; 0
CONST	ENDS
;	COMDAT __real@3ff0000000000000
CONST	SEGMENT
__real@3ff0000000000000 DQ 03ff0000000000000r	; 1
CONST	ENDS
;	COMDAT rtc$TMZ
rtc$TMZ	SEGMENT
__RTC_Shutdown.rtc$TMZ DD FLAT:__RTC_Shutdown
rtc$TMZ	ENDS
;	COMDAT rtc$IMZ
rtc$IMZ	SEGMENT
__RTC_InitBase.rtc$IMZ DD FLAT:__RTC_InitBase
; Function compile flags: /Odtp /RTCsu
rtc$IMZ	ENDS
_TEXT	SEGMENT
$T146879 = -60						; size = 4
$T146878 = -56						; size = 4
_Desirability$137007 = -48				; size = 8
_WeaponStrength$137006 = -36				; size = 8
_Health$137005 = -28					; size = 8
_Tweaker$137004 = -20					; size = 8
_Distance$ = -12					; size = 8
_this$ = -4						; size = 4
_pBot$ = 8						; size = 4
?CalculateDesirability@GetWeaponGoal_Evaluator@@UAENPAVAbstRaven_Bot@@@Z PROC ; GetWeaponGoal_Evaluator::CalculateDesirability
; _this$ = ecx

; 18   : {

	push	ebp
	mov	ebp, esp
	sub	esp, 60					; 0000003cH
	push	edi
	push	ecx
	lea	edi, DWORD PTR [ebp-60]
	mov	ecx, 15					; 0000000fH
	mov	eax, -858993460				; ccccccccH
	rep stosd
	pop	ecx
	mov	DWORD PTR _this$[ebp], ecx

; 19   :   //grab the distance to the closest instance of the weapon type
; 20   :   double Distance = Raven_Feature::DistanceToItem(pBot, m_iWeaponType);

	mov	eax, DWORD PTR _this$[ebp]
	mov	ecx, DWORD PTR [eax+16]
	push	ecx
	mov	edx, DWORD PTR _pBot$[ebp]
	push	edx
	call	?DistanceToItem@Raven_Feature@@SANPAVAbstRaven_Bot@@H@Z ; Raven_Feature::DistanceToItem
	add	esp, 8
	fstp	QWORD PTR _Distance$[ebp]

; 21   : 
; 22   :   //if the distance feature is rated with a value of 1 it means that the
; 23   :   //item is either not present on the map or too far away to be worth 
; 24   :   //considering, therefore the desirability is zero
; 25   :   if (Distance == 1)

	fld	QWORD PTR _Distance$[ebp]
	fld1
	fucompp
	fnstsw	ax
	test	ah, 68					; 00000044H
	jp	SHORT $LN2@CalculateD

; 26   :   {
; 27   :     return 0;

	fldz
	jmp	SHORT $LN1@CalculateD

; 28   :   }
; 29   :   else

	jmp	SHORT $LN1@CalculateD
$LN2@CalculateD:

; 30   :   {
; 31   :     //value used to tweak the desirability
; 32   :     const double Tweaker = 0.15;

	fld	QWORD PTR __real@3fc3333333333333
	fstp	QWORD PTR _Tweaker$137004[ebp]

; 33   : 
; 34   :     double Health, WeaponStrength;
; 35   : 
; 36   :     Health = Raven_Feature::Health(pBot);

	mov	eax, DWORD PTR _pBot$[ebp]
	push	eax
	call	?Health@Raven_Feature@@SANPAVAbstRaven_Bot@@@Z ; Raven_Feature::Health
	add	esp, 4
	fstp	QWORD PTR _Health$137005[ebp]

; 37   : 
; 38   :     WeaponStrength = Raven_Feature::IndividualWeaponStrength(pBot,
; 39   :                                                              m_iWeaponType);

	mov	ecx, DWORD PTR _this$[ebp]
	mov	edx, DWORD PTR [ecx+16]
	push	edx
	mov	eax, DWORD PTR _pBot$[ebp]
	push	eax
	call	?IndividualWeaponStrength@Raven_Feature@@SANPAVAbstRaven_Bot@@H@Z ; Raven_Feature::IndividualWeaponStrength
	add	esp, 8
	fstp	QWORD PTR _WeaponStrength$137006[ebp]

; 40   :     
; 41   :     double Desirability = (Tweaker * Health * (1-WeaponStrength)) / Distance;

	fld	QWORD PTR _Tweaker$137004[ebp]
	fmul	QWORD PTR _Health$137005[ebp]
	fld1
	fsub	QWORD PTR _WeaponStrength$137006[ebp]
	fmulp	ST(1), ST(0)
	fdiv	QWORD PTR _Distance$[ebp]
	fstp	QWORD PTR _Desirability$137007[ebp]

; 42   : 
; 43   :     //ensure the value is in the range 0 to 1
; 44   :     Clamp(Desirability, 0, 1);

	mov	DWORD PTR $T146878[ebp], 1
	mov	DWORD PTR $T146879[ebp], 0
	lea	ecx, DWORD PTR $T146878[ebp]
	push	ecx
	lea	edx, DWORD PTR $T146879[ebp]
	push	edx
	lea	eax, DWORD PTR _Desirability$137007[ebp]
	push	eax
	call	??$Clamp@NHH@@YAXAANABH1@Z		; Clamp<double,int,int>
	add	esp, 12					; 0000000cH

; 45   : 
; 46   :     Desirability *= m_dCharacterBias;

	mov	ecx, DWORD PTR _this$[ebp]
	fld	QWORD PTR _Desirability$137007[ebp]
	fmul	QWORD PTR [ecx+8]
	fstp	QWORD PTR _Desirability$137007[ebp]

; 47   : 
; 48   :     return Desirability;

	fld	QWORD PTR _Desirability$137007[ebp]
$LN1@CalculateD:

; 49   :   }
; 50   : }

	push	edx
	mov	ecx, ebp
	push	eax
	lea	edx, DWORD PTR $LN7@CalculateD
	call	@_RTC_CheckStackVars@8
	pop	eax
	pop	edx
	pop	edi
	add	esp, 60					; 0000003cH
	cmp	ebp, esp
	call	__RTC_CheckEsp
	mov	esp, ebp
	pop	ebp
	ret	4
	npad	3
$LN7@CalculateD:
	DD	1
	DD	$LN6@CalculateD
$LN6@CalculateD:
	DD	-48					; ffffffd0H
	DD	8
	DD	$LN5@CalculateD
$LN5@CalculateD:
	DB	68					; 00000044H
	DB	101					; 00000065H
	DB	115					; 00000073H
	DB	105					; 00000069H
	DB	114					; 00000072H
	DB	97					; 00000061H
	DB	98					; 00000062H
	DB	105					; 00000069H
	DB	108					; 0000006cH
	DB	105					; 00000069H
	DB	116					; 00000074H
	DB	121					; 00000079H
	DB	0
?CalculateDesirability@GetWeaponGoal_Evaluator@@UAENPAVAbstRaven_Bot@@@Z ENDP ; GetWeaponGoal_Evaluator::CalculateDesirability
_TEXT	ENDS
PUBLIC	?GetBrain@AbstRaven_Bot@@QAEQAVGoal_Think@@XZ	; AbstRaven_Bot::GetBrain
PUBLIC	?SetGoal@GetWeaponGoal_Evaluator@@UAEXPAVAbstRaven_Bot@@@Z ; GetWeaponGoal_Evaluator::SetGoal
; Function compile flags: /Odtp /RTCsu
_TEXT	SEGMENT
tv67 = -8						; size = 4
_this$ = -4						; size = 4
_pBot$ = 8						; size = 4
?SetGoal@GetWeaponGoal_Evaluator@@UAEXPAVAbstRaven_Bot@@@Z PROC ; GetWeaponGoal_Evaluator::SetGoal
; _this$ = ecx

; 56   : {

	push	ebp
	mov	ebp, esp
	sub	esp, 8
	push	esi
	mov	DWORD PTR [ebp-8], -858993460		; ccccccccH
	mov	DWORD PTR [ebp-4], -858993460		; ccccccccH
	mov	DWORD PTR _this$[ebp], ecx

; 57   :   pBot->GetBrain()->AddGoal_GetItem(m_iWeaponType); 

	mov	ecx, DWORD PTR _pBot$[ebp]
	call	?GetBrain@AbstRaven_Bot@@QAEQAVGoal_Think@@XZ ; AbstRaven_Bot::GetBrain
	mov	DWORD PTR tv67[ebp], eax
	mov	esi, esp
	mov	eax, DWORD PTR _this$[ebp]
	mov	ecx, DWORD PTR [eax+16]
	push	ecx
	mov	edx, DWORD PTR tv67[ebp]
	mov	eax, DWORD PTR [edx]
	mov	ecx, DWORD PTR tv67[ebp]
	mov	edx, DWORD PTR [eax+40]
	call	edx
	cmp	esi, esp
	call	__RTC_CheckEsp

; 58   : }

	pop	esi
	add	esp, 8
	cmp	ebp, esp
	call	__RTC_CheckEsp
	mov	esp, ebp
	pop	ebp
	ret	4
?SetGoal@GetWeaponGoal_Evaluator@@UAEXPAVAbstRaven_Bot@@@Z ENDP ; GetWeaponGoal_Evaluator::SetGoal
; Function compile flags: /Odtp /RTCsu
; File c:\users\teaja\documents\artificial-fun\labravenprojecttest\raven\abstraven_bot.h
_TEXT	ENDS
;	COMDAT ?GetBrain@AbstRaven_Bot@@QAEQAVGoal_Think@@XZ
_TEXT	SEGMENT
_this$ = -4						; size = 4
?GetBrain@AbstRaven_Bot@@QAEQAVGoal_Think@@XZ PROC	; AbstRaven_Bot::GetBrain, COMDAT
; _this$ = ecx

; 220  :   Goal_Think* const                  GetBrain(){return m_pBrain;}

	push	ebp
	mov	ebp, esp
	push	ecx
	mov	DWORD PTR [ebp-4], -858993460		; ccccccccH
	mov	DWORD PTR _this$[ebp], ecx
	mov	eax, DWORD PTR _this$[ebp]
	mov	eax, DWORD PTR [eax+160]
	mov	esp, ebp
	pop	ebp
	ret	0
?GetBrain@AbstRaven_Bot@@QAEQAVGoal_Think@@XZ ENDP	; AbstRaven_Bot::GetBrain
_TEXT	ENDS
PUBLIC	??1?$basic_string@DU?$char_traits@D@std@@V?$allocator@D@2@@std@@QAE@XZ ; std::basic_string<char,std::char_traits<char>,std::allocator<char> >::~basic_string<char,std::char_traits<char>,std::allocator<char> >
PUBLIC	?TextAtPos@Cgdi@@QAEXUVector2D@@ABV?$basic_string@DU?$char_traits@D@std@@V?$allocator@D@2@@std@@@Z ; Cgdi::TextAtPos
PUBLIC	??$?HDU?$char_traits@D@std@@V?$allocator@D@1@@std@@YA?AV?$basic_string@DU?$char_traits@D@std@@V?$allocator@D@2@@0@ABV10@$$QAV10@@Z ; std::operator+<char,std::char_traits<char>,std::allocator<char> >
PUBLIC	??$ttos@N@@YA?AV?$basic_string@DU?$char_traits@D@std@@V?$allocator@D@2@@std@@ABNH@Z ; ttos<double>
PUBLIC	??4?$basic_string@DU?$char_traits@D@std@@V?$allocator@D@2@@std@@QAEAAV01@PBD@Z ; std::basic_string<char,std::char_traits<char>,std::allocator<char> >::operator=
PUBLIC	??0?$basic_string@DU?$char_traits@D@std@@V?$allocator@D@2@@std@@QAE@XZ ; std::basic_string<char,std::char_traits<char>,std::allocator<char> >::basic_string<char,std::char_traits<char>,std::allocator<char> >
PUBLIC	__$ArrayPad$
PUBLIC	?RenderInfo@GetWeaponGoal_Evaluator@@UAEXUVector2D@@PAVAbstRaven_Bot@@@Z ; GetWeaponGoal_Evaluator::RenderInfo
EXTRN	?Instance@Cgdi@@SAPAV1@XZ:PROC			; Cgdi::Instance
EXTRN	___security_cookie:DWORD
EXTRN	___CxxFrameHandler3:PROC
EXTRN	@__security_check_cookie@4:PROC
xdata$x	SEGMENT
__unwindtable$?RenderInfo@GetWeaponGoal_Evaluator@@UAEXUVector2D@@PAVAbstRaven_Bot@@@Z DD 0ffffffffH
	DD	FLAT:__unwindfunclet$?RenderInfo@GetWeaponGoal_Evaluator@@UAEXUVector2D@@PAVAbstRaven_Bot@@@Z$0
	DD	00H
	DD	FLAT:__unwindfunclet$?RenderInfo@GetWeaponGoal_Evaluator@@UAEXUVector2D@@PAVAbstRaven_Bot@@@Z$1
	DD	01H
	DD	FLAT:__unwindfunclet$?RenderInfo@GetWeaponGoal_Evaluator@@UAEXUVector2D@@PAVAbstRaven_Bot@@@Z$2
__ehfuncinfo$?RenderInfo@GetWeaponGoal_Evaluator@@UAEXUVector2D@@PAVAbstRaven_Bot@@@Z DD 019930522H
	DD	03H
	DD	FLAT:__unwindtable$?RenderInfo@GetWeaponGoal_Evaluator@@UAEXUVector2D@@PAVAbstRaven_Bot@@@Z
	DD	2 DUP(00H)
	DD	2 DUP(00H)
	DD	00H
	DD	01H
; Function compile flags: /Odtp /RTCsu
; File c:\users\teaja\documents\artificial-fun\labravenprojecttest\raven\goals\getweapongoal_evaluator.cpp
xdata$x	ENDS
_TEXT	SEGMENT
tv139 = -152						; size = 4
tv140 = -148						; size = 4
tv137 = -144						; size = 4
tv65 = -140						; size = 4
tv68 = -136						; size = 4
$T146903 = -132						; size = 8
$T137101 = -124						; size = 32
$T137036 = -92						; size = 32
_s$ = -56						; size = 32
_this$ = -20						; size = 4
__$ArrayPad$ = -16					; size = 4
__$EHRec$ = -12						; size = 12
_Position$ = 8						; size = 16
_pBot$ = 24						; size = 4
?RenderInfo@GetWeaponGoal_Evaluator@@UAEXUVector2D@@PAVAbstRaven_Bot@@@Z PROC ; GetWeaponGoal_Evaluator::RenderInfo
; _this$ = ecx

; 63   : {

	push	ebp
	mov	ebp, esp
	push	-1
	push	__ehhandler$?RenderInfo@GetWeaponGoal_Evaluator@@UAEXUVector2D@@PAVAbstRaven_Bot@@@Z
	mov	eax, DWORD PTR fs:0
	push	eax
	sub	esp, 140				; 0000008cH
	push	esi
	push	edi
	push	ecx
	lea	edi, DWORD PTR [ebp-152]
	mov	ecx, 35					; 00000023H
	mov	eax, -858993460				; ccccccccH
	rep stosd
	pop	ecx
	mov	eax, DWORD PTR ___security_cookie
	xor	eax, ebp
	mov	DWORD PTR __$ArrayPad$[ebp], eax
	push	eax
	lea	eax, DWORD PTR __$EHRec$[ebp]
	mov	DWORD PTR fs:0, eax
	mov	DWORD PTR _this$[ebp], ecx

; 64   :   std::string s;

	lea	ecx, DWORD PTR _s$[ebp]
	call	??0?$basic_string@DU?$char_traits@D@std@@V?$allocator@D@2@@std@@QAE@XZ ; std::basic_string<char,std::char_traits<char>,std::allocator<char> >::basic_string<char,std::char_traits<char>,std::allocator<char> >
	mov	DWORD PTR __$EHRec$[ebp+8], 0

; 65   :   switch(m_iWeaponType)

	mov	eax, DWORD PTR _this$[ebp]
	mov	ecx, DWORD PTR [eax+16]
	mov	DWORD PTR tv68[ebp], ecx
	cmp	DWORD PTR tv68[ebp], 6
	je	SHORT $LN3@RenderInfo
	cmp	DWORD PTR tv68[ebp], 7
	je	SHORT $LN2@RenderInfo
	cmp	DWORD PTR tv68[ebp], 8
	je	SHORT $LN1@RenderInfo
	jmp	SHORT $LN4@RenderInfo
$LN3@RenderInfo:

; 66   :   {
; 67   :   case type_rail_gun:
; 68   :     s="RG: ";break;

	push	OFFSET $SG137025
	lea	ecx, DWORD PTR _s$[ebp]
	call	??4?$basic_string@DU?$char_traits@D@std@@V?$allocator@D@2@@std@@QAEAAV01@PBD@Z ; std::basic_string<char,std::char_traits<char>,std::allocator<char> >::operator=
	jmp	SHORT $LN4@RenderInfo
$LN2@RenderInfo:

; 69   :   case type_rocket_launcher:
; 70   :     s="RL: "; break;

	push	OFFSET $SG137027
	lea	ecx, DWORD PTR _s$[ebp]
	call	??4?$basic_string@DU?$char_traits@D@std@@V?$allocator@D@2@@std@@QAEAAV01@PBD@Z ; std::basic_string<char,std::char_traits<char>,std::allocator<char> >::operator=
	jmp	SHORT $LN4@RenderInfo
$LN1@RenderInfo:

; 71   :   case type_shotgun:
; 72   :     s="SG: "; break;

	push	OFFSET $SG137029
	lea	ecx, DWORD PTR _s$[ebp]
	call	??4?$basic_string@DU?$char_traits@D@std@@V?$allocator@D@2@@std@@QAEAAV01@PBD@Z ; std::basic_string<char,std::char_traits<char>,std::allocator<char> >::operator=
$LN4@RenderInfo:

; 73   :   }
; 74   :   
; 75   :   gdi->TextAtPos(Position, s + ttos(CalculateDesirability(pBot), 2));

	mov	esi, esp
	mov	edx, DWORD PTR _pBot$[ebp]
	push	edx
	mov	eax, DWORD PTR _this$[ebp]
	mov	edx, DWORD PTR [eax]
	mov	ecx, DWORD PTR _this$[ebp]
	mov	eax, DWORD PTR [edx+4]
	call	eax
	cmp	esi, esp
	call	__RTC_CheckEsp
	fstp	QWORD PTR $T146903[ebp]
	push	2
	lea	ecx, DWORD PTR $T146903[ebp]
	push	ecx
	lea	edx, DWORD PTR $T137036[ebp]
	push	edx
	call	??$ttos@N@@YA?AV?$basic_string@DU?$char_traits@D@std@@V?$allocator@D@2@@std@@ABNH@Z ; ttos<double>
	add	esp, 12					; 0000000cH
	mov	DWORD PTR tv65[ebp], eax
	mov	eax, DWORD PTR tv65[ebp]
	mov	DWORD PTR tv137[ebp], eax
	mov	BYTE PTR __$EHRec$[ebp+8], 1
	mov	ecx, DWORD PTR tv137[ebp]
	push	ecx
	lea	edx, DWORD PTR _s$[ebp]
	push	edx
	lea	eax, DWORD PTR $T137101[ebp]
	push	eax
	call	??$?HDU?$char_traits@D@std@@V?$allocator@D@1@@std@@YA?AV?$basic_string@DU?$char_traits@D@std@@V?$allocator@D@2@@0@ABV10@$$QAV10@@Z ; std::operator+<char,std::char_traits<char>,std::allocator<char> >
	add	esp, 12					; 0000000cH
	mov	DWORD PTR tv140[ebp], eax
	mov	ecx, DWORD PTR tv140[ebp]
	mov	DWORD PTR tv139[ebp], ecx
	mov	BYTE PTR __$EHRec$[ebp+8], 2
	mov	edx, DWORD PTR tv139[ebp]
	push	edx
	sub	esp, 16					; 00000010H
	mov	eax, esp
	mov	ecx, DWORD PTR _Position$[ebp]
	mov	DWORD PTR [eax], ecx
	mov	edx, DWORD PTR _Position$[ebp+4]
	mov	DWORD PTR [eax+4], edx
	mov	ecx, DWORD PTR _Position$[ebp+8]
	mov	DWORD PTR [eax+8], ecx
	mov	edx, DWORD PTR _Position$[ebp+12]
	mov	DWORD PTR [eax+12], edx
	call	?Instance@Cgdi@@SAPAV1@XZ		; Cgdi::Instance
	mov	ecx, eax
	call	?TextAtPos@Cgdi@@QAEXUVector2D@@ABV?$basic_string@DU?$char_traits@D@std@@V?$allocator@D@2@@std@@@Z ; Cgdi::TextAtPos
	mov	BYTE PTR __$EHRec$[ebp+8], 1
	lea	ecx, DWORD PTR $T137101[ebp]
	call	??1?$basic_string@DU?$char_traits@D@std@@V?$allocator@D@2@@std@@QAE@XZ ; std::basic_string<char,std::char_traits<char>,std::allocator<char> >::~basic_string<char,std::char_traits<char>,std::allocator<char> >
	mov	BYTE PTR __$EHRec$[ebp+8], 0
	lea	ecx, DWORD PTR $T137036[ebp]
	call	??1?$basic_string@DU?$char_traits@D@std@@V?$allocator@D@2@@std@@QAE@XZ ; std::basic_string<char,std::char_traits<char>,std::allocator<char> >::~basic_string<char,std::char_traits<char>,std::allocator<char> >

; 76   : }

	mov	DWORD PTR __$EHRec$[ebp+8], -1
	lea	ecx, DWORD PTR _s$[ebp]
	call	??1?$basic_string@DU?$char_traits@D@std@@V?$allocator@D@2@@std@@QAE@XZ ; std::basic_string<char,std::char_traits<char>,std::allocator<char> >::~basic_string<char,std::char_traits<char>,std::allocator<char> >
	push	edx
	mov	ecx, ebp
	push	eax
	lea	edx, DWORD PTR $LN14@RenderInfo
	call	@_RTC_CheckStackVars@8
	pop	eax
	pop	edx
	mov	ecx, DWORD PTR __$EHRec$[ebp]
	mov	DWORD PTR fs:0, ecx
	pop	ecx
	pop	edi
	pop	esi
	mov	ecx, DWORD PTR __$ArrayPad$[ebp]
	xor	ecx, ebp
	call	@__security_check_cookie@4
	add	esp, 152				; 00000098H
	cmp	ebp, esp
	call	__RTC_CheckEsp
	mov	esp, ebp
	pop	ebp
	ret	20					; 00000014H
$LN14@RenderInfo:
	DD	1
	DD	$LN13@RenderInfo
$LN13@RenderInfo:
	DD	-56					; ffffffc8H
	DD	32					; 00000020H
	DD	$LN11@RenderInfo
$LN11@RenderInfo:
	DB	115					; 00000073H
	DB	0
_TEXT	ENDS
text$x	SEGMENT
__unwindfunclet$?RenderInfo@GetWeaponGoal_Evaluator@@UAEXUVector2D@@PAVAbstRaven_Bot@@@Z$0:
	lea	ecx, DWORD PTR _s$[ebp]
	jmp	??1?$basic_string@DU?$char_traits@D@std@@V?$allocator@D@2@@std@@QAE@XZ ; std::basic_string<char,std::char_traits<char>,std::allocator<char> >::~basic_string<char,std::char_traits<char>,std::allocator<char> >
__unwindfunclet$?RenderInfo@GetWeaponGoal_Evaluator@@UAEXUVector2D@@PAVAbstRaven_Bot@@@Z$1:
	lea	ecx, DWORD PTR $T137036[ebp]
	jmp	??1?$basic_string@DU?$char_traits@D@std@@V?$allocator@D@2@@std@@QAE@XZ ; std::basic_string<char,std::char_traits<char>,std::allocator<char> >::~basic_string<char,std::char_traits<char>,std::allocator<char> >
__unwindfunclet$?RenderInfo@GetWeaponGoal_Evaluator@@UAEXUVector2D@@PAVAbstRaven_Bot@@@Z$2:
	lea	ecx, DWORD PTR $T137101[ebp]
	jmp	??1?$basic_string@DU?$char_traits@D@std@@V?$allocator@D@2@@std@@QAE@XZ ; std::basic_string<char,std::char_traits<char>,std::allocator<char> >::~basic_string<char,std::char_traits<char>,std::allocator<char> >
__ehhandler$?RenderInfo@GetWeaponGoal_Evaluator@@UAEXUVector2D@@PAVAbstRaven_Bot@@@Z:
	mov	edx, DWORD PTR [esp+8]
	lea	eax, DWORD PTR [edx+12]
	mov	ecx, DWORD PTR [edx-152]
	xor	ecx, eax
	call	@__security_check_cookie@4
	mov	ecx, DWORD PTR [edx-4]
	xor	ecx, eax
	call	@__security_check_cookie@4
	mov	eax, OFFSET __ehfuncinfo$?RenderInfo@GetWeaponGoal_Evaluator@@UAEXUVector2D@@PAVAbstRaven_Bot@@@Z
	jmp	___CxxFrameHandler3
text$x	ENDS
?RenderInfo@GetWeaponGoal_Evaluator@@UAEXUVector2D@@PAVAbstRaven_Bot@@@Z ENDP ; GetWeaponGoal_Evaluator::RenderInfo
PUBLIC	?c_str@?$basic_string@DU?$char_traits@D@std@@V?$allocator@D@2@@std@@QBEPBDXZ ; std::basic_string<char,std::char_traits<char>,std::allocator<char> >::c_str
PUBLIC	?size@?$basic_string@DU?$char_traits@D@std@@V?$allocator@D@2@@std@@QBEIXZ ; std::basic_string<char,std::char_traits<char>,std::allocator<char> >::size
EXTRN	__imp__TextOutA@20:PROC
EXTRN	__ftol2_sse:PROC
; Function compile flags: /Odtp /RTCsu
; File c:\users\teaja\documents\artificial-fun\labravenprojecttest\common\misc\cgdi.h
;	COMDAT ?TextAtPos@Cgdi@@QAEXUVector2D@@ABV?$basic_string@DU?$char_traits@D@std@@V?$allocator@D@2@@std@@@Z
_TEXT	SEGMENT
_this$ = -4						; size = 4
_pos$ = 8						; size = 16
_s$ = 24						; size = 4
?TextAtPos@Cgdi@@QAEXUVector2D@@ABV?$basic_string@DU?$char_traits@D@std@@V?$allocator@D@2@@std@@@Z PROC ; Cgdi::TextAtPos, COMDAT
; _this$ = ecx

; 218  :   {

	push	ebp
	mov	ebp, esp
	push	ecx
	push	esi
	mov	DWORD PTR [ebp-4], -858993460		; ccccccccH
	mov	DWORD PTR _this$[ebp], ecx

; 219  :     TextOut(m_hdc, (int)pos.x, (int)pos.y, s.c_str(), (int)s.size());

	mov	ecx, DWORD PTR _s$[ebp]
	call	?size@?$basic_string@DU?$char_traits@D@std@@V?$allocator@D@2@@std@@QBEIXZ ; std::basic_string<char,std::char_traits<char>,std::allocator<char> >::size
	mov	esi, esp
	push	eax
	mov	ecx, DWORD PTR _s$[ebp]
	call	?c_str@?$basic_string@DU?$char_traits@D@std@@V?$allocator@D@2@@std@@QBEPBDXZ ; std::basic_string<char,std::char_traits<char>,std::allocator<char> >::c_str
	push	eax
	fld	QWORD PTR _pos$[ebp+8]
	call	__ftol2_sse
	push	eax
	fld	QWORD PTR _pos$[ebp]
	call	__ftol2_sse
	push	eax
	mov	eax, DWORD PTR _this$[ebp]
	mov	ecx, DWORD PTR [eax+124]
	push	ecx
	call	DWORD PTR __imp__TextOutA@20
	cmp	esi, esp
	call	__RTC_CheckEsp

; 220  :   }

	pop	esi
	add	esp, 4
	cmp	ebp, esp
	call	__RTC_CheckEsp
	mov	esp, ebp
	pop	ebp
	ret	20					; 00000014H
?TextAtPos@Cgdi@@QAEXUVector2D@@ABV?$basic_string@DU?$char_traits@D@std@@V?$allocator@D@2@@std@@@Z ENDP ; Cgdi::TextAtPos
_TEXT	ENDS
PUBLIC	??1?$_String_val@DV?$allocator@D@std@@@std@@QAE@XZ ; std::_String_val<char,std::allocator<char> >::~_String_val<char,std::allocator<char> >
PUBLIC	?_Tidy@?$basic_string@DU?$char_traits@D@std@@V?$allocator@D@2@@std@@QAEX_NI@Z ; std::basic_string<char,std::char_traits<char>,std::allocator<char> >::_Tidy
PUBLIC	??0?$_String_val@DV?$allocator@D@std@@@std@@QAE@V?$allocator@D@1@@Z ; std::_String_val<char,std::allocator<char> >::_String_val<char,std::allocator<char> >
PUBLIC	??0?$allocator@D@std@@QAE@XZ			; std::allocator<char>::allocator<char>
;	COMDAT xdata$x
; File c:\program files (x86)\microsoft visual studio 10.0\vc\include\xstring
xdata$x	SEGMENT
__unwindtable$??0?$basic_string@DU?$char_traits@D@std@@V?$allocator@D@2@@std@@QAE@XZ DD 0ffffffffH
	DD	FLAT:__unwindfunclet$??0?$basic_string@DU?$char_traits@D@std@@V?$allocator@D@2@@std@@QAE@XZ$0
__ehfuncinfo$??0?$basic_string@DU?$char_traits@D@std@@V?$allocator@D@2@@std@@QAE@XZ DD 019930522H
	DD	01H
	DD	FLAT:__unwindtable$??0?$basic_string@DU?$char_traits@D@std@@V?$allocator@D@2@@std@@QAE@XZ
	DD	2 DUP(00H)
	DD	2 DUP(00H)
	DD	00H
	DD	01H
; Function compile flags: /Odtp /RTCsu
xdata$x	ENDS
;	COMDAT ??0?$basic_string@DU?$char_traits@D@std@@V?$allocator@D@2@@std@@QAE@XZ
_TEXT	SEGMENT
$T146923 = -20						; size = 4
_this$ = -16						; size = 4
__$EHRec$ = -12						; size = 12
??0?$basic_string@DU?$char_traits@D@std@@V?$allocator@D@2@@std@@QAE@XZ PROC ; std::basic_string<char,std::char_traits<char>,std::allocator<char> >::basic_string<char,std::char_traits<char>,std::allocator<char> >, COMDAT
; _this$ = ecx

; 550  : 		{	// construct empty string

	push	ebp
	mov	ebp, esp
	push	-1
	push	__ehhandler$??0?$basic_string@DU?$char_traits@D@std@@V?$allocator@D@2@@std@@QAE@XZ
	mov	eax, DWORD PTR fs:0
	push	eax
	sub	esp, 8
	mov	DWORD PTR [ebp-20], -858993460		; ccccccccH
	mov	DWORD PTR [ebp-16], -858993460		; ccccccccH
	mov	eax, DWORD PTR ___security_cookie
	xor	eax, ebp
	push	eax
	lea	eax, DWORD PTR __$EHRec$[ebp]
	mov	DWORD PTR fs:0, eax
	mov	DWORD PTR _this$[ebp], ecx
	push	ecx
	mov	ecx, esp
	mov	DWORD PTR $T146923[ebp], esp
	call	??0?$allocator@D@std@@QAE@XZ		; std::allocator<char>::allocator<char>
	mov	ecx, DWORD PTR _this$[ebp]
	call	??0?$_String_val@DV?$allocator@D@std@@@std@@QAE@V?$allocator@D@1@@Z ; std::_String_val<char,std::allocator<char> >::_String_val<char,std::allocator<char> >
	mov	DWORD PTR __$EHRec$[ebp+8], 0

; 551  : 		_Tidy();

	push	0
	push	0
	mov	ecx, DWORD PTR _this$[ebp]
	call	?_Tidy@?$basic_string@DU?$char_traits@D@std@@V?$allocator@D@2@@std@@QAEX_NI@Z ; std::basic_string<char,std::char_traits<char>,std::allocator<char> >::_Tidy

; 552  : 		}

	mov	DWORD PTR __$EHRec$[ebp+8], -1
	mov	eax, DWORD PTR _this$[ebp]
	mov	ecx, DWORD PTR __$EHRec$[ebp]
	mov	DWORD PTR fs:0, ecx
	pop	ecx
	add	esp, 20					; 00000014H
	cmp	ebp, esp
	call	__RTC_CheckEsp
	mov	esp, ebp
	pop	ebp
	ret	0
_TEXT	ENDS
;	COMDAT text$x
text$x	SEGMENT
__unwindfunclet$??0?$basic_string@DU?$char_traits@D@std@@V?$allocator@D@2@@std@@QAE@XZ$0:
	mov	ecx, DWORD PTR _this$[ebp]
	jmp	??1?$_String_val@DV?$allocator@D@std@@@std@@QAE@XZ ; std::_String_val<char,std::allocator<char> >::~_String_val<char,std::allocator<char> >
__ehhandler$??0?$basic_string@DU?$char_traits@D@std@@V?$allocator@D@2@@std@@QAE@XZ:
	mov	edx, DWORD PTR [esp+8]
	lea	eax, DWORD PTR [edx+12]
	mov	ecx, DWORD PTR [edx-12]
	xor	ecx, eax
	call	@__security_check_cookie@4
	mov	eax, OFFSET __ehfuncinfo$??0?$basic_string@DU?$char_traits@D@std@@V?$allocator@D@2@@std@@QAE@XZ
	jmp	___CxxFrameHandler3
text$x	ENDS
??0?$basic_string@DU?$char_traits@D@std@@V?$allocator@D@2@@std@@QAE@XZ ENDP ; std::basic_string<char,std::char_traits<char>,std::allocator<char> >::basic_string<char,std::char_traits<char>,std::allocator<char> >
;	COMDAT xdata$x
xdata$x	SEGMENT
__unwindtable$??1?$basic_string@DU?$char_traits@D@std@@V?$allocator@D@2@@std@@QAE@XZ DD 0ffffffffH
	DD	FLAT:__unwindfunclet$??1?$basic_string@DU?$char_traits@D@std@@V?$allocator@D@2@@std@@QAE@XZ$0
__ehfuncinfo$??1?$basic_string@DU?$char_traits@D@std@@V?$allocator@D@2@@std@@QAE@XZ DD 019930522H
	DD	01H
	DD	FLAT:__unwindtable$??1?$basic_string@DU?$char_traits@D@std@@V?$allocator@D@2@@std@@QAE@XZ
	DD	2 DUP(00H)
	DD	2 DUP(00H)
	DD	00H
	DD	01H
; Function compile flags: /Odtp /RTCsu
xdata$x	ENDS
;	COMDAT ??1?$basic_string@DU?$char_traits@D@std@@V?$allocator@D@2@@std@@QAE@XZ
_TEXT	SEGMENT
_this$ = -16						; size = 4
__$EHRec$ = -12						; size = 12
??1?$basic_string@DU?$char_traits@D@std@@V?$allocator@D@2@@std@@QAE@XZ PROC ; std::basic_string<char,std::char_traits<char>,std::allocator<char> >::~basic_string<char,std::char_traits<char>,std::allocator<char> >, COMDAT
; _this$ = ecx

; 752  : 		{	// destroy the string

	push	ebp
	mov	ebp, esp
	push	-1
	push	__ehhandler$??1?$basic_string@DU?$char_traits@D@std@@V?$allocator@D@2@@std@@QAE@XZ
	mov	eax, DWORD PTR fs:0
	push	eax
	push	ecx
	mov	DWORD PTR [ebp-16], -858993460		; ccccccccH
	mov	eax, DWORD PTR ___security_cookie
	xor	eax, ebp
	push	eax
	lea	eax, DWORD PTR __$EHRec$[ebp]
	mov	DWORD PTR fs:0, eax
	mov	DWORD PTR _this$[ebp], ecx
	mov	DWORD PTR __$EHRec$[ebp+8], 0

; 753  : 		_Tidy(true);

	push	0
	push	1
	mov	ecx, DWORD PTR _this$[ebp]
	call	?_Tidy@?$basic_string@DU?$char_traits@D@std@@V?$allocator@D@2@@std@@QAEX_NI@Z ; std::basic_string<char,std::char_traits<char>,std::allocator<char> >::_Tidy

; 754  : 		}

	mov	DWORD PTR __$EHRec$[ebp+8], -1
	mov	ecx, DWORD PTR _this$[ebp]
	call	??1?$_String_val@DV?$allocator@D@std@@@std@@QAE@XZ ; std::_String_val<char,std::allocator<char> >::~_String_val<char,std::allocator<char> >
	mov	ecx, DWORD PTR __$EHRec$[ebp]
	mov	DWORD PTR fs:0, ecx
	pop	ecx
	add	esp, 16					; 00000010H
	cmp	ebp, esp
	call	__RTC_CheckEsp
	mov	esp, ebp
	pop	ebp
	ret	0
_TEXT	ENDS
;	COMDAT text$x
text$x	SEGMENT
__unwindfunclet$??1?$basic_string@DU?$char_traits@D@std@@V?$allocator@D@2@@std@@QAE@XZ$0:
	mov	ecx, DWORD PTR _this$[ebp]
	jmp	??1?$_String_val@DV?$allocator@D@std@@@std@@QAE@XZ ; std::_String_val<char,std::allocator<char> >::~_String_val<char,std::allocator<char> >
__ehhandler$??1?$basic_string@DU?$char_traits@D@std@@V?$allocator@D@2@@std@@QAE@XZ:
	mov	edx, DWORD PTR [esp+8]
	lea	eax, DWORD PTR [edx+12]
	mov	ecx, DWORD PTR [edx-8]
	xor	ecx, eax
	call	@__security_check_cookie@4
	mov	eax, OFFSET __ehfuncinfo$??1?$basic_string@DU?$char_traits@D@std@@V?$allocator@D@2@@std@@QAE@XZ
	jmp	___CxxFrameHandler3
text$x	ENDS
??1?$basic_string@DU?$char_traits@D@std@@V?$allocator@D@2@@std@@QAE@XZ ENDP ; std::basic_string<char,std::char_traits<char>,std::allocator<char> >::~basic_string<char,std::char_traits<char>,std::allocator<char> >
PUBLIC	?assign@?$basic_string@DU?$char_traits@D@std@@V?$allocator@D@2@@std@@QAEAAV12@PBD@Z ; std::basic_string<char,std::char_traits<char>,std::allocator<char> >::assign
; Function compile flags: /Odtp /RTCsu
;	COMDAT ??4?$basic_string@DU?$char_traits@D@std@@V?$allocator@D@2@@std@@QAEAAV01@PBD@Z
_TEXT	SEGMENT
_this$ = -4						; size = 4
__Ptr$ = 8						; size = 4
??4?$basic_string@DU?$char_traits@D@std@@V?$allocator@D@2@@std@@QAEAAV01@PBD@Z PROC ; std::basic_string<char,std::char_traits<char>,std::allocator<char> >::operator=, COMDAT
; _this$ = ecx

; 767  : 		{	// assign [_Ptr, <null>)

	push	ebp
	mov	ebp, esp
	push	ecx
	mov	DWORD PTR [ebp-4], -858993460		; ccccccccH
	mov	DWORD PTR _this$[ebp], ecx

; 768  : 		return (assign(_Ptr));

	mov	eax, DWORD PTR __Ptr$[ebp]
	push	eax
	mov	ecx, DWORD PTR _this$[ebp]
	call	?assign@?$basic_string@DU?$char_traits@D@std@@V?$allocator@D@2@@std@@QAEAAV12@PBD@Z ; std::basic_string<char,std::char_traits<char>,std::allocator<char> >::assign

; 769  : 		}

	add	esp, 4
	cmp	ebp, esp
	call	__RTC_CheckEsp
	mov	esp, ebp
	pop	ebp
	ret	4
??4?$basic_string@DU?$char_traits@D@std@@V?$allocator@D@2@@std@@QAEAAV01@PBD@Z ENDP ; std::basic_string<char,std::char_traits<char>,std::allocator<char> >::operator=
_TEXT	ENDS
PUBLIC	?_Myptr@?$basic_string@DU?$char_traits@D@std@@V?$allocator@D@2@@std@@QBEPBDXZ ; std::basic_string<char,std::char_traits<char>,std::allocator<char> >::_Myptr
; Function compile flags: /Odtp /RTCsu
;	COMDAT ?c_str@?$basic_string@DU?$char_traits@D@std@@V?$allocator@D@2@@std@@QBEPBDXZ
_TEXT	SEGMENT
_this$ = -4						; size = 4
?c_str@?$basic_string@DU?$char_traits@D@std@@V?$allocator@D@2@@std@@QBEPBDXZ PROC ; std::basic_string<char,std::char_traits<char>,std::allocator<char> >::c_str, COMDAT
; _this$ = ecx

; 1495 : 		{	// return pointer to null-terminated nonmutable array

	push	ebp
	mov	ebp, esp
	push	ecx
	mov	DWORD PTR [ebp-4], -858993460		; ccccccccH
	mov	DWORD PTR _this$[ebp], ecx

; 1496 : 		return (_Myptr());

	mov	ecx, DWORD PTR _this$[ebp]
	call	?_Myptr@?$basic_string@DU?$char_traits@D@std@@V?$allocator@D@2@@std@@QBEPBDXZ ; std::basic_string<char,std::char_traits<char>,std::allocator<char> >::_Myptr

; 1497 : 		}

	add	esp, 4
	cmp	ebp, esp
	call	__RTC_CheckEsp
	mov	esp, ebp
	pop	ebp
	ret	0
?c_str@?$basic_string@DU?$char_traits@D@std@@V?$allocator@D@2@@std@@QBEPBDXZ ENDP ; std::basic_string<char,std::char_traits<char>,std::allocator<char> >::c_str
; Function compile flags: /Odtp /RTCsu
_TEXT	ENDS
;	COMDAT ?size@?$basic_string@DU?$char_traits@D@std@@V?$allocator@D@2@@std@@QBEIXZ
_TEXT	SEGMENT
_this$ = -4						; size = 4
?size@?$basic_string@DU?$char_traits@D@std@@V?$allocator@D@2@@std@@QBEIXZ PROC ; std::basic_string<char,std::char_traits<char>,std::allocator<char> >::size, COMDAT
; _this$ = ecx

; 1510 : 		{	// return length of sequence

	push	ebp
	mov	ebp, esp
	push	ecx
	mov	DWORD PTR [ebp-4], -858993460		; ccccccccH
	mov	DWORD PTR _this$[ebp], ecx

; 1511 : 		return (this->_Mysize);

	mov	eax, DWORD PTR _this$[ebp]
	mov	eax, DWORD PTR [eax+20]

; 1512 : 		}

	mov	esp, ebp
	pop	ebp
	ret	0
?size@?$basic_string@DU?$char_traits@D@std@@V?$allocator@D@2@@std@@QBEIXZ ENDP ; std::basic_string<char,std::char_traits<char>,std::allocator<char> >::size
_TEXT	ENDS
PUBLIC	?assign@?$basic_string@DU?$char_traits@D@std@@V?$allocator@D@2@@std@@QAEAAV12@PBDI@Z ; std::basic_string<char,std::char_traits<char>,std::allocator<char> >::assign
PUBLIC	?length@?$char_traits@D@std@@SAIPBD@Z		; std::char_traits<char>::length
PUBLIC	??$_Debug_pointer@D@std@@YAXPBDPB_WI@Z		; std::_Debug_pointer<char>
PUBLIC	??_C@_1IO@FJMIILFL@?$AAc?$AA?3?$AA?2?$AAP?$AAr?$AAo?$AAg?$AAr?$AAa?$AAm?$AA?5?$AAF?$AAi?$AAl?$AAe?$AAs?$AA?5?$AA?$CI?$AAx?$AA8?$AA6?$AA?$CJ?$AA?2?$AAM?$AAi?$AAc?$AAr?$AAo?$AAs?$AAo?$AAf?$AAt@ ; `string'
;	COMDAT ??_C@_1IO@FJMIILFL@?$AAc?$AA?3?$AA?2?$AAP?$AAr?$AAo?$AAg?$AAr?$AAa?$AAm?$AA?5?$AAF?$AAi?$AAl?$AAe?$AAs?$AA?5?$AA?$CI?$AAx?$AA8?$AA6?$AA?$CJ?$AA?2?$AAM?$AAi?$AAc?$AAr?$AAo?$AAs?$AAo?$AAf?$AAt@
CONST	SEGMENT
??_C@_1IO@FJMIILFL@?$AAc?$AA?3?$AA?2?$AAP?$AAr?$AAo?$AAg?$AAr?$AAa?$AAm?$AA?5?$AAF?$AAi?$AAl?$AAe?$AAs?$AA?5?$AA?$CI?$AAx?$AA8?$AA6?$AA?$CJ?$AA?2?$AAM?$AAi?$AAc?$AAr?$AAo?$AAs?$AAo?$AAf?$AAt@ DB 'c'
	DB	00H, ':', 00H, '\', 00H, 'P', 00H, 'r', 00H, 'o', 00H, 'g', 00H
	DB	'r', 00H, 'a', 00H, 'm', 00H, ' ', 00H, 'F', 00H, 'i', 00H, 'l'
	DB	00H, 'e', 00H, 's', 00H, ' ', 00H, '(', 00H, 'x', 00H, '8', 00H
	DB	'6', 00H, ')', 00H, '\', 00H, 'M', 00H, 'i', 00H, 'c', 00H, 'r'
	DB	00H, 'o', 00H, 's', 00H, 'o', 00H, 'f', 00H, 't', 00H, ' ', 00H
	DB	'V', 00H, 'i', 00H, 's', 00H, 'u', 00H, 'a', 00H, 'l', 00H, ' '
	DB	00H, 'S', 00H, 't', 00H, 'u', 00H, 'd', 00H, 'i', 00H, 'o', 00H
	DB	' ', 00H, '1', 00H, '0', 00H, '.', 00H, '0', 00H, '\', 00H, 'V'
	DB	00H, 'C', 00H, '\', 00H, 'i', 00H, 'n', 00H, 'c', 00H, 'l', 00H
	DB	'u', 00H, 'd', 00H, 'e', 00H, '\', 00H, 'x', 00H, 's', 00H, 't'
	DB	00H, 'r', 00H, 'i', 00H, 'n', 00H, 'g', 00H, 00H, 00H ; `string'
; Function compile flags: /Odtp /RTCsu
CONST	ENDS
;	COMDAT ?assign@?$basic_string@DU?$char_traits@D@std@@V?$allocator@D@2@@std@@QAEAAV12@PBD@Z
_TEXT	SEGMENT
_this$ = -4						; size = 4
__Ptr$ = 8						; size = 4
?assign@?$basic_string@DU?$char_traits@D@std@@V?$allocator@D@2@@std@@QAEAAV12@PBD@Z PROC ; std::basic_string<char,std::char_traits<char>,std::allocator<char> >::assign, COMDAT
; _this$ = ecx

; 928  : 		{	// assign [_Ptr, <null>)

	push	ebp
	mov	ebp, esp
	push	ecx
	mov	DWORD PTR [ebp-4], -858993460		; ccccccccH
	mov	DWORD PTR _this$[ebp], ecx

; 929  : 		_DEBUG_POINTER(_Ptr);

	push	929					; 000003a1H
	push	OFFSET ??_C@_1IO@FJMIILFL@?$AAc?$AA?3?$AA?2?$AAP?$AAr?$AAo?$AAg?$AAr?$AAa?$AAm?$AA?5?$AAF?$AAi?$AAl?$AAe?$AAs?$AA?5?$AA?$CI?$AAx?$AA8?$AA6?$AA?$CJ?$AA?2?$AAM?$AAi?$AAc?$AAr?$AAo?$AAs?$AAo?$AAf?$AAt@
	mov	eax, DWORD PTR __Ptr$[ebp]
	push	eax
	call	??$_Debug_pointer@D@std@@YAXPBDPB_WI@Z	; std::_Debug_pointer<char>
	add	esp, 12					; 0000000cH

; 930  : 		return (assign(_Ptr, _Traits::length(_Ptr)));

	mov	ecx, DWORD PTR __Ptr$[ebp]
	push	ecx
	call	?length@?$char_traits@D@std@@SAIPBD@Z	; std::char_traits<char>::length
	add	esp, 4
	push	eax
	mov	edx, DWORD PTR __Ptr$[ebp]
	push	edx
	mov	ecx, DWORD PTR _this$[ebp]
	call	?assign@?$basic_string@DU?$char_traits@D@std@@V?$allocator@D@2@@std@@QAEAAV12@PBDI@Z ; std::basic_string<char,std::char_traits<char>,std::allocator<char> >::assign

; 931  : 		}

	add	esp, 4
	cmp	ebp, esp
	call	__RTC_CheckEsp
	mov	esp, ebp
	pop	ebp
	ret	4
?assign@?$basic_string@DU?$char_traits@D@std@@V?$allocator@D@2@@std@@QAEAAV12@PBD@Z ENDP ; std::basic_string<char,std::char_traits<char>,std::allocator<char> >::assign
_TEXT	ENDS
EXTRN	_strlen:PROC
; Function compile flags: /Odtp /RTCsu
; File c:\program files (x86)\microsoft visual studio 10.0\vc\include\iosfwd
;	COMDAT ?length@?$char_traits@D@std@@SAIPBD@Z
_TEXT	SEGMENT
__First$ = 8						; size = 4
?length@?$char_traits@D@std@@SAIPBD@Z PROC		; std::char_traits<char>::length, COMDAT

; 490  : 		{	// find length of null-terminated string

	push	ebp
	mov	ebp, esp

; 491  : 		return (_CSTD strlen(_First));

	mov	eax, DWORD PTR __First$[ebp]
	push	eax
	call	_strlen
	add	esp, 4

; 492  : 		}

	cmp	ebp, esp
	call	__RTC_CheckEsp
	pop	ebp
	ret	0
?length@?$char_traits@D@std@@SAIPBD@Z ENDP		; std::char_traits<char>::length
_TEXT	ENDS
PUBLIC	?_Eos@?$basic_string@DU?$char_traits@D@std@@V?$allocator@D@2@@std@@QAEXI@Z ; std::basic_string<char,std::char_traits<char>,std::allocator<char> >::_Eos
PUBLIC	?deallocate@?$allocator@D@std@@QAEXPADI@Z	; std::allocator<char>::deallocate
PUBLIC	?copy@?$char_traits@D@std@@SAPADPADPBDI@Z	; std::char_traits<char>::copy
; Function compile flags: /Odtp /RTCsu
; File c:\program files (x86)\microsoft visual studio 10.0\vc\include\xstring
;	COMDAT ?_Tidy@?$basic_string@DU?$char_traits@D@std@@V?$allocator@D@2@@std@@QAEX_NI@Z
_TEXT	SEGMENT
__Ptr$139012 = -8					; size = 4
_this$ = -4						; size = 4
__Built$ = 8						; size = 1
__Newsize$ = 12						; size = 4
?_Tidy@?$basic_string@DU?$char_traits@D@std@@V?$allocator@D@2@@std@@QAEX_NI@Z PROC ; std::basic_string<char,std::char_traits<char>,std::allocator<char> >::_Tidy, COMDAT
; _this$ = ecx

; 1987 : 		{	// initialize buffer, deallocating any storage

	push	ebp
	mov	ebp, esp
	sub	esp, 8
	mov	DWORD PTR [ebp-8], -858993460		; ccccccccH
	mov	DWORD PTR [ebp-4], -858993460		; ccccccccH
	mov	DWORD PTR _this$[ebp], ecx

; 1988 : 		if (!_Built)

	movzx	eax, BYTE PTR __Built$[ebp]
	test	eax, eax
	jne	SHORT $LN4@Tidy
	jmp	SHORT $LN3@Tidy
$LN4@Tidy:

; 1989 : 			;
; 1990 : 		else if (this->_BUF_SIZE <= this->_Myres)

	mov	ecx, DWORD PTR _this$[ebp]
	cmp	DWORD PTR [ecx+24], 16			; 00000010H
	jb	SHORT $LN3@Tidy

; 1991 : 			{	// copy any leftovers to small buffer and deallocate
; 1992 : 			_Elem *_Ptr = this->_Bx._Ptr;

	mov	edx, DWORD PTR _this$[ebp]
	mov	eax, DWORD PTR [edx+4]
	mov	DWORD PTR __Ptr$139012[ebp], eax

; 1993 : 			if (0 < _Newsize)

	cmp	DWORD PTR __Newsize$[ebp], 0
	jbe	SHORT $LN1@Tidy

; 1994 : 				_Traits::copy(this->_Bx._Buf, _Ptr, _Newsize);

	mov	ecx, DWORD PTR __Newsize$[ebp]
	push	ecx
	mov	edx, DWORD PTR __Ptr$139012[ebp]
	push	edx
	mov	eax, DWORD PTR _this$[ebp]
	add	eax, 4
	push	eax
	call	?copy@?$char_traits@D@std@@SAPADPADPBDI@Z ; std::char_traits<char>::copy
	add	esp, 12					; 0000000cH
$LN1@Tidy:

; 1995 : 			this->_Alval.deallocate(_Ptr, this->_Myres + 1);

	mov	ecx, DWORD PTR _this$[ebp]
	mov	edx, DWORD PTR [ecx+24]
	add	edx, 1
	push	edx
	mov	eax, DWORD PTR __Ptr$139012[ebp]
	push	eax
	mov	ecx, DWORD PTR _this$[ebp]
	add	ecx, 28					; 0000001cH
	call	?deallocate@?$allocator@D@std@@QAEXPADI@Z ; std::allocator<char>::deallocate
$LN3@Tidy:

; 1996 : 			}
; 1997 : 		this->_Myres = this->_BUF_SIZE - 1;

	mov	ecx, DWORD PTR _this$[ebp]
	mov	DWORD PTR [ecx+24], 15			; 0000000fH

; 1998 : 		_Eos(_Newsize);

	mov	edx, DWORD PTR __Newsize$[ebp]
	push	edx
	mov	ecx, DWORD PTR _this$[ebp]
	call	?_Eos@?$basic_string@DU?$char_traits@D@std@@V?$allocator@D@2@@std@@QAEXI@Z ; std::basic_string<char,std::char_traits<char>,std::allocator<char> >::_Eos

; 1999 : 		}

	add	esp, 8
	cmp	ebp, esp
	call	__RTC_CheckEsp
	mov	esp, ebp
	pop	ebp
	ret	8
?_Tidy@?$basic_string@DU?$char_traits@D@std@@V?$allocator@D@2@@std@@QAEX_NI@Z ENDP ; std::basic_string<char,std::char_traits<char>,std::allocator<char> >::_Tidy
_TEXT	ENDS
EXTRN	_memcpy:PROC
; Function compile flags: /Odtp /RTCsu
; File c:\program files (x86)\microsoft visual studio 10.0\vc\include\iosfwd
;	COMDAT ?copy@?$char_traits@D@std@@SAPADPADPBDI@Z
_TEXT	SEGMENT
__First1$ = 8						; size = 4
__First2$ = 12						; size = 4
__Count$ = 16						; size = 4
?copy@?$char_traits@D@std@@SAPADPADPBDI@Z PROC		; std::char_traits<char>::copy, COMDAT

; 496  : 		{	// copy [_First1, _First1 + _Count) to [_First2, ...)

	push	ebp
	mov	ebp, esp

; 497  : 		return ((_Elem *)_CSTD memcpy(_First1, _First2, _Count));

	mov	eax, DWORD PTR __Count$[ebp]
	push	eax
	mov	ecx, DWORD PTR __First2$[ebp]
	push	ecx
	mov	edx, DWORD PTR __First1$[ebp]
	push	edx
	call	_memcpy
	add	esp, 12					; 0000000cH

; 498  : 		}

	cmp	ebp, esp
	call	__RTC_CheckEsp
	pop	ebp
	ret	0
?copy@?$char_traits@D@std@@SAPADPADPBDI@Z ENDP		; std::char_traits<char>::copy
; Function compile flags: /Odtp /RTCsu
; File c:\program files (x86)\microsoft visual studio 10.0\vc\include\xstring
_TEXT	ENDS
;	COMDAT ?_Myptr@?$basic_string@DU?$char_traits@D@std@@V?$allocator@D@2@@std@@QBEPBDXZ
_TEXT	SEGMENT
tv82 = -8						; size = 4
_this$ = -4						; size = 4
?_Myptr@?$basic_string@DU?$char_traits@D@std@@V?$allocator@D@2@@std@@QBEPBDXZ PROC ; std::basic_string<char,std::char_traits<char>,std::allocator<char> >::_Myptr, COMDAT
; _this$ = ecx

; 2008 : 		{	// determine current pointer to buffer for nonmutable string

	push	ebp
	mov	ebp, esp
	sub	esp, 8
	mov	DWORD PTR [ebp-8], -858993460		; ccccccccH
	mov	DWORD PTR [ebp-4], -858993460		; ccccccccH
	mov	DWORD PTR _this$[ebp], ecx

; 2009 : 		return (this->_BUF_SIZE <= this->_Myres ? this->_Bx._Ptr
; 2010 : 			: this->_Bx._Buf);

	mov	eax, DWORD PTR _this$[ebp]
	cmp	DWORD PTR [eax+24], 16			; 00000010H
	jb	SHORT $LN3@Myptr
	mov	ecx, DWORD PTR _this$[ebp]
	mov	edx, DWORD PTR [ecx+4]
	mov	DWORD PTR tv82[ebp], edx
	jmp	SHORT $LN4@Myptr
$LN3@Myptr:
	mov	eax, DWORD PTR _this$[ebp]
	add	eax, 4
	mov	DWORD PTR tv82[ebp], eax
$LN4@Myptr:
	mov	eax, DWORD PTR tv82[ebp]

; 2011 : 		}

	mov	esp, ebp
	pop	ebp
	ret	0
?_Myptr@?$basic_string@DU?$char_traits@D@std@@V?$allocator@D@2@@std@@QBEPBDXZ ENDP ; std::basic_string<char,std::char_traits<char>,std::allocator<char> >::_Myptr
_TEXT	ENDS
PUBLIC	??1_Container_base12@std@@QAE@XZ		; std::_Container_base12::~_Container_base12
PUBLIC	??$_Cons_val@V?$allocator@U_Container_proxy@std@@@std@@U_Container_proxy@2@U32@@std@@YAXAAV?$allocator@U_Container_proxy@std@@@0@PAU_Container_proxy@0@$$QAU20@@Z ; std::_Cons_val<std::allocator<std::_Container_proxy>,std::_Container_proxy,std::_Container_proxy>
PUBLIC	??0_Container_proxy@std@@QAE@XZ			; std::_Container_proxy::_Container_proxy
PUBLIC	?allocate@?$allocator@U_Container_proxy@std@@@std@@QAEPAU_Container_proxy@2@I@Z ; std::allocator<std::_Container_proxy>::allocate
PUBLIC	??$?0D@?$allocator@U_Container_proxy@std@@@std@@QAE@ABV?$allocator@D@1@@Z ; std::allocator<std::_Container_proxy>::allocator<std::_Container_proxy><char>
PUBLIC	??0?$allocator@D@std@@QAE@ABV01@@Z		; std::allocator<char>::allocator<char>
PUBLIC	??0_Container_base12@std@@QAE@XZ		; std::_Container_base12::_Container_base12
;	COMDAT xdata$x
xdata$x	SEGMENT
__unwindtable$??0?$_String_val@DV?$allocator@D@std@@@std@@QAE@V?$allocator@D@1@@Z DD 0ffffffffH
	DD	FLAT:__unwindfunclet$??0?$_String_val@DV?$allocator@D@std@@@std@@QAE@V?$allocator@D@1@@Z$0
__ehfuncinfo$??0?$_String_val@DV?$allocator@D@std@@@std@@QAE@V?$allocator@D@1@@Z DD 019930522H
	DD	01H
	DD	FLAT:__unwindtable$??0?$_String_val@DV?$allocator@D@std@@@std@@QAE@V?$allocator@D@1@@Z
	DD	2 DUP(00H)
	DD	2 DUP(00H)
	DD	00H
	DD	01H
; Function compile flags: /Odtp /RTCsu
xdata$x	ENDS
;	COMDAT ??0?$_String_val@DV?$allocator@D@std@@@std@@QAE@V?$allocator@D@1@@Z
_TEXT	SEGMENT
$T146960 = -36						; size = 8
__Alproxy$ = -21					; size = 1
_this$ = -16						; size = 4
__$EHRec$ = -12						; size = 12
__Al$ = 8						; size = 1
??0?$_String_val@DV?$allocator@D@std@@@std@@QAE@V?$allocator@D@1@@Z PROC ; std::_String_val<char,std::allocator<char> >::_String_val<char,std::allocator<char> >, COMDAT
; _this$ = ecx

; 466  : 		{	// construct allocator from _Al

	push	ebp
	mov	ebp, esp
	push	-1
	push	__ehhandler$??0?$_String_val@DV?$allocator@D@std@@@std@@QAE@V?$allocator@D@1@@Z
	mov	eax, DWORD PTR fs:0
	push	eax
	sub	esp, 24					; 00000018H
	mov	eax, -858993460				; ccccccccH
	mov	DWORD PTR [ebp-36], eax
	mov	DWORD PTR [ebp-32], eax
	mov	DWORD PTR [ebp-28], eax
	mov	DWORD PTR [ebp-24], eax
	mov	DWORD PTR [ebp-20], eax
	mov	DWORD PTR [ebp-16], eax
	mov	eax, DWORD PTR ___security_cookie
	xor	eax, ebp
	push	eax
	lea	eax, DWORD PTR __$EHRec$[ebp]
	mov	DWORD PTR fs:0, eax
	mov	DWORD PTR _this$[ebp], ecx
	mov	ecx, DWORD PTR _this$[ebp]
	call	??0_Container_base12@std@@QAE@XZ	; std::_Container_base12::_Container_base12
	mov	DWORD PTR __$EHRec$[ebp+8], 0
	lea	eax, DWORD PTR __Al$[ebp]
	push	eax
	mov	ecx, DWORD PTR _this$[ebp]
	add	ecx, 28					; 0000001cH
	call	??0?$allocator@D@std@@QAE@ABV01@@Z	; std::allocator<char>::allocator<char>

; 467  : 		typename _Alloc::template rebind<_Container_proxy>::other
; 468  : 			_Alproxy(_Alval);

	mov	ecx, DWORD PTR _this$[ebp]
	add	ecx, 28					; 0000001cH
	push	ecx
	lea	ecx, DWORD PTR __Alproxy$[ebp]
	call	??$?0D@?$allocator@U_Container_proxy@std@@@std@@QAE@ABV?$allocator@D@1@@Z ; std::allocator<std::_Container_proxy>::allocator<std::_Container_proxy><char>

; 469  : 		this->_Myproxy = _Alproxy.allocate(1);

	push	1
	lea	ecx, DWORD PTR __Alproxy$[ebp]
	call	?allocate@?$allocator@U_Container_proxy@std@@@std@@QAEPAU_Container_proxy@2@I@Z ; std::allocator<std::_Container_proxy>::allocate
	mov	edx, DWORD PTR _this$[ebp]
	mov	DWORD PTR [edx], eax

; 470  : 		_Cons_val(_Alproxy, this->_Myproxy, _Container_proxy());

	lea	ecx, DWORD PTR $T146960[ebp]
	call	??0_Container_proxy@std@@QAE@XZ		; std::_Container_proxy::_Container_proxy
	push	eax
	mov	eax, DWORD PTR _this$[ebp]
	mov	ecx, DWORD PTR [eax]
	push	ecx
	lea	edx, DWORD PTR __Alproxy$[ebp]
	push	edx
	call	??$_Cons_val@V?$allocator@U_Container_proxy@std@@@std@@U_Container_proxy@2@U32@@std@@YAXAAV?$allocator@U_Container_proxy@std@@@0@PAU_Container_proxy@0@$$QAU20@@Z ; std::_Cons_val<std::allocator<std::_Container_proxy>,std::_Container_proxy,std::_Container_proxy>
	add	esp, 12					; 0000000cH

; 471  : 		this->_Myproxy->_Mycont = this;

	mov	eax, DWORD PTR _this$[ebp]
	mov	ecx, DWORD PTR [eax]
	mov	edx, DWORD PTR _this$[ebp]
	mov	DWORD PTR [ecx], edx

; 472  : 		}

	mov	DWORD PTR __$EHRec$[ebp+8], -1
	mov	eax, DWORD PTR _this$[ebp]
	push	edx
	mov	ecx, ebp
	push	eax
	lea	edx, DWORD PTR $LN7@String_val
	call	@_RTC_CheckStackVars@8
	pop	eax
	pop	edx
	mov	ecx, DWORD PTR __$EHRec$[ebp]
	mov	DWORD PTR fs:0, ecx
	pop	ecx
	add	esp, 36					; 00000024H
	cmp	ebp, esp
	call	__RTC_CheckEsp
	mov	esp, ebp
	pop	ebp
	ret	4
	npad	2
$LN7@String_val:
	DD	1
	DD	$LN6@String_val
$LN6@String_val:
	DD	-21					; ffffffebH
	DD	1
	DD	$LN4@String_val
$LN4@String_val:
	DB	95					; 0000005fH
	DB	65					; 00000041H
	DB	108					; 0000006cH
	DB	112					; 00000070H
	DB	114					; 00000072H
	DB	111					; 0000006fH
	DB	120					; 00000078H
	DB	121					; 00000079H
	DB	0
_TEXT	ENDS
;	COMDAT text$x
text$x	SEGMENT
__unwindfunclet$??0?$_String_val@DV?$allocator@D@std@@@std@@QAE@V?$allocator@D@1@@Z$0:
	mov	ecx, DWORD PTR _this$[ebp]
	jmp	??1_Container_base12@std@@QAE@XZ	; std::_Container_base12::~_Container_base12
__ehhandler$??0?$_String_val@DV?$allocator@D@std@@@std@@QAE@V?$allocator@D@1@@Z:
	mov	edx, DWORD PTR [esp+8]
	lea	eax, DWORD PTR [edx+12]
	mov	ecx, DWORD PTR [edx-28]
	xor	ecx, eax
	call	@__security_check_cookie@4
	mov	eax, OFFSET __ehfuncinfo$??0?$_String_val@DV?$allocator@D@std@@@std@@QAE@V?$allocator@D@1@@Z
	jmp	___CxxFrameHandler3
text$x	ENDS
??0?$_String_val@DV?$allocator@D@std@@@std@@QAE@V?$allocator@D@1@@Z ENDP ; std::_String_val<char,std::allocator<char> >::_String_val<char,std::allocator<char> >
; Function compile flags: /Odtp /RTCsu
; File c:\program files (x86)\microsoft visual studio 10.0\vc\include\xutility
;	COMDAT ??0_Container_proxy@std@@QAE@XZ
_TEXT	SEGMENT
_this$ = -4						; size = 4
??0_Container_proxy@std@@QAE@XZ PROC			; std::_Container_proxy::_Container_proxy, COMDAT
; _this$ = ecx

; 65   : 		{	// construct from pointers

	push	ebp
	mov	ebp, esp
	push	ecx
	mov	DWORD PTR [ebp-4], -858993460		; ccccccccH
	mov	DWORD PTR _this$[ebp], ecx
	mov	eax, DWORD PTR _this$[ebp]
	mov	DWORD PTR [eax], 0
	mov	ecx, DWORD PTR _this$[ebp]
	mov	DWORD PTR [ecx+4], 0

; 66   : 		}

	mov	eax, DWORD PTR _this$[ebp]
	mov	esp, ebp
	pop	ebp
	ret	0
??0_Container_proxy@std@@QAE@XZ ENDP			; std::_Container_proxy::_Container_proxy
; Function compile flags: /Odtp /RTCsu
_TEXT	ENDS
;	COMDAT ??0_Container_base12@std@@QAE@XZ
_TEXT	SEGMENT
_this$ = -4						; size = 4
??0_Container_base12@std@@QAE@XZ PROC			; std::_Container_base12::_Container_base12, COMDAT
; _this$ = ecx

; 77   : 		{	// construct childless container

	push	ebp
	mov	ebp, esp
	push	ecx
	mov	DWORD PTR [ebp-4], -858993460		; ccccccccH
	mov	DWORD PTR _this$[ebp], ecx
	mov	eax, DWORD PTR _this$[ebp]
	mov	DWORD PTR [eax], 0

; 78   : 		}

	mov	eax, DWORD PTR _this$[ebp]
	mov	esp, ebp
	pop	ebp
	ret	0
??0_Container_base12@std@@QAE@XZ ENDP			; std::_Container_base12::_Container_base12
_TEXT	ENDS
PUBLIC	?_Orphan_all@_Container_base12@std@@QAEXXZ	; std::_Container_base12::_Orphan_all
; Function compile flags: /Odtp /RTCsu
;	COMDAT ??1_Container_base12@std@@QAE@XZ
_TEXT	SEGMENT
_this$ = -4						; size = 4
??1_Container_base12@std@@QAE@XZ PROC			; std::_Container_base12::~_Container_base12, COMDAT
; _this$ = ecx

; 91   : 		{	// destroy the container

	push	ebp
	mov	ebp, esp
	push	ecx
	mov	DWORD PTR [ebp-4], -858993460		; ccccccccH
	mov	DWORD PTR _this$[ebp], ecx

; 92   : 		_Orphan_all();

	mov	ecx, DWORD PTR _this$[ebp]
	call	?_Orphan_all@_Container_base12@std@@QAEXXZ ; std::_Container_base12::_Orphan_all

; 93   : 		}

	add	esp, 4
	cmp	ebp, esp
	call	__RTC_CheckEsp
	mov	esp, ebp
	pop	ebp
	ret	0
??1_Container_base12@std@@QAE@XZ ENDP			; std::_Container_base12::~_Container_base12
_TEXT	ENDS
EXTRN	??1_Lockit@std@@QAE@XZ:PROC			; std::_Lockit::~_Lockit
EXTRN	??0_Lockit@std@@QAE@H@Z:PROC			; std::_Lockit::_Lockit
; Function compile flags: /Odtp /RTCsu
;	COMDAT ?_Orphan_all@_Container_base12@std@@QAEXXZ
_TEXT	SEGMENT
__Pnext$15204 = -20					; size = 4
__Lock$15203 = -12					; size = 4
_this$ = -4						; size = 4
?_Orphan_all@_Container_base12@std@@QAEXXZ PROC		; std::_Container_base12::_Orphan_all, COMDAT
; _this$ = ecx

; 206  : 	{	// orphan all iterators

	push	ebp
	mov	ebp, esp
	sub	esp, 20					; 00000014H
	mov	eax, -858993460				; ccccccccH
	mov	DWORD PTR [ebp-20], eax
	mov	DWORD PTR [ebp-16], eax
	mov	DWORD PTR [ebp-12], eax
	mov	DWORD PTR [ebp-8], eax
	mov	DWORD PTR [ebp-4], eax
	mov	DWORD PTR _this$[ebp], ecx

; 207  :  #if _ITERATOR_DEBUG_LEVEL == 2
; 208  : 	if (_Myproxy != 0)

	mov	eax, DWORD PTR _this$[ebp]
	cmp	DWORD PTR [eax], 0
	je	SHORT $LN5@Orphan_all

; 209  : 		{	// proxy allocated, drain it
; 210  : 		_Lockit _Lock(_LOCK_DEBUG);

	push	3
	lea	ecx, DWORD PTR __Lock$15203[ebp]
	call	??0_Lockit@std@@QAE@H@Z			; std::_Lockit::_Lockit

; 211  : 
; 212  : 		for (_Iterator_base12 **_Pnext = &_Myproxy->_Myfirstiter;

	mov	ecx, DWORD PTR _this$[ebp]
	mov	edx, DWORD PTR [ecx]
	add	edx, 4
	mov	DWORD PTR __Pnext$15204[ebp], edx

; 213  : 			*_Pnext != 0; *_Pnext = (*_Pnext)->_Mynextiter)

	jmp	SHORT $LN3@Orphan_all
$LN2@Orphan_all:
	mov	eax, DWORD PTR __Pnext$15204[ebp]
	mov	ecx, DWORD PTR [eax]
	mov	edx, DWORD PTR __Pnext$15204[ebp]
	mov	eax, DWORD PTR [ecx+4]
	mov	DWORD PTR [edx], eax
$LN3@Orphan_all:
	mov	ecx, DWORD PTR __Pnext$15204[ebp]
	cmp	DWORD PTR [ecx], 0
	je	SHORT $LN1@Orphan_all

; 214  : 			(*_Pnext)->_Myproxy = 0;

	mov	edx, DWORD PTR __Pnext$15204[ebp]
	mov	eax, DWORD PTR [edx]
	mov	DWORD PTR [eax], 0
	jmp	SHORT $LN2@Orphan_all
$LN1@Orphan_all:

; 215  : 		_Myproxy->_Myfirstiter = 0;

	mov	ecx, DWORD PTR _this$[ebp]
	mov	edx, DWORD PTR [ecx]
	mov	DWORD PTR [edx+4], 0

; 216  : 		}

	lea	ecx, DWORD PTR __Lock$15203[ebp]
	call	??1_Lockit@std@@QAE@XZ			; std::_Lockit::~_Lockit
$LN5@Orphan_all:

; 217  :  #endif /* _ITERATOR_DEBUG_LEVEL == 2 */
; 218  : 	}

	push	edx
	mov	ecx, ebp
	push	eax
	lea	edx, DWORD PTR $LN10@Orphan_all
	call	@_RTC_CheckStackVars@8
	pop	eax
	pop	edx
	add	esp, 20					; 00000014H
	cmp	ebp, esp
	call	__RTC_CheckEsp
	mov	esp, ebp
	pop	ebp
	ret	0
	npad	3
$LN10@Orphan_all:
	DD	1
	DD	$LN9@Orphan_all
$LN9@Orphan_all:
	DD	-12					; fffffff4H
	DD	4
	DD	$LN8@Orphan_all
$LN8@Orphan_all:
	DB	95					; 0000005fH
	DB	76					; 0000004cH
	DB	111					; 0000006fH
	DB	99					; 00000063H
	DB	107					; 0000006bH
	DB	0
?_Orphan_all@_Container_base12@std@@QAEXXZ ENDP		; std::_Container_base12::_Orphan_all
_TEXT	ENDS
PUBLIC	?deallocate@?$allocator@U_Container_proxy@std@@@std@@QAEXPAU_Container_proxy@2@I@Z ; std::allocator<std::_Container_proxy>::deallocate
PUBLIC	??$_Dest_val@V?$allocator@U_Container_proxy@std@@@std@@U_Container_proxy@2@@std@@YAXAAV?$allocator@U_Container_proxy@std@@@0@PAU_Container_proxy@0@@Z ; std::_Dest_val<std::allocator<std::_Container_proxy>,std::_Container_proxy>
;	COMDAT xdata$x
; File c:\program files (x86)\microsoft visual studio 10.0\vc\include\xstring
xdata$x	SEGMENT
__unwindtable$??1?$_String_val@DV?$allocator@D@std@@@std@@QAE@XZ DD 0ffffffffH
	DD	FLAT:__unwindfunclet$??1?$_String_val@DV?$allocator@D@std@@@std@@QAE@XZ$0
__ehfuncinfo$??1?$_String_val@DV?$allocator@D@std@@@std@@QAE@XZ DD 019930522H
	DD	01H
	DD	FLAT:__unwindtable$??1?$_String_val@DV?$allocator@D@std@@@std@@QAE@XZ
	DD	2 DUP(00H)
	DD	2 DUP(00H)
	DD	00H
	DD	01H
; Function compile flags: /Odtp /RTCsu
xdata$x	ENDS
;	COMDAT ??1?$_String_val@DV?$allocator@D@std@@@std@@QAE@XZ
_TEXT	SEGMENT
__Alproxy$ = -21					; size = 1
_this$ = -16						; size = 4
__$EHRec$ = -12						; size = 12
??1?$_String_val@DV?$allocator@D@std@@@std@@QAE@XZ PROC	; std::_String_val<char,std::allocator<char> >::~_String_val<char,std::allocator<char> >, COMDAT
; _this$ = ecx

; 475  : 		{	// destroy the object

	push	ebp
	mov	ebp, esp
	push	-1
	push	__ehhandler$??1?$_String_val@DV?$allocator@D@std@@@std@@QAE@XZ
	mov	eax, DWORD PTR fs:0
	push	eax
	sub	esp, 16					; 00000010H
	mov	eax, -858993460				; ccccccccH
	mov	DWORD PTR [ebp-28], eax
	mov	DWORD PTR [ebp-24], eax
	mov	DWORD PTR [ebp-20], eax
	mov	DWORD PTR [ebp-16], eax
	mov	eax, DWORD PTR ___security_cookie
	xor	eax, ebp
	push	eax
	lea	eax, DWORD PTR __$EHRec$[ebp]
	mov	DWORD PTR fs:0, eax
	mov	DWORD PTR _this$[ebp], ecx
	mov	DWORD PTR __$EHRec$[ebp+8], 0

; 476  : 		typename _Alloc::template rebind<_Container_proxy>::other
; 477  : 			_Alproxy(_Alval);

	mov	eax, DWORD PTR _this$[ebp]
	add	eax, 28					; 0000001cH
	push	eax
	lea	ecx, DWORD PTR __Alproxy$[ebp]
	call	??$?0D@?$allocator@U_Container_proxy@std@@@std@@QAE@ABV?$allocator@D@1@@Z ; std::allocator<std::_Container_proxy>::allocator<std::_Container_proxy><char>

; 478  : 		this->_Orphan_all();

	mov	ecx, DWORD PTR _this$[ebp]
	call	?_Orphan_all@_Container_base12@std@@QAEXXZ ; std::_Container_base12::_Orphan_all

; 479  : 		_Dest_val(_Alproxy, this->_Myproxy);

	mov	ecx, DWORD PTR _this$[ebp]
	mov	edx, DWORD PTR [ecx]
	push	edx
	lea	eax, DWORD PTR __Alproxy$[ebp]
	push	eax
	call	??$_Dest_val@V?$allocator@U_Container_proxy@std@@@std@@U_Container_proxy@2@@std@@YAXAAV?$allocator@U_Container_proxy@std@@@0@PAU_Container_proxy@0@@Z ; std::_Dest_val<std::allocator<std::_Container_proxy>,std::_Container_proxy>
	add	esp, 8

; 480  : 		_Alproxy.deallocate(this->_Myproxy, 1);

	push	1
	mov	ecx, DWORD PTR _this$[ebp]
	mov	edx, DWORD PTR [ecx]
	push	edx
	lea	ecx, DWORD PTR __Alproxy$[ebp]
	call	?deallocate@?$allocator@U_Container_proxy@std@@@std@@QAEXPAU_Container_proxy@2@I@Z ; std::allocator<std::_Container_proxy>::deallocate

; 481  : 		this->_Myproxy = 0;

	mov	eax, DWORD PTR _this$[ebp]
	mov	DWORD PTR [eax], 0

; 482  : 		}

	mov	DWORD PTR __$EHRec$[ebp+8], -1
	mov	ecx, DWORD PTR _this$[ebp]
	call	??1_Container_base12@std@@QAE@XZ	; std::_Container_base12::~_Container_base12
	push	edx
	mov	ecx, ebp
	push	eax
	lea	edx, DWORD PTR $LN7@String_val@2
	call	@_RTC_CheckStackVars@8
	pop	eax
	pop	edx
	mov	ecx, DWORD PTR __$EHRec$[ebp]
	mov	DWORD PTR fs:0, ecx
	pop	ecx
	add	esp, 28					; 0000001cH
	cmp	ebp, esp
	call	__RTC_CheckEsp
	mov	esp, ebp
	pop	ebp
	ret	0
	npad	1
$LN7@String_val@2:
	DD	1
	DD	$LN6@String_val@2
$LN6@String_val@2:
	DD	-21					; ffffffebH
	DD	1
	DD	$LN4@String_val@2
$LN4@String_val@2:
	DB	95					; 0000005fH
	DB	65					; 00000041H
	DB	108					; 0000006cH
	DB	112					; 00000070H
	DB	114					; 00000072H
	DB	111					; 0000006fH
	DB	120					; 00000078H
	DB	121					; 00000079H
	DB	0
_TEXT	ENDS
;	COMDAT text$x
text$x	SEGMENT
__unwindfunclet$??1?$_String_val@DV?$allocator@D@std@@@std@@QAE@XZ$0:
	mov	ecx, DWORD PTR _this$[ebp]
	jmp	??1_Container_base12@std@@QAE@XZ	; std::_Container_base12::~_Container_base12
__ehhandler$??1?$_String_val@DV?$allocator@D@std@@@std@@QAE@XZ:
	mov	edx, DWORD PTR [esp+8]
	lea	eax, DWORD PTR [edx+12]
	mov	ecx, DWORD PTR [edx-20]
	xor	ecx, eax
	call	@__security_check_cookie@4
	mov	eax, OFFSET __ehfuncinfo$??1?$_String_val@DV?$allocator@D@std@@@std@@QAE@XZ
	jmp	___CxxFrameHandler3
text$x	ENDS
??1?$_String_val@DV?$allocator@D@std@@@std@@QAE@XZ ENDP	; std::_String_val<char,std::allocator<char> >::~_String_val<char,std::allocator<char> >
; Function compile flags: /Odtp /RTCsu
; File c:\program files (x86)\microsoft visual studio 10.0\vc\include\xmemory
;	COMDAT ??0?$allocator@D@std@@QAE@XZ
_TEXT	SEGMENT
_this$ = -4						; size = 4
??0?$allocator@D@std@@QAE@XZ PROC			; std::allocator<char>::allocator<char>, COMDAT
; _this$ = ecx

; 161  : 	_ALLOCATOR() _THROW0()

	push	ebp
	mov	ebp, esp
	push	ecx
	mov	DWORD PTR [ebp-4], -858993460		; ccccccccH
	mov	DWORD PTR _this$[ebp], ecx

; 162  : 		{	// construct default allocator (do nothing)
; 163  : 		}

	mov	eax, DWORD PTR _this$[ebp]
	mov	esp, ebp
	pop	ebp
	ret	0
??0?$allocator@D@std@@QAE@XZ ENDP			; std::allocator<char>::allocator<char>
; Function compile flags: /Odtp /RTCsu
_TEXT	ENDS
;	COMDAT ??0?$allocator@D@std@@QAE@ABV01@@Z
_TEXT	SEGMENT
_this$ = -4						; size = 4
___formal$ = 8						; size = 4
??0?$allocator@D@std@@QAE@ABV01@@Z PROC			; std::allocator<char>::allocator<char>, COMDAT
; _this$ = ecx

; 165  : 	_ALLOCATOR(const _ALLOCATOR<_Ty>&) _THROW0()

	push	ebp
	mov	ebp, esp
	push	ecx
	mov	DWORD PTR [ebp-4], -858993460		; ccccccccH
	mov	DWORD PTR _this$[ebp], ecx

; 166  : 		{	// construct by copying (do nothing)
; 167  : 		}

	mov	eax, DWORD PTR _this$[ebp]
	mov	esp, ebp
	pop	ebp
	ret	4
??0?$allocator@D@std@@QAE@ABV01@@Z ENDP			; std::allocator<char>::allocator<char>
_TEXT	ENDS
PUBLIC	?_Grow@?$basic_string@DU?$char_traits@D@std@@V?$allocator@D@2@@std@@QAE_NI_N@Z ; std::basic_string<char,std::char_traits<char>,std::allocator<char> >::_Grow
PUBLIC	?assign@?$basic_string@DU?$char_traits@D@std@@V?$allocator@D@2@@std@@QAEAAV12@ABV12@II@Z ; std::basic_string<char,std::char_traits<char>,std::allocator<char> >::assign
PUBLIC	?_Myptr@?$basic_string@DU?$char_traits@D@std@@V?$allocator@D@2@@std@@QAEPADXZ ; std::basic_string<char,std::char_traits<char>,std::allocator<char> >::_Myptr
PUBLIC	?_Inside@?$basic_string@DU?$char_traits@D@std@@V?$allocator@D@2@@std@@QAE_NPBD@Z ; std::basic_string<char,std::char_traits<char>,std::allocator<char> >::_Inside
; Function compile flags: /Odtp /RTCsu
; File c:\program files (x86)\microsoft visual studio 10.0\vc\include\xstring
;	COMDAT ?assign@?$basic_string@DU?$char_traits@D@std@@V?$allocator@D@2@@std@@QAEAAV12@PBDI@Z
_TEXT	SEGMENT
_this$ = -4						; size = 4
__Ptr$ = 8						; size = 4
__Count$ = 12						; size = 4
?assign@?$basic_string@DU?$char_traits@D@std@@V?$allocator@D@2@@std@@QAEAAV12@PBDI@Z PROC ; std::basic_string<char,std::char_traits<char>,std::allocator<char> >::assign, COMDAT
; _this$ = ecx

; 910  : 		{	// assign [_Ptr, _Ptr + _Count)

	push	ebp
	mov	ebp, esp
	push	ecx
	mov	DWORD PTR [ebp-4], -858993460		; ccccccccH
	mov	DWORD PTR _this$[ebp], ecx

; 911  :  #if _ITERATOR_DEBUG_LEVEL == 2
; 912  : 		if (_Count != 0)

	cmp	DWORD PTR __Count$[ebp], 0
	je	SHORT $LN3@assign

; 913  : 			_DEBUG_POINTER(_Ptr);

	push	913					; 00000391H
	push	OFFSET ??_C@_1IO@FJMIILFL@?$AAc?$AA?3?$AA?2?$AAP?$AAr?$AAo?$AAg?$AAr?$AAa?$AAm?$AA?5?$AAF?$AAi?$AAl?$AAe?$AAs?$AA?5?$AA?$CI?$AAx?$AA8?$AA6?$AA?$CJ?$AA?2?$AAM?$AAi?$AAc?$AAr?$AAo?$AAs?$AAo?$AAf?$AAt@
	mov	eax, DWORD PTR __Ptr$[ebp]
	push	eax
	call	??$_Debug_pointer@D@std@@YAXPBDPB_WI@Z	; std::_Debug_pointer<char>
	add	esp, 12					; 0000000cH
$LN3@assign:

; 914  :  #endif /* _ITERATOR_DEBUG_LEVEL == 2 */
; 915  : 
; 916  : 		if (_Inside(_Ptr))

	mov	ecx, DWORD PTR __Ptr$[ebp]
	push	ecx
	mov	ecx, DWORD PTR _this$[ebp]
	call	?_Inside@?$basic_string@DU?$char_traits@D@std@@V?$allocator@D@2@@std@@QAE_NPBD@Z ; std::basic_string<char,std::char_traits<char>,std::allocator<char> >::_Inside
	movzx	edx, al
	test	edx, edx
	je	SHORT $LN2@assign

; 917  : 			return (assign(*this, _Ptr - _Myptr(), _Count));	// substring

	mov	eax, DWORD PTR __Count$[ebp]
	push	eax
	mov	ecx, DWORD PTR _this$[ebp]
	call	?_Myptr@?$basic_string@DU?$char_traits@D@std@@V?$allocator@D@2@@std@@QAEPADXZ ; std::basic_string<char,std::char_traits<char>,std::allocator<char> >::_Myptr
	mov	ecx, DWORD PTR __Ptr$[ebp]
	sub	ecx, eax
	push	ecx
	mov	edx, DWORD PTR _this$[ebp]
	push	edx
	mov	ecx, DWORD PTR _this$[ebp]
	call	?assign@?$basic_string@DU?$char_traits@D@std@@V?$allocator@D@2@@std@@QAEAAV12@ABV12@II@Z ; std::basic_string<char,std::char_traits<char>,std::allocator<char> >::assign
	jmp	SHORT $LN4@assign
$LN2@assign:

; 918  : 
; 919  : 		if (_Grow(_Count))

	push	0
	mov	eax, DWORD PTR __Count$[ebp]
	push	eax
	mov	ecx, DWORD PTR _this$[ebp]
	call	?_Grow@?$basic_string@DU?$char_traits@D@std@@V?$allocator@D@2@@std@@QAE_NI_N@Z ; std::basic_string<char,std::char_traits<char>,std::allocator<char> >::_Grow
	movzx	ecx, al
	test	ecx, ecx
	je	SHORT $LN1@assign

; 920  : 			{	// make room and assign new stuff
; 921  : 			_Traits::copy(_Myptr(), _Ptr, _Count);

	mov	edx, DWORD PTR __Count$[ebp]
	push	edx
	mov	eax, DWORD PTR __Ptr$[ebp]
	push	eax
	mov	ecx, DWORD PTR _this$[ebp]
	call	?_Myptr@?$basic_string@DU?$char_traits@D@std@@V?$allocator@D@2@@std@@QAEPADXZ ; std::basic_string<char,std::char_traits<char>,std::allocator<char> >::_Myptr
	push	eax
	call	?copy@?$char_traits@D@std@@SAPADPADPBDI@Z ; std::char_traits<char>::copy
	add	esp, 12					; 0000000cH

; 922  : 			_Eos(_Count);

	mov	ecx, DWORD PTR __Count$[ebp]
	push	ecx
	mov	ecx, DWORD PTR _this$[ebp]
	call	?_Eos@?$basic_string@DU?$char_traits@D@std@@V?$allocator@D@2@@std@@QAEXI@Z ; std::basic_string<char,std::char_traits<char>,std::allocator<char> >::_Eos
$LN1@assign:

; 923  : 			}
; 924  : 		return (*this);

	mov	eax, DWORD PTR _this$[ebp]
$LN4@assign:

; 925  : 		}

	add	esp, 4
	cmp	ebp, esp
	call	__RTC_CheckEsp
	mov	esp, ebp
	pop	ebp
	ret	8
?assign@?$basic_string@DU?$char_traits@D@std@@V?$allocator@D@2@@std@@QAEAAV12@PBDI@Z ENDP ; std::basic_string<char,std::char_traits<char>,std::allocator<char> >::assign
_TEXT	ENDS
PUBLIC	?assign@?$char_traits@D@std@@SAXAADABD@Z	; std::char_traits<char>::assign
; Function compile flags: /Odtp /RTCsu
;	COMDAT ?_Eos@?$basic_string@DU?$char_traits@D@std@@V?$allocator@D@2@@std@@QAEXI@Z
_TEXT	SEGMENT
$T147003 = -5						; size = 1
_this$ = -4						; size = 4
__Newsize$ = 8						; size = 4
?_Eos@?$basic_string@DU?$char_traits@D@std@@V?$allocator@D@2@@std@@QAEXI@Z PROC ; std::basic_string<char,std::char_traits<char>,std::allocator<char> >::_Eos, COMDAT
; _this$ = ecx

; 1952 : 		{	// set new length and null terminator

	push	ebp
	mov	ebp, esp
	sub	esp, 8
	mov	DWORD PTR [ebp-8], -858993460		; ccccccccH
	mov	DWORD PTR [ebp-4], -858993460		; ccccccccH
	mov	DWORD PTR _this$[ebp], ecx

; 1953 : 		_Traits::assign(_Myptr()[this->_Mysize = _Newsize], _Elem());

	mov	BYTE PTR $T147003[ebp], 0
	mov	eax, DWORD PTR _this$[ebp]
	mov	ecx, DWORD PTR __Newsize$[ebp]
	mov	DWORD PTR [eax+20], ecx
	lea	edx, DWORD PTR $T147003[ebp]
	push	edx
	mov	ecx, DWORD PTR _this$[ebp]
	call	?_Myptr@?$basic_string@DU?$char_traits@D@std@@V?$allocator@D@2@@std@@QAEPADXZ ; std::basic_string<char,std::char_traits<char>,std::allocator<char> >::_Myptr
	add	eax, DWORD PTR __Newsize$[ebp]
	push	eax
	call	?assign@?$char_traits@D@std@@SAXAADABD@Z ; std::char_traits<char>::assign
	add	esp, 8

; 1954 : 		}

	add	esp, 8
	cmp	ebp, esp
	call	__RTC_CheckEsp
	mov	esp, ebp
	pop	ebp
	ret	4
?_Eos@?$basic_string@DU?$char_traits@D@std@@V?$allocator@D@2@@std@@QAEXI@Z ENDP ; std::basic_string<char,std::char_traits<char>,std::allocator<char> >::_Eos
; Function compile flags: /Odtp /RTCsu
; File c:\program files (x86)\microsoft visual studio 10.0\vc\include\iosfwd
_TEXT	ENDS
;	COMDAT ?assign@?$char_traits@D@std@@SAXAADABD@Z
_TEXT	SEGMENT
__Left$ = 8						; size = 4
__Right$ = 12						; size = 4
?assign@?$char_traits@D@std@@SAXAADABD@Z PROC		; std::char_traits<char>::assign, COMDAT

; 526  : 		{	// assign an element

	push	ebp
	mov	ebp, esp

; 527  : 		_Left = _Right;

	mov	eax, DWORD PTR __Left$[ebp]
	mov	ecx, DWORD PTR __Right$[ebp]
	mov	dl, BYTE PTR [ecx]
	mov	BYTE PTR [eax], dl

; 528  : 		}

	pop	ebp
	ret	0
?assign@?$char_traits@D@std@@SAXAADABD@Z ENDP		; std::char_traits<char>::assign
_TEXT	ENDS
PUBLIC	?_Copy@?$basic_string@DU?$char_traits@D@std@@V?$allocator@D@2@@std@@QAEXII@Z ; std::basic_string<char,std::char_traits<char>,std::allocator<char> >::_Copy
PUBLIC	?_Xlen@?$basic_string@DU?$char_traits@D@std@@V?$allocator@D@2@@std@@QBEXXZ ; std::basic_string<char,std::char_traits<char>,std::allocator<char> >::_Xlen
PUBLIC	?max_size@?$basic_string@DU?$char_traits@D@std@@V?$allocator@D@2@@std@@QBEIXZ ; std::basic_string<char,std::char_traits<char>,std::allocator<char> >::max_size
; Function compile flags: /Odtp /RTCsu
; File c:\program files (x86)\microsoft visual studio 10.0\vc\include\xstring
;	COMDAT ?_Grow@?$basic_string@DU?$char_traits@D@std@@V?$allocator@D@2@@std@@QAE_NI_N@Z
_TEXT	SEGMENT
tv129 = -8						; size = 4
_this$ = -4						; size = 4
__Newsize$ = 8						; size = 4
__Trim$ = 12						; size = 1
?_Grow@?$basic_string@DU?$char_traits@D@std@@V?$allocator@D@2@@std@@QAE_NI_N@Z PROC ; std::basic_string<char,std::char_traits<char>,std::allocator<char> >::_Grow, COMDAT
; _this$ = ecx

; 1958 : 		{	// ensure buffer is big enough, trim to size if _Trim is true

	push	ebp
	mov	ebp, esp
	sub	esp, 8
	mov	DWORD PTR [ebp-8], -858993460		; ccccccccH
	mov	DWORD PTR [ebp-4], -858993460		; ccccccccH
	mov	DWORD PTR _this$[ebp], ecx

; 1959 : 		if (max_size() < _Newsize)

	mov	ecx, DWORD PTR _this$[ebp]
	call	?max_size@?$basic_string@DU?$char_traits@D@std@@V?$allocator@D@2@@std@@QBEIXZ ; std::basic_string<char,std::char_traits<char>,std::allocator<char> >::max_size
	cmp	eax, DWORD PTR __Newsize$[ebp]
	jae	SHORT $LN6@Grow

; 1960 : 			_Xlen();	// result too long

	mov	ecx, DWORD PTR _this$[ebp]
	call	?_Xlen@?$basic_string@DU?$char_traits@D@std@@V?$allocator@D@2@@std@@QBEXXZ ; std::basic_string<char,std::char_traits<char>,std::allocator<char> >::_Xlen
$LN6@Grow:

; 1961 : 		if (this->_Myres < _Newsize)

	mov	eax, DWORD PTR _this$[ebp]
	mov	ecx, DWORD PTR [eax+24]
	cmp	ecx, DWORD PTR __Newsize$[ebp]
	jae	SHORT $LN5@Grow

; 1962 : 			_Copy(_Newsize, this->_Mysize);	// reallocate to grow

	mov	edx, DWORD PTR _this$[ebp]
	mov	eax, DWORD PTR [edx+20]
	push	eax
	mov	ecx, DWORD PTR __Newsize$[ebp]
	push	ecx
	mov	ecx, DWORD PTR _this$[ebp]
	call	?_Copy@?$basic_string@DU?$char_traits@D@std@@V?$allocator@D@2@@std@@QAEXII@Z ; std::basic_string<char,std::char_traits<char>,std::allocator<char> >::_Copy
	jmp	SHORT $LN4@Grow
$LN5@Grow:

; 1963 : 		else if (_Trim && _Newsize < this->_BUF_SIZE)

	movzx	edx, BYTE PTR __Trim$[ebp]
	test	edx, edx
	je	SHORT $LN3@Grow
	cmp	DWORD PTR __Newsize$[ebp], 16		; 00000010H
	jae	SHORT $LN3@Grow

; 1964 : 			_Tidy(true,	// copy and deallocate if trimming to small string
; 1965 : 				_Newsize < this->_Mysize ? _Newsize : this->_Mysize);

	mov	eax, DWORD PTR _this$[ebp]
	mov	ecx, DWORD PTR __Newsize$[ebp]
	cmp	ecx, DWORD PTR [eax+20]
	jae	SHORT $LN9@Grow
	mov	edx, DWORD PTR __Newsize$[ebp]
	mov	DWORD PTR tv129[ebp], edx
	jmp	SHORT $LN10@Grow
$LN9@Grow:
	mov	eax, DWORD PTR _this$[ebp]
	mov	ecx, DWORD PTR [eax+20]
	mov	DWORD PTR tv129[ebp], ecx
$LN10@Grow:
	mov	edx, DWORD PTR tv129[ebp]
	push	edx
	push	1
	mov	ecx, DWORD PTR _this$[ebp]
	call	?_Tidy@?$basic_string@DU?$char_traits@D@std@@V?$allocator@D@2@@std@@QAEX_NI@Z ; std::basic_string<char,std::char_traits<char>,std::allocator<char> >::_Tidy
	jmp	SHORT $LN4@Grow
$LN3@Grow:

; 1966 : 		else if (_Newsize == 0)

	cmp	DWORD PTR __Newsize$[ebp], 0
	jne	SHORT $LN4@Grow

; 1967 : 			_Eos(0);	// new size is zero, just null terminate

	push	0
	mov	ecx, DWORD PTR _this$[ebp]
	call	?_Eos@?$basic_string@DU?$char_traits@D@std@@V?$allocator@D@2@@std@@QAEXI@Z ; std::basic_string<char,std::char_traits<char>,std::allocator<char> >::_Eos
$LN4@Grow:

; 1968 : 		return (0 < _Newsize);	// return true only if more work to do

	xor	eax, eax
	cmp	eax, DWORD PTR __Newsize$[ebp]
	sbb	eax, eax
	neg	eax
$LN8@Grow:

; 1969 : 		}

	add	esp, 8
	cmp	ebp, esp
	call	__RTC_CheckEsp
	mov	esp, ebp
	pop	ebp
	ret	8
?_Grow@?$basic_string@DU?$char_traits@D@std@@V?$allocator@D@2@@std@@QAE_NI_N@Z ENDP ; std::basic_string<char,std::char_traits<char>,std::allocator<char> >::_Grow
; Function compile flags: /Odtp /RTCsu
_TEXT	ENDS
;	COMDAT ?_Myptr@?$basic_string@DU?$char_traits@D@std@@V?$allocator@D@2@@std@@QAEPADXZ
_TEXT	SEGMENT
tv82 = -8						; size = 4
_this$ = -4						; size = 4
?_Myptr@?$basic_string@DU?$char_traits@D@std@@V?$allocator@D@2@@std@@QAEPADXZ PROC ; std::basic_string<char,std::char_traits<char>,std::allocator<char> >::_Myptr, COMDAT
; _this$ = ecx

; 2002 : 		{	// determine current pointer to buffer for mutable string

	push	ebp
	mov	ebp, esp
	sub	esp, 8
	mov	DWORD PTR [ebp-8], -858993460		; ccccccccH
	mov	DWORD PTR [ebp-4], -858993460		; ccccccccH
	mov	DWORD PTR _this$[ebp], ecx

; 2003 : 		return (this->_BUF_SIZE <= this->_Myres ? this->_Bx._Ptr
; 2004 : 			: this->_Bx._Buf);

	mov	eax, DWORD PTR _this$[ebp]
	cmp	DWORD PTR [eax+24], 16			; 00000010H
	jb	SHORT $LN3@Myptr@2
	mov	ecx, DWORD PTR _this$[ebp]
	mov	edx, DWORD PTR [ecx+4]
	mov	DWORD PTR tv82[ebp], edx
	jmp	SHORT $LN4@Myptr@2
$LN3@Myptr@2:
	mov	eax, DWORD PTR _this$[ebp]
	add	eax, 4
	mov	DWORD PTR tv82[ebp], eax
$LN4@Myptr@2:
	mov	eax, DWORD PTR tv82[ebp]

; 2005 : 		}

	mov	esp, ebp
	pop	ebp
	ret	0
?_Myptr@?$basic_string@DU?$char_traits@D@std@@V?$allocator@D@2@@std@@QAEPADXZ ENDP ; std::basic_string<char,std::char_traits<char>,std::allocator<char> >::_Myptr
_TEXT	ENDS
PUBLIC	??_C@_0BA@JFNIOLAK@string?5too?5long?$AA@	; `string'
EXTRN	?_Xlength_error@std@@YAXPBD@Z:PROC		; std::_Xlength_error
;	COMDAT ??_C@_0BA@JFNIOLAK@string?5too?5long?$AA@
CONST	SEGMENT
??_C@_0BA@JFNIOLAK@string?5too?5long?$AA@ DB 'string too long', 00H ; `string'
; Function compile flags: /Odtp /RTCsu
CONST	ENDS
;	COMDAT ?_Xlen@?$basic_string@DU?$char_traits@D@std@@V?$allocator@D@2@@std@@QBEXXZ
_TEXT	SEGMENT
_this$ = -4						; size = 4
?_Xlen@?$basic_string@DU?$char_traits@D@std@@V?$allocator@D@2@@std@@QBEXXZ PROC ; std::basic_string<char,std::char_traits<char>,std::allocator<char> >::_Xlen, COMDAT
; _this$ = ecx

; 2014 : 		{	// report a length_error

	push	ebp
	mov	ebp, esp
	push	ecx
	mov	DWORD PTR [ebp-4], -858993460		; ccccccccH
	mov	DWORD PTR _this$[ebp], ecx

; 2015 : 		_Xlength_error("string too long");

	push	OFFSET ??_C@_0BA@JFNIOLAK@string?5too?5long?$AA@
	call	?_Xlength_error@std@@YAXPBD@Z		; std::_Xlength_error
$LN2@Xlen:

; 2016 : 		}

	add	esp, 4
	cmp	ebp, esp
	call	__RTC_CheckEsp
	mov	esp, ebp
	pop	ebp
	ret	0
?_Xlen@?$basic_string@DU?$char_traits@D@std@@V?$allocator@D@2@@std@@QBEXXZ ENDP ; std::basic_string<char,std::char_traits<char>,std::allocator<char> >::_Xlen
_TEXT	ENDS
EXTRN	??3@YAXPAX@Z:PROC				; operator delete
; Function compile flags: /Odtp /RTCsu
; File c:\program files (x86)\microsoft visual studio 10.0\vc\include\xmemory
;	COMDAT ?deallocate@?$allocator@D@std@@QAEXPADI@Z
_TEXT	SEGMENT
_this$ = -4						; size = 4
__Ptr$ = 8						; size = 4
___formal$ = 12						; size = 4
?deallocate@?$allocator@D@std@@QAEXPADI@Z PROC		; std::allocator<char>::deallocate, COMDAT
; _this$ = ecx

; 181  : 		{	// deallocate object at _Ptr, ignore size

	push	ebp
	mov	ebp, esp
	push	ecx
	mov	DWORD PTR [ebp-4], -858993460		; ccccccccH
	mov	DWORD PTR _this$[ebp], ecx

; 182  : 		::operator delete(_Ptr);

	mov	eax, DWORD PTR __Ptr$[ebp]
	push	eax
	call	??3@YAXPAX@Z				; operator delete
	add	esp, 4

; 183  : 		}

	add	esp, 4
	cmp	ebp, esp
	call	__RTC_CheckEsp
	mov	esp, ebp
	pop	ebp
	ret	8
?deallocate@?$allocator@D@std@@QAEXPADI@Z ENDP		; std::allocator<char>::deallocate
; Function compile flags: /Odtp /RTCsu
_TEXT	ENDS
;	COMDAT ?deallocate@?$allocator@U_Container_proxy@std@@@std@@QAEXPAU_Container_proxy@2@I@Z
_TEXT	SEGMENT
_this$ = -4						; size = 4
__Ptr$ = 8						; size = 4
___formal$ = 12						; size = 4
?deallocate@?$allocator@U_Container_proxy@std@@@std@@QAEXPAU_Container_proxy@2@I@Z PROC ; std::allocator<std::_Container_proxy>::deallocate, COMDAT
; _this$ = ecx

; 181  : 		{	// deallocate object at _Ptr, ignore size

	push	ebp
	mov	ebp, esp
	push	ecx
	mov	DWORD PTR [ebp-4], -858993460		; ccccccccH
	mov	DWORD PTR _this$[ebp], ecx

; 182  : 		::operator delete(_Ptr);

	mov	eax, DWORD PTR __Ptr$[ebp]
	push	eax
	call	??3@YAXPAX@Z				; operator delete
	add	esp, 4

; 183  : 		}

	add	esp, 4
	cmp	ebp, esp
	call	__RTC_CheckEsp
	mov	esp, ebp
	pop	ebp
	ret	8
?deallocate@?$allocator@U_Container_proxy@std@@@std@@QAEXPAU_Container_proxy@2@I@Z ENDP ; std::allocator<std::_Container_proxy>::deallocate
_TEXT	ENDS
PUBLIC	??$_Allocate@U_Container_proxy@std@@@std@@YAPAU_Container_proxy@0@IPAU10@@Z ; std::_Allocate<std::_Container_proxy>
; Function compile flags: /Odtp /RTCsu
;	COMDAT ?allocate@?$allocator@U_Container_proxy@std@@@std@@QAEPAU_Container_proxy@2@I@Z
_TEXT	SEGMENT
_this$ = -4						; size = 4
__Count$ = 8						; size = 4
?allocate@?$allocator@U_Container_proxy@std@@@std@@QAEPAU_Container_proxy@2@I@Z PROC ; std::allocator<std::_Container_proxy>::allocate, COMDAT
; _this$ = ecx

; 186  : 		{	// allocate array of _Count elements

	push	ebp
	mov	ebp, esp
	push	ecx
	mov	DWORD PTR [ebp-4], -858993460		; ccccccccH
	mov	DWORD PTR _this$[ebp], ecx

; 187  : 		return (_Allocate(_Count, (pointer)0));

	push	0
	mov	eax, DWORD PTR __Count$[ebp]
	push	eax
	call	??$_Allocate@U_Container_proxy@std@@@std@@YAPAU_Container_proxy@0@IPAU10@@Z ; std::_Allocate<std::_Container_proxy>
	add	esp, 8

; 188  : 		}

	add	esp, 4
	cmp	ebp, esp
	call	__RTC_CheckEsp
	mov	esp, ebp
	pop	ebp
	ret	4
?allocate@?$allocator@U_Container_proxy@std@@@std@@QAEPAU_Container_proxy@2@I@Z ENDP ; std::allocator<std::_Container_proxy>::allocate
_TEXT	ENDS
PUBLIC	?erase@?$basic_string@DU?$char_traits@D@std@@V?$allocator@D@2@@std@@QAEAAV12@II@Z ; std::basic_string<char,std::char_traits<char>,std::allocator<char> >::erase
PUBLIC	?npos@?$basic_string@DU?$char_traits@D@std@@V?$allocator@D@2@@std@@2IB ; std::basic_string<char,std::char_traits<char>,std::allocator<char> >::npos
PUBLIC	?_Xran@?$basic_string@DU?$char_traits@D@std@@V?$allocator@D@2@@std@@QBEXXZ ; std::basic_string<char,std::char_traits<char>,std::allocator<char> >::_Xran
;	COMDAT ?npos@?$basic_string@DU?$char_traits@D@std@@V?$allocator@D@2@@std@@2IB
; File c:\program files (x86)\microsoft visual studio 10.0\vc\include\xstring
CONST	SEGMENT
?npos@?$basic_string@DU?$char_traits@D@std@@V?$allocator@D@2@@std@@2IB DD 0ffffffffH ; std::basic_string<char,std::char_traits<char>,std::allocator<char> >::npos
; Function compile flags: /Odtp /RTCsu
CONST	ENDS
;	COMDAT ?assign@?$basic_string@DU?$char_traits@D@std@@V?$allocator@D@2@@std@@QAEAAV12@ABV12@II@Z
_TEXT	SEGMENT
__Num$ = -8						; size = 4
_this$ = -4						; size = 4
__Right$ = 8						; size = 4
__Roff$ = 12						; size = 4
__Count$ = 16						; size = 4
?assign@?$basic_string@DU?$char_traits@D@std@@V?$allocator@D@2@@std@@QAEAAV12@ABV12@II@Z PROC ; std::basic_string<char,std::char_traits<char>,std::allocator<char> >::assign, COMDAT
; _this$ = ecx

; 892  : 		{	// assign _Right [_Roff, _Roff + _Count)

	push	ebp
	mov	ebp, esp
	sub	esp, 8
	mov	DWORD PTR [ebp-8], -858993460		; ccccccccH
	mov	DWORD PTR [ebp-4], -858993460		; ccccccccH
	mov	DWORD PTR _this$[ebp], ecx

; 893  : 		if (_Right.size() < _Roff)

	mov	ecx, DWORD PTR __Right$[ebp]
	call	?size@?$basic_string@DU?$char_traits@D@std@@V?$allocator@D@2@@std@@QBEIXZ ; std::basic_string<char,std::char_traits<char>,std::allocator<char> >::size
	cmp	eax, DWORD PTR __Roff$[ebp]
	jae	SHORT $LN5@assign@2

; 894  : 			_Xran();	// _Roff off end

	mov	ecx, DWORD PTR _this$[ebp]
	call	?_Xran@?$basic_string@DU?$char_traits@D@std@@V?$allocator@D@2@@std@@QBEXXZ ; std::basic_string<char,std::char_traits<char>,std::allocator<char> >::_Xran
$LN5@assign@2:

; 895  : 		size_type _Num = _Right.size() - _Roff;

	mov	ecx, DWORD PTR __Right$[ebp]
	call	?size@?$basic_string@DU?$char_traits@D@std@@V?$allocator@D@2@@std@@QBEIXZ ; std::basic_string<char,std::char_traits<char>,std::allocator<char> >::size
	sub	eax, DWORD PTR __Roff$[ebp]
	mov	DWORD PTR __Num$[ebp], eax

; 896  : 		if (_Count < _Num)

	mov	eax, DWORD PTR __Count$[ebp]
	cmp	eax, DWORD PTR __Num$[ebp]
	jae	SHORT $LN4@assign@2

; 897  : 			_Num = _Count;	// trim _Num to size

	mov	ecx, DWORD PTR __Count$[ebp]
	mov	DWORD PTR __Num$[ebp], ecx
$LN4@assign@2:

; 898  : 
; 899  : 		if (this == &_Right)

	mov	edx, DWORD PTR _this$[ebp]
	cmp	edx, DWORD PTR __Right$[ebp]
	jne	SHORT $LN3@assign@2

; 900  : 			erase((size_type)(_Roff + _Num)), erase(0, _Roff);	// substring

	mov	eax, DWORD PTR ?npos@?$basic_string@DU?$char_traits@D@std@@V?$allocator@D@2@@std@@2IB ; std::basic_string<char,std::char_traits<char>,std::allocator<char> >::npos
	push	eax
	mov	ecx, DWORD PTR __Roff$[ebp]
	add	ecx, DWORD PTR __Num$[ebp]
	push	ecx
	mov	ecx, DWORD PTR _this$[ebp]
	call	?erase@?$basic_string@DU?$char_traits@D@std@@V?$allocator@D@2@@std@@QAEAAV12@II@Z ; std::basic_string<char,std::char_traits<char>,std::allocator<char> >::erase
	mov	edx, DWORD PTR __Roff$[ebp]
	push	edx
	push	0
	mov	ecx, DWORD PTR _this$[ebp]
	call	?erase@?$basic_string@DU?$char_traits@D@std@@V?$allocator@D@2@@std@@QAEAAV12@II@Z ; std::basic_string<char,std::char_traits<char>,std::allocator<char> >::erase
	jmp	SHORT $LN2@assign@2
$LN3@assign@2:

; 901  : 		else if (_Grow(_Num))

	push	0
	mov	eax, DWORD PTR __Num$[ebp]
	push	eax
	mov	ecx, DWORD PTR _this$[ebp]
	call	?_Grow@?$basic_string@DU?$char_traits@D@std@@V?$allocator@D@2@@std@@QAE_NI_N@Z ; std::basic_string<char,std::char_traits<char>,std::allocator<char> >::_Grow
	movzx	ecx, al
	test	ecx, ecx
	je	SHORT $LN2@assign@2

; 902  : 			{	// make room and assign new stuff
; 903  : 			_Traits::copy(_Myptr(), _Right._Myptr() + _Roff, _Num);

	mov	edx, DWORD PTR __Num$[ebp]
	push	edx
	mov	ecx, DWORD PTR __Right$[ebp]
	call	?_Myptr@?$basic_string@DU?$char_traits@D@std@@V?$allocator@D@2@@std@@QBEPBDXZ ; std::basic_string<char,std::char_traits<char>,std::allocator<char> >::_Myptr
	add	eax, DWORD PTR __Roff$[ebp]
	push	eax
	mov	ecx, DWORD PTR _this$[ebp]
	call	?_Myptr@?$basic_string@DU?$char_traits@D@std@@V?$allocator@D@2@@std@@QAEPADXZ ; std::basic_string<char,std::char_traits<char>,std::allocator<char> >::_Myptr
	push	eax
	call	?copy@?$char_traits@D@std@@SAPADPADPBDI@Z ; std::char_traits<char>::copy
	add	esp, 12					; 0000000cH

; 904  : 			_Eos(_Num);

	mov	eax, DWORD PTR __Num$[ebp]
	push	eax
	mov	ecx, DWORD PTR _this$[ebp]
	call	?_Eos@?$basic_string@DU?$char_traits@D@std@@V?$allocator@D@2@@std@@QAEXI@Z ; std::basic_string<char,std::char_traits<char>,std::allocator<char> >::_Eos
$LN2@assign@2:

; 905  : 			}
; 906  : 		return (*this);

	mov	eax, DWORD PTR _this$[ebp]
$LN7@assign@2:

; 907  : 		}

	add	esp, 8
	cmp	ebp, esp
	call	__RTC_CheckEsp
	mov	esp, ebp
	pop	ebp
	ret	12					; 0000000cH
?assign@?$basic_string@DU?$char_traits@D@std@@V?$allocator@D@2@@std@@QAEAAV12@ABV12@II@Z ENDP ; std::basic_string<char,std::char_traits<char>,std::allocator<char> >::assign
_TEXT	ENDS
PUBLIC	?move@?$char_traits@D@std@@SAPADPADPBDI@Z	; std::char_traits<char>::move
; Function compile flags: /Odtp /RTCsu
;	COMDAT ?erase@?$basic_string@DU?$char_traits@D@std@@V?$allocator@D@2@@std@@QAEAAV12@II@Z
_TEXT	SEGMENT
__Newsize$138991 = -8					; size = 4
_this$ = -4						; size = 4
__Off$ = 8						; size = 4
__Count$ = 12						; size = 4
?erase@?$basic_string@DU?$char_traits@D@std@@V?$allocator@D@2@@std@@QAEAAV12@II@Z PROC ; std::basic_string<char,std::char_traits<char>,std::allocator<char> >::erase, COMDAT
; _this$ = ecx

; 1108 : 		{	// erase elements [_Off, _Off + _Count)

	push	ebp
	mov	ebp, esp
	sub	esp, 8
	mov	DWORD PTR [ebp-8], -858993460		; ccccccccH
	mov	DWORD PTR [ebp-4], -858993460		; ccccccccH
	mov	DWORD PTR _this$[ebp], ecx

; 1109 : 		if (this->_Mysize < _Off)

	mov	eax, DWORD PTR _this$[ebp]
	mov	ecx, DWORD PTR [eax+20]
	cmp	ecx, DWORD PTR __Off$[ebp]
	jae	SHORT $LN3@erase

; 1110 : 			_Xran();	// _Off off end

	mov	ecx, DWORD PTR _this$[ebp]
	call	?_Xran@?$basic_string@DU?$char_traits@D@std@@V?$allocator@D@2@@std@@QBEXXZ ; std::basic_string<char,std::char_traits<char>,std::allocator<char> >::_Xran
$LN3@erase:

; 1111 : 		if (this->_Mysize - _Off < _Count)

	mov	edx, DWORD PTR _this$[ebp]
	mov	eax, DWORD PTR [edx+20]
	sub	eax, DWORD PTR __Off$[ebp]
	cmp	eax, DWORD PTR __Count$[ebp]
	jae	SHORT $LN2@erase

; 1112 : 			_Count = this->_Mysize - _Off;	// trim _Count

	mov	ecx, DWORD PTR _this$[ebp]
	mov	edx, DWORD PTR [ecx+20]
	sub	edx, DWORD PTR __Off$[ebp]
	mov	DWORD PTR __Count$[ebp], edx
$LN2@erase:

; 1113 : 		if (0 < _Count)

	cmp	DWORD PTR __Count$[ebp], 0
	jbe	SHORT $LN1@erase

; 1114 : 			{	// move elements down
; 1115 : 			_Traits::move(_Myptr() + _Off, _Myptr() + _Off + _Count,
; 1116 : 				this->_Mysize - _Off - _Count);

	mov	eax, DWORD PTR _this$[ebp]
	mov	ecx, DWORD PTR [eax+20]
	sub	ecx, DWORD PTR __Off$[ebp]
	sub	ecx, DWORD PTR __Count$[ebp]
	push	ecx
	mov	ecx, DWORD PTR _this$[ebp]
	call	?_Myptr@?$basic_string@DU?$char_traits@D@std@@V?$allocator@D@2@@std@@QAEPADXZ ; std::basic_string<char,std::char_traits<char>,std::allocator<char> >::_Myptr
	add	eax, DWORD PTR __Off$[ebp]
	add	eax, DWORD PTR __Count$[ebp]
	push	eax
	mov	ecx, DWORD PTR _this$[ebp]
	call	?_Myptr@?$basic_string@DU?$char_traits@D@std@@V?$allocator@D@2@@std@@QAEPADXZ ; std::basic_string<char,std::char_traits<char>,std::allocator<char> >::_Myptr
	add	eax, DWORD PTR __Off$[ebp]
	push	eax
	call	?move@?$char_traits@D@std@@SAPADPADPBDI@Z ; std::char_traits<char>::move
	add	esp, 12					; 0000000cH

; 1117 : 			size_type _Newsize = this->_Mysize - _Count;

	mov	edx, DWORD PTR _this$[ebp]
	mov	eax, DWORD PTR [edx+20]
	sub	eax, DWORD PTR __Count$[ebp]
	mov	DWORD PTR __Newsize$138991[ebp], eax

; 1118 : 			_Eos(_Newsize);

	mov	ecx, DWORD PTR __Newsize$138991[ebp]
	push	ecx
	mov	ecx, DWORD PTR _this$[ebp]
	call	?_Eos@?$basic_string@DU?$char_traits@D@std@@V?$allocator@D@2@@std@@QAEXI@Z ; std::basic_string<char,std::char_traits<char>,std::allocator<char> >::_Eos
$LN1@erase:

; 1119 : 			}
; 1120 : 		return (*this);

	mov	eax, DWORD PTR _this$[ebp]
$LN5@erase:

; 1121 : 		}

	add	esp, 8
	cmp	ebp, esp
	call	__RTC_CheckEsp
	mov	esp, ebp
	pop	ebp
	ret	8
?erase@?$basic_string@DU?$char_traits@D@std@@V?$allocator@D@2@@std@@QAEAAV12@II@Z ENDP ; std::basic_string<char,std::char_traits<char>,std::allocator<char> >::erase
_TEXT	ENDS
EXTRN	_memmove:PROC
; Function compile flags: /Odtp /RTCsu
; File c:\program files (x86)\microsoft visual studio 10.0\vc\include\iosfwd
;	COMDAT ?move@?$char_traits@D@std@@SAPADPADPBDI@Z
_TEXT	SEGMENT
__First1$ = 8						; size = 4
__First2$ = 12						; size = 4
__Count$ = 16						; size = 4
?move@?$char_traits@D@std@@SAPADPADPBDI@Z PROC		; std::char_traits<char>::move, COMDAT

; 516  : 		{	// copy [_First1, _First1 + _Count) to [_First2, ...)

	push	ebp
	mov	ebp, esp

; 517  : 		return ((_Elem *)_CSTD memmove(_First1, _First2, _Count));

	mov	eax, DWORD PTR __Count$[ebp]
	push	eax
	mov	ecx, DWORD PTR __First2$[ebp]
	push	ecx
	mov	edx, DWORD PTR __First1$[ebp]
	push	edx
	call	_memmove
	add	esp, 12					; 0000000cH

; 518  : 		}

	cmp	ebp, esp
	call	__RTC_CheckEsp
	pop	ebp
	ret	0
?move@?$char_traits@D@std@@SAPADPADPBDI@Z ENDP		; std::char_traits<char>::move
_TEXT	ENDS
PUBLIC	??_C@_0BI@CFPLBAOH@invalid?5string?5position?$AA@ ; `string'
EXTRN	?_Xout_of_range@std@@YAXPBD@Z:PROC		; std::_Xout_of_range
;	COMDAT ??_C@_0BI@CFPLBAOH@invalid?5string?5position?$AA@
; File c:\program files (x86)\microsoft visual studio 10.0\vc\include\xstring
CONST	SEGMENT
??_C@_0BI@CFPLBAOH@invalid?5string?5position?$AA@ DB 'invalid string posi'
	DB	'tion', 00H					; `string'
; Function compile flags: /Odtp /RTCsu
CONST	ENDS
;	COMDAT ?_Xran@?$basic_string@DU?$char_traits@D@std@@V?$allocator@D@2@@std@@QBEXXZ
_TEXT	SEGMENT
_this$ = -4						; size = 4
?_Xran@?$basic_string@DU?$char_traits@D@std@@V?$allocator@D@2@@std@@QBEXXZ PROC ; std::basic_string<char,std::char_traits<char>,std::allocator<char> >::_Xran, COMDAT
; _this$ = ecx

; 2019 : 		{	// report an out_of_range error

	push	ebp
	mov	ebp, esp
	push	ecx
	mov	DWORD PTR [ebp-4], -858993460		; ccccccccH
	mov	DWORD PTR _this$[ebp], ecx

; 2020 : 		_Xout_of_range("invalid string position");

	push	OFFSET ??_C@_0BI@CFPLBAOH@invalid?5string?5position?$AA@
	call	?_Xout_of_range@std@@YAXPBD@Z		; std::_Xout_of_range
$LN2@Xran:

; 2021 : 		}

	add	esp, 4
	cmp	ebp, esp
	call	__RTC_CheckEsp
	mov	esp, ebp
	pop	ebp
	ret	0
?_Xran@?$basic_string@DU?$char_traits@D@std@@V?$allocator@D@2@@std@@QBEXXZ ENDP ; std::basic_string<char,std::char_traits<char>,std::allocator<char> >::_Xran
_TEXT	ENDS
PUBLIC	?max_size@?$allocator@D@std@@QBEIXZ		; std::allocator<char>::max_size
; Function compile flags: /Odtp /RTCsu
;	COMDAT ?max_size@?$basic_string@DU?$char_traits@D@std@@V?$allocator@D@2@@std@@QBEIXZ
_TEXT	SEGMENT
tv73 = -12						; size = 4
__Num$ = -8						; size = 4
_this$ = -4						; size = 4
?max_size@?$basic_string@DU?$char_traits@D@std@@V?$allocator@D@2@@std@@QBEIXZ PROC ; std::basic_string<char,std::char_traits<char>,std::allocator<char> >::max_size, COMDAT
; _this$ = ecx

; 1515 : 		{	// return maximum possible length of sequence

	push	ebp
	mov	ebp, esp
	sub	esp, 12					; 0000000cH
	mov	DWORD PTR [ebp-12], -858993460		; ccccccccH
	mov	DWORD PTR [ebp-8], -858993460		; ccccccccH
	mov	DWORD PTR [ebp-4], -858993460		; ccccccccH
	mov	DWORD PTR _this$[ebp], ecx

; 1516 : 		size_type _Num = this->_Alval.max_size();

	mov	ecx, DWORD PTR _this$[ebp]
	add	ecx, 28					; 0000001cH
	call	?max_size@?$allocator@D@std@@QBEIXZ	; std::allocator<char>::max_size
	mov	DWORD PTR __Num$[ebp], eax

; 1517 : 		return (_Num <= 1 ? 1 : _Num - 1);

	cmp	DWORD PTR __Num$[ebp], 1
	ja	SHORT $LN3@max_size
	mov	DWORD PTR tv73[ebp], 1
	jmp	SHORT $LN4@max_size
$LN3@max_size:
	mov	eax, DWORD PTR __Num$[ebp]
	sub	eax, 1
	mov	DWORD PTR tv73[ebp], eax
$LN4@max_size:
	mov	eax, DWORD PTR tv73[ebp]

; 1518 : 		}

	add	esp, 12					; 0000000cH
	cmp	ebp, esp
	call	__RTC_CheckEsp
	mov	esp, ebp
	pop	ebp
	ret	0
?max_size@?$basic_string@DU?$char_traits@D@std@@V?$allocator@D@2@@std@@QBEIXZ ENDP ; std::basic_string<char,std::char_traits<char>,std::allocator<char> >::max_size
_TEXT	ENDS
PUBLIC	?allocate@?$allocator@D@std@@QAEPADI@Z		; std::allocator<char>::allocate
EXTRN	__CxxThrowException@8:PROC
;	COMDAT xdata$x
xdata$x	SEGMENT
__catchsym$?_Copy@?$basic_string@DU?$char_traits@D@std@@V?$allocator@D@2@@std@@QAEXII@Z$5 DD 040H
	DD	00H
	DD	00H
	DD	FLAT:__catch$?_Copy@?$basic_string@DU?$char_traits@D@std@@V?$allocator@D@2@@std@@QAEXII@Z$0
__catchsym$?_Copy@?$basic_string@DU?$char_traits@D@std@@V?$allocator@D@2@@std@@QAEXII@Z$4 DD 040H
	DD	00H
	DD	00H
	DD	FLAT:__catch$?_Copy@?$basic_string@DU?$char_traits@D@std@@V?$allocator@D@2@@std@@QAEXII@Z$1
__unwindtable$?_Copy@?$basic_string@DU?$char_traits@D@std@@V?$allocator@D@2@@std@@QAEXII@Z DD 0ffffffffH
	DD	00H
	DD	0ffffffffH
	DD	00H
	DD	01H
	DD	00H
	DD	01H
	DD	00H
__ehfuncinfo$?_Copy@?$basic_string@DU?$char_traits@D@std@@V?$allocator@D@2@@std@@QAEXII@Z DD 019930522H
	DD	04H
	DD	FLAT:__unwindtable$?_Copy@?$basic_string@DU?$char_traits@D@std@@V?$allocator@D@2@@std@@QAEXII@Z
	DD	02H
	DD	FLAT:__tryblocktable$?_Copy@?$basic_string@DU?$char_traits@D@std@@V?$allocator@D@2@@std@@QAEXII@Z
	DD	2 DUP(00H)
	DD	00H
	DD	01H
__tryblocktable$?_Copy@?$basic_string@DU?$char_traits@D@std@@V?$allocator@D@2@@std@@QAEXII@Z DD 02H
	DD	02H
	DD	03H
	DD	01H
	DD	FLAT:__catchsym$?_Copy@?$basic_string@DU?$char_traits@D@std@@V?$allocator@D@2@@std@@QAEXII@Z$4
	DD	00H
	DD	00H
	DD	03H
	DD	01H
	DD	FLAT:__catchsym$?_Copy@?$basic_string@DU?$char_traits@D@std@@V?$allocator@D@2@@std@@QAEXII@Z$5
; Function compile flags: /Odtp /RTCsu
xdata$x	ENDS
;	COMDAT ?_Copy@?$basic_string@DU?$char_traits@D@std@@V?$allocator@D@2@@std@@QAEXII@Z
_TEXT	SEGMENT
tv185 = -36						; size = 4
tv184 = -32						; size = 4
__Ptr$ = -28						; size = 4
__Newres$ = -24						; size = 4
_this$ = -20						; size = 4
__$EHRec$ = -16						; size = 16
__Newsize$ = 8						; size = 4
__Oldlen$ = 12						; size = 4
?_Copy@?$basic_string@DU?$char_traits@D@std@@V?$allocator@D@2@@std@@QAEXII@Z PROC ; std::basic_string<char,std::char_traits<char>,std::allocator<char> >::_Copy, COMDAT
; _this$ = ecx

; 1918 : 		{	// copy _Oldlen elements to newly allocated buffer

	push	ebp
	mov	ebp, esp
	push	-1
	push	__ehhandler$?_Copy@?$basic_string@DU?$char_traits@D@std@@V?$allocator@D@2@@std@@QAEXII@Z
	mov	eax, DWORD PTR fs:0
	push	eax
	push	ecx
	sub	esp, 20					; 00000014H
	push	ebx
	push	esi
	push	edi
	mov	eax, -858993460				; ccccccccH
	mov	DWORD PTR [ebp-36], eax
	mov	DWORD PTR [ebp-32], eax
	mov	DWORD PTR [ebp-28], eax
	mov	DWORD PTR [ebp-24], eax
	mov	DWORD PTR [ebp-20], eax
	mov	eax, DWORD PTR ___security_cookie
	xor	eax, ebp
	push	eax
	lea	eax, DWORD PTR __$EHRec$[ebp+4]
	mov	DWORD PTR fs:0, eax
	mov	DWORD PTR __$EHRec$[ebp], esp
	mov	DWORD PTR _this$[ebp], ecx

; 1919 : 		size_type _Newres = _Newsize | this->_ALLOC_MASK;

	mov	eax, DWORD PTR __Newsize$[ebp]
	or	eax, 15					; 0000000fH
	mov	DWORD PTR __Newres$[ebp], eax

; 1920 : 		if (max_size() < _Newres)

	mov	ecx, DWORD PTR _this$[ebp]
	call	?max_size@?$basic_string@DU?$char_traits@D@std@@V?$allocator@D@2@@std@@QBEIXZ ; std::basic_string<char,std::char_traits<char>,std::allocator<char> >::max_size
	cmp	eax, DWORD PTR __Newres$[ebp]
	jae	SHORT $LN9@Copy

; 1921 : 			_Newres = _Newsize;	// undo roundup if too big

	mov	ecx, DWORD PTR __Newsize$[ebp]
	mov	DWORD PTR __Newres$[ebp], ecx
	jmp	SHORT $LN8@Copy
$LN9@Copy:

; 1922 : 		else if (this->_Myres / 2 <= _Newres / 3)

	mov	eax, DWORD PTR __Newres$[ebp]
	xor	edx, edx
	mov	ecx, 3
	div	ecx
	mov	edx, DWORD PTR _this$[ebp]
	mov	ecx, DWORD PTR [edx+24]
	shr	ecx, 1
	cmp	ecx, eax
	ja	SHORT $LN7@Copy
	jmp	SHORT $LN8@Copy
$LN7@Copy:

; 1923 : 			;
; 1924 : 		else if (this->_Myres <= max_size() - this->_Myres / 2)

	mov	edx, DWORD PTR _this$[ebp]
	mov	esi, DWORD PTR [edx+24]
	shr	esi, 1
	mov	ecx, DWORD PTR _this$[ebp]
	call	?max_size@?$basic_string@DU?$char_traits@D@std@@V?$allocator@D@2@@std@@QBEIXZ ; std::basic_string<char,std::char_traits<char>,std::allocator<char> >::max_size
	sub	eax, esi
	mov	ecx, DWORD PTR _this$[ebp]
	cmp	DWORD PTR [ecx+24], eax
	ja	SHORT $LN5@Copy

; 1925 : 			_Newres = this->_Myres
; 1926 : 				+ this->_Myres / 2;	// grow exponentially if possible

	mov	edx, DWORD PTR _this$[ebp]
	mov	eax, DWORD PTR [edx+24]
	shr	eax, 1
	mov	ecx, DWORD PTR _this$[ebp]
	add	eax, DWORD PTR [ecx+24]
	mov	DWORD PTR __Newres$[ebp], eax

; 1927 : 		else

	jmp	SHORT $LN8@Copy
$LN5@Copy:

; 1928 : 			_Newres = max_size();	// settle for max_size()

	mov	ecx, DWORD PTR _this$[ebp]
	call	?max_size@?$basic_string@DU?$char_traits@D@std@@V?$allocator@D@2@@std@@QBEIXZ ; std::basic_string<char,std::char_traits<char>,std::allocator<char> >::max_size
	mov	DWORD PTR __Newres$[ebp], eax
$LN8@Copy:

; 1929 : 
; 1930 : 		_Elem *_Ptr;
; 1931 : 		_TRY_BEGIN

	mov	DWORD PTR __$EHRec$[ebp+12], 0

; 1932 : 			_Ptr = this->_Alval.allocate(_Newres + 1);

	mov	edx, DWORD PTR __Newres$[ebp]
	add	edx, 1
	push	edx
	mov	ecx, DWORD PTR _this$[ebp]
	add	ecx, 28					; 0000001cH
	call	?allocate@?$allocator@D@std@@QAEPADI@Z	; std::allocator<char>::allocate
	mov	DWORD PTR tv184[ebp], eax
	mov	eax, DWORD PTR tv184[ebp]
	mov	DWORD PTR __Ptr$[ebp], eax
	jmp	SHORT $LN12@Copy
__catch$?_Copy@?$basic_string@DU?$char_traits@D@std@@V?$allocator@D@2@@std@@QAEXII@Z$0:

; 1933 : 		_CATCH_ALL

	mov	DWORD PTR __$EHRec$[ebp], esp

; 1934 : 			_Newres = _Newsize;	// allocation failed, undo roundup and retry

	mov	ecx, DWORD PTR __Newsize$[ebp]
	mov	DWORD PTR __Newres$[ebp], ecx

; 1935 : 			_TRY_BEGIN

	mov	BYTE PTR __$EHRec$[ebp+12], 2

; 1936 : 				_Ptr = this->_Alval.allocate(_Newres + 1);

	mov	edx, DWORD PTR __Newres$[ebp]
	add	edx, 1
	push	edx
	mov	ecx, DWORD PTR _this$[ebp]
	add	ecx, 28					; 0000001cH
	call	?allocate@?$allocator@D@std@@QAEPADI@Z	; std::allocator<char>::allocate
	mov	DWORD PTR tv185[ebp], eax
	mov	eax, DWORD PTR tv185[ebp]
	mov	DWORD PTR __Ptr$[ebp], eax
	jmp	SHORT $LN14@Copy
__catch$?_Copy@?$basic_string@DU?$char_traits@D@std@@V?$allocator@D@2@@std@@QAEXII@Z$1:

; 1937 : 			_CATCH_ALL
; 1938 : 			_Tidy(true);	// failed again, discard storage and reraise

	push	0
	push	1
	mov	ecx, DWORD PTR _this$[ebp]
	call	?_Tidy@?$basic_string@DU?$char_traits@D@std@@V?$allocator@D@2@@std@@QAEX_NI@Z ; std::basic_string<char,std::char_traits<char>,std::allocator<char> >::_Tidy

; 1939 : 			_RERAISE;

	push	0
	push	0
	call	__CxxThrowException@8

; 1940 : 			_CATCH_END

	mov	DWORD PTR __$EHRec$[ebp+12], 1
	mov	eax, __tryend$?_Copy@?$basic_string@DU?$char_traits@D@std@@V?$allocator@D@2@@std@@QAEXII@Z$2
	ret	0
$LN14@Copy:
	mov	DWORD PTR __$EHRec$[ebp+12], 1
__tryend$?_Copy@?$basic_string@DU?$char_traits@D@std@@V?$allocator@D@2@@std@@QAEXII@Z$2:

; 1941 : 		_CATCH_END

	mov	DWORD PTR __$EHRec$[ebp+12], 1
	mov	eax, __tryend$?_Copy@?$basic_string@DU?$char_traits@D@std@@V?$allocator@D@2@@std@@QAEXII@Z$3
	ret	0
$LN12@Copy:
	mov	DWORD PTR __$EHRec$[ebp+12], -1
__tryend$?_Copy@?$basic_string@DU?$char_traits@D@std@@V?$allocator@D@2@@std@@QAEXII@Z$3:

; 1942 : 
; 1943 : 		if (0 < _Oldlen)

	cmp	DWORD PTR __Oldlen$[ebp], 0
	jbe	SHORT $LN1@Copy

; 1944 : 			_Traits::copy(_Ptr, _Myptr(), _Oldlen);	// copy existing elements

	mov	ecx, DWORD PTR __Oldlen$[ebp]
	push	ecx
	mov	ecx, DWORD PTR _this$[ebp]
	call	?_Myptr@?$basic_string@DU?$char_traits@D@std@@V?$allocator@D@2@@std@@QAEPADXZ ; std::basic_string<char,std::char_traits<char>,std::allocator<char> >::_Myptr
	push	eax
	mov	edx, DWORD PTR __Ptr$[ebp]
	push	edx
	call	?copy@?$char_traits@D@std@@SAPADPADPBDI@Z ; std::char_traits<char>::copy
	add	esp, 12					; 0000000cH
$LN1@Copy:

; 1945 : 		_Tidy(true);

	push	0
	push	1
	mov	ecx, DWORD PTR _this$[ebp]
	call	?_Tidy@?$basic_string@DU?$char_traits@D@std@@V?$allocator@D@2@@std@@QAEX_NI@Z ; std::basic_string<char,std::char_traits<char>,std::allocator<char> >::_Tidy

; 1946 : 		this->_Bx._Ptr = _Ptr;

	mov	eax, DWORD PTR _this$[ebp]
	mov	ecx, DWORD PTR __Ptr$[ebp]
	mov	DWORD PTR [eax+4], ecx

; 1947 : 		this->_Myres = _Newres;

	mov	edx, DWORD PTR _this$[ebp]
	mov	eax, DWORD PTR __Newres$[ebp]
	mov	DWORD PTR [edx+24], eax

; 1948 : 		_Eos(_Oldlen);

	mov	ecx, DWORD PTR __Oldlen$[ebp]
	push	ecx
	mov	ecx, DWORD PTR _this$[ebp]
	call	?_Eos@?$basic_string@DU?$char_traits@D@std@@V?$allocator@D@2@@std@@QAEXI@Z ; std::basic_string<char,std::char_traits<char>,std::allocator<char> >::_Eos
$LN11@Copy:

; 1949 : 		}

	mov	ecx, DWORD PTR __$EHRec$[ebp+4]
	mov	DWORD PTR fs:0, ecx
	pop	ecx
	pop	edi
	pop	esi
	pop	ebx
	add	esp, 36					; 00000024H
	cmp	ebp, esp
	call	__RTC_CheckEsp
	mov	esp, ebp
	pop	ebp
	ret	8
_TEXT	ENDS
;	COMDAT text$x
text$x	SEGMENT
__ehhandler$?_Copy@?$basic_string@DU?$char_traits@D@std@@V?$allocator@D@2@@std@@QAEXII@Z:
	mov	edx, DWORD PTR [esp+8]
	lea	eax, DWORD PTR [edx+12]
	mov	ecx, DWORD PTR [edx-40]
	xor	ecx, eax
	call	@__security_check_cookie@4
	mov	eax, OFFSET __ehfuncinfo$?_Copy@?$basic_string@DU?$char_traits@D@std@@V?$allocator@D@2@@std@@QAEXII@Z
	jmp	___CxxFrameHandler3
text$x	ENDS
?_Copy@?$basic_string@DU?$char_traits@D@std@@V?$allocator@D@2@@std@@QAEXII@Z ENDP ; std::basic_string<char,std::char_traits<char>,std::allocator<char> >::_Copy
; Function compile flags: /Odtp /RTCsu
;	COMDAT ?_Inside@?$basic_string@DU?$char_traits@D@std@@V?$allocator@D@2@@std@@QAE_NPBD@Z
_TEXT	SEGMENT
_this$ = -4						; size = 4
__Ptr$ = 8						; size = 4
?_Inside@?$basic_string@DU?$char_traits@D@std@@V?$allocator@D@2@@std@@QAE_NPBD@Z PROC ; std::basic_string<char,std::char_traits<char>,std::allocator<char> >::_Inside, COMDAT
; _this$ = ecx

; 1972 : 		{	// test if _Ptr points inside string

	push	ebp
	mov	ebp, esp
	push	ecx
	mov	DWORD PTR [ebp-4], -858993460		; ccccccccH
	mov	DWORD PTR _this$[ebp], ecx

; 1973 : 		if (_Ptr == 0 || _Ptr < _Myptr() || _Myptr() + this->_Mysize <= _Ptr)

	cmp	DWORD PTR __Ptr$[ebp], 0
	je	SHORT $LN2@Inside
	mov	ecx, DWORD PTR _this$[ebp]
	call	?_Myptr@?$basic_string@DU?$char_traits@D@std@@V?$allocator@D@2@@std@@QAEPADXZ ; std::basic_string<char,std::char_traits<char>,std::allocator<char> >::_Myptr
	cmp	DWORD PTR __Ptr$[ebp], eax
	jb	SHORT $LN2@Inside
	mov	ecx, DWORD PTR _this$[ebp]
	call	?_Myptr@?$basic_string@DU?$char_traits@D@std@@V?$allocator@D@2@@std@@QAEPADXZ ; std::basic_string<char,std::char_traits<char>,std::allocator<char> >::_Myptr
	mov	ecx, DWORD PTR _this$[ebp]
	add	eax, DWORD PTR [ecx+20]
	cmp	eax, DWORD PTR __Ptr$[ebp]
	ja	SHORT $LN3@Inside
$LN2@Inside:

; 1974 : 			return (false);	// don't ask

	xor	al, al
	jmp	SHORT $LN4@Inside

; 1975 : 		else

	jmp	SHORT $LN4@Inside
$LN3@Inside:

; 1976 : 			return (true);

	mov	al, 1
$LN4@Inside:

; 1977 : 		}

	add	esp, 4
	cmp	ebp, esp
	call	__RTC_CheckEsp
	mov	esp, ebp
	pop	ebp
	ret	4
?_Inside@?$basic_string@DU?$char_traits@D@std@@V?$allocator@D@2@@std@@QAE_NPBD@Z ENDP ; std::basic_string<char,std::char_traits<char>,std::allocator<char> >::_Inside
_TEXT	ENDS
PUBLIC	??$_Allocate@D@std@@YAPADIPAD@Z			; std::_Allocate<char>
; Function compile flags: /Odtp /RTCsu
; File c:\program files (x86)\microsoft visual studio 10.0\vc\include\xmemory
;	COMDAT ?allocate@?$allocator@D@std@@QAEPADI@Z
_TEXT	SEGMENT
_this$ = -4						; size = 4
__Count$ = 8						; size = 4
?allocate@?$allocator@D@std@@QAEPADI@Z PROC		; std::allocator<char>::allocate, COMDAT
; _this$ = ecx

; 186  : 		{	// allocate array of _Count elements

	push	ebp
	mov	ebp, esp
	push	ecx
	mov	DWORD PTR [ebp-4], -858993460		; ccccccccH
	mov	DWORD PTR _this$[ebp], ecx

; 187  : 		return (_Allocate(_Count, (pointer)0));

	push	0
	mov	eax, DWORD PTR __Count$[ebp]
	push	eax
	call	??$_Allocate@D@std@@YAPADIPAD@Z		; std::_Allocate<char>
	add	esp, 8

; 188  : 		}

	add	esp, 4
	cmp	ebp, esp
	call	__RTC_CheckEsp
	mov	esp, ebp
	pop	ebp
	ret	4
?allocate@?$allocator@D@std@@QAEPADI@Z ENDP		; std::allocator<char>::allocate
; Function compile flags: /Odtp /RTCsu
_TEXT	ENDS
;	COMDAT ?max_size@?$allocator@D@std@@QBEIXZ
_TEXT	SEGMENT
tv65 = -12						; size = 4
__Count$ = -8						; size = 4
_this$ = -4						; size = 4
?max_size@?$allocator@D@std@@QBEIXZ PROC		; std::allocator<char>::max_size, COMDAT
; _this$ = ecx

; 217  : 		{	// estimate maximum array size

	push	ebp
	mov	ebp, esp
	sub	esp, 12					; 0000000cH
	mov	DWORD PTR [ebp-12], -858993460		; ccccccccH
	mov	DWORD PTR [ebp-8], -858993460		; ccccccccH
	mov	DWORD PTR [ebp-4], -858993460		; ccccccccH
	mov	DWORD PTR _this$[ebp], ecx

; 218  : 		_SIZT _Count = (_SIZT)(-1) / sizeof (_Ty);

	mov	DWORD PTR __Count$[ebp], -1

; 219  : 		return (0 < _Count ? _Count : 1);

	cmp	DWORD PTR __Count$[ebp], 0
	jbe	SHORT $LN3@max_size@2
	mov	eax, DWORD PTR __Count$[ebp]
	mov	DWORD PTR tv65[ebp], eax
	jmp	SHORT $LN4@max_size@2
$LN3@max_size@2:
	mov	DWORD PTR tv65[ebp], 1
$LN4@max_size@2:
	mov	eax, DWORD PTR tv65[ebp]

; 220  : 		}

	mov	esp, ebp
	pop	ebp
	ret	0
?max_size@?$allocator@D@std@@QBEIXZ ENDP		; std::allocator<char>::max_size
_TEXT	ENDS
PUBLIC	??_C@_1FO@OIFFFDPH@?$AA?$CI?$AAm?$AAi?$AAn?$AAV?$AAa?$AAl?$AA?5?$AA?$DM?$AA?5?$AAm?$AAa?$AAx?$AAV?$AAa?$AAl?$AA?$CJ?$AA?5?$AA?$CG?$AA?$CG?$AA?5?$AA?$CC?$AA?$DM?$AAC?$AAl?$AAa?$AAm?$AAp?$AA?$DO?$AAM?$AAa?$AAx@ ; `string'
PUBLIC	??_C@_1KA@JFBLBJCP@?$AAC?$AA?3?$AA?2?$AAU?$AAs?$AAe?$AAr?$AAs?$AA?2?$AAT?$AAe?$AAa?$AAj?$AAa?$AA?2?$AAD?$AAo?$AAc?$AAu?$AAm?$AAe?$AAn?$AAt?$AAs?$AA?2?$AAA?$AAr?$AAt?$AAi?$AAf?$AAi?$AAc@ ; `string'
PUBLIC	??_C@_0BI@OELFEEAK@?$DMClamp?$DOMaxVal?5?$DM?5MinVal?$CB?$AA@ ; `string'
EXTRN	__wassert:PROC
;	COMDAT ??_C@_1FO@OIFFFDPH@?$AA?$CI?$AAm?$AAi?$AAn?$AAV?$AAa?$AAl?$AA?5?$AA?$DM?$AA?5?$AAm?$AAa?$AAx?$AAV?$AAa?$AAl?$AA?$CJ?$AA?5?$AA?$CG?$AA?$CG?$AA?5?$AA?$CC?$AA?$DM?$AAC?$AAl?$AAa?$AAm?$AAp?$AA?$DO?$AAM?$AAa?$AAx@
; File c:\users\teaja\documents\artificial-fun\labravenprojecttest\common\misc\utils.h
CONST	SEGMENT
??_C@_1FO@OIFFFDPH@?$AA?$CI?$AAm?$AAi?$AAn?$AAV?$AAa?$AAl?$AA?5?$AA?$DM?$AA?5?$AAm?$AAa?$AAx?$AAV?$AAa?$AAl?$AA?$CJ?$AA?5?$AA?$CG?$AA?$CG?$AA?5?$AA?$CC?$AA?$DM?$AAC?$AAl?$AAa?$AAm?$AAp?$AA?$DO?$AAM?$AAa?$AAx@ DB '('
	DB	00H, 'm', 00H, 'i', 00H, 'n', 00H, 'V', 00H, 'a', 00H, 'l', 00H
	DB	' ', 00H, '<', 00H, ' ', 00H, 'm', 00H, 'a', 00H, 'x', 00H, 'V'
	DB	00H, 'a', 00H, 'l', 00H, ')', 00H, ' ', 00H, '&', 00H, '&', 00H
	DB	' ', 00H, '"', 00H, '<', 00H, 'C', 00H, 'l', 00H, 'a', 00H, 'm'
	DB	00H, 'p', 00H, '>', 00H, 'M', 00H, 'a', 00H, 'x', 00H, 'V', 00H
	DB	'a', 00H, 'l', 00H, ' ', 00H, '<', 00H, ' ', 00H, 'M', 00H, 'i'
	DB	00H, 'n', 00H, 'V', 00H, 'a', 00H, 'l', 00H, '!', 00H, '"', 00H
	DB	00H, 00H					; `string'
CONST	ENDS
;	COMDAT ??_C@_1KA@JFBLBJCP@?$AAC?$AA?3?$AA?2?$AAU?$AAs?$AAe?$AAr?$AAs?$AA?2?$AAT?$AAe?$AAa?$AAj?$AAa?$AA?2?$AAD?$AAo?$AAc?$AAu?$AAm?$AAe?$AAn?$AAt?$AAs?$AA?2?$AAA?$AAr?$AAt?$AAi?$AAf?$AAi?$AAc@
CONST	SEGMENT
??_C@_1KA@JFBLBJCP@?$AAC?$AA?3?$AA?2?$AAU?$AAs?$AAe?$AAr?$AAs?$AA?2?$AAT?$AAe?$AAa?$AAj?$AAa?$AA?2?$AAD?$AAo?$AAc?$AAu?$AAm?$AAe?$AAn?$AAt?$AAs?$AA?2?$AAA?$AAr?$AAt?$AAi?$AAf?$AAi?$AAc@ DB 'C'
	DB	00H, ':', 00H, '\', 00H, 'U', 00H, 's', 00H, 'e', 00H, 'r', 00H
	DB	's', 00H, '\', 00H, 'T', 00H, 'e', 00H, 'a', 00H, 'j', 00H, 'a'
	DB	00H, '\', 00H, 'D', 00H, 'o', 00H, 'c', 00H, 'u', 00H, 'm', 00H
	DB	'e', 00H, 'n', 00H, 't', 00H, 's', 00H, '\', 00H, 'A', 00H, 'r'
	DB	00H, 't', 00H, 'i', 00H, 'f', 00H, 'i', 00H, 'c', 00H, 'i', 00H
	DB	'a', 00H, 'l', 00H, '-', 00H, 'F', 00H, 'u', 00H, 'n', 00H, '\'
	DB	00H, 'L', 00H, 'a', 00H, 'b', 00H, 'R', 00H, 'a', 00H, 'v', 00H
	DB	'e', 00H, 'n', 00H, 'P', 00H, 'r', 00H, 'o', 00H, 'j', 00H, 'e'
	DB	00H, 'c', 00H, 't', 00H, 'T', 00H, 'e', 00H, 's', 00H, 't', 00H
	DB	'\', 00H, 'C', 00H, 'o', 00H, 'm', 00H, 'm', 00H, 'o', 00H, 'n'
	DB	00H, '\', 00H, 'm', 00H, 'i', 00H, 's', 00H, 'c', 00H, '/', 00H
	DB	'u', 00H, 't', 00H, 'i', 00H, 'l', 00H, 's', 00H, '.', 00H, 'h'
	DB	00H, 00H, 00H				; `string'
CONST	ENDS
;	COMDAT ??_C@_0BI@OELFEEAK@?$DMClamp?$DOMaxVal?5?$DM?5MinVal?$CB?$AA@
CONST	SEGMENT
??_C@_0BI@OELFEEAK@?$DMClamp?$DOMaxVal?5?$DM?5MinVal?$CB?$AA@ DB '<Clamp>'
	DB	'MaxVal < MinVal!', 00H			; `string'
; Function compile flags: /Odtp /RTCsu
CONST	ENDS
;	COMDAT ??$Clamp@NHH@@YAXAANABH1@Z
_TEXT	SEGMENT
_arg$ = 8						; size = 4
_minVal$ = 12						; size = 4
_maxVal$ = 16						; size = 4
??$Clamp@NHH@@YAXAANABH1@Z PROC				; Clamp<double,int,int>, COMDAT

; 170  : {

	push	ebp
	mov	ebp, esp

; 171  :   assert ( (minVal < maxVal) && "<Clamp>MaxVal < MinVal!");

	mov	eax, DWORD PTR _minVal$[ebp]
	mov	ecx, DWORD PTR _maxVal$[ebp]
	mov	edx, DWORD PTR [eax]
	cmp	edx, DWORD PTR [ecx]
	jge	SHORT $LN5@Clamp
	mov	eax, OFFSET ??_C@_0BI@OELFEEAK@?$DMClamp?$DOMaxVal?5?$DM?5MinVal?$CB?$AA@
	test	eax, eax
	jne	SHORT $LN6@Clamp
$LN5@Clamp:
	push	171					; 000000abH
	push	OFFSET ??_C@_1KA@JFBLBJCP@?$AAC?$AA?3?$AA?2?$AAU?$AAs?$AAe?$AAr?$AAs?$AA?2?$AAT?$AAe?$AAa?$AAj?$AAa?$AA?2?$AAD?$AAo?$AAc?$AAu?$AAm?$AAe?$AAn?$AAt?$AAs?$AA?2?$AAA?$AAr?$AAt?$AAi?$AAf?$AAi?$AAc@
	push	OFFSET ??_C@_1FO@OIFFFDPH@?$AA?$CI?$AAm?$AAi?$AAn?$AAV?$AAa?$AAl?$AA?5?$AA?$DM?$AA?5?$AAm?$AAa?$AAx?$AAV?$AAa?$AAl?$AA?$CJ?$AA?5?$AA?$CG?$AA?$CG?$AA?5?$AA?$CC?$AA?$DM?$AAC?$AAl?$AAa?$AAm?$AAp?$AA?$DO?$AAM?$AAa?$AAx@
	call	__wassert
	add	esp, 12					; 0000000cH
$LN6@Clamp:

; 172  : 
; 173  :   if (arg < (T)minVal)

	mov	edx, DWORD PTR _minVal$[ebp]
	fild	DWORD PTR [edx]
	mov	eax, DWORD PTR _arg$[ebp]
	fcomp	QWORD PTR [eax]
	fnstsw	ax
	test	ah, 65					; 00000041H
	jne	SHORT $LN2@Clamp

; 174  :   {
; 175  :     arg = (T)minVal;

	mov	ecx, DWORD PTR _minVal$[ebp]
	fild	DWORD PTR [ecx]
	mov	edx, DWORD PTR _arg$[ebp]
	fstp	QWORD PTR [edx]
$LN2@Clamp:

; 176  :   }
; 177  : 
; 178  :   if (arg > (T)maxVal)

	mov	eax, DWORD PTR _maxVal$[ebp]
	fild	DWORD PTR [eax]
	mov	ecx, DWORD PTR _arg$[ebp]
	fcomp	QWORD PTR [ecx]
	fnstsw	ax
	test	ah, 5
	jp	SHORT $LN1@Clamp

; 179  :   {
; 180  :     arg = (T)maxVal;

	mov	edx, DWORD PTR _maxVal$[ebp]
	fild	DWORD PTR [edx]
	mov	eax, DWORD PTR _arg$[ebp]
	fstp	QWORD PTR [eax]
$LN1@Clamp:

; 181  :   }
; 182  : }

	cmp	ebp, esp
	call	__RTC_CheckEsp
	pop	ebp
	ret	0
??$Clamp@NHH@@YAXAANABH1@Z ENDP				; Clamp<double,int,int>
_TEXT	ENDS
PUBLIC	??_D?$basic_ostringstream@DU?$char_traits@D@std@@V?$allocator@D@2@@std@@QAEXXZ ; std::basic_ostringstream<char,std::char_traits<char>,std::allocator<char> >::`vbase destructor'
PUBLIC	?str@?$basic_ostringstream@DU?$char_traits@D@std@@V?$allocator@D@2@@std@@QBE?AV?$basic_string@DU?$char_traits@D@std@@V?$allocator@D@2@@2@XZ ; std::basic_ostringstream<char,std::char_traits<char>,std::allocator<char> >::str
PUBLIC	??6?$basic_ostream@DU?$char_traits@D@std@@@std@@QAEAAV01@N@Z ; std::basic_ostream<char,std::char_traits<char> >::operator<<
PUBLIC	??$?6DU?$char_traits@D@std@@_J@std@@YAAAV?$basic_ostream@DU?$char_traits@D@std@@@0@AAV10@ABU?$_Smanip@_J@0@@Z ; std::operator<<<char,std::char_traits<char>,__int64>
PUBLIC	??6?$basic_ostream@DU?$char_traits@D@std@@@std@@QAEAAV01@P6AAAVios_base@1@AAV21@@Z@Z ; std::basic_ostream<char,std::char_traits<char> >::operator<<
PUBLIC	?fixed@std@@YAAAVios_base@1@AAV21@@Z		; std::fixed
PUBLIC	??0?$basic_ostringstream@DU?$char_traits@D@std@@V?$allocator@D@2@@std@@QAE@H@Z ; std::basic_ostringstream<char,std::char_traits<char>,std::allocator<char> >::basic_ostringstream<char,std::char_traits<char>,std::allocator<char> >
EXTRN	?setprecision@std@@YA?AU?$_Smanip@_J@1@_J@Z:PROC ; std::setprecision
;	COMDAT xdata$x
; File c:\users\teaja\documents\artificial-fun\labravenprojecttest\common\misc\stream_utility_functions.h
xdata$x	SEGMENT
__unwindtable$??$ttos@N@@YA?AV?$basic_string@DU?$char_traits@D@std@@V?$allocator@D@2@@std@@ABNH@Z DD 0ffffffffH
	DD	FLAT:__unwindfunclet$??$ttos@N@@YA?AV?$basic_string@DU?$char_traits@D@std@@V?$allocator@D@2@@std@@ABNH@Z$1
	DD	00H
	DD	FLAT:__unwindfunclet$??$ttos@N@@YA?AV?$basic_string@DU?$char_traits@D@std@@V?$allocator@D@2@@std@@ABNH@Z$0
__ehfuncinfo$??$ttos@N@@YA?AV?$basic_string@DU?$char_traits@D@std@@V?$allocator@D@2@@std@@ABNH@Z DD 019930522H
	DD	02H
	DD	FLAT:__unwindtable$??$ttos@N@@YA?AV?$basic_string@DU?$char_traits@D@std@@V?$allocator@D@2@@std@@ABNH@Z
	DD	2 DUP(00H)
	DD	2 DUP(00H)
	DD	00H
	DD	01H
; Function compile flags: /Odtp /RTCsu
xdata$x	ENDS
;	COMDAT ??$ttos@N@@YA?AV?$basic_string@DU?$char_traits@D@std@@V?$allocator@D@2@@std@@ABNH@Z
_TEXT	SEGMENT
$T147072 = -192						; size = 4
$T147069 = -188						; size = 16
_buffer$ = -168						; size = 152
__$EHRec$ = -12						; size = 12
___$ReturnUdt$ = 8					; size = 4
_t$ = 12						; size = 4
_precision$ = 16					; size = 4
??$ttos@N@@YA?AV?$basic_string@DU?$char_traits@D@std@@V?$allocator@D@2@@std@@ABNH@Z PROC ; ttos<double>, COMDAT

; 22   : {

	push	ebp
	mov	ebp, esp
	push	-1
	push	__ehhandler$??$ttos@N@@YA?AV?$basic_string@DU?$char_traits@D@std@@V?$allocator@D@2@@std@@ABNH@Z
	mov	eax, DWORD PTR fs:0
	push	eax
	sub	esp, 180				; 000000b4H
	push	edi
	lea	edi, DWORD PTR [ebp-192]
	mov	ecx, 45					; 0000002dH
	mov	eax, -858993460				; ccccccccH
	rep stosd
	mov	eax, DWORD PTR ___security_cookie
	xor	eax, ebp
	push	eax
	lea	eax, DWORD PTR __$EHRec$[ebp]
	mov	DWORD PTR fs:0, eax
	mov	DWORD PTR $T147072[ebp], 0

; 23   :   std::ostringstream buffer;

	push	1
	push	2
	lea	ecx, DWORD PTR _buffer$[ebp]
	call	??0?$basic_ostringstream@DU?$char_traits@D@std@@V?$allocator@D@2@@std@@QAE@H@Z ; std::basic_ostringstream<char,std::char_traits<char>,std::allocator<char> >::basic_ostringstream<char,std::char_traits<char>,std::allocator<char> >
	mov	DWORD PTR __$EHRec$[ebp+8], 1

; 24   : 
; 25   :   buffer << std::fixed << std::setprecision(precision) << t;

	mov	eax, DWORD PTR _t$[ebp]
	sub	esp, 8
	fld	QWORD PTR [eax]
	fstp	QWORD PTR [esp]
	mov	eax, DWORD PTR _precision$[ebp]
	cdq
	push	edx
	push	eax
	lea	ecx, DWORD PTR $T147069[ebp]
	push	ecx
	call	?setprecision@std@@YA?AU?$_Smanip@_J@1@_J@Z ; std::setprecision
	add	esp, 12					; 0000000cH
	push	eax
	push	OFFSET ?fixed@std@@YAAAVios_base@1@AAV21@@Z ; std::fixed
	lea	ecx, DWORD PTR _buffer$[ebp]
	call	??6?$basic_ostream@DU?$char_traits@D@std@@@std@@QAEAAV01@P6AAAVios_base@1@AAV21@@Z@Z ; std::basic_ostream<char,std::char_traits<char> >::operator<<
	push	eax
	call	??$?6DU?$char_traits@D@std@@_J@std@@YAAAV?$basic_ostream@DU?$char_traits@D@std@@@0@AAV10@ABU?$_Smanip@_J@0@@Z ; std::operator<<<char,std::char_traits<char>,__int64>
	add	esp, 8
	mov	ecx, eax
	call	??6?$basic_ostream@DU?$char_traits@D@std@@@std@@QAEAAV01@N@Z ; std::basic_ostream<char,std::char_traits<char> >::operator<<

; 26   : 
; 27   :   return buffer.str();

	mov	edx, DWORD PTR ___$ReturnUdt$[ebp]
	push	edx
	lea	ecx, DWORD PTR _buffer$[ebp]
	call	?str@?$basic_ostringstream@DU?$char_traits@D@std@@V?$allocator@D@2@@std@@QBE?AV?$basic_string@DU?$char_traits@D@std@@V?$allocator@D@2@@2@XZ ; std::basic_ostringstream<char,std::char_traits<char>,std::allocator<char> >::str
	mov	eax, DWORD PTR $T147072[ebp]
	or	eax, 1
	mov	DWORD PTR $T147072[ebp], eax
	mov	BYTE PTR __$EHRec$[ebp+8], 0
	lea	ecx, DWORD PTR _buffer$[ebp]
	call	??_D?$basic_ostringstream@DU?$char_traits@D@std@@V?$allocator@D@2@@std@@QAEXXZ
	mov	eax, DWORD PTR ___$ReturnUdt$[ebp]

; 28   : }

	push	edx
	mov	ecx, ebp
	push	eax
	lea	edx, DWORD PTR $LN9@ttos
	call	@_RTC_CheckStackVars@8
	pop	eax
	pop	edx
	mov	ecx, DWORD PTR __$EHRec$[ebp]
	mov	DWORD PTR fs:0, ecx
	pop	ecx
	pop	edi
	add	esp, 192				; 000000c0H
	cmp	ebp, esp
	call	__RTC_CheckEsp
	mov	esp, ebp
	pop	ebp
	ret	0
	npad	2
$LN9@ttos:
	DD	1
	DD	$LN8@ttos
$LN8@ttos:
	DD	-168					; ffffff58H
	DD	152					; 00000098H
	DD	$LN6@ttos
$LN6@ttos:
	DB	98					; 00000062H
	DB	117					; 00000075H
	DB	102					; 00000066H
	DB	102					; 00000066H
	DB	101					; 00000065H
	DB	114					; 00000072H
	DB	0
_TEXT	ENDS
;	COMDAT text$x
text$x	SEGMENT
__unwindfunclet$??$ttos@N@@YA?AV?$basic_string@DU?$char_traits@D@std@@V?$allocator@D@2@@std@@ABNH@Z$0:
	lea	ecx, DWORD PTR _buffer$[ebp]
	jmp	??_D?$basic_ostringstream@DU?$char_traits@D@std@@V?$allocator@D@2@@std@@QAEXXZ
__unwindfunclet$??$ttos@N@@YA?AV?$basic_string@DU?$char_traits@D@std@@V?$allocator@D@2@@std@@ABNH@Z$1:
	mov	eax, DWORD PTR $T147072[ebp]
	and	eax, 1
	je	$LN5@ttos
	and	DWORD PTR $T147072[ebp], -2		; fffffffeH
	mov	ecx, DWORD PTR ___$ReturnUdt$[ebp]
	jmp	??1?$basic_string@DU?$char_traits@D@std@@V?$allocator@D@2@@std@@QAE@XZ ; std::basic_string<char,std::char_traits<char>,std::allocator<char> >::~basic_string<char,std::char_traits<char>,std::allocator<char> >
$LN5@ttos:
	ret	0
__ehhandler$??$ttos@N@@YA?AV?$basic_string@DU?$char_traits@D@std@@V?$allocator@D@2@@std@@ABNH@Z:
	mov	edx, DWORD PTR [esp+8]
	lea	eax, DWORD PTR [edx+12]
	mov	ecx, DWORD PTR [edx-188]
	xor	ecx, eax
	call	@__security_check_cookie@4
	mov	eax, OFFSET __ehfuncinfo$??$ttos@N@@YA?AV?$basic_string@DU?$char_traits@D@std@@V?$allocator@D@2@@std@@ABNH@Z
	jmp	___CxxFrameHandler3
text$x	ENDS
??$ttos@N@@YA?AV?$basic_string@DU?$char_traits@D@std@@V?$allocator@D@2@@std@@ABNH@Z ENDP ; ttos<double>
PUBLIC	?setf@ios_base@std@@QAEHHH@Z			; std::ios_base::setf
; Function compile flags: /Odtp /RTCsu
; File c:\program files (x86)\microsoft visual studio 10.0\vc\include\ios
;	COMDAT ?fixed@std@@YAAAVios_base@1@AAV21@@Z
_TEXT	SEGMENT
__Iosbase$ = 8						; size = 4
?fixed@std@@YAAAVios_base@1@AAV21@@Z PROC		; std::fixed, COMDAT

; 213  : 	{	// set floatfield to fixed

	push	ebp
	mov	ebp, esp

; 214  : 	_Iosbase.setf(ios_base::fixed, ios_base::floatfield);

	push	12288					; 00003000H
	push	8192					; 00002000H
	mov	ecx, DWORD PTR __Iosbase$[ebp]
	call	?setf@ios_base@std@@QAEHHH@Z		; std::ios_base::setf

; 215  : 	return (_Iosbase);

	mov	eax, DWORD PTR __Iosbase$[ebp]

; 216  : 	}

	cmp	ebp, esp
	call	__RTC_CheckEsp
	pop	ebp
	ret	0
?fixed@std@@YAAAVios_base@1@AAV21@@Z ENDP		; std::fixed
; Function compile flags: /Odtp /RTCsu
; File c:\program files (x86)\microsoft visual studio 10.0\vc\include\xiosbase
_TEXT	ENDS
;	COMDAT ?setf@ios_base@std@@QAEHHH@Z
_TEXT	SEGMENT
__Oldfmtflags$ = -8					; size = 4
_this$ = -4						; size = 4
__Newfmtflags$ = 8					; size = 4
__Mask$ = 12						; size = 4
?setf@ios_base@std@@QAEHHH@Z PROC			; std::ios_base::setf, COMDAT
; _this$ = ecx

; 414  : 		{	// merge in format flags argument under mask argument

	push	ebp
	mov	ebp, esp
	sub	esp, 8
	mov	DWORD PTR [ebp-8], -858993460		; ccccccccH
	mov	DWORD PTR [ebp-4], -858993460		; ccccccccH
	mov	DWORD PTR _this$[ebp], ecx

; 415  : 		ios_base::fmtflags _Oldfmtflags = _Fmtfl;

	mov	eax, DWORD PTR _this$[ebp]
	mov	ecx, DWORD PTR [eax+20]
	mov	DWORD PTR __Oldfmtflags$[ebp], ecx

; 416  : 		_Fmtfl = (fmtflags)(((int)_Fmtfl & (int)~_Mask)
; 417  : 			| ((int)_Newfmtflags & (int)_Mask & (int)_Fmtmask));

	mov	edx, DWORD PTR __Mask$[ebp]
	not	edx
	mov	eax, DWORD PTR _this$[ebp]
	and	edx, DWORD PTR [eax+20]
	mov	ecx, DWORD PTR __Newfmtflags$[ebp]
	and	ecx, DWORD PTR __Mask$[ebp]
	and	ecx, 65535				; 0000ffffH
	or	edx, ecx
	mov	eax, DWORD PTR _this$[ebp]
	mov	DWORD PTR [eax+20], edx

; 418  : 		return (_Oldfmtflags);

	mov	eax, DWORD PTR __Oldfmtflags$[ebp]

; 419  : 		}

	mov	esp, ebp
	pop	ebp
	ret	8
?setf@ios_base@std@@QAEHHH@Z ENDP			; std::ios_base::setf
_TEXT	ENDS
PUBLIC	??1sentry@?$basic_ostream@DU?$char_traits@D@std@@@std@@QAE@XZ ; std::basic_ostream<char,std::char_traits<char> >::sentry::~sentry
PUBLIC	?setstate@?$basic_ios@DU?$char_traits@D@std@@@std@@QAEXH_N@Z ; std::basic_ios<char,std::char_traits<char> >::setstate
PUBLIC	?failed@?$ostreambuf_iterator@DU?$char_traits@D@std@@@std@@QBE_NXZ ; std::ostreambuf_iterator<char,std::char_traits<char> >::failed
PUBLIC	?put@?$num_put@DV?$ostreambuf_iterator@DU?$char_traits@D@std@@@std@@@std@@QBE?AV?$ostreambuf_iterator@DU?$char_traits@D@std@@@2@V32@AAVios_base@2@DN@Z ; std::num_put<char,std::ostreambuf_iterator<char,std::char_traits<char> > >::put
PUBLIC	??0?$ostreambuf_iterator@DU?$char_traits@D@std@@@std@@QAE@PAV?$basic_streambuf@DU?$char_traits@D@std@@@1@@Z ; std::ostreambuf_iterator<char,std::char_traits<char> >::ostreambuf_iterator<char,std::char_traits<char> >
PUBLIC	?rdbuf@?$basic_ios@DU?$char_traits@D@std@@@std@@QBEPAV?$basic_streambuf@DU?$char_traits@D@std@@@2@XZ ; std::basic_ios<char,std::char_traits<char> >::rdbuf
PUBLIC	?fill@?$basic_ios@DU?$char_traits@D@std@@@std@@QBEDXZ ; std::basic_ios<char,std::char_traits<char> >::fill
PUBLIC	??1locale@std@@QAE@XZ				; std::locale::~locale
PUBLIC	??$use_facet@V?$num_put@DV?$ostreambuf_iterator@DU?$char_traits@D@std@@@std@@@std@@@std@@YAABV?$num_put@DV?$ostreambuf_iterator@DU?$char_traits@D@std@@@std@@@0@ABVlocale@0@@Z ; std::use_facet<std::num_put<char,std::ostreambuf_iterator<char,std::char_traits<char> > > >
PUBLIC	?getloc@ios_base@std@@QBE?AVlocale@2@XZ		; std::ios_base::getloc
PUBLIC	??Bsentry@?$basic_ostream@DU?$char_traits@D@std@@@std@@QBEPQ_Bool_struct@2@HXZ ; std::basic_ostream<char,std::char_traits<char> >::sentry::operator int std::_Bool_struct::*
PUBLIC	??0sentry@?$basic_ostream@DU?$char_traits@D@std@@@std@@QAE@AAV12@@Z ; std::basic_ostream<char,std::char_traits<char> >::sentry::sentry
;	COMDAT xdata$x
; File c:\program files (x86)\microsoft visual studio 10.0\vc\include\ostream
xdata$x	SEGMENT
__catchsym$??6?$basic_ostream@DU?$char_traits@D@std@@@std@@QAEAAV01@N@Z$4 DD 040H
	DD	00H
	DD	00H
	DD	FLAT:__catch$??6?$basic_ostream@DU?$char_traits@D@std@@@std@@QAEAAV01@N@Z$0
__tryblocktable$??6?$basic_ostream@DU?$char_traits@D@std@@@std@@QAEAAV01@N@Z DD 02H
	DD	02H
	DD	03H
	DD	01H
	DD	FLAT:__catchsym$??6?$basic_ostream@DU?$char_traits@D@std@@@std@@QAEAAV01@N@Z$4
__unwindtable$??6?$basic_ostream@DU?$char_traits@D@std@@@std@@QAEAAV01@N@Z DD 0ffffffffH
	DD	FLAT:__unwindfunclet$??6?$basic_ostream@DU?$char_traits@D@std@@@std@@QAEAAV01@N@Z$2
	DD	00H
	DD	FLAT:__unwindfunclet$??6?$basic_ostream@DU?$char_traits@D@std@@@std@@QAEAAV01@N@Z$3
	DD	00H
	DD	00H
	DD	00H
	DD	00H
__ehfuncinfo$??6?$basic_ostream@DU?$char_traits@D@std@@@std@@QAEAAV01@N@Z DD 019930522H
	DD	04H
	DD	FLAT:__unwindtable$??6?$basic_ostream@DU?$char_traits@D@std@@@std@@QAEAAV01@N@Z
	DD	01H
	DD	FLAT:__tryblocktable$??6?$basic_ostream@DU?$char_traits@D@std@@@std@@QAEAAV01@N@Z
	DD	2 DUP(00H)
	DD	00H
	DD	01H
; Function compile flags: /Odtp /RTCsu
xdata$x	ENDS
;	COMDAT ??6?$basic_ostream@DU?$char_traits@D@std@@@std@@QAEAAV01@N@Z
_TEXT	SEGMENT
tv198 = -92						; size = 4
tv197 = -88						; size = 4
tv196 = -81						; size = 1
tv144 = -80						; size = 4
tv193 = -76						; size = 4
tv65 = -72						; size = 4
$T147094 = -68						; size = 4
$T147093 = -64						; size = 8
$T147092 = -56						; size = 8
$T147089 = -48						; size = 4
__Nput_fac$137666 = -44					; size = 4
__Ok$ = -36						; size = 8
__State$ = -24						; size = 4
_this$ = -20						; size = 4
__$EHRec$ = -16						; size = 16
__Val$ = 8						; size = 8
??6?$basic_ostream@DU?$char_traits@D@std@@@std@@QAEAAV01@N@Z PROC ; std::basic_ostream<char,std::char_traits<char> >::operator<<, COMDAT
; _this$ = ecx

; 428  : 		{	// insert a double

	push	ebp
	mov	ebp, esp
	push	-1
	push	__ehhandler$??6?$basic_ostream@DU?$char_traits@D@std@@@std@@QAEAAV01@N@Z
	mov	eax, DWORD PTR fs:0
	push	eax
	push	ecx
	sub	esp, 76					; 0000004cH
	push	ebx
	push	esi
	push	edi
	push	ecx
	lea	edi, DWORD PTR [ebp-92]
	mov	ecx, 19					; 00000013H
	mov	eax, -858993460				; ccccccccH
	rep stosd
	pop	ecx
	mov	eax, DWORD PTR ___security_cookie
	xor	eax, ebp
	push	eax
	lea	eax, DWORD PTR __$EHRec$[ebp+4]
	mov	DWORD PTR fs:0, eax
	mov	DWORD PTR __$EHRec$[ebp], esp
	mov	DWORD PTR _this$[ebp], ecx

; 429  : 		ios_base::iostate _State = ios_base::goodbit;

	mov	DWORD PTR __State$[ebp], 0

; 430  : 		const sentry _Ok(*this);

	mov	eax, DWORD PTR _this$[ebp]
	push	eax
	lea	ecx, DWORD PTR __Ok$[ebp]
	call	??0sentry@?$basic_ostream@DU?$char_traits@D@std@@@std@@QAE@AAV12@@Z ; std::basic_ostream<char,std::char_traits<char> >::sentry::sentry
	mov	DWORD PTR __$EHRec$[ebp+12], 0

; 431  : 
; 432  : 		if (_Ok)

	lea	ecx, DWORD PTR __Ok$[ebp]
	call	??Bsentry@?$basic_ostream@DU?$char_traits@D@std@@@std@@QBEPQ_Bool_struct@2@HXZ ; std::basic_ostream<char,std::char_traits<char> >::sentry::operator int std::_Bool_struct::*
	cmp	eax, -1
	je	$LN12@operator

; 433  : 			{	// state okay, use facet to insert
; 434  : 			const _Nput& _Nput_fac = _USE(ios_base::getloc(), _Nput);

	lea	ecx, DWORD PTR $T147089[ebp]
	push	ecx
	mov	edx, DWORD PTR _this$[ebp]
	mov	eax, DWORD PTR [edx]
	mov	ecx, DWORD PTR _this$[ebp]
	add	ecx, DWORD PTR [eax+4]
	call	?getloc@ios_base@std@@QBE?AVlocale@2@XZ	; std::ios_base::getloc
	mov	DWORD PTR tv65[ebp], eax
	mov	ecx, DWORD PTR tv65[ebp]
	mov	DWORD PTR tv193[ebp], ecx
	mov	BYTE PTR __$EHRec$[ebp+12], 1
	mov	edx, DWORD PTR tv193[ebp]
	push	edx
	call	??$use_facet@V?$num_put@DV?$ostreambuf_iterator@DU?$char_traits@D@std@@@std@@@std@@@std@@YAABV?$num_put@DV?$ostreambuf_iterator@DU?$char_traits@D@std@@@std@@@0@ABVlocale@0@@Z ; std::use_facet<std::num_put<char,std::ostreambuf_iterator<char,std::char_traits<char> > > >
	add	esp, 4
	mov	DWORD PTR __Nput_fac$137666[ebp], eax
	mov	BYTE PTR __$EHRec$[ebp+12], 0
	lea	ecx, DWORD PTR $T147089[ebp]
	call	??1locale@std@@QAE@XZ			; std::locale::~locale

; 435  : 
; 436  : 			_TRY_IO_BEGIN

	mov	BYTE PTR __$EHRec$[ebp+12], 2

; 437  : 			if (_Nput_fac.put(_Iter(_Myios::rdbuf()), *this,
; 438  : 				_Myios::fill(), _Val).failed())

	cmp	DWORD PTR _this$[ebp], 0
	jne	SHORT $LN6@operator
	mov	DWORD PTR tv144[ebp], 0
	jmp	SHORT $LN7@operator
$LN6@operator:
	mov	eax, DWORD PTR _this$[ebp]
	mov	ecx, DWORD PTR [eax]
	mov	edx, DWORD PTR _this$[ebp]
	add	edx, DWORD PTR [ecx+4]
	mov	DWORD PTR tv144[ebp], edx
$LN7@operator:
	mov	eax, DWORD PTR _this$[ebp]
	mov	ecx, DWORD PTR [eax]
	mov	edx, DWORD PTR _this$[ebp]
	add	edx, DWORD PTR [ecx+4]
	mov	ecx, edx
	call	?fill@?$basic_ios@DU?$char_traits@D@std@@@std@@QBEDXZ ; std::basic_ios<char,std::char_traits<char> >::fill
	mov	BYTE PTR tv196[ebp], al
	mov	eax, DWORD PTR _this$[ebp]
	mov	ecx, DWORD PTR [eax]
	mov	edx, DWORD PTR _this$[ebp]
	add	edx, DWORD PTR [ecx+4]
	mov	ecx, edx
	call	?rdbuf@?$basic_ios@DU?$char_traits@D@std@@@std@@QBEPAV?$basic_streambuf@DU?$char_traits@D@std@@@2@XZ ; std::basic_ios<char,std::char_traits<char> >::rdbuf
	mov	DWORD PTR tv197[ebp], eax
	sub	esp, 8
	fld	QWORD PTR __Val$[ebp]
	fstp	QWORD PTR [esp]
	movzx	eax, BYTE PTR tv196[ebp]
	push	eax
	mov	ecx, DWORD PTR tv144[ebp]
	push	ecx
	mov	edx, DWORD PTR tv197[ebp]
	push	edx
	lea	ecx, DWORD PTR $T147092[ebp]
	call	??0?$ostreambuf_iterator@DU?$char_traits@D@std@@@std@@QAE@PAV?$basic_streambuf@DU?$char_traits@D@std@@@1@@Z ; std::ostreambuf_iterator<char,std::char_traits<char> >::ostreambuf_iterator<char,std::char_traits<char> >
	mov	ecx, DWORD PTR [eax+4]
	push	ecx
	mov	edx, DWORD PTR [eax]
	push	edx
	lea	eax, DWORD PTR $T147093[ebp]
	push	eax
	mov	ecx, DWORD PTR __Nput_fac$137666[ebp]
	call	?put@?$num_put@DV?$ostreambuf_iterator@DU?$char_traits@D@std@@@std@@@std@@QBE?AV?$ostreambuf_iterator@DU?$char_traits@D@std@@@2@V32@AAVios_base@2@DN@Z ; std::num_put<char,std::ostreambuf_iterator<char,std::char_traits<char> > >::put
	mov	DWORD PTR tv198[ebp], eax
	mov	ecx, DWORD PTR tv198[ebp]
	call	?failed@?$ostreambuf_iterator@DU?$char_traits@D@std@@@std@@QBE_NXZ ; std::ostreambuf_iterator<char,std::char_traits<char> >::failed
	movzx	ecx, al
	test	ecx, ecx
	je	SHORT $LN1@operator

; 439  : 				_State |= ios_base::badbit;

	mov	edx, DWORD PTR __State$[ebp]
	or	edx, 4
	mov	DWORD PTR __State$[ebp], edx
$LN1@operator:
	jmp	SHORT $LN8@operator
__catch$??6?$basic_ostream@DU?$char_traits@D@std@@@std@@QAEAAV01@N@Z$0:

; 440  : 			_CATCH_IO_END

	push	1
	push	4
	mov	eax, DWORD PTR _this$[ebp]
	mov	ecx, DWORD PTR [eax]
	mov	edx, DWORD PTR _this$[ebp]
	add	edx, DWORD PTR [ecx+4]
	mov	ecx, edx
	call	?setstate@?$basic_ios@DU?$char_traits@D@std@@@std@@QAEXH_N@Z ; std::basic_ios<char,std::char_traits<char> >::setstate
	mov	DWORD PTR __$EHRec$[ebp+12], 0
	mov	eax, $LN13@operator
	ret	0
$LN8@operator:
	mov	DWORD PTR __$EHRec$[ebp+12], 0
$LN13@operator:
$LN12@operator:

; 441  : 			}
; 442  : 
; 443  : 		_Myios::setstate(_State);

	push	0
	mov	eax, DWORD PTR __State$[ebp]
	push	eax
	mov	ecx, DWORD PTR _this$[ebp]
	mov	edx, DWORD PTR [ecx]
	mov	ecx, DWORD PTR _this$[ebp]
	add	ecx, DWORD PTR [edx+4]
	call	?setstate@?$basic_ios@DU?$char_traits@D@std@@@std@@QAEXH_N@Z ; std::basic_ios<char,std::char_traits<char> >::setstate

; 444  : 		return (*this);

	mov	eax, DWORD PTR _this$[ebp]
	mov	DWORD PTR $T147094[ebp], eax
	mov	DWORD PTR __$EHRec$[ebp+12], -1
	lea	ecx, DWORD PTR __Ok$[ebp]
	call	??1sentry@?$basic_ostream@DU?$char_traits@D@std@@@std@@QAE@XZ ; std::basic_ostream<char,std::char_traits<char> >::sentry::~sentry
	mov	eax, DWORD PTR $T147094[ebp]

; 445  : 		}

	push	edx
	mov	ecx, ebp
	push	eax
	lea	edx, DWORD PTR $LN18@operator
	call	@_RTC_CheckStackVars@8
	pop	eax
	pop	edx
	mov	ecx, DWORD PTR __$EHRec$[ebp+4]
	mov	DWORD PTR fs:0, ecx
	pop	ecx
	pop	edi
	pop	esi
	pop	ebx
	add	esp, 92					; 0000005cH
	cmp	ebp, esp
	call	__RTC_CheckEsp
	mov	esp, ebp
	pop	ebp
	ret	8
	npad	1
$LN18@operator:
	DD	1
	DD	$LN17@operator
$LN17@operator:
	DD	-36					; ffffffdcH
	DD	8
	DD	$LN15@operator
$LN15@operator:
	DB	95					; 0000005fH
	DB	79					; 0000004fH
	DB	107					; 0000006bH
	DB	0
_TEXT	ENDS
;	COMDAT text$x
text$x	SEGMENT
__unwindfunclet$??6?$basic_ostream@DU?$char_traits@D@std@@@std@@QAEAAV01@N@Z$2:
	lea	ecx, DWORD PTR __Ok$[ebp]
	jmp	??1sentry@?$basic_ostream@DU?$char_traits@D@std@@@std@@QAE@XZ ; std::basic_ostream<char,std::char_traits<char> >::sentry::~sentry
__unwindfunclet$??6?$basic_ostream@DU?$char_traits@D@std@@@std@@QAEAAV01@N@Z$3:
	lea	ecx, DWORD PTR $T147089[ebp]
	jmp	??1locale@std@@QAE@XZ			; std::locale::~locale
__ehhandler$??6?$basic_ostream@DU?$char_traits@D@std@@@std@@QAEAAV01@N@Z:
	mov	edx, DWORD PTR [esp+8]
	lea	eax, DWORD PTR [edx+12]
	mov	ecx, DWORD PTR [edx-96]
	xor	ecx, eax
	call	@__security_check_cookie@4
	mov	eax, OFFSET __ehfuncinfo$??6?$basic_ostream@DU?$char_traits@D@std@@@std@@QAEAAV01@N@Z
	jmp	___CxxFrameHandler3
text$x	ENDS
??6?$basic_ostream@DU?$char_traits@D@std@@@std@@QAEAAV01@N@Z ENDP ; std::basic_ostream<char,std::char_traits<char> >::operator<<
PUBLIC	??$_DebugHeapDelete@Vfacet@locale@std@@@std@@YAXPAVfacet@locale@0@@Z ; std::_DebugHeapDelete<std::locale::facet>
PUBLIC	?_Decref@facet@locale@std@@QAEPAV123@XZ		; std::locale::facet::_Decref
; Function compile flags: /Odtp /RTCsu
; File c:\program files (x86)\microsoft visual studio 10.0\vc\include\xlocale
;	COMDAT ??1locale@std@@QAE@XZ
_TEXT	SEGMENT
_this$ = -4						; size = 4
??1locale@std@@QAE@XZ PROC				; std::locale::~locale, COMDAT
; _this$ = ecx

; 409  : 		{	// destroy the object

	push	ebp
	mov	ebp, esp
	push	ecx
	mov	DWORD PTR [ebp-4], -858993460		; ccccccccH
	mov	DWORD PTR _this$[ebp], ecx

; 410  : 		if (_Ptr != 0)

	mov	eax, DWORD PTR _this$[ebp]
	cmp	DWORD PTR [eax], 0
	je	SHORT $LN2@locale

; 411  : 			_DELETE_CRT(_Ptr->_Decref());

	mov	ecx, DWORD PTR _this$[ebp]
	mov	ecx, DWORD PTR [ecx]
	call	?_Decref@facet@locale@std@@QAEPAV123@XZ	; std::locale::facet::_Decref
	push	eax
	call	??$_DebugHeapDelete@Vfacet@locale@std@@@std@@YAXPAVfacet@locale@0@@Z ; std::_DebugHeapDelete<std::locale::facet>
	add	esp, 4
$LN2@locale:

; 412  : 		}

	add	esp, 4
	cmp	ebp, esp
	call	__RTC_CheckEsp
	mov	esp, ebp
	pop	ebp
	ret	0
??1locale@std@@QAE@XZ ENDP				; std::locale::~locale
; Function compile flags: /Odtp /RTCsu
_TEXT	ENDS
;	COMDAT ?_Decref@facet@locale@std@@QAEPAV123@XZ
_TEXT	SEGMENT
$T147117 = -20						; size = 4
__Lock$34150 = -12					; size = 4
_this$ = -4						; size = 4
?_Decref@facet@locale@std@@QAEPAV123@XZ PROC		; std::locale::facet::_Decref, COMDAT
; _this$ = ecx

; 119  : 			{	// safely decrement the reference count, return this when dead

	push	ebp
	mov	ebp, esp
	sub	esp, 20					; 00000014H
	mov	eax, -858993460				; ccccccccH
	mov	DWORD PTR [ebp-20], eax
	mov	DWORD PTR [ebp-16], eax
	mov	DWORD PTR [ebp-12], eax
	mov	DWORD PTR [ebp-8], eax
	mov	DWORD PTR [ebp-4], eax
	mov	DWORD PTR _this$[ebp], ecx

; 120  : 			_BEGIN_LOCK(_LOCK_LOCALE)

	push	0
	lea	ecx, DWORD PTR __Lock$34150[ebp]
	call	??0_Lockit@std@@QAE@H@Z			; std::_Lockit::_Lockit

; 121  : 				if (0 < _Refs && _Refs < (size_t)(-1))

	mov	eax, DWORD PTR _this$[ebp]
	cmp	DWORD PTR [eax+4], 0
	jbe	SHORT $LN1@Decref
	mov	ecx, DWORD PTR _this$[ebp]
	cmp	DWORD PTR [ecx+4], -1
	jae	SHORT $LN1@Decref

; 122  : 					--_Refs;

	mov	edx, DWORD PTR _this$[ebp]
	mov	eax, DWORD PTR [edx+4]
	sub	eax, 1
	mov	ecx, DWORD PTR _this$[ebp]
	mov	DWORD PTR [ecx+4], eax
$LN1@Decref:

; 123  : 				return (_Refs == 0 ? this : 0);

	mov	edx, DWORD PTR _this$[ebp]
	mov	eax, DWORD PTR [edx+4]
	neg	eax
	sbb	eax, eax
	not	eax
	and	eax, DWORD PTR _this$[ebp]
	mov	DWORD PTR $T147117[ebp], eax
	lea	ecx, DWORD PTR __Lock$34150[ebp]
	call	??1_Lockit@std@@QAE@XZ			; std::_Lockit::~_Lockit
	mov	eax, DWORD PTR $T147117[ebp]

; 124  : 			_END_LOCK()
; 125  : 			}

	push	edx
	mov	ecx, ebp
	push	eax
	lea	edx, DWORD PTR $LN7@Decref
	call	@_RTC_CheckStackVars@8
	pop	eax
	pop	edx
	add	esp, 20					; 00000014H
	cmp	ebp, esp
	call	__RTC_CheckEsp
	mov	esp, ebp
	pop	ebp
	ret	0
$LN7@Decref:
	DD	1
	DD	$LN6@Decref
$LN6@Decref:
	DD	-12					; fffffff4H
	DD	4
	DD	$LN5@Decref
$LN5@Decref:
	DB	95					; 0000005fH
	DB	76					; 0000004cH
	DB	111					; 0000006fH
	DB	99					; 00000063H
	DB	107					; 0000006bH
	DB	0
?_Decref@facet@locale@std@@QAEPAV123@XZ ENDP		; std::locale::facet::_Decref
_TEXT	ENDS
PUBLIC	??0locale@std@@QAE@ABV01@@Z			; std::locale::locale
; Function compile flags: /Odtp /RTCsu
; File c:\program files (x86)\microsoft visual studio 10.0\vc\include\xiosbase
;	COMDAT ?getloc@ios_base@std@@QBE?AVlocale@2@XZ
_TEXT	SEGMENT
$T147125 = -8						; size = 4
_this$ = -4						; size = 4
___$ReturnUdt$ = 8					; size = 4
?getloc@ios_base@std@@QBE?AVlocale@2@XZ PROC		; std::ios_base::getloc, COMDAT
; _this$ = ecx

; 451  : 		{	// get locale

	push	ebp
	mov	ebp, esp
	sub	esp, 8
	mov	DWORD PTR [ebp-8], -858993460		; ccccccccH
	mov	DWORD PTR [ebp-4], -858993460		; ccccccccH
	mov	DWORD PTR _this$[ebp], ecx
	mov	DWORD PTR $T147125[ebp], 0

; 452  : 		return (*_Ploc);

	mov	eax, DWORD PTR _this$[ebp]
	mov	ecx, DWORD PTR [eax+48]
	push	ecx
	mov	ecx, DWORD PTR ___$ReturnUdt$[ebp]
	call	??0locale@std@@QAE@ABV01@@Z		; std::locale::locale
	mov	edx, DWORD PTR $T147125[ebp]
	or	edx, 1
	mov	DWORD PTR $T147125[ebp], edx
	mov	eax, DWORD PTR ___$ReturnUdt$[ebp]

; 453  : 		}

	add	esp, 8
	cmp	ebp, esp
	call	__RTC_CheckEsp
	mov	esp, ebp
	pop	ebp
	ret	4
?getloc@ios_base@std@@QBE?AVlocale@2@XZ ENDP		; std::ios_base::getloc
_TEXT	ENDS
PUBLIC	?_Incref@facet@locale@std@@QAEXXZ		; std::locale::facet::_Incref
; Function compile flags: /Odtp /RTCsu
; File c:\program files (x86)\microsoft visual studio 10.0\vc\include\xlocale
;	COMDAT ??0locale@std@@QAE@ABV01@@Z
_TEXT	SEGMENT
_this$ = -4						; size = 4
__Right$ = 8						; size = 4
??0locale@std@@QAE@ABV01@@Z PROC			; std::locale::locale, COMDAT
; _this$ = ecx

; 309  : 		{	// construct by copying

	push	ebp
	mov	ebp, esp
	push	ecx
	mov	DWORD PTR [ebp-4], -858993460		; ccccccccH
	mov	DWORD PTR _this$[ebp], ecx
	mov	eax, DWORD PTR _this$[ebp]
	mov	ecx, DWORD PTR __Right$[ebp]
	mov	edx, DWORD PTR [ecx]
	mov	DWORD PTR [eax], edx

; 310  : 		_Ptr->_Incref();

	mov	eax, DWORD PTR _this$[ebp]
	mov	ecx, DWORD PTR [eax]
	call	?_Incref@facet@locale@std@@QAEXXZ	; std::locale::facet::_Incref

; 311  : 		}

	mov	eax, DWORD PTR _this$[ebp]
	add	esp, 4
	cmp	ebp, esp
	call	__RTC_CheckEsp
	mov	esp, ebp
	pop	ebp
	ret	4
??0locale@std@@QAE@ABV01@@Z ENDP			; std::locale::locale
; Function compile flags: /Odtp /RTCsu
_TEXT	ENDS
;	COMDAT ?_Incref@facet@locale@std@@QAEXXZ
_TEXT	SEGMENT
__Lock$34145 = -12					; size = 4
_this$ = -4						; size = 4
?_Incref@facet@locale@std@@QAEXXZ PROC			; std::locale::facet::_Incref, COMDAT
; _this$ = ecx

; 111  : 			{	// safely increment the reference count

	push	ebp
	mov	ebp, esp
	sub	esp, 16					; 00000010H
	mov	eax, -858993460				; ccccccccH
	mov	DWORD PTR [ebp-16], eax
	mov	DWORD PTR [ebp-12], eax
	mov	DWORD PTR [ebp-8], eax
	mov	DWORD PTR [ebp-4], eax
	mov	DWORD PTR _this$[ebp], ecx

; 112  : 			_BEGIN_LOCK(_LOCK_LOCALE)

	push	0
	lea	ecx, DWORD PTR __Lock$34145[ebp]
	call	??0_Lockit@std@@QAE@H@Z			; std::_Lockit::_Lockit

; 113  : 				if (_Refs < (size_t)(-1))

	mov	eax, DWORD PTR _this$[ebp]
	cmp	DWORD PTR [eax+4], -1
	jae	SHORT $LN1@Incref

; 114  : 					++_Refs;

	mov	ecx, DWORD PTR _this$[ebp]
	mov	edx, DWORD PTR [ecx+4]
	add	edx, 1
	mov	eax, DWORD PTR _this$[ebp]
	mov	DWORD PTR [eax+4], edx
$LN1@Incref:

; 115  : 			_END_LOCK()

	lea	ecx, DWORD PTR __Lock$34145[ebp]
	call	??1_Lockit@std@@QAE@XZ			; std::_Lockit::~_Lockit

; 116  : 			}

	push	edx
	mov	ecx, ebp
	push	eax
	lea	edx, DWORD PTR $LN7@Incref
	call	@_RTC_CheckStackVars@8
	pop	eax
	pop	edx
	add	esp, 16					; 00000010H
	cmp	ebp, esp
	call	__RTC_CheckEsp
	mov	esp, ebp
	pop	ebp
	ret	0
	npad	1
$LN7@Incref:
	DD	1
	DD	$LN6@Incref
$LN6@Incref:
	DD	-12					; fffffff4H
	DD	4
	DD	$LN5@Incref
$LN5@Incref:
	DB	95					; 0000005fH
	DB	76					; 0000004cH
	DB	111					; 0000006fH
	DB	99					; 00000063H
	DB	107					; 0000006bH
	DB	0
?_Incref@facet@locale@std@@QAEXXZ ENDP			; std::locale::facet::_Incref
_TEXT	ENDS
PUBLIC	?clear@?$basic_ios@DU?$char_traits@D@std@@@std@@QAEXH_N@Z ; std::basic_ios<char,std::char_traits<char> >::clear
PUBLIC	?rdstate@ios_base@std@@QBEHXZ			; std::ios_base::rdstate
; Function compile flags: /Odtp /RTCsu
; File c:\program files (x86)\microsoft visual studio 10.0\vc\include\ios
;	COMDAT ?setstate@?$basic_ios@DU?$char_traits@D@std@@@std@@QAEXH_N@Z
_TEXT	SEGMENT
_this$ = -4						; size = 4
__State$ = 8						; size = 4
__Reraise$ = 12						; size = 1
?setstate@?$basic_ios@DU?$char_traits@D@std@@@std@@QAEXH_N@Z PROC ; std::basic_ios<char,std::char_traits<char> >::setstate, COMDAT
; _this$ = ecx

; 54   : 		{	// merge _State into state, possible reraise exception

	push	ebp
	mov	ebp, esp
	push	ecx
	mov	DWORD PTR [ebp-4], -858993460		; ccccccccH
	mov	DWORD PTR _this$[ebp], ecx

; 55   : 		if (_State != goodbit)

	cmp	DWORD PTR __State$[ebp], 0
	je	SHORT $LN2@setstate

; 56   : 			clear((iostate)((int)rdstate() | (int)_State), _Reraise);

	movzx	eax, BYTE PTR __Reraise$[ebp]
	push	eax
	mov	ecx, DWORD PTR _this$[ebp]
	call	?rdstate@ios_base@std@@QBEHXZ		; std::ios_base::rdstate
	or	eax, DWORD PTR __State$[ebp]
	push	eax
	mov	ecx, DWORD PTR _this$[ebp]
	call	?clear@?$basic_ios@DU?$char_traits@D@std@@@std@@QAEXH_N@Z ; std::basic_ios<char,std::char_traits<char> >::clear
$LN2@setstate:

; 57   : 		}

	add	esp, 4
	cmp	ebp, esp
	call	__RTC_CheckEsp
	mov	esp, ebp
	pop	ebp
	ret	8
?setstate@?$basic_ios@DU?$char_traits@D@std@@@std@@QAEXH_N@Z ENDP ; std::basic_ios<char,std::char_traits<char> >::setstate
; Function compile flags: /Odtp /RTCsu
; File c:\program files (x86)\microsoft visual studio 10.0\vc\include\xiosbase
_TEXT	ENDS
;	COMDAT ?rdstate@ios_base@std@@QBEHXZ
_TEXT	SEGMENT
_this$ = -4						; size = 4
?rdstate@ios_base@std@@QBEHXZ PROC			; std::ios_base::rdstate, COMDAT
; _this$ = ecx

; 335  : 		{	// return stream state

	push	ebp
	mov	ebp, esp
	push	ecx
	mov	DWORD PTR [ebp-4], -858993460		; ccccccccH
	mov	DWORD PTR _this$[ebp], ecx

; 336  : 		return (_Mystate);

	mov	eax, DWORD PTR _this$[ebp]
	mov	eax, DWORD PTR [eax+12]

; 337  : 		}

	mov	esp, ebp
	pop	ebp
	ret	0
?rdstate@ios_base@std@@QBEHXZ ENDP			; std::ios_base::rdstate
; Function compile flags: /Odtp /RTCsu
; File c:\program files (x86)\microsoft visual studio 10.0\vc\include\ios
_TEXT	ENDS
;	COMDAT ?rdbuf@?$basic_ios@DU?$char_traits@D@std@@@std@@QBEPAV?$basic_streambuf@DU?$char_traits@D@std@@@2@XZ
_TEXT	SEGMENT
_this$ = -4						; size = 4
?rdbuf@?$basic_ios@DU?$char_traits@D@std@@@std@@QBEPAV?$basic_streambuf@DU?$char_traits@D@std@@@2@XZ PROC ; std::basic_ios<char,std::char_traits<char> >::rdbuf, COMDAT
; _this$ = ecx

; 85   : 		{	// return stream buffer pointer

	push	ebp
	mov	ebp, esp
	push	ecx
	mov	DWORD PTR [ebp-4], -858993460		; ccccccccH
	mov	DWORD PTR _this$[ebp], ecx

; 86   : 		return (_Mystrbuf);

	mov	eax, DWORD PTR _this$[ebp]
	mov	eax, DWORD PTR [eax+56]

; 87   : 		}

	mov	esp, ebp
	pop	ebp
	ret	0
?rdbuf@?$basic_ios@DU?$char_traits@D@std@@@std@@QBEPAV?$basic_streambuf@DU?$char_traits@D@std@@@2@XZ ENDP ; std::basic_ios<char,std::char_traits<char> >::rdbuf
_TEXT	ENDS
PUBLIC	?clear@ios_base@std@@QAEXH_N@Z			; std::ios_base::clear
; Function compile flags: /Odtp /RTCsu
;	COMDAT ?clear@?$basic_ios@DU?$char_traits@D@std@@@std@@QAEXH_N@Z
_TEXT	SEGMENT
tv73 = -8						; size = 4
_this$ = -4						; size = 4
__State$ = 8						; size = 4
__Reraise$ = 12						; size = 1
?clear@?$basic_ios@DU?$char_traits@D@std@@@std@@QAEXH_N@Z PROC ; std::basic_ios<char,std::char_traits<char> >::clear, COMDAT
; _this$ = ecx

; 42   : 		{	// set state, possibly reraise exception

	push	ebp
	mov	ebp, esp
	sub	esp, 8
	mov	DWORD PTR [ebp-8], -858993460		; ccccccccH
	mov	DWORD PTR [ebp-4], -858993460		; ccccccccH
	mov	DWORD PTR _this$[ebp], ecx

; 43   : 		ios_base::clear((iostate)(_Mystrbuf == 0
; 44   : 			? (int)_State | (int)badbit : (int)_State), _Reraise);

	mov	eax, DWORD PTR _this$[ebp]
	cmp	DWORD PTR [eax+56], 0
	jne	SHORT $LN3@clear
	mov	ecx, DWORD PTR __State$[ebp]
	or	ecx, 4
	mov	DWORD PTR tv73[ebp], ecx
	jmp	SHORT $LN4@clear
$LN3@clear:
	mov	edx, DWORD PTR __State$[ebp]
	mov	DWORD PTR tv73[ebp], edx
$LN4@clear:
	movzx	eax, BYTE PTR __Reraise$[ebp]
	push	eax
	mov	ecx, DWORD PTR tv73[ebp]
	push	ecx
	mov	ecx, DWORD PTR _this$[ebp]
	call	?clear@ios_base@std@@QAEXH_N@Z		; std::ios_base::clear

; 45   : 		}

	add	esp, 8
	cmp	ebp, esp
	call	__RTC_CheckEsp
	mov	esp, ebp
	pop	ebp
	ret	8
?clear@?$basic_ios@DU?$char_traits@D@std@@@std@@QAEXH_N@Z ENDP ; std::basic_ios<char,std::char_traits<char> >::clear
_TEXT	ENDS
PUBLIC	??_C@_0BF@OOHOMBOF@ios_base?3?3eofbit?5set?$AA@	; `string'
PUBLIC	??_C@_0BG@FMKFHCIL@ios_base?3?3failbit?5set?$AA@ ; `string'
PUBLIC	__TI4?AVfailure@ios_base@std@@
PUBLIC	??0failure@ios_base@std@@QAE@PBDABVerror_code@2@@Z ; std::ios_base::failure::failure
PUBLIC	??_C@_0BF@PHHKMMFD@ios_base?3?3badbit?5set?$AA@	; `string'
PUBLIC	?make_error_code@std@@YA?AVerror_code@1@W4io_errc@31@@Z ; std::make_error_code
PUBLIC	??1failure@ios_base@std@@UAE@XZ			; std::ios_base::failure::~failure
PUBLIC	__CTA4?AVfailure@ios_base@std@@
PUBLIC	__CT??_R0?AVfailure@ios_base@std@@@8??0failure@ios_base@std@@QAE@ABV012@@Z20
PUBLIC	??_R0?AVfailure@ios_base@std@@@8		; std::ios_base::failure `RTTI Type Descriptor'
PUBLIC	??0failure@ios_base@std@@QAE@ABV012@@Z		; std::ios_base::failure::failure
PUBLIC	__CT??_R0?AVsystem_error@std@@@8??0system_error@std@@QAE@ABV01@@Z20
PUBLIC	??_R0?AVsystem_error@std@@@8			; std::system_error `RTTI Type Descriptor'
PUBLIC	??0system_error@std@@QAE@ABV01@@Z		; std::system_error::system_error
PUBLIC	__CT??_R0?AVruntime_error@std@@@8??0runtime_error@std@@QAE@ABV01@@Z12
PUBLIC	??_R0?AVruntime_error@std@@@8			; std::runtime_error `RTTI Type Descriptor'
PUBLIC	??0runtime_error@std@@QAE@ABV01@@Z		; std::runtime_error::runtime_error
PUBLIC	__CT??_R0?AVexception@std@@@8??0exception@std@@QAE@ABV01@@Z12
PUBLIC	??_R0?AVexception@std@@@8			; std::exception `RTTI Type Descriptor'
EXTRN	??_7type_info@@6B@:QWORD			; type_info::`vftable'
EXTRN	??0exception@std@@QAE@ABV01@@Z:PROC		; std::exception::exception
;	COMDAT ??_R0?AVexception@std@@@8
; File c:\program files (x86)\microsoft visual studio 10.0\vc\include\xiosbase
_DATA	SEGMENT
??_R0?AVexception@std@@@8 DD FLAT:??_7type_info@@6B@	; std::exception `RTTI Type Descriptor'
	DD	00H
	DB	'.?AVexception@std@@', 00H
_DATA	ENDS
;	COMDAT __CT??_R0?AVexception@std@@@8??0exception@std@@QAE@ABV01@@Z12
xdata$x	SEGMENT
__CT??_R0?AVexception@std@@@8??0exception@std@@QAE@ABV01@@Z12 DD 00H
	DD	FLAT:??_R0?AVexception@std@@@8
	DD	00H
	DD	0ffffffffH
	ORG $+4
	DD	0cH
	DD	FLAT:??0exception@std@@QAE@ABV01@@Z
xdata$x	ENDS
;	COMDAT ??_R0?AVruntime_error@std@@@8
_DATA	SEGMENT
??_R0?AVruntime_error@std@@@8 DD FLAT:??_7type_info@@6B@ ; std::runtime_error `RTTI Type Descriptor'
	DD	00H
	DB	'.?AVruntime_error@std@@', 00H
_DATA	ENDS
;	COMDAT __CT??_R0?AVruntime_error@std@@@8??0runtime_error@std@@QAE@ABV01@@Z12
xdata$x	SEGMENT
__CT??_R0?AVruntime_error@std@@@8??0runtime_error@std@@QAE@ABV01@@Z12 DD 00H
	DD	FLAT:??_R0?AVruntime_error@std@@@8
	DD	00H
	DD	0ffffffffH
	ORG $+4
	DD	0cH
	DD	FLAT:??0runtime_error@std@@QAE@ABV01@@Z
xdata$x	ENDS
;	COMDAT ??_R0?AVsystem_error@std@@@8
_DATA	SEGMENT
??_R0?AVsystem_error@std@@@8 DD FLAT:??_7type_info@@6B@	; std::system_error `RTTI Type Descriptor'
	DD	00H
	DB	'.?AVsystem_error@std@@', 00H
_DATA	ENDS
;	COMDAT __CT??_R0?AVsystem_error@std@@@8??0system_error@std@@QAE@ABV01@@Z20
xdata$x	SEGMENT
__CT??_R0?AVsystem_error@std@@@8??0system_error@std@@QAE@ABV01@@Z20 DD 00H
	DD	FLAT:??_R0?AVsystem_error@std@@@8
	DD	00H
	DD	0ffffffffH
	ORG $+4
	DD	014H
	DD	FLAT:??0system_error@std@@QAE@ABV01@@Z
xdata$x	ENDS
;	COMDAT ??_R0?AVfailure@ios_base@std@@@8
_DATA	SEGMENT
??_R0?AVfailure@ios_base@std@@@8 DD FLAT:??_7type_info@@6B@ ; std::ios_base::failure `RTTI Type Descriptor'
	DD	00H
	DB	'.?AVfailure@ios_base@std@@', 00H
_DATA	ENDS
;	COMDAT __CT??_R0?AVfailure@ios_base@std@@@8??0failure@ios_base@std@@QAE@ABV012@@Z20
xdata$x	SEGMENT
__CT??_R0?AVfailure@ios_base@std@@@8??0failure@ios_base@std@@QAE@ABV012@@Z20 DD 00H
	DD	FLAT:??_R0?AVfailure@ios_base@std@@@8
	DD	00H
	DD	0ffffffffH
	ORG $+4
	DD	014H
	DD	FLAT:??0failure@ios_base@std@@QAE@ABV012@@Z
xdata$x	ENDS
;	COMDAT __CTA4?AVfailure@ios_base@std@@
xdata$x	SEGMENT
__CTA4?AVfailure@ios_base@std@@ DD 04H
	DD	FLAT:__CT??_R0?AVfailure@ios_base@std@@@8??0failure@ios_base@std@@QAE@ABV012@@Z20
	DD	FLAT:__CT??_R0?AVsystem_error@std@@@8??0system_error@std@@QAE@ABV01@@Z20
	DD	FLAT:__CT??_R0?AVruntime_error@std@@@8??0runtime_error@std@@QAE@ABV01@@Z12
	DD	FLAT:__CT??_R0?AVexception@std@@@8??0exception@std@@QAE@ABV01@@Z12
xdata$x	ENDS
;	COMDAT ??_C@_0BF@OOHOMBOF@ios_base?3?3eofbit?5set?$AA@
CONST	SEGMENT
??_C@_0BF@OOHOMBOF@ios_base?3?3eofbit?5set?$AA@ DB 'ios_base::eofbit set', 00H ; `string'
CONST	ENDS
;	COMDAT ??_C@_0BG@FMKFHCIL@ios_base?3?3failbit?5set?$AA@
CONST	SEGMENT
??_C@_0BG@FMKFHCIL@ios_base?3?3failbit?5set?$AA@ DB 'ios_base::failbit se'
	DB	't', 00H					; `string'
CONST	ENDS
;	COMDAT __TI4?AVfailure@ios_base@std@@
xdata$x	SEGMENT
__TI4?AVfailure@ios_base@std@@ DD 00H
	DD	FLAT:??1failure@ios_base@std@@UAE@XZ
	DD	00H
	DD	FLAT:__CTA4?AVfailure@ios_base@std@@
xdata$x	ENDS
;	COMDAT ??_C@_0BF@PHHKMMFD@ios_base?3?3badbit?5set?$AA@
CONST	SEGMENT
??_C@_0BF@PHHKMMFD@ios_base?3?3badbit?5set?$AA@ DB 'ios_base::badbit set', 00H ; `string'
; Function compile flags: /Odtp /RTCsu
CONST	ENDS
;	COMDAT ?clear@ios_base@std@@QAEXH_N@Z
_TEXT	SEGMENT
$T147152 = -88						; size = 8
$T147151 = -80						; size = 20
$T147150 = -60						; size = 8
$T147149 = -52						; size = 20
$T147148 = -32						; size = 8
$T147147 = -24						; size = 20
_this$ = -4						; size = 4
__State$ = 8						; size = 4
__Reraise$ = 12						; size = 1
?clear@ios_base@std@@QAEXH_N@Z PROC			; std::ios_base::clear, COMDAT
; _this$ = ecx

; 310  : 		{	// set state, possibly reraise exception

	push	ebp
	mov	ebp, esp
	sub	esp, 88					; 00000058H
	push	edi
	push	ecx
	lea	edi, DWORD PTR [ebp-88]
	mov	ecx, 22					; 00000016H
	mov	eax, -858993460				; ccccccccH
	rep stosd
	pop	ecx
	mov	DWORD PTR _this$[ebp], ecx

; 311  : 		_Mystate = (iostate)(_State & _Statmask);

	mov	eax, DWORD PTR __State$[ebp]
	and	eax, 23					; 00000017H
	mov	ecx, DWORD PTR _this$[ebp]
	mov	DWORD PTR [ecx+12], eax

; 312  : 		if ((_Mystate & _Except) == 0)

	mov	edx, DWORD PTR _this$[ebp]
	mov	eax, DWORD PTR _this$[ebp]
	mov	ecx, DWORD PTR [edx+12]
	and	ecx, DWORD PTR [eax+16]
	jne	SHORT $LN8@clear@2
	jmp	$LN10@clear@2
$LN8@clear@2:

; 313  : 			;
; 314  : 		else if (_Reraise)

	movzx	edx, BYTE PTR __Reraise$[ebp]
	test	edx, edx
	je	SHORT $LN6@clear@2

; 315  : 			_RERAISE;

	push	0
	push	0
	call	__CxxThrowException@8
	jmp	$LN10@clear@2
$LN6@clear@2:

; 316  : 		else if (_Mystate & _Except & badbit)

	mov	eax, DWORD PTR _this$[ebp]
	mov	ecx, DWORD PTR _this$[ebp]
	mov	edx, DWORD PTR [eax+12]
	and	edx, DWORD PTR [ecx+16]
	and	edx, 4
	je	SHORT $LN4@clear@2

; 317  : 			_THROW_NCEE(failure, "ios_base::badbit set");

	push	1
	lea	eax, DWORD PTR $T147148[ebp]
	push	eax
	call	?make_error_code@std@@YA?AVerror_code@1@W4io_errc@31@@Z ; std::make_error_code
	add	esp, 8
	push	eax
	push	OFFSET ??_C@_0BF@PHHKMMFD@ios_base?3?3badbit?5set?$AA@
	lea	ecx, DWORD PTR $T147147[ebp]
	call	??0failure@ios_base@std@@QAE@PBDABVerror_code@2@@Z ; std::ios_base::failure::failure
	push	OFFSET __TI4?AVfailure@ios_base@std@@
	lea	ecx, DWORD PTR $T147147[ebp]
	push	ecx
	call	__CxxThrowException@8
	jmp	SHORT $LN10@clear@2
$LN4@clear@2:

; 318  : 		else if (_Mystate & _Except & failbit)

	mov	edx, DWORD PTR _this$[ebp]
	mov	eax, DWORD PTR _this$[ebp]
	mov	ecx, DWORD PTR [edx+12]
	and	ecx, DWORD PTR [eax+16]
	and	ecx, 2
	je	SHORT $LN2@clear@2

; 319  : 			_THROW_NCEE(failure, "ios_base::failbit set");

	push	1
	lea	edx, DWORD PTR $T147150[ebp]
	push	edx
	call	?make_error_code@std@@YA?AVerror_code@1@W4io_errc@31@@Z ; std::make_error_code
	add	esp, 8
	push	eax
	push	OFFSET ??_C@_0BG@FMKFHCIL@ios_base?3?3failbit?5set?$AA@
	lea	ecx, DWORD PTR $T147149[ebp]
	call	??0failure@ios_base@std@@QAE@PBDABVerror_code@2@@Z ; std::ios_base::failure::failure
	push	OFFSET __TI4?AVfailure@ios_base@std@@
	lea	eax, DWORD PTR $T147149[ebp]
	push	eax
	call	__CxxThrowException@8

; 320  : 		else

	jmp	SHORT $LN10@clear@2
$LN2@clear@2:

; 321  : 			_THROW_NCEE(failure, "ios_base::eofbit set");

	push	1
	lea	ecx, DWORD PTR $T147152[ebp]
	push	ecx
	call	?make_error_code@std@@YA?AVerror_code@1@W4io_errc@31@@Z ; std::make_error_code
	add	esp, 8
	push	eax
	push	OFFSET ??_C@_0BF@OOHOMBOF@ios_base?3?3eofbit?5set?$AA@
	lea	ecx, DWORD PTR $T147151[ebp]
	call	??0failure@ios_base@std@@QAE@PBDABVerror_code@2@@Z ; std::ios_base::failure::failure
	push	OFFSET __TI4?AVfailure@ios_base@std@@
	lea	edx, DWORD PTR $T147151[ebp]
	push	edx
	call	__CxxThrowException@8
$LN10@clear@2:

; 322  : 		}

	pop	edi
	add	esp, 88					; 00000058H
	cmp	ebp, esp
	call	__RTC_CheckEsp
	mov	esp, ebp
	pop	ebp
	ret	8
?clear@ios_base@std@@QAEXH_N@Z ENDP			; std::ios_base::clear
_TEXT	ENDS
PUBLIC	??_7runtime_error@std@@6B@			; std::runtime_error::`vftable'
PUBLIC	??_R4runtime_error@std@@6B@			; std::runtime_error::`RTTI Complete Object Locator'
PUBLIC	??_R3runtime_error@std@@8			; std::runtime_error::`RTTI Class Hierarchy Descriptor'
PUBLIC	??_R2runtime_error@std@@8			; std::runtime_error::`RTTI Base Class Array'
PUBLIC	??_R1A@?0A@EA@runtime_error@std@@8		; std::runtime_error::`RTTI Base Class Descriptor at (0,-1,0,64)'
PUBLIC	??_R1A@?0A@EA@exception@std@@8			; std::exception::`RTTI Base Class Descriptor at (0,-1,0,64)'
PUBLIC	??_R3exception@std@@8				; std::exception::`RTTI Class Hierarchy Descriptor'
PUBLIC	??_R2exception@std@@8				; std::exception::`RTTI Base Class Array'
EXTRN	??_Eruntime_error@std@@UAEPAXI@Z:PROC		; std::runtime_error::`vector deleting destructor'
EXTRN	?what@exception@std@@UBEPBDXZ:PROC		; std::exception::what
;	COMDAT ??_R2exception@std@@8
rdata$r	SEGMENT
??_R2exception@std@@8 DD FLAT:??_R1A@?0A@EA@exception@std@@8 ; std::exception::`RTTI Base Class Array'
rdata$r	ENDS
;	COMDAT ??_R3exception@std@@8
rdata$r	SEGMENT
??_R3exception@std@@8 DD 00H				; std::exception::`RTTI Class Hierarchy Descriptor'
	DD	00H
	DD	01H
	DD	FLAT:??_R2exception@std@@8
rdata$r	ENDS
;	COMDAT ??_R1A@?0A@EA@exception@std@@8
rdata$r	SEGMENT
??_R1A@?0A@EA@exception@std@@8 DD FLAT:??_R0?AVexception@std@@@8 ; std::exception::`RTTI Base Class Descriptor at (0,-1,0,64)'
	DD	00H
	DD	00H
	DD	0ffffffffH
	DD	00H
	DD	040H
	DD	FLAT:??_R3exception@std@@8
rdata$r	ENDS
;	COMDAT ??_R1A@?0A@EA@runtime_error@std@@8
rdata$r	SEGMENT
??_R1A@?0A@EA@runtime_error@std@@8 DD FLAT:??_R0?AVruntime_error@std@@@8 ; std::runtime_error::`RTTI Base Class Descriptor at (0,-1,0,64)'
	DD	01H
	DD	00H
	DD	0ffffffffH
	DD	00H
	DD	040H
	DD	FLAT:??_R3runtime_error@std@@8
rdata$r	ENDS
;	COMDAT ??_R2runtime_error@std@@8
rdata$r	SEGMENT
??_R2runtime_error@std@@8 DD FLAT:??_R1A@?0A@EA@runtime_error@std@@8 ; std::runtime_error::`RTTI Base Class Array'
	DD	FLAT:??_R1A@?0A@EA@exception@std@@8
rdata$r	ENDS
;	COMDAT ??_R3runtime_error@std@@8
rdata$r	SEGMENT
??_R3runtime_error@std@@8 DD 00H			; std::runtime_error::`RTTI Class Hierarchy Descriptor'
	DD	00H
	DD	02H
	DD	FLAT:??_R2runtime_error@std@@8
rdata$r	ENDS
;	COMDAT ??_R4runtime_error@std@@6B@
rdata$r	SEGMENT
??_R4runtime_error@std@@6B@ DD 00H			; std::runtime_error::`RTTI Complete Object Locator'
	DD	00H
	DD	00H
	DD	FLAT:??_R0?AVruntime_error@std@@@8
	DD	FLAT:??_R3runtime_error@std@@8
rdata$r	ENDS
;	COMDAT ??_7runtime_error@std@@6B@
CONST	SEGMENT
??_7runtime_error@std@@6B@ DD FLAT:??_R4runtime_error@std@@6B@ ; std::runtime_error::`vftable'
	DD	FLAT:??_Eruntime_error@std@@UAEPAXI@Z
	DD	FLAT:?what@exception@std@@UBEPBDXZ
; Function compile flags: /Odtp /RTCsu
CONST	ENDS
;	COMDAT ??0runtime_error@std@@QAE@ABV01@@Z
_TEXT	SEGMENT
_this$ = -4						; size = 4
___that$ = 8						; size = 4
??0runtime_error@std@@QAE@ABV01@@Z PROC			; std::runtime_error::runtime_error, COMDAT
; _this$ = ecx
	push	ebp
	mov	ebp, esp
	push	ecx
	mov	DWORD PTR [ebp-4], -858993460		; ccccccccH
	mov	DWORD PTR _this$[ebp], ecx
	mov	eax, DWORD PTR ___that$[ebp]
	push	eax
	mov	ecx, DWORD PTR _this$[ebp]
	call	??0exception@std@@QAE@ABV01@@Z		; std::exception::exception
	mov	ecx, DWORD PTR _this$[ebp]
	mov	DWORD PTR [ecx], OFFSET ??_7runtime_error@std@@6B@
	mov	eax, DWORD PTR _this$[ebp]
	add	esp, 4
	cmp	ebp, esp
	call	__RTC_CheckEsp
	mov	esp, ebp
	pop	ebp
	ret	4
??0runtime_error@std@@QAE@ABV01@@Z ENDP			; std::runtime_error::runtime_error
_TEXT	ENDS
PUBLIC	??1runtime_error@std@@UAE@XZ			; std::runtime_error::~runtime_error
; Function compile flags: /Odtp /RTCsu
;	COMDAT ??_Gruntime_error@std@@UAEPAXI@Z
_TEXT	SEGMENT
_this$ = -4						; size = 4
___flags$ = 8						; size = 4
??_Gruntime_error@std@@UAEPAXI@Z PROC			; std::runtime_error::`scalar deleting destructor', COMDAT
; _this$ = ecx
	push	ebp
	mov	ebp, esp
	push	ecx
	mov	DWORD PTR [ebp-4], -858993460		; ccccccccH
	mov	DWORD PTR _this$[ebp], ecx
	mov	ecx, DWORD PTR _this$[ebp]
	call	??1runtime_error@std@@UAE@XZ
	mov	eax, DWORD PTR ___flags$[ebp]
	and	eax, 1
	je	SHORT $LN1@scalar
	mov	ecx, DWORD PTR _this$[ebp]
	push	ecx
	call	??3@YAXPAX@Z				; operator delete
	add	esp, 4
$LN1@scalar:
	mov	eax, DWORD PTR _this$[ebp]
	add	esp, 4
	cmp	ebp, esp
	call	__RTC_CheckEsp
	mov	esp, ebp
	pop	ebp
	ret	4
??_Gruntime_error@std@@UAEPAXI@Z ENDP			; std::runtime_error::`scalar deleting destructor'
_TEXT	ENDS
EXTRN	??1exception@std@@UAE@XZ:PROC			; std::exception::~exception
; Function compile flags: /Odtp /RTCsu
;	COMDAT ??1runtime_error@std@@UAE@XZ
_TEXT	SEGMENT
_this$ = -4						; size = 4
??1runtime_error@std@@UAE@XZ PROC			; std::runtime_error::~runtime_error, COMDAT
; _this$ = ecx
	push	ebp
	mov	ebp, esp
	push	ecx
	mov	DWORD PTR [ebp-4], -858993460		; ccccccccH
	mov	DWORD PTR _this$[ebp], ecx
	mov	ecx, DWORD PTR _this$[ebp]
	call	??1exception@std@@UAE@XZ		; std::exception::~exception
	add	esp, 4
	cmp	ebp, esp
	call	__RTC_CheckEsp
	mov	esp, ebp
	pop	ebp
	ret	0
??1runtime_error@std@@UAE@XZ ENDP			; std::runtime_error::~runtime_error
_TEXT	ENDS
PUBLIC	??0error_code@std@@QAE@HABVerror_category@1@@Z	; std::error_code::error_code
EXTRN	?iostream_category@std@@YAABVerror_category@1@XZ:PROC ; std::iostream_category
; Function compile flags: /Odtp /RTCsu
; File c:\program files (x86)\microsoft visual studio 10.0\vc\include\system_error
;	COMDAT ?make_error_code@std@@YA?AVerror_code@1@W4io_errc@31@@Z
_TEXT	SEGMENT
___$ReturnUdt$ = 8					; size = 4
__Errno$ = 12						; size = 4
?make_error_code@std@@YA?AVerror_code@1@W4io_errc@31@@Z PROC ; std::make_error_code, COMDAT

; 446  : 	{	// make an error_code

	push	ebp
	mov	ebp, esp

; 447  : 	return (error_code(_Errno, iostream_category()));

	call	?iostream_category@std@@YAABVerror_category@1@XZ ; std::iostream_category
	push	eax
	mov	eax, DWORD PTR __Errno$[ebp]
	push	eax
	mov	ecx, DWORD PTR ___$ReturnUdt$[ebp]
	call	??0error_code@std@@QAE@HABVerror_category@1@@Z ; std::error_code::error_code
	mov	eax, DWORD PTR ___$ReturnUdt$[ebp]

; 448  : 	}

	cmp	ebp, esp
	call	__RTC_CheckEsp
	pop	ebp
	ret	0
?make_error_code@std@@YA?AVerror_code@1@W4io_errc@31@@Z ENDP ; std::make_error_code
; Function compile flags: /Odtp /RTCsu
_TEXT	ENDS
;	COMDAT ??0error_code@std@@QAE@HABVerror_category@1@@Z
_TEXT	SEGMENT
_this$ = -4						; size = 4
__Val$ = 8						; size = 4
__Cat$ = 12						; size = 4
??0error_code@std@@QAE@HABVerror_category@1@@Z PROC	; std::error_code::error_code, COMDAT
; _this$ = ecx

; 204  : 		{	// construct from error code and category

	push	ebp
	mov	ebp, esp
	push	ecx
	mov	DWORD PTR [ebp-4], -858993460		; ccccccccH
	mov	DWORD PTR _this$[ebp], ecx
	mov	eax, DWORD PTR _this$[ebp]
	mov	ecx, DWORD PTR __Val$[ebp]
	mov	DWORD PTR [eax], ecx
	mov	edx, DWORD PTR _this$[ebp]
	mov	eax, DWORD PTR __Cat$[ebp]
	mov	DWORD PTR [edx+4], eax

; 205  : 		}

	mov	eax, DWORD PTR _this$[ebp]
	mov	esp, ebp
	pop	ebp
	ret	8
??0error_code@std@@QAE@HABVerror_category@1@@Z ENDP	; std::error_code::error_code
_TEXT	ENDS
PUBLIC	??_7failure@ios_base@std@@6B@			; std::ios_base::failure::`vftable'
PUBLIC	??0system_error@std@@QAE@Verror_code@1@PBD@Z	; std::system_error::system_error
PUBLIC	??_R4failure@ios_base@std@@6B@			; std::ios_base::failure::`RTTI Complete Object Locator'
PUBLIC	??_R3failure@ios_base@std@@8			; std::ios_base::failure::`RTTI Class Hierarchy Descriptor'
PUBLIC	??_R2failure@ios_base@std@@8			; std::ios_base::failure::`RTTI Base Class Array'
PUBLIC	??_R1A@?0A@EA@failure@ios_base@std@@8		; std::ios_base::failure::`RTTI Base Class Descriptor at (0,-1,0,64)'
PUBLIC	??_R1A@?0A@EA@system_error@std@@8		; std::system_error::`RTTI Base Class Descriptor at (0,-1,0,64)'
PUBLIC	??_R3system_error@std@@8			; std::system_error::`RTTI Class Hierarchy Descriptor'
PUBLIC	??_R2system_error@std@@8			; std::system_error::`RTTI Base Class Array'
EXTRN	??_Efailure@ios_base@std@@UAEPAXI@Z:PROC	; std::ios_base::failure::`vector deleting destructor'
;	COMDAT ??_R2system_error@std@@8
; File c:\program files (x86)\microsoft visual studio 10.0\vc\include\xiosbase
rdata$r	SEGMENT
??_R2system_error@std@@8 DD FLAT:??_R1A@?0A@EA@system_error@std@@8 ; std::system_error::`RTTI Base Class Array'
	DD	FLAT:??_R1A@?0A@EA@runtime_error@std@@8
	DD	FLAT:??_R1A@?0A@EA@exception@std@@8
rdata$r	ENDS
;	COMDAT ??_R3system_error@std@@8
rdata$r	SEGMENT
??_R3system_error@std@@8 DD 00H				; std::system_error::`RTTI Class Hierarchy Descriptor'
	DD	00H
	DD	03H
	DD	FLAT:??_R2system_error@std@@8
rdata$r	ENDS
;	COMDAT ??_R1A@?0A@EA@system_error@std@@8
rdata$r	SEGMENT
??_R1A@?0A@EA@system_error@std@@8 DD FLAT:??_R0?AVsystem_error@std@@@8 ; std::system_error::`RTTI Base Class Descriptor at (0,-1,0,64)'
	DD	02H
	DD	00H
	DD	0ffffffffH
	DD	00H
	DD	040H
	DD	FLAT:??_R3system_error@std@@8
rdata$r	ENDS
;	COMDAT ??_R1A@?0A@EA@failure@ios_base@std@@8
rdata$r	SEGMENT
??_R1A@?0A@EA@failure@ios_base@std@@8 DD FLAT:??_R0?AVfailure@ios_base@std@@@8 ; std::ios_base::failure::`RTTI Base Class Descriptor at (0,-1,0,64)'
	DD	03H
	DD	00H
	DD	0ffffffffH
	DD	00H
	DD	040H
	DD	FLAT:??_R3failure@ios_base@std@@8
rdata$r	ENDS
;	COMDAT ??_R2failure@ios_base@std@@8
rdata$r	SEGMENT
??_R2failure@ios_base@std@@8 DD FLAT:??_R1A@?0A@EA@failure@ios_base@std@@8 ; std::ios_base::failure::`RTTI Base Class Array'
	DD	FLAT:??_R1A@?0A@EA@system_error@std@@8
	DD	FLAT:??_R1A@?0A@EA@runtime_error@std@@8
	DD	FLAT:??_R1A@?0A@EA@exception@std@@8
rdata$r	ENDS
;	COMDAT ??_R3failure@ios_base@std@@8
rdata$r	SEGMENT
??_R3failure@ios_base@std@@8 DD 00H			; std::ios_base::failure::`RTTI Class Hierarchy Descriptor'
	DD	00H
	DD	04H
	DD	FLAT:??_R2failure@ios_base@std@@8
rdata$r	ENDS
;	COMDAT ??_R4failure@ios_base@std@@6B@
rdata$r	SEGMENT
??_R4failure@ios_base@std@@6B@ DD 00H			; std::ios_base::failure::`RTTI Complete Object Locator'
	DD	00H
	DD	00H
	DD	FLAT:??_R0?AVfailure@ios_base@std@@@8
	DD	FLAT:??_R3failure@ios_base@std@@8
rdata$r	ENDS
;	COMDAT ??_7failure@ios_base@std@@6B@
CONST	SEGMENT
??_7failure@ios_base@std@@6B@ DD FLAT:??_R4failure@ios_base@std@@6B@ ; std::ios_base::failure::`vftable'
	DD	FLAT:??_Efailure@ios_base@std@@UAEPAXI@Z
	DD	FLAT:?what@exception@std@@UBEPBDXZ
; Function compile flags: /Odtp /RTCsu
CONST	ENDS
;	COMDAT ??0failure@ios_base@std@@QAE@PBDABVerror_code@2@@Z
_TEXT	SEGMENT
_this$ = -4						; size = 4
__Message$ = 8						; size = 4
__Errcode$ = 12						; size = 4
??0failure@ios_base@std@@QAE@PBDABVerror_code@2@@Z PROC	; std::ios_base::failure::failure, COMDAT
; _this$ = ecx

; 237  : 			{	// construct with message

	push	ebp
	mov	ebp, esp
	push	ecx
	mov	DWORD PTR [ebp-4], -858993460		; ccccccccH
	mov	DWORD PTR _this$[ebp], ecx
	mov	eax, DWORD PTR __Message$[ebp]
	push	eax
	mov	ecx, DWORD PTR __Errcode$[ebp]
	mov	edx, DWORD PTR [ecx+4]
	push	edx
	mov	eax, DWORD PTR [ecx]
	push	eax
	mov	ecx, DWORD PTR _this$[ebp]
	call	??0system_error@std@@QAE@Verror_code@1@PBD@Z ; std::system_error::system_error
	mov	ecx, DWORD PTR _this$[ebp]
	mov	DWORD PTR [ecx], OFFSET ??_7failure@ios_base@std@@6B@

; 238  : 			}

	mov	eax, DWORD PTR _this$[ebp]
	add	esp, 4
	cmp	ebp, esp
	call	__RTC_CheckEsp
	mov	esp, ebp
	pop	ebp
	ret	8
??0failure@ios_base@std@@QAE@PBDABVerror_code@2@@Z ENDP	; std::ios_base::failure::failure
_TEXT	ENDS
PUBLIC	?_Makestr@system_error@std@@AAEXXZ		; std::system_error::_Makestr
PUBLIC	??_7system_error@std@@6B@			; std::system_error::`vftable'
PUBLIC	??0runtime_error@std@@QAE@PBD@Z			; std::runtime_error::runtime_error
PUBLIC	??_R4system_error@std@@6B@			; std::system_error::`RTTI Complete Object Locator'
EXTRN	??_Esystem_error@std@@UAEPAXI@Z:PROC		; std::system_error::`vector deleting destructor'
;	COMDAT ??_R4system_error@std@@6B@
; File c:\program files (x86)\microsoft visual studio 10.0\vc\include\system_error
rdata$r	SEGMENT
??_R4system_error@std@@6B@ DD 00H			; std::system_error::`RTTI Complete Object Locator'
	DD	00H
	DD	00H
	DD	FLAT:??_R0?AVsystem_error@std@@@8
	DD	FLAT:??_R3system_error@std@@8
rdata$r	ENDS
;	COMDAT ??_7system_error@std@@6B@
CONST	SEGMENT
??_7system_error@std@@6B@ DD FLAT:??_R4system_error@std@@6B@ ; std::system_error::`vftable'
	DD	FLAT:??_Esystem_error@std@@UAEPAXI@Z
	DD	FLAT:?what@exception@std@@UBEPBDXZ
CONST	ENDS
;	COMDAT xdata$x
xdata$x	SEGMENT
__unwindtable$??0system_error@std@@QAE@Verror_code@1@PBD@Z DD 0ffffffffH
	DD	FLAT:__unwindfunclet$??0system_error@std@@QAE@Verror_code@1@PBD@Z$0
__ehfuncinfo$??0system_error@std@@QAE@Verror_code@1@PBD@Z DD 019930522H
	DD	01H
	DD	FLAT:__unwindtable$??0system_error@std@@QAE@Verror_code@1@PBD@Z
	DD	2 DUP(00H)
	DD	2 DUP(00H)
	DD	00H
	DD	01H
; Function compile flags: /Odtp /RTCsu
xdata$x	ENDS
;	COMDAT ??0system_error@std@@QAE@Verror_code@1@PBD@Z
_TEXT	SEGMENT
_this$ = -16						; size = 4
__$EHRec$ = -12						; size = 12
__Errcode$ = 8						; size = 8
__Message$ = 16						; size = 4
??0system_error@std@@QAE@Verror_code@1@PBD@Z PROC	; std::system_error::system_error, COMDAT
; _this$ = ecx

; 516  : 		{	// construct from error code and message string

	push	ebp
	mov	ebp, esp
	push	-1
	push	__ehhandler$??0system_error@std@@QAE@Verror_code@1@PBD@Z
	mov	eax, DWORD PTR fs:0
	push	eax
	push	ecx
	mov	DWORD PTR [ebp-16], -858993460		; ccccccccH
	mov	eax, DWORD PTR ___security_cookie
	xor	eax, ebp
	push	eax
	lea	eax, DWORD PTR __$EHRec$[ebp]
	mov	DWORD PTR fs:0, eax
	mov	DWORD PTR _this$[ebp], ecx
	mov	eax, DWORD PTR __Message$[ebp]
	push	eax
	mov	ecx, DWORD PTR _this$[ebp]
	call	??0runtime_error@std@@QAE@PBD@Z		; std::runtime_error::runtime_error
	mov	DWORD PTR __$EHRec$[ebp+8], 0
	mov	ecx, DWORD PTR _this$[ebp]
	mov	DWORD PTR [ecx], OFFSET ??_7system_error@std@@6B@
	mov	edx, DWORD PTR _this$[ebp]
	mov	eax, DWORD PTR __Errcode$[ebp]
	mov	DWORD PTR [edx+12], eax
	mov	ecx, DWORD PTR __Errcode$[ebp+4]
	mov	DWORD PTR [edx+16], ecx

; 517  : 		_Makestr();

	mov	ecx, DWORD PTR _this$[ebp]
	call	?_Makestr@system_error@std@@AAEXXZ	; std::system_error::_Makestr

; 518  : 		}

	mov	DWORD PTR __$EHRec$[ebp+8], -1
	mov	eax, DWORD PTR _this$[ebp]
	mov	ecx, DWORD PTR __$EHRec$[ebp]
	mov	DWORD PTR fs:0, ecx
	pop	ecx
	add	esp, 16					; 00000010H
	cmp	ebp, esp
	call	__RTC_CheckEsp
	mov	esp, ebp
	pop	ebp
	ret	12					; 0000000cH
_TEXT	ENDS
;	COMDAT text$x
text$x	SEGMENT
__unwindfunclet$??0system_error@std@@QAE@Verror_code@1@PBD@Z$0:
	mov	ecx, DWORD PTR _this$[ebp]
	jmp	??1runtime_error@std@@UAE@XZ
__ehhandler$??0system_error@std@@QAE@Verror_code@1@PBD@Z:
	mov	edx, DWORD PTR [esp+8]
	lea	eax, DWORD PTR [edx+12]
	mov	ecx, DWORD PTR [edx-8]
	xor	ecx, eax
	call	@__security_check_cookie@4
	mov	eax, OFFSET __ehfuncinfo$??0system_error@std@@QAE@Verror_code@1@PBD@Z
	jmp	___CxxFrameHandler3
text$x	ENDS
??0system_error@std@@QAE@Verror_code@1@PBD@Z ENDP	; std::system_error::system_error
EXTRN	??0exception@std@@QAE@ABQBD@Z:PROC		; std::exception::exception
; Function compile flags: /Odtp /RTCsu
; File c:\program files (x86)\microsoft visual studio 10.0\vc\include\stdexcept
;	COMDAT ??0runtime_error@std@@QAE@PBD@Z
_TEXT	SEGMENT
_this$ = -4						; size = 4
__Message$ = 8						; size = 4
??0runtime_error@std@@QAE@PBD@Z PROC			; std::runtime_error::runtime_error, COMDAT
; _this$ = ecx

; 170  : 		{	// construct from message string

	push	ebp
	mov	ebp, esp
	push	ecx
	mov	DWORD PTR [ebp-4], -858993460		; ccccccccH
	mov	DWORD PTR _this$[ebp], ecx
	lea	eax, DWORD PTR __Message$[ebp]
	push	eax
	mov	ecx, DWORD PTR _this$[ebp]
	call	??0exception@std@@QAE@ABQBD@Z		; std::exception::exception
	mov	ecx, DWORD PTR _this$[ebp]
	mov	DWORD PTR [ecx], OFFSET ??_7runtime_error@std@@6B@

; 171  : 		}

	mov	eax, DWORD PTR _this$[ebp]
	add	esp, 4
	cmp	ebp, esp
	call	__RTC_CheckEsp
	mov	esp, ebp
	pop	ebp
	ret	4
??0runtime_error@std@@QAE@PBD@Z ENDP			; std::runtime_error::runtime_error
; Function compile flags: /Odtp /RTCsu
; File c:\program files (x86)\microsoft visual studio 10.0\vc\include\system_error
_TEXT	ENDS
;	COMDAT ?_Makestr@system_error@std@@AAEXXZ
_TEXT	SEGMENT
_this$ = -4						; size = 4
?_Makestr@system_error@std@@AAEXXZ PROC			; std::system_error::_Makestr, COMDAT
; _this$ = ecx

; 562  : 		{	// compose error message

	push	ebp
	mov	ebp, esp
	push	ecx
	mov	DWORD PTR [ebp-4], -858993460		; ccccccccH
	mov	DWORD PTR _this$[ebp], ecx

; 563  : //		_Mymes = this->runtime_error::what();
; 564  : //		if (!_Mymes.empty())
; 565  : //			_Mymes.append(": ");
; 566  : //		_Mymes.append(_Mycode.message());
; 567  : 		}

	mov	esp, ebp
	pop	ebp
	ret	0
?_Makestr@system_error@std@@AAEXXZ ENDP			; std::system_error::_Makestr
_TEXT	ENDS
PUBLIC	??1system_error@std@@UAE@XZ			; std::system_error::~system_error
; Function compile flags: /Odtp /RTCsu
;	COMDAT ??_Gsystem_error@std@@UAEPAXI@Z
_TEXT	SEGMENT
_this$ = -4						; size = 4
___flags$ = 8						; size = 4
??_Gsystem_error@std@@UAEPAXI@Z PROC			; std::system_error::`scalar deleting destructor', COMDAT
; _this$ = ecx
	push	ebp
	mov	ebp, esp
	push	ecx
	mov	DWORD PTR [ebp-4], -858993460		; ccccccccH
	mov	DWORD PTR _this$[ebp], ecx
	mov	ecx, DWORD PTR _this$[ebp]
	call	??1system_error@std@@UAE@XZ
	mov	eax, DWORD PTR ___flags$[ebp]
	and	eax, 1
	je	SHORT $LN1@scalar@2
	mov	ecx, DWORD PTR _this$[ebp]
	push	ecx
	call	??3@YAXPAX@Z				; operator delete
	add	esp, 4
$LN1@scalar@2:
	mov	eax, DWORD PTR _this$[ebp]
	add	esp, 4
	cmp	ebp, esp
	call	__RTC_CheckEsp
	mov	esp, ebp
	pop	ebp
	ret	4
??_Gsystem_error@std@@UAEPAXI@Z ENDP			; std::system_error::`scalar deleting destructor'
; Function compile flags: /Odtp /RTCsu
_TEXT	ENDS
;	COMDAT ??1system_error@std@@UAE@XZ
_TEXT	SEGMENT
_this$ = -4						; size = 4
??1system_error@std@@UAE@XZ PROC			; std::system_error::~system_error, COMDAT
; _this$ = ecx
	push	ebp
	mov	ebp, esp
	push	ecx
	mov	DWORD PTR [ebp-4], -858993460		; ccccccccH
	mov	DWORD PTR _this$[ebp], ecx
	mov	ecx, DWORD PTR _this$[ebp]
	call	??1runtime_error@std@@UAE@XZ
	add	esp, 4
	cmp	ebp, esp
	call	__RTC_CheckEsp
	mov	esp, ebp
	pop	ebp
	ret	0
??1system_error@std@@UAE@XZ ENDP			; std::system_error::~system_error
; Function compile flags: /Odtp /RTCsu
_TEXT	ENDS
;	COMDAT ??_Gfailure@ios_base@std@@UAEPAXI@Z
_TEXT	SEGMENT
_this$ = -4						; size = 4
___flags$ = 8						; size = 4
??_Gfailure@ios_base@std@@UAEPAXI@Z PROC		; std::ios_base::failure::`scalar deleting destructor', COMDAT
; _this$ = ecx
	push	ebp
	mov	ebp, esp
	push	ecx
	mov	DWORD PTR [ebp-4], -858993460		; ccccccccH
	mov	DWORD PTR _this$[ebp], ecx
	mov	ecx, DWORD PTR _this$[ebp]
	call	??1failure@ios_base@std@@UAE@XZ
	mov	eax, DWORD PTR ___flags$[ebp]
	and	eax, 1
	je	SHORT $LN1@scalar@3
	mov	ecx, DWORD PTR _this$[ebp]
	push	ecx
	call	??3@YAXPAX@Z				; operator delete
	add	esp, 4
$LN1@scalar@3:
	mov	eax, DWORD PTR _this$[ebp]
	add	esp, 4
	cmp	ebp, esp
	call	__RTC_CheckEsp
	mov	esp, ebp
	pop	ebp
	ret	4
??_Gfailure@ios_base@std@@UAEPAXI@Z ENDP		; std::ios_base::failure::`scalar deleting destructor'
; Function compile flags: /Odtp /RTCsu
_TEXT	ENDS
;	COMDAT ??1failure@ios_base@std@@UAE@XZ
_TEXT	SEGMENT
_this$ = -4						; size = 4
??1failure@ios_base@std@@UAE@XZ PROC			; std::ios_base::failure::~failure, COMDAT
; _this$ = ecx
	push	ebp
	mov	ebp, esp
	push	ecx
	mov	DWORD PTR [ebp-4], -858993460		; ccccccccH
	mov	DWORD PTR _this$[ebp], ecx
	mov	ecx, DWORD PTR _this$[ebp]
	call	??1system_error@std@@UAE@XZ
	add	esp, 4
	cmp	ebp, esp
	call	__RTC_CheckEsp
	mov	esp, ebp
	pop	ebp
	ret	0
??1failure@ios_base@std@@UAE@XZ ENDP			; std::ios_base::failure::~failure
; Function compile flags: /Odtp /RTCsu
_TEXT	ENDS
;	COMDAT ??0failure@ios_base@std@@QAE@ABV012@@Z
_TEXT	SEGMENT
_this$ = -4						; size = 4
___that$ = 8						; size = 4
??0failure@ios_base@std@@QAE@ABV012@@Z PROC		; std::ios_base::failure::failure, COMDAT
; _this$ = ecx
	push	ebp
	mov	ebp, esp
	push	ecx
	mov	DWORD PTR [ebp-4], -858993460		; ccccccccH
	mov	DWORD PTR _this$[ebp], ecx
	mov	eax, DWORD PTR ___that$[ebp]
	push	eax
	mov	ecx, DWORD PTR _this$[ebp]
	call	??0system_error@std@@QAE@ABV01@@Z
	mov	ecx, DWORD PTR _this$[ebp]
	mov	DWORD PTR [ecx], OFFSET ??_7failure@ios_base@std@@6B@
	mov	eax, DWORD PTR _this$[ebp]
	add	esp, 4
	cmp	ebp, esp
	call	__RTC_CheckEsp
	mov	esp, ebp
	pop	ebp
	ret	4
??0failure@ios_base@std@@QAE@ABV012@@Z ENDP		; std::ios_base::failure::failure
; Function compile flags: /Odtp /RTCsu
_TEXT	ENDS
;	COMDAT ??0system_error@std@@QAE@ABV01@@Z
_TEXT	SEGMENT
_this$ = -4						; size = 4
___that$ = 8						; size = 4
??0system_error@std@@QAE@ABV01@@Z PROC			; std::system_error::system_error, COMDAT
; _this$ = ecx
	push	ebp
	mov	ebp, esp
	push	ecx
	mov	DWORD PTR [ebp-4], -858993460		; ccccccccH
	mov	DWORD PTR _this$[ebp], ecx
	mov	eax, DWORD PTR ___that$[ebp]
	push	eax
	mov	ecx, DWORD PTR _this$[ebp]
	call	??0runtime_error@std@@QAE@ABV01@@Z
	mov	ecx, DWORD PTR _this$[ebp]
	mov	DWORD PTR [ecx], OFFSET ??_7system_error@std@@6B@
	mov	edx, DWORD PTR ___that$[ebp]
	mov	eax, DWORD PTR [edx+12]
	mov	ecx, DWORD PTR [edx+16]
	mov	edx, DWORD PTR _this$[ebp]
	mov	DWORD PTR [edx+12], eax
	mov	DWORD PTR [edx+16], ecx
	mov	eax, DWORD PTR _this$[ebp]
	add	esp, 4
	cmp	ebp, esp
	call	__RTC_CheckEsp
	mov	esp, ebp
	pop	ebp
	ret	4
??0system_error@std@@QAE@ABV01@@Z ENDP			; std::system_error::system_error
; Function compile flags: /Odtp /RTCsu
; File c:\program files (x86)\microsoft visual studio 10.0\vc\include\ios
_TEXT	ENDS
;	COMDAT ?fill@?$basic_ios@DU?$char_traits@D@std@@@std@@QBEDXZ
_TEXT	SEGMENT
_this$ = -4						; size = 4
?fill@?$basic_ios@DU?$char_traits@D@std@@@std@@QBEDXZ PROC ; std::basic_ios<char,std::char_traits<char> >::fill, COMDAT
; _this$ = ecx

; 106  : 		{	// return fill character

	push	ebp
	mov	ebp, esp
	push	ecx
	mov	DWORD PTR [ebp-4], -858993460		; ccccccccH
	mov	DWORD PTR _this$[ebp], ecx

; 107  : 		return (_Fillch);

	mov	eax, DWORD PTR _this$[ebp]
	mov	al, BYTE PTR [eax+64]

; 108  : 		}

	mov	esp, ebp
	pop	ebp
	ret	0
?fill@?$basic_ios@DU?$char_traits@D@std@@@std@@QBEDXZ ENDP ; std::basic_ios<char,std::char_traits<char> >::fill
_TEXT	ENDS
PUBLIC	??1_Sentry_base@?$basic_ostream@DU?$char_traits@D@std@@@std@@QAE@XZ ; std::basic_ostream<char,std::char_traits<char> >::_Sentry_base::~_Sentry_base
PUBLIC	?flush@?$basic_ostream@DU?$char_traits@D@std@@@std@@QAEAAV12@XZ ; std::basic_ostream<char,std::char_traits<char> >::flush
PUBLIC	?tie@?$basic_ios@DU?$char_traits@D@std@@@std@@QBEPAV?$basic_ostream@DU?$char_traits@D@std@@@2@XZ ; std::basic_ios<char,std::char_traits<char> >::tie
PUBLIC	?good@ios_base@std@@QBE_NXZ			; std::ios_base::good
PUBLIC	??0_Sentry_base@?$basic_ostream@DU?$char_traits@D@std@@@std@@QAE@AAV12@@Z ; std::basic_ostream<char,std::char_traits<char> >::_Sentry_base::_Sentry_base
;	COMDAT xdata$x
; File c:\program files (x86)\microsoft visual studio 10.0\vc\include\ostream
xdata$x	SEGMENT
__unwindtable$??0sentry@?$basic_ostream@DU?$char_traits@D@std@@@std@@QAE@AAV12@@Z DD 0ffffffffH
	DD	FLAT:__unwindfunclet$??0sentry@?$basic_ostream@DU?$char_traits@D@std@@@std@@QAE@AAV12@@Z$0
__ehfuncinfo$??0sentry@?$basic_ostream@DU?$char_traits@D@std@@@std@@QAE@AAV12@@Z DD 019930522H
	DD	01H
	DD	FLAT:__unwindtable$??0sentry@?$basic_ostream@DU?$char_traits@D@std@@@std@@QAE@AAV12@@Z
	DD	2 DUP(00H)
	DD	2 DUP(00H)
	DD	00H
	DD	01H
; Function compile flags: /Odtp /RTCsu
xdata$x	ENDS
;	COMDAT ??0sentry@?$basic_ostream@DU?$char_traits@D@std@@@std@@QAE@AAV12@@Z
_TEXT	SEGMENT
_this$ = -16						; size = 4
__$EHRec$ = -12						; size = 12
__Ostr$ = 8						; size = 4
??0sentry@?$basic_ostream@DU?$char_traits@D@std@@@std@@QAE@AAV12@@Z PROC ; std::basic_ostream<char,std::char_traits<char> >::sentry::sentry, COMDAT
; _this$ = ecx

; 114  : 			{	// construct locking and testing stream

	push	ebp
	mov	ebp, esp
	push	-1
	push	__ehhandler$??0sentry@?$basic_ostream@DU?$char_traits@D@std@@@std@@QAE@AAV12@@Z
	mov	eax, DWORD PTR fs:0
	push	eax
	push	ecx
	mov	DWORD PTR [ebp-16], -858993460		; ccccccccH
	mov	eax, DWORD PTR ___security_cookie
	xor	eax, ebp
	push	eax
	lea	eax, DWORD PTR __$EHRec$[ebp]
	mov	DWORD PTR fs:0, eax
	mov	DWORD PTR _this$[ebp], ecx
	mov	eax, DWORD PTR __Ostr$[ebp]
	push	eax
	mov	ecx, DWORD PTR _this$[ebp]
	call	??0_Sentry_base@?$basic_ostream@DU?$char_traits@D@std@@@std@@QAE@AAV12@@Z ; std::basic_ostream<char,std::char_traits<char> >::_Sentry_base::_Sentry_base
	mov	DWORD PTR __$EHRec$[ebp+8], 0

; 115  : 			if (_Ostr.good() && _Ostr.tie() != 0)

	mov	ecx, DWORD PTR __Ostr$[ebp]
	mov	edx, DWORD PTR [ecx]
	mov	ecx, DWORD PTR __Ostr$[ebp]
	add	ecx, DWORD PTR [edx+4]
	call	?good@ios_base@std@@QBE_NXZ		; std::ios_base::good
	movzx	eax, al
	test	eax, eax
	je	SHORT $LN1@sentry
	mov	ecx, DWORD PTR __Ostr$[ebp]
	mov	edx, DWORD PTR [ecx]
	mov	ecx, DWORD PTR __Ostr$[ebp]
	add	ecx, DWORD PTR [edx+4]
	call	?tie@?$basic_ios@DU?$char_traits@D@std@@@std@@QBEPAV?$basic_ostream@DU?$char_traits@D@std@@@2@XZ ; std::basic_ios<char,std::char_traits<char> >::tie
	test	eax, eax
	je	SHORT $LN1@sentry

; 116  : 				_Ostr.tie()->flush();

	mov	eax, DWORD PTR __Ostr$[ebp]
	mov	ecx, DWORD PTR [eax]
	mov	edx, DWORD PTR __Ostr$[ebp]
	add	edx, DWORD PTR [ecx+4]
	mov	ecx, edx
	call	?tie@?$basic_ios@DU?$char_traits@D@std@@@std@@QBEPAV?$basic_ostream@DU?$char_traits@D@std@@@2@XZ ; std::basic_ios<char,std::char_traits<char> >::tie
	mov	ecx, eax
	call	?flush@?$basic_ostream@DU?$char_traits@D@std@@@std@@QAEAAV12@XZ ; std::basic_ostream<char,std::char_traits<char> >::flush
$LN1@sentry:

; 117  : 			_Ok = _Ostr.good();	// store test only after flushing tie

	mov	eax, DWORD PTR __Ostr$[ebp]
	mov	ecx, DWORD PTR [eax]
	mov	edx, DWORD PTR __Ostr$[ebp]
	add	edx, DWORD PTR [ecx+4]
	mov	ecx, edx
	call	?good@ios_base@std@@QBE_NXZ		; std::ios_base::good
	mov	ecx, DWORD PTR _this$[ebp]
	mov	BYTE PTR [ecx+4], al

; 118  : 			}

	mov	DWORD PTR __$EHRec$[ebp+8], -1
	mov	eax, DWORD PTR _this$[ebp]
	mov	ecx, DWORD PTR __$EHRec$[ebp]
	mov	DWORD PTR fs:0, ecx
	pop	ecx
	add	esp, 16					; 00000010H
	cmp	ebp, esp
	call	__RTC_CheckEsp
	mov	esp, ebp
	pop	ebp
	ret	4
_TEXT	ENDS
;	COMDAT text$x
text$x	SEGMENT
__unwindfunclet$??0sentry@?$basic_ostream@DU?$char_traits@D@std@@@std@@QAE@AAV12@@Z$0:
	mov	ecx, DWORD PTR _this$[ebp]
	jmp	??1_Sentry_base@?$basic_ostream@DU?$char_traits@D@std@@@std@@QAE@XZ ; std::basic_ostream<char,std::char_traits<char> >::_Sentry_base::~_Sentry_base
__ehhandler$??0sentry@?$basic_ostream@DU?$char_traits@D@std@@@std@@QAE@AAV12@@Z:
	mov	edx, DWORD PTR [esp+8]
	lea	eax, DWORD PTR [edx+12]
	mov	ecx, DWORD PTR [edx-8]
	xor	ecx, eax
	call	@__security_check_cookie@4
	mov	eax, OFFSET __ehfuncinfo$??0sentry@?$basic_ostream@DU?$char_traits@D@std@@@std@@QAE@AAV12@@Z
	jmp	___CxxFrameHandler3
text$x	ENDS
??0sentry@?$basic_ostream@DU?$char_traits@D@std@@@std@@QAE@AAV12@@Z ENDP ; std::basic_ostream<char,std::char_traits<char> >::sentry::sentry
; Function compile flags: /Odtp /RTCsu
; File c:\program files (x86)\microsoft visual studio 10.0\vc\include\xiosbase
;	COMDAT ?good@ios_base@std@@QBE_NXZ
_TEXT	SEGMENT
_this$ = -4						; size = 4
?good@ios_base@std@@QBE_NXZ PROC			; std::ios_base::good, COMDAT
; _this$ = ecx

; 357  : 		{	// test if no state bits are set

	push	ebp
	mov	ebp, esp
	push	ecx
	mov	DWORD PTR [ebp-4], -858993460		; ccccccccH
	mov	DWORD PTR _this$[ebp], ecx

; 358  : 		return (rdstate() == goodbit);

	mov	ecx, DWORD PTR _this$[ebp]
	call	?rdstate@ios_base@std@@QBEHXZ		; std::ios_base::rdstate
	neg	eax
	sbb	eax, eax
	add	eax, 1

; 359  : 		}

	add	esp, 4
	cmp	ebp, esp
	call	__RTC_CheckEsp
	mov	esp, ebp
	pop	ebp
	ret	0
?good@ios_base@std@@QBE_NXZ ENDP			; std::ios_base::good
_TEXT	ENDS
PUBLIC	?pubsync@?$basic_streambuf@DU?$char_traits@D@std@@@std@@QAEHXZ ; std::basic_streambuf<char,std::char_traits<char> >::pubsync
PUBLIC	?fail@ios_base@std@@QBE_NXZ			; std::ios_base::fail
; Function compile flags: /Odtp /RTCsu
; File c:\program files (x86)\microsoft visual studio 10.0\vc\include\ostream
;	COMDAT ?flush@?$basic_ostream@DU?$char_traits@D@std@@@std@@QAEAAV12@XZ
_TEXT	SEGMENT
__State$ = -8						; size = 4
_this$ = -4						; size = 4
?flush@?$basic_ostream@DU?$char_traits@D@std@@@std@@QAEAAV12@XZ PROC ; std::basic_ostream<char,std::char_traits<char> >::flush, COMDAT
; _this$ = ecx

; 570  : 		{	// flush output stream

	push	ebp
	mov	ebp, esp
	sub	esp, 8
	mov	DWORD PTR [ebp-8], -858993460		; ccccccccH
	mov	DWORD PTR [ebp-4], -858993460		; ccccccccH
	mov	DWORD PTR _this$[ebp], ecx

; 571  : 		ios_base::iostate _State = ios_base::goodbit;

	mov	DWORD PTR __State$[ebp], 0

; 572  : 		if (!ios_base::fail() && _Myios::rdbuf()->pubsync() == -1)

	mov	eax, DWORD PTR _this$[ebp]
	mov	ecx, DWORD PTR [eax]
	mov	edx, DWORD PTR _this$[ebp]
	add	edx, DWORD PTR [ecx+4]
	mov	ecx, edx
	call	?fail@ios_base@std@@QBE_NXZ		; std::ios_base::fail
	movzx	eax, al
	test	eax, eax
	jne	SHORT $LN1@flush
	mov	ecx, DWORD PTR _this$[ebp]
	mov	edx, DWORD PTR [ecx]
	mov	ecx, DWORD PTR _this$[ebp]
	add	ecx, DWORD PTR [edx+4]
	call	?rdbuf@?$basic_ios@DU?$char_traits@D@std@@@std@@QBEPAV?$basic_streambuf@DU?$char_traits@D@std@@@2@XZ ; std::basic_ios<char,std::char_traits<char> >::rdbuf
	mov	ecx, eax
	call	?pubsync@?$basic_streambuf@DU?$char_traits@D@std@@@std@@QAEHXZ ; std::basic_streambuf<char,std::char_traits<char> >::pubsync
	cmp	eax, -1
	jne	SHORT $LN1@flush

; 573  : 			_State |= ios_base::badbit;	// sync failed

	mov	eax, DWORD PTR __State$[ebp]
	or	eax, 4
	mov	DWORD PTR __State$[ebp], eax
$LN1@flush:

; 574  : 		_Myios::setstate(_State);

	push	0
	mov	ecx, DWORD PTR __State$[ebp]
	push	ecx
	mov	edx, DWORD PTR _this$[ebp]
	mov	eax, DWORD PTR [edx]
	mov	ecx, DWORD PTR _this$[ebp]
	add	ecx, DWORD PTR [eax+4]
	call	?setstate@?$basic_ios@DU?$char_traits@D@std@@@std@@QAEXH_N@Z ; std::basic_ios<char,std::char_traits<char> >::setstate

; 575  : 		return (*this);

	mov	eax, DWORD PTR _this$[ebp]

; 576  : 		}

	add	esp, 8
	cmp	ebp, esp
	call	__RTC_CheckEsp
	mov	esp, ebp
	pop	ebp
	ret	0
?flush@?$basic_ostream@DU?$char_traits@D@std@@@std@@QAEAAV12@XZ ENDP ; std::basic_ostream<char,std::char_traits<char> >::flush
; Function compile flags: /Odtp /RTCsu
; File c:\program files (x86)\microsoft visual studio 10.0\vc\include\xiosbase
_TEXT	ENDS
;	COMDAT ?fail@ios_base@std@@QBE_NXZ
_TEXT	SEGMENT
_this$ = -4						; size = 4
?fail@ios_base@std@@QBE_NXZ PROC			; std::ios_base::fail, COMDAT
; _this$ = ecx

; 367  : 		{	// test if badbit or failbit is set in stream state

	push	ebp
	mov	ebp, esp
	push	ecx
	mov	DWORD PTR [ebp-4], -858993460		; ccccccccH
	mov	DWORD PTR _this$[ebp], ecx

; 368  : 		return (((int)rdstate()
; 369  : 			& ((int)badbit | (int)failbit)) != 0);

	mov	ecx, DWORD PTR _this$[ebp]
	call	?rdstate@ios_base@std@@QBEHXZ		; std::ios_base::rdstate
	and	eax, 6
	neg	eax
	sbb	eax, eax
	neg	eax

; 370  : 		}

	add	esp, 4
	cmp	ebp, esp
	call	__RTC_CheckEsp
	mov	esp, ebp
	pop	ebp
	ret	0
?fail@ios_base@std@@QBE_NXZ ENDP			; std::ios_base::fail
; Function compile flags: /Odtp /RTCsu
; File c:\program files (x86)\microsoft visual studio 10.0\vc\include\streambuf
_TEXT	ENDS
;	COMDAT ?pubsync@?$basic_streambuf@DU?$char_traits@D@std@@@std@@QAEHXZ
_TEXT	SEGMENT
_this$ = -4						; size = 4
?pubsync@?$basic_streambuf@DU?$char_traits@D@std@@@std@@QAEHXZ PROC ; std::basic_streambuf<char,std::char_traits<char> >::pubsync, COMDAT
; _this$ = ecx

; 140  : 		{	// synchronize with external agent

	push	ebp
	mov	ebp, esp
	push	ecx
	push	esi
	mov	DWORD PTR [ebp-4], -858993460		; ccccccccH
	mov	DWORD PTR _this$[ebp], ecx

; 141  : 		return (sync());

	mov	eax, DWORD PTR _this$[ebp]
	mov	edx, DWORD PTR [eax]
	mov	esi, esp
	mov	ecx, DWORD PTR _this$[ebp]
	mov	eax, DWORD PTR [edx+52]
	call	eax
	cmp	esi, esp
	call	__RTC_CheckEsp

; 142  : 		}

	pop	esi
	add	esp, 4
	cmp	ebp, esp
	call	__RTC_CheckEsp
	mov	esp, ebp
	pop	ebp
	ret	0
?pubsync@?$basic_streambuf@DU?$char_traits@D@std@@@std@@QAEHXZ ENDP ; std::basic_streambuf<char,std::char_traits<char> >::pubsync
_TEXT	ENDS
PUBLIC	?_Osfx@?$basic_ostream@DU?$char_traits@D@std@@@std@@QAEXXZ ; std::basic_ostream<char,std::char_traits<char> >::_Osfx
EXTRN	?uncaught_exception@std@@YA_NXZ:PROC		; std::uncaught_exception
;	COMDAT xdata$x
; File c:\program files (x86)\microsoft visual studio 10.0\vc\include\ostream
xdata$x	SEGMENT
__unwindtable$??1sentry@?$basic_ostream@DU?$char_traits@D@std@@@std@@QAE@XZ DD 0ffffffffH
	DD	FLAT:__unwindfunclet$??1sentry@?$basic_ostream@DU?$char_traits@D@std@@@std@@QAE@XZ$0
__ehfuncinfo$??1sentry@?$basic_ostream@DU?$char_traits@D@std@@@std@@QAE@XZ DD 019930522H
	DD	01H
	DD	FLAT:__unwindtable$??1sentry@?$basic_ostream@DU?$char_traits@D@std@@@std@@QAE@XZ
	DD	2 DUP(00H)
	DD	2 DUP(00H)
	DD	00H
	DD	01H
; Function compile flags: /Odtp /RTCsu
xdata$x	ENDS
;	COMDAT ??1sentry@?$basic_ostream@DU?$char_traits@D@std@@@std@@QAE@XZ
_TEXT	SEGMENT
_this$ = -16						; size = 4
__$EHRec$ = -12						; size = 12
??1sentry@?$basic_ostream@DU?$char_traits@D@std@@@std@@QAE@XZ PROC ; std::basic_ostream<char,std::char_traits<char> >::sentry::~sentry, COMDAT
; _this$ = ecx

; 121  : 			{	// destroy the object

	push	ebp
	mov	ebp, esp
	push	-1
	push	__ehhandler$??1sentry@?$basic_ostream@DU?$char_traits@D@std@@@std@@QAE@XZ
	mov	eax, DWORD PTR fs:0
	push	eax
	push	ecx
	mov	DWORD PTR [ebp-16], -858993460		; ccccccccH
	mov	eax, DWORD PTR ___security_cookie
	xor	eax, ebp
	push	eax
	lea	eax, DWORD PTR __$EHRec$[ebp]
	mov	DWORD PTR fs:0, eax
	mov	DWORD PTR _this$[ebp], ecx
	mov	DWORD PTR __$EHRec$[ebp+8], 0

; 122  :  #if _HAS_EXCEPTIONS
; 123  : 			if (!uncaught_exception())

	call	?uncaught_exception@std@@YA_NXZ		; std::uncaught_exception
	movzx	eax, al
	test	eax, eax
	jne	SHORT $LN2@sentry@2

; 124  : 				this->_Myostr._Osfx();

	mov	ecx, DWORD PTR _this$[ebp]
	mov	ecx, DWORD PTR [ecx]
	call	?_Osfx@?$basic_ostream@DU?$char_traits@D@std@@@std@@QAEXXZ ; std::basic_ostream<char,std::char_traits<char> >::_Osfx
$LN2@sentry@2:

; 125  : 
; 126  :  #else /* _HAS_EXCEPTIONS */
; 127  : 			this->_Myostr._Osfx();
; 128  :  #endif /* _HAS_EXCEPTIONS */
; 129  : 			}

	mov	DWORD PTR __$EHRec$[ebp+8], -1
	mov	ecx, DWORD PTR _this$[ebp]
	call	??1_Sentry_base@?$basic_ostream@DU?$char_traits@D@std@@@std@@QAE@XZ ; std::basic_ostream<char,std::char_traits<char> >::_Sentry_base::~_Sentry_base
	mov	ecx, DWORD PTR __$EHRec$[ebp]
	mov	DWORD PTR fs:0, ecx
	pop	ecx
	add	esp, 16					; 00000010H
	cmp	ebp, esp
	call	__RTC_CheckEsp
	mov	esp, ebp
	pop	ebp
	ret	0
_TEXT	ENDS
;	COMDAT text$x
text$x	SEGMENT
__unwindfunclet$??1sentry@?$basic_ostream@DU?$char_traits@D@std@@@std@@QAE@XZ$0:
	mov	ecx, DWORD PTR _this$[ebp]
	jmp	??1_Sentry_base@?$basic_ostream@DU?$char_traits@D@std@@@std@@QAE@XZ ; std::basic_ostream<char,std::char_traits<char> >::_Sentry_base::~_Sentry_base
__ehhandler$??1sentry@?$basic_ostream@DU?$char_traits@D@std@@@std@@QAE@XZ:
	mov	edx, DWORD PTR [esp+8]
	lea	eax, DWORD PTR [edx+12]
	mov	ecx, DWORD PTR [edx-8]
	xor	ecx, eax
	call	@__security_check_cookie@4
	mov	eax, OFFSET __ehfuncinfo$??1sentry@?$basic_ostream@DU?$char_traits@D@std@@@std@@QAE@XZ
	jmp	___CxxFrameHandler3
text$x	ENDS
??1sentry@?$basic_ostream@DU?$char_traits@D@std@@@std@@QAE@XZ ENDP ; std::basic_ostream<char,std::char_traits<char> >::sentry::~sentry
; Function compile flags: /Odtp /RTCsu
;	COMDAT ??Bsentry@?$basic_ostream@DU?$char_traits@D@std@@@std@@QBEPQ_Bool_struct@2@HXZ
_TEXT	SEGMENT
_this$ = -4						; size = 4
??Bsentry@?$basic_ostream@DU?$char_traits@D@std@@@std@@QBEPQ_Bool_struct@2@HXZ PROC ; std::basic_ostream<char,std::char_traits<char> >::sentry::operator int std::_Bool_struct::*, COMDAT
; _this$ = ecx

; 132  : 			{	// test if stream state okay

	push	ebp
	mov	ebp, esp
	push	ecx
	mov	DWORD PTR [ebp-4], -858993460		; ccccccccH
	mov	DWORD PTR _this$[ebp], ecx

; 133  : 			return (_Ok ? _CONVERTIBLE_TO_TRUE : 0);

	mov	eax, DWORD PTR _this$[ebp]
	movzx	eax, BYTE PTR [eax+4]
	neg	eax
	sbb	eax, eax
	neg	eax
	sub	eax, 1

; 134  : 			}

	mov	esp, ebp
	pop	ebp
	ret	0
??Bsentry@?$basic_ostream@DU?$char_traits@D@std@@@std@@QBEPQ_Bool_struct@2@HXZ ENDP ; std::basic_ostream<char,std::char_traits<char> >::sentry::operator int std::_Bool_struct::*
; Function compile flags: /Odtp /RTCsu
; File c:\program files (x86)\microsoft visual studio 10.0\vc\include\xlocnum
_TEXT	ENDS
;	COMDAT ?put@?$num_put@DV?$ostreambuf_iterator@DU?$char_traits@D@std@@@std@@@std@@QBE?AV?$ostreambuf_iterator@DU?$char_traits@D@std@@@2@V32@AAVios_base@2@DN@Z
_TEXT	SEGMENT
_this$ = -4						; size = 4
___$ReturnUdt$ = 8					; size = 4
__Dest$ = 12						; size = 8
__Iosbase$ = 20						; size = 4
__Fill$ = 24						; size = 1
__Val$ = 28						; size = 8
?put@?$num_put@DV?$ostreambuf_iterator@DU?$char_traits@D@std@@@std@@@std@@QBE?AV?$ostreambuf_iterator@DU?$char_traits@D@std@@@2@V32@AAVios_base@2@DN@Z PROC ; std::num_put<char,std::ostreambuf_iterator<char,std::char_traits<char> > >::put, COMDAT
; _this$ = ecx

; 1124 : 		{	// put formatted double to _Dest

	push	ebp
	mov	ebp, esp
	push	ecx
	push	esi
	mov	DWORD PTR [ebp-4], -858993460		; ccccccccH
	mov	DWORD PTR _this$[ebp], ecx

; 1125 : 		return (do_put(_Dest, _Iosbase, _Fill, _Val));

	mov	esi, esp
	sub	esp, 8
	fld	QWORD PTR __Val$[ebp]
	fstp	QWORD PTR [esp]
	movzx	eax, BYTE PTR __Fill$[ebp]
	push	eax
	mov	ecx, DWORD PTR __Iosbase$[ebp]
	push	ecx
	mov	edx, DWORD PTR __Dest$[ebp+4]
	push	edx
	mov	eax, DWORD PTR __Dest$[ebp]
	push	eax
	mov	ecx, DWORD PTR ___$ReturnUdt$[ebp]
	push	ecx
	mov	edx, DWORD PTR _this$[ebp]
	mov	eax, DWORD PTR [edx]
	mov	ecx, DWORD PTR _this$[ebp]
	mov	edx, DWORD PTR [eax+12]
	call	edx
	cmp	esi, esp
	call	__RTC_CheckEsp
	mov	eax, DWORD PTR ___$ReturnUdt$[ebp]

; 1126 : 		}

	pop	esi
	add	esp, 4
	cmp	ebp, esp
	call	__RTC_CheckEsp
	mov	esp, ebp
	pop	ebp
	ret	28					; 0000001cH
?put@?$num_put@DV?$ostreambuf_iterator@DU?$char_traits@D@std@@@std@@@std@@QBE?AV?$ostreambuf_iterator@DU?$char_traits@D@std@@@2@V32@AAVios_base@2@DN@Z ENDP ; std::num_put<char,std::ostreambuf_iterator<char,std::char_traits<char> > >::put
; Function compile flags: /Odtp /RTCsu
; File c:\program files (x86)\microsoft visual studio 10.0\vc\include\streambuf
_TEXT	ENDS
;	COMDAT ??0?$ostreambuf_iterator@DU?$char_traits@D@std@@@std@@QAE@PAV?$basic_streambuf@DU?$char_traits@D@std@@@1@@Z
_TEXT	SEGMENT
_this$ = -4						; size = 4
__Sb$ = 8						; size = 4
??0?$ostreambuf_iterator@DU?$char_traits@D@std@@@std@@QAE@PAV?$basic_streambuf@DU?$char_traits@D@std@@@1@@Z PROC ; std::ostreambuf_iterator<char,std::char_traits<char> >::ostreambuf_iterator<char,std::char_traits<char> >, COMDAT
; _this$ = ecx

; 613  : 		{	// construct from stream buffer _Sb

	push	ebp
	mov	ebp, esp
	push	ecx
	mov	DWORD PTR [ebp-4], -858993460		; ccccccccH
	mov	DWORD PTR _this$[ebp], ecx
	mov	eax, DWORD PTR _this$[ebp]
	mov	BYTE PTR [eax], 0
	mov	ecx, DWORD PTR _this$[ebp]
	mov	edx, DWORD PTR __Sb$[ebp]
	mov	DWORD PTR [ecx+4], edx

; 614  : 		}

	mov	eax, DWORD PTR _this$[ebp]
	mov	esp, ebp
	pop	ebp
	ret	4
??0?$ostreambuf_iterator@DU?$char_traits@D@std@@@std@@QAE@PAV?$basic_streambuf@DU?$char_traits@D@std@@@1@@Z ENDP ; std::ostreambuf_iterator<char,std::char_traits<char> >::ostreambuf_iterator<char,std::char_traits<char> >
; Function compile flags: /Odtp /RTCsu
_TEXT	ENDS
;	COMDAT ?failed@?$ostreambuf_iterator@DU?$char_traits@D@std@@@std@@QBE_NXZ
_TEXT	SEGMENT
_this$ = -4						; size = 4
?failed@?$ostreambuf_iterator@DU?$char_traits@D@std@@@std@@QBE_NXZ PROC ; std::ostreambuf_iterator<char,std::char_traits<char> >::failed, COMDAT
; _this$ = ecx

; 646  : 		{	// return true if any stores failed

	push	ebp
	mov	ebp, esp
	push	ecx
	mov	DWORD PTR [ebp-4], -858993460		; ccccccccH
	mov	DWORD PTR _this$[ebp], ecx

; 647  : 		return (_Failed);

	mov	eax, DWORD PTR _this$[ebp]
	mov	al, BYTE PTR [eax]

; 648  : 		}

	mov	esp, ebp
	pop	ebp
	ret	0
?failed@?$ostreambuf_iterator@DU?$char_traits@D@std@@@std@@QBE_NXZ ENDP ; std::ostreambuf_iterator<char,std::char_traits<char> >::failed
_TEXT	ENDS
PUBLIC	?flags@ios_base@std@@QBEHXZ			; std::ios_base::flags
;	COMDAT xdata$x
; File c:\program files (x86)\microsoft visual studio 10.0\vc\include\ostream
xdata$x	SEGMENT
__catchsym$?_Osfx@?$basic_ostream@DU?$char_traits@D@std@@@std@@QAEXXZ$2 DD 040H
	DD	00H
	DD	00H
	DD	FLAT:__catch$?_Osfx@?$basic_ostream@DU?$char_traits@D@std@@@std@@QAEXXZ$0
__unwindtable$?_Osfx@?$basic_ostream@DU?$char_traits@D@std@@@std@@QAEXXZ DD 0ffffffffH
	DD	00H
	DD	0ffffffffH
	DD	00H
__tryblocktable$?_Osfx@?$basic_ostream@DU?$char_traits@D@std@@@std@@QAEXXZ DD 00H
	DD	00H
	DD	01H
	DD	01H
	DD	FLAT:__catchsym$?_Osfx@?$basic_ostream@DU?$char_traits@D@std@@@std@@QAEXXZ$2
__ehfuncinfo$?_Osfx@?$basic_ostream@DU?$char_traits@D@std@@@std@@QAEXXZ DD 019930522H
	DD	02H
	DD	FLAT:__unwindtable$?_Osfx@?$basic_ostream@DU?$char_traits@D@std@@@std@@QAEXXZ
	DD	01H
	DD	FLAT:__tryblocktable$?_Osfx@?$basic_ostream@DU?$char_traits@D@std@@@std@@QAEXXZ
	DD	2 DUP(00H)
	DD	00H
	DD	01H
; Function compile flags: /Odtp /RTCsu
xdata$x	ENDS
;	COMDAT ?_Osfx@?$basic_ostream@DU?$char_traits@D@std@@@std@@QAEXXZ
_TEXT	SEGMENT
tv79 = -24						; size = 4
_this$ = -20						; size = 4
__$EHRec$ = -16						; size = 16
?_Osfx@?$basic_ostream@DU?$char_traits@D@std@@@std@@QAEXXZ PROC ; std::basic_ostream<char,std::char_traits<char> >::_Osfx, COMDAT
; _this$ = ecx

; 156  : 		{	// perform any wrapup

	push	ebp
	mov	ebp, esp
	push	-1
	push	__ehhandler$?_Osfx@?$basic_ostream@DU?$char_traits@D@std@@@std@@QAEXXZ
	mov	eax, DWORD PTR fs:0
	push	eax
	push	ecx
	sub	esp, 8
	push	ebx
	push	esi
	push	edi
	mov	DWORD PTR [ebp-24], -858993460		; ccccccccH
	mov	DWORD PTR [ebp-20], -858993460		; ccccccccH
	mov	eax, DWORD PTR ___security_cookie
	xor	eax, ebp
	push	eax
	lea	eax, DWORD PTR __$EHRec$[ebp+4]
	mov	DWORD PTR fs:0, eax
	mov	DWORD PTR __$EHRec$[ebp], esp
	mov	DWORD PTR _this$[ebp], ecx

; 157  : 		_TRY_BEGIN

	mov	DWORD PTR __$EHRec$[ebp+12], 0

; 158  : 		if (ios_base::flags() & ios_base::unitbuf)

	mov	eax, DWORD PTR _this$[ebp]
	mov	ecx, DWORD PTR [eax]
	mov	edx, DWORD PTR _this$[ebp]
	add	edx, DWORD PTR [ecx+4]
	mov	ecx, edx
	call	?flags@ios_base@std@@QBEHXZ		; std::ios_base::flags
	mov	DWORD PTR tv79[ebp], eax
	mov	eax, DWORD PTR tv79[ebp]
	and	eax, 2
	je	SHORT $LN1@Osfx

; 159  : 			flush();	// flush stream as needed

	mov	ecx, DWORD PTR _this$[ebp]
	call	?flush@?$basic_ostream@DU?$char_traits@D@std@@@std@@QAEAAV12@XZ ; std::basic_ostream<char,std::char_traits<char> >::flush
$LN1@Osfx:
	jmp	SHORT $LN5@Osfx
__catch$?_Osfx@?$basic_ostream@DU?$char_traits@D@std@@@std@@QAEXXZ$0:

; 160  : 		_CATCH_ALL
; 161  : 		_CATCH_END

	mov	DWORD PTR __$EHRec$[ebp+12], -1
	mov	eax, $LN3@Osfx
	ret	0
$LN5@Osfx:
	mov	DWORD PTR __$EHRec$[ebp+12], -1
$LN3@Osfx:

; 162  : 		}

	mov	ecx, DWORD PTR __$EHRec$[ebp+4]
	mov	DWORD PTR fs:0, ecx
	pop	ecx
	pop	edi
	pop	esi
	pop	ebx
	add	esp, 24					; 00000018H
	cmp	ebp, esp
	call	__RTC_CheckEsp
	mov	esp, ebp
	pop	ebp
	ret	0
_TEXT	ENDS
;	COMDAT text$x
text$x	SEGMENT
__ehhandler$?_Osfx@?$basic_ostream@DU?$char_traits@D@std@@@std@@QAEXXZ:
	mov	edx, DWORD PTR [esp+8]
	lea	eax, DWORD PTR [edx+12]
	mov	ecx, DWORD PTR [edx-28]
	xor	ecx, eax
	call	@__security_check_cookie@4
	mov	eax, OFFSET __ehfuncinfo$?_Osfx@?$basic_ostream@DU?$char_traits@D@std@@@std@@QAEXXZ
	jmp	___CxxFrameHandler3
text$x	ENDS
?_Osfx@?$basic_ostream@DU?$char_traits@D@std@@@std@@QAEXXZ ENDP ; std::basic_ostream<char,std::char_traits<char> >::_Osfx
; Function compile flags: /Odtp /RTCsu
; File c:\program files (x86)\microsoft visual studio 10.0\vc\include\xiosbase
;	COMDAT ?flags@ios_base@std@@QBEHXZ
_TEXT	SEGMENT
_this$ = -4						; size = 4
?flags@ios_base@std@@QBEHXZ PROC			; std::ios_base::flags, COMDAT
; _this$ = ecx

; 394  : 		{	// return format flags

	push	ebp
	mov	ebp, esp
	push	ecx
	mov	DWORD PTR [ebp-4], -858993460		; ccccccccH
	mov	DWORD PTR _this$[ebp], ecx

; 395  : 		return (_Fmtfl);

	mov	eax, DWORD PTR _this$[ebp]
	mov	eax, DWORD PTR [eax+20]

; 396  : 		}

	mov	esp, ebp
	pop	ebp
	ret	0
?flags@ios_base@std@@QBEHXZ ENDP			; std::ios_base::flags
; Function compile flags: /Odtp /RTCsu
; File c:\program files (x86)\microsoft visual studio 10.0\vc\include\ios
_TEXT	ENDS
;	COMDAT ?tie@?$basic_ios@DU?$char_traits@D@std@@@std@@QBEPAV?$basic_ostream@DU?$char_traits@D@std@@@2@XZ
_TEXT	SEGMENT
_this$ = -4						; size = 4
?tie@?$basic_ios@DU?$char_traits@D@std@@@std@@QBEPAV?$basic_ostream@DU?$char_traits@D@std@@@2@XZ PROC ; std::basic_ios<char,std::char_traits<char> >::tie, COMDAT
; _this$ = ecx

; 73   : 		{	// return tie pointer

	push	ebp
	mov	ebp, esp
	push	ecx
	mov	DWORD PTR [ebp-4], -858993460		; ccccccccH
	mov	DWORD PTR _this$[ebp], ecx

; 74   : 		return (_Tiestr);

	mov	eax, DWORD PTR _this$[ebp]
	mov	eax, DWORD PTR [eax+60]

; 75   : 		}

	mov	esp, ebp
	pop	ebp
	ret	0
?tie@?$basic_ios@DU?$char_traits@D@std@@@std@@QBEPAV?$basic_ostream@DU?$char_traits@D@std@@@2@XZ ENDP ; std::basic_ios<char,std::char_traits<char> >::tie
; Function compile flags: /Odtp /RTCsu
; File c:\program files (x86)\microsoft visual studio 10.0\vc\include\ostream
_TEXT	ENDS
;	COMDAT ??0_Sentry_base@?$basic_ostream@DU?$char_traits@D@std@@@std@@QAE@AAV12@@Z
_TEXT	SEGMENT
tv90 = -8						; size = 4
_this$ = -4						; size = 4
__Ostr$ = 8						; size = 4
??0_Sentry_base@?$basic_ostream@DU?$char_traits@D@std@@@std@@QAE@AAV12@@Z PROC ; std::basic_ostream<char,std::char_traits<char> >::_Sentry_base::_Sentry_base, COMDAT
; _this$ = ecx

; 91   : 			{	// lock the stream buffer, if there

	push	ebp
	mov	ebp, esp
	sub	esp, 8
	push	esi
	mov	DWORD PTR [ebp-8], -858993460		; ccccccccH
	mov	DWORD PTR [ebp-4], -858993460		; ccccccccH
	mov	DWORD PTR _this$[ebp], ecx
	mov	eax, DWORD PTR _this$[ebp]
	mov	ecx, DWORD PTR __Ostr$[ebp]
	mov	DWORD PTR [eax], ecx

; 92   : 			if (_Myostr.rdbuf() != 0)

	mov	edx, DWORD PTR _this$[ebp]
	mov	eax, DWORD PTR [edx]
	mov	ecx, DWORD PTR [eax]
	mov	edx, DWORD PTR _this$[ebp]
	mov	eax, DWORD PTR [edx]
	add	eax, DWORD PTR [ecx+4]
	mov	ecx, eax
	call	?rdbuf@?$basic_ios@DU?$char_traits@D@std@@@std@@QBEPAV?$basic_streambuf@DU?$char_traits@D@std@@@2@XZ ; std::basic_ios<char,std::char_traits<char> >::rdbuf
	test	eax, eax
	je	SHORT $LN2@Sentry_bas

; 93   : 				_Myostr.rdbuf()->_Lock();

	mov	ecx, DWORD PTR _this$[ebp]
	mov	edx, DWORD PTR [ecx]
	mov	eax, DWORD PTR [edx]
	mov	ecx, DWORD PTR _this$[ebp]
	mov	ecx, DWORD PTR [ecx]
	add	ecx, DWORD PTR [eax+4]
	call	?rdbuf@?$basic_ios@DU?$char_traits@D@std@@@std@@QBEPAV?$basic_streambuf@DU?$char_traits@D@std@@@2@XZ ; std::basic_ios<char,std::char_traits<char> >::rdbuf
	mov	DWORD PTR tv90[ebp], eax
	mov	edx, DWORD PTR tv90[ebp]
	mov	eax, DWORD PTR [edx]
	mov	esi, esp
	mov	ecx, DWORD PTR tv90[ebp]
	mov	edx, DWORD PTR [eax+4]
	call	edx
	cmp	esi, esp
	call	__RTC_CheckEsp
$LN2@Sentry_bas:

; 94   : 			}

	mov	eax, DWORD PTR _this$[ebp]
	pop	esi
	add	esp, 8
	cmp	ebp, esp
	call	__RTC_CheckEsp
	mov	esp, ebp
	pop	ebp
	ret	4
??0_Sentry_base@?$basic_ostream@DU?$char_traits@D@std@@@std@@QAE@AAV12@@Z ENDP ; std::basic_ostream<char,std::char_traits<char> >::_Sentry_base::_Sentry_base
; Function compile flags: /Odtp /RTCsu
_TEXT	ENDS
;	COMDAT ??1_Sentry_base@?$basic_ostream@DU?$char_traits@D@std@@@std@@QAE@XZ
_TEXT	SEGMENT
tv90 = -8						; size = 4
_this$ = -4						; size = 4
??1_Sentry_base@?$basic_ostream@DU?$char_traits@D@std@@@std@@QAE@XZ PROC ; std::basic_ostream<char,std::char_traits<char> >::_Sentry_base::~_Sentry_base, COMDAT
; _this$ = ecx

; 97   : 			{	// destroy after unlocking

	push	ebp
	mov	ebp, esp
	sub	esp, 8
	push	esi
	mov	DWORD PTR [ebp-8], -858993460		; ccccccccH
	mov	DWORD PTR [ebp-4], -858993460		; ccccccccH
	mov	DWORD PTR _this$[ebp], ecx

; 98   : 			if (_Myostr.rdbuf() != 0)

	mov	eax, DWORD PTR _this$[ebp]
	mov	ecx, DWORD PTR [eax]
	mov	edx, DWORD PTR [ecx]
	mov	eax, DWORD PTR _this$[ebp]
	mov	ecx, DWORD PTR [eax]
	add	ecx, DWORD PTR [edx+4]
	call	?rdbuf@?$basic_ios@DU?$char_traits@D@std@@@std@@QBEPAV?$basic_streambuf@DU?$char_traits@D@std@@@2@XZ ; std::basic_ios<char,std::char_traits<char> >::rdbuf
	test	eax, eax
	je	SHORT $LN2@Sentry_bas@2

; 99   : 				_Myostr.rdbuf()->_Unlock();

	mov	ecx, DWORD PTR _this$[ebp]
	mov	edx, DWORD PTR [ecx]
	mov	eax, DWORD PTR [edx]
	mov	ecx, DWORD PTR _this$[ebp]
	mov	ecx, DWORD PTR [ecx]
	add	ecx, DWORD PTR [eax+4]
	call	?rdbuf@?$basic_ios@DU?$char_traits@D@std@@@std@@QBEPAV?$basic_streambuf@DU?$char_traits@D@std@@@2@XZ ; std::basic_ios<char,std::char_traits<char> >::rdbuf
	mov	DWORD PTR tv90[ebp], eax
	mov	edx, DWORD PTR tv90[ebp]
	mov	eax, DWORD PTR [edx]
	mov	esi, esp
	mov	ecx, DWORD PTR tv90[ebp]
	mov	edx, DWORD PTR [eax+8]
	call	edx
	cmp	esi, esp
	call	__RTC_CheckEsp
$LN2@Sentry_bas@2:

; 100  : 			}

	pop	esi
	add	esp, 8
	cmp	ebp, esp
	call	__RTC_CheckEsp
	mov	esp, ebp
	pop	ebp
	ret	0
??1_Sentry_base@?$basic_ostream@DU?$char_traits@D@std@@@std@@QAE@XZ ENDP ; std::basic_ostream<char,std::char_traits<char> >::_Sentry_base::~_Sentry_base
_TEXT	ENDS
EXTRN	_free:PROC
; Function compile flags: /Odtp /RTCsu
; File c:\program files (x86)\microsoft visual studio 10.0\vc\include\xdebug
;	COMDAT ??$_DebugHeapDelete@Vfacet@locale@std@@@std@@YAXPAVfacet@locale@0@@Z
_TEXT	SEGMENT
__Ptr$ = 8						; size = 4
??$_DebugHeapDelete@Vfacet@locale@std@@@std@@YAXPAVfacet@locale@0@@Z PROC ; std::_DebugHeapDelete<std::locale::facet>, COMDAT

; 56   : 	{	// delete from the debug CRT heap even if operator delete exists

	push	ebp
	mov	ebp, esp
	push	esi

; 57   : 	if (_Ptr != 0)

	cmp	DWORD PTR __Ptr$[ebp], 0
	je	SHORT $LN2@DebugHeapD

; 58   : 		{	// worth deleting
; 59   : 		_Ptr->~_Ty();

	mov	esi, esp
	push	0
	mov	eax, DWORD PTR __Ptr$[ebp]
	mov	edx, DWORD PTR [eax]
	mov	ecx, DWORD PTR __Ptr$[ebp]
	mov	eax, DWORD PTR [edx]
	call	eax
	cmp	esi, esp
	call	__RTC_CheckEsp

; 60   : 		// delete as _NORMAL_BLOCK, not _CRT_BLOCK, since we might have
; 61   : 		// facets allocated by normal new.
; 62   : 		free(_Ptr);

	mov	ecx, DWORD PTR __Ptr$[ebp]
	push	ecx
	call	_free
	add	esp, 4
$LN2@DebugHeapD:

; 63   : 		}
; 64   : 	}

	pop	esi
	cmp	ebp, esp
	call	__RTC_CheckEsp
	pop	ebp
	ret	0
??$_DebugHeapDelete@Vfacet@locale@std@@@std@@YAXPAVfacet@locale@0@@Z ENDP ; std::_DebugHeapDelete<std::locale::facet>
_TEXT	ENDS
PUBLIC	??0?$basic_string@DU?$char_traits@D@std@@V?$allocator@D@2@@std@@QAE@$$QAV01@@Z ; std::basic_string<char,std::char_traits<char>,std::allocator<char> >::basic_string<char,std::char_traits<char>,std::allocator<char> >
PUBLIC	??$move@AAV?$basic_string@DU?$char_traits@D@std@@V?$allocator@D@2@@std@@@std@@YA$$QAV?$basic_string@DU?$char_traits@D@std@@V?$allocator@D@2@@0@AAV10@@Z ; std::move<std::basic_string<char,std::char_traits<char>,std::allocator<char> > &>
PUBLIC	?insert@?$basic_string@DU?$char_traits@D@std@@V?$allocator@D@2@@std@@QAEAAV12@IABV12@@Z ; std::basic_string<char,std::char_traits<char>,std::allocator<char> >::insert
; Function compile flags: /Odtp /RTCsu
; File c:\program files (x86)\microsoft visual studio 10.0\vc\include\string
;	COMDAT ??$?HDU?$char_traits@D@std@@V?$allocator@D@1@@std@@YA?AV?$basic_string@DU?$char_traits@D@std@@V?$allocator@D@2@@0@ABV10@$$QAV10@@Z
_TEXT	SEGMENT
$T147262 = -4						; size = 4
___$ReturnUdt$ = 8					; size = 4
__Left$ = 12						; size = 4
__Right$ = 16						; size = 4
??$?HDU?$char_traits@D@std@@V?$allocator@D@1@@std@@YA?AV?$basic_string@DU?$char_traits@D@std@@V?$allocator@D@2@@0@ABV10@$$QAV10@@Z PROC ; std::operator+<char,std::char_traits<char>,std::allocator<char> >, COMDAT

; 92   : 	{	// return string + string

	push	ebp
	mov	ebp, esp
	push	ecx
	mov	DWORD PTR [ebp-4], -858993460		; ccccccccH
	mov	DWORD PTR $T147262[ebp], 0

; 93   : 	return (_STD move(_Right.insert(0, _Left)));

	mov	eax, DWORD PTR __Left$[ebp]
	push	eax
	push	0
	mov	ecx, DWORD PTR __Right$[ebp]
	call	?insert@?$basic_string@DU?$char_traits@D@std@@V?$allocator@D@2@@std@@QAEAAV12@IABV12@@Z ; std::basic_string<char,std::char_traits<char>,std::allocator<char> >::insert
	push	eax
	call	??$move@AAV?$basic_string@DU?$char_traits@D@std@@V?$allocator@D@2@@std@@@std@@YA$$QAV?$basic_string@DU?$char_traits@D@std@@V?$allocator@D@2@@0@AAV10@@Z ; std::move<std::basic_string<char,std::char_traits<char>,std::allocator<char> > &>
	add	esp, 4
	push	eax
	mov	ecx, DWORD PTR ___$ReturnUdt$[ebp]
	call	??0?$basic_string@DU?$char_traits@D@std@@V?$allocator@D@2@@std@@QAE@$$QAV01@@Z ; std::basic_string<char,std::char_traits<char>,std::allocator<char> >::basic_string<char,std::char_traits<char>,std::allocator<char> >
	mov	ecx, DWORD PTR $T147262[ebp]
	or	ecx, 1
	mov	DWORD PTR $T147262[ebp], ecx
	mov	eax, DWORD PTR ___$ReturnUdt$[ebp]

; 94   : 	}

	add	esp, 4
	cmp	ebp, esp
	call	__RTC_CheckEsp
	mov	esp, ebp
	pop	ebp
	ret	0
??$?HDU?$char_traits@D@std@@V?$allocator@D@1@@std@@YA?AV?$basic_string@DU?$char_traits@D@std@@V?$allocator@D@2@@0@ABV10@$$QAV10@@Z ENDP ; std::operator+<char,std::char_traits<char>,std::allocator<char> >
_TEXT	ENDS
PUBLIC	?assign@?$basic_string@DU?$char_traits@D@std@@V?$allocator@D@2@@std@@QAEAAV12@$$QAV12@@Z ; std::basic_string<char,std::char_traits<char>,std::allocator<char> >::assign
PUBLIC	??$forward@V?$basic_string@DU?$char_traits@D@std@@V?$allocator@D@2@@std@@@std@@YA$$QAV?$basic_string@DU?$char_traits@D@std@@V?$allocator@D@2@@0@AAV10@@Z ; std::forward<std::basic_string<char,std::char_traits<char>,std::allocator<char> > >
PUBLIC	??$forward@V?$allocator@D@std@@@std@@YA$$QAV?$allocator@D@0@AAV10@@Z ; std::forward<std::allocator<char> >
;	COMDAT xdata$x
; File c:\program files (x86)\microsoft visual studio 10.0\vc\include\xstring
xdata$x	SEGMENT
__unwindtable$??0?$basic_string@DU?$char_traits@D@std@@V?$allocator@D@2@@std@@QAE@$$QAV01@@Z DD 0ffffffffH
	DD	FLAT:__unwindfunclet$??0?$basic_string@DU?$char_traits@D@std@@V?$allocator@D@2@@std@@QAE@$$QAV01@@Z$0
__ehfuncinfo$??0?$basic_string@DU?$char_traits@D@std@@V?$allocator@D@2@@std@@QAE@$$QAV01@@Z DD 019930522H
	DD	01H
	DD	FLAT:__unwindtable$??0?$basic_string@DU?$char_traits@D@std@@V?$allocator@D@2@@std@@QAE@$$QAV01@@Z
	DD	2 DUP(00H)
	DD	2 DUP(00H)
	DD	00H
	DD	01H
; Function compile flags: /Odtp /RTCsu
xdata$x	ENDS
;	COMDAT ??0?$basic_string@DU?$char_traits@D@std@@V?$allocator@D@2@@std@@QAE@$$QAV01@@Z
_TEXT	SEGMENT
$T147266 = -20						; size = 4
_this$ = -16						; size = 4
__$EHRec$ = -12						; size = 12
__Right$ = 8						; size = 4
??0?$basic_string@DU?$char_traits@D@std@@V?$allocator@D@2@@std@@QAE@$$QAV01@@Z PROC ; std::basic_string<char,std::char_traits<char>,std::allocator<char> >::basic_string<char,std::char_traits<char>,std::allocator<char> >, COMDAT
; _this$ = ecx

; 702  : 		{	// construct by moving _Right

	push	ebp
	mov	ebp, esp
	push	-1
	push	__ehhandler$??0?$basic_string@DU?$char_traits@D@std@@V?$allocator@D@2@@std@@QAE@$$QAV01@@Z
	mov	eax, DWORD PTR fs:0
	push	eax
	sub	esp, 8
	mov	DWORD PTR [ebp-20], -858993460		; ccccccccH
	mov	DWORD PTR [ebp-16], -858993460		; ccccccccH
	mov	eax, DWORD PTR ___security_cookie
	xor	eax, ebp
	push	eax
	lea	eax, DWORD PTR __$EHRec$[ebp]
	mov	DWORD PTR fs:0, eax
	mov	DWORD PTR _this$[ebp], ecx
	mov	eax, DWORD PTR __Right$[ebp]
	add	eax, 28					; 0000001cH
	push	eax
	call	??$forward@V?$allocator@D@std@@@std@@YA$$QAV?$allocator@D@0@AAV10@@Z ; std::forward<std::allocator<char> >
	mov	ecx, esp
	mov	DWORD PTR $T147266[ebp], esp
	push	eax
	call	??0?$allocator@D@std@@QAE@ABV01@@Z	; std::allocator<char>::allocator<char>
	mov	ecx, DWORD PTR _this$[ebp]
	call	??0?$_String_val@DV?$allocator@D@std@@@std@@QAE@V?$allocator@D@1@@Z ; std::_String_val<char,std::allocator<char> >::_String_val<char,std::allocator<char> >
	mov	DWORD PTR __$EHRec$[ebp+8], 0

; 703  : 		_Tidy();

	push	0
	push	0
	mov	ecx, DWORD PTR _this$[ebp]
	call	?_Tidy@?$basic_string@DU?$char_traits@D@std@@V?$allocator@D@2@@std@@QAEX_NI@Z ; std::basic_string<char,std::char_traits<char>,std::allocator<char> >::_Tidy

; 704  : 		assign(_STD forward<_Myt>(_Right));

	mov	ecx, DWORD PTR __Right$[ebp]
	push	ecx
	call	??$forward@V?$basic_string@DU?$char_traits@D@std@@V?$allocator@D@2@@std@@@std@@YA$$QAV?$basic_string@DU?$char_traits@D@std@@V?$allocator@D@2@@0@AAV10@@Z ; std::forward<std::basic_string<char,std::char_traits<char>,std::allocator<char> > >
	add	esp, 4
	push	eax
	mov	ecx, DWORD PTR _this$[ebp]
	call	?assign@?$basic_string@DU?$char_traits@D@std@@V?$allocator@D@2@@std@@QAEAAV12@$$QAV12@@Z ; std::basic_string<char,std::char_traits<char>,std::allocator<char> >::assign

; 705  : 		}

	mov	DWORD PTR __$EHRec$[ebp+8], -1
	mov	eax, DWORD PTR _this$[ebp]
	mov	ecx, DWORD PTR __$EHRec$[ebp]
	mov	DWORD PTR fs:0, ecx
	pop	ecx
	add	esp, 20					; 00000014H
	cmp	ebp, esp
	call	__RTC_CheckEsp
	mov	esp, ebp
	pop	ebp
	ret	4
_TEXT	ENDS
;	COMDAT text$x
text$x	SEGMENT
__unwindfunclet$??0?$basic_string@DU?$char_traits@D@std@@V?$allocator@D@2@@std@@QAE@$$QAV01@@Z$0:
	mov	ecx, DWORD PTR _this$[ebp]
	jmp	??1?$_String_val@DV?$allocator@D@std@@@std@@QAE@XZ ; std::_String_val<char,std::allocator<char> >::~_String_val<char,std::allocator<char> >
__ehhandler$??0?$basic_string@DU?$char_traits@D@std@@V?$allocator@D@2@@std@@QAE@$$QAV01@@Z:
	mov	edx, DWORD PTR [esp+8]
	lea	eax, DWORD PTR [edx+12]
	mov	ecx, DWORD PTR [edx-12]
	xor	ecx, eax
	call	@__security_check_cookie@4
	mov	eax, OFFSET __ehfuncinfo$??0?$basic_string@DU?$char_traits@D@std@@V?$allocator@D@2@@std@@QAE@$$QAV01@@Z
	jmp	___CxxFrameHandler3
text$x	ENDS
??0?$basic_string@DU?$char_traits@D@std@@V?$allocator@D@2@@std@@QAE@$$QAV01@@Z ENDP ; std::basic_string<char,std::char_traits<char>,std::allocator<char> >::basic_string<char,std::char_traits<char>,std::allocator<char> >
PUBLIC	??4?$basic_string@DU?$char_traits@D@std@@V?$allocator@D@2@@std@@QAEAAV01@ABV01@@Z ; std::basic_string<char,std::char_traits<char>,std::allocator<char> >::operator=
PUBLIC	??$?9DD@std@@YA_NABV?$allocator@D@0@0@Z		; std::operator!=<char,char>
PUBLIC	?get_allocator@?$basic_string@DU?$char_traits@D@std@@V?$allocator@D@2@@std@@QBE?AV?$allocator@D@2@XZ ; std::basic_string<char,std::char_traits<char>,std::allocator<char> >::get_allocator
; Function compile flags: /Odtp /RTCsu
;	COMDAT ?assign@?$basic_string@DU?$char_traits@D@std@@V?$allocator@D@2@@std@@QAEAAV12@$$QAV12@@Z
_TEXT	SEGMENT
$T147277 = -6						; size = 1
$T147276 = -5						; size = 1
_this$ = -4						; size = 4
__Right$ = 8						; size = 4
?assign@?$basic_string@DU?$char_traits@D@std@@V?$allocator@D@2@@std@@QAEAAV12@$$QAV12@@Z PROC ; std::basic_string<char,std::char_traits<char>,std::allocator<char> >::assign, COMDAT
; _this$ = ecx

; 713  : 		{	// assign by moving _Right

	push	ebp
	mov	ebp, esp
	sub	esp, 8
	mov	DWORD PTR [ebp-8], -858993460		; ccccccccH
	mov	DWORD PTR [ebp-4], -858993460		; ccccccccH
	mov	DWORD PTR _this$[ebp], ecx

; 714  : 		if (this == &_Right)

	mov	eax, DWORD PTR _this$[ebp]
	cmp	eax, DWORD PTR __Right$[ebp]
	jne	SHORT $LN6@assign@3

; 715  : 			;
; 716  : 		else if (get_allocator() != _Right.get_allocator()

	jmp	$LN5@assign@3
$LN6@assign@3:

; 717  : 			&& this->_BUF_SIZE <= _Right._Myres)

	lea	ecx, DWORD PTR $T147276[ebp]
	push	ecx
	mov	ecx, DWORD PTR __Right$[ebp]
	call	?get_allocator@?$basic_string@DU?$char_traits@D@std@@V?$allocator@D@2@@std@@QBE?AV?$allocator@D@2@XZ ; std::basic_string<char,std::char_traits<char>,std::allocator<char> >::get_allocator
	push	eax
	lea	edx, DWORD PTR $T147277[ebp]
	push	edx
	mov	ecx, DWORD PTR _this$[ebp]
	call	?get_allocator@?$basic_string@DU?$char_traits@D@std@@V?$allocator@D@2@@std@@QBE?AV?$allocator@D@2@XZ ; std::basic_string<char,std::char_traits<char>,std::allocator<char> >::get_allocator
	push	eax
	call	??$?9DD@std@@YA_NABV?$allocator@D@0@0@Z	; std::operator!=<char,char>
	add	esp, 8
	movzx	eax, al
	test	eax, eax
	je	SHORT $LN4@assign@3
	mov	ecx, DWORD PTR __Right$[ebp]
	cmp	DWORD PTR [ecx+24], 16			; 00000010H
	jb	SHORT $LN4@assign@3

; 718  : 			*this = _Right;

	mov	edx, DWORD PTR __Right$[ebp]
	push	edx
	mov	ecx, DWORD PTR _this$[ebp]
	call	??4?$basic_string@DU?$char_traits@D@std@@V?$allocator@D@2@@std@@QAEAAV01@ABV01@@Z ; std::basic_string<char,std::char_traits<char>,std::allocator<char> >::operator=

; 719  : 		else

	jmp	SHORT $LN5@assign@3
$LN4@assign@3:

; 720  : 			{	// not same, clear this and steal from _Right
; 721  : 			_Tidy(true);

	push	0
	push	1
	mov	ecx, DWORD PTR _this$[ebp]
	call	?_Tidy@?$basic_string@DU?$char_traits@D@std@@V?$allocator@D@2@@std@@QAEX_NI@Z ; std::basic_string<char,std::char_traits<char>,std::allocator<char> >::_Tidy

; 722  : 			if (_Right._Myres < this->_BUF_SIZE)

	mov	eax, DWORD PTR __Right$[ebp]
	cmp	DWORD PTR [eax+24], 16			; 00000010H
	jae	SHORT $LN2@assign@3

; 723  : 				_Traits::move(this->_Bx._Buf, _Right._Bx._Buf,
; 724  : 					_Right._Mysize + 1);

	mov	ecx, DWORD PTR __Right$[ebp]
	mov	edx, DWORD PTR [ecx+20]
	add	edx, 1
	push	edx
	mov	eax, DWORD PTR __Right$[ebp]
	add	eax, 4
	push	eax
	mov	ecx, DWORD PTR _this$[ebp]
	add	ecx, 4
	push	ecx
	call	?move@?$char_traits@D@std@@SAPADPADPBDI@Z ; std::char_traits<char>::move
	add	esp, 12					; 0000000cH

; 725  : 			else

	jmp	SHORT $LN1@assign@3
$LN2@assign@3:

; 726  : 				{	// copy pointer
; 727  : 				this->_Bx._Ptr = _Right._Bx._Ptr;

	mov	edx, DWORD PTR _this$[ebp]
	mov	eax, DWORD PTR __Right$[ebp]
	mov	ecx, DWORD PTR [eax+4]
	mov	DWORD PTR [edx+4], ecx

; 728  : 				_Right._Bx._Ptr = 0;

	mov	edx, DWORD PTR __Right$[ebp]
	mov	DWORD PTR [edx+4], 0
$LN1@assign@3:

; 729  : 				}
; 730  : 			this->_Mysize = _Right._Mysize;

	mov	eax, DWORD PTR _this$[ebp]
	mov	ecx, DWORD PTR __Right$[ebp]
	mov	edx, DWORD PTR [ecx+20]
	mov	DWORD PTR [eax+20], edx

; 731  : 			this->_Myres = _Right._Myres;

	mov	eax, DWORD PTR _this$[ebp]
	mov	ecx, DWORD PTR __Right$[ebp]
	mov	edx, DWORD PTR [ecx+24]
	mov	DWORD PTR [eax+24], edx

; 732  : 
; 733  : 			_Right._Tidy();

	push	0
	push	0
	mov	ecx, DWORD PTR __Right$[ebp]
	call	?_Tidy@?$basic_string@DU?$char_traits@D@std@@V?$allocator@D@2@@std@@QAEX_NI@Z ; std::basic_string<char,std::char_traits<char>,std::allocator<char> >::_Tidy
$LN5@assign@3:

; 734  : 			}
; 735  : 		return (*this);

	mov	eax, DWORD PTR _this$[ebp]

; 736  : 		}

	add	esp, 8
	cmp	ebp, esp
	call	__RTC_CheckEsp
	mov	esp, ebp
	pop	ebp
	ret	4
?assign@?$basic_string@DU?$char_traits@D@std@@V?$allocator@D@2@@std@@QAEAAV12@$$QAV12@@Z ENDP ; std::basic_string<char,std::char_traits<char>,std::allocator<char> >::assign
_TEXT	ENDS
PUBLIC	?assign@?$basic_string@DU?$char_traits@D@std@@V?$allocator@D@2@@std@@QAEAAV12@ABV12@@Z ; std::basic_string<char,std::char_traits<char>,std::allocator<char> >::assign
; Function compile flags: /Odtp /RTCsu
;	COMDAT ??4?$basic_string@DU?$char_traits@D@std@@V?$allocator@D@2@@std@@QAEAAV01@ABV01@@Z
_TEXT	SEGMENT
_this$ = -4						; size = 4
__Right$ = 8						; size = 4
??4?$basic_string@DU?$char_traits@D@std@@V?$allocator@D@2@@std@@QAEAAV01@ABV01@@Z PROC ; std::basic_string<char,std::char_traits<char>,std::allocator<char> >::operator=, COMDAT
; _this$ = ecx

; 762  : 		{	// assign _Right

	push	ebp
	mov	ebp, esp
	push	ecx
	mov	DWORD PTR [ebp-4], -858993460		; ccccccccH
	mov	DWORD PTR _this$[ebp], ecx

; 763  : 		return (assign(_Right));

	mov	eax, DWORD PTR __Right$[ebp]
	push	eax
	mov	ecx, DWORD PTR _this$[ebp]
	call	?assign@?$basic_string@DU?$char_traits@D@std@@V?$allocator@D@2@@std@@QAEAAV12@ABV12@@Z ; std::basic_string<char,std::char_traits<char>,std::allocator<char> >::assign

; 764  : 		}

	add	esp, 4
	cmp	ebp, esp
	call	__RTC_CheckEsp
	mov	esp, ebp
	pop	ebp
	ret	4
??4?$basic_string@DU?$char_traits@D@std@@V?$allocator@D@2@@std@@QAEAAV01@ABV01@@Z ENDP ; std::basic_string<char,std::char_traits<char>,std::allocator<char> >::operator=
; Function compile flags: /Odtp /RTCsu
_TEXT	ENDS
;	COMDAT ?get_allocator@?$basic_string@DU?$char_traits@D@std@@V?$allocator@D@2@@std@@QBE?AV?$allocator@D@2@XZ
_TEXT	SEGMENT
_this$ = -4						; size = 4
___$ReturnUdt$ = 8					; size = 4
?get_allocator@?$basic_string@DU?$char_traits@D@std@@V?$allocator@D@2@@std@@QBE?AV?$allocator@D@2@XZ PROC ; std::basic_string<char,std::char_traits<char>,std::allocator<char> >::get_allocator, COMDAT
; _this$ = ecx

; 1905 : 		{	// return allocator object for values

	push	ebp
	mov	ebp, esp
	push	ecx
	mov	DWORD PTR [ebp-4], -858993460		; ccccccccH
	mov	DWORD PTR _this$[ebp], ecx

; 1906 : 		return (this->_Alval);

	mov	eax, DWORD PTR _this$[ebp]
	add	eax, 28					; 0000001cH
	push	eax
	mov	ecx, DWORD PTR ___$ReturnUdt$[ebp]
	call	??0?$allocator@D@std@@QAE@ABV01@@Z	; std::allocator<char>::allocator<char>
	mov	eax, DWORD PTR ___$ReturnUdt$[ebp]

; 1907 : 		}

	add	esp, 4
	cmp	ebp, esp
	call	__RTC_CheckEsp
	mov	esp, ebp
	pop	ebp
	ret	4
?get_allocator@?$basic_string@DU?$char_traits@D@std@@V?$allocator@D@2@@std@@QBE?AV?$allocator@D@2@XZ ENDP ; std::basic_string<char,std::char_traits<char>,std::allocator<char> >::get_allocator
; Function compile flags: /Odtp /RTCsu
_TEXT	ENDS
;	COMDAT ?assign@?$basic_string@DU?$char_traits@D@std@@V?$allocator@D@2@@std@@QAEAAV12@ABV12@@Z
_TEXT	SEGMENT
_this$ = -4						; size = 4
__Right$ = 8						; size = 4
?assign@?$basic_string@DU?$char_traits@D@std@@V?$allocator@D@2@@std@@QAEAAV12@ABV12@@Z PROC ; std::basic_string<char,std::char_traits<char>,std::allocator<char> >::assign, COMDAT
; _this$ = ecx

; 886  : 		{	// assign _Right

	push	ebp
	mov	ebp, esp
	push	ecx
	mov	DWORD PTR [ebp-4], -858993460		; ccccccccH
	mov	DWORD PTR _this$[ebp], ecx

; 887  : 		return (assign(_Right, 0, npos));

	mov	eax, DWORD PTR ?npos@?$basic_string@DU?$char_traits@D@std@@V?$allocator@D@2@@std@@2IB ; std::basic_string<char,std::char_traits<char>,std::allocator<char> >::npos
	push	eax
	push	0
	mov	ecx, DWORD PTR __Right$[ebp]
	push	ecx
	mov	ecx, DWORD PTR _this$[ebp]
	call	?assign@?$basic_string@DU?$char_traits@D@std@@V?$allocator@D@2@@std@@QAEAAV12@ABV12@II@Z ; std::basic_string<char,std::char_traits<char>,std::allocator<char> >::assign

; 888  : 		}

	add	esp, 4
	cmp	ebp, esp
	call	__RTC_CheckEsp
	mov	esp, ebp
	pop	ebp
	ret	4
?assign@?$basic_string@DU?$char_traits@D@std@@V?$allocator@D@2@@std@@QAEAAV12@ABV12@@Z ENDP ; std::basic_string<char,std::char_traits<char>,std::allocator<char> >::assign
; Function compile flags: /Odtp /RTCsu
; File c:\program files (x86)\microsoft visual studio 10.0\vc\include\utility
_TEXT	ENDS
;	COMDAT ??$forward@V?$allocator@D@std@@@std@@YA$$QAV?$allocator@D@0@AAV10@@Z
_TEXT	SEGMENT
__Arg$ = 8						; size = 4
??$forward@V?$allocator@D@std@@@std@@YA$$QAV?$allocator@D@0@AAV10@@Z PROC ; std::forward<std::allocator<char> >, COMDAT

; 78   : 	{	// forward _Arg, given explicitly specified type parameter

	push	ebp
	mov	ebp, esp

; 79   : 	return ((_Ty&&)_Arg);

	mov	eax, DWORD PTR __Arg$[ebp]

; 80   : 	}

	pop	ebp
	ret	0
??$forward@V?$allocator@D@std@@@std@@YA$$QAV?$allocator@D@0@AAV10@@Z ENDP ; std::forward<std::allocator<char> >
; Function compile flags: /Odtp /RTCsu
_TEXT	ENDS
;	COMDAT ??$forward@V?$basic_string@DU?$char_traits@D@std@@V?$allocator@D@2@@std@@@std@@YA$$QAV?$basic_string@DU?$char_traits@D@std@@V?$allocator@D@2@@0@AAV10@@Z
_TEXT	SEGMENT
__Arg$ = 8						; size = 4
??$forward@V?$basic_string@DU?$char_traits@D@std@@V?$allocator@D@2@@std@@@std@@YA$$QAV?$basic_string@DU?$char_traits@D@std@@V?$allocator@D@2@@0@AAV10@@Z PROC ; std::forward<std::basic_string<char,std::char_traits<char>,std::allocator<char> > >, COMDAT

; 78   : 	{	// forward _Arg, given explicitly specified type parameter

	push	ebp
	mov	ebp, esp

; 79   : 	return ((_Ty&&)_Arg);

	mov	eax, DWORD PTR __Arg$[ebp]

; 80   : 	}

	pop	ebp
	ret	0
??$forward@V?$basic_string@DU?$char_traits@D@std@@V?$allocator@D@2@@std@@@std@@YA$$QAV?$basic_string@DU?$char_traits@D@std@@V?$allocator@D@2@@0@AAV10@@Z ENDP ; std::forward<std::basic_string<char,std::char_traits<char>,std::allocator<char> > >
_TEXT	ENDS
PUBLIC	??_C@_1CK@EOPGIILJ@?$AAi?$AAn?$AAv?$AAa?$AAl?$AAi?$AAd?$AA?5?$AAn?$AAu?$AAl?$AAl?$AA?5?$AAp?$AAo?$AAi?$AAn?$AAt?$AAe?$AAr?$AA?$AA@ ; `string'
EXTRN	?_Debug_message@std@@YAXPB_W0I@Z:PROC		; std::_Debug_message
;	COMDAT ??_C@_1CK@EOPGIILJ@?$AAi?$AAn?$AAv?$AAa?$AAl?$AAi?$AAd?$AA?5?$AAn?$AAu?$AAl?$AAl?$AA?5?$AAp?$AAo?$AAi?$AAn?$AAt?$AAe?$AAr?$AA?$AA@
; File c:\program files (x86)\microsoft visual studio 10.0\vc\include\xutility
CONST	SEGMENT
??_C@_1CK@EOPGIILJ@?$AAi?$AAn?$AAv?$AAa?$AAl?$AAi?$AAd?$AA?5?$AAn?$AAu?$AAl?$AAl?$AA?5?$AAp?$AAo?$AAi?$AAn?$AAt?$AAe?$AAr?$AA?$AA@ DB 'i'
	DB	00H, 'n', 00H, 'v', 00H, 'a', 00H, 'l', 00H, 'i', 00H, 'd', 00H
	DB	' ', 00H, 'n', 00H, 'u', 00H, 'l', 00H, 'l', 00H, ' ', 00H, 'p'
	DB	00H, 'o', 00H, 'i', 00H, 'n', 00H, 't', 00H, 'e', 00H, 'r', 00H
	DB	00H, 00H					; `string'
; Function compile flags: /Odtp /RTCsu
CONST	ENDS
;	COMDAT ??$_Debug_pointer@D@std@@YAXPBDPB_WI@Z
_TEXT	SEGMENT
__First$ = 8						; size = 4
__File$ = 12						; size = 4
__Line$ = 16						; size = 4
??$_Debug_pointer@D@std@@YAXPBDPB_WI@Z PROC		; std::_Debug_pointer<char>, COMDAT

; 701  : 	{	// test iterator for non-singularity, const pointers

	push	ebp
	mov	ebp, esp

; 702  : 	if (_First == 0)

	cmp	DWORD PTR __First$[ebp], 0
	jne	SHORT $LN2@Debug_poin

; 703  : 		_DEBUG_ERROR2("invalid null pointer", _File, _Line);

	mov	eax, DWORD PTR __Line$[ebp]
	push	eax
	mov	ecx, DWORD PTR __File$[ebp]
	push	ecx
	push	OFFSET ??_C@_1CK@EOPGIILJ@?$AAi?$AAn?$AAv?$AAa?$AAl?$AAi?$AAd?$AA?5?$AAn?$AAu?$AAl?$AAl?$AA?5?$AAp?$AAo?$AAi?$AAn?$AAt?$AAe?$AAr?$AA?$AA@
	call	?_Debug_message@std@@YAXPB_W0I@Z	; std::_Debug_message
	add	esp, 12					; 0000000cH
$LN2@Debug_poin:

; 704  : 	}

	cmp	ebp, esp
	call	__RTC_CheckEsp
	pop	ebp
	ret	0
??$_Debug_pointer@D@std@@YAXPBDPB_WI@Z ENDP		; std::_Debug_pointer<char>
_TEXT	ENDS
PUBLIC	?_Register@facet@locale@std@@QAEXXZ		; std::locale::facet::_Register
PUBLIC	__TI2?AVbad_cast@std@@
PUBLIC	??_C@_08EPJLHIJG@bad?5cast?$AA@			; `string'
PUBLIC	?_Getcat@?$num_put@DV?$ostreambuf_iterator@DU?$char_traits@D@std@@@std@@@std@@SAIPAPBVfacet@locale@2@PBV42@@Z ; std::num_put<char,std::ostreambuf_iterator<char,std::char_traits<char> > >::_Getcat
PUBLIC	?_Getfacet@locale@std@@QBEPBVfacet@12@I@Z	; std::locale::_Getfacet
PUBLIC	??Bid@locale@std@@QAEIXZ			; std::locale::id::operator unsigned int
PUBLIC	?_Psave@?$_Facetptr@V?$num_put@DV?$ostreambuf_iterator@DU?$char_traits@D@std@@@std@@@std@@@std@@2PBVfacet@locale@2@B ; std::_Facetptr<std::num_put<char,std::ostreambuf_iterator<char,std::char_traits<char> > > >::_Psave
PUBLIC	__CTA2?AVbad_cast@std@@
PUBLIC	__CT??_R0?AVbad_cast@std@@@8??0bad_cast@std@@QAE@ABV01@@Z12
PUBLIC	??_R0?AVbad_cast@std@@@8			; std::bad_cast `RTTI Type Descriptor'
EXTRN	??0bad_cast@std@@QAE@PBD@Z:PROC			; std::bad_cast::bad_cast
EXTRN	??1bad_cast@std@@UAE@XZ:PROC			; std::bad_cast::~bad_cast
EXTRN	??0bad_cast@std@@QAE@ABV01@@Z:PROC		; std::bad_cast::bad_cast
;	COMDAT ?_Psave@?$_Facetptr@V?$num_put@DV?$ostreambuf_iterator@DU?$char_traits@D@std@@@std@@@std@@@std@@2PBVfacet@locale@2@B
; File c:\program files (x86)\microsoft visual studio 10.0\vc\include\xlocale
_BSS	SEGMENT
?_Psave@?$_Facetptr@V?$num_put@DV?$ostreambuf_iterator@DU?$char_traits@D@std@@@std@@@std@@@std@@2PBVfacet@locale@2@B DD 01H DUP (?) ; std::_Facetptr<std::num_put<char,std::ostreambuf_iterator<char,std::char_traits<char> > > >::_Psave
_BSS	ENDS
;	COMDAT ??_R0?AVbad_cast@std@@@8
_DATA	SEGMENT
??_R0?AVbad_cast@std@@@8 DD FLAT:??_7type_info@@6B@	; std::bad_cast `RTTI Type Descriptor'
	DD	00H
	DB	'.?AVbad_cast@std@@', 00H
_DATA	ENDS
;	COMDAT __CT??_R0?AVbad_cast@std@@@8??0bad_cast@std@@QAE@ABV01@@Z12
xdata$x	SEGMENT
__CT??_R0?AVbad_cast@std@@@8??0bad_cast@std@@QAE@ABV01@@Z12 DD 00H
	DD	FLAT:??_R0?AVbad_cast@std@@@8
	DD	00H
	DD	0ffffffffH
	ORG $+4
	DD	0cH
	DD	FLAT:??0bad_cast@std@@QAE@ABV01@@Z
xdata$x	ENDS
;	COMDAT __CTA2?AVbad_cast@std@@
xdata$x	SEGMENT
__CTA2?AVbad_cast@std@@ DD 02H
	DD	FLAT:__CT??_R0?AVbad_cast@std@@@8??0bad_cast@std@@QAE@ABV01@@Z12
	DD	FLAT:__CT??_R0?AVexception@std@@@8??0exception@std@@QAE@ABV01@@Z12
xdata$x	ENDS
;	COMDAT __TI2?AVbad_cast@std@@
xdata$x	SEGMENT
__TI2?AVbad_cast@std@@ DD 00H
	DD	FLAT:??1bad_cast@std@@UAE@XZ
	DD	00H
	DD	FLAT:__CTA2?AVbad_cast@std@@
xdata$x	ENDS
;	COMDAT ??_C@_08EPJLHIJG@bad?5cast?$AA@
CONST	SEGMENT
??_C@_08EPJLHIJG@bad?5cast?$AA@ DB 'bad cast', 00H	; `string'
CONST	ENDS
;	COMDAT xdata$x
xdata$x	SEGMENT
__unwindtable$??$use_facet@V?$num_put@DV?$ostreambuf_iterator@DU?$char_traits@D@std@@@std@@@std@@@std@@YAABV?$num_put@DV?$ostreambuf_iterator@DU?$char_traits@D@std@@@std@@@0@ABVlocale@0@@Z DD 0ffffffffH
	DD	FLAT:__unwindfunclet$??$use_facet@V?$num_put@DV?$ostreambuf_iterator@DU?$char_traits@D@std@@@std@@@std@@@std@@YAABV?$num_put@DV?$ostreambuf_iterator@DU?$char_traits@D@std@@@std@@@0@ABVlocale@0@@Z$0
__ehfuncinfo$??$use_facet@V?$num_put@DV?$ostreambuf_iterator@DU?$char_traits@D@std@@@std@@@std@@@std@@YAABV?$num_put@DV?$ostreambuf_iterator@DU?$char_traits@D@std@@@std@@@0@ABVlocale@0@@Z DD 019930522H
	DD	01H
	DD	FLAT:__unwindtable$??$use_facet@V?$num_put@DV?$ostreambuf_iterator@DU?$char_traits@D@std@@@std@@@std@@@std@@YAABV?$num_put@DV?$ostreambuf_iterator@DU?$char_traits@D@std@@@std@@@0@ABVlocale@0@@Z
	DD	2 DUP(00H)
	DD	2 DUP(00H)
	DD	00H
	DD	01H
; Function compile flags: /Odtp /RTCsu
xdata$x	ENDS
;	COMDAT ??$use_facet@V?$num_put@DV?$ostreambuf_iterator@DU?$char_traits@D@std@@@std@@@std@@@std@@YAABV?$num_put@DV?$ostreambuf_iterator@DU?$char_traits@D@std@@@std@@@0@ABVlocale@0@@Z
_TEXT	SEGMENT
$T147293 = -64						; size = 4
$T147292 = -60						; size = 12
__Pfmod$142652 = -48					; size = 4
__Pf$142641 = -44					; size = 4
__Id$142640 = -40					; size = 4
__Psave$142628 = -32					; size = 4
__Lock$142627 = -20					; size = 4
__$EHRec$ = -12						; size = 12
__Loc$ = 8						; size = 4
??$use_facet@V?$num_put@DV?$ostreambuf_iterator@DU?$char_traits@D@std@@@std@@@std@@@std@@YAABV?$num_put@DV?$ostreambuf_iterator@DU?$char_traits@D@std@@@std@@@0@ABVlocale@0@@Z PROC ; std::use_facet<std::num_put<char,std::ostreambuf_iterator<char,std::char_traits<char> > > >, COMDAT

; 504  : 	{	// get facet reference from locale

	push	ebp
	mov	ebp, esp
	push	-1
	push	__ehhandler$??$use_facet@V?$num_put@DV?$ostreambuf_iterator@DU?$char_traits@D@std@@@std@@@std@@@std@@YAABV?$num_put@DV?$ostreambuf_iterator@DU?$char_traits@D@std@@@std@@@0@ABVlocale@0@@Z
	mov	eax, DWORD PTR fs:0
	push	eax
	sub	esp, 52					; 00000034H
	push	edi
	lea	edi, DWORD PTR [ebp-64]
	mov	ecx, 13					; 0000000dH
	mov	eax, -858993460				; ccccccccH
	rep stosd
	mov	eax, DWORD PTR ___security_cookie
	xor	eax, ebp
	push	eax
	lea	eax, DWORD PTR __$EHRec$[ebp]
	mov	DWORD PTR fs:0, eax

; 505  : 	_BEGIN_LOCK(_LOCK_LOCALE)	// the thread lock, make get atomic

	push	0
	lea	ecx, DWORD PTR __Lock$142627[ebp]
	call	??0_Lockit@std@@QAE@H@Z			; std::_Lockit::_Lockit
	mov	DWORD PTR __$EHRec$[ebp+8], 0

; 506  : 		const locale::facet *_Psave =
; 507  : 			_Facetptr<_Facet>::_Psave;	// static pointer to lazy facet

	mov	eax, DWORD PTR ?_Psave@?$_Facetptr@V?$num_put@DV?$ostreambuf_iterator@DU?$char_traits@D@std@@@std@@@std@@@std@@2PBVfacet@locale@2@B ; std::_Facetptr<std::num_put<char,std::ostreambuf_iterator<char,std::char_traits<char> > > >::_Psave
	mov	DWORD PTR __Psave$142628[ebp], eax

; 508  : 
; 509  : 		size_t _Id = _Facet::id;

	mov	ecx, OFFSET ?id@?$num_put@DV?$ostreambuf_iterator@DU?$char_traits@D@std@@@std@@@std@@2V0locale@2@A ; std::num_put<char,std::ostreambuf_iterator<char,std::char_traits<char> > >::id
	call	??Bid@locale@std@@QAEIXZ		; std::locale::id::operator unsigned int
	mov	DWORD PTR __Id$142640[ebp], eax

; 510  : 		const locale::facet *_Pf = _Loc._Getfacet(_Id);

	mov	ecx, DWORD PTR __Id$142640[ebp]
	push	ecx
	mov	ecx, DWORD PTR __Loc$[ebp]
	call	?_Getfacet@locale@std@@QBEPBVfacet@12@I@Z ; std::locale::_Getfacet
	mov	DWORD PTR __Pf$142641[ebp], eax

; 511  : 
; 512  : 		if (_Pf != 0)

	cmp	DWORD PTR __Pf$142641[ebp], 0
	je	SHORT $LN6@use_facet
	jmp	SHORT $LN5@use_facet
$LN6@use_facet:

; 513  : 			;	// got facet from locale
; 514  : 		else if (_Psave != 0)

	cmp	DWORD PTR __Psave$142628[ebp], 0
	je	SHORT $LN4@use_facet

; 515  : 			_Pf = _Psave;	// lazy facet already allocated

	mov	edx, DWORD PTR __Psave$142628[ebp]
	mov	DWORD PTR __Pf$142641[ebp], edx
	jmp	SHORT $LN5@use_facet
$LN4@use_facet:

; 516  : 		else if (_Facet::_Getcat(&_Psave, &_Loc) == (size_t)(-1))

	mov	eax, DWORD PTR __Loc$[ebp]
	push	eax
	lea	ecx, DWORD PTR __Psave$142628[ebp]
	push	ecx
	call	?_Getcat@?$num_put@DV?$ostreambuf_iterator@DU?$char_traits@D@std@@@std@@@std@@SAIPAPBVfacet@locale@2@PBV42@@Z ; std::num_put<char,std::ostreambuf_iterator<char,std::char_traits<char> > >::_Getcat
	add	esp, 8
	cmp	eax, -1
	jne	SHORT $LN2@use_facet

; 517  : 
; 518  :  #if _HAS_EXCEPTIONS
; 519  : 
; 520  : 			_THROW_NCEE(bad_cast, _EMPTY_ARGUMENT);	// lazy disallowed

	push	OFFSET ??_C@_08EPJLHIJG@bad?5cast?$AA@
	lea	ecx, DWORD PTR $T147292[ebp]
	call	??0bad_cast@std@@QAE@PBD@Z		; std::bad_cast::bad_cast
	push	OFFSET __TI2?AVbad_cast@std@@
	lea	edx, DWORD PTR $T147292[ebp]
	push	edx
	call	__CxxThrowException@8

; 521  : 
; 522  :  #else /* _HAS_EXCEPTIONS */
; 523  : 			abort();	// lazy disallowed
; 524  :  #endif /* _HAS_EXCEPTIONS */
; 525  : 
; 526  : 		else

	jmp	SHORT $LN5@use_facet
$LN2@use_facet:

; 527  : 			{	// queue up lazy facet for destruction
; 528  : 			_Pf = _Psave;

	mov	eax, DWORD PTR __Psave$142628[ebp]
	mov	DWORD PTR __Pf$142641[ebp], eax

; 529  : 			_Facetptr<_Facet>::_Psave = _Psave;

	mov	ecx, DWORD PTR __Psave$142628[ebp]
	mov	DWORD PTR ?_Psave@?$_Facetptr@V?$num_put@DV?$ostreambuf_iterator@DU?$char_traits@D@std@@@std@@@std@@@std@@2PBVfacet@locale@2@B, ecx ; std::_Facetptr<std::num_put<char,std::ostreambuf_iterator<char,std::char_traits<char> > > >::_Psave

; 530  : 
; 531  : 			locale::facet *_Pfmod = (_Facet *)_Psave;

	mov	edx, DWORD PTR __Psave$142628[ebp]
	mov	DWORD PTR __Pfmod$142652[ebp], edx

; 532  : 			_Pfmod->_Incref();

	mov	ecx, DWORD PTR __Pfmod$142652[ebp]
	call	?_Incref@facet@locale@std@@QAEXXZ	; std::locale::facet::_Incref

; 533  : 			_Pfmod->_Register();

	mov	ecx, DWORD PTR __Pfmod$142652[ebp]
	call	?_Register@facet@locale@std@@QAEXXZ	; std::locale::facet::_Register
$LN5@use_facet:

; 534  : 			}
; 535  : 
; 536  : 		return ((const _Facet&)(*_Pf));	// should be dynamic_cast

	mov	eax, DWORD PTR __Pf$142641[ebp]
	mov	DWORD PTR $T147293[ebp], eax
	mov	DWORD PTR __$EHRec$[ebp+8], -1
	lea	ecx, DWORD PTR __Lock$142627[ebp]
	call	??1_Lockit@std@@QAE@XZ			; std::_Lockit::~_Lockit
	mov	eax, DWORD PTR $T147293[ebp]
$LN8@use_facet:

; 537  : 	_END_LOCK()
; 538  : 	}

	push	edx
	mov	ecx, ebp
	push	eax
	lea	edx, DWORD PTR $LN14@use_facet
	call	@_RTC_CheckStackVars@8
	pop	eax
	pop	edx
	mov	ecx, DWORD PTR __$EHRec$[ebp]
	mov	DWORD PTR fs:0, ecx
	pop	ecx
	pop	edi
	add	esp, 64					; 00000040H
	cmp	ebp, esp
	call	__RTC_CheckEsp
	mov	esp, ebp
	pop	ebp
	ret	0
	npad	2
$LN14@use_facet:
	DD	2
	DD	$LN13@use_facet
$LN13@use_facet:
	DD	-20					; ffffffecH
	DD	4
	DD	$LN10@use_facet
	DD	-32					; ffffffe0H
	DD	4
	DD	$LN11@use_facet
$LN11@use_facet:
	DB	95					; 0000005fH
	DB	80					; 00000050H
	DB	115					; 00000073H
	DB	97					; 00000061H
	DB	118					; 00000076H
	DB	101					; 00000065H
	DB	0
$LN10@use_facet:
	DB	95					; 0000005fH
	DB	76					; 0000004cH
	DB	111					; 0000006fH
	DB	99					; 00000063H
	DB	107					; 0000006bH
	DB	0
_TEXT	ENDS
;	COMDAT text$x
text$x	SEGMENT
__unwindfunclet$??$use_facet@V?$num_put@DV?$ostreambuf_iterator@DU?$char_traits@D@std@@@std@@@std@@@std@@YAABV?$num_put@DV?$ostreambuf_iterator@DU?$char_traits@D@std@@@std@@@0@ABVlocale@0@@Z$0:
	lea	ecx, DWORD PTR __Lock$142627[ebp]
	jmp	??1_Lockit@std@@QAE@XZ			; std::_Lockit::~_Lockit
__ehhandler$??$use_facet@V?$num_put@DV?$ostreambuf_iterator@DU?$char_traits@D@std@@@std@@@std@@@std@@YAABV?$num_put@DV?$ostreambuf_iterator@DU?$char_traits@D@std@@@std@@@0@ABVlocale@0@@Z:
	mov	edx, DWORD PTR [esp+8]
	lea	eax, DWORD PTR [edx+12]
	mov	ecx, DWORD PTR [edx-60]
	xor	ecx, eax
	call	@__security_check_cookie@4
	mov	eax, OFFSET __ehfuncinfo$??$use_facet@V?$num_put@DV?$ostreambuf_iterator@DU?$char_traits@D@std@@@std@@@std@@@std@@YAABV?$num_put@DV?$ostreambuf_iterator@DU?$char_traits@D@std@@@std@@@0@ABVlocale@0@@Z
	jmp	___CxxFrameHandler3
text$x	ENDS
??$use_facet@V?$num_put@DV?$ostreambuf_iterator@DU?$char_traits@D@std@@@std@@@std@@@std@@YAABV?$num_put@DV?$ostreambuf_iterator@DU?$char_traits@D@std@@@std@@@0@ABVlocale@0@@Z ENDP ; std::use_facet<std::num_put<char,std::ostreambuf_iterator<char,std::char_traits<char> > > >
EXTRN	?_Id_cnt@id@locale@std@@0HA:DWORD		; std::locale::id::_Id_cnt
; Function compile flags: /Odtp /RTCsu
;	COMDAT ??Bid@locale@std@@QAEIXZ
_TEXT	SEGMENT
__Lock$34139 = -12					; size = 4
_this$ = -4						; size = 4
??Bid@locale@std@@QAEIXZ PROC				; std::locale::id::operator unsigned int, COMDAT
; _this$ = ecx

; 75   : 			{	// get stamp, with lazy allocation

	push	ebp
	mov	ebp, esp
	sub	esp, 16					; 00000010H
	mov	eax, -858993460				; ccccccccH
	mov	DWORD PTR [ebp-16], eax
	mov	DWORD PTR [ebp-12], eax
	mov	DWORD PTR [ebp-8], eax
	mov	DWORD PTR [ebp-4], eax
	mov	DWORD PTR _this$[ebp], ecx

; 76   : 			if (_Id == 0)

	mov	eax, DWORD PTR _this$[ebp]
	cmp	DWORD PTR [eax], 0
	jne	SHORT $LN2@operator@2

; 77   : 				{	// still zero, allocate stamp
; 78   : 				_BEGIN_LOCK(_LOCK_LOCALE)

	push	0
	lea	ecx, DWORD PTR __Lock$34139[ebp]
	call	??0_Lockit@std@@QAE@H@Z			; std::_Lockit::_Lockit

; 79   : 					if (_Id == 0)

	mov	ecx, DWORD PTR _this$[ebp]
	cmp	DWORD PTR [ecx], 0
	jne	SHORT $LN1@operator@2

; 80   : 						_Id = ++_Id_cnt;

	mov	edx, DWORD PTR ?_Id_cnt@id@locale@std@@0HA ; std::locale::id::_Id_cnt
	add	edx, 1
	mov	DWORD PTR ?_Id_cnt@id@locale@std@@0HA, edx ; std::locale::id::_Id_cnt
	mov	eax, DWORD PTR _this$[ebp]
	mov	ecx, DWORD PTR ?_Id_cnt@id@locale@std@@0HA ; std::locale::id::_Id_cnt
	mov	DWORD PTR [eax], ecx
$LN1@operator@2:

; 81   : 				_END_LOCK()

	lea	ecx, DWORD PTR __Lock$34139[ebp]
	call	??1_Lockit@std@@QAE@XZ			; std::_Lockit::~_Lockit
$LN2@operator@2:

; 82   : 				}
; 83   : 			return (_Id);

	mov	edx, DWORD PTR _this$[ebp]
	mov	eax, DWORD PTR [edx]

; 84   : 			}

	push	edx
	mov	ecx, ebp
	push	eax
	lea	edx, DWORD PTR $LN8@operator@2
	call	@_RTC_CheckStackVars@8
	pop	eax
	pop	edx
	add	esp, 16					; 00000010H
	cmp	ebp, esp
	call	__RTC_CheckEsp
	mov	esp, ebp
	pop	ebp
	ret	0
	npad	2
$LN8@operator@2:
	DD	1
	DD	$LN7@operator@2
$LN7@operator@2:
	DD	-12					; fffffff4H
	DD	4
	DD	$LN6@operator@2
$LN6@operator@2:
	DB	95					; 0000005fH
	DB	76					; 0000004cH
	DB	111					; 0000006fH
	DB	99					; 00000063H
	DB	107					; 0000006bH
	DB	0
??Bid@locale@std@@QAEIXZ ENDP				; std::locale::id::operator unsigned int
_TEXT	ENDS
EXTRN	?_Facet_Register@facet@locale@std@@CAXPAV123@@Z:PROC ; std::locale::facet::_Facet_Register
; Function compile flags: /Odtp /RTCsu
;	COMDAT ?_Register@facet@locale@std@@QAEXXZ
_TEXT	SEGMENT
_this$ = -4						; size = 4
?_Register@facet@locale@std@@QAEXXZ PROC		; std::locale::facet::_Register, COMDAT
; _this$ = ecx

; 128  : 			{	// queue lazy facet destruction

	push	ebp
	mov	ebp, esp
	push	ecx
	mov	DWORD PTR [ebp-4], -858993460		; ccccccccH
	mov	DWORD PTR _this$[ebp], ecx

; 129  :  #if defined(_M_CEE)
; 130  : 			_Facet_Register_m(this);
; 131  : 
; 132  :  #else /* defined(_M_CEE) */
; 133  : 			_Facet_Register(this);

	mov	eax, DWORD PTR _this$[ebp]
	push	eax
	call	?_Facet_Register@facet@locale@std@@CAXPAV123@@Z ; std::locale::facet::_Facet_Register
	add	esp, 4

; 134  :  #endif /* defined(_M_CEE) */
; 135  : 			}

	add	esp, 4
	cmp	ebp, esp
	call	__RTC_CheckEsp
	mov	esp, ebp
	pop	ebp
	ret	0
?_Register@facet@locale@std@@QAEXXZ ENDP		; std::locale::facet::_Register
_TEXT	ENDS
EXTRN	?_Getgloballocale@locale@std@@CAPAV_Locimp@12@XZ:PROC ; std::locale::_Getgloballocale
; Function compile flags: /Odtp /RTCsu
;	COMDAT ?_Getfacet@locale@std@@QBEPBVfacet@12@I@Z
_TEXT	SEGMENT
tv80 = -20						; size = 4
tv69 = -16						; size = 4
__Ptr$34268 = -12					; size = 4
__Facptr$ = -8						; size = 4
_this$ = -4						; size = 4
__Id$ = 8						; size = 4
?_Getfacet@locale@std@@QBEPBVfacet@12@I@Z PROC		; std::locale::_Getfacet, COMDAT
; _this$ = ecx

; 436  : 		{	// look up a facet in locale object

	push	ebp
	mov	ebp, esp
	sub	esp, 20					; 00000014H
	mov	eax, -858993460				; ccccccccH
	mov	DWORD PTR [ebp-20], eax
	mov	DWORD PTR [ebp-16], eax
	mov	DWORD PTR [ebp-12], eax
	mov	DWORD PTR [ebp-8], eax
	mov	DWORD PTR [ebp-4], eax
	mov	DWORD PTR _this$[ebp], ecx

; 437  : 		const facet *_Facptr = _Id < _Ptr->_Facetcount
; 438  : 			? _Ptr->_Facetvec[_Id] : 0;	// null if id off end

	mov	eax, DWORD PTR _this$[ebp]
	mov	ecx, DWORD PTR [eax]
	mov	edx, DWORD PTR __Id$[ebp]
	cmp	edx, DWORD PTR [ecx+12]
	jae	SHORT $LN6@Getfacet
	mov	eax, DWORD PTR _this$[ebp]
	mov	ecx, DWORD PTR [eax]
	mov	edx, DWORD PTR [ecx+8]
	mov	eax, DWORD PTR __Id$[ebp]
	mov	ecx, DWORD PTR [edx+eax*4]
	mov	DWORD PTR tv69[ebp], ecx
	jmp	SHORT $LN7@Getfacet
$LN6@Getfacet:
	mov	DWORD PTR tv69[ebp], 0
$LN7@Getfacet:
	mov	edx, DWORD PTR tv69[ebp]
	mov	DWORD PTR __Facptr$[ebp], edx

; 439  : 		if (_Facptr != 0 || !_Ptr->_Xparent)

	cmp	DWORD PTR __Facptr$[ebp], 0
	jne	SHORT $LN2@Getfacet
	mov	eax, DWORD PTR _this$[ebp]
	mov	ecx, DWORD PTR [eax]
	movzx	edx, BYTE PTR [ecx+20]
	test	edx, edx
	jne	SHORT $LN3@Getfacet
$LN2@Getfacet:

; 440  : 			return (_Facptr);	// found facet or not transparent

	mov	eax, DWORD PTR __Facptr$[ebp]
	jmp	SHORT $LN4@Getfacet

; 441  : 		else

	jmp	SHORT $LN4@Getfacet
$LN3@Getfacet:

; 442  : 			{	// look in current locale
; 443  : 			locale::_Locimp *_Ptr = _Getgloballocale();

	call	?_Getgloballocale@locale@std@@CAPAV_Locimp@12@XZ ; std::locale::_Getgloballocale
	mov	DWORD PTR __Ptr$34268[ebp], eax

; 444  : 			return (_Id < _Ptr->_Facetcount
; 445  : 				? _Ptr->_Facetvec[_Id]	// get from current locale
; 446  : 				: 0);	// no entry in current locale

	mov	eax, DWORD PTR __Ptr$34268[ebp]
	mov	ecx, DWORD PTR __Id$[ebp]
	cmp	ecx, DWORD PTR [eax+12]
	jae	SHORT $LN8@Getfacet
	mov	edx, DWORD PTR __Ptr$34268[ebp]
	mov	eax, DWORD PTR [edx+8]
	mov	ecx, DWORD PTR __Id$[ebp]
	mov	edx, DWORD PTR [eax+ecx*4]
	mov	DWORD PTR tv80[ebp], edx
	jmp	SHORT $LN9@Getfacet
$LN8@Getfacet:
	mov	DWORD PTR tv80[ebp], 0
$LN9@Getfacet:
	mov	eax, DWORD PTR tv80[ebp]
$LN4@Getfacet:

; 447  : 			}
; 448  : 		}

	add	esp, 20					; 00000014H
	cmp	ebp, esp
	call	__RTC_CheckEsp
	mov	esp, ebp
	pop	ebp
	ret	4
?_Getfacet@locale@std@@QBEPBVfacet@12@I@Z ENDP		; std::locale::_Getfacet
_TEXT	ENDS
PUBLIC	??$?8DD@std@@YA_NABV?$allocator@D@0@0@Z		; std::operator==<char,char>
; Function compile flags: /Odtp /RTCsu
; File c:\program files (x86)\microsoft visual studio 10.0\vc\include\xmemory
;	COMDAT ??$?9DD@std@@YA_NABV?$allocator@D@0@0@Z
_TEXT	SEGMENT
__Left$ = 8						; size = 4
__Right$ = 12						; size = 4
??$?9DD@std@@YA_NABV?$allocator@D@0@0@Z PROC		; std::operator!=<char,char>, COMDAT

; 270  : 	{	// test for allocator inequality

	push	ebp
	mov	ebp, esp

; 271  : 	return (!(_Left == _Right));

	mov	eax, DWORD PTR __Right$[ebp]
	push	eax
	mov	ecx, DWORD PTR __Left$[ebp]
	push	ecx
	call	??$?8DD@std@@YA_NABV?$allocator@D@0@0@Z	; std::operator==<char,char>
	add	esp, 8
	movzx	eax, al
	neg	eax
	sbb	eax, eax
	add	eax, 1

; 272  : 	}

	cmp	ebp, esp
	call	__RTC_CheckEsp
	pop	ebp
	ret	0
??$?9DD@std@@YA_NABV?$allocator@D@0@0@Z ENDP		; std::operator!=<char,char>
; Function compile flags: /Odtp /RTCsu
_TEXT	ENDS
;	COMDAT ??$?0D@?$allocator@U_Container_proxy@std@@@std@@QAE@ABV?$allocator@D@1@@Z
_TEXT	SEGMENT
_this$ = -4						; size = 4
___formal$ = 8						; size = 4
??$?0D@?$allocator@U_Container_proxy@std@@@std@@QAE@ABV?$allocator@D@1@@Z PROC ; std::allocator<std::_Container_proxy>::allocator<std::_Container_proxy><char>, COMDAT
; _this$ = ecx

; 170  : 		_ALLOCATOR(const _ALLOCATOR<_Other>&) _THROW0()

	push	ebp
	mov	ebp, esp
	push	ecx
	mov	DWORD PTR [ebp-4], -858993460		; ccccccccH
	mov	DWORD PTR _this$[ebp], ecx

; 171  : 		{	// construct from a related allocator (do nothing)
; 172  : 		}

	mov	eax, DWORD PTR _this$[ebp]
	mov	esp, ebp
	pop	ebp
	ret	4
??$?0D@?$allocator@U_Container_proxy@std@@@std@@QAE@ABV?$allocator@D@1@@Z ENDP ; std::allocator<std::_Container_proxy>::allocator<std::_Container_proxy><char>
_TEXT	ENDS
PUBLIC	?construct@?$allocator@U_Container_proxy@std@@@std@@QAEXPAU_Container_proxy@2@$$QAU32@@Z ; std::allocator<std::_Container_proxy>::construct
PUBLIC	??$forward@U_Container_proxy@std@@@std@@YA$$QAU_Container_proxy@0@AAU10@@Z ; std::forward<std::_Container_proxy>
; Function compile flags: /Odtp /RTCsu
;	COMDAT ??$_Cons_val@V?$allocator@U_Container_proxy@std@@@std@@U_Container_proxy@2@U32@@std@@YAXAAV?$allocator@U_Container_proxy@std@@@0@PAU_Container_proxy@0@$$QAU20@@Z
_TEXT	SEGMENT
__Alval$ = 8						; size = 4
__Pdest$ = 12						; size = 4
__Src$ = 16						; size = 4
??$_Cons_val@V?$allocator@U_Container_proxy@std@@@std@@U_Container_proxy@2@U32@@std@@YAXAAV?$allocator@U_Container_proxy@std@@@0@PAU_Container_proxy@0@$$QAU20@@Z PROC ; std::_Cons_val<std::allocator<std::_Container_proxy>,std::_Container_proxy,std::_Container_proxy>, COMDAT

; 279  : 	{	// construct using allocator

	push	ebp
	mov	ebp, esp

; 280  : 	_Alval.construct(_Pdest, _STD forward<_Ty2>(_Src));

	mov	eax, DWORD PTR __Src$[ebp]
	push	eax
	call	??$forward@U_Container_proxy@std@@@std@@YA$$QAU_Container_proxy@0@AAU10@@Z ; std::forward<std::_Container_proxy>
	add	esp, 4
	push	eax
	mov	ecx, DWORD PTR __Pdest$[ebp]
	push	ecx
	mov	ecx, DWORD PTR __Alval$[ebp]
	call	?construct@?$allocator@U_Container_proxy@std@@@std@@QAEXPAU_Container_proxy@2@$$QAU32@@Z ; std::allocator<std::_Container_proxy>::construct

; 281  : 	}

	cmp	ebp, esp
	call	__RTC_CheckEsp
	pop	ebp
	ret	0
??$_Cons_val@V?$allocator@U_Container_proxy@std@@@std@@U_Container_proxy@2@U32@@std@@YAXAAV?$allocator@U_Container_proxy@std@@@0@PAU_Container_proxy@0@$$QAU20@@Z ENDP ; std::_Cons_val<std::allocator<std::_Container_proxy>,std::_Container_proxy,std::_Container_proxy>
_TEXT	ENDS
PUBLIC	?destroy@?$allocator@U_Container_proxy@std@@@std@@QAEXPAU_Container_proxy@2@@Z ; std::allocator<std::_Container_proxy>::destroy
; Function compile flags: /Odtp /RTCsu
;	COMDAT ??$_Dest_val@V?$allocator@U_Container_proxy@std@@@std@@U_Container_proxy@2@@std@@YAXAAV?$allocator@U_Container_proxy@std@@@0@PAU_Container_proxy@0@@Z
_TEXT	SEGMENT
__Alval$ = 8						; size = 4
__Pdest$ = 12						; size = 4
??$_Dest_val@V?$allocator@U_Container_proxy@std@@@std@@U_Container_proxy@2@@std@@YAXAAV?$allocator@U_Container_proxy@std@@@0@PAU_Container_proxy@0@@Z PROC ; std::_Dest_val<std::allocator<std::_Container_proxy>,std::_Container_proxy>, COMDAT

; 286  : 	{	// destroy using allocator

	push	ebp
	mov	ebp, esp

; 287  : 	_Alval.destroy(_Pdest);

	mov	eax, DWORD PTR __Pdest$[ebp]
	push	eax
	mov	ecx, DWORD PTR __Alval$[ebp]
	call	?destroy@?$allocator@U_Container_proxy@std@@@std@@QAEXPAU_Container_proxy@2@@Z ; std::allocator<std::_Container_proxy>::destroy

; 288  : 	}

	cmp	ebp, esp
	call	__RTC_CheckEsp
	pop	ebp
	ret	0
??$_Dest_val@V?$allocator@U_Container_proxy@std@@@std@@U_Container_proxy@2@@std@@YAXAAV?$allocator@U_Container_proxy@std@@@0@PAU_Container_proxy@0@@Z ENDP ; std::_Dest_val<std::allocator<std::_Container_proxy>,std::_Container_proxy>
_TEXT	ENDS
PUBLIC	__TI2?AVbad_alloc@std@@
PUBLIC	??0bad_alloc@std@@QAE@PBD@Z			; std::bad_alloc::bad_alloc
PUBLIC	??1bad_alloc@std@@UAE@XZ			; std::bad_alloc::~bad_alloc
PUBLIC	__CTA2?AVbad_alloc@std@@
PUBLIC	__CT??_R0?AVbad_alloc@std@@@8??0bad_alloc@std@@QAE@ABV01@@Z12
PUBLIC	??_R0?AVbad_alloc@std@@@8			; std::bad_alloc `RTTI Type Descriptor'
PUBLIC	??0bad_alloc@std@@QAE@ABV01@@Z			; std::bad_alloc::bad_alloc
EXTRN	??2@YAPAXI@Z:PROC				; operator new
;	COMDAT ??_R0?AVbad_alloc@std@@@8
_DATA	SEGMENT
??_R0?AVbad_alloc@std@@@8 DD FLAT:??_7type_info@@6B@	; std::bad_alloc `RTTI Type Descriptor'
	DD	00H
	DB	'.?AVbad_alloc@std@@', 00H
_DATA	ENDS
;	COMDAT __CT??_R0?AVbad_alloc@std@@@8??0bad_alloc@std@@QAE@ABV01@@Z12
xdata$x	SEGMENT
__CT??_R0?AVbad_alloc@std@@@8??0bad_alloc@std@@QAE@ABV01@@Z12 DD 00H
	DD	FLAT:??_R0?AVbad_alloc@std@@@8
	DD	00H
	DD	0ffffffffH
	ORG $+4
	DD	0cH
	DD	FLAT:??0bad_alloc@std@@QAE@ABV01@@Z
xdata$x	ENDS
;	COMDAT __CTA2?AVbad_alloc@std@@
xdata$x	SEGMENT
__CTA2?AVbad_alloc@std@@ DD 02H
	DD	FLAT:__CT??_R0?AVbad_alloc@std@@@8??0bad_alloc@std@@QAE@ABV01@@Z12
	DD	FLAT:__CT??_R0?AVexception@std@@@8??0exception@std@@QAE@ABV01@@Z12
xdata$x	ENDS
;	COMDAT __TI2?AVbad_alloc@std@@
xdata$x	SEGMENT
__TI2?AVbad_alloc@std@@ DD 00H
	DD	FLAT:??1bad_alloc@std@@UAE@XZ
	DD	00H
	DD	FLAT:__CTA2?AVbad_alloc@std@@
; Function compile flags: /Odtp /RTCsu
xdata$x	ENDS
;	COMDAT ??$_Allocate@U_Container_proxy@std@@@std@@YAPAU_Container_proxy@0@IPAU10@@Z
_TEXT	SEGMENT
$T147330 = -16						; size = 12
__Ptr$ = -4						; size = 4
__Count$ = 8						; size = 4
___formal$ = 12						; size = 4
??$_Allocate@U_Container_proxy@std@@@std@@YAPAU_Container_proxy@0@IPAU10@@Z PROC ; std::_Allocate<std::_Container_proxy>, COMDAT

; 30   : 	{	// allocate storage for _Count elements of type _Ty

	push	ebp
	mov	ebp, esp
	sub	esp, 16					; 00000010H
	mov	eax, -858993460				; ccccccccH
	mov	DWORD PTR [ebp-16], eax
	mov	DWORD PTR [ebp-12], eax
	mov	DWORD PTR [ebp-8], eax
	mov	DWORD PTR [ebp-4], eax

; 31   : 	void *_Ptr = 0;

	mov	DWORD PTR __Ptr$[ebp], 0

; 32   : 
; 33   : 	if (_Count <= 0)

	cmp	DWORD PTR __Count$[ebp], 0
	ja	SHORT $LN4@Allocate

; 34   : 		_Count = 0;

	mov	DWORD PTR __Count$[ebp], 0

; 35   : 	else if (((_SIZT)(-1) / sizeof (_Ty) < _Count)

	jmp	SHORT $LN3@Allocate
$LN4@Allocate:

; 36   : 		|| (_Ptr = ::operator new(_Count * sizeof (_Ty))) == 0)

	cmp	DWORD PTR __Count$[ebp], 536870911	; 1fffffffH
	ja	SHORT $LN1@Allocate
	mov	eax, DWORD PTR __Count$[ebp]
	shl	eax, 3
	push	eax
	call	??2@YAPAXI@Z				; operator new
	add	esp, 4
	mov	DWORD PTR __Ptr$[ebp], eax
	cmp	DWORD PTR __Ptr$[ebp], 0
	jne	SHORT $LN3@Allocate
$LN1@Allocate:

; 37   : 		_THROW_NCEE(bad_alloc, 0);

	push	0
	lea	ecx, DWORD PTR $T147330[ebp]
	call	??0bad_alloc@std@@QAE@PBD@Z		; std::bad_alloc::bad_alloc
	push	OFFSET __TI2?AVbad_alloc@std@@
	lea	ecx, DWORD PTR $T147330[ebp]
	push	ecx
	call	__CxxThrowException@8
$LN3@Allocate:

; 38   : 
; 39   : 	return ((_Ty _FARQ *)_Ptr);

	mov	eax, DWORD PTR __Ptr$[ebp]
$LN6@Allocate:

; 40   : 	}

	add	esp, 16					; 00000010H
	cmp	ebp, esp
	call	__RTC_CheckEsp
	mov	esp, ebp
	pop	ebp
	ret	0
??$_Allocate@U_Container_proxy@std@@@std@@YAPAU_Container_proxy@0@IPAU10@@Z ENDP ; std::_Allocate<std::_Container_proxy>
_TEXT	ENDS
PUBLIC	??_7bad_alloc@std@@6B@				; std::bad_alloc::`vftable'
PUBLIC	??_R4bad_alloc@std@@6B@				; std::bad_alloc::`RTTI Complete Object Locator'
PUBLIC	??_R3bad_alloc@std@@8				; std::bad_alloc::`RTTI Class Hierarchy Descriptor'
PUBLIC	??_R2bad_alloc@std@@8				; std::bad_alloc::`RTTI Base Class Array'
PUBLIC	??_R1A@?0A@EA@bad_alloc@std@@8			; std::bad_alloc::`RTTI Base Class Descriptor at (0,-1,0,64)'
EXTRN	??_Ebad_alloc@std@@UAEPAXI@Z:PROC		; std::bad_alloc::`vector deleting destructor'
;	COMDAT ??_R1A@?0A@EA@bad_alloc@std@@8
; File c:\program files (x86)\microsoft visual studio 10.0\vc\include\exception
rdata$r	SEGMENT
??_R1A@?0A@EA@bad_alloc@std@@8 DD FLAT:??_R0?AVbad_alloc@std@@@8 ; std::bad_alloc::`RTTI Base Class Descriptor at (0,-1,0,64)'
	DD	01H
	DD	00H
	DD	0ffffffffH
	DD	00H
	DD	040H
	DD	FLAT:??_R3bad_alloc@std@@8
rdata$r	ENDS
;	COMDAT ??_R2bad_alloc@std@@8
rdata$r	SEGMENT
??_R2bad_alloc@std@@8 DD FLAT:??_R1A@?0A@EA@bad_alloc@std@@8 ; std::bad_alloc::`RTTI Base Class Array'
	DD	FLAT:??_R1A@?0A@EA@exception@std@@8
rdata$r	ENDS
;	COMDAT ??_R3bad_alloc@std@@8
rdata$r	SEGMENT
??_R3bad_alloc@std@@8 DD 00H				; std::bad_alloc::`RTTI Class Hierarchy Descriptor'
	DD	00H
	DD	02H
	DD	FLAT:??_R2bad_alloc@std@@8
rdata$r	ENDS
;	COMDAT ??_R4bad_alloc@std@@6B@
rdata$r	SEGMENT
??_R4bad_alloc@std@@6B@ DD 00H				; std::bad_alloc::`RTTI Complete Object Locator'
	DD	00H
	DD	00H
	DD	FLAT:??_R0?AVbad_alloc@std@@@8
	DD	FLAT:??_R3bad_alloc@std@@8
rdata$r	ENDS
;	COMDAT ??_7bad_alloc@std@@6B@
CONST	SEGMENT
??_7bad_alloc@std@@6B@ DD FLAT:??_R4bad_alloc@std@@6B@	; std::bad_alloc::`vftable'
	DD	FLAT:??_Ebad_alloc@std@@UAEPAXI@Z
	DD	FLAT:?what@exception@std@@UBEPBDXZ
; Function compile flags: /Odtp /RTCsu
CONST	ENDS
;	COMDAT ??0bad_alloc@std@@QAE@PBD@Z
_TEXT	SEGMENT
_this$ = -4						; size = 4
__Message$ = 8						; size = 4
??0bad_alloc@std@@QAE@PBD@Z PROC			; std::bad_alloc::bad_alloc, COMDAT
; _this$ = ecx

; 345  : 		{	// construct from message string

	push	ebp
	mov	ebp, esp
	push	ecx
	mov	DWORD PTR [ebp-4], -858993460		; ccccccccH
	mov	DWORD PTR _this$[ebp], ecx
	lea	eax, DWORD PTR __Message$[ebp]
	push	eax
	mov	ecx, DWORD PTR _this$[ebp]
	call	??0exception@std@@QAE@ABQBD@Z		; std::exception::exception
	mov	ecx, DWORD PTR _this$[ebp]
	mov	DWORD PTR [ecx], OFFSET ??_7bad_alloc@std@@6B@

; 346  : 		}

	mov	eax, DWORD PTR _this$[ebp]
	add	esp, 4
	cmp	ebp, esp
	call	__RTC_CheckEsp
	mov	esp, ebp
	pop	ebp
	ret	4
??0bad_alloc@std@@QAE@PBD@Z ENDP			; std::bad_alloc::bad_alloc
; Function compile flags: /Odtp /RTCsu
_TEXT	ENDS
;	COMDAT ??1bad_alloc@std@@UAE@XZ
_TEXT	SEGMENT
_this$ = -4						; size = 4
??1bad_alloc@std@@UAE@XZ PROC				; std::bad_alloc::~bad_alloc, COMDAT
; _this$ = ecx

; 354  : 		{	// destroy the object

	push	ebp
	mov	ebp, esp
	push	ecx
	mov	DWORD PTR [ebp-4], -858993460		; ccccccccH
	mov	DWORD PTR _this$[ebp], ecx
	mov	eax, DWORD PTR _this$[ebp]
	mov	DWORD PTR [eax], OFFSET ??_7bad_alloc@std@@6B@

; 355  : 		}

	mov	ecx, DWORD PTR _this$[ebp]
	call	??1exception@std@@UAE@XZ		; std::exception::~exception
	add	esp, 4
	cmp	ebp, esp
	call	__RTC_CheckEsp
	mov	esp, ebp
	pop	ebp
	ret	0
??1bad_alloc@std@@UAE@XZ ENDP				; std::bad_alloc::~bad_alloc
; Function compile flags: /Odtp /RTCsu
_TEXT	ENDS
;	COMDAT ??_Gbad_alloc@std@@UAEPAXI@Z
_TEXT	SEGMENT
_this$ = -4						; size = 4
___flags$ = 8						; size = 4
??_Gbad_alloc@std@@UAEPAXI@Z PROC			; std::bad_alloc::`scalar deleting destructor', COMDAT
; _this$ = ecx
	push	ebp
	mov	ebp, esp
	push	ecx
	mov	DWORD PTR [ebp-4], -858993460		; ccccccccH
	mov	DWORD PTR _this$[ebp], ecx
	mov	ecx, DWORD PTR _this$[ebp]
	call	??1bad_alloc@std@@UAE@XZ		; std::bad_alloc::~bad_alloc
	mov	eax, DWORD PTR ___flags$[ebp]
	and	eax, 1
	je	SHORT $LN1@scalar@4
	mov	ecx, DWORD PTR _this$[ebp]
	push	ecx
	call	??3@YAXPAX@Z				; operator delete
	add	esp, 4
$LN1@scalar@4:
	mov	eax, DWORD PTR _this$[ebp]
	add	esp, 4
	cmp	ebp, esp
	call	__RTC_CheckEsp
	mov	esp, ebp
	pop	ebp
	ret	4
??_Gbad_alloc@std@@UAEPAXI@Z ENDP			; std::bad_alloc::`scalar deleting destructor'
; Function compile flags: /Odtp /RTCsu
; File c:\program files (x86)\microsoft visual studio 10.0\vc\include\xmemory
_TEXT	ENDS
;	COMDAT ??$_Allocate@D@std@@YAPADIPAD@Z
_TEXT	SEGMENT
$T147339 = -16						; size = 12
__Ptr$ = -4						; size = 4
__Count$ = 8						; size = 4
___formal$ = 12						; size = 4
??$_Allocate@D@std@@YAPADIPAD@Z PROC			; std::_Allocate<char>, COMDAT

; 30   : 	{	// allocate storage for _Count elements of type _Ty

	push	ebp
	mov	ebp, esp
	sub	esp, 16					; 00000010H
	mov	eax, -858993460				; ccccccccH
	mov	DWORD PTR [ebp-16], eax
	mov	DWORD PTR [ebp-12], eax
	mov	DWORD PTR [ebp-8], eax
	mov	DWORD PTR [ebp-4], eax

; 31   : 	void *_Ptr = 0;

	mov	DWORD PTR __Ptr$[ebp], 0

; 32   : 
; 33   : 	if (_Count <= 0)

	cmp	DWORD PTR __Count$[ebp], 0
	ja	SHORT $LN4@Allocate@2

; 34   : 		_Count = 0;

	mov	DWORD PTR __Count$[ebp], 0

; 35   : 	else if (((_SIZT)(-1) / sizeof (_Ty) < _Count)

	jmp	SHORT $LN3@Allocate@2
$LN4@Allocate@2:

; 36   : 		|| (_Ptr = ::operator new(_Count * sizeof (_Ty))) == 0)

	cmp	DWORD PTR __Count$[ebp], -1
	ja	SHORT $LN1@Allocate@2
	mov	eax, DWORD PTR __Count$[ebp]
	push	eax
	call	??2@YAPAXI@Z				; operator new
	add	esp, 4
	mov	DWORD PTR __Ptr$[ebp], eax
	cmp	DWORD PTR __Ptr$[ebp], 0
	jne	SHORT $LN3@Allocate@2
$LN1@Allocate@2:

; 37   : 		_THROW_NCEE(bad_alloc, 0);

	push	0
	lea	ecx, DWORD PTR $T147339[ebp]
	call	??0bad_alloc@std@@QAE@PBD@Z		; std::bad_alloc::bad_alloc
	push	OFFSET __TI2?AVbad_alloc@std@@
	lea	ecx, DWORD PTR $T147339[ebp]
	push	ecx
	call	__CxxThrowException@8
$LN3@Allocate@2:

; 38   : 
; 39   : 	return ((_Ty _FARQ *)_Ptr);

	mov	eax, DWORD PTR __Ptr$[ebp]
$LN6@Allocate@2:

; 40   : 	}

	add	esp, 16					; 00000010H
	cmp	ebp, esp
	call	__RTC_CheckEsp
	mov	esp, ebp
	pop	ebp
	ret	0
??$_Allocate@D@std@@YAPADIPAD@Z ENDP			; std::_Allocate<char>
_TEXT	ENDS
PUBLIC	??1?$basic_ios@DU?$char_traits@D@std@@@std@@UAE@XZ ; std::basic_ios<char,std::char_traits<char> >::~basic_ios<char,std::char_traits<char> >
PUBLIC	??1?$basic_ostringstream@DU?$char_traits@D@std@@V?$allocator@D@2@@std@@UAE@XZ ; std::basic_ostringstream<char,std::char_traits<char>,std::allocator<char> >::~basic_ostringstream<char,std::char_traits<char>,std::allocator<char> >
; Function compile flags: /Odtp /RTCsu
;	COMDAT ??_D?$basic_ostringstream@DU?$char_traits@D@std@@V?$allocator@D@2@@std@@QAEXXZ
_TEXT	SEGMENT
_this$ = -4						; size = 4
??_D?$basic_ostringstream@DU?$char_traits@D@std@@V?$allocator@D@2@@std@@QAEXXZ PROC ; std::basic_ostringstream<char,std::char_traits<char>,std::allocator<char> >::`vbase destructor', COMDAT
; _this$ = ecx
	push	ebp
	mov	ebp, esp
	push	ecx
	mov	DWORD PTR [ebp-4], -858993460		; ccccccccH
	mov	DWORD PTR _this$[ebp], ecx
	mov	ecx, DWORD PTR _this$[ebp]
	add	ecx, 80					; 00000050H
	call	??1?$basic_ostringstream@DU?$char_traits@D@std@@V?$allocator@D@2@@std@@UAE@XZ ; std::basic_ostringstream<char,std::char_traits<char>,std::allocator<char> >::~basic_ostringstream<char,std::char_traits<char>,std::allocator<char> >
	mov	ecx, DWORD PTR _this$[ebp]
	add	ecx, 80					; 00000050H
	call	??1?$basic_ios@DU?$char_traits@D@std@@@std@@UAE@XZ ; std::basic_ios<char,std::char_traits<char> >::~basic_ios<char,std::char_traits<char> >
	add	esp, 4
	cmp	ebp, esp
	call	__RTC_CheckEsp
	mov	esp, ebp
	pop	ebp
	ret	0
??_D?$basic_ostringstream@DU?$char_traits@D@std@@V?$allocator@D@2@@std@@QAEXXZ ENDP ; std::basic_ostringstream<char,std::char_traits<char>,std::allocator<char> >::`vbase destructor'
_TEXT	ENDS
PUBLIC	??1ios_base@std@@UAE@XZ				; std::ios_base::~ios_base
PUBLIC	??_7?$basic_ios@DU?$char_traits@D@std@@@std@@6B@ ; std::basic_ios<char,std::char_traits<char> >::`vftable'
PUBLIC	??_R4?$basic_ios@DU?$char_traits@D@std@@@std@@6B@ ; std::basic_ios<char,std::char_traits<char> >::`RTTI Complete Object Locator'
PUBLIC	??_R0?AV?$basic_ios@DU?$char_traits@D@std@@@std@@@8 ; std::basic_ios<char,std::char_traits<char> > `RTTI Type Descriptor'
PUBLIC	??_R3?$basic_ios@DU?$char_traits@D@std@@@std@@8	; std::basic_ios<char,std::char_traits<char> >::`RTTI Class Hierarchy Descriptor'
PUBLIC	??_R2?$basic_ios@DU?$char_traits@D@std@@@std@@8	; std::basic_ios<char,std::char_traits<char> >::`RTTI Base Class Array'
PUBLIC	??_R1A@?0A@EA@?$basic_ios@DU?$char_traits@D@std@@@std@@8 ; std::basic_ios<char,std::char_traits<char> >::`RTTI Base Class Descriptor at (0,-1,0,64)'
PUBLIC	??_R1A@?0A@EA@ios_base@std@@8			; std::ios_base::`RTTI Base Class Descriptor at (0,-1,0,64)'
PUBLIC	??_R0?AVios_base@std@@@8			; std::ios_base `RTTI Type Descriptor'
PUBLIC	??_R3ios_base@std@@8				; std::ios_base::`RTTI Class Hierarchy Descriptor'
PUBLIC	??_R2ios_base@std@@8				; std::ios_base::`RTTI Base Class Array'
PUBLIC	??_R17?0A@EA@?$_Iosb@H@std@@8			; std::_Iosb<int>::`RTTI Base Class Descriptor at (8,-1,0,64)'
PUBLIC	??_R0?AV?$_Iosb@H@std@@@8			; std::_Iosb<int> `RTTI Type Descriptor'
PUBLIC	??_R3?$_Iosb@H@std@@8				; std::_Iosb<int>::`RTTI Class Hierarchy Descriptor'
PUBLIC	??_R2?$_Iosb@H@std@@8				; std::_Iosb<int>::`RTTI Base Class Array'
PUBLIC	??_R1A@?0A@EA@?$_Iosb@H@std@@8			; std::_Iosb<int>::`RTTI Base Class Descriptor at (0,-1,0,64)'
EXTRN	??_E?$basic_ios@DU?$char_traits@D@std@@@std@@UAEPAXI@Z:PROC ; std::basic_ios<char,std::char_traits<char> >::`vector deleting destructor'
;	COMDAT ??_R1A@?0A@EA@?$_Iosb@H@std@@8
; File c:\program files (x86)\microsoft visual studio 10.0\vc\include\ios
rdata$r	SEGMENT
??_R1A@?0A@EA@?$_Iosb@H@std@@8 DD FLAT:??_R0?AV?$_Iosb@H@std@@@8 ; std::_Iosb<int>::`RTTI Base Class Descriptor at (0,-1,0,64)'
	DD	00H
	DD	00H
	DD	0ffffffffH
	DD	00H
	DD	040H
	DD	FLAT:??_R3?$_Iosb@H@std@@8
rdata$r	ENDS
;	COMDAT ??_R2?$_Iosb@H@std@@8
rdata$r	SEGMENT
??_R2?$_Iosb@H@std@@8 DD FLAT:??_R1A@?0A@EA@?$_Iosb@H@std@@8 ; std::_Iosb<int>::`RTTI Base Class Array'
rdata$r	ENDS
;	COMDAT ??_R3?$_Iosb@H@std@@8
rdata$r	SEGMENT
??_R3?$_Iosb@H@std@@8 DD 00H				; std::_Iosb<int>::`RTTI Class Hierarchy Descriptor'
	DD	00H
	DD	01H
	DD	FLAT:??_R2?$_Iosb@H@std@@8
rdata$r	ENDS
;	COMDAT ??_R0?AV?$_Iosb@H@std@@@8
_DATA	SEGMENT
??_R0?AV?$_Iosb@H@std@@@8 DD FLAT:??_7type_info@@6B@	; std::_Iosb<int> `RTTI Type Descriptor'
	DD	00H
	DB	'.?AV?$_Iosb@H@std@@', 00H
_DATA	ENDS
;	COMDAT ??_R17?0A@EA@?$_Iosb@H@std@@8
rdata$r	SEGMENT
??_R17?0A@EA@?$_Iosb@H@std@@8 DD FLAT:??_R0?AV?$_Iosb@H@std@@@8 ; std::_Iosb<int>::`RTTI Base Class Descriptor at (8,-1,0,64)'
	DD	00H
	DD	08H
	DD	0ffffffffH
	DD	00H
	DD	040H
	DD	FLAT:??_R3?$_Iosb@H@std@@8
rdata$r	ENDS
;	COMDAT ??_R2ios_base@std@@8
rdata$r	SEGMENT
??_R2ios_base@std@@8 DD FLAT:??_R1A@?0A@EA@ios_base@std@@8 ; std::ios_base::`RTTI Base Class Array'
	DD	FLAT:??_R17?0A@EA@?$_Iosb@H@std@@8
rdata$r	ENDS
;	COMDAT ??_R3ios_base@std@@8
rdata$r	SEGMENT
??_R3ios_base@std@@8 DD 00H				; std::ios_base::`RTTI Class Hierarchy Descriptor'
	DD	00H
	DD	02H
	DD	FLAT:??_R2ios_base@std@@8
rdata$r	ENDS
;	COMDAT ??_R0?AVios_base@std@@@8
_DATA	SEGMENT
??_R0?AVios_base@std@@@8 DD FLAT:??_7type_info@@6B@	; std::ios_base `RTTI Type Descriptor'
	DD	00H
	DB	'.?AVios_base@std@@', 00H
_DATA	ENDS
;	COMDAT ??_R1A@?0A@EA@ios_base@std@@8
rdata$r	SEGMENT
??_R1A@?0A@EA@ios_base@std@@8 DD FLAT:??_R0?AVios_base@std@@@8 ; std::ios_base::`RTTI Base Class Descriptor at (0,-1,0,64)'
	DD	01H
	DD	00H
	DD	0ffffffffH
	DD	00H
	DD	040H
	DD	FLAT:??_R3ios_base@std@@8
rdata$r	ENDS
;	COMDAT ??_R1A@?0A@EA@?$basic_ios@DU?$char_traits@D@std@@@std@@8
rdata$r	SEGMENT
??_R1A@?0A@EA@?$basic_ios@DU?$char_traits@D@std@@@std@@8 DD FLAT:??_R0?AV?$basic_ios@DU?$char_traits@D@std@@@std@@@8 ; std::basic_ios<char,std::char_traits<char> >::`RTTI Base Class Descriptor at (0,-1,0,64)'
	DD	02H
	DD	00H
	DD	0ffffffffH
	DD	00H
	DD	040H
	DD	FLAT:??_R3?$basic_ios@DU?$char_traits@D@std@@@std@@8
rdata$r	ENDS
;	COMDAT ??_R2?$basic_ios@DU?$char_traits@D@std@@@std@@8
rdata$r	SEGMENT
??_R2?$basic_ios@DU?$char_traits@D@std@@@std@@8 DD FLAT:??_R1A@?0A@EA@?$basic_ios@DU?$char_traits@D@std@@@std@@8 ; std::basic_ios<char,std::char_traits<char> >::`RTTI Base Class Array'
	DD	FLAT:??_R1A@?0A@EA@ios_base@std@@8
	DD	FLAT:??_R17?0A@EA@?$_Iosb@H@std@@8
rdata$r	ENDS
;	COMDAT ??_R3?$basic_ios@DU?$char_traits@D@std@@@std@@8
rdata$r	SEGMENT
??_R3?$basic_ios@DU?$char_traits@D@std@@@std@@8 DD 00H	; std::basic_ios<char,std::char_traits<char> >::`RTTI Class Hierarchy Descriptor'
	DD	00H
	DD	03H
	DD	FLAT:??_R2?$basic_ios@DU?$char_traits@D@std@@@std@@8
rdata$r	ENDS
;	COMDAT ??_R0?AV?$basic_ios@DU?$char_traits@D@std@@@std@@@8
_DATA	SEGMENT
??_R0?AV?$basic_ios@DU?$char_traits@D@std@@@std@@@8 DD FLAT:??_7type_info@@6B@ ; std::basic_ios<char,std::char_traits<char> > `RTTI Type Descriptor'
	DD	00H
	DB	'.?AV?$basic_ios@DU?$char_traits@D@std@@@std@@', 00H
_DATA	ENDS
;	COMDAT ??_R4?$basic_ios@DU?$char_traits@D@std@@@std@@6B@
rdata$r	SEGMENT
??_R4?$basic_ios@DU?$char_traits@D@std@@@std@@6B@ DD 00H ; std::basic_ios<char,std::char_traits<char> >::`RTTI Complete Object Locator'
	DD	00H
	DD	00H
	DD	FLAT:??_R0?AV?$basic_ios@DU?$char_traits@D@std@@@std@@@8
	DD	FLAT:??_R3?$basic_ios@DU?$char_traits@D@std@@@std@@8
rdata$r	ENDS
;	COMDAT ??_7?$basic_ios@DU?$char_traits@D@std@@@std@@6B@
CONST	SEGMENT
??_7?$basic_ios@DU?$char_traits@D@std@@@std@@6B@ DD FLAT:??_R4?$basic_ios@DU?$char_traits@D@std@@@std@@6B@ ; std::basic_ios<char,std::char_traits<char> >::`vftable'
	DD	FLAT:??_E?$basic_ios@DU?$char_traits@D@std@@@std@@UAEPAXI@Z
; Function compile flags: /Odtp /RTCsu
CONST	ENDS
;	COMDAT ??1?$basic_ios@DU?$char_traits@D@std@@@std@@UAE@XZ
_TEXT	SEGMENT
_this$ = -4						; size = 4
??1?$basic_ios@DU?$char_traits@D@std@@@std@@UAE@XZ PROC	; std::basic_ios<char,std::char_traits<char> >::~basic_ios<char,std::char_traits<char> >, COMDAT
; _this$ = ecx

; 37   : 		{	// destroy the object

	push	ebp
	mov	ebp, esp
	push	ecx
	mov	DWORD PTR [ebp-4], -858993460		; ccccccccH
	mov	DWORD PTR _this$[ebp], ecx
	mov	eax, DWORD PTR _this$[ebp]
	mov	DWORD PTR [eax], OFFSET ??_7?$basic_ios@DU?$char_traits@D@std@@@std@@6B@

; 38   : 		}

	mov	ecx, DWORD PTR _this$[ebp]
	call	??1ios_base@std@@UAE@XZ			; std::ios_base::~ios_base
	add	esp, 4
	cmp	ebp, esp
	call	__RTC_CheckEsp
	mov	esp, ebp
	pop	ebp
	ret	0
??1?$basic_ios@DU?$char_traits@D@std@@@std@@UAE@XZ ENDP	; std::basic_ios<char,std::char_traits<char> >::~basic_ios<char,std::char_traits<char> >
_TEXT	ENDS
PUBLIC	??_7ios_base@std@@6B@				; std::ios_base::`vftable'
PUBLIC	??_R4ios_base@std@@6B@				; std::ios_base::`RTTI Complete Object Locator'
EXTRN	?_Ios_base_dtor@ios_base@std@@CAXPAV12@@Z:PROC	; std::ios_base::_Ios_base_dtor
EXTRN	??_Eios_base@std@@UAEPAXI@Z:PROC		; std::ios_base::`vector deleting destructor'
;	COMDAT ??_R4ios_base@std@@6B@
; File c:\program files (x86)\microsoft visual studio 10.0\vc\include\xiosbase
rdata$r	SEGMENT
??_R4ios_base@std@@6B@ DD 00H				; std::ios_base::`RTTI Complete Object Locator'
	DD	00H
	DD	00H
	DD	FLAT:??_R0?AVios_base@std@@@8
	DD	FLAT:??_R3ios_base@std@@8
rdata$r	ENDS
;	COMDAT ??_7ios_base@std@@6B@
CONST	SEGMENT
??_7ios_base@std@@6B@ DD FLAT:??_R4ios_base@std@@6B@	; std::ios_base::`vftable'
	DD	FLAT:??_Eios_base@std@@UAEPAXI@Z
; Function compile flags: /Odtp /RTCsu
CONST	ENDS
;	COMDAT ??1ios_base@std@@UAE@XZ
_TEXT	SEGMENT
_this$ = -4						; size = 4
??1ios_base@std@@UAE@XZ PROC				; std::ios_base::~ios_base, COMDAT
; _this$ = ecx

; 540  : 		{	// destroy the object

	push	ebp
	mov	ebp, esp
	push	ecx
	mov	DWORD PTR [ebp-4], -858993460		; ccccccccH
	mov	DWORD PTR _this$[ebp], ecx
	mov	eax, DWORD PTR _this$[ebp]
	mov	DWORD PTR [eax], OFFSET ??_7ios_base@std@@6B@

; 541  : 		_Ios_base_dtor(this);

	mov	ecx, DWORD PTR _this$[ebp]
	push	ecx
	call	?_Ios_base_dtor@ios_base@std@@CAXPAV12@@Z ; std::ios_base::_Ios_base_dtor
	add	esp, 4

; 542  : 		}

	add	esp, 4
	cmp	ebp, esp
	call	__RTC_CheckEsp
	mov	esp, ebp
	pop	ebp
	ret	0
??1ios_base@std@@UAE@XZ ENDP				; std::ios_base::~ios_base
; Function compile flags: /Odtp /RTCsu
_TEXT	ENDS
;	COMDAT ??_Gios_base@std@@UAEPAXI@Z
_TEXT	SEGMENT
_this$ = -4						; size = 4
___flags$ = 8						; size = 4
??_Gios_base@std@@UAEPAXI@Z PROC			; std::ios_base::`scalar deleting destructor', COMDAT
; _this$ = ecx
	push	ebp
	mov	ebp, esp
	push	ecx
	mov	DWORD PTR [ebp-4], -858993460		; ccccccccH
	mov	DWORD PTR _this$[ebp], ecx
	mov	ecx, DWORD PTR _this$[ebp]
	call	??1ios_base@std@@UAE@XZ			; std::ios_base::~ios_base
	mov	eax, DWORD PTR ___flags$[ebp]
	and	eax, 1
	je	SHORT $LN1@scalar@5
	mov	ecx, DWORD PTR _this$[ebp]
	push	ecx
	call	??3@YAXPAX@Z				; operator delete
	add	esp, 4
$LN1@scalar@5:
	mov	eax, DWORD PTR _this$[ebp]
	add	esp, 4
	cmp	ebp, esp
	call	__RTC_CheckEsp
	mov	esp, ebp
	pop	ebp
	ret	4
??_Gios_base@std@@UAEPAXI@Z ENDP			; std::ios_base::`scalar deleting destructor'
; Function compile flags: /Odtp /RTCsu
_TEXT	ENDS
;	COMDAT ??_G?$basic_ios@DU?$char_traits@D@std@@@std@@UAEPAXI@Z
_TEXT	SEGMENT
_this$ = -4						; size = 4
___flags$ = 8						; size = 4
??_G?$basic_ios@DU?$char_traits@D@std@@@std@@UAEPAXI@Z PROC ; std::basic_ios<char,std::char_traits<char> >::`scalar deleting destructor', COMDAT
; _this$ = ecx
	push	ebp
	mov	ebp, esp
	push	ecx
	mov	DWORD PTR [ebp-4], -858993460		; ccccccccH
	mov	DWORD PTR _this$[ebp], ecx
	mov	ecx, DWORD PTR _this$[ebp]
	call	??1?$basic_ios@DU?$char_traits@D@std@@@std@@UAE@XZ ; std::basic_ios<char,std::char_traits<char> >::~basic_ios<char,std::char_traits<char> >
	mov	eax, DWORD PTR ___flags$[ebp]
	and	eax, 1
	je	SHORT $LN1@scalar@6
	mov	ecx, DWORD PTR _this$[ebp]
	push	ecx
	call	??3@YAXPAX@Z				; operator delete
	add	esp, 4
$LN1@scalar@6:
	mov	eax, DWORD PTR _this$[ebp]
	add	esp, 4
	cmp	ebp, esp
	call	__RTC_CheckEsp
	mov	esp, ebp
	pop	ebp
	ret	4
??_G?$basic_ios@DU?$char_traits@D@std@@@std@@UAEPAXI@Z ENDP ; std::basic_ios<char,std::char_traits<char> >::`scalar deleting destructor'
; Function compile flags: /Odtp /RTCsu
_TEXT	ENDS
;	COMDAT ??0bad_alloc@std@@QAE@ABV01@@Z
_TEXT	SEGMENT
_this$ = -4						; size = 4
___that$ = 8						; size = 4
??0bad_alloc@std@@QAE@ABV01@@Z PROC			; std::bad_alloc::bad_alloc, COMDAT
; _this$ = ecx
	push	ebp
	mov	ebp, esp
	push	ecx
	mov	DWORD PTR [ebp-4], -858993460		; ccccccccH
	mov	DWORD PTR _this$[ebp], ecx
	mov	eax, DWORD PTR ___that$[ebp]
	push	eax
	mov	ecx, DWORD PTR _this$[ebp]
	call	??0exception@std@@QAE@ABV01@@Z		; std::exception::exception
	mov	ecx, DWORD PTR _this$[ebp]
	mov	DWORD PTR [ecx], OFFSET ??_7bad_alloc@std@@6B@
	mov	eax, DWORD PTR _this$[ebp]
	add	esp, 4
	cmp	ebp, esp
	call	__RTC_CheckEsp
	mov	esp, ebp
	pop	ebp
	ret	4
??0bad_alloc@std@@QAE@ABV01@@Z ENDP			; std::bad_alloc::bad_alloc
_TEXT	ENDS
PUBLIC	?insert@?$basic_string@DU?$char_traits@D@std@@V?$allocator@D@2@@std@@QAEAAV12@IABV12@II@Z ; std::basic_string<char,std::char_traits<char>,std::allocator<char> >::insert
; Function compile flags: /Odtp /RTCsu
; File c:\program files (x86)\microsoft visual studio 10.0\vc\include\xstring
;	COMDAT ?insert@?$basic_string@DU?$char_traits@D@std@@V?$allocator@D@2@@std@@QAEAAV12@IABV12@@Z
_TEXT	SEGMENT
_this$ = -4						; size = 4
__Off$ = 8						; size = 4
__Right$ = 12						; size = 4
?insert@?$basic_string@DU?$char_traits@D@std@@V?$allocator@D@2@@std@@QAEAAV12@IABV12@@Z PROC ; std::basic_string<char,std::char_traits<char>,std::allocator<char> >::insert, COMDAT
; _this$ = ecx

; 975  : 		{	// insert _Right at _Off

	push	ebp
	mov	ebp, esp
	push	ecx
	mov	DWORD PTR [ebp-4], -858993460		; ccccccccH
	mov	DWORD PTR _this$[ebp], ecx

; 976  : 		return (insert(_Off, _Right, 0, npos));

	push	-1
	push	0
	mov	eax, DWORD PTR __Right$[ebp]
	push	eax
	mov	ecx, DWORD PTR __Off$[ebp]
	push	ecx
	mov	ecx, DWORD PTR _this$[ebp]
	call	?insert@?$basic_string@DU?$char_traits@D@std@@V?$allocator@D@2@@std@@QAEAAV12@IABV12@II@Z ; std::basic_string<char,std::char_traits<char>,std::allocator<char> >::insert

; 977  : 		}

	add	esp, 4
	cmp	ebp, esp
	call	__RTC_CheckEsp
	mov	esp, ebp
	pop	ebp
	ret	8
?insert@?$basic_string@DU?$char_traits@D@std@@V?$allocator@D@2@@std@@QAEAAV12@IABV12@@Z ENDP ; std::basic_string<char,std::char_traits<char>,std::allocator<char> >::insert
_TEXT	ENDS
PUBLIC	??$_Debug_pointer@$$A6AAAVios_base@std@@AAV12@@Z@std@@YAXP6AAAVios_base@0@AAV10@@ZPB_WI@Z ; std::_Debug_pointer<std::ios_base & __cdecl(std::ios_base &)>
PUBLIC	??_C@_1IO@ILFCAKEO@?$AAc?$AA?3?$AA?2?$AAP?$AAr?$AAo?$AAg?$AAr?$AAa?$AAm?$AA?5?$AAF?$AAi?$AAl?$AAe?$AAs?$AA?5?$AA?$CI?$AAx?$AA8?$AA6?$AA?$CJ?$AA?2?$AAM?$AAi?$AAc?$AAr?$AAo?$AAs?$AAo?$AAf?$AAt@ ; `string'
;	COMDAT ??_C@_1IO@ILFCAKEO@?$AAc?$AA?3?$AA?2?$AAP?$AAr?$AAo?$AAg?$AAr?$AAa?$AAm?$AA?5?$AAF?$AAi?$AAl?$AAe?$AAs?$AA?5?$AA?$CI?$AAx?$AA8?$AA6?$AA?$CJ?$AA?2?$AAM?$AAi?$AAc?$AAr?$AAo?$AAs?$AAo?$AAf?$AAt@
; File c:\program files (x86)\microsoft visual studio 10.0\vc\include\ostream
CONST	SEGMENT
??_C@_1IO@ILFCAKEO@?$AAc?$AA?3?$AA?2?$AAP?$AAr?$AAo?$AAg?$AAr?$AAa?$AAm?$AA?5?$AAF?$AAi?$AAl?$AAe?$AAs?$AA?5?$AA?$CI?$AAx?$AA8?$AA6?$AA?$CJ?$AA?2?$AAM?$AAi?$AAc?$AAr?$AAo?$AAs?$AAo?$AAf?$AAt@ DB 'c'
	DB	00H, ':', 00H, '\', 00H, 'P', 00H, 'r', 00H, 'o', 00H, 'g', 00H
	DB	'r', 00H, 'a', 00H, 'm', 00H, ' ', 00H, 'F', 00H, 'i', 00H, 'l'
	DB	00H, 'e', 00H, 's', 00H, ' ', 00H, '(', 00H, 'x', 00H, '8', 00H
	DB	'6', 00H, ')', 00H, '\', 00H, 'M', 00H, 'i', 00H, 'c', 00H, 'r'
	DB	00H, 'o', 00H, 's', 00H, 'o', 00H, 'f', 00H, 't', 00H, ' ', 00H
	DB	'V', 00H, 'i', 00H, 's', 00H, 'u', 00H, 'a', 00H, 'l', 00H, ' '
	DB	00H, 'S', 00H, 't', 00H, 'u', 00H, 'd', 00H, 'i', 00H, 'o', 00H
	DB	' ', 00H, '1', 00H, '0', 00H, '.', 00H, '0', 00H, '\', 00H, 'V'
	DB	00H, 'C', 00H, '\', 00H, 'i', 00H, 'n', 00H, 'c', 00H, 'l', 00H
	DB	'u', 00H, 'd', 00H, 'e', 00H, '\', 00H, 'o', 00H, 's', 00H, 't'
	DB	00H, 'r', 00H, 'e', 00H, 'a', 00H, 'm', 00H, 00H, 00H ; `string'
; Function compile flags: /Odtp /RTCsu
CONST	ENDS
;	COMDAT ??6?$basic_ostream@DU?$char_traits@D@std@@@std@@QAEAAV01@P6AAAVios_base@1@AAV21@@Z@Z
_TEXT	SEGMENT
tv78 = -8						; size = 4
_this$ = -4						; size = 4
__Pfn$ = 8						; size = 4
??6?$basic_ostream@DU?$char_traits@D@std@@@std@@QAEAAV01@P6AAAVios_base@1@AAV21@@Z@Z PROC ; std::basic_ostream<char,std::char_traits<char> >::operator<<, COMDAT
; _this$ = ecx

; 200  : 		{	// call ios_base manipulator

	push	ebp
	mov	ebp, esp
	sub	esp, 8
	push	esi
	mov	DWORD PTR [ebp-8], -858993460		; ccccccccH
	mov	DWORD PTR [ebp-4], -858993460		; ccccccccH
	mov	DWORD PTR _this$[ebp], ecx

; 201  : 		_DEBUG_POINTER(_Pfn);

	push	201					; 000000c9H
	push	OFFSET ??_C@_1IO@ILFCAKEO@?$AAc?$AA?3?$AA?2?$AAP?$AAr?$AAo?$AAg?$AAr?$AAa?$AAm?$AA?5?$AAF?$AAi?$AAl?$AAe?$AAs?$AA?5?$AA?$CI?$AAx?$AA8?$AA6?$AA?$CJ?$AA?2?$AAM?$AAi?$AAc?$AAr?$AAo?$AAs?$AAo?$AAf?$AAt@
	mov	eax, DWORD PTR __Pfn$[ebp]
	push	eax
	call	??$_Debug_pointer@$$A6AAAVios_base@std@@AAV12@@Z@std@@YAXP6AAAVios_base@0@AAV10@@ZPB_WI@Z ; std::_Debug_pointer<std::ios_base & __cdecl(std::ios_base &)>
	add	esp, 12					; 0000000cH

; 202  : 		(*_Pfn)(*(ios_base *)this);

	cmp	DWORD PTR _this$[ebp], 0
	jne	SHORT $LN3@operator@3
	mov	DWORD PTR tv78[ebp], 0
	jmp	SHORT $LN4@operator@3
$LN3@operator@3:
	mov	ecx, DWORD PTR _this$[ebp]
	mov	edx, DWORD PTR [ecx]
	mov	eax, DWORD PTR _this$[ebp]
	add	eax, DWORD PTR [edx+4]
	mov	DWORD PTR tv78[ebp], eax
$LN4@operator@3:
	mov	esi, esp
	mov	ecx, DWORD PTR tv78[ebp]
	push	ecx
	call	DWORD PTR __Pfn$[ebp]
	add	esp, 4
	cmp	esi, esp
	call	__RTC_CheckEsp

; 203  : 		return (*this);

	mov	eax, DWORD PTR _this$[ebp]

; 204  : 		}

	pop	esi
	add	esp, 8
	cmp	ebp, esp
	call	__RTC_CheckEsp
	mov	esp, ebp
	pop	ebp
	ret	4
??6?$basic_ostream@DU?$char_traits@D@std@@@std@@QAEAAV01@P6AAAVios_base@1@AAV21@@Z@Z ENDP ; std::basic_ostream<char,std::char_traits<char> >::operator<<
_TEXT	ENDS
PUBLIC	??3facet@locale@std@@SAXPAXABU_DebugHeapTag_t@2@PADH@Z ; std::locale::facet::operator delete
PUBLIC	??1_Locinfo@std@@QAE@XZ				; std::_Locinfo::~_Locinfo
PUBLIC	??0?$num_put@DV?$ostreambuf_iterator@DU?$char_traits@D@std@@@std@@@std@@QAE@ABV_Locinfo@1@I@Z ; std::num_put<char,std::ostreambuf_iterator<char,std::char_traits<char> > >::num_put<char,std::ostreambuf_iterator<char,std::char_traits<char> > >
PUBLIC	??0_Locinfo@std@@QAE@PBD@Z			; std::_Locinfo::_Locinfo
PUBLIC	?c_str@locale@std@@QBEPBDXZ			; std::locale::c_str
PUBLIC	??2facet@locale@std@@SAPAXIABU_DebugHeapTag_t@2@PADH@Z ; std::locale::facet::operator new
PUBLIC	??_C@_0EH@GHEBKCIB@c?3?2Program?5Files?5?$CIx86?$CJ?2Microsoft@ ; `string'
EXTRN	?_DebugHeapTag_func@std@@YAABU_DebugHeapTag_t@1@XZ:PROC ; std::_DebugHeapTag_func
;	COMDAT ??_C@_0EH@GHEBKCIB@c?3?2Program?5Files?5?$CIx86?$CJ?2Microsoft@
; File c:\program files (x86)\microsoft visual studio 10.0\vc\include\xlocnum
CONST	SEGMENT
??_C@_0EH@GHEBKCIB@c?3?2Program?5Files?5?$CIx86?$CJ?2Microsoft@ DB 'c:\Pr'
	DB	'ogram Files (x86)\Microsoft Visual Studio 10.0\VC\include\xlo'
	DB	'cnum', 00H					; `string'
CONST	ENDS
;	COMDAT xdata$x
xdata$x	SEGMENT
__unwindtable$?_Getcat@?$num_put@DV?$ostreambuf_iterator@DU?$char_traits@D@std@@@std@@@std@@SAIPAPBVfacet@locale@2@PBV42@@Z DD 0ffffffffH
	DD	FLAT:__unwindfunclet$?_Getcat@?$num_put@DV?$ostreambuf_iterator@DU?$char_traits@D@std@@@std@@@std@@SAIPAPBVfacet@locale@2@PBV42@@Z$0
	DD	00H
	DD	FLAT:__unwindfunclet$?_Getcat@?$num_put@DV?$ostreambuf_iterator@DU?$char_traits@D@std@@@std@@@std@@SAIPAPBVfacet@locale@2@PBV42@@Z$1
	DD	0ffffffffH
	DD	FLAT:__unwindfunclet$?_Getcat@?$num_put@DV?$ostreambuf_iterator@DU?$char_traits@D@std@@@std@@@std@@SAIPAPBVfacet@locale@2@PBV42@@Z$1
__ehfuncinfo$?_Getcat@?$num_put@DV?$ostreambuf_iterator@DU?$char_traits@D@std@@@std@@@std@@SAIPAPBVfacet@locale@2@PBV42@@Z DD 019930522H
	DD	03H
	DD	FLAT:__unwindtable$?_Getcat@?$num_put@DV?$ostreambuf_iterator@DU?$char_traits@D@std@@@std@@@std@@SAIPAPBVfacet@locale@2@PBV42@@Z
	DD	2 DUP(00H)
	DD	2 DUP(00H)
	DD	00H
	DD	01H
; Function compile flags: /Odtp /RTCsu
xdata$x	ENDS
;	COMDAT ?_Getcat@?$num_put@DV?$ostreambuf_iterator@DU?$char_traits@D@std@@@std@@@std@@SAIPAPBVfacet@locale@2@PBV42@@Z
_TEXT	SEGMENT
tv92 = -76						; size = 4
tv133 = -72						; size = 4
tv138 = -68						; size = 4
$T147369 = -64						; size = 4
$T147365 = -60						; size = 36
$T147364 = -24						; size = 4
$T147363 = -20						; size = 4
$T147362 = -16						; size = 4
__$EHRec$ = -12						; size = 12
__Ppf$ = 8						; size = 4
__Ploc$ = 12						; size = 4
?_Getcat@?$num_put@DV?$ostreambuf_iterator@DU?$char_traits@D@std@@@std@@@std@@SAIPAPBVfacet@locale@2@PBV42@@Z PROC ; std::num_put<char,std::ostreambuf_iterator<char,std::char_traits<char> > >::_Getcat, COMDAT

; 1051 : 		{	// return locale category mask and construct standard facet

	push	ebp
	mov	ebp, esp
	push	-1
	push	__ehhandler$?_Getcat@?$num_put@DV?$ostreambuf_iterator@DU?$char_traits@D@std@@@std@@@std@@SAIPAPBVfacet@locale@2@PBV42@@Z
	mov	eax, DWORD PTR fs:0
	push	eax
	sub	esp, 64					; 00000040H
	push	edi
	lea	edi, DWORD PTR [ebp-76]
	mov	ecx, 16					; 00000010H
	mov	eax, -858993460				; ccccccccH
	rep stosd
	mov	eax, DWORD PTR ___security_cookie
	xor	eax, ebp
	push	eax
	lea	eax, DWORD PTR __$EHRec$[ebp]
	mov	DWORD PTR fs:0, eax
	mov	DWORD PTR $T147369[ebp], 0

; 1052 : 		if (_Ppf != 0 && *_Ppf == 0)

	cmp	DWORD PTR __Ppf$[ebp], 0
	je	$LN1@Getcat
	mov	eax, DWORD PTR __Ppf$[ebp]
	cmp	DWORD PTR [eax], 0
	jne	$LN1@Getcat

; 1053 : 			*_Ppf = _NEW_CRT num_put<_Elem, _OutIt>(
; 1054 : 				_Locinfo(_Ploc->c_str()));

	call	?_DebugHeapTag_func@std@@YAABU_DebugHeapTag_t@1@XZ ; std::_DebugHeapTag_func
	mov	DWORD PTR $T147364[ebp], eax
	push	1053					; 0000041dH
	push	OFFSET ??_C@_0EH@GHEBKCIB@c?3?2Program?5Files?5?$CIx86?$CJ?2Microsoft@
	mov	ecx, DWORD PTR $T147364[ebp]
	push	ecx
	push	16					; 00000010H
	call	??2facet@locale@std@@SAPAXIABU_DebugHeapTag_t@2@PADH@Z ; std::locale::facet::operator new
	add	esp, 16					; 00000010H
	mov	DWORD PTR $T147363[ebp], eax
	mov	DWORD PTR __$EHRec$[ebp+8], 0
	cmp	DWORD PTR $T147363[ebp], 0
	je	SHORT $LN4@Getcat
	push	0
	mov	ecx, DWORD PTR __Ploc$[ebp]
	call	?c_str@locale@std@@QBEPBDXZ		; std::locale::c_str
	push	eax
	lea	ecx, DWORD PTR $T147365[ebp]
	call	??0_Locinfo@std@@QAE@PBD@Z		; std::_Locinfo::_Locinfo
	mov	DWORD PTR tv138[ebp], eax
	mov	edx, DWORD PTR tv138[ebp]
	mov	DWORD PTR tv133[ebp], edx
	mov	BYTE PTR __$EHRec$[ebp+8], 1
	mov	eax, DWORD PTR $T147369[ebp]
	or	eax, 1
	mov	DWORD PTR $T147369[ebp], eax
	mov	ecx, DWORD PTR tv133[ebp]
	push	ecx
	mov	ecx, DWORD PTR $T147363[ebp]
	call	??0?$num_put@DV?$ostreambuf_iterator@DU?$char_traits@D@std@@@std@@@std@@QAE@ABV_Locinfo@1@I@Z ; std::num_put<char,std::ostreambuf_iterator<char,std::char_traits<char> > >::num_put<char,std::ostreambuf_iterator<char,std::char_traits<char> > >
	mov	DWORD PTR tv92[ebp], eax
	jmp	SHORT $LN5@Getcat
$LN4@Getcat:
	mov	DWORD PTR tv92[ebp], 0
$LN5@Getcat:
	mov	edx, DWORD PTR tv92[ebp]
	mov	DWORD PTR $T147362[ebp], edx
	mov	DWORD PTR __$EHRec$[ebp+8], 2
	mov	eax, DWORD PTR __Ppf$[ebp]
	mov	ecx, DWORD PTR $T147362[ebp]
	mov	DWORD PTR [eax], ecx
	mov	DWORD PTR __$EHRec$[ebp+8], -1
	mov	edx, DWORD PTR $T147369[ebp]
	and	edx, 1
	je	SHORT $LN1@Getcat
	and	DWORD PTR $T147369[ebp], -2		; fffffffeH
	lea	ecx, DWORD PTR $T147365[ebp]
	call	??1_Locinfo@std@@QAE@XZ			; std::_Locinfo::~_Locinfo
$LN1@Getcat:

; 1055 : 		return (_X_NUMERIC);

	mov	eax, 4

; 1056 : 		}

	mov	ecx, DWORD PTR __$EHRec$[ebp]
	mov	DWORD PTR fs:0, ecx
	pop	ecx
	pop	edi
	add	esp, 76					; 0000004cH
	cmp	ebp, esp
	call	__RTC_CheckEsp
	mov	esp, ebp
	pop	ebp
	ret	0
_TEXT	ENDS
;	COMDAT text$x
text$x	SEGMENT
__unwindfunclet$?_Getcat@?$num_put@DV?$ostreambuf_iterator@DU?$char_traits@D@std@@@std@@@std@@SAIPAPBVfacet@locale@2@PBV42@@Z$0:
	push	1053					; 0000041dH
	push	OFFSET ??_C@_0EH@GHEBKCIB@c?3?2Program?5Files?5?$CIx86?$CJ?2Microsoft@
	mov	eax, DWORD PTR $T147364[ebp]
	push	eax
	mov	ecx, DWORD PTR $T147363[ebp]
	push	ecx
	call	??3facet@locale@std@@SAXPAXABU_DebugHeapTag_t@2@PADH@Z ; std::locale::facet::operator delete
	add	esp, 16					; 00000010H
	ret	0
__unwindfunclet$?_Getcat@?$num_put@DV?$ostreambuf_iterator@DU?$char_traits@D@std@@@std@@@std@@SAIPAPBVfacet@locale@2@PBV42@@Z$1:
	mov	eax, DWORD PTR $T147369[ebp]
	and	eax, 1
	je	$LN8@Getcat
	and	DWORD PTR $T147369[ebp], -2		; fffffffeH
	lea	ecx, DWORD PTR $T147365[ebp]
	jmp	??1_Locinfo@std@@QAE@XZ			; std::_Locinfo::~_Locinfo
$LN8@Getcat:
	ret	0
__ehhandler$?_Getcat@?$num_put@DV?$ostreambuf_iterator@DU?$char_traits@D@std@@@std@@@std@@SAIPAPBVfacet@locale@2@PBV42@@Z:
	mov	edx, DWORD PTR [esp+8]
	lea	eax, DWORD PTR [edx+12]
	mov	ecx, DWORD PTR [edx-72]
	xor	ecx, eax
	call	@__security_check_cookie@4
	mov	eax, OFFSET __ehfuncinfo$?_Getcat@?$num_put@DV?$ostreambuf_iterator@DU?$char_traits@D@std@@@std@@@std@@SAIPAPBVfacet@locale@2@PBV42@@Z
	jmp	___CxxFrameHandler3
text$x	ENDS
?_Getcat@?$num_put@DV?$ostreambuf_iterator@DU?$char_traits@D@std@@@std@@@std@@SAIPAPBVfacet@locale@2@PBV42@@Z ENDP ; std::num_put<char,std::ostreambuf_iterator<char,std::char_traits<char> > >::_Getcat
PUBLIC	??1?$_Yarn@D@std@@QAE@XZ			; std::_Yarn<char>::~_Yarn<char>
PUBLIC	__TI2?AVruntime_error@std@@
PUBLIC	??_C@_0BA@ELKIONDK@bad?5locale?5name?$AA@	; `string'
PUBLIC	??0?$_Yarn@D@std@@QAE@XZ			; std::_Yarn<char>::_Yarn<char>
PUBLIC	__CTA2?AVruntime_error@std@@
EXTRN	?_Locinfo_ctor@_Locinfo@std@@SAXPAV12@PBD@Z:PROC ; std::_Locinfo::_Locinfo_ctor
;	COMDAT __CTA2?AVruntime_error@std@@
; File c:\program files (x86)\microsoft visual studio 10.0\vc\include\xlocinfo
xdata$x	SEGMENT
__CTA2?AVruntime_error@std@@ DD 02H
	DD	FLAT:__CT??_R0?AVruntime_error@std@@@8??0runtime_error@std@@QAE@ABV01@@Z12
	DD	FLAT:__CT??_R0?AVexception@std@@@8??0exception@std@@QAE@ABV01@@Z12
xdata$x	ENDS
;	COMDAT __TI2?AVruntime_error@std@@
xdata$x	SEGMENT
__TI2?AVruntime_error@std@@ DD 00H
	DD	FLAT:??1runtime_error@std@@UAE@XZ
	DD	00H
	DD	FLAT:__CTA2?AVruntime_error@std@@
xdata$x	ENDS
;	COMDAT ??_C@_0BA@ELKIONDK@bad?5locale?5name?$AA@
CONST	SEGMENT
??_C@_0BA@ELKIONDK@bad?5locale?5name?$AA@ DB 'bad locale name', 00H ; `string'
CONST	ENDS
;	COMDAT xdata$x
xdata$x	SEGMENT
__ehfuncinfo$??0_Locinfo@std@@QAE@PBD@Z DD 019930522H
	DD	05H
	DD	FLAT:__unwindtable$??0_Locinfo@std@@QAE@PBD@Z
	DD	2 DUP(00H)
	DD	2 DUP(00H)
	DD	00H
	DD	01H
__unwindtable$??0_Locinfo@std@@QAE@PBD@Z DD 0ffffffffH
	DD	FLAT:__unwindfunclet$??0_Locinfo@std@@QAE@PBD@Z$0
	DD	00H
	DD	FLAT:__unwindfunclet$??0_Locinfo@std@@QAE@PBD@Z$1
	DD	01H
	DD	FLAT:__unwindfunclet$??0_Locinfo@std@@QAE@PBD@Z$2
	DD	02H
	DD	FLAT:__unwindfunclet$??0_Locinfo@std@@QAE@PBD@Z$3
	DD	03H
	DD	FLAT:__unwindfunclet$??0_Locinfo@std@@QAE@PBD@Z$4
; Function compile flags: /Odtp /RTCsu
xdata$x	ENDS
;	COMDAT ??0_Locinfo@std@@QAE@PBD@Z
_TEXT	SEGMENT
$T147381 = -28						; size = 12
_this$ = -16						; size = 4
__$EHRec$ = -12						; size = 12
__Pch$ = 8						; size = 4
??0_Locinfo@std@@QAE@PBD@Z PROC				; std::_Locinfo::_Locinfo, COMDAT
; _this$ = ecx

; 76   :         {	// construct from NTBS

	push	ebp
	mov	ebp, esp
	push	-1
	push	__ehhandler$??0_Locinfo@std@@QAE@PBD@Z
	mov	eax, DWORD PTR fs:0
	push	eax
	sub	esp, 16					; 00000010H
	mov	eax, -858993460				; ccccccccH
	mov	DWORD PTR [ebp-28], eax
	mov	DWORD PTR [ebp-24], eax
	mov	DWORD PTR [ebp-20], eax
	mov	DWORD PTR [ebp-16], eax
	mov	eax, DWORD PTR ___security_cookie
	xor	eax, ebp
	push	eax
	lea	eax, DWORD PTR __$EHRec$[ebp]
	mov	DWORD PTR fs:0, eax
	mov	DWORD PTR _this$[ebp], ecx
	push	0
	mov	ecx, DWORD PTR _this$[ebp]
	call	??0_Lockit@std@@QAE@H@Z			; std::_Lockit::_Lockit
	mov	DWORD PTR __$EHRec$[ebp+8], 0
	mov	ecx, DWORD PTR _this$[ebp]
	add	ecx, 4
	call	??0?$_Yarn@D@std@@QAE@XZ		; std::_Yarn<char>::_Yarn<char>
	mov	BYTE PTR __$EHRec$[ebp+8], 1
	mov	ecx, DWORD PTR _this$[ebp]
	add	ecx, 12					; 0000000cH
	call	??0?$_Yarn@D@std@@QAE@XZ		; std::_Yarn<char>::_Yarn<char>
	mov	BYTE PTR __$EHRec$[ebp+8], 2
	mov	ecx, DWORD PTR _this$[ebp]
	add	ecx, 20					; 00000014H
	call	??0?$_Yarn@D@std@@QAE@XZ		; std::_Yarn<char>::_Yarn<char>
	mov	BYTE PTR __$EHRec$[ebp+8], 3
	mov	ecx, DWORD PTR _this$[ebp]
	add	ecx, 28					; 0000001cH
	call	??0?$_Yarn@D@std@@QAE@XZ		; std::_Yarn<char>::_Yarn<char>
	mov	BYTE PTR __$EHRec$[ebp+8], 4

; 77   :         if (_Pch == 0)

	cmp	DWORD PTR __Pch$[ebp], 0
	jne	SHORT $LN1@Locinfo

; 78   :             _THROW_NCEE(runtime_error, "bad locale name");

	push	OFFSET ??_C@_0BA@ELKIONDK@bad?5locale?5name?$AA@
	lea	ecx, DWORD PTR $T147381[ebp]
	call	??0runtime_error@std@@QAE@PBD@Z		; std::runtime_error::runtime_error
	push	OFFSET __TI2?AVruntime_error@std@@
	lea	eax, DWORD PTR $T147381[ebp]
	push	eax
	call	__CxxThrowException@8
$LN1@Locinfo:

; 79   :         _Locinfo_ctor(this, _Pch);

	mov	ecx, DWORD PTR __Pch$[ebp]
	push	ecx
	mov	edx, DWORD PTR _this$[ebp]
	push	edx
	call	?_Locinfo_ctor@_Locinfo@std@@SAXPAV12@PBD@Z ; std::_Locinfo::_Locinfo_ctor
	add	esp, 8

; 80   :         }

	mov	DWORD PTR __$EHRec$[ebp+8], -1
	mov	eax, DWORD PTR _this$[ebp]
$LN3@Locinfo:
	mov	ecx, DWORD PTR __$EHRec$[ebp]
	mov	DWORD PTR fs:0, ecx
	pop	ecx
	add	esp, 28					; 0000001cH
	cmp	ebp, esp
	call	__RTC_CheckEsp
	mov	esp, ebp
	pop	ebp
	ret	4
_TEXT	ENDS
;	COMDAT text$x
text$x	SEGMENT
__unwindfunclet$??0_Locinfo@std@@QAE@PBD@Z$0:
	mov	ecx, DWORD PTR _this$[ebp]
	jmp	??1_Lockit@std@@QAE@XZ			; std::_Lockit::~_Lockit
__unwindfunclet$??0_Locinfo@std@@QAE@PBD@Z$1:
	mov	ecx, DWORD PTR _this$[ebp]
	add	ecx, 4
	jmp	??1?$_Yarn@D@std@@QAE@XZ		; std::_Yarn<char>::~_Yarn<char>
__unwindfunclet$??0_Locinfo@std@@QAE@PBD@Z$2:
	mov	ecx, DWORD PTR _this$[ebp]
	add	ecx, 12					; 0000000cH
	jmp	??1?$_Yarn@D@std@@QAE@XZ		; std::_Yarn<char>::~_Yarn<char>
__unwindfunclet$??0_Locinfo@std@@QAE@PBD@Z$3:
	mov	ecx, DWORD PTR _this$[ebp]
	add	ecx, 20					; 00000014H
	jmp	??1?$_Yarn@D@std@@QAE@XZ		; std::_Yarn<char>::~_Yarn<char>
__unwindfunclet$??0_Locinfo@std@@QAE@PBD@Z$4:
	mov	ecx, DWORD PTR _this$[ebp]
	add	ecx, 28					; 0000001cH
	jmp	??1?$_Yarn@D@std@@QAE@XZ		; std::_Yarn<char>::~_Yarn<char>
__ehhandler$??0_Locinfo@std@@QAE@PBD@Z:
	mov	edx, DWORD PTR [esp+8]
	lea	eax, DWORD PTR [edx+12]
	mov	ecx, DWORD PTR [edx-20]
	xor	ecx, eax
	call	@__security_check_cookie@4
	mov	eax, OFFSET __ehfuncinfo$??0_Locinfo@std@@QAE@PBD@Z
	jmp	___CxxFrameHandler3
text$x	ENDS
??0_Locinfo@std@@QAE@PBD@Z ENDP				; std::_Locinfo::_Locinfo
EXTRN	?_Locinfo_dtor@_Locinfo@std@@SAXPAV12@@Z:PROC	; std::_Locinfo::_Locinfo_dtor
;	COMDAT xdata$x
xdata$x	SEGMENT
__ehfuncinfo$??1_Locinfo@std@@QAE@XZ DD 019930522H
	DD	05H
	DD	FLAT:__unwindtable$??1_Locinfo@std@@QAE@XZ
	DD	2 DUP(00H)
	DD	2 DUP(00H)
	DD	00H
	DD	01H
__unwindtable$??1_Locinfo@std@@QAE@XZ DD 0ffffffffH
	DD	FLAT:__unwindfunclet$??1_Locinfo@std@@QAE@XZ$0
	DD	00H
	DD	FLAT:__unwindfunclet$??1_Locinfo@std@@QAE@XZ$1
	DD	01H
	DD	FLAT:__unwindfunclet$??1_Locinfo@std@@QAE@XZ$2
	DD	02H
	DD	FLAT:__unwindfunclet$??1_Locinfo@std@@QAE@XZ$3
	DD	03H
	DD	FLAT:__unwindfunclet$??1_Locinfo@std@@QAE@XZ$4
; Function compile flags: /Odtp /RTCsu
xdata$x	ENDS
;	COMDAT ??1_Locinfo@std@@QAE@XZ
_TEXT	SEGMENT
_this$ = -16						; size = 4
__$EHRec$ = -12						; size = 12
??1_Locinfo@std@@QAE@XZ PROC				; std::_Locinfo::~_Locinfo, COMDAT
; _this$ = ecx

; 93   :         {

	push	ebp
	mov	ebp, esp
	push	-1
	push	__ehhandler$??1_Locinfo@std@@QAE@XZ
	mov	eax, DWORD PTR fs:0
	push	eax
	push	ecx
	mov	DWORD PTR [ebp-16], -858993460		; ccccccccH
	mov	eax, DWORD PTR ___security_cookie
	xor	eax, ebp
	push	eax
	lea	eax, DWORD PTR __$EHRec$[ebp]
	mov	DWORD PTR fs:0, eax
	mov	DWORD PTR _this$[ebp], ecx
	mov	DWORD PTR __$EHRec$[ebp+8], 4

; 94   :         _Locinfo_dtor(this);

	mov	eax, DWORD PTR _this$[ebp]
	push	eax
	call	?_Locinfo_dtor@_Locinfo@std@@SAXPAV12@@Z ; std::_Locinfo::_Locinfo_dtor
	add	esp, 4

; 95   :         }

	mov	BYTE PTR __$EHRec$[ebp+8], 3
	mov	ecx, DWORD PTR _this$[ebp]
	add	ecx, 28					; 0000001cH
	call	??1?$_Yarn@D@std@@QAE@XZ		; std::_Yarn<char>::~_Yarn<char>
	mov	BYTE PTR __$EHRec$[ebp+8], 2
	mov	ecx, DWORD PTR _this$[ebp]
	add	ecx, 20					; 00000014H
	call	??1?$_Yarn@D@std@@QAE@XZ		; std::_Yarn<char>::~_Yarn<char>
	mov	BYTE PTR __$EHRec$[ebp+8], 1
	mov	ecx, DWORD PTR _this$[ebp]
	add	ecx, 12					; 0000000cH
	call	??1?$_Yarn@D@std@@QAE@XZ		; std::_Yarn<char>::~_Yarn<char>
	mov	BYTE PTR __$EHRec$[ebp+8], 0
	mov	ecx, DWORD PTR _this$[ebp]
	add	ecx, 4
	call	??1?$_Yarn@D@std@@QAE@XZ		; std::_Yarn<char>::~_Yarn<char>
	mov	DWORD PTR __$EHRec$[ebp+8], -1
	mov	ecx, DWORD PTR _this$[ebp]
	call	??1_Lockit@std@@QAE@XZ			; std::_Lockit::~_Lockit
	mov	ecx, DWORD PTR __$EHRec$[ebp]
	mov	DWORD PTR fs:0, ecx
	pop	ecx
	add	esp, 16					; 00000010H
	cmp	ebp, esp
	call	__RTC_CheckEsp
	mov	esp, ebp
	pop	ebp
	ret	0
_TEXT	ENDS
;	COMDAT text$x
text$x	SEGMENT
__unwindfunclet$??1_Locinfo@std@@QAE@XZ$0:
	mov	ecx, DWORD PTR _this$[ebp]
	jmp	??1_Lockit@std@@QAE@XZ			; std::_Lockit::~_Lockit
__unwindfunclet$??1_Locinfo@std@@QAE@XZ$1:
	mov	ecx, DWORD PTR _this$[ebp]
	add	ecx, 4
	jmp	??1?$_Yarn@D@std@@QAE@XZ		; std::_Yarn<char>::~_Yarn<char>
__unwindfunclet$??1_Locinfo@std@@QAE@XZ$2:
	mov	ecx, DWORD PTR _this$[ebp]
	add	ecx, 12					; 0000000cH
	jmp	??1?$_Yarn@D@std@@QAE@XZ		; std::_Yarn<char>::~_Yarn<char>
__unwindfunclet$??1_Locinfo@std@@QAE@XZ$3:
	mov	ecx, DWORD PTR _this$[ebp]
	add	ecx, 20					; 00000014H
	jmp	??1?$_Yarn@D@std@@QAE@XZ		; std::_Yarn<char>::~_Yarn<char>
__unwindfunclet$??1_Locinfo@std@@QAE@XZ$4:
	mov	ecx, DWORD PTR _this$[ebp]
	add	ecx, 28					; 0000001cH
	jmp	??1?$_Yarn@D@std@@QAE@XZ		; std::_Yarn<char>::~_Yarn<char>
__ehhandler$??1_Locinfo@std@@QAE@XZ:
	mov	edx, DWORD PTR [esp+8]
	lea	eax, DWORD PTR [edx+12]
	mov	ecx, DWORD PTR [edx-8]
	xor	ecx, eax
	call	@__security_check_cookie@4
	mov	eax, OFFSET __ehfuncinfo$??1_Locinfo@std@@QAE@XZ
	jmp	___CxxFrameHandler3
text$x	ENDS
??1_Locinfo@std@@QAE@XZ ENDP				; std::_Locinfo::~_Locinfo
EXTRN	??2@YAPAXIABU_DebugHeapTag_t@std@@PADH@Z:PROC	; operator new
; Function compile flags: /Odtp /RTCsu
; File c:\program files (x86)\microsoft visual studio 10.0\vc\include\xlocale
;	COMDAT ??2facet@locale@std@@SAPAXIABU_DebugHeapTag_t@2@PADH@Z
_TEXT	SEGMENT
__Size$ = 8						; size = 4
__Tag$ = 12						; size = 4
__File$ = 16						; size = 4
__Line$ = 20						; size = 4
??2facet@locale@std@@SAPAXIABU_DebugHeapTag_t@2@PADH@Z PROC ; std::locale::facet::operator new, COMDAT

; 146  : 			{	// replace debugging operator new

	push	ebp
	mov	ebp, esp

; 147  : 			return (::operator new(_Size, _Tag, _File, _Line));

	mov	eax, DWORD PTR __Line$[ebp]
	push	eax
	mov	ecx, DWORD PTR __File$[ebp]
	push	ecx
	mov	edx, DWORD PTR __Tag$[ebp]
	push	edx
	mov	eax, DWORD PTR __Size$[ebp]
	push	eax
	call	??2@YAPAXIABU_DebugHeapTag_t@std@@PADH@Z ; operator new
	add	esp, 16					; 00000010H

; 148  : 			}

	cmp	ebp, esp
	call	__RTC_CheckEsp
	pop	ebp
	ret	0
??2facet@locale@std@@SAPAXIABU_DebugHeapTag_t@2@PADH@Z ENDP ; std::locale::facet::operator new
_TEXT	ENDS
PUBLIC	??3facet@locale@std@@SAXPAX@Z			; std::locale::facet::operator delete
; Function compile flags: /Odtp /RTCsu
;	COMDAT ??3facet@locale@std@@SAXPAXABU_DebugHeapTag_t@2@PADH@Z
_TEXT	SEGMENT
__Ptr$ = 8						; size = 4
___formal$ = 12						; size = 4
___formal$ = 16						; size = 4
___formal$ = 20						; size = 4
??3facet@locale@std@@SAXPAXABU_DebugHeapTag_t@2@PADH@Z PROC ; std::locale::facet::operator delete, COMDAT

; 152  : 			{	// replace debugging operator delete

	push	ebp
	mov	ebp, esp

; 153  : 			operator delete(_Ptr);

	mov	eax, DWORD PTR __Ptr$[ebp]
	push	eax
	call	??3facet@locale@std@@SAXPAX@Z		; std::locale::facet::operator delete
	add	esp, 4

; 154  : 			}

	cmp	ebp, esp
	call	__RTC_CheckEsp
	pop	ebp
	ret	0
??3facet@locale@std@@SAXPAXABU_DebugHeapTag_t@2@PADH@Z ENDP ; std::locale::facet::operator delete
; Function compile flags: /Odtp /RTCsu
_TEXT	ENDS
;	COMDAT ??3facet@locale@std@@SAXPAX@Z
_TEXT	SEGMENT
__Ptr$ = 8						; size = 4
??3facet@locale@std@@SAXPAX@Z PROC			; std::locale::facet::operator delete, COMDAT

; 157  : 			{	// replace operator delete

	push	ebp
	mov	ebp, esp

; 158  : 			_DebugHeapDelete((facet *)_Ptr);

	mov	eax, DWORD PTR __Ptr$[ebp]
	push	eax
	call	??$_DebugHeapDelete@Vfacet@locale@std@@@std@@YAXPAVfacet@locale@0@@Z ; std::_DebugHeapDelete<std::locale::facet>
	add	esp, 4

; 159  : 			}

	cmp	ebp, esp
	call	__RTC_CheckEsp
	pop	ebp
	ret	0
??3facet@locale@std@@SAXPAX@Z ENDP			; std::locale::facet::operator delete
_TEXT	ENDS
PUBLIC	?c_str@?$_Yarn@D@std@@QBEPBDXZ			; std::_Yarn<char>::c_str
; Function compile flags: /Odtp /RTCsu
;	COMDAT ?c_str@locale@std@@QBEPBDXZ
_TEXT	SEGMENT
_this$ = -4						; size = 4
?c_str@locale@std@@QBEPBDXZ PROC			; std::locale::c_str, COMDAT
; _this$ = ecx

; 431  : 		{	// return locale name as NTBS

	push	ebp
	mov	ebp, esp
	push	ecx
	mov	DWORD PTR [ebp-4], -858993460		; ccccccccH
	mov	DWORD PTR _this$[ebp], ecx

; 432  : 		return (_Ptr->_Name.c_str());

	mov	eax, DWORD PTR _this$[ebp]
	mov	ecx, DWORD PTR [eax]
	add	ecx, 24					; 00000018H
	call	?c_str@?$_Yarn@D@std@@QBEPBDXZ		; std::_Yarn<char>::c_str

; 433  : 		}

	add	esp, 4
	cmp	ebp, esp
	call	__RTC_CheckEsp
	mov	esp, ebp
	pop	ebp
	ret	0
?c_str@locale@std@@QBEPBDXZ ENDP			; std::locale::c_str
; Function compile flags: /Odtp /RTCsu
; File c:\program files (x86)\microsoft visual studio 10.0\vc\include\xutility
_TEXT	ENDS
;	COMDAT ??0?$_Yarn@D@std@@QAE@XZ
_TEXT	SEGMENT
_this$ = -4						; size = 4
??0?$_Yarn@D@std@@QAE@XZ PROC				; std::_Yarn<char>::_Yarn<char>, COMDAT
; _this$ = ecx

; 3327 : 		{	// default construct

	push	ebp
	mov	ebp, esp
	push	ecx
	mov	DWORD PTR [ebp-4], -858993460		; ccccccccH
	mov	DWORD PTR _this$[ebp], ecx
	mov	eax, DWORD PTR _this$[ebp]
	mov	DWORD PTR [eax], 0
	mov	ecx, DWORD PTR _this$[ebp]
	mov	BYTE PTR [ecx+4], 0

; 3328 : 		}

	mov	eax, DWORD PTR _this$[ebp]
	mov	esp, ebp
	pop	ebp
	ret	0
??0?$_Yarn@D@std@@QAE@XZ ENDP				; std::_Yarn<char>::_Yarn<char>
_TEXT	ENDS
PUBLIC	?_Tidy@?$_Yarn@D@std@@AAEXXZ			; std::_Yarn<char>::_Tidy
; Function compile flags: /Odtp /RTCsu
;	COMDAT ??1?$_Yarn@D@std@@QAE@XZ
_TEXT	SEGMENT
_this$ = -4						; size = 4
??1?$_Yarn@D@std@@QAE@XZ PROC				; std::_Yarn<char>::~_Yarn<char>, COMDAT
; _this$ = ecx

; 3377 : 		{	// destroy the object

	push	ebp
	mov	ebp, esp
	push	ecx
	mov	DWORD PTR [ebp-4], -858993460		; ccccccccH
	mov	DWORD PTR _this$[ebp], ecx

; 3378 : 		_Tidy();

	mov	ecx, DWORD PTR _this$[ebp]
	call	?_Tidy@?$_Yarn@D@std@@AAEXXZ		; std::_Yarn<char>::_Tidy

; 3379 : 		}

	add	esp, 4
	cmp	ebp, esp
	call	__RTC_CheckEsp
	mov	esp, ebp
	pop	ebp
	ret	0
??1?$_Yarn@D@std@@QAE@XZ ENDP				; std::_Yarn<char>::~_Yarn<char>
; Function compile flags: /Odtp /RTCsu
_TEXT	ENDS
;	COMDAT ?c_str@?$_Yarn@D@std@@QBEPBDXZ
_TEXT	SEGMENT
tv66 = -8						; size = 4
_this$ = -4						; size = 4
?c_str@?$_Yarn@D@std@@QBEPBDXZ PROC			; std::_Yarn<char>::c_str, COMDAT
; _this$ = ecx

; 3387 : 		{	// return NTBS

	push	ebp
	mov	ebp, esp
	sub	esp, 8
	mov	DWORD PTR [ebp-8], -858993460		; ccccccccH
	mov	DWORD PTR [ebp-4], -858993460		; ccccccccH
	mov	DWORD PTR _this$[ebp], ecx

; 3388 : 		return (_Myptr != 0 ? _Myptr : &_Nul);

	mov	eax, DWORD PTR _this$[ebp]
	cmp	DWORD PTR [eax], 0
	je	SHORT $LN3@c_str
	mov	ecx, DWORD PTR _this$[ebp]
	mov	edx, DWORD PTR [ecx]
	mov	DWORD PTR tv66[ebp], edx
	jmp	SHORT $LN4@c_str
$LN3@c_str:
	mov	eax, DWORD PTR _this$[ebp]
	add	eax, 4
	mov	DWORD PTR tv66[ebp], eax
$LN4@c_str:
	mov	eax, DWORD PTR tv66[ebp]

; 3389 : 		}

	mov	esp, ebp
	pop	ebp
	ret	0
?c_str@?$_Yarn@D@std@@QBEPBDXZ ENDP			; std::_Yarn<char>::c_str
_TEXT	ENDS
EXTRN	__free_dbg:PROC
; Function compile flags: /Odtp /RTCsu
;	COMDAT ?_Tidy@?$_Yarn@D@std@@AAEXXZ
_TEXT	SEGMENT
_this$ = -4						; size = 4
?_Tidy@?$_Yarn@D@std@@AAEXXZ PROC			; std::_Yarn<char>::_Tidy, COMDAT
; _this$ = ecx

; 3403 : 		{	// discard any string

	push	ebp
	mov	ebp, esp
	push	ecx
	mov	DWORD PTR [ebp-4], -858993460		; ccccccccH
	mov	DWORD PTR _this$[ebp], ecx

; 3404 : 		if (_Myptr != 0)

	mov	eax, DWORD PTR _this$[ebp]
	cmp	DWORD PTR [eax], 0
	je	SHORT $LN1@Tidy@2

; 3405 : 
; 3406 :  #ifdef _DEBUG
; 3407 : 			_free_dbg(_Myptr, _CRT_BLOCK);

	push	2
	mov	ecx, DWORD PTR _this$[ebp]
	mov	edx, DWORD PTR [ecx]
	push	edx
	call	__free_dbg
	add	esp, 8
$LN1@Tidy@2:

; 3408 : 
; 3409 :  #else /* _DEBUG */
; 3410 : 			_CSTD free(_Myptr);
; 3411 :  #endif /* _DEBUG */
; 3412 : 
; 3413 : 		_Myptr = 0;

	mov	eax, DWORD PTR _this$[ebp]
	mov	DWORD PTR [eax], 0

; 3414 : 		}

	add	esp, 4
	cmp	ebp, esp
	call	__RTC_CheckEsp
	mov	esp, ebp
	pop	ebp
	ret	0
?_Tidy@?$_Yarn@D@std@@AAEXXZ ENDP			; std::_Yarn<char>::_Tidy
_TEXT	ENDS
PUBLIC	??3@YAXPAX0@Z					; operator delete
PUBLIC	??2@YAPAXIPAX@Z					; operator new
;	COMDAT xdata$x
; File c:\program files (x86)\microsoft visual studio 10.0\vc\include\xmemory
xdata$x	SEGMENT
__unwindtable$?construct@?$allocator@U_Container_proxy@std@@@std@@QAEXPAU_Container_proxy@2@$$QAU32@@Z DD 0ffffffffH
	DD	FLAT:__unwindfunclet$?construct@?$allocator@U_Container_proxy@std@@@std@@QAEXPAU_Container_proxy@2@$$QAU32@@Z$0
__ehfuncinfo$?construct@?$allocator@U_Container_proxy@std@@@std@@QAEXPAU_Container_proxy@2@$$QAU32@@Z DD 019930522H
	DD	01H
	DD	FLAT:__unwindtable$?construct@?$allocator@U_Container_proxy@std@@@std@@QAEXPAU_Container_proxy@2@$$QAU32@@Z
	DD	2 DUP(00H)
	DD	2 DUP(00H)
	DD	00H
	DD	01H
; Function compile flags: /Odtp /RTCsu
xdata$x	ENDS
;	COMDAT ?construct@?$allocator@U_Container_proxy@std@@@std@@QAEXPAU_Container_proxy@2@$$QAU32@@Z
_TEXT	SEGMENT
tv74 = -28						; size = 4
$T147427 = -24						; size = 4
$T147426 = -20						; size = 4
_this$ = -16						; size = 4
__$EHRec$ = -12						; size = 12
__Ptr$ = 8						; size = 4
__Val$ = 12						; size = 4
?construct@?$allocator@U_Container_proxy@std@@@std@@QAEXPAU_Container_proxy@2@$$QAU32@@Z PROC ; std::allocator<std::_Container_proxy>::construct, COMDAT
; _this$ = ecx

; 201  : 		{	// construct object at _Ptr with value _Val

	push	ebp
	mov	ebp, esp
	push	-1
	push	__ehhandler$?construct@?$allocator@U_Container_proxy@std@@@std@@QAEXPAU_Container_proxy@2@$$QAU32@@Z
	mov	eax, DWORD PTR fs:0
	push	eax
	sub	esp, 16					; 00000010H
	mov	eax, -858993460				; ccccccccH
	mov	DWORD PTR [ebp-28], eax
	mov	DWORD PTR [ebp-24], eax
	mov	DWORD PTR [ebp-20], eax
	mov	DWORD PTR [ebp-16], eax
	mov	eax, DWORD PTR ___security_cookie
	xor	eax, ebp
	push	eax
	lea	eax, DWORD PTR __$EHRec$[ebp]
	mov	DWORD PTR fs:0, eax
	mov	DWORD PTR _this$[ebp], ecx

; 202  : 		::new ((void _FARQ *)_Ptr) _Ty(_STD forward<_Ty>(_Val));

	mov	eax, DWORD PTR __Ptr$[ebp]
	push	eax
	push	8
	call	??2@YAPAXIPAX@Z				; operator new
	add	esp, 8
	mov	DWORD PTR $T147427[ebp], eax
	mov	DWORD PTR __$EHRec$[ebp+8], 0
	cmp	DWORD PTR $T147427[ebp], 0
	je	SHORT $LN3@construct
	mov	ecx, DWORD PTR __Val$[ebp]
	push	ecx
	call	??$forward@U_Container_proxy@std@@@std@@YA$$QAU_Container_proxy@0@AAU10@@Z ; std::forward<std::_Container_proxy>
	add	esp, 4
	mov	edx, DWORD PTR [eax]
	mov	eax, DWORD PTR [eax+4]
	mov	ecx, DWORD PTR $T147427[ebp]
	mov	DWORD PTR [ecx], edx
	mov	DWORD PTR [ecx+4], eax
	mov	edx, DWORD PTR $T147427[ebp]
	mov	DWORD PTR tv74[ebp], edx
	jmp	SHORT $LN4@construct
$LN3@construct:
	mov	DWORD PTR tv74[ebp], 0
$LN4@construct:
	mov	eax, DWORD PTR tv74[ebp]
	mov	DWORD PTR $T147426[ebp], eax
	mov	DWORD PTR __$EHRec$[ebp+8], -1

; 203  : 		}

	mov	ecx, DWORD PTR __$EHRec$[ebp]
	mov	DWORD PTR fs:0, ecx
	pop	ecx
	add	esp, 28					; 0000001cH
	cmp	ebp, esp
	call	__RTC_CheckEsp
	mov	esp, ebp
	pop	ebp
	ret	8
_TEXT	ENDS
;	COMDAT text$x
text$x	SEGMENT
__unwindfunclet$?construct@?$allocator@U_Container_proxy@std@@@std@@QAEXPAU_Container_proxy@2@$$QAU32@@Z$0:
	mov	eax, DWORD PTR __Ptr$[ebp]
	push	eax
	mov	ecx, DWORD PTR $T147427[ebp]
	push	ecx
	call	??3@YAXPAX0@Z				; operator delete
	add	esp, 8
	ret	0
__ehhandler$?construct@?$allocator@U_Container_proxy@std@@@std@@QAEXPAU_Container_proxy@2@$$QAU32@@Z:
	mov	edx, DWORD PTR [esp+8]
	lea	eax, DWORD PTR [edx+12]
	mov	ecx, DWORD PTR [edx-20]
	xor	ecx, eax
	call	@__security_check_cookie@4
	mov	eax, OFFSET __ehfuncinfo$?construct@?$allocator@U_Container_proxy@std@@@std@@QAEXPAU_Container_proxy@2@$$QAU32@@Z
	jmp	___CxxFrameHandler3
text$x	ENDS
?construct@?$allocator@U_Container_proxy@std@@@std@@QAEXPAU_Container_proxy@2@$$QAU32@@Z ENDP ; std::allocator<std::_Container_proxy>::construct
; Function compile flags: /Odtp /RTCsu
; File c:\program files (x86)\microsoft visual studio 10.0\vc\include\new
;	COMDAT ??2@YAPAXIPAX@Z
_TEXT	SEGMENT
___formal$ = 8						; size = 4
__Where$ = 12						; size = 4
??2@YAPAXIPAX@Z PROC					; operator new, COMDAT

; 56   : 	{	// construct array with placement at _Where

	push	ebp
	mov	ebp, esp

; 57   : 	return (_Where);

	mov	eax, DWORD PTR __Where$[ebp]

; 58   : 	}

	pop	ebp
	ret	0
??2@YAPAXIPAX@Z ENDP					; operator new
; Function compile flags: /Odtp /RTCsu
_TEXT	ENDS
;	COMDAT ??3@YAXPAX0@Z
_TEXT	SEGMENT
___formal$ = 8						; size = 4
___formal$ = 12						; size = 4
??3@YAXPAX0@Z PROC					; operator delete, COMDAT

; 61   : 	{	// delete if placement new fails

	push	ebp
	mov	ebp, esp

; 62   : 	}

	pop	ebp
	ret	0
??3@YAXPAX0@Z ENDP					; operator delete
_TEXT	ENDS
PUBLIC	??$_Destroy@U_Container_proxy@std@@@std@@YAXPAU_Container_proxy@0@@Z ; std::_Destroy<std::_Container_proxy>
; Function compile flags: /Odtp /RTCsu
; File c:\program files (x86)\microsoft visual studio 10.0\vc\include\xmemory
;	COMDAT ?destroy@?$allocator@U_Container_proxy@std@@@std@@QAEXPAU_Container_proxy@2@@Z
_TEXT	SEGMENT
_this$ = -4						; size = 4
__Ptr$ = 8						; size = 4
?destroy@?$allocator@U_Container_proxy@std@@@std@@QAEXPAU_Container_proxy@2@@Z PROC ; std::allocator<std::_Container_proxy>::destroy, COMDAT
; _this$ = ecx

; 212  : 		{	// destroy object at _Ptr

	push	ebp
	mov	ebp, esp
	push	ecx
	mov	DWORD PTR [ebp-4], -858993460		; ccccccccH
	mov	DWORD PTR _this$[ebp], ecx

; 213  : 		_Destroy(_Ptr);

	mov	eax, DWORD PTR __Ptr$[ebp]
	push	eax
	call	??$_Destroy@U_Container_proxy@std@@@std@@YAXPAU_Container_proxy@0@@Z ; std::_Destroy<std::_Container_proxy>
	add	esp, 4

; 214  : 		}

	add	esp, 4
	cmp	ebp, esp
	call	__RTC_CheckEsp
	mov	esp, ebp
	pop	ebp
	ret	4
?destroy@?$allocator@U_Container_proxy@std@@@std@@QAEXPAU_Container_proxy@2@@Z ENDP ; std::allocator<std::_Container_proxy>::destroy
_TEXT	ENDS
PUBLIC	??1?$basic_ostream@DU?$char_traits@D@std@@@std@@UAE@XZ ; std::basic_ostream<char,std::char_traits<char> >::~basic_ostream<char,std::char_traits<char> >
PUBLIC	??0?$basic_stringbuf@DU?$char_traits@D@std@@V?$allocator@D@2@@std@@QAE@H@Z ; std::basic_stringbuf<char,std::char_traits<char>,std::allocator<char> >::basic_stringbuf<char,std::char_traits<char>,std::allocator<char> >
PUBLIC	??_7?$basic_ostringstream@DU?$char_traits@D@std@@V?$allocator@D@2@@std@@6B@ ; std::basic_ostringstream<char,std::char_traits<char>,std::allocator<char> >::`vftable'
PUBLIC	??0?$basic_ostream@DU?$char_traits@D@std@@@std@@QAE@PAV?$basic_streambuf@DU?$char_traits@D@std@@@1@_N@Z ; std::basic_ostream<char,std::char_traits<char> >::basic_ostream<char,std::char_traits<char> >
PUBLIC	??0?$basic_ios@DU?$char_traits@D@std@@@std@@IAE@XZ ; std::basic_ios<char,std::char_traits<char> >::basic_ios<char,std::char_traits<char> >
PUBLIC	??_8?$basic_ostringstream@DU?$char_traits@D@std@@V?$allocator@D@2@@std@@7B@ ; std::basic_ostringstream<char,std::char_traits<char>,std::allocator<char> >::`vbtable'
PUBLIC	??_R4?$basic_ostringstream@DU?$char_traits@D@std@@V?$allocator@D@2@@std@@6B@ ; std::basic_ostringstream<char,std::char_traits<char>,std::allocator<char> >::`RTTI Complete Object Locator'
PUBLIC	??_R0?AV?$basic_ostringstream@DU?$char_traits@D@std@@V?$allocator@D@2@@std@@@8 ; std::basic_ostringstream<char,std::char_traits<char>,std::allocator<char> > `RTTI Type Descriptor'
PUBLIC	??_R3?$basic_ostringstream@DU?$char_traits@D@std@@V?$allocator@D@2@@std@@8 ; std::basic_ostringstream<char,std::char_traits<char>,std::allocator<char> >::`RTTI Class Hierarchy Descriptor'
PUBLIC	??_R2?$basic_ostringstream@DU?$char_traits@D@std@@V?$allocator@D@2@@std@@8 ; std::basic_ostringstream<char,std::char_traits<char>,std::allocator<char> >::`RTTI Base Class Array'
PUBLIC	??_R1A@?0A@EA@?$basic_ostringstream@DU?$char_traits@D@std@@V?$allocator@D@2@@std@@8 ; std::basic_ostringstream<char,std::char_traits<char>,std::allocator<char> >::`RTTI Base Class Descriptor at (0,-1,0,64)'
PUBLIC	??_R1A@?0A@EA@?$basic_ostream@DU?$char_traits@D@std@@@std@@8 ; std::basic_ostream<char,std::char_traits<char> >::`RTTI Base Class Descriptor at (0,-1,0,64)'
PUBLIC	??_R0?AV?$basic_ostream@DU?$char_traits@D@std@@@std@@@8 ; std::basic_ostream<char,std::char_traits<char> > `RTTI Type Descriptor'
PUBLIC	??_R3?$basic_ostream@DU?$char_traits@D@std@@@std@@8 ; std::basic_ostream<char,std::char_traits<char> >::`RTTI Class Hierarchy Descriptor'
PUBLIC	??_R2?$basic_ostream@DU?$char_traits@D@std@@@std@@8 ; std::basic_ostream<char,std::char_traits<char> >::`RTTI Base Class Array'
PUBLIC	??_R1A@A@3FA@?$basic_ios@DU?$char_traits@D@std@@@std@@8 ; std::basic_ios<char,std::char_traits<char> >::`RTTI Base Class Descriptor at (0,0,4,80)'
PUBLIC	??_R1A@A@3EA@ios_base@std@@8			; std::ios_base::`RTTI Base Class Descriptor at (0,0,4,64)'
PUBLIC	??_R17A@3EA@?$_Iosb@H@std@@8			; std::_Iosb<int>::`RTTI Base Class Descriptor at (8,0,4,64)'
EXTRN	??_E?$basic_ostringstream@DU?$char_traits@D@std@@V?$allocator@D@2@@std@@UAEPAXI@Z:PROC ; std::basic_ostringstream<char,std::char_traits<char>,std::allocator<char> >::`vector deleting destructor'
;	COMDAT ??_R17A@3EA@?$_Iosb@H@std@@8
; File c:\program files (x86)\microsoft visual studio 10.0\vc\include\sstream
rdata$r	SEGMENT
??_R17A@3EA@?$_Iosb@H@std@@8 DD FLAT:??_R0?AV?$_Iosb@H@std@@@8 ; std::_Iosb<int>::`RTTI Base Class Descriptor at (8,0,4,64)'
	DD	00H
	DD	08H
	DD	00H
	DD	04H
	DD	040H
	DD	FLAT:??_R3?$_Iosb@H@std@@8
rdata$r	ENDS
;	COMDAT ??_R1A@A@3EA@ios_base@std@@8
rdata$r	SEGMENT
??_R1A@A@3EA@ios_base@std@@8 DD FLAT:??_R0?AVios_base@std@@@8 ; std::ios_base::`RTTI Base Class Descriptor at (0,0,4,64)'
	DD	01H
	DD	00H
	DD	00H
	DD	04H
	DD	040H
	DD	FLAT:??_R3ios_base@std@@8
rdata$r	ENDS
;	COMDAT ??_R1A@A@3FA@?$basic_ios@DU?$char_traits@D@std@@@std@@8
rdata$r	SEGMENT
??_R1A@A@3FA@?$basic_ios@DU?$char_traits@D@std@@@std@@8 DD FLAT:??_R0?AV?$basic_ios@DU?$char_traits@D@std@@@std@@@8 ; std::basic_ios<char,std::char_traits<char> >::`RTTI Base Class Descriptor at (0,0,4,80)'
	DD	02H
	DD	00H
	DD	00H
	DD	04H
	DD	050H
	DD	FLAT:??_R3?$basic_ios@DU?$char_traits@D@std@@@std@@8
rdata$r	ENDS
;	COMDAT ??_R2?$basic_ostream@DU?$char_traits@D@std@@@std@@8
rdata$r	SEGMENT
??_R2?$basic_ostream@DU?$char_traits@D@std@@@std@@8 DD FLAT:??_R1A@?0A@EA@?$basic_ostream@DU?$char_traits@D@std@@@std@@8 ; std::basic_ostream<char,std::char_traits<char> >::`RTTI Base Class Array'
	DD	FLAT:??_R1A@A@3FA@?$basic_ios@DU?$char_traits@D@std@@@std@@8
	DD	FLAT:??_R1A@A@3EA@ios_base@std@@8
	DD	FLAT:??_R17A@3EA@?$_Iosb@H@std@@8
rdata$r	ENDS
;	COMDAT ??_R3?$basic_ostream@DU?$char_traits@D@std@@@std@@8
rdata$r	SEGMENT
??_R3?$basic_ostream@DU?$char_traits@D@std@@@std@@8 DD 00H ; std::basic_ostream<char,std::char_traits<char> >::`RTTI Class Hierarchy Descriptor'
	DD	00H
	DD	04H
	DD	FLAT:??_R2?$basic_ostream@DU?$char_traits@D@std@@@std@@8
rdata$r	ENDS
;	COMDAT ??_R0?AV?$basic_ostream@DU?$char_traits@D@std@@@std@@@8
_DATA	SEGMENT
??_R0?AV?$basic_ostream@DU?$char_traits@D@std@@@std@@@8 DD FLAT:??_7type_info@@6B@ ; std::basic_ostream<char,std::char_traits<char> > `RTTI Type Descriptor'
	DD	00H
	DB	'.?AV?$basic_ostream@DU?$char_traits@D@std@@@std@@', 00H
_DATA	ENDS
;	COMDAT ??_R1A@?0A@EA@?$basic_ostream@DU?$char_traits@D@std@@@std@@8
rdata$r	SEGMENT
??_R1A@?0A@EA@?$basic_ostream@DU?$char_traits@D@std@@@std@@8 DD FLAT:??_R0?AV?$basic_ostream@DU?$char_traits@D@std@@@std@@@8 ; std::basic_ostream<char,std::char_traits<char> >::`RTTI Base Class Descriptor at (0,-1,0,64)'
	DD	03H
	DD	00H
	DD	0ffffffffH
	DD	00H
	DD	040H
	DD	FLAT:??_R3?$basic_ostream@DU?$char_traits@D@std@@@std@@8
rdata$r	ENDS
;	COMDAT ??_R1A@?0A@EA@?$basic_ostringstream@DU?$char_traits@D@std@@V?$allocator@D@2@@std@@8
rdata$r	SEGMENT
??_R1A@?0A@EA@?$basic_ostringstream@DU?$char_traits@D@std@@V?$allocator@D@2@@std@@8 DD FLAT:??_R0?AV?$basic_ostringstream@DU?$char_traits@D@std@@V?$allocator@D@2@@std@@@8 ; std::basic_ostringstream<char,std::char_traits<char>,std::allocator<char> >::`RTTI Base Class Descriptor at (0,-1,0,64)'
	DD	04H
	DD	00H
	DD	0ffffffffH
	DD	00H
	DD	040H
	DD	FLAT:??_R3?$basic_ostringstream@DU?$char_traits@D@std@@V?$allocator@D@2@@std@@8
rdata$r	ENDS
;	COMDAT ??_R2?$basic_ostringstream@DU?$char_traits@D@std@@V?$allocator@D@2@@std@@8
rdata$r	SEGMENT
??_R2?$basic_ostringstream@DU?$char_traits@D@std@@V?$allocator@D@2@@std@@8 DD FLAT:??_R1A@?0A@EA@?$basic_ostringstream@DU?$char_traits@D@std@@V?$allocator@D@2@@std@@8 ; std::basic_ostringstream<char,std::char_traits<char>,std::allocator<char> >::`RTTI Base Class Array'
	DD	FLAT:??_R1A@?0A@EA@?$basic_ostream@DU?$char_traits@D@std@@@std@@8
	DD	FLAT:??_R1A@A@3FA@?$basic_ios@DU?$char_traits@D@std@@@std@@8
	DD	FLAT:??_R1A@A@3EA@ios_base@std@@8
	DD	FLAT:??_R17A@3EA@?$_Iosb@H@std@@8
rdata$r	ENDS
;	COMDAT ??_R3?$basic_ostringstream@DU?$char_traits@D@std@@V?$allocator@D@2@@std@@8
rdata$r	SEGMENT
??_R3?$basic_ostringstream@DU?$char_traits@D@std@@V?$allocator@D@2@@std@@8 DD 00H ; std::basic_ostringstream<char,std::char_traits<char>,std::allocator<char> >::`RTTI Class Hierarchy Descriptor'
	DD	00H
	DD	05H
	DD	FLAT:??_R2?$basic_ostringstream@DU?$char_traits@D@std@@V?$allocator@D@2@@std@@8
rdata$r	ENDS
;	COMDAT ??_R0?AV?$basic_ostringstream@DU?$char_traits@D@std@@V?$allocator@D@2@@std@@@8
_DATA	SEGMENT
??_R0?AV?$basic_ostringstream@DU?$char_traits@D@std@@V?$allocator@D@2@@std@@@8 DD FLAT:??_7type_info@@6B@ ; std::basic_ostringstream<char,std::char_traits<char>,std::allocator<char> > `RTTI Type Descriptor'
	DD	00H
	DB	'.?AV?$basic_ostringstream@DU?$char_traits@D@std@@V?$allo'
	DB	'cator@D@2@@std@@', 00H
_DATA	ENDS
;	COMDAT ??_R4?$basic_ostringstream@DU?$char_traits@D@std@@V?$allocator@D@2@@std@@6B@
rdata$r	SEGMENT
??_R4?$basic_ostringstream@DU?$char_traits@D@std@@V?$allocator@D@2@@std@@6B@ DD 00H ; std::basic_ostringstream<char,std::char_traits<char>,std::allocator<char> >::`RTTI Complete Object Locator'
	DD	050H
	DD	00H
	DD	FLAT:??_R0?AV?$basic_ostringstream@DU?$char_traits@D@std@@V?$allocator@D@2@@std@@@8
	DD	FLAT:??_R3?$basic_ostringstream@DU?$char_traits@D@std@@V?$allocator@D@2@@std@@8
rdata$r	ENDS
;	COMDAT ??_7?$basic_ostringstream@DU?$char_traits@D@std@@V?$allocator@D@2@@std@@6B@
CONST	SEGMENT
??_7?$basic_ostringstream@DU?$char_traits@D@std@@V?$allocator@D@2@@std@@6B@ DD FLAT:??_R4?$basic_ostringstream@DU?$char_traits@D@std@@V?$allocator@D@2@@std@@6B@ ; std::basic_ostringstream<char,std::char_traits<char>,std::allocator<char> >::`vftable'
	DD	FLAT:??_E?$basic_ostringstream@DU?$char_traits@D@std@@V?$allocator@D@2@@std@@UAEPAXI@Z
CONST	ENDS
;	COMDAT ??_8?$basic_ostringstream@DU?$char_traits@D@std@@V?$allocator@D@2@@std@@7B@
CONST	SEGMENT
??_8?$basic_ostringstream@DU?$char_traits@D@std@@V?$allocator@D@2@@std@@7B@ DD 00H ; std::basic_ostringstream<char,std::char_traits<char>,std::allocator<char> >::`vbtable'
	DD	050H
CONST	ENDS
;	COMDAT xdata$x
xdata$x	SEGMENT
__unwindtable$??0?$basic_ostringstream@DU?$char_traits@D@std@@V?$allocator@D@2@@std@@QAE@H@Z DD 0ffffffffH
	DD	FLAT:__unwindfunclet$??0?$basic_ostringstream@DU?$char_traits@D@std@@V?$allocator@D@2@@std@@QAE@H@Z$0
	DD	00H
	DD	FLAT:__unwindfunclet$??0?$basic_ostringstream@DU?$char_traits@D@std@@V?$allocator@D@2@@std@@QAE@H@Z$1
__ehfuncinfo$??0?$basic_ostringstream@DU?$char_traits@D@std@@V?$allocator@D@2@@std@@QAE@H@Z DD 019930522H
	DD	02H
	DD	FLAT:__unwindtable$??0?$basic_ostringstream@DU?$char_traits@D@std@@V?$allocator@D@2@@std@@QAE@H@Z
	DD	2 DUP(00H)
	DD	2 DUP(00H)
	DD	00H
	DD	01H
; Function compile flags: /Odtp /RTCsu
xdata$x	ENDS
;	COMDAT ??0?$basic_ostringstream@DU?$char_traits@D@std@@V?$allocator@D@2@@std@@QAE@H@Z
_TEXT	SEGMENT
$T147445 = -20						; size = 4
_this$ = -16						; size = 4
__$EHRec$ = -12						; size = 12
__Mode$ = 8						; size = 4
_$initVBases$ = 12					; size = 4
??0?$basic_ostringstream@DU?$char_traits@D@std@@V?$allocator@D@2@@std@@QAE@H@Z PROC ; std::basic_ostringstream<char,std::char_traits<char>,std::allocator<char> >::basic_ostringstream<char,std::char_traits<char>,std::allocator<char> >, COMDAT
; _this$ = ecx

; 537  : 		{	// construct empty writable character buffer

	push	ebp
	mov	ebp, esp
	push	-1
	push	__ehhandler$??0?$basic_ostringstream@DU?$char_traits@D@std@@V?$allocator@D@2@@std@@QAE@H@Z
	mov	eax, DWORD PTR fs:0
	push	eax
	sub	esp, 8
	mov	DWORD PTR [ebp-20], -858993460		; ccccccccH
	mov	DWORD PTR [ebp-16], -858993460		; ccccccccH
	mov	eax, DWORD PTR ___security_cookie
	xor	eax, ebp
	push	eax
	lea	eax, DWORD PTR __$EHRec$[ebp]
	mov	DWORD PTR fs:0, eax
	mov	DWORD PTR _this$[ebp], ecx
	mov	DWORD PTR $T147445[ebp], 0
	cmp	DWORD PTR _$initVBases$[ebp], 0
	je	SHORT $LN1@basic_ostr
	mov	eax, DWORD PTR _this$[ebp]
	mov	DWORD PTR [eax], OFFSET ??_8?$basic_ostringstream@DU?$char_traits@D@std@@V?$allocator@D@2@@std@@7B@
	mov	ecx, DWORD PTR _this$[ebp]
	add	ecx, 80					; 00000050H
	call	??0?$basic_ios@DU?$char_traits@D@std@@@std@@IAE@XZ ; std::basic_ios<char,std::char_traits<char> >::basic_ios<char,std::char_traits<char> >
	mov	DWORD PTR __$EHRec$[ebp+8], 0
	mov	ecx, DWORD PTR $T147445[ebp]
	or	ecx, 1
	mov	DWORD PTR $T147445[ebp], ecx
$LN1@basic_ostr:
	push	0
	push	0
	mov	edx, DWORD PTR _this$[ebp]
	add	edx, 4
	push	edx
	mov	ecx, DWORD PTR _this$[ebp]
	call	??0?$basic_ostream@DU?$char_traits@D@std@@@std@@QAE@PAV?$basic_streambuf@DU?$char_traits@D@std@@@1@_N@Z ; std::basic_ostream<char,std::char_traits<char> >::basic_ostream<char,std::char_traits<char> >
	mov	DWORD PTR __$EHRec$[ebp+8], 1
	mov	eax, DWORD PTR _this$[ebp]
	mov	ecx, DWORD PTR [eax]
	mov	edx, DWORD PTR [ecx+4]
	mov	eax, DWORD PTR _this$[ebp]
	mov	DWORD PTR [eax+edx], OFFSET ??_7?$basic_ostringstream@DU?$char_traits@D@std@@V?$allocator@D@2@@std@@6B@
	mov	ecx, DWORD PTR __Mode$[ebp]
	or	ecx, 2
	push	ecx
	mov	ecx, DWORD PTR _this$[ebp]
	add	ecx, 4
	call	??0?$basic_stringbuf@DU?$char_traits@D@std@@V?$allocator@D@2@@std@@QAE@H@Z ; std::basic_stringbuf<char,std::char_traits<char>,std::allocator<char> >::basic_stringbuf<char,std::char_traits<char>,std::allocator<char> >

; 538  : 		}

	mov	DWORD PTR __$EHRec$[ebp+8], -1
	mov	eax, DWORD PTR _this$[ebp]
	mov	ecx, DWORD PTR __$EHRec$[ebp]
	mov	DWORD PTR fs:0, ecx
	pop	ecx
	add	esp, 20					; 00000014H
	cmp	ebp, esp
	call	__RTC_CheckEsp
	mov	esp, ebp
	pop	ebp
	ret	8
_TEXT	ENDS
;	COMDAT text$x
text$x	SEGMENT
__unwindfunclet$??0?$basic_ostringstream@DU?$char_traits@D@std@@V?$allocator@D@2@@std@@QAE@H@Z$0:
	mov	eax, DWORD PTR $T147445[ebp]
	and	eax, 1
	je	$LN5@basic_ostr
	and	DWORD PTR $T147445[ebp], -2		; fffffffeH
	mov	ecx, DWORD PTR _this$[ebp]
	add	ecx, 80					; 00000050H
	jmp	??1?$basic_ios@DU?$char_traits@D@std@@@std@@UAE@XZ ; std::basic_ios<char,std::char_traits<char> >::~basic_ios<char,std::char_traits<char> >
$LN5@basic_ostr:
	ret	0
__unwindfunclet$??0?$basic_ostringstream@DU?$char_traits@D@std@@V?$allocator@D@2@@std@@QAE@H@Z$1:
	mov	ecx, DWORD PTR _this$[ebp]
	add	ecx, 8
	jmp	??1?$basic_ostream@DU?$char_traits@D@std@@@std@@UAE@XZ ; std::basic_ostream<char,std::char_traits<char> >::~basic_ostream<char,std::char_traits<char> >
__ehhandler$??0?$basic_ostringstream@DU?$char_traits@D@std@@V?$allocator@D@2@@std@@QAE@H@Z:
	mov	edx, DWORD PTR [esp+8]
	lea	eax, DWORD PTR [edx+12]
	mov	ecx, DWORD PTR [edx-12]
	xor	ecx, eax
	call	@__security_check_cookie@4
	mov	eax, OFFSET __ehfuncinfo$??0?$basic_ostringstream@DU?$char_traits@D@std@@V?$allocator@D@2@@std@@QAE@H@Z
	jmp	___CxxFrameHandler3
text$x	ENDS
??0?$basic_ostringstream@DU?$char_traits@D@std@@V?$allocator@D@2@@std@@QAE@H@Z ENDP ; std::basic_ostringstream<char,std::char_traits<char>,std::allocator<char> >::basic_ostringstream<char,std::char_traits<char>,std::allocator<char> >
PUBLIC	??_7?$basic_ostream@DU?$char_traits@D@std@@@std@@6B@ ; std::basic_ostream<char,std::char_traits<char> >::`vftable'
PUBLIC	??_R4?$basic_ostream@DU?$char_traits@D@std@@@std@@6B@ ; std::basic_ostream<char,std::char_traits<char> >::`RTTI Complete Object Locator'
EXTRN	??_E?$basic_ostream@DU?$char_traits@D@std@@@std@@UAEPAXI@Z:PROC ; std::basic_ostream<char,std::char_traits<char> >::`vector deleting destructor'
;	COMDAT ??_R4?$basic_ostream@DU?$char_traits@D@std@@@std@@6B@
; File c:\program files (x86)\microsoft visual studio 10.0\vc\include\ostream
rdata$r	SEGMENT
??_R4?$basic_ostream@DU?$char_traits@D@std@@@std@@6B@ DD 00H ; std::basic_ostream<char,std::char_traits<char> >::`RTTI Complete Object Locator'
	DD	08H
	DD	00H
	DD	FLAT:??_R0?AV?$basic_ostream@DU?$char_traits@D@std@@@std@@@8
	DD	FLAT:??_R3?$basic_ostream@DU?$char_traits@D@std@@@std@@8
rdata$r	ENDS
;	COMDAT ??_7?$basic_ostream@DU?$char_traits@D@std@@@std@@6B@
CONST	SEGMENT
??_7?$basic_ostream@DU?$char_traits@D@std@@@std@@6B@ DD FLAT:??_R4?$basic_ostream@DU?$char_traits@D@std@@@std@@6B@ ; std::basic_ostream<char,std::char_traits<char> >::`vftable'
	DD	FLAT:??_E?$basic_ostream@DU?$char_traits@D@std@@@std@@UAEPAXI@Z
; Function compile flags: /Odtp /RTCsu
CONST	ENDS
;	COMDAT ??1?$basic_ostream@DU?$char_traits@D@std@@@std@@UAE@XZ
_TEXT	SEGMENT
_this$ = -4						; size = 4
??1?$basic_ostream@DU?$char_traits@D@std@@@std@@UAE@XZ PROC ; std::basic_ostream<char,std::char_traits<char> >::~basic_ostream<char,std::char_traits<char> >, COMDAT
; _this$ = ecx

; 79   : 		{	// destroy the object

	push	ebp
	mov	ebp, esp
	push	ecx
	mov	DWORD PTR [ebp-4], -858993460		; ccccccccH
	mov	DWORD PTR _this$[ebp], ecx
	mov	eax, DWORD PTR _this$[ebp]
	mov	ecx, DWORD PTR [eax-8]
	mov	edx, DWORD PTR [ecx+4]
	mov	eax, DWORD PTR _this$[ebp]
	mov	DWORD PTR [eax+edx-8], OFFSET ??_7?$basic_ostream@DU?$char_traits@D@std@@@std@@6B@

; 80   : 		}

	mov	esp, ebp
	pop	ebp
	ret	0
??1?$basic_ostream@DU?$char_traits@D@std@@@std@@UAE@XZ ENDP ; std::basic_ostream<char,std::char_traits<char> >::~basic_ostream<char,std::char_traits<char> >
_TEXT	ENDS
PUBLIC	??_D?$basic_ostream@DU?$char_traits@D@std@@@std@@QAEXXZ ; std::basic_ostream<char,std::char_traits<char> >::`vbase destructor'
; Function compile flags: /Odtp /RTCsu
;	COMDAT ??_G?$basic_ostream@DU?$char_traits@D@std@@@std@@UAEPAXI@Z
_TEXT	SEGMENT
_this$ = -4						; size = 4
___flags$ = 8						; size = 4
??_G?$basic_ostream@DU?$char_traits@D@std@@@std@@UAEPAXI@Z PROC ; std::basic_ostream<char,std::char_traits<char> >::`scalar deleting destructor', COMDAT
; _this$ = ecx
	push	ebp
	mov	ebp, esp
	push	ecx
	mov	DWORD PTR [ebp-4], -858993460		; ccccccccH
	mov	DWORD PTR _this$[ebp], ecx
	mov	ecx, DWORD PTR _this$[ebp]
	sub	ecx, 8
	call	??_D?$basic_ostream@DU?$char_traits@D@std@@@std@@QAEXXZ
	mov	eax, DWORD PTR ___flags$[ebp]
	and	eax, 1
	je	SHORT $LN1@scalar@7
	mov	ecx, DWORD PTR _this$[ebp]
	sub	ecx, 8
	push	ecx
	call	??3@YAXPAX@Z				; operator delete
	add	esp, 4
$LN1@scalar@7:
	mov	eax, DWORD PTR _this$[ebp]
	sub	eax, 8
	add	esp, 4
	cmp	ebp, esp
	call	__RTC_CheckEsp
	mov	esp, ebp
	pop	ebp
	ret	4
??_G?$basic_ostream@DU?$char_traits@D@std@@@std@@UAEPAXI@Z ENDP ; std::basic_ostream<char,std::char_traits<char> >::`scalar deleting destructor'
; Function compile flags: /Odtp /RTCsu
_TEXT	ENDS
;	COMDAT ??_D?$basic_ostream@DU?$char_traits@D@std@@@std@@QAEXXZ
_TEXT	SEGMENT
_this$ = -4						; size = 4
??_D?$basic_ostream@DU?$char_traits@D@std@@@std@@QAEXXZ PROC ; std::basic_ostream<char,std::char_traits<char> >::`vbase destructor', COMDAT
; _this$ = ecx
	push	ebp
	mov	ebp, esp
	push	ecx
	mov	DWORD PTR [ebp-4], -858993460		; ccccccccH
	mov	DWORD PTR _this$[ebp], ecx
	mov	ecx, DWORD PTR _this$[ebp]
	add	ecx, 8
	call	??1?$basic_ostream@DU?$char_traits@D@std@@@std@@UAE@XZ ; std::basic_ostream<char,std::char_traits<char> >::~basic_ostream<char,std::char_traits<char> >
	mov	ecx, DWORD PTR _this$[ebp]
	add	ecx, 8
	call	??1?$basic_ios@DU?$char_traits@D@std@@@std@@UAE@XZ ; std::basic_ios<char,std::char_traits<char> >::~basic_ios<char,std::char_traits<char> >
	add	esp, 4
	cmp	ebp, esp
	call	__RTC_CheckEsp
	mov	esp, ebp
	pop	ebp
	ret	0
??_D?$basic_ostream@DU?$char_traits@D@std@@@std@@QAEXXZ ENDP ; std::basic_ostream<char,std::char_traits<char> >::`vbase destructor'
_TEXT	ENDS
PUBLIC	??1?$basic_stringbuf@DU?$char_traits@D@std@@V?$allocator@D@2@@std@@UAE@XZ ; std::basic_stringbuf<char,std::char_traits<char>,std::allocator<char> >::~basic_stringbuf<char,std::char_traits<char>,std::allocator<char> >
;	COMDAT xdata$x
; File c:\program files (x86)\microsoft visual studio 10.0\vc\include\sstream
xdata$x	SEGMENT
__unwindtable$??1?$basic_ostringstream@DU?$char_traits@D@std@@V?$allocator@D@2@@std@@UAE@XZ DD 0ffffffffH
	DD	FLAT:__unwindfunclet$??1?$basic_ostringstream@DU?$char_traits@D@std@@V?$allocator@D@2@@std@@UAE@XZ$0
__ehfuncinfo$??1?$basic_ostringstream@DU?$char_traits@D@std@@V?$allocator@D@2@@std@@UAE@XZ DD 019930522H
	DD	01H
	DD	FLAT:__unwindtable$??1?$basic_ostringstream@DU?$char_traits@D@std@@V?$allocator@D@2@@std@@UAE@XZ
	DD	2 DUP(00H)
	DD	2 DUP(00H)
	DD	00H
	DD	01H
; Function compile flags: /Odtp /RTCsu
xdata$x	ENDS
;	COMDAT ??1?$basic_ostringstream@DU?$char_traits@D@std@@V?$allocator@D@2@@std@@UAE@XZ
_TEXT	SEGMENT
_this$ = -16						; size = 4
__$EHRec$ = -12						; size = 12
??1?$basic_ostringstream@DU?$char_traits@D@std@@V?$allocator@D@2@@std@@UAE@XZ PROC ; std::basic_ostringstream<char,std::char_traits<char>,std::allocator<char> >::~basic_ostringstream<char,std::char_traits<char>,std::allocator<char> >, COMDAT
; _this$ = ecx

; 583  : 		{	// destroy the object

	push	ebp
	mov	ebp, esp
	push	-1
	push	__ehhandler$??1?$basic_ostringstream@DU?$char_traits@D@std@@V?$allocator@D@2@@std@@UAE@XZ
	mov	eax, DWORD PTR fs:0
	push	eax
	push	ecx
	mov	DWORD PTR [ebp-16], -858993460		; ccccccccH
	mov	eax, DWORD PTR ___security_cookie
	xor	eax, ebp
	push	eax
	lea	eax, DWORD PTR __$EHRec$[ebp]
	mov	DWORD PTR fs:0, eax
	mov	DWORD PTR _this$[ebp], ecx
	mov	eax, DWORD PTR _this$[ebp]
	mov	ecx, DWORD PTR [eax-80]
	mov	edx, DWORD PTR [ecx+4]
	mov	eax, DWORD PTR _this$[ebp]
	mov	DWORD PTR [eax+edx-80], OFFSET ??_7?$basic_ostringstream@DU?$char_traits@D@std@@V?$allocator@D@2@@std@@6B@
	mov	DWORD PTR __$EHRec$[ebp+8], 0

; 584  : 		}

	mov	ecx, DWORD PTR _this$[ebp]
	sub	ecx, 76					; 0000004cH
	call	??1?$basic_stringbuf@DU?$char_traits@D@std@@V?$allocator@D@2@@std@@UAE@XZ ; std::basic_stringbuf<char,std::char_traits<char>,std::allocator<char> >::~basic_stringbuf<char,std::char_traits<char>,std::allocator<char> >
	mov	DWORD PTR __$EHRec$[ebp+8], -1
	mov	ecx, DWORD PTR _this$[ebp]
	sub	ecx, 72					; 00000048H
	call	??1?$basic_ostream@DU?$char_traits@D@std@@@std@@UAE@XZ ; std::basic_ostream<char,std::char_traits<char> >::~basic_ostream<char,std::char_traits<char> >
	mov	ecx, DWORD PTR __$EHRec$[ebp]
	mov	DWORD PTR fs:0, ecx
	pop	ecx
	add	esp, 16					; 00000010H
	cmp	ebp, esp
	call	__RTC_CheckEsp
	mov	esp, ebp
	pop	ebp
	ret	0
_TEXT	ENDS
;	COMDAT text$x
text$x	SEGMENT
__unwindfunclet$??1?$basic_ostringstream@DU?$char_traits@D@std@@V?$allocator@D@2@@std@@UAE@XZ$0:
	mov	ecx, DWORD PTR _this$[ebp]
	sub	ecx, 72					; 00000048H
	jmp	??1?$basic_ostream@DU?$char_traits@D@std@@@std@@UAE@XZ ; std::basic_ostream<char,std::char_traits<char> >::~basic_ostream<char,std::char_traits<char> >
__ehhandler$??1?$basic_ostringstream@DU?$char_traits@D@std@@V?$allocator@D@2@@std@@UAE@XZ:
	mov	edx, DWORD PTR [esp+8]
	lea	eax, DWORD PTR [edx+12]
	mov	ecx, DWORD PTR [edx-8]
	xor	ecx, eax
	call	@__security_check_cookie@4
	mov	eax, OFFSET __ehfuncinfo$??1?$basic_ostringstream@DU?$char_traits@D@std@@V?$allocator@D@2@@std@@UAE@XZ
	jmp	___CxxFrameHandler3
text$x	ENDS
??1?$basic_ostringstream@DU?$char_traits@D@std@@V?$allocator@D@2@@std@@UAE@XZ ENDP ; std::basic_ostringstream<char,std::char_traits<char>,std::allocator<char> >::~basic_ostringstream<char,std::char_traits<char>,std::allocator<char> >
PUBLIC	?str@?$basic_stringbuf@DU?$char_traits@D@std@@V?$allocator@D@2@@std@@QBE?AV?$basic_string@DU?$char_traits@D@std@@V?$allocator@D@2@@2@XZ ; std::basic_stringbuf<char,std::char_traits<char>,std::allocator<char> >::str
; Function compile flags: /Odtp /RTCsu
;	COMDAT ?str@?$basic_ostringstream@DU?$char_traits@D@std@@V?$allocator@D@2@@std@@QBE?AV?$basic_string@DU?$char_traits@D@std@@V?$allocator@D@2@@2@XZ
_TEXT	SEGMENT
$T147475 = -8						; size = 4
_this$ = -4						; size = 4
___$ReturnUdt$ = 8					; size = 4
?str@?$basic_ostringstream@DU?$char_traits@D@std@@V?$allocator@D@2@@std@@QBE?AV?$basic_string@DU?$char_traits@D@std@@V?$allocator@D@2@@2@XZ PROC ; std::basic_ostringstream<char,std::char_traits<char>,std::allocator<char> >::str, COMDAT
; _this$ = ecx

; 592  : 		{	// return string copy of character array

	push	ebp
	mov	ebp, esp
	sub	esp, 8
	mov	DWORD PTR [ebp-8], -858993460		; ccccccccH
	mov	DWORD PTR [ebp-4], -858993460		; ccccccccH
	mov	DWORD PTR _this$[ebp], ecx
	mov	DWORD PTR $T147475[ebp], 0

; 593  : 		return (_Stringbuffer.str());

	mov	eax, DWORD PTR ___$ReturnUdt$[ebp]
	push	eax
	mov	ecx, DWORD PTR _this$[ebp]
	add	ecx, 4
	call	?str@?$basic_stringbuf@DU?$char_traits@D@std@@V?$allocator@D@2@@std@@QBE?AV?$basic_string@DU?$char_traits@D@std@@V?$allocator@D@2@@2@XZ ; std::basic_stringbuf<char,std::char_traits<char>,std::allocator<char> >::str
	mov	ecx, DWORD PTR $T147475[ebp]
	or	ecx, 1
	mov	DWORD PTR $T147475[ebp], ecx
	mov	eax, DWORD PTR ___$ReturnUdt$[ebp]

; 594  : 		}

	add	esp, 8
	cmp	ebp, esp
	call	__RTC_CheckEsp
	mov	esp, ebp
	pop	ebp
	ret	4
?str@?$basic_ostringstream@DU?$char_traits@D@std@@V?$allocator@D@2@@std@@QBE?AV?$basic_string@DU?$char_traits@D@std@@V?$allocator@D@2@@2@XZ ENDP ; std::basic_ostringstream<char,std::char_traits<char>,std::allocator<char> >::str
_TEXT	ENDS
PUBLIC	??1?$basic_streambuf@DU?$char_traits@D@std@@@std@@UAE@XZ ; std::basic_streambuf<char,std::char_traits<char> >::~basic_streambuf<char,std::char_traits<char> >
PUBLIC	?_Tidy@?$basic_stringbuf@DU?$char_traits@D@std@@V?$allocator@D@2@@std@@IAEXXZ ; std::basic_stringbuf<char,std::char_traits<char>,std::allocator<char> >::_Tidy
PUBLIC	??_7?$basic_stringbuf@DU?$char_traits@D@std@@V?$allocator@D@2@@std@@6B@ ; std::basic_stringbuf<char,std::char_traits<char>,std::allocator<char> >::`vftable'
PUBLIC	??_R4?$basic_stringbuf@DU?$char_traits@D@std@@V?$allocator@D@2@@std@@6B@ ; std::basic_stringbuf<char,std::char_traits<char>,std::allocator<char> >::`RTTI Complete Object Locator'
PUBLIC	??_R0?AV?$basic_stringbuf@DU?$char_traits@D@std@@V?$allocator@D@2@@std@@@8 ; std::basic_stringbuf<char,std::char_traits<char>,std::allocator<char> > `RTTI Type Descriptor'
PUBLIC	??_R3?$basic_stringbuf@DU?$char_traits@D@std@@V?$allocator@D@2@@std@@8 ; std::basic_stringbuf<char,std::char_traits<char>,std::allocator<char> >::`RTTI Class Hierarchy Descriptor'
PUBLIC	??_R2?$basic_stringbuf@DU?$char_traits@D@std@@V?$allocator@D@2@@std@@8 ; std::basic_stringbuf<char,std::char_traits<char>,std::allocator<char> >::`RTTI Base Class Array'
PUBLIC	??_R1A@?0A@EA@?$basic_stringbuf@DU?$char_traits@D@std@@V?$allocator@D@2@@std@@8 ; std::basic_stringbuf<char,std::char_traits<char>,std::allocator<char> >::`RTTI Base Class Descriptor at (0,-1,0,64)'
PUBLIC	??_R1A@?0A@EA@?$basic_streambuf@DU?$char_traits@D@std@@@std@@8 ; std::basic_streambuf<char,std::char_traits<char> >::`RTTI Base Class Descriptor at (0,-1,0,64)'
PUBLIC	??_R0?AV?$basic_streambuf@DU?$char_traits@D@std@@@std@@@8 ; std::basic_streambuf<char,std::char_traits<char> > `RTTI Type Descriptor'
PUBLIC	??_R3?$basic_streambuf@DU?$char_traits@D@std@@@std@@8 ; std::basic_streambuf<char,std::char_traits<char> >::`RTTI Class Hierarchy Descriptor'
PUBLIC	??_R2?$basic_streambuf@DU?$char_traits@D@std@@@std@@8 ; std::basic_streambuf<char,std::char_traits<char> >::`RTTI Base Class Array'
PUBLIC	?_Lock@?$basic_streambuf@DU?$char_traits@D@std@@@std@@UAEXXZ ; std::basic_streambuf<char,std::char_traits<char> >::_Lock
PUBLIC	?_Unlock@?$basic_streambuf@DU?$char_traits@D@std@@@std@@UAEXXZ ; std::basic_streambuf<char,std::char_traits<char> >::_Unlock
PUBLIC	?overflow@?$basic_stringbuf@DU?$char_traits@D@std@@V?$allocator@D@2@@std@@MAEHH@Z ; std::basic_stringbuf<char,std::char_traits<char>,std::allocator<char> >::overflow
PUBLIC	?pbackfail@?$basic_stringbuf@DU?$char_traits@D@std@@V?$allocator@D@2@@std@@MAEHH@Z ; std::basic_stringbuf<char,std::char_traits<char>,std::allocator<char> >::pbackfail
PUBLIC	?showmanyc@?$basic_streambuf@DU?$char_traits@D@std@@@std@@MAE_JXZ ; std::basic_streambuf<char,std::char_traits<char> >::showmanyc
PUBLIC	?underflow@?$basic_stringbuf@DU?$char_traits@D@std@@V?$allocator@D@2@@std@@MAEHXZ ; std::basic_stringbuf<char,std::char_traits<char>,std::allocator<char> >::underflow
PUBLIC	?uflow@?$basic_streambuf@DU?$char_traits@D@std@@@std@@MAEHXZ ; std::basic_streambuf<char,std::char_traits<char> >::uflow
PUBLIC	?xsgetn@?$basic_streambuf@DU?$char_traits@D@std@@@std@@MAE_JPAD_J@Z ; std::basic_streambuf<char,std::char_traits<char> >::xsgetn
PUBLIC	?xsputn@?$basic_streambuf@DU?$char_traits@D@std@@@std@@MAE_JPBD_J@Z ; std::basic_streambuf<char,std::char_traits<char> >::xsputn
PUBLIC	?seekoff@?$basic_stringbuf@DU?$char_traits@D@std@@V?$allocator@D@2@@std@@MAE?AV?$fpos@H@2@_JHH@Z ; std::basic_stringbuf<char,std::char_traits<char>,std::allocator<char> >::seekoff
PUBLIC	?seekpos@?$basic_stringbuf@DU?$char_traits@D@std@@V?$allocator@D@2@@std@@MAE?AV?$fpos@H@2@V32@H@Z ; std::basic_stringbuf<char,std::char_traits<char>,std::allocator<char> >::seekpos
PUBLIC	?setbuf@?$basic_streambuf@DU?$char_traits@D@std@@@std@@MAEPAV12@PAD_J@Z ; std::basic_streambuf<char,std::char_traits<char> >::setbuf
PUBLIC	?sync@?$basic_streambuf@DU?$char_traits@D@std@@@std@@MAEHXZ ; std::basic_streambuf<char,std::char_traits<char> >::sync
PUBLIC	?imbue@?$basic_streambuf@DU?$char_traits@D@std@@@std@@MAEXABVlocale@2@@Z ; std::basic_streambuf<char,std::char_traits<char> >::imbue
EXTRN	??_E?$basic_stringbuf@DU?$char_traits@D@std@@V?$allocator@D@2@@std@@UAEPAXI@Z:PROC ; std::basic_stringbuf<char,std::char_traits<char>,std::allocator<char> >::`vector deleting destructor'
;	COMDAT ??_R2?$basic_streambuf@DU?$char_traits@D@std@@@std@@8
rdata$r	SEGMENT
??_R2?$basic_streambuf@DU?$char_traits@D@std@@@std@@8 DD FLAT:??_R1A@?0A@EA@?$basic_streambuf@DU?$char_traits@D@std@@@std@@8 ; std::basic_streambuf<char,std::char_traits<char> >::`RTTI Base Class Array'
rdata$r	ENDS
;	COMDAT ??_R3?$basic_streambuf@DU?$char_traits@D@std@@@std@@8
rdata$r	SEGMENT
??_R3?$basic_streambuf@DU?$char_traits@D@std@@@std@@8 DD 00H ; std::basic_streambuf<char,std::char_traits<char> >::`RTTI Class Hierarchy Descriptor'
	DD	00H
	DD	01H
	DD	FLAT:??_R2?$basic_streambuf@DU?$char_traits@D@std@@@std@@8
rdata$r	ENDS
;	COMDAT ??_R0?AV?$basic_streambuf@DU?$char_traits@D@std@@@std@@@8
_DATA	SEGMENT
??_R0?AV?$basic_streambuf@DU?$char_traits@D@std@@@std@@@8 DD FLAT:??_7type_info@@6B@ ; std::basic_streambuf<char,std::char_traits<char> > `RTTI Type Descriptor'
	DD	00H
	DB	'.?AV?$basic_streambuf@DU?$char_traits@D@std@@@std@@', 00H
_DATA	ENDS
;	COMDAT ??_R1A@?0A@EA@?$basic_streambuf@DU?$char_traits@D@std@@@std@@8
rdata$r	SEGMENT
??_R1A@?0A@EA@?$basic_streambuf@DU?$char_traits@D@std@@@std@@8 DD FLAT:??_R0?AV?$basic_streambuf@DU?$char_traits@D@std@@@std@@@8 ; std::basic_streambuf<char,std::char_traits<char> >::`RTTI Base Class Descriptor at (0,-1,0,64)'
	DD	00H
	DD	00H
	DD	0ffffffffH
	DD	00H
	DD	040H
	DD	FLAT:??_R3?$basic_streambuf@DU?$char_traits@D@std@@@std@@8
rdata$r	ENDS
;	COMDAT ??_R1A@?0A@EA@?$basic_stringbuf@DU?$char_traits@D@std@@V?$allocator@D@2@@std@@8
rdata$r	SEGMENT
??_R1A@?0A@EA@?$basic_stringbuf@DU?$char_traits@D@std@@V?$allocator@D@2@@std@@8 DD FLAT:??_R0?AV?$basic_stringbuf@DU?$char_traits@D@std@@V?$allocator@D@2@@std@@@8 ; std::basic_stringbuf<char,std::char_traits<char>,std::allocator<char> >::`RTTI Base Class Descriptor at (0,-1,0,64)'
	DD	01H
	DD	00H
	DD	0ffffffffH
	DD	00H
	DD	040H
	DD	FLAT:??_R3?$basic_stringbuf@DU?$char_traits@D@std@@V?$allocator@D@2@@std@@8
rdata$r	ENDS
;	COMDAT ??_R2?$basic_stringbuf@DU?$char_traits@D@std@@V?$allocator@D@2@@std@@8
rdata$r	SEGMENT
??_R2?$basic_stringbuf@DU?$char_traits@D@std@@V?$allocator@D@2@@std@@8 DD FLAT:??_R1A@?0A@EA@?$basic_stringbuf@DU?$char_traits@D@std@@V?$allocator@D@2@@std@@8 ; std::basic_stringbuf<char,std::char_traits<char>,std::allocator<char> >::`RTTI Base Class Array'
	DD	FLAT:??_R1A@?0A@EA@?$basic_streambuf@DU?$char_traits@D@std@@@std@@8
rdata$r	ENDS
;	COMDAT ??_R3?$basic_stringbuf@DU?$char_traits@D@std@@V?$allocator@D@2@@std@@8
rdata$r	SEGMENT
??_R3?$basic_stringbuf@DU?$char_traits@D@std@@V?$allocator@D@2@@std@@8 DD 00H ; std::basic_stringbuf<char,std::char_traits<char>,std::allocator<char> >::`RTTI Class Hierarchy Descriptor'
	DD	00H
	DD	02H
	DD	FLAT:??_R2?$basic_stringbuf@DU?$char_traits@D@std@@V?$allocator@D@2@@std@@8
rdata$r	ENDS
;	COMDAT ??_R0?AV?$basic_stringbuf@DU?$char_traits@D@std@@V?$allocator@D@2@@std@@@8
_DATA	SEGMENT
??_R0?AV?$basic_stringbuf@DU?$char_traits@D@std@@V?$allocator@D@2@@std@@@8 DD FLAT:??_7type_info@@6B@ ; std::basic_stringbuf<char,std::char_traits<char>,std::allocator<char> > `RTTI Type Descriptor'
	DD	00H
	DB	'.?AV?$basic_stringbuf@DU?$char_traits@D@std@@V?$allocato'
	DB	'r@D@2@@std@@', 00H
_DATA	ENDS
;	COMDAT ??_R4?$basic_stringbuf@DU?$char_traits@D@std@@V?$allocator@D@2@@std@@6B@
rdata$r	SEGMENT
??_R4?$basic_stringbuf@DU?$char_traits@D@std@@V?$allocator@D@2@@std@@6B@ DD 00H ; std::basic_stringbuf<char,std::char_traits<char>,std::allocator<char> >::`RTTI Complete Object Locator'
	DD	00H
	DD	00H
	DD	FLAT:??_R0?AV?$basic_stringbuf@DU?$char_traits@D@std@@V?$allocator@D@2@@std@@@8
	DD	FLAT:??_R3?$basic_stringbuf@DU?$char_traits@D@std@@V?$allocator@D@2@@std@@8
rdata$r	ENDS
;	COMDAT ??_7?$basic_stringbuf@DU?$char_traits@D@std@@V?$allocator@D@2@@std@@6B@
CONST	SEGMENT
??_7?$basic_stringbuf@DU?$char_traits@D@std@@V?$allocator@D@2@@std@@6B@ DD FLAT:??_R4?$basic_stringbuf@DU?$char_traits@D@std@@V?$allocator@D@2@@std@@6B@ ; std::basic_stringbuf<char,std::char_traits<char>,std::allocator<char> >::`vftable'
	DD	FLAT:??_E?$basic_stringbuf@DU?$char_traits@D@std@@V?$allocator@D@2@@std@@UAEPAXI@Z
	DD	FLAT:?_Lock@?$basic_streambuf@DU?$char_traits@D@std@@@std@@UAEXXZ
	DD	FLAT:?_Unlock@?$basic_streambuf@DU?$char_traits@D@std@@@std@@UAEXXZ
	DD	FLAT:?overflow@?$basic_stringbuf@DU?$char_traits@D@std@@V?$allocator@D@2@@std@@MAEHH@Z
	DD	FLAT:?pbackfail@?$basic_stringbuf@DU?$char_traits@D@std@@V?$allocator@D@2@@std@@MAEHH@Z
	DD	FLAT:?showmanyc@?$basic_streambuf@DU?$char_traits@D@std@@@std@@MAE_JXZ
	DD	FLAT:?underflow@?$basic_stringbuf@DU?$char_traits@D@std@@V?$allocator@D@2@@std@@MAEHXZ
	DD	FLAT:?uflow@?$basic_streambuf@DU?$char_traits@D@std@@@std@@MAEHXZ
	DD	FLAT:?xsgetn@?$basic_streambuf@DU?$char_traits@D@std@@@std@@MAE_JPAD_J@Z
	DD	FLAT:?xsputn@?$basic_streambuf@DU?$char_traits@D@std@@@std@@MAE_JPBD_J@Z
	DD	FLAT:?seekoff@?$basic_stringbuf@DU?$char_traits@D@std@@V?$allocator@D@2@@std@@MAE?AV?$fpos@H@2@_JHH@Z
	DD	FLAT:?seekpos@?$basic_stringbuf@DU?$char_traits@D@std@@V?$allocator@D@2@@std@@MAE?AV?$fpos@H@2@V32@H@Z
	DD	FLAT:?setbuf@?$basic_streambuf@DU?$char_traits@D@std@@@std@@MAEPAV12@PAD_J@Z
	DD	FLAT:?sync@?$basic_streambuf@DU?$char_traits@D@std@@@std@@MAEHXZ
	DD	FLAT:?imbue@?$basic_streambuf@DU?$char_traits@D@std@@@std@@MAEXABVlocale@2@@Z
CONST	ENDS
;	COMDAT xdata$x
xdata$x	SEGMENT
__unwindtable$??1?$basic_stringbuf@DU?$char_traits@D@std@@V?$allocator@D@2@@std@@UAE@XZ DD 0ffffffffH
	DD	FLAT:__unwindfunclet$??1?$basic_stringbuf@DU?$char_traits@D@std@@V?$allocator@D@2@@std@@UAE@XZ$0
__ehfuncinfo$??1?$basic_stringbuf@DU?$char_traits@D@std@@V?$allocator@D@2@@std@@UAE@XZ DD 019930522H
	DD	01H
	DD	FLAT:__unwindtable$??1?$basic_stringbuf@DU?$char_traits@D@std@@V?$allocator@D@2@@std@@UAE@XZ
	DD	2 DUP(00H)
	DD	2 DUP(00H)
	DD	00H
	DD	01H
; Function compile flags: /Odtp /RTCsu
xdata$x	ENDS
;	COMDAT ??1?$basic_stringbuf@DU?$char_traits@D@std@@V?$allocator@D@2@@std@@UAE@XZ
_TEXT	SEGMENT
_this$ = -16						; size = 4
__$EHRec$ = -12						; size = 12
??1?$basic_stringbuf@DU?$char_traits@D@std@@V?$allocator@D@2@@std@@UAE@XZ PROC ; std::basic_stringbuf<char,std::char_traits<char>,std::allocator<char> >::~basic_stringbuf<char,std::char_traits<char>,std::allocator<char> >, COMDAT
; _this$ = ecx

; 75   : 		{	// destroy the object

	push	ebp
	mov	ebp, esp
	push	-1
	push	__ehhandler$??1?$basic_stringbuf@DU?$char_traits@D@std@@V?$allocator@D@2@@std@@UAE@XZ
	mov	eax, DWORD PTR fs:0
	push	eax
	push	ecx
	mov	DWORD PTR [ebp-16], -858993460		; ccccccccH
	mov	eax, DWORD PTR ___security_cookie
	xor	eax, ebp
	push	eax
	lea	eax, DWORD PTR __$EHRec$[ebp]
	mov	DWORD PTR fs:0, eax
	mov	DWORD PTR _this$[ebp], ecx
	mov	eax, DWORD PTR _this$[ebp]
	mov	DWORD PTR [eax], OFFSET ??_7?$basic_stringbuf@DU?$char_traits@D@std@@V?$allocator@D@2@@std@@6B@
	mov	DWORD PTR __$EHRec$[ebp+8], 0

; 76   : 		_Tidy();

	mov	ecx, DWORD PTR _this$[ebp]
	call	?_Tidy@?$basic_stringbuf@DU?$char_traits@D@std@@V?$allocator@D@2@@std@@IAEXXZ ; std::basic_stringbuf<char,std::char_traits<char>,std::allocator<char> >::_Tidy

; 77   : 		}

	mov	DWORD PTR __$EHRec$[ebp+8], -1
	mov	ecx, DWORD PTR _this$[ebp]
	call	??1?$basic_streambuf@DU?$char_traits@D@std@@@std@@UAE@XZ ; std::basic_streambuf<char,std::char_traits<char> >::~basic_streambuf<char,std::char_traits<char> >
	mov	ecx, DWORD PTR __$EHRec$[ebp]
	mov	DWORD PTR fs:0, ecx
	pop	ecx
	add	esp, 16					; 00000010H
	cmp	ebp, esp
	call	__RTC_CheckEsp
	mov	esp, ebp
	pop	ebp
	ret	0
_TEXT	ENDS
;	COMDAT text$x
text$x	SEGMENT
__unwindfunclet$??1?$basic_stringbuf@DU?$char_traits@D@std@@V?$allocator@D@2@@std@@UAE@XZ$0:
	mov	ecx, DWORD PTR _this$[ebp]
	jmp	??1?$basic_streambuf@DU?$char_traits@D@std@@@std@@UAE@XZ ; std::basic_streambuf<char,std::char_traits<char> >::~basic_streambuf<char,std::char_traits<char> >
__ehhandler$??1?$basic_stringbuf@DU?$char_traits@D@std@@V?$allocator@D@2@@std@@UAE@XZ:
	mov	edx, DWORD PTR [esp+8]
	lea	eax, DWORD PTR [edx+12]
	mov	ecx, DWORD PTR [edx-8]
	xor	ecx, eax
	call	@__security_check_cookie@4
	mov	eax, OFFSET __ehfuncinfo$??1?$basic_stringbuf@DU?$char_traits@D@std@@V?$allocator@D@2@@std@@UAE@XZ
	jmp	___CxxFrameHandler3
text$x	ENDS
??1?$basic_stringbuf@DU?$char_traits@D@std@@V?$allocator@D@2@@std@@UAE@XZ ENDP ; std::basic_stringbuf<char,std::char_traits<char>,std::allocator<char> >::~basic_stringbuf<char,std::char_traits<char>,std::allocator<char> >
PUBLIC	??$_DebugHeapDelete@Vlocale@std@@@std@@YAXPAVlocale@0@@Z ; std::_DebugHeapDelete<std::locale>
PUBLIC	??_7?$basic_streambuf@DU?$char_traits@D@std@@@std@@6B@ ; std::basic_streambuf<char,std::char_traits<char> >::`vftable'
PUBLIC	??_R4?$basic_streambuf@DU?$char_traits@D@std@@@std@@6B@ ; std::basic_streambuf<char,std::char_traits<char> >::`RTTI Complete Object Locator'
PUBLIC	?overflow@?$basic_streambuf@DU?$char_traits@D@std@@@std@@MAEHH@Z ; std::basic_streambuf<char,std::char_traits<char> >::overflow
PUBLIC	?pbackfail@?$basic_streambuf@DU?$char_traits@D@std@@@std@@MAEHH@Z ; std::basic_streambuf<char,std::char_traits<char> >::pbackfail
PUBLIC	?underflow@?$basic_streambuf@DU?$char_traits@D@std@@@std@@MAEHXZ ; std::basic_streambuf<char,std::char_traits<char> >::underflow
PUBLIC	?seekoff@?$basic_streambuf@DU?$char_traits@D@std@@@std@@MAE?AV?$fpos@H@2@_JHH@Z ; std::basic_streambuf<char,std::char_traits<char> >::seekoff
PUBLIC	?seekpos@?$basic_streambuf@DU?$char_traits@D@std@@@std@@MAE?AV?$fpos@H@2@V32@H@Z ; std::basic_streambuf<char,std::char_traits<char> >::seekpos
EXTRN	??1_Mutex@std@@QAE@XZ:PROC			; std::_Mutex::~_Mutex
EXTRN	??_E?$basic_streambuf@DU?$char_traits@D@std@@@std@@UAEPAXI@Z:PROC ; std::basic_streambuf<char,std::char_traits<char> >::`vector deleting destructor'
;	COMDAT ??_R4?$basic_streambuf@DU?$char_traits@D@std@@@std@@6B@
; File c:\program files (x86)\microsoft visual studio 10.0\vc\include\streambuf
rdata$r	SEGMENT
??_R4?$basic_streambuf@DU?$char_traits@D@std@@@std@@6B@ DD 00H ; std::basic_streambuf<char,std::char_traits<char> >::`RTTI Complete Object Locator'
	DD	00H
	DD	00H
	DD	FLAT:??_R0?AV?$basic_streambuf@DU?$char_traits@D@std@@@std@@@8
	DD	FLAT:??_R3?$basic_streambuf@DU?$char_traits@D@std@@@std@@8
rdata$r	ENDS
;	COMDAT ??_7?$basic_streambuf@DU?$char_traits@D@std@@@std@@6B@
CONST	SEGMENT
??_7?$basic_streambuf@DU?$char_traits@D@std@@@std@@6B@ DD FLAT:??_R4?$basic_streambuf@DU?$char_traits@D@std@@@std@@6B@ ; std::basic_streambuf<char,std::char_traits<char> >::`vftable'
	DD	FLAT:??_E?$basic_streambuf@DU?$char_traits@D@std@@@std@@UAEPAXI@Z
	DD	FLAT:?_Lock@?$basic_streambuf@DU?$char_traits@D@std@@@std@@UAEXXZ
	DD	FLAT:?_Unlock@?$basic_streambuf@DU?$char_traits@D@std@@@std@@UAEXXZ
	DD	FLAT:?overflow@?$basic_streambuf@DU?$char_traits@D@std@@@std@@MAEHH@Z
	DD	FLAT:?pbackfail@?$basic_streambuf@DU?$char_traits@D@std@@@std@@MAEHH@Z
	DD	FLAT:?showmanyc@?$basic_streambuf@DU?$char_traits@D@std@@@std@@MAE_JXZ
	DD	FLAT:?underflow@?$basic_streambuf@DU?$char_traits@D@std@@@std@@MAEHXZ
	DD	FLAT:?uflow@?$basic_streambuf@DU?$char_traits@D@std@@@std@@MAEHXZ
	DD	FLAT:?xsgetn@?$basic_streambuf@DU?$char_traits@D@std@@@std@@MAE_JPAD_J@Z
	DD	FLAT:?xsputn@?$basic_streambuf@DU?$char_traits@D@std@@@std@@MAE_JPBD_J@Z
	DD	FLAT:?seekoff@?$basic_streambuf@DU?$char_traits@D@std@@@std@@MAE?AV?$fpos@H@2@_JHH@Z
	DD	FLAT:?seekpos@?$basic_streambuf@DU?$char_traits@D@std@@@std@@MAE?AV?$fpos@H@2@V32@H@Z
	DD	FLAT:?setbuf@?$basic_streambuf@DU?$char_traits@D@std@@@std@@MAEPAV12@PAD_J@Z
	DD	FLAT:?sync@?$basic_streambuf@DU?$char_traits@D@std@@@std@@MAEHXZ
	DD	FLAT:?imbue@?$basic_streambuf@DU?$char_traits@D@std@@@std@@MAEXABVlocale@2@@Z
CONST	ENDS
;	COMDAT xdata$x
xdata$x	SEGMENT
__unwindtable$??1?$basic_streambuf@DU?$char_traits@D@std@@@std@@UAE@XZ DD 0ffffffffH
	DD	FLAT:__unwindfunclet$??1?$basic_streambuf@DU?$char_traits@D@std@@@std@@UAE@XZ$0
__ehfuncinfo$??1?$basic_streambuf@DU?$char_traits@D@std@@@std@@UAE@XZ DD 019930522H
	DD	01H
	DD	FLAT:__unwindtable$??1?$basic_streambuf@DU?$char_traits@D@std@@@std@@UAE@XZ
	DD	2 DUP(00H)
	DD	2 DUP(00H)
	DD	00H
	DD	01H
; Function compile flags: /Odtp /RTCsu
xdata$x	ENDS
;	COMDAT ??1?$basic_streambuf@DU?$char_traits@D@std@@@std@@UAE@XZ
_TEXT	SEGMENT
_this$ = -16						; size = 4
__$EHRec$ = -12						; size = 12
??1?$basic_streambuf@DU?$char_traits@D@std@@@std@@UAE@XZ PROC ; std::basic_streambuf<char,std::char_traits<char> >::~basic_streambuf<char,std::char_traits<char> >, COMDAT
; _this$ = ecx

; 79   : 		{	// destroy the object

	push	ebp
	mov	ebp, esp
	push	-1
	push	__ehhandler$??1?$basic_streambuf@DU?$char_traits@D@std@@@std@@UAE@XZ
	mov	eax, DWORD PTR fs:0
	push	eax
	push	ecx
	mov	DWORD PTR [ebp-16], -858993460		; ccccccccH
	mov	eax, DWORD PTR ___security_cookie
	xor	eax, ebp
	push	eax
	lea	eax, DWORD PTR __$EHRec$[ebp]
	mov	DWORD PTR fs:0, eax
	mov	DWORD PTR _this$[ebp], ecx
	mov	eax, DWORD PTR _this$[ebp]
	mov	DWORD PTR [eax], OFFSET ??_7?$basic_streambuf@DU?$char_traits@D@std@@@std@@6B@
	mov	DWORD PTR __$EHRec$[ebp+8], 0

; 80   : 		_DELETE_CRT(_Plocale);

	mov	ecx, DWORD PTR _this$[ebp]
	mov	edx, DWORD PTR [ecx+56]
	push	edx
	call	??$_DebugHeapDelete@Vlocale@std@@@std@@YAXPAVlocale@0@@Z ; std::_DebugHeapDelete<std::locale>
	add	esp, 4

; 81   : 		}

	mov	DWORD PTR __$EHRec$[ebp+8], -1
	mov	ecx, DWORD PTR _this$[ebp]
	add	ecx, 4
	call	??1_Mutex@std@@QAE@XZ			; std::_Mutex::~_Mutex
	mov	ecx, DWORD PTR __$EHRec$[ebp]
	mov	DWORD PTR fs:0, ecx
	pop	ecx
	add	esp, 16					; 00000010H
	cmp	ebp, esp
	call	__RTC_CheckEsp
	mov	esp, ebp
	pop	ebp
	ret	0
_TEXT	ENDS
;	COMDAT text$x
text$x	SEGMENT
__unwindfunclet$??1?$basic_streambuf@DU?$char_traits@D@std@@@std@@UAE@XZ$0:
	mov	ecx, DWORD PTR _this$[ebp]
	add	ecx, 4
	jmp	??1_Mutex@std@@QAE@XZ			; std::_Mutex::~_Mutex
__ehhandler$??1?$basic_streambuf@DU?$char_traits@D@std@@@std@@UAE@XZ:
	mov	edx, DWORD PTR [esp+8]
	lea	eax, DWORD PTR [edx+12]
	mov	ecx, DWORD PTR [edx-8]
	xor	ecx, eax
	call	@__security_check_cookie@4
	mov	eax, OFFSET __ehfuncinfo$??1?$basic_streambuf@DU?$char_traits@D@std@@@std@@UAE@XZ
	jmp	___CxxFrameHandler3
text$x	ENDS
??1?$basic_streambuf@DU?$char_traits@D@std@@@std@@UAE@XZ ENDP ; std::basic_streambuf<char,std::char_traits<char> >::~basic_streambuf<char,std::char_traits<char> >
EXTRN	?_Lock@_Mutex@std@@QAEXXZ:PROC			; std::_Mutex::_Lock
; Function compile flags: /Odtp /RTCsu
;	COMDAT ?_Lock@?$basic_streambuf@DU?$char_traits@D@std@@@std@@UAEXXZ
_TEXT	SEGMENT
_this$ = -4						; size = 4
?_Lock@?$basic_streambuf@DU?$char_traits@D@std@@@std@@UAEXXZ PROC ; std::basic_streambuf<char,std::char_traits<char> >::_Lock, COMDAT
; _this$ = ecx

; 206  : 		{	// set the thread lock

	push	ebp
	mov	ebp, esp
	push	ecx
	mov	DWORD PTR [ebp-4], -858993460		; ccccccccH
	mov	DWORD PTR _this$[ebp], ecx

; 207  : 		_Mylock._Lock();

	mov	ecx, DWORD PTR _this$[ebp]
	add	ecx, 4
	call	?_Lock@_Mutex@std@@QAEXXZ		; std::_Mutex::_Lock

; 208  : 		}

	add	esp, 4
	cmp	ebp, esp
	call	__RTC_CheckEsp
	mov	esp, ebp
	pop	ebp
	ret	0
?_Lock@?$basic_streambuf@DU?$char_traits@D@std@@@std@@UAEXXZ ENDP ; std::basic_streambuf<char,std::char_traits<char> >::_Lock
_TEXT	ENDS
EXTRN	?_Unlock@_Mutex@std@@QAEXXZ:PROC		; std::_Mutex::_Unlock
; Function compile flags: /Odtp /RTCsu
;	COMDAT ?_Unlock@?$basic_streambuf@DU?$char_traits@D@std@@@std@@UAEXXZ
_TEXT	SEGMENT
_this$ = -4						; size = 4
?_Unlock@?$basic_streambuf@DU?$char_traits@D@std@@@std@@UAEXXZ PROC ; std::basic_streambuf<char,std::char_traits<char> >::_Unlock, COMDAT
; _this$ = ecx

; 211  : 		{	// clear the thread lock

	push	ebp
	mov	ebp, esp
	push	ecx
	mov	DWORD PTR [ebp-4], -858993460		; ccccccccH
	mov	DWORD PTR _this$[ebp], ecx

; 212  : 		_Mylock._Unlock();

	mov	ecx, DWORD PTR _this$[ebp]
	add	ecx, 4
	call	?_Unlock@_Mutex@std@@QAEXXZ		; std::_Mutex::_Unlock

; 213  : 		}

	add	esp, 4
	cmp	ebp, esp
	call	__RTC_CheckEsp
	mov	esp, ebp
	pop	ebp
	ret	0
?_Unlock@?$basic_streambuf@DU?$char_traits@D@std@@@std@@UAEXXZ ENDP ; std::basic_streambuf<char,std::char_traits<char> >::_Unlock
_TEXT	ENDS
PUBLIC	?eof@?$char_traits@D@std@@SAHXZ			; std::char_traits<char>::eof
; Function compile flags: /Odtp /RTCsu
;	COMDAT ?overflow@?$basic_streambuf@DU?$char_traits@D@std@@@std@@MAEHH@Z
_TEXT	SEGMENT
_this$ = -4						; size = 4
___formal$ = 8						; size = 4
?overflow@?$basic_streambuf@DU?$char_traits@D@std@@@std@@MAEHH@Z PROC ; std::basic_streambuf<char,std::char_traits<char> >::overflow, COMDAT
; _this$ = ecx

; 337  : 		{	// put a character to stream (always fail)

	push	ebp
	mov	ebp, esp
	push	ecx
	mov	DWORD PTR [ebp-4], -858993460		; ccccccccH
	mov	DWORD PTR _this$[ebp], ecx

; 338  : 		return (_Traits::eof());

	call	?eof@?$char_traits@D@std@@SAHXZ		; std::char_traits<char>::eof

; 339  : 		}

	add	esp, 4
	cmp	ebp, esp
	call	__RTC_CheckEsp
	mov	esp, ebp
	pop	ebp
	ret	4
?overflow@?$basic_streambuf@DU?$char_traits@D@std@@@std@@MAEHH@Z ENDP ; std::basic_streambuf<char,std::char_traits<char> >::overflow
; Function compile flags: /Odtp /RTCsu
; File c:\program files (x86)\microsoft visual studio 10.0\vc\include\iosfwd
_TEXT	ENDS
;	COMDAT ?eof@?$char_traits@D@std@@SAHXZ
_TEXT	SEGMENT
?eof@?$char_traits@D@std@@SAHXZ PROC			; std::char_traits<char>::eof, COMDAT

; 562  : 		{	// return end-of-file metacharacter

	push	ebp
	mov	ebp, esp

; 563  : 		return (EOF);

	or	eax, -1

; 564  : 		}

	pop	ebp
	ret	0
?eof@?$char_traits@D@std@@SAHXZ ENDP			; std::char_traits<char>::eof
; Function compile flags: /Odtp /RTCsu
; File c:\program files (x86)\microsoft visual studio 10.0\vc\include\streambuf
_TEXT	ENDS
;	COMDAT ?pbackfail@?$basic_streambuf@DU?$char_traits@D@std@@@std@@MAEHH@Z
_TEXT	SEGMENT
_this$ = -4						; size = 4
___formal$ = 8						; size = 4
?pbackfail@?$basic_streambuf@DU?$char_traits@D@std@@@std@@MAEHH@Z PROC ; std::basic_streambuf<char,std::char_traits<char> >::pbackfail, COMDAT
; _this$ = ecx

; 342  : 		{	// put a character back to stream (always fail)

	push	ebp
	mov	ebp, esp
	push	ecx
	mov	DWORD PTR [ebp-4], -858993460		; ccccccccH
	mov	DWORD PTR _this$[ebp], ecx

; 343  : 		return (_Traits::eof());

	call	?eof@?$char_traits@D@std@@SAHXZ		; std::char_traits<char>::eof

; 344  : 		}

	add	esp, 4
	cmp	ebp, esp
	call	__RTC_CheckEsp
	mov	esp, ebp
	pop	ebp
	ret	4
?pbackfail@?$basic_streambuf@DU?$char_traits@D@std@@@std@@MAEHH@Z ENDP ; std::basic_streambuf<char,std::char_traits<char> >::pbackfail
; Function compile flags: /Odtp /RTCsu
_TEXT	ENDS
;	COMDAT ?showmanyc@?$basic_streambuf@DU?$char_traits@D@std@@@std@@MAE_JXZ
_TEXT	SEGMENT
_this$ = -4						; size = 4
?showmanyc@?$basic_streambuf@DU?$char_traits@D@std@@@std@@MAE_JXZ PROC ; std::basic_streambuf<char,std::char_traits<char> >::showmanyc, COMDAT
; _this$ = ecx

; 347  : 		{	// return count of input characters

	push	ebp
	mov	ebp, esp
	push	ecx
	mov	DWORD PTR [ebp-4], -858993460		; ccccccccH
	mov	DWORD PTR _this$[ebp], ecx

; 348  : 		return (0);

	xor	eax, eax
	xor	edx, edx

; 349  : 		}

	mov	esp, ebp
	pop	ebp
	ret	0
?showmanyc@?$basic_streambuf@DU?$char_traits@D@std@@@std@@MAE_JXZ ENDP ; std::basic_streambuf<char,std::char_traits<char> >::showmanyc
; Function compile flags: /Odtp /RTCsu
_TEXT	ENDS
;	COMDAT ?underflow@?$basic_streambuf@DU?$char_traits@D@std@@@std@@MAEHXZ
_TEXT	SEGMENT
_this$ = -4						; size = 4
?underflow@?$basic_streambuf@DU?$char_traits@D@std@@@std@@MAEHXZ PROC ; std::basic_streambuf<char,std::char_traits<char> >::underflow, COMDAT
; _this$ = ecx

; 352  : 		{	// get a character from stream, but don't point past it

	push	ebp
	mov	ebp, esp
	push	ecx
	mov	DWORD PTR [ebp-4], -858993460		; ccccccccH
	mov	DWORD PTR _this$[ebp], ecx

; 353  : 		return (_Traits::eof());

	call	?eof@?$char_traits@D@std@@SAHXZ		; std::char_traits<char>::eof

; 354  : 		}

	add	esp, 4
	cmp	ebp, esp
	call	__RTC_CheckEsp
	mov	esp, ebp
	pop	ebp
	ret	0
?underflow@?$basic_streambuf@DU?$char_traits@D@std@@@std@@MAEHXZ ENDP ; std::basic_streambuf<char,std::char_traits<char> >::underflow
_TEXT	ENDS
PUBLIC	?to_int_type@?$char_traits@D@std@@SAHABD@Z	; std::char_traits<char>::to_int_type
PUBLIC	?_Gninc@?$basic_streambuf@DU?$char_traits@D@std@@@std@@IAEPADXZ ; std::basic_streambuf<char,std::char_traits<char> >::_Gninc
PUBLIC	?eq_int_type@?$char_traits@D@std@@SA_NABH0@Z	; std::char_traits<char>::eq_int_type
; Function compile flags: /Odtp /RTCsu
;	COMDAT ?uflow@?$basic_streambuf@DU?$char_traits@D@std@@@std@@MAEHXZ
_TEXT	SEGMENT
tv79 = -16						; size = 4
$T147512 = -12						; size = 4
$T147511 = -8						; size = 4
_this$ = -4						; size = 4
?uflow@?$basic_streambuf@DU?$char_traits@D@std@@@std@@MAEHXZ PROC ; std::basic_streambuf<char,std::char_traits<char> >::uflow, COMDAT
; _this$ = ecx

; 357  : 		{	// get a character from stream, point past it

	push	ebp
	mov	ebp, esp
	sub	esp, 16					; 00000010H
	push	esi
	mov	eax, -858993460				; ccccccccH
	mov	DWORD PTR [ebp-16], eax
	mov	DWORD PTR [ebp-12], eax
	mov	DWORD PTR [ebp-8], eax
	mov	DWORD PTR [ebp-4], eax
	mov	DWORD PTR _this$[ebp], ecx

; 358  : 		return (_Traits::eq_int_type(_Traits::eof(), underflow())
; 359  : 			? _Traits::eof() : _Traits::to_int_type(*_Gninc()));

	mov	eax, DWORD PTR _this$[ebp]
	mov	edx, DWORD PTR [eax]
	mov	esi, esp
	mov	ecx, DWORD PTR _this$[ebp]
	mov	eax, DWORD PTR [edx+24]
	call	eax
	cmp	esi, esp
	call	__RTC_CheckEsp
	mov	DWORD PTR $T147511[ebp], eax
	call	?eof@?$char_traits@D@std@@SAHXZ		; std::char_traits<char>::eof
	mov	DWORD PTR $T147512[ebp], eax
	lea	ecx, DWORD PTR $T147511[ebp]
	push	ecx
	lea	edx, DWORD PTR $T147512[ebp]
	push	edx
	call	?eq_int_type@?$char_traits@D@std@@SA_NABH0@Z ; std::char_traits<char>::eq_int_type
	add	esp, 8
	movzx	eax, al
	test	eax, eax
	je	SHORT $LN3@uflow
	call	?eof@?$char_traits@D@std@@SAHXZ		; std::char_traits<char>::eof
	mov	DWORD PTR tv79[ebp], eax
	jmp	SHORT $LN4@uflow
$LN3@uflow:
	mov	ecx, DWORD PTR _this$[ebp]
	call	?_Gninc@?$basic_streambuf@DU?$char_traits@D@std@@@std@@IAEPADXZ ; std::basic_streambuf<char,std::char_traits<char> >::_Gninc
	push	eax
	call	?to_int_type@?$char_traits@D@std@@SAHABD@Z ; std::char_traits<char>::to_int_type
	add	esp, 4
	mov	DWORD PTR tv79[ebp], eax
$LN4@uflow:
	mov	eax, DWORD PTR tv79[ebp]

; 360  : 		}

	pop	esi
	add	esp, 16					; 00000010H
	cmp	ebp, esp
	call	__RTC_CheckEsp
	mov	esp, ebp
	pop	ebp
	ret	0
?uflow@?$basic_streambuf@DU?$char_traits@D@std@@@std@@MAEHXZ ENDP ; std::basic_streambuf<char,std::char_traits<char> >::uflow
; Function compile flags: /Odtp /RTCsu
; File c:\program files (x86)\microsoft visual studio 10.0\vc\include\iosfwd
_TEXT	ENDS
;	COMDAT ?to_int_type@?$char_traits@D@std@@SAHABD@Z
_TEXT	SEGMENT
__Ch$ = 8						; size = 4
?to_int_type@?$char_traits@D@std@@SAHABD@Z PROC		; std::char_traits<char>::to_int_type, COMDAT

; 546  : 		{	// convert character to metacharacter

	push	ebp
	mov	ebp, esp

; 547  : 		return ((unsigned char)_Ch);

	mov	eax, DWORD PTR __Ch$[ebp]
	movzx	eax, BYTE PTR [eax]

; 548  : 		}

	pop	ebp
	ret	0
?to_int_type@?$char_traits@D@std@@SAHABD@Z ENDP		; std::char_traits<char>::to_int_type
; Function compile flags: /Odtp /RTCsu
_TEXT	ENDS
;	COMDAT ?eq_int_type@?$char_traits@D@std@@SA_NABH0@Z
_TEXT	SEGMENT
__Left$ = 8						; size = 4
__Right$ = 12						; size = 4
?eq_int_type@?$char_traits@D@std@@SA_NABH0@Z PROC	; std::char_traits<char>::eq_int_type, COMDAT

; 552  : 		{	// test for metacharacter equality

	push	ebp
	mov	ebp, esp

; 553  : 		return (_Left == _Right);

	mov	eax, DWORD PTR __Left$[ebp]
	mov	ecx, DWORD PTR __Right$[ebp]
	mov	edx, DWORD PTR [eax]
	xor	eax, eax
	cmp	edx, DWORD PTR [ecx]
	sete	al

; 554  : 		}

	pop	ebp
	ret	0
?eq_int_type@?$char_traits@D@std@@SA_NABH0@Z ENDP	; std::char_traits<char>::eq_int_type
_TEXT	ENDS
PUBLIC	?to_char_type@?$char_traits@D@std@@SADABH@Z	; std::char_traits<char>::to_char_type
PUBLIC	?gbump@?$basic_streambuf@DU?$char_traits@D@std@@@std@@IAEXH@Z ; std::basic_streambuf<char,std::char_traits<char> >::gbump
PUBLIC	?gptr@?$basic_streambuf@DU?$char_traits@D@std@@@std@@IBEPADXZ ; std::basic_streambuf<char,std::char_traits<char> >::gptr
PUBLIC	?_Gnavail@?$basic_streambuf@DU?$char_traits@D@std@@@std@@IBE_JXZ ; std::basic_streambuf<char,std::char_traits<char> >::_Gnavail
; Function compile flags: /Odtp /RTCsu
; File c:\program files (x86)\microsoft visual studio 10.0\vc\include\streambuf
;	COMDAT ?xsgetn@?$basic_streambuf@DU?$char_traits@D@std@@@std@@MAE_JPAD_J@Z
_TEXT	SEGMENT
$T147521 = -36						; size = 4
__Copied$ = -32						; size = 8
__Size$ = -24						; size = 8
__Meta$ = -12						; size = 4
_this$ = -4						; size = 4
__Ptr$ = 8						; size = 4
__Count$ = 12						; size = 8
?xsgetn@?$basic_streambuf@DU?$char_traits@D@std@@@std@@MAE_JPAD_J@Z PROC ; std::basic_streambuf<char,std::char_traits<char> >::xsgetn, COMDAT
; _this$ = ecx

; 364  : 		{	// get _Count characters from stream

	push	ebp
	mov	ebp, esp
	sub	esp, 36					; 00000024H
	push	esi
	mov	eax, -858993460				; ccccccccH
	mov	DWORD PTR [ebp-36], eax
	mov	DWORD PTR [ebp-32], eax
	mov	DWORD PTR [ebp-28], eax
	mov	DWORD PTR [ebp-24], eax
	mov	DWORD PTR [ebp-20], eax
	mov	DWORD PTR [ebp-16], eax
	mov	DWORD PTR [ebp-12], eax
	mov	DWORD PTR [ebp-8], eax
	mov	DWORD PTR [ebp-4], eax
	mov	DWORD PTR _this$[ebp], ecx

; 365  : 		int_type _Meta;
; 366  : 		streamsize _Size, _Copied;
; 367  : 
; 368  : 		for (_Copied = 0; 0 < _Count; )

	mov	DWORD PTR __Copied$[ebp], 0
	mov	DWORD PTR __Copied$[ebp+4], 0
$LN7@xsgetn:
	cmp	DWORD PTR __Count$[ebp+4], 0
	jl	$LN6@xsgetn
	jg	SHORT $LN10@xsgetn
	cmp	DWORD PTR __Count$[ebp], 0
	jbe	$LN6@xsgetn
$LN10@xsgetn:

; 369  : 			if (0 < (_Size = _Gnavail()))

	mov	ecx, DWORD PTR _this$[ebp]
	call	?_Gnavail@?$basic_streambuf@DU?$char_traits@D@std@@@std@@IBE_JXZ ; std::basic_streambuf<char,std::char_traits<char> >::_Gnavail
	mov	DWORD PTR __Size$[ebp], eax
	mov	DWORD PTR __Size$[ebp+4], edx
	cmp	DWORD PTR __Size$[ebp+4], 0
	jl	SHORT $LN5@xsgetn
	jg	SHORT $LN11@xsgetn
	cmp	DWORD PTR __Size$[ebp], 0
	jbe	SHORT $LN5@xsgetn
$LN11@xsgetn:

; 370  : 				{	// copy from read buffer
; 371  : 				if (_Count < _Size)

	mov	eax, DWORD PTR __Count$[ebp+4]
	cmp	eax, DWORD PTR __Size$[ebp+4]
	jg	SHORT $LN4@xsgetn
	jl	SHORT $LN12@xsgetn
	mov	ecx, DWORD PTR __Count$[ebp]
	cmp	ecx, DWORD PTR __Size$[ebp]
	jae	SHORT $LN4@xsgetn
$LN12@xsgetn:

; 372  : 					_Size = _Count;

	mov	edx, DWORD PTR __Count$[ebp]
	mov	DWORD PTR __Size$[ebp], edx
	mov	eax, DWORD PTR __Count$[ebp+4]
	mov	DWORD PTR __Size$[ebp+4], eax
$LN4@xsgetn:

; 373  : 				_Traits::copy(_Ptr, gptr(), (size_t)_Size);

	mov	ecx, DWORD PTR __Size$[ebp]
	push	ecx
	mov	ecx, DWORD PTR _this$[ebp]
	call	?gptr@?$basic_streambuf@DU?$char_traits@D@std@@@std@@IBEPADXZ ; std::basic_streambuf<char,std::char_traits<char> >::gptr
	push	eax
	mov	edx, DWORD PTR __Ptr$[ebp]
	push	edx
	call	?copy@?$char_traits@D@std@@SAPADPADPBDI@Z ; std::char_traits<char>::copy
	add	esp, 12					; 0000000cH

; 374  : 				_Ptr += _Size;

	mov	eax, DWORD PTR __Size$[ebp]
	add	eax, DWORD PTR __Ptr$[ebp]
	mov	DWORD PTR __Ptr$[ebp], eax

; 375  : 				_Copied += _Size;

	mov	ecx, DWORD PTR __Copied$[ebp]
	add	ecx, DWORD PTR __Size$[ebp]
	mov	edx, DWORD PTR __Copied$[ebp+4]
	adc	edx, DWORD PTR __Size$[ebp+4]
	mov	DWORD PTR __Copied$[ebp], ecx
	mov	DWORD PTR __Copied$[ebp+4], edx

; 376  : 				_Count -= _Size;

	mov	eax, DWORD PTR __Count$[ebp]
	sub	eax, DWORD PTR __Size$[ebp]
	mov	ecx, DWORD PTR __Count$[ebp+4]
	sbb	ecx, DWORD PTR __Size$[ebp+4]
	mov	DWORD PTR __Count$[ebp], eax
	mov	DWORD PTR __Count$[ebp+4], ecx

; 377  : 				gbump((int)_Size);

	mov	edx, DWORD PTR __Size$[ebp]
	push	edx
	mov	ecx, DWORD PTR _this$[ebp]
	call	?gbump@?$basic_streambuf@DU?$char_traits@D@std@@@std@@IAEXH@Z ; std::basic_streambuf<char,std::char_traits<char> >::gbump
	jmp	SHORT $LN3@xsgetn
$LN5@xsgetn:

; 378  : 				}
; 379  : 			else if (_Traits::eq_int_type(_Traits::eof(), _Meta = uflow()))

	mov	eax, DWORD PTR _this$[ebp]
	mov	edx, DWORD PTR [eax]
	mov	esi, esp
	mov	ecx, DWORD PTR _this$[ebp]
	mov	eax, DWORD PTR [edx+28]
	call	eax
	cmp	esi, esp
	call	__RTC_CheckEsp
	mov	DWORD PTR __Meta$[ebp], eax
	call	?eof@?$char_traits@D@std@@SAHXZ		; std::char_traits<char>::eof
	mov	DWORD PTR $T147521[ebp], eax
	lea	ecx, DWORD PTR __Meta$[ebp]
	push	ecx
	lea	edx, DWORD PTR $T147521[ebp]
	push	edx
	call	?eq_int_type@?$char_traits@D@std@@SA_NABH0@Z ; std::char_traits<char>::eq_int_type
	add	esp, 8
	movzx	eax, al
	test	eax, eax
	je	SHORT $LN2@xsgetn

; 380  : 				break;	// end of file, quit

	jmp	SHORT $LN6@xsgetn

; 381  : 			else

	jmp	SHORT $LN3@xsgetn
$LN2@xsgetn:

; 382  : 				{	// get a single character
; 383  : 				*_Ptr++ = _Traits::to_char_type(_Meta);

	lea	ecx, DWORD PTR __Meta$[ebp]
	push	ecx
	call	?to_char_type@?$char_traits@D@std@@SADABH@Z ; std::char_traits<char>::to_char_type
	add	esp, 4
	mov	edx, DWORD PTR __Ptr$[ebp]
	mov	BYTE PTR [edx], al
	mov	eax, DWORD PTR __Ptr$[ebp]
	add	eax, 1
	mov	DWORD PTR __Ptr$[ebp], eax

; 384  : 				++_Copied;

	mov	ecx, DWORD PTR __Copied$[ebp]
	add	ecx, 1
	mov	edx, DWORD PTR __Copied$[ebp+4]
	adc	edx, 0
	mov	DWORD PTR __Copied$[ebp], ecx
	mov	DWORD PTR __Copied$[ebp+4], edx

; 385  : 				--_Count;

	mov	eax, DWORD PTR __Count$[ebp]
	sub	eax, 1
	mov	ecx, DWORD PTR __Count$[ebp+4]
	sbb	ecx, 0
	mov	DWORD PTR __Count$[ebp], eax
	mov	DWORD PTR __Count$[ebp+4], ecx
$LN3@xsgetn:

; 386  : 				}

	jmp	$LN7@xsgetn
$LN6@xsgetn:

; 387  : 
; 388  : 		return (_Copied);

	mov	eax, DWORD PTR __Copied$[ebp]
	mov	edx, DWORD PTR __Copied$[ebp+4]

; 389  : 		}

	push	edx
	mov	ecx, ebp
	push	eax
	lea	edx, DWORD PTR $LN15@xsgetn
	call	@_RTC_CheckStackVars@8
	pop	eax
	pop	edx
	pop	esi
	add	esp, 36					; 00000024H
	cmp	ebp, esp
	call	__RTC_CheckEsp
	mov	esp, ebp
	pop	ebp
	ret	12					; 0000000cH
	npad	1
$LN15@xsgetn:
	DD	1
	DD	$LN14@xsgetn
$LN14@xsgetn:
	DD	-12					; fffffff4H
	DD	4
	DD	$LN13@xsgetn
$LN13@xsgetn:
	DB	95					; 0000005fH
	DB	77					; 0000004dH
	DB	101					; 00000065H
	DB	116					; 00000074H
	DB	97					; 00000061H
	DB	0
?xsgetn@?$basic_streambuf@DU?$char_traits@D@std@@@std@@MAE_JPAD_J@Z ENDP ; std::basic_streambuf<char,std::char_traits<char> >::xsgetn
; Function compile flags: /Odtp /RTCsu
; File c:\program files (x86)\microsoft visual studio 10.0\vc\include\iosfwd
_TEXT	ENDS
;	COMDAT ?to_char_type@?$char_traits@D@std@@SADABH@Z
_TEXT	SEGMENT
__Meta$ = 8						; size = 4
?to_char_type@?$char_traits@D@std@@SADABH@Z PROC	; std::char_traits<char>::to_char_type, COMDAT

; 541  : 		{	// convert metacharacter to character

	push	ebp
	mov	ebp, esp

; 542  : 		return ((_Elem)_Meta);

	mov	eax, DWORD PTR __Meta$[ebp]
	mov	al, BYTE PTR [eax]

; 543  : 		}

	pop	ebp
	ret	0
?to_char_type@?$char_traits@D@std@@SADABH@Z ENDP	; std::char_traits<char>::to_char_type
_TEXT	ENDS
PUBLIC	?pbump@?$basic_streambuf@DU?$char_traits@D@std@@@std@@IAEXH@Z ; std::basic_streambuf<char,std::char_traits<char> >::pbump
PUBLIC	?pptr@?$basic_streambuf@DU?$char_traits@D@std@@@std@@IBEPADXZ ; std::basic_streambuf<char,std::char_traits<char> >::pptr
PUBLIC	?_Pnavail@?$basic_streambuf@DU?$char_traits@D@std@@@std@@IBE_JXZ ; std::basic_streambuf<char,std::char_traits<char> >::_Pnavail
; Function compile flags: /Odtp /RTCsu
; File c:\program files (x86)\microsoft visual studio 10.0\vc\include\streambuf
;	COMDAT ?xsputn@?$basic_streambuf@DU?$char_traits@D@std@@@std@@MAE_JPBD_J@Z
_TEXT	SEGMENT
$T147533 = -28						; size = 4
$T147532 = -24						; size = 4
__Copied$ = -20						; size = 8
__Size$ = -12						; size = 8
_this$ = -4						; size = 4
__Ptr$ = 8						; size = 4
__Count$ = 12						; size = 8
?xsputn@?$basic_streambuf@DU?$char_traits@D@std@@@std@@MAE_JPBD_J@Z PROC ; std::basic_streambuf<char,std::char_traits<char> >::xsputn, COMDAT
; _this$ = ecx

; 393  : 		{	// put _Count characters to stream

	push	ebp
	mov	ebp, esp
	sub	esp, 28					; 0000001cH
	push	esi
	mov	eax, -858993460				; ccccccccH
	mov	DWORD PTR [ebp-28], eax
	mov	DWORD PTR [ebp-24], eax
	mov	DWORD PTR [ebp-20], eax
	mov	DWORD PTR [ebp-16], eax
	mov	DWORD PTR [ebp-12], eax
	mov	DWORD PTR [ebp-8], eax
	mov	DWORD PTR [ebp-4], eax
	mov	DWORD PTR _this$[ebp], ecx

; 394  : 		streamsize _Size, _Copied;
; 395  : 
; 396  : 		for (_Copied = 0; 0 < _Count; )

	mov	DWORD PTR __Copied$[ebp], 0
	mov	DWORD PTR __Copied$[ebp+4], 0
$LN7@xsputn:
	cmp	DWORD PTR __Count$[ebp+4], 0
	jl	$LN6@xsputn
	jg	SHORT $LN10@xsputn
	cmp	DWORD PTR __Count$[ebp], 0
	jbe	$LN6@xsputn
$LN10@xsputn:

; 397  : 			if (0 < (_Size = _Pnavail()))

	mov	ecx, DWORD PTR _this$[ebp]
	call	?_Pnavail@?$basic_streambuf@DU?$char_traits@D@std@@@std@@IBE_JXZ ; std::basic_streambuf<char,std::char_traits<char> >::_Pnavail
	mov	DWORD PTR __Size$[ebp], eax
	mov	DWORD PTR __Size$[ebp+4], edx
	cmp	DWORD PTR __Size$[ebp+4], 0
	jl	SHORT $LN5@xsputn
	jg	SHORT $LN11@xsputn
	cmp	DWORD PTR __Size$[ebp], 0
	jbe	SHORT $LN5@xsputn
$LN11@xsputn:

; 398  : 				{	// copy to write buffer
; 399  : 				if (_Count < _Size)

	mov	eax, DWORD PTR __Count$[ebp+4]
	cmp	eax, DWORD PTR __Size$[ebp+4]
	jg	SHORT $LN4@xsputn
	jl	SHORT $LN12@xsputn
	mov	ecx, DWORD PTR __Count$[ebp]
	cmp	ecx, DWORD PTR __Size$[ebp]
	jae	SHORT $LN4@xsputn
$LN12@xsputn:

; 400  : 					_Size = _Count;

	mov	edx, DWORD PTR __Count$[ebp]
	mov	DWORD PTR __Size$[ebp], edx
	mov	eax, DWORD PTR __Count$[ebp+4]
	mov	DWORD PTR __Size$[ebp+4], eax
$LN4@xsputn:

; 401  : 				_Traits::copy(pptr(), _Ptr, (size_t)_Size);

	mov	ecx, DWORD PTR __Size$[ebp]
	push	ecx
	mov	edx, DWORD PTR __Ptr$[ebp]
	push	edx
	mov	ecx, DWORD PTR _this$[ebp]
	call	?pptr@?$basic_streambuf@DU?$char_traits@D@std@@@std@@IBEPADXZ ; std::basic_streambuf<char,std::char_traits<char> >::pptr
	push	eax
	call	?copy@?$char_traits@D@std@@SAPADPADPBDI@Z ; std::char_traits<char>::copy
	add	esp, 12					; 0000000cH

; 402  : 				_Ptr += _Size;

	mov	eax, DWORD PTR __Size$[ebp]
	add	eax, DWORD PTR __Ptr$[ebp]
	mov	DWORD PTR __Ptr$[ebp], eax

; 403  : 				_Copied += _Size;

	mov	ecx, DWORD PTR __Copied$[ebp]
	add	ecx, DWORD PTR __Size$[ebp]
	mov	edx, DWORD PTR __Copied$[ebp+4]
	adc	edx, DWORD PTR __Size$[ebp+4]
	mov	DWORD PTR __Copied$[ebp], ecx
	mov	DWORD PTR __Copied$[ebp+4], edx

; 404  : 				_Count -= _Size;

	mov	eax, DWORD PTR __Count$[ebp]
	sub	eax, DWORD PTR __Size$[ebp]
	mov	ecx, DWORD PTR __Count$[ebp+4]
	sbb	ecx, DWORD PTR __Size$[ebp+4]
	mov	DWORD PTR __Count$[ebp], eax
	mov	DWORD PTR __Count$[ebp+4], ecx

; 405  : 				pbump((int)_Size);

	mov	edx, DWORD PTR __Size$[ebp]
	push	edx
	mov	ecx, DWORD PTR _this$[ebp]
	call	?pbump@?$basic_streambuf@DU?$char_traits@D@std@@@std@@IAEXH@Z ; std::basic_streambuf<char,std::char_traits<char> >::pbump

; 406  : 				}
; 407  : 			else if (_Traits::eq_int_type(_Traits::eof(),

	jmp	SHORT $LN3@xsputn
$LN5@xsputn:

; 408  : 				overflow(_Traits::to_int_type(*_Ptr))))

	mov	eax, DWORD PTR __Ptr$[ebp]
	push	eax
	call	?to_int_type@?$char_traits@D@std@@SAHABD@Z ; std::char_traits<char>::to_int_type
	add	esp, 4
	mov	esi, esp
	push	eax
	mov	ecx, DWORD PTR _this$[ebp]
	mov	edx, DWORD PTR [ecx]
	mov	ecx, DWORD PTR _this$[ebp]
	mov	eax, DWORD PTR [edx+12]
	call	eax
	cmp	esi, esp
	call	__RTC_CheckEsp
	mov	DWORD PTR $T147532[ebp], eax
	call	?eof@?$char_traits@D@std@@SAHXZ		; std::char_traits<char>::eof
	mov	DWORD PTR $T147533[ebp], eax
	lea	ecx, DWORD PTR $T147532[ebp]
	push	ecx
	lea	edx, DWORD PTR $T147533[ebp]
	push	edx
	call	?eq_int_type@?$char_traits@D@std@@SA_NABH0@Z ; std::char_traits<char>::eq_int_type
	add	esp, 8
	movzx	eax, al
	test	eax, eax
	je	SHORT $LN2@xsputn

; 409  : 				break;	// single character put failed, quit

	jmp	SHORT $LN6@xsputn

; 410  : 			else

	jmp	SHORT $LN3@xsputn
$LN2@xsputn:

; 411  : 				{	// count character successfully put
; 412  : 				++_Ptr;

	mov	ecx, DWORD PTR __Ptr$[ebp]
	add	ecx, 1
	mov	DWORD PTR __Ptr$[ebp], ecx

; 413  : 				++_Copied;

	mov	edx, DWORD PTR __Copied$[ebp]
	add	edx, 1
	mov	eax, DWORD PTR __Copied$[ebp+4]
	adc	eax, 0
	mov	DWORD PTR __Copied$[ebp], edx
	mov	DWORD PTR __Copied$[ebp+4], eax

; 414  : 				--_Count;

	mov	ecx, DWORD PTR __Count$[ebp]
	sub	ecx, 1
	mov	edx, DWORD PTR __Count$[ebp+4]
	sbb	edx, 0
	mov	DWORD PTR __Count$[ebp], ecx
	mov	DWORD PTR __Count$[ebp+4], edx
$LN3@xsputn:

; 415  : 				}

	jmp	$LN7@xsputn
$LN6@xsputn:

; 416  : 
; 417  : 		return (_Copied);

	mov	eax, DWORD PTR __Copied$[ebp]
	mov	edx, DWORD PTR __Copied$[ebp+4]

; 418  : 		}

	pop	esi
	add	esp, 28					; 0000001cH
	cmp	ebp, esp
	call	__RTC_CheckEsp
	mov	esp, ebp
	pop	ebp
	ret	12					; 0000000cH
?xsputn@?$basic_streambuf@DU?$char_traits@D@std@@@std@@MAE_JPBD_J@Z ENDP ; std::basic_streambuf<char,std::char_traits<char> >::xsputn
_TEXT	ENDS
PUBLIC	??0?$fpos@H@std@@QAE@_J@Z			; std::fpos<int>::fpos<int>
EXTRN	?_BADOFF@std@@3_JB:QWORD			; std::_BADOFF
; Function compile flags: /Odtp /RTCsu
;	COMDAT ?seekoff@?$basic_streambuf@DU?$char_traits@D@std@@@std@@MAE?AV?$fpos@H@2@_JHH@Z
_TEXT	SEGMENT
_this$ = -4						; size = 4
___$ReturnUdt$ = 8					; size = 4
___formal$ = 12						; size = 8
___formal$ = 20						; size = 4
___formal$ = 24						; size = 4
?seekoff@?$basic_streambuf@DU?$char_traits@D@std@@@std@@MAE?AV?$fpos@H@2@_JHH@Z PROC ; std::basic_streambuf<char,std::char_traits<char> >::seekoff, COMDAT
; _this$ = ecx

; 423  : 		{	// change position by offset, according to way and mode

	push	ebp
	mov	ebp, esp
	push	ecx
	mov	DWORD PTR [ebp-4], -858993460		; ccccccccH
	mov	DWORD PTR _this$[ebp], ecx

; 424  : 		return (streampos(_BADOFF));

	mov	eax, DWORD PTR ?_BADOFF@std@@3_JB+4
	push	eax
	mov	ecx, DWORD PTR ?_BADOFF@std@@3_JB
	push	ecx
	mov	ecx, DWORD PTR ___$ReturnUdt$[ebp]
	call	??0?$fpos@H@std@@QAE@_J@Z		; std::fpos<int>::fpos<int>
	mov	eax, DWORD PTR ___$ReturnUdt$[ebp]

; 425  : 		}

	add	esp, 4
	cmp	ebp, esp
	call	__RTC_CheckEsp
	mov	esp, ebp
	pop	ebp
	ret	20					; 00000014H
?seekoff@?$basic_streambuf@DU?$char_traits@D@std@@@std@@MAE?AV?$fpos@H@2@_JHH@Z ENDP ; std::basic_streambuf<char,std::char_traits<char> >::seekoff
; Function compile flags: /Odtp /RTCsu
_TEXT	ENDS
;	COMDAT ?seekpos@?$basic_streambuf@DU?$char_traits@D@std@@@std@@MAE?AV?$fpos@H@2@V32@H@Z
_TEXT	SEGMENT
_this$ = -4						; size = 4
___$ReturnUdt$ = 8					; size = 4
___formal$ = 12						; size = 24
___formal$ = 36						; size = 4
?seekpos@?$basic_streambuf@DU?$char_traits@D@std@@@std@@MAE?AV?$fpos@H@2@V32@H@Z PROC ; std::basic_streambuf<char,std::char_traits<char> >::seekpos, COMDAT
; _this$ = ecx

; 429  : 		{	// change to specified position, according to mode

	push	ebp
	mov	ebp, esp
	push	ecx
	mov	DWORD PTR [ebp-4], -858993460		; ccccccccH
	mov	DWORD PTR _this$[ebp], ecx

; 430  : 		return (streampos(_BADOFF));

	mov	eax, DWORD PTR ?_BADOFF@std@@3_JB+4
	push	eax
	mov	ecx, DWORD PTR ?_BADOFF@std@@3_JB
	push	ecx
	mov	ecx, DWORD PTR ___$ReturnUdt$[ebp]
	call	??0?$fpos@H@std@@QAE@_J@Z		; std::fpos<int>::fpos<int>
	mov	eax, DWORD PTR ___$ReturnUdt$[ebp]

; 431  : 		}

	add	esp, 4
	cmp	ebp, esp
	call	__RTC_CheckEsp
	mov	esp, ebp
	pop	ebp
	ret	32					; 00000020H
?seekpos@?$basic_streambuf@DU?$char_traits@D@std@@@std@@MAE?AV?$fpos@H@2@V32@H@Z ENDP ; std::basic_streambuf<char,std::char_traits<char> >::seekpos
; Function compile flags: /Odtp /RTCsu
_TEXT	ENDS
;	COMDAT ?setbuf@?$basic_streambuf@DU?$char_traits@D@std@@@std@@MAEPAV12@PAD_J@Z
_TEXT	SEGMENT
_this$ = -4						; size = 4
___formal$ = 8						; size = 4
___formal$ = 12						; size = 8
?setbuf@?$basic_streambuf@DU?$char_traits@D@std@@@std@@MAEPAV12@PAD_J@Z PROC ; std::basic_streambuf<char,std::char_traits<char> >::setbuf, COMDAT
; _this$ = ecx

; 434  : 		{	// offer buffer to external agent (do nothing)

	push	ebp
	mov	ebp, esp
	push	ecx
	mov	DWORD PTR [ebp-4], -858993460		; ccccccccH
	mov	DWORD PTR _this$[ebp], ecx

; 435  : 		return (this);

	mov	eax, DWORD PTR _this$[ebp]

; 436  : 		}

	mov	esp, ebp
	pop	ebp
	ret	12					; 0000000cH
?setbuf@?$basic_streambuf@DU?$char_traits@D@std@@@std@@MAEPAV12@PAD_J@Z ENDP ; std::basic_streambuf<char,std::char_traits<char> >::setbuf
; Function compile flags: /Odtp /RTCsu
_TEXT	ENDS
;	COMDAT ?sync@?$basic_streambuf@DU?$char_traits@D@std@@@std@@MAEHXZ
_TEXT	SEGMENT
_this$ = -4						; size = 4
?sync@?$basic_streambuf@DU?$char_traits@D@std@@@std@@MAEHXZ PROC ; std::basic_streambuf<char,std::char_traits<char> >::sync, COMDAT
; _this$ = ecx

; 439  : 		{	// synchronize with external agent (do nothing)

	push	ebp
	mov	ebp, esp
	push	ecx
	mov	DWORD PTR [ebp-4], -858993460		; ccccccccH
	mov	DWORD PTR _this$[ebp], ecx

; 440  : 		return (0);

	xor	eax, eax

; 441  : 		}

	mov	esp, ebp
	pop	ebp
	ret	0
?sync@?$basic_streambuf@DU?$char_traits@D@std@@@std@@MAEHXZ ENDP ; std::basic_streambuf<char,std::char_traits<char> >::sync
; Function compile flags: /Odtp /RTCsu
_TEXT	ENDS
;	COMDAT ?imbue@?$basic_streambuf@DU?$char_traits@D@std@@@std@@MAEXABVlocale@2@@Z
_TEXT	SEGMENT
_this$ = -4						; size = 4
___formal$ = 8						; size = 4
?imbue@?$basic_streambuf@DU?$char_traits@D@std@@@std@@MAEXABVlocale@2@@Z PROC ; std::basic_streambuf<char,std::char_traits<char> >::imbue, COMDAT
; _this$ = ecx

; 444  : 		{	// set locale to argument (do nothing)

	push	ebp
	mov	ebp, esp
	push	ecx
	mov	DWORD PTR [ebp-4], -858993460		; ccccccccH
	mov	DWORD PTR _this$[ebp], ecx

; 445  : 		}

	mov	esp, ebp
	pop	ebp
	ret	4
?imbue@?$basic_streambuf@DU?$char_traits@D@std@@@std@@MAEXABVlocale@2@@Z ENDP ; std::basic_streambuf<char,std::char_traits<char> >::imbue
; Function compile flags: /Odtp /RTCsu
_TEXT	ENDS
;	COMDAT ??_G?$basic_streambuf@DU?$char_traits@D@std@@@std@@UAEPAXI@Z
_TEXT	SEGMENT
_this$ = -4						; size = 4
___flags$ = 8						; size = 4
??_G?$basic_streambuf@DU?$char_traits@D@std@@@std@@UAEPAXI@Z PROC ; std::basic_streambuf<char,std::char_traits<char> >::`scalar deleting destructor', COMDAT
; _this$ = ecx
	push	ebp
	mov	ebp, esp
	push	ecx
	mov	DWORD PTR [ebp-4], -858993460		; ccccccccH
	mov	DWORD PTR _this$[ebp], ecx
	mov	ecx, DWORD PTR _this$[ebp]
	call	??1?$basic_streambuf@DU?$char_traits@D@std@@@std@@UAE@XZ ; std::basic_streambuf<char,std::char_traits<char> >::~basic_streambuf<char,std::char_traits<char> >
	mov	eax, DWORD PTR ___flags$[ebp]
	and	eax, 1
	je	SHORT $LN1@scalar@8
	mov	ecx, DWORD PTR _this$[ebp]
	push	ecx
	call	??3@YAXPAX@Z				; operator delete
	add	esp, 4
$LN1@scalar@8:
	mov	eax, DWORD PTR _this$[ebp]
	add	esp, 4
	cmp	ebp, esp
	call	__RTC_CheckEsp
	mov	esp, ebp
	pop	ebp
	ret	4
??_G?$basic_streambuf@DU?$char_traits@D@std@@@std@@UAEPAXI@Z ENDP ; std::basic_streambuf<char,std::char_traits<char> >::`scalar deleting destructor'
; Function compile flags: /Odtp /RTCsu
_TEXT	ENDS
;	COMDAT ?gptr@?$basic_streambuf@DU?$char_traits@D@std@@@std@@IBEPADXZ
_TEXT	SEGMENT
_this$ = -4						; size = 4
?gptr@?$basic_streambuf@DU?$char_traits@D@std@@@std@@IBEPADXZ PROC ; std::basic_streambuf<char,std::char_traits<char> >::gptr, COMDAT
; _this$ = ecx

; 222  : 		{	// return current position in read buffer

	push	ebp
	mov	ebp, esp
	push	ecx
	mov	DWORD PTR [ebp-4], -858993460		; ccccccccH
	mov	DWORD PTR _this$[ebp], ecx

; 223  : 		return (*_IGnext);

	mov	eax, DWORD PTR _this$[ebp]
	mov	ecx, DWORD PTR [eax+32]
	mov	eax, DWORD PTR [ecx]

; 224  : 		}

	mov	esp, ebp
	pop	ebp
	ret	0
?gptr@?$basic_streambuf@DU?$char_traits@D@std@@@std@@IBEPADXZ ENDP ; std::basic_streambuf<char,std::char_traits<char> >::gptr
; Function compile flags: /Odtp /RTCsu
_TEXT	ENDS
;	COMDAT ?pptr@?$basic_streambuf@DU?$char_traits@D@std@@@std@@IBEPADXZ
_TEXT	SEGMENT
_this$ = -4						; size = 4
?pptr@?$basic_streambuf@DU?$char_traits@D@std@@@std@@IBEPADXZ PROC ; std::basic_streambuf<char,std::char_traits<char> >::pptr, COMDAT
; _this$ = ecx

; 232  : 		{	// return current position in write buffer

	push	ebp
	mov	ebp, esp
	push	ecx
	mov	DWORD PTR [ebp-4], -858993460		; ccccccccH
	mov	DWORD PTR _this$[ebp], ecx

; 233  : 		return (*_IPnext);

	mov	eax, DWORD PTR _this$[ebp]
	mov	ecx, DWORD PTR [eax+36]
	mov	eax, DWORD PTR [ecx]

; 234  : 		}

	mov	esp, ebp
	pop	ebp
	ret	0
?pptr@?$basic_streambuf@DU?$char_traits@D@std@@@std@@IBEPADXZ ENDP ; std::basic_streambuf<char,std::char_traits<char> >::pptr
; Function compile flags: /Odtp /RTCsu
_TEXT	ENDS
;	COMDAT ?gbump@?$basic_streambuf@DU?$char_traits@D@std@@@std@@IAEXH@Z
_TEXT	SEGMENT
_this$ = -4						; size = 4
__Off$ = 8						; size = 4
?gbump@?$basic_streambuf@DU?$char_traits@D@std@@@std@@IAEXH@Z PROC ; std::basic_streambuf<char,std::char_traits<char> >::gbump, COMDAT
; _this$ = ecx

; 242  : 		{	// alter current position in read buffer by _Off

	push	ebp
	mov	ebp, esp
	push	ecx
	mov	DWORD PTR [ebp-4], -858993460		; ccccccccH
	mov	DWORD PTR _this$[ebp], ecx

; 243  : 		*_IGcount -= _Off;

	mov	eax, DWORD PTR _this$[ebp]
	mov	ecx, DWORD PTR [eax+48]
	mov	edx, DWORD PTR [ecx]
	sub	edx, DWORD PTR __Off$[ebp]
	mov	eax, DWORD PTR _this$[ebp]
	mov	ecx, DWORD PTR [eax+48]
	mov	DWORD PTR [ecx], edx

; 244  : 		*_IGnext += _Off;

	mov	edx, DWORD PTR _this$[ebp]
	mov	eax, DWORD PTR [edx+32]
	mov	ecx, DWORD PTR [eax]
	add	ecx, DWORD PTR __Off$[ebp]
	mov	edx, DWORD PTR _this$[ebp]
	mov	eax, DWORD PTR [edx+32]
	mov	DWORD PTR [eax], ecx

; 245  : 		}

	mov	esp, ebp
	pop	ebp
	ret	4
?gbump@?$basic_streambuf@DU?$char_traits@D@std@@@std@@IAEXH@Z ENDP ; std::basic_streambuf<char,std::char_traits<char> >::gbump
; Function compile flags: /Odtp /RTCsu
_TEXT	ENDS
;	COMDAT ?_Gninc@?$basic_streambuf@DU?$char_traits@D@std@@@std@@IAEPADXZ
_TEXT	SEGMENT
tv76 = -8						; size = 4
_this$ = -4						; size = 4
?_Gninc@?$basic_streambuf@DU?$char_traits@D@std@@@std@@IAEPADXZ PROC ; std::basic_streambuf<char,std::char_traits<char> >::_Gninc, COMDAT
; _this$ = ecx

; 266  : 		{	// increment current position in read buffer

	push	ebp
	mov	ebp, esp
	sub	esp, 8
	mov	DWORD PTR [ebp-8], -858993460		; ccccccccH
	mov	DWORD PTR [ebp-4], -858993460		; ccccccccH
	mov	DWORD PTR _this$[ebp], ecx

; 267  : 		--*_IGcount;

	mov	eax, DWORD PTR _this$[ebp]
	mov	ecx, DWORD PTR [eax+48]
	mov	edx, DWORD PTR [ecx]
	sub	edx, 1
	mov	eax, DWORD PTR _this$[ebp]
	mov	ecx, DWORD PTR [eax+48]
	mov	DWORD PTR [ecx], edx

; 268  : 		return ((*_IGnext)++);

	mov	edx, DWORD PTR _this$[ebp]
	mov	eax, DWORD PTR [edx+32]
	mov	ecx, DWORD PTR [eax]
	mov	DWORD PTR tv76[ebp], ecx
	mov	edx, DWORD PTR _this$[ebp]
	mov	eax, DWORD PTR [edx+32]
	mov	ecx, DWORD PTR [eax]
	add	ecx, 1
	mov	edx, DWORD PTR _this$[ebp]
	mov	eax, DWORD PTR [edx+32]
	mov	DWORD PTR [eax], ecx
	mov	eax, DWORD PTR tv76[ebp]

; 269  : 		}

	mov	esp, ebp
	pop	ebp
	ret	0
?_Gninc@?$basic_streambuf@DU?$char_traits@D@std@@@std@@IAEPADXZ ENDP ; std::basic_streambuf<char,std::char_traits<char> >::_Gninc
; Function compile flags: /Odtp /RTCsu
_TEXT	ENDS
;	COMDAT ?_Gnavail@?$basic_streambuf@DU?$char_traits@D@std@@@std@@IBE_JXZ
_TEXT	SEGMENT
tv69 = -8						; size = 4
_this$ = -4						; size = 4
?_Gnavail@?$basic_streambuf@DU?$char_traits@D@std@@@std@@IBE_JXZ PROC ; std::basic_streambuf<char,std::char_traits<char> >::_Gnavail, COMDAT
; _this$ = ecx

; 278  : 		{	// count number of available elements in read buffer

	push	ebp
	mov	ebp, esp
	sub	esp, 8
	mov	DWORD PTR [ebp-8], -858993460		; ccccccccH
	mov	DWORD PTR [ebp-4], -858993460		; ccccccccH
	mov	DWORD PTR _this$[ebp], ecx

; 279  : 		return (*_IGnext != 0 ? *_IGcount : 0);

	mov	eax, DWORD PTR _this$[ebp]
	mov	ecx, DWORD PTR [eax+32]
	cmp	DWORD PTR [ecx], 0
	je	SHORT $LN3@Gnavail
	mov	edx, DWORD PTR _this$[ebp]
	mov	eax, DWORD PTR [edx+48]
	mov	ecx, DWORD PTR [eax]
	mov	DWORD PTR tv69[ebp], ecx
	jmp	SHORT $LN4@Gnavail
$LN3@Gnavail:
	mov	DWORD PTR tv69[ebp], 0
$LN4@Gnavail:
	mov	eax, DWORD PTR tv69[ebp]
	cdq

; 280  : 		}

	mov	esp, ebp
	pop	ebp
	ret	0
?_Gnavail@?$basic_streambuf@DU?$char_traits@D@std@@@std@@IBE_JXZ ENDP ; std::basic_streambuf<char,std::char_traits<char> >::_Gnavail
; Function compile flags: /Odtp /RTCsu
_TEXT	ENDS
;	COMDAT ?pbump@?$basic_streambuf@DU?$char_traits@D@std@@@std@@IAEXH@Z
_TEXT	SEGMENT
_this$ = -4						; size = 4
__Off$ = 8						; size = 4
?pbump@?$basic_streambuf@DU?$char_traits@D@std@@@std@@IAEXH@Z PROC ; std::basic_streambuf<char,std::char_traits<char> >::pbump, COMDAT
; _this$ = ecx

; 283  : 		{	// alter current position in write buffer by _Off

	push	ebp
	mov	ebp, esp
	push	ecx
	mov	DWORD PTR [ebp-4], -858993460		; ccccccccH
	mov	DWORD PTR _this$[ebp], ecx

; 284  : 		*_IPcount -= _Off;

	mov	eax, DWORD PTR _this$[ebp]
	mov	ecx, DWORD PTR [eax+52]
	mov	edx, DWORD PTR [ecx]
	sub	edx, DWORD PTR __Off$[ebp]
	mov	eax, DWORD PTR _this$[ebp]
	mov	ecx, DWORD PTR [eax+52]
	mov	DWORD PTR [ecx], edx

; 285  : 		*_IPnext += _Off;

	mov	edx, DWORD PTR _this$[ebp]
	mov	eax, DWORD PTR [edx+36]
	mov	ecx, DWORD PTR [eax]
	add	ecx, DWORD PTR __Off$[ebp]
	mov	edx, DWORD PTR _this$[ebp]
	mov	eax, DWORD PTR [edx+36]
	mov	DWORD PTR [eax], ecx

; 286  : 		}

	mov	esp, ebp
	pop	ebp
	ret	4
?pbump@?$basic_streambuf@DU?$char_traits@D@std@@@std@@IAEXH@Z ENDP ; std::basic_streambuf<char,std::char_traits<char> >::pbump
; Function compile flags: /Odtp /RTCsu
_TEXT	ENDS
;	COMDAT ?_Pnavail@?$basic_streambuf@DU?$char_traits@D@std@@@std@@IBE_JXZ
_TEXT	SEGMENT
tv69 = -8						; size = 4
_this$ = -4						; size = 4
?_Pnavail@?$basic_streambuf@DU?$char_traits@D@std@@@std@@IBE_JXZ PROC ; std::basic_streambuf<char,std::char_traits<char> >::_Pnavail, COMDAT
; _this$ = ecx

; 309  : 		{	// count number of available positions in write buffer

	push	ebp
	mov	ebp, esp
	sub	esp, 8
	mov	DWORD PTR [ebp-8], -858993460		; ccccccccH
	mov	DWORD PTR [ebp-4], -858993460		; ccccccccH
	mov	DWORD PTR _this$[ebp], ecx

; 310  : 		return (*_IPnext != 0 ? *_IPcount : 0);

	mov	eax, DWORD PTR _this$[ebp]
	mov	ecx, DWORD PTR [eax+36]
	cmp	DWORD PTR [ecx], 0
	je	SHORT $LN3@Pnavail
	mov	edx, DWORD PTR _this$[ebp]
	mov	eax, DWORD PTR [edx+52]
	mov	ecx, DWORD PTR [eax]
	mov	DWORD PTR tv69[ebp], ecx
	jmp	SHORT $LN4@Pnavail
$LN3@Pnavail:
	mov	DWORD PTR tv69[ebp], 0
$LN4@Pnavail:
	mov	eax, DWORD PTR tv69[ebp]
	cdq

; 311  : 		}

	mov	esp, ebp
	pop	ebp
	ret	0
?_Pnavail@?$basic_streambuf@DU?$char_traits@D@std@@@std@@IBE_JXZ ENDP ; std::basic_streambuf<char,std::char_traits<char> >::_Pnavail
_TEXT	ENDS
PUBLIC	?_Stz@?$fpos@H@std@@0HB				; std::fpos<int>::_Stz
;	COMDAT ?_Stz@?$fpos@H@std@@0HB
; File c:\program files (x86)\microsoft visual studio 10.0\vc\include\iosfwd
CONST	SEGMENT
?_Stz@?$fpos@H@std@@0HB DD 00H				; std::fpos<int>::_Stz
; Function compile flags: /Odtp /RTCsu
CONST	ENDS
;	COMDAT ??0?$fpos@H@std@@QAE@_J@Z
_TEXT	SEGMENT
_this$ = -4						; size = 4
__Off$ = 8						; size = 8
??0?$fpos@H@std@@QAE@_J@Z PROC				; std::fpos<int>::fpos<int>, COMDAT
; _this$ = ecx

; 40   : 		{	// construct with stream offset

	push	ebp
	mov	ebp, esp
	push	ecx
	mov	DWORD PTR [ebp-4], -858993460		; ccccccccH
	mov	DWORD PTR _this$[ebp], ecx
	mov	eax, DWORD PTR _this$[ebp]
	mov	ecx, DWORD PTR __Off$[ebp]
	mov	DWORD PTR [eax], ecx
	mov	edx, DWORD PTR __Off$[ebp+4]
	mov	DWORD PTR [eax+4], edx
	mov	eax, DWORD PTR _this$[ebp]
	mov	DWORD PTR [eax+8], 0
	mov	DWORD PTR [eax+12], 0
	mov	ecx, DWORD PTR _this$[ebp]
	mov	edx, DWORD PTR ?_Stz@?$fpos@H@std@@0HB	; std::fpos<int>::_Stz
	mov	DWORD PTR [ecx+16], edx

; 41   : 		}

	mov	eax, DWORD PTR _this$[ebp]
	mov	esp, ebp
	pop	ebp
	ret	8
??0?$fpos@H@std@@QAE@_J@Z ENDP				; std::fpos<int>::fpos<int>
_TEXT	ENDS
PUBLIC	??_Glocale@std@@QAEPAXI@Z			; std::locale::`scalar deleting destructor'
; Function compile flags: /Odtp /RTCsu
; File c:\program files (x86)\microsoft visual studio 10.0\vc\include\xdebug
;	COMDAT ??$_DebugHeapDelete@Vlocale@std@@@std@@YAXPAVlocale@0@@Z
_TEXT	SEGMENT
__Ptr$ = 8						; size = 4
??$_DebugHeapDelete@Vlocale@std@@@std@@YAXPAVlocale@0@@Z PROC ; std::_DebugHeapDelete<std::locale>, COMDAT

; 56   : 	{	// delete from the debug CRT heap even if operator delete exists

	push	ebp
	mov	ebp, esp

; 57   : 	if (_Ptr != 0)

	cmp	DWORD PTR __Ptr$[ebp], 0
	je	SHORT $LN2@DebugHeapD@2

; 58   : 		{	// worth deleting
; 59   : 		_Ptr->~_Ty();

	push	0
	mov	ecx, DWORD PTR __Ptr$[ebp]
	call	??_Glocale@std@@QAEPAXI@Z

; 60   : 		// delete as _NORMAL_BLOCK, not _CRT_BLOCK, since we might have
; 61   : 		// facets allocated by normal new.
; 62   : 		free(_Ptr);

	mov	eax, DWORD PTR __Ptr$[ebp]
	push	eax
	call	_free
	add	esp, 4
$LN2@DebugHeapD@2:

; 63   : 		}
; 64   : 	}

	cmp	ebp, esp
	call	__RTC_CheckEsp
	pop	ebp
	ret	0
??$_DebugHeapDelete@Vlocale@std@@@std@@YAXPAVlocale@0@@Z ENDP ; std::_DebugHeapDelete<std::locale>
; Function compile flags: /Odtp /RTCsu
_TEXT	ENDS
;	COMDAT ??_Glocale@std@@QAEPAXI@Z
_TEXT	SEGMENT
_this$ = -4						; size = 4
___flags$ = 8						; size = 4
??_Glocale@std@@QAEPAXI@Z PROC				; std::locale::`scalar deleting destructor', COMDAT
; _this$ = ecx
	push	ebp
	mov	ebp, esp
	push	ecx
	mov	DWORD PTR [ebp-4], -858993460		; ccccccccH
	mov	DWORD PTR _this$[ebp], ecx
	mov	ecx, DWORD PTR _this$[ebp]
	call	??1locale@std@@QAE@XZ			; std::locale::~locale
	mov	eax, DWORD PTR ___flags$[ebp]
	and	eax, 1
	je	SHORT $LN1@scalar@9
	mov	ecx, DWORD PTR _this$[ebp]
	push	ecx
	call	??3@YAXPAX@Z				; operator delete
	add	esp, 4
$LN1@scalar@9:
	mov	eax, DWORD PTR _this$[ebp]
	add	esp, 4
	cmp	ebp, esp
	call	__RTC_CheckEsp
	mov	esp, ebp
	pop	ebp
	ret	4
??_Glocale@std@@QAEPAXI@Z ENDP				; std::locale::`scalar deleting destructor'
_TEXT	ENDS
PUBLIC	?setg@?$basic_streambuf@DU?$char_traits@D@std@@@std@@IAEXPAD00@Z ; std::basic_streambuf<char,std::char_traits<char> >::setg
PUBLIC	?setp@?$basic_streambuf@DU?$char_traits@D@std@@@std@@IAEXPAD0@Z ; std::basic_streambuf<char,std::char_traits<char> >::setp
PUBLIC	?eback@?$basic_streambuf@DU?$char_traits@D@std@@@std@@IBEPADXZ ; std::basic_streambuf<char,std::char_traits<char> >::eback
PUBLIC	?_Pninc@?$basic_streambuf@DU?$char_traits@D@std@@@std@@IAEPADXZ ; std::basic_streambuf<char,std::char_traits<char> >::_Pninc
PUBLIC	?not_eof@?$char_traits@D@std@@SAHABH@Z		; std::char_traits<char>::not_eof
PUBLIC	?setp@?$basic_streambuf@DU?$char_traits@D@std@@@std@@IAEXPAD00@Z ; std::basic_streambuf<char,std::char_traits<char> >::setp
PUBLIC	?pbase@?$basic_streambuf@DU?$char_traits@D@std@@@std@@IBEPADXZ ; std::basic_streambuf<char,std::char_traits<char> >::pbase
PUBLIC	?epptr@?$basic_streambuf@DU?$char_traits@D@std@@@std@@IBEPADXZ ; std::basic_streambuf<char,std::char_traits<char> >::epptr
; Function compile flags: /Odtp /RTCsu
; File c:\program files (x86)\microsoft visual studio 10.0\vc\include\sstream
;	COMDAT ?overflow@?$basic_stringbuf@DU?$char_traits@D@std@@V?$allocator@D@2@@std@@MAEHH@Z
_TEXT	SEGMENT
tv199 = -36						; size = 4
tv195 = -32						; size = 4
$T147575 = -28						; size = 4
__Oldptr$143553 = -24					; size = 4
__Newptr$143552 = -20					; size = 4
__Inc$143547 = -16					; size = 4
__Newsize$143546 = -12					; size = 4
__Oldsize$143545 = -8					; size = 4
_this$ = -4						; size = 4
__Meta$ = 8						; size = 4
?overflow@?$basic_stringbuf@DU?$char_traits@D@std@@V?$allocator@D@2@@std@@MAEHH@Z PROC ; std::basic_stringbuf<char,std::char_traits<char>,std::allocator<char> >::overflow, COMDAT
; _this$ = ecx

; 120  : 		{	// put an element to stream

	push	ebp
	mov	ebp, esp
	sub	esp, 36					; 00000024H
	push	ebx
	push	esi
	mov	eax, -858993460				; ccccccccH
	mov	DWORD PTR [ebp-36], eax
	mov	DWORD PTR [ebp-32], eax
	mov	DWORD PTR [ebp-28], eax
	mov	DWORD PTR [ebp-24], eax
	mov	DWORD PTR [ebp-20], eax
	mov	DWORD PTR [ebp-16], eax
	mov	DWORD PTR [ebp-12], eax
	mov	DWORD PTR [ebp-8], eax
	mov	DWORD PTR [ebp-4], eax
	mov	DWORD PTR _this$[ebp], ecx

; 121  : 		if (_Mystate & _Append
; 122  : 			&& _Mysb::pptr() != 0 && _Mysb::pptr() < _Seekhigh)

	mov	eax, DWORD PTR _this$[ebp]
	mov	ecx, DWORD PTR [eax+64]
	and	ecx, 8
	je	SHORT $LN18@overflow
	mov	ecx, DWORD PTR _this$[ebp]
	call	?pptr@?$basic_streambuf@DU?$char_traits@D@std@@@std@@IBEPADXZ ; std::basic_streambuf<char,std::char_traits<char> >::pptr
	test	eax, eax
	je	SHORT $LN18@overflow
	mov	ecx, DWORD PTR _this$[ebp]
	call	?pptr@?$basic_streambuf@DU?$char_traits@D@std@@@std@@IBEPADXZ ; std::basic_streambuf<char,std::char_traits<char> >::pptr
	mov	edx, DWORD PTR _this$[ebp]
	cmp	eax, DWORD PTR [edx+60]
	jae	SHORT $LN18@overflow

; 123  : 			_Mysb::setp(_Mysb::pbase(), _Seekhigh, _Mysb::epptr());

	mov	ecx, DWORD PTR _this$[ebp]
	call	?epptr@?$basic_streambuf@DU?$char_traits@D@std@@@std@@IBEPADXZ ; std::basic_streambuf<char,std::char_traits<char> >::epptr
	push	eax
	mov	eax, DWORD PTR _this$[ebp]
	mov	ecx, DWORD PTR [eax+60]
	push	ecx
	mov	ecx, DWORD PTR _this$[ebp]
	call	?pbase@?$basic_streambuf@DU?$char_traits@D@std@@@std@@IBEPADXZ ; std::basic_streambuf<char,std::char_traits<char> >::pbase
	push	eax
	mov	ecx, DWORD PTR _this$[ebp]
	call	?setp@?$basic_streambuf@DU?$char_traits@D@std@@@std@@IAEXPAD00@Z ; std::basic_streambuf<char,std::char_traits<char> >::setp
$LN18@overflow:

; 124  : 
; 125  : 		if (_Traits::eq_int_type(_Traits::eof(), _Meta))

	call	?eof@?$char_traits@D@std@@SAHXZ		; std::char_traits<char>::eof
	mov	DWORD PTR $T147575[ebp], eax
	lea	edx, DWORD PTR __Meta$[ebp]
	push	edx
	lea	eax, DWORD PTR $T147575[ebp]
	push	eax
	call	?eq_int_type@?$char_traits@D@std@@SA_NABH0@Z ; std::char_traits<char>::eq_int_type
	add	esp, 8
	movzx	ecx, al
	test	ecx, ecx
	je	SHORT $LN17@overflow

; 126  : 			return (_Traits::not_eof(_Meta));	// EOF, return success code

	lea	edx, DWORD PTR __Meta$[ebp]
	push	edx
	call	?not_eof@?$char_traits@D@std@@SAHABH@Z	; std::char_traits<char>::not_eof
	add	esp, 4
	jmp	$LN19@overflow

; 127  : 		else if (_Mysb::pptr() != 0

	jmp	$LN19@overflow
$LN17@overflow:

; 128  : 			&& _Mysb::pptr() < _Mysb::epptr())

	mov	ecx, DWORD PTR _this$[ebp]
	call	?pptr@?$basic_streambuf@DU?$char_traits@D@std@@@std@@IBEPADXZ ; std::basic_streambuf<char,std::char_traits<char> >::pptr
	test	eax, eax
	je	SHORT $LN15@overflow
	mov	ecx, DWORD PTR _this$[ebp]
	call	?pptr@?$basic_streambuf@DU?$char_traits@D@std@@@std@@IBEPADXZ ; std::basic_streambuf<char,std::char_traits<char> >::pptr
	mov	esi, eax
	mov	ecx, DWORD PTR _this$[ebp]
	call	?epptr@?$basic_streambuf@DU?$char_traits@D@std@@@std@@IBEPADXZ ; std::basic_streambuf<char,std::char_traits<char> >::epptr
	cmp	esi, eax
	jae	SHORT $LN15@overflow

; 129  : 			{	// room in buffer, store it
; 130  : 			*_Mysb::_Pninc() = _Traits::to_char_type(_Meta);

	lea	eax, DWORD PTR __Meta$[ebp]
	push	eax
	call	?to_char_type@?$char_traits@D@std@@SADABH@Z ; std::char_traits<char>::to_char_type
	add	esp, 4
	mov	bl, al
	mov	ecx, DWORD PTR _this$[ebp]
	call	?_Pninc@?$basic_streambuf@DU?$char_traits@D@std@@@std@@IAEPADXZ ; std::basic_streambuf<char,std::char_traits<char> >::_Pninc
	mov	BYTE PTR [eax], bl

; 131  : 			return (_Meta);

	mov	eax, DWORD PTR __Meta$[ebp]
	jmp	$LN19@overflow
	jmp	$LN19@overflow
$LN15@overflow:

; 132  : 			}
; 133  : 		else if (_Mystate & _Constant)

	mov	ecx, DWORD PTR _this$[ebp]
	mov	edx, DWORD PTR [ecx+64]
	and	edx, 2
	je	SHORT $LN13@overflow

; 134  : 			return (_Traits::eof());	// array nonmutable, fail

	call	?eof@?$char_traits@D@std@@SAHXZ		; std::char_traits<char>::eof
	jmp	$LN19@overflow

; 135  : 		else

	jmp	$LN19@overflow
$LN13@overflow:

; 136  : 			{	// grow buffer and store element
; 137  : 			size_t _Oldsize = _Mysb::pptr() == 0
; 138  : 				? 0 : _Mysb::epptr() - _Mysb::eback();

	mov	ecx, DWORD PTR _this$[ebp]
	call	?pptr@?$basic_streambuf@DU?$char_traits@D@std@@@std@@IBEPADXZ ; std::basic_streambuf<char,std::char_traits<char> >::pptr
	test	eax, eax
	jne	SHORT $LN21@overflow
	mov	DWORD PTR tv195[ebp], 0
	jmp	SHORT $LN22@overflow
$LN21@overflow:
	mov	ecx, DWORD PTR _this$[ebp]
	call	?epptr@?$basic_streambuf@DU?$char_traits@D@std@@@std@@IBEPADXZ ; std::basic_streambuf<char,std::char_traits<char> >::epptr
	mov	esi, eax
	mov	ecx, DWORD PTR _this$[ebp]
	call	?eback@?$basic_streambuf@DU?$char_traits@D@std@@@std@@IBEPADXZ ; std::basic_streambuf<char,std::char_traits<char> >::eback
	sub	esi, eax
	mov	DWORD PTR tv195[ebp], esi
$LN22@overflow:
	mov	eax, DWORD PTR tv195[ebp]
	mov	DWORD PTR __Oldsize$143545[ebp], eax

; 139  : 			size_t _Newsize = _Oldsize;

	mov	ecx, DWORD PTR __Oldsize$143545[ebp]
	mov	DWORD PTR __Newsize$143546[ebp], ecx

; 140  : 			size_t _Inc = _Newsize / 2 < _MINSIZE
; 141  : 				? _MINSIZE : _Newsize / 2;	// grow by 50 per cent

	mov	edx, DWORD PTR __Newsize$143546[ebp]
	shr	edx, 1
	cmp	edx, 32					; 00000020H
	jae	SHORT $LN23@overflow
	mov	DWORD PTR tv199[ebp], 32		; 00000020H
	jmp	SHORT $LN24@overflow
$LN23@overflow:
	mov	eax, DWORD PTR __Newsize$143546[ebp]
	shr	eax, 1
	mov	DWORD PTR tv199[ebp], eax
$LN24@overflow:
	mov	ecx, DWORD PTR tv199[ebp]
	mov	DWORD PTR __Inc$143547[ebp], ecx
$LN11@overflow:

; 142  : 
; 143  : 			while (0 < _Inc && INT_MAX - _Inc < _Newsize)

	cmp	DWORD PTR __Inc$143547[ebp], 0
	jbe	SHORT $LN10@overflow
	mov	edx, 2147483647				; 7fffffffH
	sub	edx, DWORD PTR __Inc$143547[ebp]
	cmp	edx, DWORD PTR __Newsize$143546[ebp]
	jae	SHORT $LN10@overflow

; 144  : 				_Inc /= 2;	// increment causes overflow, halve it

	mov	eax, DWORD PTR __Inc$143547[ebp]
	shr	eax, 1
	mov	DWORD PTR __Inc$143547[ebp], eax
	jmp	SHORT $LN11@overflow
$LN10@overflow:

; 145  : 			if (_Inc == 0)

	cmp	DWORD PTR __Inc$143547[ebp], 0
	jne	SHORT $LN9@overflow

; 146  : 				return (_Traits::eof());	// buffer can't grow, fail

	call	?eof@?$char_traits@D@std@@SAHXZ		; std::char_traits<char>::eof
	jmp	$LN19@overflow
$LN9@overflow:

; 147  : 
; 148  : 			_Newsize += _Inc;

	mov	ecx, DWORD PTR __Newsize$143546[ebp]
	add	ecx, DWORD PTR __Inc$143547[ebp]
	mov	DWORD PTR __Newsize$143546[ebp], ecx

; 149  : 
; 150  : 			_Elem *_Newptr = _Al.allocate(_Newsize);

	mov	edx, DWORD PTR __Newsize$143546[ebp]
	push	edx
	mov	ecx, DWORD PTR _this$[ebp]
	add	ecx, 68					; 00000044H
	call	?allocate@?$allocator@D@std@@QAEPADI@Z	; std::allocator<char>::allocate
	mov	DWORD PTR __Newptr$143552[ebp], eax

; 151  : 			_Elem *_Oldptr = _Mysb::eback();

	mov	ecx, DWORD PTR _this$[ebp]
	call	?eback@?$basic_streambuf@DU?$char_traits@D@std@@@std@@IBEPADXZ ; std::basic_streambuf<char,std::char_traits<char> >::eback
	mov	DWORD PTR __Oldptr$143553[ebp], eax

; 152  : 
; 153  : 			if (0 < _Oldsize)

	cmp	DWORD PTR __Oldsize$143545[ebp], 0
	jbe	SHORT $LN8@overflow

; 154  : 				_Traits::copy(_Newptr, _Oldptr, _Oldsize);

	mov	eax, DWORD PTR __Oldsize$143545[ebp]
	push	eax
	mov	ecx, DWORD PTR __Oldptr$143553[ebp]
	push	ecx
	mov	edx, DWORD PTR __Newptr$143552[ebp]
	push	edx
	call	?copy@?$char_traits@D@std@@SAPADPADPBDI@Z ; std::char_traits<char>::copy
	add	esp, 12					; 0000000cH
$LN8@overflow:

; 155  : 
; 156  : 			if (_Oldsize == 0)

	cmp	DWORD PTR __Oldsize$143545[ebp], 0
	jne	SHORT $LN7@overflow

; 157  : 				{	// first growth, set up pointers
; 158  : 				_Seekhigh = _Newptr;

	mov	eax, DWORD PTR _this$[ebp]
	mov	ecx, DWORD PTR __Newptr$143552[ebp]
	mov	DWORD PTR [eax+60], ecx

; 159  : 				_Mysb::setp(_Newptr, _Newptr + _Newsize);

	mov	edx, DWORD PTR __Newptr$143552[ebp]
	add	edx, DWORD PTR __Newsize$143546[ebp]
	push	edx
	mov	eax, DWORD PTR __Newptr$143552[ebp]
	push	eax
	mov	ecx, DWORD PTR _this$[ebp]
	call	?setp@?$basic_streambuf@DU?$char_traits@D@std@@@std@@IAEXPAD0@Z ; std::basic_streambuf<char,std::char_traits<char> >::setp

; 160  : 				if (_Mystate & _Noread)

	mov	ecx, DWORD PTR _this$[ebp]
	mov	edx, DWORD PTR [ecx+64]
	and	edx, 4
	je	SHORT $LN6@overflow

; 161  : 					_Mysb::setg(_Newptr, 0, _Newptr);

	mov	eax, DWORD PTR __Newptr$143552[ebp]
	push	eax
	push	0
	mov	ecx, DWORD PTR __Newptr$143552[ebp]
	push	ecx
	mov	ecx, DWORD PTR _this$[ebp]
	call	?setg@?$basic_streambuf@DU?$char_traits@D@std@@@std@@IAEXPAD00@Z ; std::basic_streambuf<char,std::char_traits<char> >::setg

; 162  : 				else

	jmp	SHORT $LN5@overflow
$LN6@overflow:

; 163  : 					_Mysb::setg(_Newptr, _Newptr, _Newptr + 1);

	mov	edx, DWORD PTR __Newptr$143552[ebp]
	add	edx, 1
	push	edx
	mov	eax, DWORD PTR __Newptr$143552[ebp]
	push	eax
	mov	ecx, DWORD PTR __Newptr$143552[ebp]
	push	ecx
	mov	ecx, DWORD PTR _this$[ebp]
	call	?setg@?$basic_streambuf@DU?$char_traits@D@std@@@std@@IAEXPAD00@Z ; std::basic_streambuf<char,std::char_traits<char> >::setg
$LN5@overflow:

; 164  : 				}
; 165  : 			else

	jmp	$LN4@overflow
$LN7@overflow:

; 166  : 				{	// not first growth, adjust pointers
; 167  : 				_Seekhigh = _Newptr + (_Seekhigh - _Oldptr);

	mov	edx, DWORD PTR _this$[ebp]
	mov	eax, DWORD PTR [edx+60]
	sub	eax, DWORD PTR __Oldptr$143553[ebp]
	add	eax, DWORD PTR __Newptr$143552[ebp]
	mov	ecx, DWORD PTR _this$[ebp]
	mov	DWORD PTR [ecx+60], eax

; 168  : 				_Mysb::setp(_Newptr + (_Mysb::pbase() - _Oldptr),
; 169  : 					_Newptr + (_Mysb::pptr() - _Oldptr),
; 170  : 					_Newptr + _Newsize);

	mov	edx, DWORD PTR __Newptr$143552[ebp]
	add	edx, DWORD PTR __Newsize$143546[ebp]
	push	edx
	mov	ecx, DWORD PTR _this$[ebp]
	call	?pptr@?$basic_streambuf@DU?$char_traits@D@std@@@std@@IBEPADXZ ; std::basic_streambuf<char,std::char_traits<char> >::pptr
	sub	eax, DWORD PTR __Oldptr$143553[ebp]
	add	eax, DWORD PTR __Newptr$143552[ebp]
	push	eax
	mov	ecx, DWORD PTR _this$[ebp]
	call	?pbase@?$basic_streambuf@DU?$char_traits@D@std@@@std@@IBEPADXZ ; std::basic_streambuf<char,std::char_traits<char> >::pbase
	sub	eax, DWORD PTR __Oldptr$143553[ebp]
	add	eax, DWORD PTR __Newptr$143552[ebp]
	push	eax
	mov	ecx, DWORD PTR _this$[ebp]
	call	?setp@?$basic_streambuf@DU?$char_traits@D@std@@@std@@IAEXPAD00@Z ; std::basic_streambuf<char,std::char_traits<char> >::setp

; 171  : 				if (_Mystate & _Noread)

	mov	eax, DWORD PTR _this$[ebp]
	mov	ecx, DWORD PTR [eax+64]
	and	ecx, 4
	je	SHORT $LN3@overflow

; 172  : 					_Mysb::setg(_Newptr, 0, _Newptr);

	mov	edx, DWORD PTR __Newptr$143552[ebp]
	push	edx
	push	0
	mov	eax, DWORD PTR __Newptr$143552[ebp]
	push	eax
	mov	ecx, DWORD PTR _this$[ebp]
	call	?setg@?$basic_streambuf@DU?$char_traits@D@std@@@std@@IAEXPAD00@Z ; std::basic_streambuf<char,std::char_traits<char> >::setg

; 173  : 				else

	jmp	SHORT $LN4@overflow
$LN3@overflow:

; 174  : 					_Mysb::setg(_Newptr,
; 175  : 						_Newptr + (_Mysb::gptr() - _Oldptr),
; 176  : 						_Mysb::pptr() + 1);

	mov	ecx, DWORD PTR _this$[ebp]
	call	?pptr@?$basic_streambuf@DU?$char_traits@D@std@@@std@@IBEPADXZ ; std::basic_streambuf<char,std::char_traits<char> >::pptr
	add	eax, 1
	push	eax
	mov	ecx, DWORD PTR _this$[ebp]
	call	?gptr@?$basic_streambuf@DU?$char_traits@D@std@@@std@@IBEPADXZ ; std::basic_streambuf<char,std::char_traits<char> >::gptr
	sub	eax, DWORD PTR __Oldptr$143553[ebp]
	add	eax, DWORD PTR __Newptr$143552[ebp]
	push	eax
	mov	ecx, DWORD PTR __Newptr$143552[ebp]
	push	ecx
	mov	ecx, DWORD PTR _this$[ebp]
	call	?setg@?$basic_streambuf@DU?$char_traits@D@std@@@std@@IAEXPAD00@Z ; std::basic_streambuf<char,std::char_traits<char> >::setg
$LN4@overflow:

; 177  : 				}
; 178  : 
; 179  : 			if (_Mystate & _Allocated)

	mov	edx, DWORD PTR _this$[ebp]
	mov	eax, DWORD PTR [edx+64]
	and	eax, 1
	je	SHORT $LN1@overflow

; 180  : 				_Al.deallocate(_Oldptr, _Oldsize);

	mov	ecx, DWORD PTR __Oldsize$143545[ebp]
	push	ecx
	mov	edx, DWORD PTR __Oldptr$143553[ebp]
	push	edx
	mov	ecx, DWORD PTR _this$[ebp]
	add	ecx, 68					; 00000044H
	call	?deallocate@?$allocator@D@std@@QAEXPADI@Z ; std::allocator<char>::deallocate
$LN1@overflow:

; 181  : 			_Mystate |= _Allocated;

	mov	eax, DWORD PTR _this$[ebp]
	mov	ecx, DWORD PTR [eax+64]
	or	ecx, 1
	mov	edx, DWORD PTR _this$[ebp]
	mov	DWORD PTR [edx+64], ecx

; 182  : 
; 183  : 			*_Mysb::_Pninc() = _Traits::to_char_type(_Meta);

	lea	eax, DWORD PTR __Meta$[ebp]
	push	eax
	call	?to_char_type@?$char_traits@D@std@@SADABH@Z ; std::char_traits<char>::to_char_type
	add	esp, 4
	mov	bl, al
	mov	ecx, DWORD PTR _this$[ebp]
	call	?_Pninc@?$basic_streambuf@DU?$char_traits@D@std@@@std@@IAEPADXZ ; std::basic_streambuf<char,std::char_traits<char> >::_Pninc
	mov	BYTE PTR [eax], bl

; 184  : 			return (_Meta);

	mov	eax, DWORD PTR __Meta$[ebp]
$LN19@overflow:

; 185  : 			}
; 186  : 		}

	pop	esi
	pop	ebx
	add	esp, 36					; 00000024H
	cmp	ebp, esp
	call	__RTC_CheckEsp
	mov	esp, ebp
	pop	ebp
	ret	4
?overflow@?$basic_stringbuf@DU?$char_traits@D@std@@V?$allocator@D@2@@std@@MAEHH@Z ENDP ; std::basic_stringbuf<char,std::char_traits<char>,std::allocator<char> >::overflow
; Function compile flags: /Odtp /RTCsu
; File c:\program files (x86)\microsoft visual studio 10.0\vc\include\iosfwd
_TEXT	ENDS
;	COMDAT ?not_eof@?$char_traits@D@std@@SAHABH@Z
_TEXT	SEGMENT
tv69 = -4						; size = 4
__Meta$ = 8						; size = 4
?not_eof@?$char_traits@D@std@@SAHABH@Z PROC		; std::char_traits<char>::not_eof, COMDAT

; 557  : 		{	// return anything but EOF

	push	ebp
	mov	ebp, esp
	push	ecx
	mov	DWORD PTR [ebp-4], -858993460		; ccccccccH

; 558  : 		return (_Meta != eof() ? _Meta : !eof());

	call	?eof@?$char_traits@D@std@@SAHXZ		; std::char_traits<char>::eof
	mov	ecx, DWORD PTR __Meta$[ebp]
	cmp	DWORD PTR [ecx], eax
	je	SHORT $LN3@not_eof
	mov	edx, DWORD PTR __Meta$[ebp]
	mov	eax, DWORD PTR [edx]
	mov	DWORD PTR tv69[ebp], eax
	jmp	SHORT $LN4@not_eof
$LN3@not_eof:
	call	?eof@?$char_traits@D@std@@SAHXZ		; std::char_traits<char>::eof
	neg	eax
	sbb	eax, eax
	add	eax, 1
	mov	DWORD PTR tv69[ebp], eax
$LN4@not_eof:
	mov	eax, DWORD PTR tv69[ebp]

; 559  : 		}

	add	esp, 4
	cmp	ebp, esp
	call	__RTC_CheckEsp
	mov	esp, ebp
	pop	ebp
	ret	0
?not_eof@?$char_traits@D@std@@SAHABH@Z ENDP		; std::char_traits<char>::not_eof
; Function compile flags: /Odtp /RTCsu
; File c:\program files (x86)\microsoft visual studio 10.0\vc\include\streambuf
_TEXT	ENDS
;	COMDAT ?eback@?$basic_streambuf@DU?$char_traits@D@std@@@std@@IBEPADXZ
_TEXT	SEGMENT
_this$ = -4						; size = 4
?eback@?$basic_streambuf@DU?$char_traits@D@std@@@std@@IBEPADXZ PROC ; std::basic_streambuf<char,std::char_traits<char> >::eback, COMDAT
; _this$ = ecx

; 217  : 		{	// return beginning of read buffer

	push	ebp
	mov	ebp, esp
	push	ecx
	mov	DWORD PTR [ebp-4], -858993460		; ccccccccH
	mov	DWORD PTR _this$[ebp], ecx

; 218  : 		return (*_IGfirst);

	mov	eax, DWORD PTR _this$[ebp]
	mov	ecx, DWORD PTR [eax+16]
	mov	eax, DWORD PTR [ecx]

; 219  : 		}

	mov	esp, ebp
	pop	ebp
	ret	0
?eback@?$basic_streambuf@DU?$char_traits@D@std@@@std@@IBEPADXZ ENDP ; std::basic_streambuf<char,std::char_traits<char> >::eback
; Function compile flags: /Odtp /RTCsu
_TEXT	ENDS
;	COMDAT ?epptr@?$basic_streambuf@DU?$char_traits@D@std@@@std@@IBEPADXZ
_TEXT	SEGMENT
_this$ = -4						; size = 4
?epptr@?$basic_streambuf@DU?$char_traits@D@std@@@std@@IBEPADXZ PROC ; std::basic_streambuf<char,std::char_traits<char> >::epptr, COMDAT
; _this$ = ecx

; 255  : 		{	// return end of write buffer

	push	ebp
	mov	ebp, esp
	push	ecx
	mov	DWORD PTR [ebp-4], -858993460		; ccccccccH
	mov	DWORD PTR _this$[ebp], ecx

; 256  : 		return (*_IPnext + *_IPcount);

	mov	eax, DWORD PTR _this$[ebp]
	mov	ecx, DWORD PTR [eax+36]
	mov	edx, DWORD PTR _this$[ebp]
	mov	eax, DWORD PTR [edx+52]
	mov	ecx, DWORD PTR [ecx]
	add	ecx, DWORD PTR [eax]
	mov	eax, ecx

; 257  : 		}

	mov	esp, ebp
	pop	ebp
	ret	0
?epptr@?$basic_streambuf@DU?$char_traits@D@std@@@std@@IBEPADXZ ENDP ; std::basic_streambuf<char,std::char_traits<char> >::epptr
; Function compile flags: /Odtp /RTCsu
_TEXT	ENDS
;	COMDAT ?_Pninc@?$basic_streambuf@DU?$char_traits@D@std@@@std@@IAEPADXZ
_TEXT	SEGMENT
tv76 = -8						; size = 4
_this$ = -4						; size = 4
?_Pninc@?$basic_streambuf@DU?$char_traits@D@std@@@std@@IAEPADXZ PROC ; std::basic_streambuf<char,std::char_traits<char> >::_Pninc, COMDAT
; _this$ = ecx

; 303  : 		{	// increment current position in write buffer

	push	ebp
	mov	ebp, esp
	sub	esp, 8
	mov	DWORD PTR [ebp-8], -858993460		; ccccccccH
	mov	DWORD PTR [ebp-4], -858993460		; ccccccccH
	mov	DWORD PTR _this$[ebp], ecx

; 304  : 		--*_IPcount;

	mov	eax, DWORD PTR _this$[ebp]
	mov	ecx, DWORD PTR [eax+52]
	mov	edx, DWORD PTR [ecx]
	sub	edx, 1
	mov	eax, DWORD PTR _this$[ebp]
	mov	ecx, DWORD PTR [eax+52]
	mov	DWORD PTR [ecx], edx

; 305  : 		return ((*_IPnext)++);

	mov	edx, DWORD PTR _this$[ebp]
	mov	eax, DWORD PTR [edx+36]
	mov	ecx, DWORD PTR [eax]
	mov	DWORD PTR tv76[ebp], ecx
	mov	edx, DWORD PTR _this$[ebp]
	mov	eax, DWORD PTR [edx+36]
	mov	ecx, DWORD PTR [eax]
	add	ecx, 1
	mov	edx, DWORD PTR _this$[ebp]
	mov	eax, DWORD PTR [edx+36]
	mov	DWORD PTR [eax], ecx
	mov	eax, DWORD PTR tv76[ebp]

; 306  : 		}

	mov	esp, ebp
	pop	ebp
	ret	0
?_Pninc@?$basic_streambuf@DU?$char_traits@D@std@@@std@@IAEPADXZ ENDP ; std::basic_streambuf<char,std::char_traits<char> >::_Pninc
; Function compile flags: /Odtp /RTCsu
_TEXT	ENDS
;	COMDAT ?setg@?$basic_streambuf@DU?$char_traits@D@std@@@std@@IAEXPAD00@Z
_TEXT	SEGMENT
_this$ = -4						; size = 4
__First$ = 8						; size = 4
__Next$ = 12						; size = 4
__Last$ = 16						; size = 4
?setg@?$basic_streambuf@DU?$char_traits@D@std@@@std@@IAEXPAD00@Z PROC ; std::basic_streambuf<char,std::char_traits<char> >::setg, COMDAT
; _this$ = ecx

; 248  : 		{	// set pointers for read buffer

	push	ebp
	mov	ebp, esp
	push	ecx
	mov	DWORD PTR [ebp-4], -858993460		; ccccccccH
	mov	DWORD PTR _this$[ebp], ecx

; 249  : 		*_IGfirst = _First;

	mov	eax, DWORD PTR _this$[ebp]
	mov	ecx, DWORD PTR [eax+16]
	mov	edx, DWORD PTR __First$[ebp]
	mov	DWORD PTR [ecx], edx

; 250  : 		*_IGnext = _Next;

	mov	eax, DWORD PTR _this$[ebp]
	mov	ecx, DWORD PTR [eax+32]
	mov	edx, DWORD PTR __Next$[ebp]
	mov	DWORD PTR [ecx], edx

; 251  : 		*_IGcount = (int)(_Last - _Next);

	mov	eax, DWORD PTR __Last$[ebp]
	sub	eax, DWORD PTR __Next$[ebp]
	mov	ecx, DWORD PTR _this$[ebp]
	mov	edx, DWORD PTR [ecx+48]
	mov	DWORD PTR [edx], eax

; 252  : 		}

	mov	esp, ebp
	pop	ebp
	ret	12					; 0000000cH
?setg@?$basic_streambuf@DU?$char_traits@D@std@@@std@@IAEXPAD00@Z ENDP ; std::basic_streambuf<char,std::char_traits<char> >::setg
; Function compile flags: /Odtp /RTCsu
_TEXT	ENDS
;	COMDAT ?setp@?$basic_streambuf@DU?$char_traits@D@std@@@std@@IAEXPAD0@Z
_TEXT	SEGMENT
_this$ = -4						; size = 4
__First$ = 8						; size = 4
__Last$ = 12						; size = 4
?setp@?$basic_streambuf@DU?$char_traits@D@std@@@std@@IAEXPAD0@Z PROC ; std::basic_streambuf<char,std::char_traits<char> >::setp, COMDAT
; _this$ = ecx

; 289  : 		{	// set pointers for write buffer

	push	ebp
	mov	ebp, esp
	push	ecx
	mov	DWORD PTR [ebp-4], -858993460		; ccccccccH
	mov	DWORD PTR _this$[ebp], ecx

; 290  : 		*_IPfirst = _First;

	mov	eax, DWORD PTR _this$[ebp]
	mov	ecx, DWORD PTR [eax+20]
	mov	edx, DWORD PTR __First$[ebp]
	mov	DWORD PTR [ecx], edx

; 291  : 		*_IPnext = _First;

	mov	eax, DWORD PTR _this$[ebp]
	mov	ecx, DWORD PTR [eax+36]
	mov	edx, DWORD PTR __First$[ebp]
	mov	DWORD PTR [ecx], edx

; 292  : 		*_IPcount = (int)(_Last - _First);

	mov	eax, DWORD PTR __Last$[ebp]
	sub	eax, DWORD PTR __First$[ebp]
	mov	ecx, DWORD PTR _this$[ebp]
	mov	edx, DWORD PTR [ecx+52]
	mov	DWORD PTR [edx], eax

; 293  : 		}

	mov	esp, ebp
	pop	ebp
	ret	8
?setp@?$basic_streambuf@DU?$char_traits@D@std@@@std@@IAEXPAD0@Z ENDP ; std::basic_streambuf<char,std::char_traits<char> >::setp
_TEXT	ENDS
PUBLIC	?eq@?$char_traits@D@std@@SA_NABD0@Z		; std::char_traits<char>::eq
; Function compile flags: /Odtp /RTCsu
; File c:\program files (x86)\microsoft visual studio 10.0\vc\include\sstream
;	COMDAT ?pbackfail@?$basic_stringbuf@DU?$char_traits@D@std@@V?$allocator@D@2@@std@@MAEHH@Z
_TEXT	SEGMENT
$T147598 = -16						; size = 4
$T147597 = -9						; size = 1
$T147596 = -8						; size = 4
_this$ = -4						; size = 4
__Meta$ = 8						; size = 4
?pbackfail@?$basic_stringbuf@DU?$char_traits@D@std@@V?$allocator@D@2@@std@@MAEHH@Z PROC ; std::basic_stringbuf<char,std::char_traits<char>,std::allocator<char> >::pbackfail, COMDAT
; _this$ = ecx

; 189  : 		{	// put an element back to stream

	push	ebp
	mov	ebp, esp
	sub	esp, 16					; 00000010H
	push	ebx
	push	esi
	mov	eax, -858993460				; ccccccccH
	mov	DWORD PTR [ebp-16], eax
	mov	DWORD PTR [ebp-12], eax
	mov	DWORD PTR [ebp-8], eax
	mov	DWORD PTR [ebp-4], eax
	mov	DWORD PTR _this$[ebp], ecx

; 190  : 		if (_Mysb::gptr() == 0
; 191  : 			|| _Mysb::gptr() <= _Mysb::eback()
; 192  : 			|| !_Traits::eq_int_type(_Traits::eof(), _Meta)
; 193  : 			&& !_Traits::eq(_Traits::to_char_type(_Meta), _Mysb::gptr()[-1])
; 194  : 			&& _Mystate & _Constant)

	mov	ecx, DWORD PTR _this$[ebp]
	call	?gptr@?$basic_streambuf@DU?$char_traits@D@std@@@std@@IBEPADXZ ; std::basic_streambuf<char,std::char_traits<char> >::gptr
	test	eax, eax
	je	SHORT $LN3@pbackfail
	mov	ecx, DWORD PTR _this$[ebp]
	call	?gptr@?$basic_streambuf@DU?$char_traits@D@std@@@std@@IBEPADXZ ; std::basic_streambuf<char,std::char_traits<char> >::gptr
	mov	esi, eax
	mov	ecx, DWORD PTR _this$[ebp]
	call	?eback@?$basic_streambuf@DU?$char_traits@D@std@@@std@@IBEPADXZ ; std::basic_streambuf<char,std::char_traits<char> >::eback
	cmp	esi, eax
	jbe	SHORT $LN3@pbackfail
	call	?eof@?$char_traits@D@std@@SAHXZ		; std::char_traits<char>::eof
	mov	DWORD PTR $T147596[ebp], eax
	lea	eax, DWORD PTR __Meta$[ebp]
	push	eax
	lea	ecx, DWORD PTR $T147596[ebp]
	push	ecx
	call	?eq_int_type@?$char_traits@D@std@@SA_NABH0@Z ; std::char_traits<char>::eq_int_type
	add	esp, 8
	movzx	edx, al
	test	edx, edx
	jne	SHORT $LN4@pbackfail
	lea	eax, DWORD PTR __Meta$[ebp]
	push	eax
	call	?to_char_type@?$char_traits@D@std@@SADABH@Z ; std::char_traits<char>::to_char_type
	add	esp, 4
	mov	BYTE PTR $T147597[ebp], al
	mov	ecx, DWORD PTR _this$[ebp]
	call	?gptr@?$basic_streambuf@DU?$char_traits@D@std@@@std@@IBEPADXZ ; std::basic_streambuf<char,std::char_traits<char> >::gptr
	sub	eax, 1
	push	eax
	lea	ecx, DWORD PTR $T147597[ebp]
	push	ecx
	call	?eq@?$char_traits@D@std@@SA_NABD0@Z	; std::char_traits<char>::eq
	add	esp, 8
	movzx	edx, al
	test	edx, edx
	jne	SHORT $LN4@pbackfail
	mov	eax, DWORD PTR _this$[ebp]
	mov	ecx, DWORD PTR [eax+64]
	and	ecx, 2
	je	SHORT $LN4@pbackfail
$LN3@pbackfail:

; 195  : 			return (_Traits::eof());	// can't put back, fail

	call	?eof@?$char_traits@D@std@@SAHXZ		; std::char_traits<char>::eof
	jmp	SHORT $LN5@pbackfail

; 196  : 		else

	jmp	SHORT $LN5@pbackfail
$LN4@pbackfail:

; 197  : 			{	// back up one position and store put-back character
; 198  : 			_Mysb::gbump(-1);

	push	-1
	mov	ecx, DWORD PTR _this$[ebp]
	call	?gbump@?$basic_streambuf@DU?$char_traits@D@std@@@std@@IAEXH@Z ; std::basic_streambuf<char,std::char_traits<char> >::gbump

; 199  : 			if (!_Traits::eq_int_type(_Traits::eof(), _Meta))

	call	?eof@?$char_traits@D@std@@SAHXZ		; std::char_traits<char>::eof
	mov	DWORD PTR $T147598[ebp], eax
	lea	edx, DWORD PTR __Meta$[ebp]
	push	edx
	lea	eax, DWORD PTR $T147598[ebp]
	push	eax
	call	?eq_int_type@?$char_traits@D@std@@SA_NABH0@Z ; std::char_traits<char>::eq_int_type
	add	esp, 8
	movzx	ecx, al
	test	ecx, ecx
	jne	SHORT $LN1@pbackfail

; 200  : 				*_Mysb::gptr() = _Traits::to_char_type(_Meta);

	lea	edx, DWORD PTR __Meta$[ebp]
	push	edx
	call	?to_char_type@?$char_traits@D@std@@SADABH@Z ; std::char_traits<char>::to_char_type
	add	esp, 4
	mov	bl, al
	mov	ecx, DWORD PTR _this$[ebp]
	call	?gptr@?$basic_streambuf@DU?$char_traits@D@std@@@std@@IBEPADXZ ; std::basic_streambuf<char,std::char_traits<char> >::gptr
	mov	BYTE PTR [eax], bl
$LN1@pbackfail:

; 201  : 			return (_Traits::not_eof(_Meta));

	lea	eax, DWORD PTR __Meta$[ebp]
	push	eax
	call	?not_eof@?$char_traits@D@std@@SAHABH@Z	; std::char_traits<char>::not_eof
	add	esp, 4
$LN5@pbackfail:

; 202  : 			}
; 203  : 		}

	pop	esi
	pop	ebx
	add	esp, 16					; 00000010H
	cmp	ebp, esp
	call	__RTC_CheckEsp
	mov	esp, ebp
	pop	ebp
	ret	4
?pbackfail@?$basic_stringbuf@DU?$char_traits@D@std@@V?$allocator@D@2@@std@@MAEHH@Z ENDP ; std::basic_stringbuf<char,std::char_traits<char>,std::allocator<char> >::pbackfail
; Function compile flags: /Odtp /RTCsu
; File c:\program files (x86)\microsoft visual studio 10.0\vc\include\iosfwd
_TEXT	ENDS
;	COMDAT ?eq@?$char_traits@D@std@@SA_NABD0@Z
_TEXT	SEGMENT
__Left$ = 8						; size = 4
__Right$ = 12						; size = 4
?eq@?$char_traits@D@std@@SA_NABD0@Z PROC		; std::char_traits<char>::eq, COMDAT

; 531  : 		{	// test for element equality

	push	ebp
	mov	ebp, esp

; 532  : 		return (_Left == _Right);

	mov	eax, DWORD PTR __Left$[ebp]
	movsx	ecx, BYTE PTR [eax]
	mov	edx, DWORD PTR __Right$[ebp]
	movsx	eax, BYTE PTR [edx]
	xor	edx, edx
	cmp	ecx, eax
	sete	dl
	mov	al, dl

; 533  : 		}

	pop	ebp
	ret	0
?eq@?$char_traits@D@std@@SA_NABD0@Z ENDP		; std::char_traits<char>::eq
_TEXT	ENDS
PUBLIC	?egptr@?$basic_streambuf@DU?$char_traits@D@std@@@std@@IBEPADXZ ; std::basic_streambuf<char,std::char_traits<char> >::egptr
; Function compile flags: /Odtp /RTCsu
; File c:\program files (x86)\microsoft visual studio 10.0\vc\include\sstream
;	COMDAT ?underflow@?$basic_stringbuf@DU?$char_traits@D@std@@V?$allocator@D@2@@std@@MAEHXZ
_TEXT	SEGMENT
_this$ = -4						; size = 4
?underflow@?$basic_stringbuf@DU?$char_traits@D@std@@V?$allocator@D@2@@std@@MAEHXZ PROC ; std::basic_stringbuf<char,std::char_traits<char>,std::allocator<char> >::underflow, COMDAT
; _this$ = ecx

; 206  : 		{	// get an element from stream, but don't point past it

	push	ebp
	mov	ebp, esp
	push	ecx
	push	esi
	mov	DWORD PTR [ebp-4], -858993460		; ccccccccH
	mov	DWORD PTR _this$[ebp], ecx

; 207  : 		if (_Mysb::gptr() == 0)

	mov	ecx, DWORD PTR _this$[ebp]
	call	?gptr@?$basic_streambuf@DU?$char_traits@D@std@@@std@@IBEPADXZ ; std::basic_streambuf<char,std::char_traits<char> >::gptr
	test	eax, eax
	jne	SHORT $LN8@underflow

; 208  : 			return (_Traits::eof());	// no character buffer, fail

	call	?eof@?$char_traits@D@std@@SAHXZ		; std::char_traits<char>::eof
	jmp	$LN9@underflow
	jmp	$LN9@underflow
$LN8@underflow:

; 209  : 		else if (_Mysb::gptr() < _Mysb::egptr())

	mov	ecx, DWORD PTR _this$[ebp]
	call	?gptr@?$basic_streambuf@DU?$char_traits@D@std@@@std@@IBEPADXZ ; std::basic_streambuf<char,std::char_traits<char> >::gptr
	mov	esi, eax
	mov	ecx, DWORD PTR _this$[ebp]
	call	?egptr@?$basic_streambuf@DU?$char_traits@D@std@@@std@@IBEPADXZ ; std::basic_streambuf<char,std::char_traits<char> >::egptr
	cmp	esi, eax
	jae	SHORT $LN6@underflow

; 210  : 			return (_Traits::to_int_type(*_Mysb::gptr()));	// return buffered

	mov	ecx, DWORD PTR _this$[ebp]
	call	?gptr@?$basic_streambuf@DU?$char_traits@D@std@@@std@@IBEPADXZ ; std::basic_streambuf<char,std::char_traits<char> >::gptr
	push	eax
	call	?to_int_type@?$char_traits@D@std@@SAHABD@Z ; std::char_traits<char>::to_int_type
	add	esp, 4
	jmp	$LN9@underflow

; 211  : 		else if (_Mystate & _Noread || _Mysb::pptr() == 0

	jmp	$LN9@underflow
$LN6@underflow:

; 212  : 			|| _Mysb::pptr() <= _Mysb::gptr() && _Seekhigh <= _Mysb::gptr())

	mov	eax, DWORD PTR _this$[ebp]
	mov	ecx, DWORD PTR [eax+64]
	and	ecx, 4
	jne	SHORT $LN3@underflow
	mov	ecx, DWORD PTR _this$[ebp]
	call	?pptr@?$basic_streambuf@DU?$char_traits@D@std@@@std@@IBEPADXZ ; std::basic_streambuf<char,std::char_traits<char> >::pptr
	test	eax, eax
	je	SHORT $LN3@underflow
	mov	ecx, DWORD PTR _this$[ebp]
	call	?pptr@?$basic_streambuf@DU?$char_traits@D@std@@@std@@IBEPADXZ ; std::basic_streambuf<char,std::char_traits<char> >::pptr
	mov	esi, eax
	mov	ecx, DWORD PTR _this$[ebp]
	call	?gptr@?$basic_streambuf@DU?$char_traits@D@std@@@std@@IBEPADXZ ; std::basic_streambuf<char,std::char_traits<char> >::gptr
	cmp	esi, eax
	ja	SHORT $LN4@underflow
	mov	ecx, DWORD PTR _this$[ebp]
	call	?gptr@?$basic_streambuf@DU?$char_traits@D@std@@@std@@IBEPADXZ ; std::basic_streambuf<char,std::char_traits<char> >::gptr
	mov	edx, DWORD PTR _this$[ebp]
	cmp	DWORD PTR [edx+60], eax
	ja	SHORT $LN4@underflow
$LN3@underflow:

; 213  : 			return (_Traits::eof());	// can't read, fail

	call	?eof@?$char_traits@D@std@@SAHXZ		; std::char_traits<char>::eof
	jmp	SHORT $LN9@underflow

; 214  : 		else

	jmp	SHORT $LN9@underflow
$LN4@underflow:

; 215  : 			{	// extend read buffer into written area, then return buffered
; 216  : 			if (_Seekhigh < _Mysb::pptr())

	mov	ecx, DWORD PTR _this$[ebp]
	call	?pptr@?$basic_streambuf@DU?$char_traits@D@std@@@std@@IBEPADXZ ; std::basic_streambuf<char,std::char_traits<char> >::pptr
	mov	ecx, DWORD PTR _this$[ebp]
	cmp	DWORD PTR [ecx+60], eax
	jae	SHORT $LN1@underflow

; 217  : 				_Seekhigh = _Mysb::pptr();

	mov	ecx, DWORD PTR _this$[ebp]
	call	?pptr@?$basic_streambuf@DU?$char_traits@D@std@@@std@@IBEPADXZ ; std::basic_streambuf<char,std::char_traits<char> >::pptr
	mov	edx, DWORD PTR _this$[ebp]
	mov	DWORD PTR [edx+60], eax
$LN1@underflow:

; 218  : 			_Mysb::setg(_Mysb::eback(), _Mysb::gptr(), _Seekhigh);

	mov	eax, DWORD PTR _this$[ebp]
	mov	ecx, DWORD PTR [eax+60]
	push	ecx
	mov	ecx, DWORD PTR _this$[ebp]
	call	?gptr@?$basic_streambuf@DU?$char_traits@D@std@@@std@@IBEPADXZ ; std::basic_streambuf<char,std::char_traits<char> >::gptr
	push	eax
	mov	ecx, DWORD PTR _this$[ebp]
	call	?eback@?$basic_streambuf@DU?$char_traits@D@std@@@std@@IBEPADXZ ; std::basic_streambuf<char,std::char_traits<char> >::eback
	push	eax
	mov	ecx, DWORD PTR _this$[ebp]
	call	?setg@?$basic_streambuf@DU?$char_traits@D@std@@@std@@IAEXPAD00@Z ; std::basic_streambuf<char,std::char_traits<char> >::setg

; 219  : 			return (_Traits::to_int_type(*_Mysb::gptr()));

	mov	ecx, DWORD PTR _this$[ebp]
	call	?gptr@?$basic_streambuf@DU?$char_traits@D@std@@@std@@IBEPADXZ ; std::basic_streambuf<char,std::char_traits<char> >::gptr
	push	eax
	call	?to_int_type@?$char_traits@D@std@@SAHABD@Z ; std::char_traits<char>::to_int_type
	add	esp, 4
$LN9@underflow:

; 220  : 			}
; 221  : 		}

	pop	esi
	add	esp, 4
	cmp	ebp, esp
	call	__RTC_CheckEsp
	mov	esp, ebp
	pop	ebp
	ret	0
?underflow@?$basic_stringbuf@DU?$char_traits@D@std@@V?$allocator@D@2@@std@@MAEHXZ ENDP ; std::basic_stringbuf<char,std::char_traits<char>,std::allocator<char> >::underflow
; Function compile flags: /Odtp /RTCsu
; File c:\program files (x86)\microsoft visual studio 10.0\vc\include\streambuf
_TEXT	ENDS
;	COMDAT ?egptr@?$basic_streambuf@DU?$char_traits@D@std@@@std@@IBEPADXZ
_TEXT	SEGMENT
_this$ = -4						; size = 4
?egptr@?$basic_streambuf@DU?$char_traits@D@std@@@std@@IBEPADXZ PROC ; std::basic_streambuf<char,std::char_traits<char> >::egptr, COMDAT
; _this$ = ecx

; 237  : 		{	// return end of read buffer

	push	ebp
	mov	ebp, esp
	push	ecx
	mov	DWORD PTR [ebp-4], -858993460		; ccccccccH
	mov	DWORD PTR _this$[ebp], ecx

; 238  : 		return (*_IGnext + *_IGcount);

	mov	eax, DWORD PTR _this$[ebp]
	mov	ecx, DWORD PTR [eax+32]
	mov	edx, DWORD PTR _this$[ebp]
	mov	eax, DWORD PTR [edx+48]
	mov	ecx, DWORD PTR [ecx]
	add	ecx, DWORD PTR [eax]
	mov	eax, ecx

; 239  : 		}

	mov	esp, ebp
	pop	ebp
	ret	0
?egptr@?$basic_streambuf@DU?$char_traits@D@std@@@std@@IBEPADXZ ENDP ; std::basic_streambuf<char,std::char_traits<char> >::egptr
; Function compile flags: /Odtp /RTCsu
; File c:\program files (x86)\microsoft visual studio 10.0\vc\include\sstream
_TEXT	ENDS
;	COMDAT ?seekoff@?$basic_stringbuf@DU?$char_traits@D@std@@V?$allocator@D@2@@std@@MAE?AV?$fpos@H@2@_JHH@Z
_TEXT	SEGMENT
tv405 = -20						; size = 8
tv342 = -12						; size = 8
_this$ = -4						; size = 4
___$ReturnUdt$ = 8					; size = 4
__Off$ = 12						; size = 8
__Way$ = 20						; size = 4
__Which$ = 24						; size = 4
?seekoff@?$basic_stringbuf@DU?$char_traits@D@std@@V?$allocator@D@2@@std@@MAE?AV?$fpos@H@2@_JHH@Z PROC ; std::basic_stringbuf<char,std::char_traits<char>,std::allocator<char> >::seekoff, COMDAT
; _this$ = ecx

; 226  : 		{	// change position by _Off, according to _Way, _Mode

	push	ebp
	mov	ebp, esp
	sub	esp, 20					; 00000014H
	push	esi
	mov	eax, -858993460				; ccccccccH
	mov	DWORD PTR [ebp-20], eax
	mov	DWORD PTR [ebp-16], eax
	mov	DWORD PTR [ebp-12], eax
	mov	DWORD PTR [ebp-8], eax
	mov	DWORD PTR [ebp-4], eax
	mov	DWORD PTR _this$[ebp], ecx

; 227  : 		if (_Mysb::pptr() != 0 && _Seekhigh < _Mysb::pptr())

	mov	ecx, DWORD PTR _this$[ebp]
	call	?pptr@?$basic_streambuf@DU?$char_traits@D@std@@@std@@IBEPADXZ ; std::basic_streambuf<char,std::char_traits<char> >::pptr
	test	eax, eax
	je	SHORT $LN21@seekoff
	mov	ecx, DWORD PTR _this$[ebp]
	call	?pptr@?$basic_streambuf@DU?$char_traits@D@std@@@std@@IBEPADXZ ; std::basic_streambuf<char,std::char_traits<char> >::pptr
	mov	ecx, DWORD PTR _this$[ebp]
	cmp	DWORD PTR [ecx+60], eax
	jae	SHORT $LN21@seekoff

; 228  : 			_Seekhigh = _Mysb::pptr();	// update high-water pointer

	mov	ecx, DWORD PTR _this$[ebp]
	call	?pptr@?$basic_streambuf@DU?$char_traits@D@std@@@std@@IBEPADXZ ; std::basic_streambuf<char,std::char_traits<char> >::pptr
	mov	edx, DWORD PTR _this$[ebp]
	mov	DWORD PTR [edx+60], eax
$LN21@seekoff:

; 229  : 
; 230  : 		if (_Which & ios_base::in && _Mysb::gptr() != 0)

	mov	eax, DWORD PTR __Which$[ebp]
	and	eax, 1
	je	$LN20@seekoff
	mov	ecx, DWORD PTR _this$[ebp]
	call	?gptr@?$basic_streambuf@DU?$char_traits@D@std@@@std@@IBEPADXZ ; std::basic_streambuf<char,std::char_traits<char> >::gptr
	test	eax, eax
	je	$LN20@seekoff

; 231  : 			{	// position within read buffer
; 232  : 			if (_Way == ios_base::end)

	cmp	DWORD PTR __Way$[ebp], 2
	jne	SHORT $LN19@seekoff

; 233  : 				_Off += (off_type)(_Seekhigh - _Mysb::eback());

	mov	ecx, DWORD PTR _this$[ebp]
	call	?eback@?$basic_streambuf@DU?$char_traits@D@std@@@std@@IBEPADXZ ; std::basic_streambuf<char,std::char_traits<char> >::eback
	mov	ecx, DWORD PTR _this$[ebp]
	mov	edx, DWORD PTR [ecx+60]
	sub	edx, eax
	mov	eax, edx
	cdq
	add	eax, DWORD PTR __Off$[ebp]
	adc	edx, DWORD PTR __Off$[ebp+4]
	mov	DWORD PTR __Off$[ebp], eax
	mov	DWORD PTR __Off$[ebp+4], edx

; 234  : 			else if (_Way == ios_base::cur

	jmp	SHORT $LN18@seekoff
$LN19@seekoff:

; 235  : 				&& (_Which & ios_base::out) == 0)

	cmp	DWORD PTR __Way$[ebp], 1
	jne	SHORT $LN17@seekoff
	mov	eax, DWORD PTR __Which$[ebp]
	and	eax, 2
	jne	SHORT $LN17@seekoff

; 236  : 				_Off += (off_type)(_Mysb::gptr() - _Mysb::eback());

	mov	ecx, DWORD PTR _this$[ebp]
	call	?gptr@?$basic_streambuf@DU?$char_traits@D@std@@@std@@IBEPADXZ ; std::basic_streambuf<char,std::char_traits<char> >::gptr
	mov	esi, eax
	mov	ecx, DWORD PTR _this$[ebp]
	call	?eback@?$basic_streambuf@DU?$char_traits@D@std@@@std@@IBEPADXZ ; std::basic_streambuf<char,std::char_traits<char> >::eback
	sub	esi, eax
	mov	eax, esi
	cdq
	add	eax, DWORD PTR __Off$[ebp]
	adc	edx, DWORD PTR __Off$[ebp+4]
	mov	DWORD PTR __Off$[ebp], eax
	mov	DWORD PTR __Off$[ebp+4], edx
	jmp	SHORT $LN18@seekoff
$LN17@seekoff:

; 237  : 			else if (_Way != ios_base::beg)

	cmp	DWORD PTR __Way$[ebp], 0
	je	SHORT $LN18@seekoff

; 238  : 				_Off = _BADOFF;

	mov	ecx, DWORD PTR ?_BADOFF@std@@3_JB
	mov	DWORD PTR __Off$[ebp], ecx
	mov	edx, DWORD PTR ?_BADOFF@std@@3_JB+4
	mov	DWORD PTR __Off$[ebp+4], edx
$LN18@seekoff:

; 239  : 
; 240  : 			if (0 <= _Off && _Off <= _Seekhigh - _Mysb::eback())

	cmp	DWORD PTR __Off$[ebp+4], 0
	jl	$LN14@seekoff
	jg	SHORT $LN24@seekoff
	cmp	DWORD PTR __Off$[ebp], 0
	jb	$LN14@seekoff
$LN24@seekoff:
	mov	ecx, DWORD PTR _this$[ebp]
	call	?eback@?$basic_streambuf@DU?$char_traits@D@std@@@std@@IBEPADXZ ; std::basic_streambuf<char,std::char_traits<char> >::eback
	mov	ecx, DWORD PTR _this$[ebp]
	mov	edx, DWORD PTR [ecx+60]
	sub	edx, eax
	mov	eax, edx
	cdq
	mov	DWORD PTR tv342[ebp], eax
	mov	DWORD PTR tv342[ebp+4], edx
	mov	eax, DWORD PTR __Off$[ebp+4]
	cmp	eax, DWORD PTR tv342[ebp+4]
	jg	SHORT $LN14@seekoff
	jl	SHORT $LN25@seekoff
	mov	ecx, DWORD PTR __Off$[ebp]
	cmp	ecx, DWORD PTR tv342[ebp]
	ja	SHORT $LN14@seekoff
$LN25@seekoff:

; 241  : 				{	// change read position
; 242  : 				_Mysb::gbump((int)(_Mysb::eback() - _Mysb::gptr() + _Off));

	mov	ecx, DWORD PTR _this$[ebp]
	call	?eback@?$basic_streambuf@DU?$char_traits@D@std@@@std@@IBEPADXZ ; std::basic_streambuf<char,std::char_traits<char> >::eback
	mov	esi, eax
	mov	ecx, DWORD PTR _this$[ebp]
	call	?gptr@?$basic_streambuf@DU?$char_traits@D@std@@@std@@IBEPADXZ ; std::basic_streambuf<char,std::char_traits<char> >::gptr
	sub	esi, eax
	mov	eax, esi
	cdq
	add	eax, DWORD PTR __Off$[ebp]
	adc	edx, DWORD PTR __Off$[ebp+4]
	push	eax
	mov	ecx, DWORD PTR _this$[ebp]
	call	?gbump@?$basic_streambuf@DU?$char_traits@D@std@@@std@@IAEXH@Z ; std::basic_streambuf<char,std::char_traits<char> >::gbump

; 243  : 				if (_Which & ios_base::out && _Mysb::pptr() != 0)

	mov	edx, DWORD PTR __Which$[ebp]
	and	edx, 2
	je	SHORT $LN13@seekoff
	mov	ecx, DWORD PTR _this$[ebp]
	call	?pptr@?$basic_streambuf@DU?$char_traits@D@std@@@std@@IBEPADXZ ; std::basic_streambuf<char,std::char_traits<char> >::pptr
	test	eax, eax
	je	SHORT $LN13@seekoff

; 244  : 					_Mysb::setp(_Mysb::pbase(), _Mysb::gptr(),
; 245  : 						_Mysb::epptr());	// change write position to match

	mov	ecx, DWORD PTR _this$[ebp]
	call	?epptr@?$basic_streambuf@DU?$char_traits@D@std@@@std@@IBEPADXZ ; std::basic_streambuf<char,std::char_traits<char> >::epptr
	push	eax
	mov	ecx, DWORD PTR _this$[ebp]
	call	?gptr@?$basic_streambuf@DU?$char_traits@D@std@@@std@@IBEPADXZ ; std::basic_streambuf<char,std::char_traits<char> >::gptr
	push	eax
	mov	ecx, DWORD PTR _this$[ebp]
	call	?pbase@?$basic_streambuf@DU?$char_traits@D@std@@@std@@IBEPADXZ ; std::basic_streambuf<char,std::char_traits<char> >::pbase
	push	eax
	mov	ecx, DWORD PTR _this$[ebp]
	call	?setp@?$basic_streambuf@DU?$char_traits@D@std@@@std@@IAEXPAD00@Z ; std::basic_streambuf<char,std::char_traits<char> >::setp
$LN13@seekoff:

; 246  : 				}
; 247  : 			else

	jmp	SHORT $LN12@seekoff
$LN14@seekoff:

; 248  : 				_Off = _BADOFF;

	mov	eax, DWORD PTR ?_BADOFF@std@@3_JB
	mov	DWORD PTR __Off$[ebp], eax
	mov	ecx, DWORD PTR ?_BADOFF@std@@3_JB+4
	mov	DWORD PTR __Off$[ebp+4], ecx
$LN12@seekoff:
	jmp	$LN11@seekoff
$LN20@seekoff:

; 249  : 			}
; 250  : 		else if (_Which & ios_base::out && _Mysb::pptr() != 0)

	mov	edx, DWORD PTR __Which$[ebp]
	and	edx, 2
	je	$LN10@seekoff
	mov	ecx, DWORD PTR _this$[ebp]
	call	?pptr@?$basic_streambuf@DU?$char_traits@D@std@@@std@@IBEPADXZ ; std::basic_streambuf<char,std::char_traits<char> >::pptr
	test	eax, eax
	je	$LN10@seekoff

; 251  : 			{	// position within write buffer
; 252  : 			if (_Way == ios_base::end)

	cmp	DWORD PTR __Way$[ebp], 2
	jne	SHORT $LN9@seekoff

; 253  : 				_Off += (off_type)(_Seekhigh - _Mysb::eback());

	mov	ecx, DWORD PTR _this$[ebp]
	call	?eback@?$basic_streambuf@DU?$char_traits@D@std@@@std@@IBEPADXZ ; std::basic_streambuf<char,std::char_traits<char> >::eback
	mov	ecx, DWORD PTR _this$[ebp]
	mov	edx, DWORD PTR [ecx+60]
	sub	edx, eax
	mov	eax, edx
	cdq
	add	eax, DWORD PTR __Off$[ebp]
	adc	edx, DWORD PTR __Off$[ebp+4]
	mov	DWORD PTR __Off$[ebp], eax
	mov	DWORD PTR __Off$[ebp+4], edx
	jmp	SHORT $LN8@seekoff
$LN9@seekoff:

; 254  : 			else if (_Way == ios_base::cur)

	cmp	DWORD PTR __Way$[ebp], 1
	jne	SHORT $LN7@seekoff

; 255  : 				_Off += (off_type)(_Mysb::pptr() - _Mysb::eback());

	mov	ecx, DWORD PTR _this$[ebp]
	call	?pptr@?$basic_streambuf@DU?$char_traits@D@std@@@std@@IBEPADXZ ; std::basic_streambuf<char,std::char_traits<char> >::pptr
	mov	esi, eax
	mov	ecx, DWORD PTR _this$[ebp]
	call	?eback@?$basic_streambuf@DU?$char_traits@D@std@@@std@@IBEPADXZ ; std::basic_streambuf<char,std::char_traits<char> >::eback
	sub	esi, eax
	mov	eax, esi
	cdq
	add	eax, DWORD PTR __Off$[ebp]
	adc	edx, DWORD PTR __Off$[ebp+4]
	mov	DWORD PTR __Off$[ebp], eax
	mov	DWORD PTR __Off$[ebp+4], edx
	jmp	SHORT $LN8@seekoff
$LN7@seekoff:

; 256  : 			else if (_Way != ios_base::beg)

	cmp	DWORD PTR __Way$[ebp], 0
	je	SHORT $LN8@seekoff

; 257  : 				_Off = _BADOFF;

	mov	eax, DWORD PTR ?_BADOFF@std@@3_JB
	mov	DWORD PTR __Off$[ebp], eax
	mov	ecx, DWORD PTR ?_BADOFF@std@@3_JB+4
	mov	DWORD PTR __Off$[ebp+4], ecx
$LN8@seekoff:

; 258  : 
; 259  : 			if (0 <= _Off && _Off <= _Seekhigh - _Mysb::eback())

	cmp	DWORD PTR __Off$[ebp+4], 0
	jl	SHORT $LN4@seekoff
	jg	SHORT $LN26@seekoff
	cmp	DWORD PTR __Off$[ebp], 0
	jb	SHORT $LN4@seekoff
$LN26@seekoff:
	mov	ecx, DWORD PTR _this$[ebp]
	call	?eback@?$basic_streambuf@DU?$char_traits@D@std@@@std@@IBEPADXZ ; std::basic_streambuf<char,std::char_traits<char> >::eback
	mov	edx, DWORD PTR _this$[ebp]
	mov	ecx, DWORD PTR [edx+60]
	sub	ecx, eax
	mov	eax, ecx
	cdq
	mov	DWORD PTR tv405[ebp], eax
	mov	DWORD PTR tv405[ebp+4], edx
	mov	edx, DWORD PTR __Off$[ebp+4]
	cmp	edx, DWORD PTR tv405[ebp+4]
	jg	SHORT $LN4@seekoff
	jl	SHORT $LN27@seekoff
	mov	eax, DWORD PTR __Off$[ebp]
	cmp	eax, DWORD PTR tv405[ebp]
	ja	SHORT $LN4@seekoff
$LN27@seekoff:

; 260  : 				_Mysb::pbump((int)(_Mysb::eback()
; 261  : 					- _Mysb::pptr() + _Off));	// change write position

	mov	ecx, DWORD PTR _this$[ebp]
	call	?eback@?$basic_streambuf@DU?$char_traits@D@std@@@std@@IBEPADXZ ; std::basic_streambuf<char,std::char_traits<char> >::eback
	mov	esi, eax
	mov	ecx, DWORD PTR _this$[ebp]
	call	?pptr@?$basic_streambuf@DU?$char_traits@D@std@@@std@@IBEPADXZ ; std::basic_streambuf<char,std::char_traits<char> >::pptr
	sub	esi, eax
	mov	eax, esi
	cdq
	add	eax, DWORD PTR __Off$[ebp]
	adc	edx, DWORD PTR __Off$[ebp+4]
	push	eax
	mov	ecx, DWORD PTR _this$[ebp]
	call	?pbump@?$basic_streambuf@DU?$char_traits@D@std@@@std@@IAEXH@Z ; std::basic_streambuf<char,std::char_traits<char> >::pbump

; 262  : 			else

	jmp	SHORT $LN3@seekoff
$LN4@seekoff:

; 263  : 				_Off = _BADOFF;

	mov	ecx, DWORD PTR ?_BADOFF@std@@3_JB
	mov	DWORD PTR __Off$[ebp], ecx
	mov	edx, DWORD PTR ?_BADOFF@std@@3_JB+4
	mov	DWORD PTR __Off$[ebp+4], edx
$LN3@seekoff:
	jmp	SHORT $LN11@seekoff
$LN10@seekoff:

; 264  : 			}
; 265  : 
; 266  :  #if _HAS_CPP0X
; 267  : 		else if (_Off != 0)

	mov	eax, DWORD PTR __Off$[ebp]
	or	eax, DWORD PTR __Off$[ebp+4]
	je	SHORT $LN11@seekoff

; 268  : 
; 269  :  #else /* _HAS_CPP0X */
; 270  : 		else
; 271  :  #endif /* _HAS_CPP0X */
; 272  : 
; 273  : 			_Off = _BADOFF;	// neither read nor write buffer selected, fail

	mov	ecx, DWORD PTR ?_BADOFF@std@@3_JB
	mov	DWORD PTR __Off$[ebp], ecx
	mov	edx, DWORD PTR ?_BADOFF@std@@3_JB+4
	mov	DWORD PTR __Off$[ebp+4], edx
$LN11@seekoff:

; 274  : 		return (pos_type(_Off));

	mov	eax, DWORD PTR __Off$[ebp+4]
	push	eax
	mov	ecx, DWORD PTR __Off$[ebp]
	push	ecx
	mov	ecx, DWORD PTR ___$ReturnUdt$[ebp]
	call	??0?$fpos@H@std@@QAE@_J@Z		; std::fpos<int>::fpos<int>
	mov	eax, DWORD PTR ___$ReturnUdt$[ebp]

; 275  : 		}

	pop	esi
	add	esp, 20					; 00000014H
	cmp	ebp, esp
	call	__RTC_CheckEsp
	mov	esp, ebp
	pop	ebp
	ret	20					; 00000014H
?seekoff@?$basic_stringbuf@DU?$char_traits@D@std@@V?$allocator@D@2@@std@@MAE?AV?$fpos@H@2@_JHH@Z ENDP ; std::basic_stringbuf<char,std::char_traits<char>,std::allocator<char> >::seekoff
_TEXT	ENDS
PUBLIC	??B?$fpos@H@std@@QBE_JXZ			; std::fpos<int>::operator __int64
; Function compile flags: /Odtp /RTCsu
;	COMDAT ?seekpos@?$basic_stringbuf@DU?$char_traits@D@std@@V?$allocator@D@2@@std@@MAE?AV?$fpos@H@2@V32@H@Z
_TEXT	SEGMENT
tv306 = -28						; size = 8
tv268 = -20						; size = 8
__Off$ = -12						; size = 8
_this$ = -4						; size = 4
___$ReturnUdt$ = 8					; size = 4
__Ptr$ = 12						; size = 24
__Mode$ = 36						; size = 4
?seekpos@?$basic_stringbuf@DU?$char_traits@D@std@@V?$allocator@D@2@@std@@MAE?AV?$fpos@H@2@V32@H@Z PROC ; std::basic_stringbuf<char,std::char_traits<char>,std::allocator<char> >::seekpos, COMDAT
; _this$ = ecx

; 279  : 		{	// change position to _Pos, according to _Mode

	push	ebp
	mov	ebp, esp
	sub	esp, 28					; 0000001cH
	push	esi
	mov	eax, -858993460				; ccccccccH
	mov	DWORD PTR [ebp-28], eax
	mov	DWORD PTR [ebp-24], eax
	mov	DWORD PTR [ebp-20], eax
	mov	DWORD PTR [ebp-16], eax
	mov	DWORD PTR [ebp-12], eax
	mov	DWORD PTR [ebp-8], eax
	mov	DWORD PTR [ebp-4], eax
	mov	DWORD PTR _this$[ebp], ecx

; 280  : 		streamoff _Off = (streamoff)_Ptr;

	lea	ecx, DWORD PTR __Ptr$[ebp]
	call	??B?$fpos@H@std@@QBE_JXZ		; std::fpos<int>::operator __int64
	mov	DWORD PTR __Off$[ebp], eax
	mov	DWORD PTR __Off$[ebp+4], edx

; 281  : 		if (_Mysb::pptr() != 0 && _Seekhigh < _Mysb::pptr())

	mov	ecx, DWORD PTR _this$[ebp]
	call	?pptr@?$basic_streambuf@DU?$char_traits@D@std@@@std@@IBEPADXZ ; std::basic_streambuf<char,std::char_traits<char> >::pptr
	test	eax, eax
	je	SHORT $LN12@seekpos
	mov	ecx, DWORD PTR _this$[ebp]
	call	?pptr@?$basic_streambuf@DU?$char_traits@D@std@@@std@@IBEPADXZ ; std::basic_streambuf<char,std::char_traits<char> >::pptr
	mov	ecx, DWORD PTR _this$[ebp]
	cmp	DWORD PTR [ecx+60], eax
	jae	SHORT $LN12@seekpos

; 282  : 			_Seekhigh = _Mysb::pptr();	// update high-water pointer

	mov	ecx, DWORD PTR _this$[ebp]
	call	?pptr@?$basic_streambuf@DU?$char_traits@D@std@@@std@@IBEPADXZ ; std::basic_streambuf<char,std::char_traits<char> >::pptr
	mov	edx, DWORD PTR _this$[ebp]
	mov	DWORD PTR [edx+60], eax
$LN12@seekpos:

; 283  : 
; 284  : 		if (_Off == _BADOFF)

	mov	eax, DWORD PTR __Off$[ebp]
	cmp	eax, DWORD PTR ?_BADOFF@std@@3_JB
	jne	SHORT $LN11@seekpos
	mov	ecx, DWORD PTR __Off$[ebp+4]
	cmp	ecx, DWORD PTR ?_BADOFF@std@@3_JB+4
	jne	SHORT $LN11@seekpos
	jmp	$LN10@seekpos
$LN11@seekpos:

; 285  : 			;
; 286  : 		else if (_Mode & ios_base::in && _Mysb::gptr() != 0)

	mov	edx, DWORD PTR __Mode$[ebp]
	and	edx, 1
	je	$LN9@seekpos
	mov	ecx, DWORD PTR _this$[ebp]
	call	?gptr@?$basic_streambuf@DU?$char_traits@D@std@@@std@@IBEPADXZ ; std::basic_streambuf<char,std::char_traits<char> >::gptr
	test	eax, eax
	je	$LN9@seekpos

; 287  : 			{	// position within read buffer
; 288  : 			if (0 <= _Off && _Off <= _Seekhigh - _Mysb::eback())

	cmp	DWORD PTR __Off$[ebp+4], 0
	jl	$LN8@seekpos
	jg	SHORT $LN15@seekpos
	cmp	DWORD PTR __Off$[ebp], 0
	jb	$LN8@seekpos
$LN15@seekpos:
	mov	ecx, DWORD PTR _this$[ebp]
	call	?eback@?$basic_streambuf@DU?$char_traits@D@std@@@std@@IBEPADXZ ; std::basic_streambuf<char,std::char_traits<char> >::eback
	mov	ecx, DWORD PTR _this$[ebp]
	mov	edx, DWORD PTR [ecx+60]
	sub	edx, eax
	mov	eax, edx
	cdq
	mov	DWORD PTR tv268[ebp], eax
	mov	DWORD PTR tv268[ebp+4], edx
	mov	eax, DWORD PTR __Off$[ebp+4]
	cmp	eax, DWORD PTR tv268[ebp+4]
	jg	SHORT $LN8@seekpos
	jl	SHORT $LN16@seekpos
	mov	ecx, DWORD PTR __Off$[ebp]
	cmp	ecx, DWORD PTR tv268[ebp]
	ja	SHORT $LN8@seekpos
$LN16@seekpos:

; 289  : 				{	// change read position
; 290  : 				_Mysb::gbump((int)(_Mysb::eback() - _Mysb::gptr() + _Off));

	mov	ecx, DWORD PTR _this$[ebp]
	call	?eback@?$basic_streambuf@DU?$char_traits@D@std@@@std@@IBEPADXZ ; std::basic_streambuf<char,std::char_traits<char> >::eback
	mov	esi, eax
	mov	ecx, DWORD PTR _this$[ebp]
	call	?gptr@?$basic_streambuf@DU?$char_traits@D@std@@@std@@IBEPADXZ ; std::basic_streambuf<char,std::char_traits<char> >::gptr
	sub	esi, eax
	mov	eax, esi
	cdq
	add	eax, DWORD PTR __Off$[ebp]
	adc	edx, DWORD PTR __Off$[ebp+4]
	push	eax
	mov	ecx, DWORD PTR _this$[ebp]
	call	?gbump@?$basic_streambuf@DU?$char_traits@D@std@@@std@@IAEXH@Z ; std::basic_streambuf<char,std::char_traits<char> >::gbump

; 291  : 				if (_Mode & ios_base::out && _Mysb::pptr() != 0)

	mov	edx, DWORD PTR __Mode$[ebp]
	and	edx, 2
	je	SHORT $LN7@seekpos
	mov	ecx, DWORD PTR _this$[ebp]
	call	?pptr@?$basic_streambuf@DU?$char_traits@D@std@@@std@@IBEPADXZ ; std::basic_streambuf<char,std::char_traits<char> >::pptr
	test	eax, eax
	je	SHORT $LN7@seekpos

; 292  : 					_Mysb::setp(_Mysb::pbase(), _Mysb::gptr(),
; 293  : 						_Mysb::epptr());	// change write position to match

	mov	ecx, DWORD PTR _this$[ebp]
	call	?epptr@?$basic_streambuf@DU?$char_traits@D@std@@@std@@IBEPADXZ ; std::basic_streambuf<char,std::char_traits<char> >::epptr
	push	eax
	mov	ecx, DWORD PTR _this$[ebp]
	call	?gptr@?$basic_streambuf@DU?$char_traits@D@std@@@std@@IBEPADXZ ; std::basic_streambuf<char,std::char_traits<char> >::gptr
	push	eax
	mov	ecx, DWORD PTR _this$[ebp]
	call	?pbase@?$basic_streambuf@DU?$char_traits@D@std@@@std@@IBEPADXZ ; std::basic_streambuf<char,std::char_traits<char> >::pbase
	push	eax
	mov	ecx, DWORD PTR _this$[ebp]
	call	?setp@?$basic_streambuf@DU?$char_traits@D@std@@@std@@IAEXPAD00@Z ; std::basic_streambuf<char,std::char_traits<char> >::setp
$LN7@seekpos:

; 294  : 				}
; 295  : 			else

	jmp	SHORT $LN6@seekpos
$LN8@seekpos:

; 296  : 				_Off = _BADOFF;

	mov	eax, DWORD PTR ?_BADOFF@std@@3_JB
	mov	DWORD PTR __Off$[ebp], eax
	mov	ecx, DWORD PTR ?_BADOFF@std@@3_JB+4
	mov	DWORD PTR __Off$[ebp+4], ecx
$LN6@seekpos:
	jmp	$LN10@seekpos
$LN9@seekpos:

; 297  : 			}
; 298  : 		else if (_Mode & ios_base::out && _Mysb::pptr() != 0)

	mov	edx, DWORD PTR __Mode$[ebp]
	and	edx, 2
	je	$LN4@seekpos
	mov	ecx, DWORD PTR _this$[ebp]
	call	?pptr@?$basic_streambuf@DU?$char_traits@D@std@@@std@@IBEPADXZ ; std::basic_streambuf<char,std::char_traits<char> >::pptr
	test	eax, eax
	je	SHORT $LN4@seekpos

; 299  : 			{	// position within write buffer
; 300  : 			if (0 <= _Off && _Off <= _Seekhigh - _Mysb::eback())

	cmp	DWORD PTR __Off$[ebp+4], 0
	jl	SHORT $LN3@seekpos
	jg	SHORT $LN17@seekpos
	cmp	DWORD PTR __Off$[ebp], 0
	jb	SHORT $LN3@seekpos
$LN17@seekpos:
	mov	ecx, DWORD PTR _this$[ebp]
	call	?eback@?$basic_streambuf@DU?$char_traits@D@std@@@std@@IBEPADXZ ; std::basic_streambuf<char,std::char_traits<char> >::eback
	mov	ecx, DWORD PTR _this$[ebp]
	mov	edx, DWORD PTR [ecx+60]
	sub	edx, eax
	mov	eax, edx
	cdq
	mov	DWORD PTR tv306[ebp], eax
	mov	DWORD PTR tv306[ebp+4], edx
	mov	eax, DWORD PTR __Off$[ebp+4]
	cmp	eax, DWORD PTR tv306[ebp+4]
	jg	SHORT $LN3@seekpos
	jl	SHORT $LN18@seekpos
	mov	ecx, DWORD PTR __Off$[ebp]
	cmp	ecx, DWORD PTR tv306[ebp]
	ja	SHORT $LN3@seekpos
$LN18@seekpos:

; 301  : 				_Mysb::pbump((int)(_Mysb::eback()
; 302  : 					- _Mysb::pptr() + _Off));	// change write position

	mov	ecx, DWORD PTR _this$[ebp]
	call	?eback@?$basic_streambuf@DU?$char_traits@D@std@@@std@@IBEPADXZ ; std::basic_streambuf<char,std::char_traits<char> >::eback
	mov	esi, eax
	mov	ecx, DWORD PTR _this$[ebp]
	call	?pptr@?$basic_streambuf@DU?$char_traits@D@std@@@std@@IBEPADXZ ; std::basic_streambuf<char,std::char_traits<char> >::pptr
	sub	esi, eax
	mov	eax, esi
	cdq
	add	eax, DWORD PTR __Off$[ebp]
	adc	edx, DWORD PTR __Off$[ebp+4]
	push	eax
	mov	ecx, DWORD PTR _this$[ebp]
	call	?pbump@?$basic_streambuf@DU?$char_traits@D@std@@@std@@IAEXH@Z ; std::basic_streambuf<char,std::char_traits<char> >::pbump

; 303  : 			else

	jmp	SHORT $LN2@seekpos
$LN3@seekpos:

; 304  : 				_Off = _BADOFF;

	mov	edx, DWORD PTR ?_BADOFF@std@@3_JB
	mov	DWORD PTR __Off$[ebp], edx
	mov	eax, DWORD PTR ?_BADOFF@std@@3_JB+4
	mov	DWORD PTR __Off$[ebp+4], eax
$LN2@seekpos:

; 305  : 			}
; 306  : 		else

	jmp	SHORT $LN10@seekpos
$LN4@seekpos:

; 307  : 			_Off = _BADOFF;	// neither read nor write buffer selected, fail

	mov	ecx, DWORD PTR ?_BADOFF@std@@3_JB
	mov	DWORD PTR __Off$[ebp], ecx
	mov	edx, DWORD PTR ?_BADOFF@std@@3_JB+4
	mov	DWORD PTR __Off$[ebp+4], edx
$LN10@seekpos:

; 308  : 		return (streampos(_Off));

	mov	eax, DWORD PTR __Off$[ebp+4]
	push	eax
	mov	ecx, DWORD PTR __Off$[ebp]
	push	ecx
	mov	ecx, DWORD PTR ___$ReturnUdt$[ebp]
	call	??0?$fpos@H@std@@QAE@_J@Z		; std::fpos<int>::fpos<int>
	mov	eax, DWORD PTR ___$ReturnUdt$[ebp]

; 309  : 		}

	pop	esi
	add	esp, 28					; 0000001cH
	cmp	ebp, esp
	call	__RTC_CheckEsp
	mov	esp, ebp
	pop	ebp
	ret	32					; 00000020H
?seekpos@?$basic_stringbuf@DU?$char_traits@D@std@@V?$allocator@D@2@@std@@MAE?AV?$fpos@H@2@V32@H@Z ENDP ; std::basic_stringbuf<char,std::char_traits<char>,std::allocator<char> >::seekpos
; Function compile flags: /Odtp /RTCsu
; File c:\program files (x86)\microsoft visual studio 10.0\vc\include\iosfwd
_TEXT	ENDS
;	COMDAT ??B?$fpos@H@std@@QBE_JXZ
_TEXT	SEGMENT
_this$ = -4						; size = 4
??B?$fpos@H@std@@QBE_JXZ PROC				; std::fpos<int>::operator __int64, COMDAT
; _this$ = ecx

; 64   : 		{	// return offset

	push	ebp
	mov	ebp, esp
	push	ecx
	mov	DWORD PTR [ebp-4], -858993460		; ccccccccH
	mov	DWORD PTR _this$[ebp], ecx

; 65   : 		return ((streamoff)(_Myoff + _FPOSOFF(_Fpos)));

	mov	eax, DWORD PTR _this$[ebp]
	mov	eax, DWORD PTR [eax+8]
	cdq
	mov	ecx, DWORD PTR _this$[ebp]
	add	eax, DWORD PTR [ecx]
	adc	edx, DWORD PTR [ecx+4]

; 66   : 		}

	mov	esp, ebp
	pop	ebp
	ret	0
??B?$fpos@H@std@@QBE_JXZ ENDP				; std::fpos<int>::operator __int64
; Function compile flags: /Odtp /RTCsu
_TEXT	ENDS
;	COMDAT ??_G?$basic_ostringstream@DU?$char_traits@D@std@@V?$allocator@D@2@@std@@UAEPAXI@Z
_TEXT	SEGMENT
_this$ = -4						; size = 4
___flags$ = 8						; size = 4
??_G?$basic_ostringstream@DU?$char_traits@D@std@@V?$allocator@D@2@@std@@UAEPAXI@Z PROC ; std::basic_ostringstream<char,std::char_traits<char>,std::allocator<char> >::`scalar deleting destructor', COMDAT
; _this$ = ecx
	push	ebp
	mov	ebp, esp
	push	ecx
	mov	DWORD PTR [ebp-4], -858993460		; ccccccccH
	mov	DWORD PTR _this$[ebp], ecx
	mov	ecx, DWORD PTR _this$[ebp]
	sub	ecx, 80					; 00000050H
	call	??_D?$basic_ostringstream@DU?$char_traits@D@std@@V?$allocator@D@2@@std@@QAEXXZ
	mov	eax, DWORD PTR ___flags$[ebp]
	and	eax, 1
	je	SHORT $LN1@scalar@10
	mov	ecx, DWORD PTR _this$[ebp]
	sub	ecx, 80					; 00000050H
	push	ecx
	call	??3@YAXPAX@Z				; operator delete
	add	esp, 4
$LN1@scalar@10:
	mov	eax, DWORD PTR _this$[ebp]
	sub	eax, 80					; 00000050H
	add	esp, 4
	cmp	ebp, esp
	call	__RTC_CheckEsp
	mov	esp, ebp
	pop	ebp
	ret	4
??_G?$basic_ostringstream@DU?$char_traits@D@std@@V?$allocator@D@2@@std@@UAEPAXI@Z ENDP ; std::basic_ostringstream<char,std::char_traits<char>,std::allocator<char> >::`scalar deleting destructor'
; Function compile flags: /Odtp /RTCsu
_TEXT	ENDS
;	COMDAT ??_G?$basic_stringbuf@DU?$char_traits@D@std@@V?$allocator@D@2@@std@@UAEPAXI@Z
_TEXT	SEGMENT
_this$ = -4						; size = 4
___flags$ = 8						; size = 4
??_G?$basic_stringbuf@DU?$char_traits@D@std@@V?$allocator@D@2@@std@@UAEPAXI@Z PROC ; std::basic_stringbuf<char,std::char_traits<char>,std::allocator<char> >::`scalar deleting destructor', COMDAT
; _this$ = ecx
	push	ebp
	mov	ebp, esp
	push	ecx
	mov	DWORD PTR [ebp-4], -858993460		; ccccccccH
	mov	DWORD PTR _this$[ebp], ecx
	mov	ecx, DWORD PTR _this$[ebp]
	call	??1?$basic_stringbuf@DU?$char_traits@D@std@@V?$allocator@D@2@@std@@UAE@XZ ; std::basic_stringbuf<char,std::char_traits<char>,std::allocator<char> >::~basic_stringbuf<char,std::char_traits<char>,std::allocator<char> >
	mov	eax, DWORD PTR ___flags$[ebp]
	and	eax, 1
	je	SHORT $LN1@scalar@11
	mov	ecx, DWORD PTR _this$[ebp]
	push	ecx
	call	??3@YAXPAX@Z				; operator delete
	add	esp, 4
$LN1@scalar@11:
	mov	eax, DWORD PTR _this$[ebp]
	add	esp, 4
	cmp	ebp, esp
	call	__RTC_CheckEsp
	mov	esp, ebp
	pop	ebp
	ret	4
??_G?$basic_stringbuf@DU?$char_traits@D@std@@V?$allocator@D@2@@std@@UAEPAXI@Z ENDP ; std::basic_stringbuf<char,std::char_traits<char>,std::allocator<char> >::`scalar deleting destructor'
; Function compile flags: /Odtp /RTCsu
; File c:\program files (x86)\microsoft visual studio 10.0\vc\include\xstring
_TEXT	ENDS
;	COMDAT ?insert@?$basic_string@DU?$char_traits@D@std@@V?$allocator@D@2@@std@@QAEAAV12@IABV12@II@Z
_TEXT	SEGMENT
tv154 = -12						; size = 4
__Num$ = -8						; size = 4
_this$ = -4						; size = 4
__Off$ = 8						; size = 4
__Right$ = 12						; size = 4
__Roff$ = 16						; size = 4
__Count$ = 20						; size = 4
?insert@?$basic_string@DU?$char_traits@D@std@@V?$allocator@D@2@@std@@QAEAAV12@IABV12@II@Z PROC ; std::basic_string<char,std::char_traits<char>,std::allocator<char> >::insert, COMDAT
; _this$ = ecx

; 981  : 		{	// insert _Right [_Roff, _Roff + _Count) at _Off

	push	ebp
	mov	ebp, esp
	sub	esp, 12					; 0000000cH
	mov	DWORD PTR [ebp-12], -858993460		; ccccccccH
	mov	DWORD PTR [ebp-8], -858993460		; ccccccccH
	mov	DWORD PTR [ebp-4], -858993460		; ccccccccH
	mov	DWORD PTR _this$[ebp], ecx

; 982  : 		if (this->_Mysize < _Off || _Right.size() < _Roff)

	mov	eax, DWORD PTR _this$[ebp]
	mov	ecx, DWORD PTR [eax+20]
	cmp	ecx, DWORD PTR __Off$[ebp]
	jb	SHORT $LN6@insert
	mov	ecx, DWORD PTR __Right$[ebp]
	call	?size@?$basic_string@DU?$char_traits@D@std@@V?$allocator@D@2@@std@@QBEIXZ ; std::basic_string<char,std::char_traits<char>,std::allocator<char> >::size
	cmp	eax, DWORD PTR __Roff$[ebp]
	jae	SHORT $LN7@insert
$LN6@insert:

; 983  : 			_Xran();	// _Off or _Roff off end

	mov	ecx, DWORD PTR _this$[ebp]
	call	?_Xran@?$basic_string@DU?$char_traits@D@std@@V?$allocator@D@2@@std@@QBEXXZ ; std::basic_string<char,std::char_traits<char>,std::allocator<char> >::_Xran
$LN7@insert:

; 984  : 		size_type _Num = _Right.size() - _Roff;

	mov	ecx, DWORD PTR __Right$[ebp]
	call	?size@?$basic_string@DU?$char_traits@D@std@@V?$allocator@D@2@@std@@QBEIXZ ; std::basic_string<char,std::char_traits<char>,std::allocator<char> >::size
	sub	eax, DWORD PTR __Roff$[ebp]
	mov	DWORD PTR __Num$[ebp], eax

; 985  : 		if (_Num < _Count)

	mov	edx, DWORD PTR __Num$[ebp]
	cmp	edx, DWORD PTR __Count$[ebp]
	jae	SHORT $LN5@insert

; 986  : 			_Count = _Num;	// trim _Count to size

	mov	eax, DWORD PTR __Num$[ebp]
	mov	DWORD PTR __Count$[ebp], eax
$LN5@insert:

; 987  : 		if (npos - this->_Mysize <= _Count)

	mov	ecx, DWORD PTR _this$[ebp]
	or	edx, -1
	sub	edx, DWORD PTR [ecx+20]
	cmp	edx, DWORD PTR __Count$[ebp]
	ja	SHORT $LN4@insert

; 988  : 			_Xlen();	// result too long

	mov	ecx, DWORD PTR _this$[ebp]
	call	?_Xlen@?$basic_string@DU?$char_traits@D@std@@V?$allocator@D@2@@std@@QBEXXZ ; std::basic_string<char,std::char_traits<char>,std::allocator<char> >::_Xlen
$LN4@insert:

; 989  : 
; 990  : 		if (0 < _Count && _Grow(_Num = this->_Mysize + _Count))

	cmp	DWORD PTR __Count$[ebp], 0
	jbe	$LN3@insert
	mov	eax, DWORD PTR _this$[ebp]
	mov	ecx, DWORD PTR [eax+20]
	add	ecx, DWORD PTR __Count$[ebp]
	mov	DWORD PTR __Num$[ebp], ecx
	push	0
	mov	edx, DWORD PTR __Num$[ebp]
	push	edx
	mov	ecx, DWORD PTR _this$[ebp]
	call	?_Grow@?$basic_string@DU?$char_traits@D@std@@V?$allocator@D@2@@std@@QAE_NI_N@Z ; std::basic_string<char,std::char_traits<char>,std::allocator<char> >::_Grow
	movzx	eax, al
	test	eax, eax
	je	$LN3@insert

; 991  : 			{	// make room and insert new stuff
; 992  : 			_Traits::move(_Myptr() + _Off + _Count,
; 993  : 				_Myptr() + _Off, this->_Mysize - _Off);	// empty out hole

	mov	ecx, DWORD PTR _this$[ebp]
	mov	edx, DWORD PTR [ecx+20]
	sub	edx, DWORD PTR __Off$[ebp]
	push	edx
	mov	ecx, DWORD PTR _this$[ebp]
	call	?_Myptr@?$basic_string@DU?$char_traits@D@std@@V?$allocator@D@2@@std@@QAEPADXZ ; std::basic_string<char,std::char_traits<char>,std::allocator<char> >::_Myptr
	add	eax, DWORD PTR __Off$[ebp]
	push	eax
	mov	ecx, DWORD PTR _this$[ebp]
	call	?_Myptr@?$basic_string@DU?$char_traits@D@std@@V?$allocator@D@2@@std@@QAEPADXZ ; std::basic_string<char,std::char_traits<char>,std::allocator<char> >::_Myptr
	add	eax, DWORD PTR __Off$[ebp]
	add	eax, DWORD PTR __Count$[ebp]
	push	eax
	call	?move@?$char_traits@D@std@@SAPADPADPBDI@Z ; std::char_traits<char>::move
	add	esp, 12					; 0000000cH

; 994  : 			if (this == &_Right)

	mov	eax, DWORD PTR _this$[ebp]
	cmp	eax, DWORD PTR __Right$[ebp]
	jne	SHORT $LN2@insert

; 995  : 				_Traits::move(_Myptr() + _Off,
; 996  : 					_Myptr() + (_Off < _Roff ? _Roff + _Count : _Roff),
; 997  : 						_Count);	// substring

	mov	ecx, DWORD PTR __Off$[ebp]
	cmp	ecx, DWORD PTR __Roff$[ebp]
	jae	SHORT $LN10@insert
	mov	edx, DWORD PTR __Roff$[ebp]
	add	edx, DWORD PTR __Count$[ebp]
	mov	DWORD PTR tv154[ebp], edx
	jmp	SHORT $LN11@insert
$LN10@insert:
	mov	eax, DWORD PTR __Roff$[ebp]
	mov	DWORD PTR tv154[ebp], eax
$LN11@insert:
	mov	ecx, DWORD PTR __Count$[ebp]
	push	ecx
	mov	ecx, DWORD PTR _this$[ebp]
	call	?_Myptr@?$basic_string@DU?$char_traits@D@std@@V?$allocator@D@2@@std@@QAEPADXZ ; std::basic_string<char,std::char_traits<char>,std::allocator<char> >::_Myptr
	add	eax, DWORD PTR tv154[ebp]
	push	eax
	mov	ecx, DWORD PTR _this$[ebp]
	call	?_Myptr@?$basic_string@DU?$char_traits@D@std@@V?$allocator@D@2@@std@@QAEPADXZ ; std::basic_string<char,std::char_traits<char>,std::allocator<char> >::_Myptr
	add	eax, DWORD PTR __Off$[ebp]
	push	eax
	call	?move@?$char_traits@D@std@@SAPADPADPBDI@Z ; std::char_traits<char>::move
	add	esp, 12					; 0000000cH

; 998  : 			else

	jmp	SHORT $LN1@insert
$LN2@insert:

; 999  : 				_Traits::copy(_Myptr() + _Off,
; 1000 : 					_Right._Myptr() + _Roff, _Count);	// fill hole

	mov	edx, DWORD PTR __Count$[ebp]
	push	edx
	mov	ecx, DWORD PTR __Right$[ebp]
	call	?_Myptr@?$basic_string@DU?$char_traits@D@std@@V?$allocator@D@2@@std@@QBEPBDXZ ; std::basic_string<char,std::char_traits<char>,std::allocator<char> >::_Myptr
	add	eax, DWORD PTR __Roff$[ebp]
	push	eax
	mov	ecx, DWORD PTR _this$[ebp]
	call	?_Myptr@?$basic_string@DU?$char_traits@D@std@@V?$allocator@D@2@@std@@QAEPADXZ ; std::basic_string<char,std::char_traits<char>,std::allocator<char> >::_Myptr
	add	eax, DWORD PTR __Off$[ebp]
	push	eax
	call	?copy@?$char_traits@D@std@@SAPADPADPBDI@Z ; std::char_traits<char>::copy
	add	esp, 12					; 0000000cH
$LN1@insert:

; 1001 : 			_Eos(_Num);

	mov	eax, DWORD PTR __Num$[ebp]
	push	eax
	mov	ecx, DWORD PTR _this$[ebp]
	call	?_Eos@?$basic_string@DU?$char_traits@D@std@@V?$allocator@D@2@@std@@QAEXI@Z ; std::basic_string<char,std::char_traits<char>,std::allocator<char> >::_Eos
$LN3@insert:

; 1002 : 			}
; 1003 : 		return (*this);

	mov	eax, DWORD PTR _this$[ebp]
$LN9@insert:

; 1004 : 		}

	add	esp, 12					; 0000000cH
	cmp	ebp, esp
	call	__RTC_CheckEsp
	mov	esp, ebp
	pop	ebp
	ret	16					; 00000010H
?insert@?$basic_string@DU?$char_traits@D@std@@V?$allocator@D@2@@std@@QAEAAV12@IABV12@II@Z ENDP ; std::basic_string<char,std::char_traits<char>,std::allocator<char> >::insert
_TEXT	ENDS
PUBLIC	?init@?$basic_ios@DU?$char_traits@D@std@@@std@@IAEXPAV?$basic_streambuf@DU?$char_traits@D@std@@@2@_N@Z ; std::basic_ios<char,std::char_traits<char> >::init
PUBLIC	??_8?$basic_ostream@DU?$char_traits@D@std@@@std@@7B@ ; std::basic_ostream<char,std::char_traits<char> >::`vbtable'
;	COMDAT ??_8?$basic_ostream@DU?$char_traits@D@std@@@std@@7B@
; File c:\program files (x86)\microsoft visual studio 10.0\vc\include\ostream
CONST	SEGMENT
??_8?$basic_ostream@DU?$char_traits@D@std@@@std@@7B@ DD 00H ; std::basic_ostream<char,std::char_traits<char> >::`vbtable'
	DD	08H
CONST	ENDS
;	COMDAT xdata$x
xdata$x	SEGMENT
__unwindtable$??0?$basic_ostream@DU?$char_traits@D@std@@@std@@QAE@PAV?$basic_streambuf@DU?$char_traits@D@std@@@1@_N@Z DD 0ffffffffH
	DD	FLAT:__unwindfunclet$??0?$basic_ostream@DU?$char_traits@D@std@@@std@@QAE@PAV?$basic_streambuf@DU?$char_traits@D@std@@@1@_N@Z$0
__ehfuncinfo$??0?$basic_ostream@DU?$char_traits@D@std@@@std@@QAE@PAV?$basic_streambuf@DU?$char_traits@D@std@@@1@_N@Z DD 019930522H
	DD	01H
	DD	FLAT:__unwindtable$??0?$basic_ostream@DU?$char_traits@D@std@@@std@@QAE@PAV?$basic_streambuf@DU?$char_traits@D@std@@@1@_N@Z
	DD	2 DUP(00H)
	DD	2 DUP(00H)
	DD	00H
	DD	01H
; Function compile flags: /Odtp /RTCsu
xdata$x	ENDS
;	COMDAT ??0?$basic_ostream@DU?$char_traits@D@std@@@std@@QAE@PAV?$basic_streambuf@DU?$char_traits@D@std@@@1@_N@Z
_TEXT	SEGMENT
$T147629 = -20						; size = 4
_this$ = -16						; size = 4
__$EHRec$ = -12						; size = 12
__Strbuf$ = 8						; size = 4
__Isstd$ = 12						; size = 1
_$initVBases$ = 16					; size = 4
??0?$basic_ostream@DU?$char_traits@D@std@@@std@@QAE@PAV?$basic_streambuf@DU?$char_traits@D@std@@@1@_N@Z PROC ; std::basic_ostream<char,std::char_traits<char> >::basic_ostream<char,std::char_traits<char> >, COMDAT
; _this$ = ecx

; 46   : 	explicit __CLR_OR_THIS_CALL basic_ostream(

	push	ebp
	mov	ebp, esp
	push	-1
	push	__ehhandler$??0?$basic_ostream@DU?$char_traits@D@std@@@std@@QAE@PAV?$basic_streambuf@DU?$char_traits@D@std@@@1@_N@Z
	mov	eax, DWORD PTR fs:0
	push	eax
	sub	esp, 8
	mov	DWORD PTR [ebp-20], -858993460		; ccccccccH
	mov	DWORD PTR [ebp-16], -858993460		; ccccccccH
	mov	eax, DWORD PTR ___security_cookie
	xor	eax, ebp
	push	eax
	lea	eax, DWORD PTR __$EHRec$[ebp]
	mov	DWORD PTR fs:0, eax
	mov	DWORD PTR _this$[ebp], ecx
	mov	DWORD PTR $T147629[ebp], 0
	cmp	DWORD PTR _$initVBases$[ebp], 0
	je	SHORT $LN1@basic_ostr@2
	mov	eax, DWORD PTR _this$[ebp]
	mov	DWORD PTR [eax], OFFSET ??_8?$basic_ostream@DU?$char_traits@D@std@@@std@@7B@
	mov	ecx, DWORD PTR _this$[ebp]
	add	ecx, 8
	call	??0?$basic_ios@DU?$char_traits@D@std@@@std@@IAE@XZ ; std::basic_ios<char,std::char_traits<char> >::basic_ios<char,std::char_traits<char> >
	mov	DWORD PTR __$EHRec$[ebp+8], 0
	mov	ecx, DWORD PTR $T147629[ebp]
	or	ecx, 1
	mov	DWORD PTR $T147629[ebp], ecx
$LN1@basic_ostr@2:
	mov	edx, DWORD PTR _this$[ebp]
	mov	eax, DWORD PTR [edx]
	mov	ecx, DWORD PTR [eax+4]
	mov	edx, DWORD PTR _this$[ebp]
	mov	DWORD PTR [edx+ecx], OFFSET ??_7?$basic_ostream@DU?$char_traits@D@std@@@std@@6B@

; 47   : 		basic_streambuf<_Elem, _Traits> *_Strbuf,
; 48   : 
; 49   : 		bool _Isstd = false)
; 50   : 		{	// construct from a stream buffer pointer
; 51   : 		_Myios::init(_Strbuf, _Isstd);

	movzx	eax, BYTE PTR __Isstd$[ebp]
	push	eax
	mov	ecx, DWORD PTR __Strbuf$[ebp]
	push	ecx
	mov	edx, DWORD PTR _this$[ebp]
	mov	eax, DWORD PTR [edx]
	mov	ecx, DWORD PTR _this$[ebp]
	add	ecx, DWORD PTR [eax+4]
	call	?init@?$basic_ios@DU?$char_traits@D@std@@@std@@IAEXPAV?$basic_streambuf@DU?$char_traits@D@std@@@2@_N@Z ; std::basic_ios<char,std::char_traits<char> >::init

; 52   : 		}

	mov	DWORD PTR __$EHRec$[ebp+8], -1
	mov	eax, DWORD PTR _this$[ebp]
	mov	ecx, DWORD PTR __$EHRec$[ebp]
	mov	DWORD PTR fs:0, ecx
	pop	ecx
	add	esp, 20					; 00000014H
	cmp	ebp, esp
	call	__RTC_CheckEsp
	mov	esp, ebp
	pop	ebp
	ret	12					; 0000000cH
_TEXT	ENDS
;	COMDAT text$x
text$x	SEGMENT
__unwindfunclet$??0?$basic_ostream@DU?$char_traits@D@std@@@std@@QAE@PAV?$basic_streambuf@DU?$char_traits@D@std@@@1@_N@Z$0:
	mov	eax, DWORD PTR $T147629[ebp]
	and	eax, 1
	je	$LN5@basic_ostr@2
	and	DWORD PTR $T147629[ebp], -2		; fffffffeH
	mov	ecx, DWORD PTR _this$[ebp]
	add	ecx, 8
	jmp	??1?$basic_ios@DU?$char_traits@D@std@@@std@@UAE@XZ ; std::basic_ios<char,std::char_traits<char> >::~basic_ios<char,std::char_traits<char> >
$LN5@basic_ostr@2:
	ret	0
__ehhandler$??0?$basic_ostream@DU?$char_traits@D@std@@@std@@QAE@PAV?$basic_streambuf@DU?$char_traits@D@std@@@1@_N@Z:
	mov	edx, DWORD PTR [esp+8]
	lea	eax, DWORD PTR [edx+12]
	mov	ecx, DWORD PTR [edx-12]
	xor	ecx, eax
	call	@__security_check_cookie@4
	mov	eax, OFFSET __ehfuncinfo$??0?$basic_ostream@DU?$char_traits@D@std@@@std@@QAE@PAV?$basic_streambuf@DU?$char_traits@D@std@@@1@_N@Z
	jmp	___CxxFrameHandler3
text$x	ENDS
??0?$basic_ostream@DU?$char_traits@D@std@@@std@@QAE@PAV?$basic_streambuf@DU?$char_traits@D@std@@@1@_N@Z ENDP ; std::basic_ostream<char,std::char_traits<char> >::basic_ostream<char,std::char_traits<char> >
PUBLIC	??0ios_base@std@@IAE@XZ				; std::ios_base::ios_base
; Function compile flags: /Odtp /RTCsu
; File c:\program files (x86)\microsoft visual studio 10.0\vc\include\ios
;	COMDAT ??0?$basic_ios@DU?$char_traits@D@std@@@std@@IAE@XZ
_TEXT	SEGMENT
_this$ = -4						; size = 4
??0?$basic_ios@DU?$char_traits@D@std@@@std@@IAE@XZ PROC	; std::basic_ios<char,std::char_traits<char> >::basic_ios<char,std::char_traits<char> >, COMDAT
; _this$ = ecx

; 167  : 	__CLR_OR_THIS_CALL basic_ios()

	push	ebp
	mov	ebp, esp
	push	ecx
	mov	DWORD PTR [ebp-4], -858993460		; ccccccccH
	mov	DWORD PTR _this$[ebp], ecx
	mov	ecx, DWORD PTR _this$[ebp]
	call	??0ios_base@std@@IAE@XZ			; std::ios_base::ios_base
	mov	eax, DWORD PTR _this$[ebp]
	mov	DWORD PTR [eax], OFFSET ??_7?$basic_ios@DU?$char_traits@D@std@@@std@@6B@

; 168  : 		{	// default constructor, do nothing
; 169  : 		}

	mov	eax, DWORD PTR _this$[ebp]
	add	esp, 4
	cmp	ebp, esp
	call	__RTC_CheckEsp
	mov	esp, ebp
	pop	ebp
	ret	0
??0?$basic_ios@DU?$char_traits@D@std@@@std@@IAE@XZ ENDP	; std::basic_ios<char,std::char_traits<char> >::basic_ios<char,std::char_traits<char> >
; Function compile flags: /Odtp /RTCsu
; File c:\program files (x86)\microsoft visual studio 10.0\vc\include\xiosbase
_TEXT	ENDS
;	COMDAT ??0ios_base@std@@IAE@XZ
_TEXT	SEGMENT
_this$ = -4						; size = 4
??0ios_base@std@@IAE@XZ PROC				; std::ios_base::ios_base, COMDAT
; _this$ = ecx

; 549  : 	__CLR_OR_THIS_CALL ios_base()

	push	ebp
	mov	ebp, esp
	push	ecx
	mov	DWORD PTR [ebp-4], -858993460		; ccccccccH
	mov	DWORD PTR _this$[ebp], ecx
	mov	eax, DWORD PTR _this$[ebp]
	mov	DWORD PTR [eax], OFFSET ??_7ios_base@std@@6B@

; 550  : 		{	// default constructor
; 551  : 		}

	mov	eax, DWORD PTR _this$[ebp]
	mov	esp, ebp
	pop	ebp
	ret	0
??0ios_base@std@@IAE@XZ ENDP				; std::ios_base::ios_base
; Function compile flags: /Odtp /RTCsu
; File c:\program files (x86)\microsoft visual studio 10.0\vc\include\streambuf
_TEXT	ENDS
;	COMDAT ?pbase@?$basic_streambuf@DU?$char_traits@D@std@@@std@@IBEPADXZ
_TEXT	SEGMENT
_this$ = -4						; size = 4
?pbase@?$basic_streambuf@DU?$char_traits@D@std@@@std@@IBEPADXZ PROC ; std::basic_streambuf<char,std::char_traits<char> >::pbase, COMDAT
; _this$ = ecx

; 227  : 		{	// return beginning of write buffer

	push	ebp
	mov	ebp, esp
	push	ecx
	mov	DWORD PTR [ebp-4], -858993460		; ccccccccH
	mov	DWORD PTR _this$[ebp], ecx

; 228  : 		return (*_IPfirst);

	mov	eax, DWORD PTR _this$[ebp]
	mov	ecx, DWORD PTR [eax+20]
	mov	eax, DWORD PTR [ecx]

; 229  : 		}

	mov	esp, ebp
	pop	ebp
	ret	0
?pbase@?$basic_streambuf@DU?$char_traits@D@std@@@std@@IBEPADXZ ENDP ; std::basic_streambuf<char,std::char_traits<char> >::pbase
; Function compile flags: /Odtp /RTCsu
_TEXT	ENDS
;	COMDAT ?setp@?$basic_streambuf@DU?$char_traits@D@std@@@std@@IAEXPAD00@Z
_TEXT	SEGMENT
_this$ = -4						; size = 4
__First$ = 8						; size = 4
__Next$ = 12						; size = 4
__Last$ = 16						; size = 4
?setp@?$basic_streambuf@DU?$char_traits@D@std@@@std@@IAEXPAD00@Z PROC ; std::basic_streambuf<char,std::char_traits<char> >::setp, COMDAT
; _this$ = ecx

; 296  : 		{	// set pointers for write buffer, extended version

	push	ebp
	mov	ebp, esp
	push	ecx
	mov	DWORD PTR [ebp-4], -858993460		; ccccccccH
	mov	DWORD PTR _this$[ebp], ecx

; 297  : 		*_IPfirst = _First;

	mov	eax, DWORD PTR _this$[ebp]
	mov	ecx, DWORD PTR [eax+20]
	mov	edx, DWORD PTR __First$[ebp]
	mov	DWORD PTR [ecx], edx

; 298  : 		*_IPnext = _Next;

	mov	eax, DWORD PTR _this$[ebp]
	mov	ecx, DWORD PTR [eax+36]
	mov	edx, DWORD PTR __Next$[ebp]
	mov	DWORD PTR [ecx], edx

; 299  : 		*_IPcount = (int)(_Last - _Next);

	mov	eax, DWORD PTR __Last$[ebp]
	sub	eax, DWORD PTR __Next$[ebp]
	mov	ecx, DWORD PTR _this$[ebp]
	mov	edx, DWORD PTR [ecx+52]
	mov	DWORD PTR [edx], eax

; 300  : 		}

	mov	esp, ebp
	pop	ebp
	ret	12					; 0000000cH
?setp@?$basic_streambuf@DU?$char_traits@D@std@@@std@@IAEXPAD00@Z ENDP ; std::basic_streambuf<char,std::char_traits<char> >::setp
_TEXT	ENDS
PUBLIC	??1facet@locale@std@@UAE@XZ			; std::locale::facet::~facet
PUBLIC	?_Init@?$num_put@DV?$ostreambuf_iterator@DU?$char_traits@D@std@@@std@@@std@@IAEXABV_Locinfo@2@@Z ; std::num_put<char,std::ostreambuf_iterator<char,std::char_traits<char> > >::_Init
PUBLIC	??_7?$num_put@DV?$ostreambuf_iterator@DU?$char_traits@D@std@@@std@@@std@@6B@ ; std::num_put<char,std::ostreambuf_iterator<char,std::char_traits<char> > >::`vftable'
PUBLIC	??0facet@locale@std@@IAE@I@Z			; std::locale::facet::facet
PUBLIC	??_R4?$num_put@DV?$ostreambuf_iterator@DU?$char_traits@D@std@@@std@@@std@@6B@ ; std::num_put<char,std::ostreambuf_iterator<char,std::char_traits<char> > >::`RTTI Complete Object Locator'
PUBLIC	??_R0?AV?$num_put@DV?$ostreambuf_iterator@DU?$char_traits@D@std@@@std@@@std@@@8 ; std::num_put<char,std::ostreambuf_iterator<char,std::char_traits<char> > > `RTTI Type Descriptor'
PUBLIC	??_R3?$num_put@DV?$ostreambuf_iterator@DU?$char_traits@D@std@@@std@@@std@@8 ; std::num_put<char,std::ostreambuf_iterator<char,std::char_traits<char> > >::`RTTI Class Hierarchy Descriptor'
PUBLIC	??_R2?$num_put@DV?$ostreambuf_iterator@DU?$char_traits@D@std@@@std@@@std@@8 ; std::num_put<char,std::ostreambuf_iterator<char,std::char_traits<char> > >::`RTTI Base Class Array'
PUBLIC	??_R1A@?0A@EA@?$num_put@DV?$ostreambuf_iterator@DU?$char_traits@D@std@@@std@@@std@@8 ; std::num_put<char,std::ostreambuf_iterator<char,std::char_traits<char> > >::`RTTI Base Class Descriptor at (0,-1,0,64)'
PUBLIC	??_R1A@?0A@EA@facet@locale@std@@8		; std::locale::facet::`RTTI Base Class Descriptor at (0,-1,0,64)'
PUBLIC	??_R0?AVfacet@locale@std@@@8			; std::locale::facet `RTTI Type Descriptor'
PUBLIC	??_R3facet@locale@std@@8			; std::locale::facet::`RTTI Class Hierarchy Descriptor'
PUBLIC	??_R2facet@locale@std@@8			; std::locale::facet::`RTTI Base Class Array'
PUBLIC	?do_put@?$num_put@DV?$ostreambuf_iterator@DU?$char_traits@D@std@@@std@@@std@@MBE?AV?$ostreambuf_iterator@DU?$char_traits@D@std@@@2@V32@AAVios_base@2@DPBX@Z ; std::num_put<char,std::ostreambuf_iterator<char,std::char_traits<char> > >::do_put
PUBLIC	?do_put@?$num_put@DV?$ostreambuf_iterator@DU?$char_traits@D@std@@@std@@@std@@MBE?AV?$ostreambuf_iterator@DU?$char_traits@D@std@@@2@V32@AAVios_base@2@DO@Z ; std::num_put<char,std::ostreambuf_iterator<char,std::char_traits<char> > >::do_put
PUBLIC	?do_put@?$num_put@DV?$ostreambuf_iterator@DU?$char_traits@D@std@@@std@@@std@@MBE?AV?$ostreambuf_iterator@DU?$char_traits@D@std@@@2@V32@AAVios_base@2@DN@Z ; std::num_put<char,std::ostreambuf_iterator<char,std::char_traits<char> > >::do_put
PUBLIC	?do_put@?$num_put@DV?$ostreambuf_iterator@DU?$char_traits@D@std@@@std@@@std@@MBE?AV?$ostreambuf_iterator@DU?$char_traits@D@std@@@2@V32@AAVios_base@2@D_K@Z ; std::num_put<char,std::ostreambuf_iterator<char,std::char_traits<char> > >::do_put
PUBLIC	?do_put@?$num_put@DV?$ostreambuf_iterator@DU?$char_traits@D@std@@@std@@@std@@MBE?AV?$ostreambuf_iterator@DU?$char_traits@D@std@@@2@V32@AAVios_base@2@D_J@Z ; std::num_put<char,std::ostreambuf_iterator<char,std::char_traits<char> > >::do_put
PUBLIC	?do_put@?$num_put@DV?$ostreambuf_iterator@DU?$char_traits@D@std@@@std@@@std@@MBE?AV?$ostreambuf_iterator@DU?$char_traits@D@std@@@2@V32@AAVios_base@2@DK@Z ; std::num_put<char,std::ostreambuf_iterator<char,std::char_traits<char> > >::do_put
PUBLIC	?do_put@?$num_put@DV?$ostreambuf_iterator@DU?$char_traits@D@std@@@std@@@std@@MBE?AV?$ostreambuf_iterator@DU?$char_traits@D@std@@@2@V32@AAVios_base@2@DJ@Z ; std::num_put<char,std::ostreambuf_iterator<char,std::char_traits<char> > >::do_put
PUBLIC	?do_put@?$num_put@DV?$ostreambuf_iterator@DU?$char_traits@D@std@@@std@@@std@@MBE?AV?$ostreambuf_iterator@DU?$char_traits@D@std@@@2@V32@AAVios_base@2@D_N@Z ; std::num_put<char,std::ostreambuf_iterator<char,std::char_traits<char> > >::do_put
EXTRN	??_E?$num_put@DV?$ostreambuf_iterator@DU?$char_traits@D@std@@@std@@@std@@MAEPAXI@Z:PROC ; std::num_put<char,std::ostreambuf_iterator<char,std::char_traits<char> > >::`vector deleting destructor'
;	COMDAT ??_R2facet@locale@std@@8
; File c:\program files (x86)\microsoft visual studio 10.0\vc\include\xlocnum
rdata$r	SEGMENT
??_R2facet@locale@std@@8 DD FLAT:??_R1A@?0A@EA@facet@locale@std@@8 ; std::locale::facet::`RTTI Base Class Array'
rdata$r	ENDS
;	COMDAT ??_R3facet@locale@std@@8
rdata$r	SEGMENT
??_R3facet@locale@std@@8 DD 00H				; std::locale::facet::`RTTI Class Hierarchy Descriptor'
	DD	00H
	DD	01H
	DD	FLAT:??_R2facet@locale@std@@8
rdata$r	ENDS
;	COMDAT ??_R0?AVfacet@locale@std@@@8
_DATA	SEGMENT
??_R0?AVfacet@locale@std@@@8 DD FLAT:??_7type_info@@6B@	; std::locale::facet `RTTI Type Descriptor'
	DD	00H
	DB	'.?AVfacet@locale@std@@', 00H
_DATA	ENDS
;	COMDAT ??_R1A@?0A@EA@facet@locale@std@@8
rdata$r	SEGMENT
??_R1A@?0A@EA@facet@locale@std@@8 DD FLAT:??_R0?AVfacet@locale@std@@@8 ; std::locale::facet::`RTTI Base Class Descriptor at (0,-1,0,64)'
	DD	00H
	DD	00H
	DD	0ffffffffH
	DD	00H
	DD	040H
	DD	FLAT:??_R3facet@locale@std@@8
rdata$r	ENDS
;	COMDAT ??_R1A@?0A@EA@?$num_put@DV?$ostreambuf_iterator@DU?$char_traits@D@std@@@std@@@std@@8
rdata$r	SEGMENT
??_R1A@?0A@EA@?$num_put@DV?$ostreambuf_iterator@DU?$char_traits@D@std@@@std@@@std@@8 DD FLAT:??_R0?AV?$num_put@DV?$ostreambuf_iterator@DU?$char_traits@D@std@@@std@@@std@@@8 ; std::num_put<char,std::ostreambuf_iterator<char,std::char_traits<char> > >::`RTTI Base Class Descriptor at (0,-1,0,64)'
	DD	01H
	DD	00H
	DD	0ffffffffH
	DD	00H
	DD	040H
	DD	FLAT:??_R3?$num_put@DV?$ostreambuf_iterator@DU?$char_traits@D@std@@@std@@@std@@8
rdata$r	ENDS
;	COMDAT ??_R2?$num_put@DV?$ostreambuf_iterator@DU?$char_traits@D@std@@@std@@@std@@8
rdata$r	SEGMENT
??_R2?$num_put@DV?$ostreambuf_iterator@DU?$char_traits@D@std@@@std@@@std@@8 DD FLAT:??_R1A@?0A@EA@?$num_put@DV?$ostreambuf_iterator@DU?$char_traits@D@std@@@std@@@std@@8 ; std::num_put<char,std::ostreambuf_iterator<char,std::char_traits<char> > >::`RTTI Base Class Array'
	DD	FLAT:??_R1A@?0A@EA@facet@locale@std@@8
rdata$r	ENDS
;	COMDAT ??_R3?$num_put@DV?$ostreambuf_iterator@DU?$char_traits@D@std@@@std@@@std@@8
rdata$r	SEGMENT
??_R3?$num_put@DV?$ostreambuf_iterator@DU?$char_traits@D@std@@@std@@@std@@8 DD 00H ; std::num_put<char,std::ostreambuf_iterator<char,std::char_traits<char> > >::`RTTI Class Hierarchy Descriptor'
	DD	00H
	DD	02H
	DD	FLAT:??_R2?$num_put@DV?$ostreambuf_iterator@DU?$char_traits@D@std@@@std@@@std@@8
rdata$r	ENDS
;	COMDAT ??_R0?AV?$num_put@DV?$ostreambuf_iterator@DU?$char_traits@D@std@@@std@@@std@@@8
_DATA	SEGMENT
??_R0?AV?$num_put@DV?$ostreambuf_iterator@DU?$char_traits@D@std@@@std@@@std@@@8 DD FLAT:??_7type_info@@6B@ ; std::num_put<char,std::ostreambuf_iterator<char,std::char_traits<char> > > `RTTI Type Descriptor'
	DD	00H
	DB	'.?AV?$num_put@DV?$ostreambuf_iterator@DU?$char_traits@D@'
	DB	'std@@@std@@@std@@', 00H
_DATA	ENDS
;	COMDAT ??_R4?$num_put@DV?$ostreambuf_iterator@DU?$char_traits@D@std@@@std@@@std@@6B@
rdata$r	SEGMENT
??_R4?$num_put@DV?$ostreambuf_iterator@DU?$char_traits@D@std@@@std@@@std@@6B@ DD 00H ; std::num_put<char,std::ostreambuf_iterator<char,std::char_traits<char> > >::`RTTI Complete Object Locator'
	DD	00H
	DD	00H
	DD	FLAT:??_R0?AV?$num_put@DV?$ostreambuf_iterator@DU?$char_traits@D@std@@@std@@@std@@@8
	DD	FLAT:??_R3?$num_put@DV?$ostreambuf_iterator@DU?$char_traits@D@std@@@std@@@std@@8
rdata$r	ENDS
;	COMDAT ??_7?$num_put@DV?$ostreambuf_iterator@DU?$char_traits@D@std@@@std@@@std@@6B@
CONST	SEGMENT
??_7?$num_put@DV?$ostreambuf_iterator@DU?$char_traits@D@std@@@std@@@std@@6B@ DD FLAT:??_R4?$num_put@DV?$ostreambuf_iterator@DU?$char_traits@D@std@@@std@@@std@@6B@ ; std::num_put<char,std::ostreambuf_iterator<char,std::char_traits<char> > >::`vftable'
	DD	FLAT:??_E?$num_put@DV?$ostreambuf_iterator@DU?$char_traits@D@std@@@std@@@std@@MAEPAXI@Z
	DD	FLAT:?do_put@?$num_put@DV?$ostreambuf_iterator@DU?$char_traits@D@std@@@std@@@std@@MBE?AV?$ostreambuf_iterator@DU?$char_traits@D@std@@@2@V32@AAVios_base@2@DPBX@Z
	DD	FLAT:?do_put@?$num_put@DV?$ostreambuf_iterator@DU?$char_traits@D@std@@@std@@@std@@MBE?AV?$ostreambuf_iterator@DU?$char_traits@D@std@@@2@V32@AAVios_base@2@DO@Z
	DD	FLAT:?do_put@?$num_put@DV?$ostreambuf_iterator@DU?$char_traits@D@std@@@std@@@std@@MBE?AV?$ostreambuf_iterator@DU?$char_traits@D@std@@@2@V32@AAVios_base@2@DN@Z
	DD	FLAT:?do_put@?$num_put@DV?$ostreambuf_iterator@DU?$char_traits@D@std@@@std@@@std@@MBE?AV?$ostreambuf_iterator@DU?$char_traits@D@std@@@2@V32@AAVios_base@2@D_K@Z
	DD	FLAT:?do_put@?$num_put@DV?$ostreambuf_iterator@DU?$char_traits@D@std@@@std@@@std@@MBE?AV?$ostreambuf_iterator@DU?$char_traits@D@std@@@2@V32@AAVios_base@2@D_J@Z
	DD	FLAT:?do_put@?$num_put@DV?$ostreambuf_iterator@DU?$char_traits@D@std@@@std@@@std@@MBE?AV?$ostreambuf_iterator@DU?$char_traits@D@std@@@2@V32@AAVios_base@2@DK@Z
	DD	FLAT:?do_put@?$num_put@DV?$ostreambuf_iterator@DU?$char_traits@D@std@@@std@@@std@@MBE?AV?$ostreambuf_iterator@DU?$char_traits@D@std@@@2@V32@AAVios_base@2@DJ@Z
	DD	FLAT:?do_put@?$num_put@DV?$ostreambuf_iterator@DU?$char_traits@D@std@@@std@@@std@@MBE?AV?$ostreambuf_iterator@DU?$char_traits@D@std@@@2@V32@AAVios_base@2@D_N@Z
CONST	ENDS
;	COMDAT xdata$x
xdata$x	SEGMENT
__unwindtable$??0?$num_put@DV?$ostreambuf_iterator@DU?$char_traits@D@std@@@std@@@std@@QAE@ABV_Locinfo@1@I@Z DD 0ffffffffH
	DD	FLAT:__unwindfunclet$??0?$num_put@DV?$ostreambuf_iterator@DU?$char_traits@D@std@@@std@@@std@@QAE@ABV_Locinfo@1@I@Z$0
__ehfuncinfo$??0?$num_put@DV?$ostreambuf_iterator@DU?$char_traits@D@std@@@std@@@std@@QAE@ABV_Locinfo@1@I@Z DD 019930522H
	DD	01H
	DD	FLAT:__unwindtable$??0?$num_put@DV?$ostreambuf_iterator@DU?$char_traits@D@std@@@std@@@std@@QAE@ABV_Locinfo@1@I@Z
	DD	2 DUP(00H)
	DD	2 DUP(00H)
	DD	00H
	DD	01H
; Function compile flags: /Odtp /RTCsu
xdata$x	ENDS
;	COMDAT ??0?$num_put@DV?$ostreambuf_iterator@DU?$char_traits@D@std@@@std@@@std@@QAE@ABV_Locinfo@1@I@Z
_TEXT	SEGMENT
_this$ = -16						; size = 4
__$EHRec$ = -12						; size = 12
__Lobj$ = 8						; size = 4
__Refs$ = 12						; size = 4
??0?$num_put@DV?$ostreambuf_iterator@DU?$char_traits@D@std@@@std@@@std@@QAE@ABV_Locinfo@1@I@Z PROC ; std::num_put<char,std::ostreambuf_iterator<char,std::char_traits<char> > >::num_put<char,std::ostreambuf_iterator<char,std::char_traits<char> > >, COMDAT
; _this$ = ecx

; 1083 : 		{	// construct from specified locale

	push	ebp
	mov	ebp, esp
	push	-1
	push	__ehhandler$??0?$num_put@DV?$ostreambuf_iterator@DU?$char_traits@D@std@@@std@@@std@@QAE@ABV_Locinfo@1@I@Z
	mov	eax, DWORD PTR fs:0
	push	eax
	push	ecx
	mov	DWORD PTR [ebp-16], -858993460		; ccccccccH
	mov	eax, DWORD PTR ___security_cookie
	xor	eax, ebp
	push	eax
	lea	eax, DWORD PTR __$EHRec$[ebp]
	mov	DWORD PTR fs:0, eax
	mov	DWORD PTR _this$[ebp], ecx
	mov	eax, DWORD PTR __Refs$[ebp]
	push	eax
	mov	ecx, DWORD PTR _this$[ebp]
	call	??0facet@locale@std@@IAE@I@Z		; std::locale::facet::facet
	mov	DWORD PTR __$EHRec$[ebp+8], 0
	mov	ecx, DWORD PTR _this$[ebp]
	mov	DWORD PTR [ecx], OFFSET ??_7?$num_put@DV?$ostreambuf_iterator@DU?$char_traits@D@std@@@std@@@std@@6B@

; 1084 : 		_Init(_Lobj);

	mov	edx, DWORD PTR __Lobj$[ebp]
	push	edx
	mov	ecx, DWORD PTR _this$[ebp]
	call	?_Init@?$num_put@DV?$ostreambuf_iterator@DU?$char_traits@D@std@@@std@@@std@@IAEXABV_Locinfo@2@@Z ; std::num_put<char,std::ostreambuf_iterator<char,std::char_traits<char> > >::_Init

; 1085 : 		}

	mov	DWORD PTR __$EHRec$[ebp+8], -1
	mov	eax, DWORD PTR _this$[ebp]
	mov	ecx, DWORD PTR __$EHRec$[ebp]
	mov	DWORD PTR fs:0, ecx
	pop	ecx
	add	esp, 16					; 00000010H
	cmp	ebp, esp
	call	__RTC_CheckEsp
	mov	esp, ebp
	pop	ebp
	ret	8
_TEXT	ENDS
;	COMDAT text$x
text$x	SEGMENT
__unwindfunclet$??0?$num_put@DV?$ostreambuf_iterator@DU?$char_traits@D@std@@@std@@@std@@QAE@ABV_Locinfo@1@I@Z$0:
	mov	ecx, DWORD PTR _this$[ebp]
	jmp	??1facet@locale@std@@UAE@XZ		; std::locale::facet::~facet
__ehhandler$??0?$num_put@DV?$ostreambuf_iterator@DU?$char_traits@D@std@@@std@@@std@@QAE@ABV_Locinfo@1@I@Z:
	mov	edx, DWORD PTR [esp+8]
	lea	eax, DWORD PTR [edx+12]
	mov	ecx, DWORD PTR [edx-8]
	xor	ecx, eax
	call	@__security_check_cookie@4
	mov	eax, OFFSET __ehfuncinfo$??0?$num_put@DV?$ostreambuf_iterator@DU?$char_traits@D@std@@@std@@@std@@QAE@ABV_Locinfo@1@I@Z
	jmp	___CxxFrameHandler3
text$x	ENDS
??0?$num_put@DV?$ostreambuf_iterator@DU?$char_traits@D@std@@@std@@@std@@QAE@ABV_Locinfo@1@I@Z ENDP ; std::num_put<char,std::ostreambuf_iterator<char,std::char_traits<char> > >::num_put<char,std::ostreambuf_iterator<char,std::char_traits<char> > >
PUBLIC	??_7facet@locale@std@@6B@			; std::locale::facet::`vftable'
PUBLIC	??_R4facet@locale@std@@6B@			; std::locale::facet::`RTTI Complete Object Locator'
EXTRN	??_Efacet@locale@std@@UAEPAXI@Z:PROC		; std::locale::facet::`vector deleting destructor'
;	COMDAT ??_R4facet@locale@std@@6B@
; File c:\program files (x86)\microsoft visual studio 10.0\vc\include\xlocale
rdata$r	SEGMENT
??_R4facet@locale@std@@6B@ DD 00H			; std::locale::facet::`RTTI Complete Object Locator'
	DD	00H
	DD	00H
	DD	FLAT:??_R0?AVfacet@locale@std@@@8
	DD	FLAT:??_R3facet@locale@std@@8
rdata$r	ENDS
;	COMDAT ??_7facet@locale@std@@6B@
CONST	SEGMENT
??_7facet@locale@std@@6B@ DD FLAT:??_R4facet@locale@std@@6B@ ; std::locale::facet::`vftable'
	DD	FLAT:??_Efacet@locale@std@@UAEPAXI@Z
; Function compile flags: /Odtp /RTCsu
CONST	ENDS
;	COMDAT ??1facet@locale@std@@UAE@XZ
_TEXT	SEGMENT
_this$ = -4						; size = 4
??1facet@locale@std@@UAE@XZ PROC			; std::locale::facet::~facet, COMDAT
; _this$ = ecx

; 164  : 			{	// destroy the object

	push	ebp
	mov	ebp, esp
	push	ecx
	mov	DWORD PTR [ebp-4], -858993460		; ccccccccH
	mov	DWORD PTR _this$[ebp], ecx
	mov	eax, DWORD PTR _this$[ebp]
	mov	DWORD PTR [eax], OFFSET ??_7facet@locale@std@@6B@

; 165  : 			}

	mov	esp, ebp
	pop	ebp
	ret	0
??1facet@locale@std@@UAE@XZ ENDP			; std::locale::facet::~facet
; Function compile flags: /Odtp /RTCsu
_TEXT	ENDS
;	COMDAT ??0facet@locale@std@@IAE@I@Z
_TEXT	SEGMENT
_this$ = -4						; size = 4
__Initrefs$ = 8						; size = 4
??0facet@locale@std@@IAE@I@Z PROC			; std::locale::facet::facet, COMDAT
; _this$ = ecx

; 170  : 			{	// construct with initial reference count

	push	ebp
	mov	ebp, esp
	push	ecx
	mov	DWORD PTR [ebp-4], -858993460		; ccccccccH
	mov	DWORD PTR _this$[ebp], ecx
	mov	eax, DWORD PTR _this$[ebp]
	mov	DWORD PTR [eax], OFFSET ??_7facet@locale@std@@6B@
	mov	ecx, DWORD PTR _this$[ebp]
	mov	edx, DWORD PTR __Initrefs$[ebp]
	mov	DWORD PTR [ecx+4], edx

; 171  : 			}

	mov	eax, DWORD PTR _this$[ebp]
	mov	esp, ebp
	pop	ebp
	ret	4
??0facet@locale@std@@IAE@I@Z ENDP			; std::locale::facet::facet
; Function compile flags: /Odtp /RTCsu
_TEXT	ENDS
;	COMDAT ??_Gfacet@locale@std@@UAEPAXI@Z
_TEXT	SEGMENT
_this$ = -4						; size = 4
___flags$ = 8						; size = 4
??_Gfacet@locale@std@@UAEPAXI@Z PROC			; std::locale::facet::`scalar deleting destructor', COMDAT
; _this$ = ecx
	push	ebp
	mov	ebp, esp
	push	ecx
	mov	DWORD PTR [ebp-4], -858993460		; ccccccccH
	mov	DWORD PTR _this$[ebp], ecx
	mov	ecx, DWORD PTR _this$[ebp]
	call	??1facet@locale@std@@UAE@XZ		; std::locale::facet::~facet
	mov	eax, DWORD PTR ___flags$[ebp]
	and	eax, 1
	je	SHORT $LN1@scalar@12
	mov	ecx, DWORD PTR _this$[ebp]
	push	ecx
	call	??3facet@locale@std@@SAXPAX@Z		; std::locale::facet::operator delete
	add	esp, 4
$LN1@scalar@12:
	mov	eax, DWORD PTR _this$[ebp]
	add	esp, 4
	cmp	ebp, esp
	call	__RTC_CheckEsp
	mov	esp, ebp
	pop	ebp
	ret	4
??_Gfacet@locale@std@@UAEPAXI@Z ENDP			; std::locale::facet::`scalar deleting destructor'
_TEXT	ENDS
PUBLIC	?width@ios_base@std@@QAE_J_J@Z			; std::ios_base::width
PUBLIC	?_Put@?$num_put@DV?$ostreambuf_iterator@DU?$char_traits@D@std@@@std@@@std@@ABA?AV?$ostreambuf_iterator@DU?$char_traits@D@std@@@2@V32@PBDI@Z ; std::num_put<char,std::ostreambuf_iterator<char,std::char_traits<char> > >::_Put
PUBLIC	?_Rep@?$num_put@DV?$ostreambuf_iterator@DU?$char_traits@D@std@@@std@@@std@@ABA?AV?$ostreambuf_iterator@DU?$char_traits@D@std@@@2@V32@DI@Z ; std::num_put<char,std::ostreambuf_iterator<char,std::char_traits<char> > >::_Rep
PUBLIC	?width@ios_base@std@@QBE_JXZ			; std::ios_base::width
PUBLIC	?falsename@?$numpunct@D@std@@QBE?AV?$basic_string@DU?$char_traits@D@std@@V?$allocator@D@2@@2@XZ ; std::numpunct<char>::falsename
PUBLIC	?truename@?$numpunct@D@std@@QBE?AV?$basic_string@DU?$char_traits@D@std@@V?$allocator@D@2@@2@XZ ; std::numpunct<char>::truename
PUBLIC	??$use_facet@V?$numpunct@D@std@@@std@@YAABV?$numpunct@D@0@ABVlocale@0@@Z ; std::use_facet<std::numpunct<char> >
PUBLIC	??$_Debug_pointer@V?$ostreambuf_iterator@DU?$char_traits@D@std@@@std@@@std@@YAXAAV?$ostreambuf_iterator@DU?$char_traits@D@std@@@0@PB_WI@Z ; std::_Debug_pointer<std::ostreambuf_iterator<char,std::char_traits<char> > >
PUBLIC	??_C@_1IO@NAGBLLMA@?$AAc?$AA?3?$AA?2?$AAP?$AAr?$AAo?$AAg?$AAr?$AAa?$AAm?$AA?5?$AAF?$AAi?$AAl?$AAe?$AAs?$AA?5?$AA?$CI?$AAx?$AA8?$AA6?$AA?$CJ?$AA?2?$AAM?$AAi?$AAc?$AAr?$AAo?$AAs?$AAo?$AAf?$AAt@ ; `string'
PUBLIC	__$ArrayPad$
;	COMDAT ??_C@_1IO@NAGBLLMA@?$AAc?$AA?3?$AA?2?$AAP?$AAr?$AAo?$AAg?$AAr?$AAa?$AAm?$AA?5?$AAF?$AAi?$AAl?$AAe?$AAs?$AA?5?$AA?$CI?$AAx?$AA8?$AA6?$AA?$CJ?$AA?2?$AAM?$AAi?$AAc?$AAr?$AAo?$AAs?$AAo?$AAf?$AAt@
; File c:\program files (x86)\microsoft visual studio 10.0\vc\include\xlocnum
CONST	SEGMENT
??_C@_1IO@NAGBLLMA@?$AAc?$AA?3?$AA?2?$AAP?$AAr?$AAo?$AAg?$AAr?$AAa?$AAm?$AA?5?$AAF?$AAi?$AAl?$AAe?$AAs?$AA?5?$AA?$CI?$AAx?$AA8?$AA6?$AA?$CJ?$AA?2?$AAM?$AAi?$AAc?$AAr?$AAo?$AAs?$AAo?$AAf?$AAt@ DB 'c'
	DB	00H, ':', 00H, '\', 00H, 'P', 00H, 'r', 00H, 'o', 00H, 'g', 00H
	DB	'r', 00H, 'a', 00H, 'm', 00H, ' ', 00H, 'F', 00H, 'i', 00H, 'l'
	DB	00H, 'e', 00H, 's', 00H, ' ', 00H, '(', 00H, 'x', 00H, '8', 00H
	DB	'6', 00H, ')', 00H, '\', 00H, 'M', 00H, 'i', 00H, 'c', 00H, 'r'
	DB	00H, 'o', 00H, 's', 00H, 'o', 00H, 'f', 00H, 't', 00H, ' ', 00H
	DB	'V', 00H, 'i', 00H, 's', 00H, 'u', 00H, 'a', 00H, 'l', 00H, ' '
	DB	00H, 'S', 00H, 't', 00H, 'u', 00H, 'd', 00H, 'i', 00H, 'o', 00H
	DB	' ', 00H, '1', 00H, '0', 00H, '.', 00H, '0', 00H, '\', 00H, 'V'
	DB	00H, 'C', 00H, '\', 00H, 'i', 00H, 'n', 00H, 'c', 00H, 'l', 00H
	DB	'u', 00H, 'd', 00H, 'e', 00H, '\', 00H, 'x', 00H, 'l', 00H, 'o'
	DB	00H, 'c', 00H, 'n', 00H, 'u', 00H, 'm', 00H, 00H, 00H ; `string'
CONST	ENDS
;	COMDAT xdata$x
xdata$x	SEGMENT
__unwindtable$?do_put@?$num_put@DV?$ostreambuf_iterator@DU?$char_traits@D@std@@@std@@@std@@MBE?AV?$ostreambuf_iterator@DU?$char_traits@D@std@@@2@V32@AAVios_base@2@D_N@Z DD 0ffffffffH
	DD	FLAT:__unwindfunclet$?do_put@?$num_put@DV?$ostreambuf_iterator@DU?$char_traits@D@std@@@std@@@std@@MBE?AV?$ostreambuf_iterator@DU?$char_traits@D@std@@@2@V32@AAVios_base@2@D_N@Z$0
	DD	0ffffffffH
	DD	FLAT:__unwindfunclet$?do_put@?$num_put@DV?$ostreambuf_iterator@DU?$char_traits@D@std@@@std@@@std@@MBE?AV?$ostreambuf_iterator@DU?$char_traits@D@std@@@2@V32@AAVios_base@2@D_N@Z$1
	DD	01H
	DD	FLAT:__unwindfunclet$?do_put@?$num_put@DV?$ostreambuf_iterator@DU?$char_traits@D@std@@@std@@@std@@MBE?AV?$ostreambuf_iterator@DU?$char_traits@D@std@@@2@V32@AAVios_base@2@D_N@Z$2
	DD	01H
	DD	FLAT:__unwindfunclet$?do_put@?$num_put@DV?$ostreambuf_iterator@DU?$char_traits@D@std@@@std@@@std@@MBE?AV?$ostreambuf_iterator@DU?$char_traits@D@std@@@2@V32@AAVios_base@2@D_N@Z$3
__ehfuncinfo$?do_put@?$num_put@DV?$ostreambuf_iterator@DU?$char_traits@D@std@@@std@@@std@@MBE?AV?$ostreambuf_iterator@DU?$char_traits@D@std@@@2@V32@AAVios_base@2@D_N@Z DD 019930522H
	DD	04H
	DD	FLAT:__unwindtable$?do_put@?$num_put@DV?$ostreambuf_iterator@DU?$char_traits@D@std@@@std@@@std@@MBE?AV?$ostreambuf_iterator@DU?$char_traits@D@std@@@2@V32@AAVios_base@2@D_N@Z
	DD	2 DUP(00H)
	DD	2 DUP(00H)
	DD	00H
	DD	01H
; Function compile flags: /Odtp /RTCsu
xdata$x	ENDS
;	COMDAT ?do_put@?$num_put@DV?$ostreambuf_iterator@DU?$char_traits@D@std@@@std@@@std@@MBE?AV?$ostreambuf_iterator@DU?$char_traits@D@std@@@2@V32@AAVios_base@2@D_N@Z
_TEXT	SEGMENT
tv153 = -188						; size = 4
tv230 = -184						; size = 8
tv189 = -176						; size = 4
tv192 = -172						; size = 4
tv187 = -168						; size = 4
tv88 = -164						; size = 4
tv184 = -160						; size = 4
tv191 = -156						; size = 4
$T147669 = -152						; size = 8
$T147668 = -144						; size = 8
$T147665 = -136						; size = 4
__Fillcount$139810 = -132				; size = 4
$T139809 = -128						; size = 32
$T139807 = -96						; size = 32
__Str$139750 = -60					; size = 32
__Punct_fac$139743 = -24				; size = 4
_this$ = -20						; size = 4
__$ArrayPad$ = -16					; size = 4
__$EHRec$ = -12						; size = 12
___$ReturnUdt$ = 8					; size = 4
__Dest$ = 12						; size = 8
__Iosbase$ = 20						; size = 4
__Fill$ = 24						; size = 1
__Val$ = 28						; size = 1
?do_put@?$num_put@DV?$ostreambuf_iterator@DU?$char_traits@D@std@@@std@@@std@@MBE?AV?$ostreambuf_iterator@DU?$char_traits@D@std@@@2@V32@AAVios_base@2@D_N@Z PROC ; std::num_put<char,std::ostreambuf_iterator<char,std::char_traits<char> > >::do_put, COMDAT
; _this$ = ecx

; 1143 : 		{	// put formatted bool to _Dest

	push	ebp
	mov	ebp, esp
	push	-1
	push	__ehhandler$?do_put@?$num_put@DV?$ostreambuf_iterator@DU?$char_traits@D@std@@@std@@@std@@MBE?AV?$ostreambuf_iterator@DU?$char_traits@D@std@@@2@V32@AAVios_base@2@D_N@Z
	mov	eax, DWORD PTR fs:0
	push	eax
	sub	esp, 176				; 000000b0H
	push	esi
	push	edi
	push	ecx
	lea	edi, DWORD PTR [ebp-188]
	mov	ecx, 44					; 0000002cH
	mov	eax, -858993460				; ccccccccH
	rep stosd
	pop	ecx
	mov	eax, DWORD PTR ___security_cookie
	xor	eax, ebp
	mov	DWORD PTR __$ArrayPad$[ebp], eax
	push	eax
	lea	eax, DWORD PTR __$EHRec$[ebp]
	mov	DWORD PTR fs:0, eax
	mov	DWORD PTR _this$[ebp], ecx

; 1144 : 		_DEBUG_POINTER(_Dest);

	push	1144					; 00000478H
	push	OFFSET ??_C@_1IO@NAGBLLMA@?$AAc?$AA?3?$AA?2?$AAP?$AAr?$AAo?$AAg?$AAr?$AAa?$AAm?$AA?5?$AAF?$AAi?$AAl?$AAe?$AAs?$AA?5?$AA?$CI?$AAx?$AA8?$AA6?$AA?$CJ?$AA?2?$AAM?$AAi?$AAc?$AAr?$AAo?$AAs?$AAo?$AAf?$AAt@
	lea	eax, DWORD PTR __Dest$[ebp]
	push	eax
	call	??$_Debug_pointer@V?$ostreambuf_iterator@DU?$char_traits@D@std@@@std@@@std@@YAXAAV?$ostreambuf_iterator@DU?$char_traits@D@std@@@0@PB_WI@Z ; std::_Debug_pointer<std::ostreambuf_iterator<char,std::char_traits<char> > >
	add	esp, 12					; 0000000cH

; 1145 : 		if (!(_Iosbase.flags() & ios_base::boolalpha))

	mov	ecx, DWORD PTR __Iosbase$[ebp]
	call	?flags@ios_base@std@@QBEHXZ		; std::ios_base::flags
	and	eax, 16384				; 00004000H
	jne	SHORT $LN5@do_put

; 1146 : 			return (do_put(_Dest, _Iosbase, _Fill, (long)_Val));

	movzx	ecx, BYTE PTR __Val$[ebp]
	mov	esi, esp
	push	ecx
	movzx	edx, BYTE PTR __Fill$[ebp]
	push	edx
	mov	eax, DWORD PTR __Iosbase$[ebp]
	push	eax
	mov	ecx, DWORD PTR __Dest$[ebp+4]
	push	ecx
	mov	edx, DWORD PTR __Dest$[ebp]
	push	edx
	mov	eax, DWORD PTR ___$ReturnUdt$[ebp]
	push	eax
	mov	ecx, DWORD PTR _this$[ebp]
	mov	edx, DWORD PTR [ecx]
	mov	ecx, DWORD PTR _this$[ebp]
	mov	eax, DWORD PTR [edx+28]
	call	eax
	cmp	esi, esp
	call	__RTC_CheckEsp
	mov	eax, DWORD PTR ___$ReturnUdt$[ebp]
	jmp	$LN6@do_put

; 1147 : 		else

	jmp	$LN6@do_put
$LN5@do_put:

; 1148 : 			{	// put "false" or "true"
; 1149 : 			const _Mypunct& _Punct_fac = _USE(_Iosbase.getloc(), _Mypunct);

	lea	ecx, DWORD PTR $T147665[ebp]
	push	ecx
	mov	ecx, DWORD PTR __Iosbase$[ebp]
	call	?getloc@ios_base@std@@QBE?AVlocale@2@XZ	; std::ios_base::getloc
	mov	DWORD PTR tv191[ebp], eax
	mov	edx, DWORD PTR tv191[ebp]
	mov	DWORD PTR tv184[ebp], edx
	mov	DWORD PTR __$EHRec$[ebp+8], 0
	mov	eax, DWORD PTR tv184[ebp]
	push	eax
	call	??$use_facet@V?$numpunct@D@std@@@std@@YAABV?$numpunct@D@0@ABVlocale@0@@Z ; std::use_facet<std::numpunct<char> >
	add	esp, 4
	mov	DWORD PTR __Punct_fac$139743[ebp], eax
	mov	DWORD PTR __$EHRec$[ebp+8], -1
	lea	ecx, DWORD PTR $T147665[ebp]
	call	??1locale@std@@QAE@XZ			; std::locale::~locale

; 1150 : 			_Mystr _Str;

	lea	ecx, DWORD PTR __Str$139750[ebp]
	call	??0?$basic_string@DU?$char_traits@D@std@@V?$allocator@D@2@@std@@QAE@XZ ; std::basic_string<char,std::char_traits<char>,std::allocator<char> >::basic_string<char,std::char_traits<char>,std::allocator<char> >
	mov	DWORD PTR __$EHRec$[ebp+8], 1

; 1151 : 			if (_Val)

	movzx	ecx, BYTE PTR __Val$[ebp]
	test	ecx, ecx
	je	SHORT $LN3@do_put

; 1152 : 				_Str.assign(_Punct_fac.truename());

	lea	edx, DWORD PTR $T139807[ebp]
	push	edx
	mov	ecx, DWORD PTR __Punct_fac$139743[ebp]
	call	?truename@?$numpunct@D@std@@QBE?AV?$basic_string@DU?$char_traits@D@std@@V?$allocator@D@2@@2@XZ ; std::numpunct<char>::truename
	mov	DWORD PTR tv88[ebp], eax
	mov	eax, DWORD PTR tv88[ebp]
	mov	DWORD PTR tv187[ebp], eax
	mov	BYTE PTR __$EHRec$[ebp+8], 2
	mov	ecx, DWORD PTR tv187[ebp]
	push	ecx
	lea	ecx, DWORD PTR __Str$139750[ebp]
	call	?assign@?$basic_string@DU?$char_traits@D@std@@V?$allocator@D@2@@std@@QAEAAV12@$$QAV12@@Z ; std::basic_string<char,std::char_traits<char>,std::allocator<char> >::assign
	mov	BYTE PTR __$EHRec$[ebp+8], 1
	lea	ecx, DWORD PTR $T139807[ebp]
	call	??1?$basic_string@DU?$char_traits@D@std@@V?$allocator@D@2@@std@@QAE@XZ ; std::basic_string<char,std::char_traits<char>,std::allocator<char> >::~basic_string<char,std::char_traits<char>,std::allocator<char> >

; 1153 : 			else

	jmp	SHORT $LN2@do_put
$LN3@do_put:

; 1154 : 				_Str.assign(_Punct_fac.falsename());

	lea	edx, DWORD PTR $T139809[ebp]
	push	edx
	mov	ecx, DWORD PTR __Punct_fac$139743[ebp]
	call	?falsename@?$numpunct@D@std@@QBE?AV?$basic_string@DU?$char_traits@D@std@@V?$allocator@D@2@@2@XZ ; std::numpunct<char>::falsename
	mov	DWORD PTR tv192[ebp], eax
	mov	eax, DWORD PTR tv192[ebp]
	mov	DWORD PTR tv189[ebp], eax
	mov	BYTE PTR __$EHRec$[ebp+8], 3
	mov	ecx, DWORD PTR tv189[ebp]
	push	ecx
	lea	ecx, DWORD PTR __Str$139750[ebp]
	call	?assign@?$basic_string@DU?$char_traits@D@std@@V?$allocator@D@2@@std@@QAEAAV12@$$QAV12@@Z ; std::basic_string<char,std::char_traits<char>,std::allocator<char> >::assign
	mov	BYTE PTR __$EHRec$[ebp+8], 1
	lea	ecx, DWORD PTR $T139809[ebp]
	call	??1?$basic_string@DU?$char_traits@D@std@@V?$allocator@D@2@@std@@QAE@XZ ; std::basic_string<char,std::char_traits<char>,std::allocator<char> >::~basic_string<char,std::char_traits<char>,std::allocator<char> >
$LN2@do_put:

; 1155 : 
; 1156 : 			size_t _Fillcount = _Iosbase.width() <= 0
; 1157 : 				|| (size_t)_Iosbase.width() <= _Str.size()
; 1158 : 					? 0 : (size_t)_Iosbase.width() - _Str.size();

	mov	ecx, DWORD PTR __Iosbase$[ebp]
	call	?width@ios_base@std@@QBE_JXZ		; std::ios_base::width
	mov	DWORD PTR tv230[ebp], eax
	mov	DWORD PTR tv230[ebp+4], edx
	cmp	DWORD PTR tv230[ebp+4], 0
	jl	SHORT $LN8@do_put
	jg	SHORT $LN14@do_put
	cmp	DWORD PTR tv230[ebp], 0
	jbe	SHORT $LN8@do_put
$LN14@do_put:
	mov	ecx, DWORD PTR __Iosbase$[ebp]
	call	?width@ios_base@std@@QBE_JXZ		; std::ios_base::width
	mov	esi, eax
	lea	ecx, DWORD PTR __Str$139750[ebp]
	call	?size@?$basic_string@DU?$char_traits@D@std@@V?$allocator@D@2@@std@@QBEIXZ ; std::basic_string<char,std::char_traits<char>,std::allocator<char> >::size
	cmp	esi, eax
	jbe	SHORT $LN8@do_put
	mov	ecx, DWORD PTR __Iosbase$[ebp]
	call	?width@ios_base@std@@QBE_JXZ		; std::ios_base::width
	mov	esi, eax
	lea	ecx, DWORD PTR __Str$139750[ebp]
	call	?size@?$basic_string@DU?$char_traits@D@std@@V?$allocator@D@2@@std@@QBEIXZ ; std::basic_string<char,std::char_traits<char>,std::allocator<char> >::size
	sub	esi, eax
	mov	DWORD PTR tv153[ebp], esi
	jmp	SHORT $LN9@do_put
$LN8@do_put:
	mov	DWORD PTR tv153[ebp], 0
$LN9@do_put:
	mov	edx, DWORD PTR tv153[ebp]
	mov	DWORD PTR __Fillcount$139810[ebp], edx

; 1159 : 
; 1160 : 			if ((_Iosbase.flags() & ios_base::adjustfield) != ios_base::left)

	mov	ecx, DWORD PTR __Iosbase$[ebp]
	call	?flags@ios_base@std@@QBEHXZ		; std::ios_base::flags
	and	eax, 448				; 000001c0H
	cmp	eax, 64					; 00000040H
	je	SHORT $LN1@do_put

; 1161 : 				{	// put leading fill
; 1162 : 				_Dest = _Rep(_Dest, _Fill, _Fillcount);

	mov	eax, DWORD PTR __Fillcount$139810[ebp]
	push	eax
	movzx	ecx, BYTE PTR __Fill$[ebp]
	push	ecx
	mov	edx, DWORD PTR __Dest$[ebp+4]
	push	edx
	mov	eax, DWORD PTR __Dest$[ebp]
	push	eax
	lea	ecx, DWORD PTR $T147668[ebp]
	push	ecx
	mov	edx, DWORD PTR _this$[ebp]
	push	edx
	call	?_Rep@?$num_put@DV?$ostreambuf_iterator@DU?$char_traits@D@std@@@std@@@std@@ABA?AV?$ostreambuf_iterator@DU?$char_traits@D@std@@@2@V32@DI@Z ; std::num_put<char,std::ostreambuf_iterator<char,std::char_traits<char> > >::_Rep
	add	esp, 24					; 00000018H
	mov	ecx, DWORD PTR [eax]
	mov	edx, DWORD PTR [eax+4]
	mov	DWORD PTR __Dest$[ebp], ecx
	mov	DWORD PTR __Dest$[ebp+4], edx

; 1163 : 				_Fillcount = 0;

	mov	DWORD PTR __Fillcount$139810[ebp], 0
$LN1@do_put:

; 1164 : 				}
; 1165 : 			_Dest = _Put(_Dest, _Str.c_str(), _Str.size());	// put field

	lea	ecx, DWORD PTR __Str$139750[ebp]
	call	?size@?$basic_string@DU?$char_traits@D@std@@V?$allocator@D@2@@std@@QBEIXZ ; std::basic_string<char,std::char_traits<char>,std::allocator<char> >::size
	push	eax
	lea	ecx, DWORD PTR __Str$139750[ebp]
	call	?c_str@?$basic_string@DU?$char_traits@D@std@@V?$allocator@D@2@@std@@QBEPBDXZ ; std::basic_string<char,std::char_traits<char>,std::allocator<char> >::c_str
	push	eax
	mov	eax, DWORD PTR __Dest$[ebp+4]
	push	eax
	mov	ecx, DWORD PTR __Dest$[ebp]
	push	ecx
	lea	edx, DWORD PTR $T147669[ebp]
	push	edx
	mov	eax, DWORD PTR _this$[ebp]
	push	eax
	call	?_Put@?$num_put@DV?$ostreambuf_iterator@DU?$char_traits@D@std@@@std@@@std@@ABA?AV?$ostreambuf_iterator@DU?$char_traits@D@std@@@2@V32@PBDI@Z ; std::num_put<char,std::ostreambuf_iterator<char,std::char_traits<char> > >::_Put
	add	esp, 24					; 00000018H
	mov	ecx, DWORD PTR [eax]
	mov	edx, DWORD PTR [eax+4]
	mov	DWORD PTR __Dest$[ebp], ecx
	mov	DWORD PTR __Dest$[ebp+4], edx

; 1166 : 			_Iosbase.width(0);

	push	0
	push	0
	mov	ecx, DWORD PTR __Iosbase$[ebp]
	call	?width@ios_base@std@@QAE_J_J@Z		; std::ios_base::width

; 1167 : 			return (_Rep(_Dest, _Fill, _Fillcount));	// put trailing fill

	mov	eax, DWORD PTR __Fillcount$139810[ebp]
	push	eax
	movzx	ecx, BYTE PTR __Fill$[ebp]
	push	ecx
	mov	edx, DWORD PTR __Dest$[ebp+4]
	push	edx
	mov	eax, DWORD PTR __Dest$[ebp]
	push	eax
	mov	ecx, DWORD PTR ___$ReturnUdt$[ebp]
	push	ecx
	mov	edx, DWORD PTR _this$[ebp]
	push	edx
	call	?_Rep@?$num_put@DV?$ostreambuf_iterator@DU?$char_traits@D@std@@@std@@@std@@ABA?AV?$ostreambuf_iterator@DU?$char_traits@D@std@@@2@V32@DI@Z ; std::num_put<char,std::ostreambuf_iterator<char,std::char_traits<char> > >::_Rep
	add	esp, 24					; 00000018H
	mov	DWORD PTR __$EHRec$[ebp+8], -1
	lea	ecx, DWORD PTR __Str$139750[ebp]
	call	??1?$basic_string@DU?$char_traits@D@std@@V?$allocator@D@2@@std@@QAE@XZ ; std::basic_string<char,std::char_traits<char>,std::allocator<char> >::~basic_string<char,std::char_traits<char>,std::allocator<char> >
	mov	eax, DWORD PTR ___$ReturnUdt$[ebp]
$LN6@do_put:

; 1168 : 			}
; 1169 : 		}

	push	edx
	mov	ecx, ebp
	push	eax
	lea	edx, DWORD PTR $LN18@do_put
	call	@_RTC_CheckStackVars@8
	pop	eax
	pop	edx
	mov	ecx, DWORD PTR __$EHRec$[ebp]
	mov	DWORD PTR fs:0, ecx
	pop	ecx
	pop	edi
	pop	esi
	mov	ecx, DWORD PTR __$ArrayPad$[ebp]
	xor	ecx, ebp
	call	@__security_check_cookie@4
	add	esp, 188				; 000000bcH
	cmp	ebp, esp
	call	__RTC_CheckEsp
	mov	esp, ebp
	pop	ebp
	ret	24					; 00000018H
$LN18@do_put:
	DD	1
	DD	$LN17@do_put
$LN17@do_put:
	DD	-60					; ffffffc4H
	DD	32					; 00000020H
	DD	$LN15@do_put
$LN15@do_put:
	DB	95					; 0000005fH
	DB	83					; 00000053H
	DB	116					; 00000074H
	DB	114					; 00000072H
	DB	0
_TEXT	ENDS
;	COMDAT text$x
text$x	SEGMENT
__unwindfunclet$?do_put@?$num_put@DV?$ostreambuf_iterator@DU?$char_traits@D@std@@@std@@@std@@MBE?AV?$ostreambuf_iterator@DU?$char_traits@D@std@@@2@V32@AAVios_base@2@D_N@Z$0:
	lea	ecx, DWORD PTR $T147665[ebp]
	jmp	??1locale@std@@QAE@XZ			; std::locale::~locale
__unwindfunclet$?do_put@?$num_put@DV?$ostreambuf_iterator@DU?$char_traits@D@std@@@std@@@std@@MBE?AV?$ostreambuf_iterator@DU?$char_traits@D@std@@@2@V32@AAVios_base@2@D_N@Z$1:
	lea	ecx, DWORD PTR __Str$139750[ebp]
	jmp	??1?$basic_string@DU?$char_traits@D@std@@V?$allocator@D@2@@std@@QAE@XZ ; std::basic_string<char,std::char_traits<char>,std::allocator<char> >::~basic_string<char,std::char_traits<char>,std::allocator<char> >
__unwindfunclet$?do_put@?$num_put@DV?$ostreambuf_iterator@DU?$char_traits@D@std@@@std@@@std@@MBE?AV?$ostreambuf_iterator@DU?$char_traits@D@std@@@2@V32@AAVios_base@2@D_N@Z$2:
	lea	ecx, DWORD PTR $T139807[ebp]
	jmp	??1?$basic_string@DU?$char_traits@D@std@@V?$allocator@D@2@@std@@QAE@XZ ; std::basic_string<char,std::char_traits<char>,std::allocator<char> >::~basic_string<char,std::char_traits<char>,std::allocator<char> >
__unwindfunclet$?do_put@?$num_put@DV?$ostreambuf_iterator@DU?$char_traits@D@std@@@std@@@std@@MBE?AV?$ostreambuf_iterator@DU?$char_traits@D@std@@@2@V32@AAVios_base@2@D_N@Z$3:
	lea	ecx, DWORD PTR $T139809[ebp]
	jmp	??1?$basic_string@DU?$char_traits@D@std@@V?$allocator@D@2@@std@@QAE@XZ ; std::basic_string<char,std::char_traits<char>,std::allocator<char> >::~basic_string<char,std::char_traits<char>,std::allocator<char> >
__ehhandler$?do_put@?$num_put@DV?$ostreambuf_iterator@DU?$char_traits@D@std@@@std@@@std@@MBE?AV?$ostreambuf_iterator@DU?$char_traits@D@std@@@2@V32@AAVios_base@2@D_N@Z:
	mov	edx, DWORD PTR [esp+8]
	lea	eax, DWORD PTR [edx+12]
	mov	ecx, DWORD PTR [edx-188]
	xor	ecx, eax
	call	@__security_check_cookie@4
	mov	ecx, DWORD PTR [edx-4]
	xor	ecx, eax
	call	@__security_check_cookie@4
	mov	eax, OFFSET __ehfuncinfo$?do_put@?$num_put@DV?$ostreambuf_iterator@DU?$char_traits@D@std@@@std@@@std@@MBE?AV?$ostreambuf_iterator@DU?$char_traits@D@std@@@2@V32@AAVios_base@2@D_N@Z
	jmp	___CxxFrameHandler3
text$x	ENDS
?do_put@?$num_put@DV?$ostreambuf_iterator@DU?$char_traits@D@std@@@std@@@std@@MBE?AV?$ostreambuf_iterator@DU?$char_traits@D@std@@@2@V32@AAVios_base@2@D_N@Z ENDP ; std::num_put<char,std::ostreambuf_iterator<char,std::char_traits<char> > >::do_put
; Function compile flags: /Odtp /RTCsu
; File c:\program files (x86)\microsoft visual studio 10.0\vc\include\xiosbase
;	COMDAT ?width@ios_base@std@@QBE_JXZ
_TEXT	SEGMENT
_this$ = -4						; size = 4
?width@ios_base@std@@QBE_JXZ PROC			; std::ios_base::width, COMDAT
; _this$ = ecx

; 439  : 		{	// return width

	push	ebp
	mov	ebp, esp
	push	ecx
	mov	DWORD PTR [ebp-4], -858993460		; ccccccccH
	mov	DWORD PTR _this$[ebp], ecx

; 440  : 		return (_Wide);

	mov	ecx, DWORD PTR _this$[ebp]
	mov	eax, DWORD PTR [ecx+32]
	mov	edx, DWORD PTR [ecx+36]

; 441  : 		}

	mov	esp, ebp
	pop	ebp
	ret	0
?width@ios_base@std@@QBE_JXZ ENDP			; std::ios_base::width
; Function compile flags: /Odtp /RTCsu
_TEXT	ENDS
;	COMDAT ?width@ios_base@std@@QAE_J_J@Z
_TEXT	SEGMENT
__Oldwidth$ = -12					; size = 8
_this$ = -4						; size = 4
__Newwidth$ = 8						; size = 8
?width@ios_base@std@@QAE_J_J@Z PROC			; std::ios_base::width, COMDAT
; _this$ = ecx

; 444  : 		{	// set width to argument

	push	ebp
	mov	ebp, esp
	sub	esp, 12					; 0000000cH
	mov	DWORD PTR [ebp-12], -858993460		; ccccccccH
	mov	DWORD PTR [ebp-8], -858993460		; ccccccccH
	mov	DWORD PTR [ebp-4], -858993460		; ccccccccH
	mov	DWORD PTR _this$[ebp], ecx

; 445  : 		streamsize _Oldwidth = _Wide;

	mov	eax, DWORD PTR _this$[ebp]
	mov	ecx, DWORD PTR [eax+32]
	mov	DWORD PTR __Oldwidth$[ebp], ecx
	mov	edx, DWORD PTR [eax+36]
	mov	DWORD PTR __Oldwidth$[ebp+4], edx

; 446  : 		_Wide = _Newwidth;

	mov	eax, DWORD PTR _this$[ebp]
	mov	ecx, DWORD PTR __Newwidth$[ebp]
	mov	DWORD PTR [eax+32], ecx
	mov	edx, DWORD PTR __Newwidth$[ebp+4]
	mov	DWORD PTR [eax+36], edx

; 447  : 		return (_Oldwidth);

	mov	eax, DWORD PTR __Oldwidth$[ebp]
	mov	edx, DWORD PTR __Oldwidth$[ebp+4]

; 448  : 		}

	mov	esp, ebp
	pop	ebp
	ret	8
?width@ios_base@std@@QAE_J_J@Z ENDP			; std::ios_base::width
_TEXT	ENDS
PUBLIC	?_Iput@?$num_put@DV?$ostreambuf_iterator@DU?$char_traits@D@std@@@std@@@std@@ABA?AV?$ostreambuf_iterator@DU?$char_traits@D@std@@@2@V32@AAVios_base@2@DPADI@Z ; std::num_put<char,std::ostreambuf_iterator<char,std::char_traits<char> > >::_Iput
PUBLIC	?_Ifmt@?$num_put@DV?$ostreambuf_iterator@DU?$char_traits@D@std@@@std@@@std@@ABAPADPADPBDH@Z ; std::num_put<char,std::ostreambuf_iterator<char,std::char_traits<char> > >::_Ifmt
PUBLIC	??_C@_02EAOCLKAK@ld?$AA@			; `string'
PUBLIC	__$ArrayPad$
EXTRN	_sprintf_s:PROC
;	COMDAT ??_C@_02EAOCLKAK@ld?$AA@
; File c:\program files (x86)\microsoft visual studio 10.0\vc\include\xlocnum
CONST	SEGMENT
??_C@_02EAOCLKAK@ld?$AA@ DB 'ld', 00H			; `string'
; Function compile flags: /Odtp /RTCsu
CONST	ENDS
;	COMDAT ?do_put@?$num_put@DV?$ostreambuf_iterator@DU?$char_traits@D@std@@@std@@@std@@MBE?AV?$ostreambuf_iterator@DU?$char_traits@D@std@@@2@V32@AAVios_base@2@DJ@Z
_TEXT	SEGMENT
__Fmt$ = -92						; size = 6
__Buf$ = -76						; size = 64
_this$ = -8						; size = 4
__$ArrayPad$ = -4					; size = 4
___$ReturnUdt$ = 8					; size = 4
__Dest$ = 12						; size = 8
__Iosbase$ = 20						; size = 4
__Fill$ = 24						; size = 1
__Val$ = 28						; size = 4
?do_put@?$num_put@DV?$ostreambuf_iterator@DU?$char_traits@D@std@@@std@@@std@@MBE?AV?$ostreambuf_iterator@DU?$char_traits@D@std@@@2@V32@AAVios_base@2@DJ@Z PROC ; std::num_put<char,std::ostreambuf_iterator<char,std::char_traits<char> > >::do_put, COMDAT
; _this$ = ecx

; 1173 : 		{	// put formatted long to _Dest

	push	ebp
	mov	ebp, esp
	sub	esp, 96					; 00000060H
	push	edi
	push	ecx
	lea	edi, DWORD PTR [ebp-96]
	mov	ecx, 24					; 00000018H
	mov	eax, -858993460				; ccccccccH
	rep stosd
	pop	ecx
	mov	eax, DWORD PTR ___security_cookie
	xor	eax, ebp
	mov	DWORD PTR __$ArrayPad$[ebp], eax
	mov	DWORD PTR _this$[ebp], ecx

; 1174 : 		char _Buf[2 * _MAX_INT_DIG], _Fmt[6];
; 1175 : 
; 1176 : 		return (_Iput(_Dest, _Iosbase, _Fill, _Buf,
; 1177 : 			_CSTD sprintf_s(_Buf, sizeof (_Buf), _Ifmt(_Fmt, "ld",
; 1178 : 				_Iosbase.flags()), _Val)));

	mov	eax, DWORD PTR __Val$[ebp]
	push	eax
	mov	ecx, DWORD PTR __Iosbase$[ebp]
	call	?flags@ios_base@std@@QBEHXZ		; std::ios_base::flags
	push	eax
	push	OFFSET ??_C@_02EAOCLKAK@ld?$AA@
	lea	ecx, DWORD PTR __Fmt$[ebp]
	push	ecx
	mov	edx, DWORD PTR _this$[ebp]
	push	edx
	call	?_Ifmt@?$num_put@DV?$ostreambuf_iterator@DU?$char_traits@D@std@@@std@@@std@@ABAPADPADPBDH@Z ; std::num_put<char,std::ostreambuf_iterator<char,std::char_traits<char> > >::_Ifmt
	add	esp, 16					; 00000010H
	push	eax
	push	64					; 00000040H
	lea	eax, DWORD PTR __Buf$[ebp]
	push	eax
	call	_sprintf_s
	add	esp, 16					; 00000010H
	push	eax
	lea	ecx, DWORD PTR __Buf$[ebp]
	push	ecx
	movzx	edx, BYTE PTR __Fill$[ebp]
	push	edx
	mov	eax, DWORD PTR __Iosbase$[ebp]
	push	eax
	mov	ecx, DWORD PTR __Dest$[ebp+4]
	push	ecx
	mov	edx, DWORD PTR __Dest$[ebp]
	push	edx
	mov	eax, DWORD PTR ___$ReturnUdt$[ebp]
	push	eax
	mov	ecx, DWORD PTR _this$[ebp]
	push	ecx
	call	?_Iput@?$num_put@DV?$ostreambuf_iterator@DU?$char_traits@D@std@@@std@@@std@@ABA?AV?$ostreambuf_iterator@DU?$char_traits@D@std@@@2@V32@AAVios_base@2@DPADI@Z ; std::num_put<char,std::ostreambuf_iterator<char,std::char_traits<char> > >::_Iput
	add	esp, 32					; 00000020H
	mov	eax, DWORD PTR ___$ReturnUdt$[ebp]

; 1179 : 		}

	push	edx
	mov	ecx, ebp
	push	eax
	lea	edx, DWORD PTR $LN6@do_put@2
	call	@_RTC_CheckStackVars@8
	pop	eax
	pop	edx
	pop	edi
	mov	ecx, DWORD PTR __$ArrayPad$[ebp]
	xor	ecx, ebp
	call	@__security_check_cookie@4
	add	esp, 96					; 00000060H
	cmp	ebp, esp
	call	__RTC_CheckEsp
	mov	esp, ebp
	pop	ebp
	ret	24					; 00000018H
	npad	1
$LN6@do_put@2:
	DD	2
	DD	$LN5@do_put@2
$LN5@do_put@2:
	DD	-76					; ffffffb4H
	DD	64					; 00000040H
	DD	$LN3@do_put@2
	DD	-92					; ffffffa4H
	DD	6
	DD	$LN4@do_put@2
$LN4@do_put@2:
	DB	95					; 0000005fH
	DB	70					; 00000046H
	DB	109					; 0000006dH
	DB	116					; 00000074H
	DB	0
$LN3@do_put@2:
	DB	95					; 0000005fH
	DB	66					; 00000042H
	DB	117					; 00000075H
	DB	102					; 00000066H
	DB	0
?do_put@?$num_put@DV?$ostreambuf_iterator@DU?$char_traits@D@std@@@std@@@std@@MBE?AV?$ostreambuf_iterator@DU?$char_traits@D@std@@@2@V32@AAVios_base@2@DJ@Z ENDP ; std::num_put<char,std::ostreambuf_iterator<char,std::char_traits<char> > >::do_put
_TEXT	ENDS
PUBLIC	??_C@_02BDDLJJBK@lu?$AA@			; `string'
PUBLIC	__$ArrayPad$
;	COMDAT ??_C@_02BDDLJJBK@lu?$AA@
CONST	SEGMENT
??_C@_02BDDLJJBK@lu?$AA@ DB 'lu', 00H			; `string'
; Function compile flags: /Odtp /RTCsu
CONST	ENDS
;	COMDAT ?do_put@?$num_put@DV?$ostreambuf_iterator@DU?$char_traits@D@std@@@std@@@std@@MBE?AV?$ostreambuf_iterator@DU?$char_traits@D@std@@@2@V32@AAVios_base@2@DK@Z
_TEXT	SEGMENT
__Fmt$ = -92						; size = 6
__Buf$ = -76						; size = 64
_this$ = -8						; size = 4
__$ArrayPad$ = -4					; size = 4
___$ReturnUdt$ = 8					; size = 4
__Dest$ = 12						; size = 8
__Iosbase$ = 20						; size = 4
__Fill$ = 24						; size = 1
__Val$ = 28						; size = 4
?do_put@?$num_put@DV?$ostreambuf_iterator@DU?$char_traits@D@std@@@std@@@std@@MBE?AV?$ostreambuf_iterator@DU?$char_traits@D@std@@@2@V32@AAVios_base@2@DK@Z PROC ; std::num_put<char,std::ostreambuf_iterator<char,std::char_traits<char> > >::do_put, COMDAT
; _this$ = ecx

; 1183 : 		{	// put formatted unsigned long to _Dest

	push	ebp
	mov	ebp, esp
	sub	esp, 96					; 00000060H
	push	edi
	push	ecx
	lea	edi, DWORD PTR [ebp-96]
	mov	ecx, 24					; 00000018H
	mov	eax, -858993460				; ccccccccH
	rep stosd
	pop	ecx
	mov	eax, DWORD PTR ___security_cookie
	xor	eax, ebp
	mov	DWORD PTR __$ArrayPad$[ebp], eax
	mov	DWORD PTR _this$[ebp], ecx

; 1184 : 		char _Buf[2 * _MAX_INT_DIG], _Fmt[6];
; 1185 : 
; 1186 : 		return (_Iput(_Dest, _Iosbase, _Fill, _Buf,
; 1187 : 			_CSTD sprintf_s(_Buf, sizeof (_Buf), _Ifmt(_Fmt, "lu",
; 1188 : 				_Iosbase.flags()), _Val)));

	mov	eax, DWORD PTR __Val$[ebp]
	push	eax
	mov	ecx, DWORD PTR __Iosbase$[ebp]
	call	?flags@ios_base@std@@QBEHXZ		; std::ios_base::flags
	push	eax
	push	OFFSET ??_C@_02BDDLJJBK@lu?$AA@
	lea	ecx, DWORD PTR __Fmt$[ebp]
	push	ecx
	mov	edx, DWORD PTR _this$[ebp]
	push	edx
	call	?_Ifmt@?$num_put@DV?$ostreambuf_iterator@DU?$char_traits@D@std@@@std@@@std@@ABAPADPADPBDH@Z ; std::num_put<char,std::ostreambuf_iterator<char,std::char_traits<char> > >::_Ifmt
	add	esp, 16					; 00000010H
	push	eax
	push	64					; 00000040H
	lea	eax, DWORD PTR __Buf$[ebp]
	push	eax
	call	_sprintf_s
	add	esp, 16					; 00000010H
	push	eax
	lea	ecx, DWORD PTR __Buf$[ebp]
	push	ecx
	movzx	edx, BYTE PTR __Fill$[ebp]
	push	edx
	mov	eax, DWORD PTR __Iosbase$[ebp]
	push	eax
	mov	ecx, DWORD PTR __Dest$[ebp+4]
	push	ecx
	mov	edx, DWORD PTR __Dest$[ebp]
	push	edx
	mov	eax, DWORD PTR ___$ReturnUdt$[ebp]
	push	eax
	mov	ecx, DWORD PTR _this$[ebp]
	push	ecx
	call	?_Iput@?$num_put@DV?$ostreambuf_iterator@DU?$char_traits@D@std@@@std@@@std@@ABA?AV?$ostreambuf_iterator@DU?$char_traits@D@std@@@2@V32@AAVios_base@2@DPADI@Z ; std::num_put<char,std::ostreambuf_iterator<char,std::char_traits<char> > >::_Iput
	add	esp, 32					; 00000020H
	mov	eax, DWORD PTR ___$ReturnUdt$[ebp]

; 1189 : 		}

	push	edx
	mov	ecx, ebp
	push	eax
	lea	edx, DWORD PTR $LN6@do_put@3
	call	@_RTC_CheckStackVars@8
	pop	eax
	pop	edx
	pop	edi
	mov	ecx, DWORD PTR __$ArrayPad$[ebp]
	xor	ecx, ebp
	call	@__security_check_cookie@4
	add	esp, 96					; 00000060H
	cmp	ebp, esp
	call	__RTC_CheckEsp
	mov	esp, ebp
	pop	ebp
	ret	24					; 00000018H
	npad	1
$LN6@do_put@3:
	DD	2
	DD	$LN5@do_put@3
$LN5@do_put@3:
	DD	-76					; ffffffb4H
	DD	64					; 00000040H
	DD	$LN3@do_put@3
	DD	-92					; ffffffa4H
	DD	6
	DD	$LN4@do_put@3
$LN4@do_put@3:
	DB	95					; 0000005fH
	DB	70					; 00000046H
	DB	109					; 0000006dH
	DB	116					; 00000074H
	DB	0
$LN3@do_put@3:
	DB	95					; 0000005fH
	DB	66					; 00000042H
	DB	117					; 00000075H
	DB	102					; 00000066H
	DB	0
?do_put@?$num_put@DV?$ostreambuf_iterator@DU?$char_traits@D@std@@@std@@@std@@MBE?AV?$ostreambuf_iterator@DU?$char_traits@D@std@@@2@V32@AAVios_base@2@DK@Z ENDP ; std::num_put<char,std::ostreambuf_iterator<char,std::char_traits<char> > >::do_put
_TEXT	ENDS
PUBLIC	??_C@_02HIKPPMOK@Ld?$AA@			; `string'
PUBLIC	__$ArrayPad$
;	COMDAT ??_C@_02HIKPPMOK@Ld?$AA@
CONST	SEGMENT
??_C@_02HIKPPMOK@Ld?$AA@ DB 'Ld', 00H			; `string'
; Function compile flags: /Odtp /RTCsu
CONST	ENDS
;	COMDAT ?do_put@?$num_put@DV?$ostreambuf_iterator@DU?$char_traits@D@std@@@std@@@std@@MBE?AV?$ostreambuf_iterator@DU?$char_traits@D@std@@@2@V32@AAVios_base@2@D_J@Z
_TEXT	SEGMENT
__Fmt$ = -92						; size = 8
__Buf$ = -76						; size = 64
_this$ = -8						; size = 4
__$ArrayPad$ = -4					; size = 4
___$ReturnUdt$ = 8					; size = 4
__Dest$ = 12						; size = 8
__Iosbase$ = 20						; size = 4
__Fill$ = 24						; size = 1
__Val$ = 28						; size = 8
?do_put@?$num_put@DV?$ostreambuf_iterator@DU?$char_traits@D@std@@@std@@@std@@MBE?AV?$ostreambuf_iterator@DU?$char_traits@D@std@@@2@V32@AAVios_base@2@D_J@Z PROC ; std::num_put<char,std::ostreambuf_iterator<char,std::char_traits<char> > >::do_put, COMDAT
; _this$ = ecx

; 1194 : 		{	// put formatted long long to _Dest

	push	ebp
	mov	ebp, esp
	sub	esp, 96					; 00000060H
	push	edi
	push	ecx
	lea	edi, DWORD PTR [ebp-96]
	mov	ecx, 24					; 00000018H
	mov	eax, -858993460				; ccccccccH
	rep stosd
	pop	ecx
	mov	eax, DWORD PTR ___security_cookie
	xor	eax, ebp
	mov	DWORD PTR __$ArrayPad$[ebp], eax
	mov	DWORD PTR _this$[ebp], ecx

; 1195 : 		char _Buf[2 * _MAX_INT_DIG], _Fmt[8];
; 1196 : 
; 1197 : 		return (_Iput(_Dest, _Iosbase, _Fill, _Buf,
; 1198 : 			_CSTD sprintf_s(_Buf, sizeof (_Buf), _Ifmt(_Fmt, "Ld",
; 1199 : 				_Iosbase.flags()), _Val)));

	mov	eax, DWORD PTR __Val$[ebp+4]
	push	eax
	mov	ecx, DWORD PTR __Val$[ebp]
	push	ecx
	mov	ecx, DWORD PTR __Iosbase$[ebp]
	call	?flags@ios_base@std@@QBEHXZ		; std::ios_base::flags
	push	eax
	push	OFFSET ??_C@_02HIKPPMOK@Ld?$AA@
	lea	edx, DWORD PTR __Fmt$[ebp]
	push	edx
	mov	eax, DWORD PTR _this$[ebp]
	push	eax
	call	?_Ifmt@?$num_put@DV?$ostreambuf_iterator@DU?$char_traits@D@std@@@std@@@std@@ABAPADPADPBDH@Z ; std::num_put<char,std::ostreambuf_iterator<char,std::char_traits<char> > >::_Ifmt
	add	esp, 16					; 00000010H
	push	eax
	push	64					; 00000040H
	lea	ecx, DWORD PTR __Buf$[ebp]
	push	ecx
	call	_sprintf_s
	add	esp, 20					; 00000014H
	push	eax
	lea	edx, DWORD PTR __Buf$[ebp]
	push	edx
	movzx	eax, BYTE PTR __Fill$[ebp]
	push	eax
	mov	ecx, DWORD PTR __Iosbase$[ebp]
	push	ecx
	mov	edx, DWORD PTR __Dest$[ebp+4]
	push	edx
	mov	eax, DWORD PTR __Dest$[ebp]
	push	eax
	mov	ecx, DWORD PTR ___$ReturnUdt$[ebp]
	push	ecx
	mov	edx, DWORD PTR _this$[ebp]
	push	edx
	call	?_Iput@?$num_put@DV?$ostreambuf_iterator@DU?$char_traits@D@std@@@std@@@std@@ABA?AV?$ostreambuf_iterator@DU?$char_traits@D@std@@@2@V32@AAVios_base@2@DPADI@Z ; std::num_put<char,std::ostreambuf_iterator<char,std::char_traits<char> > >::_Iput
	add	esp, 32					; 00000020H
	mov	eax, DWORD PTR ___$ReturnUdt$[ebp]

; 1200 : 		}

	push	edx
	mov	ecx, ebp
	push	eax
	lea	edx, DWORD PTR $LN6@do_put@4
	call	@_RTC_CheckStackVars@8
	pop	eax
	pop	edx
	pop	edi
	mov	ecx, DWORD PTR __$ArrayPad$[ebp]
	xor	ecx, ebp
	call	@__security_check_cookie@4
	add	esp, 96					; 00000060H
	cmp	ebp, esp
	call	__RTC_CheckEsp
	mov	esp, ebp
	pop	ebp
	ret	28					; 0000001cH
	npad	1
$LN6@do_put@4:
	DD	2
	DD	$LN5@do_put@4
$LN5@do_put@4:
	DD	-76					; ffffffb4H
	DD	64					; 00000040H
	DD	$LN3@do_put@4
	DD	-92					; ffffffa4H
	DD	8
	DD	$LN4@do_put@4
$LN4@do_put@4:
	DB	95					; 0000005fH
	DB	70					; 00000046H
	DB	109					; 0000006dH
	DB	116					; 00000074H
	DB	0
$LN3@do_put@4:
	DB	95					; 0000005fH
	DB	66					; 00000042H
	DB	117					; 00000075H
	DB	102					; 00000066H
	DB	0
?do_put@?$num_put@DV?$ostreambuf_iterator@DU?$char_traits@D@std@@@std@@@std@@MBE?AV?$ostreambuf_iterator@DU?$char_traits@D@std@@@2@V32@AAVios_base@2@D_J@Z ENDP ; std::num_put<char,std::ostreambuf_iterator<char,std::char_traits<char> > >::do_put
_TEXT	ENDS
PUBLIC	??_C@_02CLHGNPPK@Lu?$AA@			; `string'
PUBLIC	__$ArrayPad$
;	COMDAT ??_C@_02CLHGNPPK@Lu?$AA@
CONST	SEGMENT
??_C@_02CLHGNPPK@Lu?$AA@ DB 'Lu', 00H			; `string'
; Function compile flags: /Odtp /RTCsu
CONST	ENDS
;	COMDAT ?do_put@?$num_put@DV?$ostreambuf_iterator@DU?$char_traits@D@std@@@std@@@std@@MBE?AV?$ostreambuf_iterator@DU?$char_traits@D@std@@@2@V32@AAVios_base@2@D_K@Z
_TEXT	SEGMENT
__Fmt$ = -92						; size = 8
__Buf$ = -76						; size = 64
_this$ = -8						; size = 4
__$ArrayPad$ = -4					; size = 4
___$ReturnUdt$ = 8					; size = 4
__Dest$ = 12						; size = 8
__Iosbase$ = 20						; size = 4
__Fill$ = 24						; size = 1
__Val$ = 28						; size = 8
?do_put@?$num_put@DV?$ostreambuf_iterator@DU?$char_traits@D@std@@@std@@@std@@MBE?AV?$ostreambuf_iterator@DU?$char_traits@D@std@@@2@V32@AAVios_base@2@D_K@Z PROC ; std::num_put<char,std::ostreambuf_iterator<char,std::char_traits<char> > >::do_put, COMDAT
; _this$ = ecx

; 1204 : 		{	// put formatted unsigned long long to _Dest

	push	ebp
	mov	ebp, esp
	sub	esp, 96					; 00000060H
	push	edi
	push	ecx
	lea	edi, DWORD PTR [ebp-96]
	mov	ecx, 24					; 00000018H
	mov	eax, -858993460				; ccccccccH
	rep stosd
	pop	ecx
	mov	eax, DWORD PTR ___security_cookie
	xor	eax, ebp
	mov	DWORD PTR __$ArrayPad$[ebp], eax
	mov	DWORD PTR _this$[ebp], ecx

; 1205 : 		char _Buf[2 * _MAX_INT_DIG], _Fmt[8];
; 1206 : 
; 1207 : 		return (_Iput(_Dest, _Iosbase, _Fill, _Buf,
; 1208 : 			_CSTD sprintf_s(_Buf, sizeof (_Buf), _Ifmt(_Fmt, "Lu",
; 1209 : 				_Iosbase.flags()), _Val)));

	mov	eax, DWORD PTR __Val$[ebp+4]
	push	eax
	mov	ecx, DWORD PTR __Val$[ebp]
	push	ecx
	mov	ecx, DWORD PTR __Iosbase$[ebp]
	call	?flags@ios_base@std@@QBEHXZ		; std::ios_base::flags
	push	eax
	push	OFFSET ??_C@_02CLHGNPPK@Lu?$AA@
	lea	edx, DWORD PTR __Fmt$[ebp]
	push	edx
	mov	eax, DWORD PTR _this$[ebp]
	push	eax
	call	?_Ifmt@?$num_put@DV?$ostreambuf_iterator@DU?$char_traits@D@std@@@std@@@std@@ABAPADPADPBDH@Z ; std::num_put<char,std::ostreambuf_iterator<char,std::char_traits<char> > >::_Ifmt
	add	esp, 16					; 00000010H
	push	eax
	push	64					; 00000040H
	lea	ecx, DWORD PTR __Buf$[ebp]
	push	ecx
	call	_sprintf_s
	add	esp, 20					; 00000014H
	push	eax
	lea	edx, DWORD PTR __Buf$[ebp]
	push	edx
	movzx	eax, BYTE PTR __Fill$[ebp]
	push	eax
	mov	ecx, DWORD PTR __Iosbase$[ebp]
	push	ecx
	mov	edx, DWORD PTR __Dest$[ebp+4]
	push	edx
	mov	eax, DWORD PTR __Dest$[ebp]
	push	eax
	mov	ecx, DWORD PTR ___$ReturnUdt$[ebp]
	push	ecx
	mov	edx, DWORD PTR _this$[ebp]
	push	edx
	call	?_Iput@?$num_put@DV?$ostreambuf_iterator@DU?$char_traits@D@std@@@std@@@std@@ABA?AV?$ostreambuf_iterator@DU?$char_traits@D@std@@@2@V32@AAVios_base@2@DPADI@Z ; std::num_put<char,std::ostreambuf_iterator<char,std::char_traits<char> > >::_Iput
	add	esp, 32					; 00000020H
	mov	eax, DWORD PTR ___$ReturnUdt$[ebp]

; 1210 : 		}

	push	edx
	mov	ecx, ebp
	push	eax
	lea	edx, DWORD PTR $LN6@do_put@5
	call	@_RTC_CheckStackVars@8
	pop	eax
	pop	edx
	pop	edi
	mov	ecx, DWORD PTR __$ArrayPad$[ebp]
	xor	ecx, ebp
	call	@__security_check_cookie@4
	add	esp, 96					; 00000060H
	cmp	ebp, esp
	call	__RTC_CheckEsp
	mov	esp, ebp
	pop	ebp
	ret	28					; 0000001cH
	npad	1
$LN6@do_put@5:
	DD	2
	DD	$LN5@do_put@5
$LN5@do_put@5:
	DD	-76					; ffffffb4H
	DD	64					; 00000040H
	DD	$LN3@do_put@5
	DD	-92					; ffffffa4H
	DD	8
	DD	$LN4@do_put@5
$LN4@do_put@5:
	DB	95					; 0000005fH
	DB	70					; 00000046H
	DB	109					; 0000006dH
	DB	116					; 00000074H
	DB	0
$LN3@do_put@5:
	DB	95					; 0000005fH
	DB	66					; 00000042H
	DB	117					; 00000075H
	DB	102					; 00000066H
	DB	0
?do_put@?$num_put@DV?$ostreambuf_iterator@DU?$char_traits@D@std@@@std@@@std@@MBE?AV?$ostreambuf_iterator@DU?$char_traits@D@std@@@2@V32@AAVios_base@2@D_K@Z ENDP ; std::num_put<char,std::ostreambuf_iterator<char,std::char_traits<char> > >::do_put
_TEXT	ENDS
PUBLIC	?_Fput@?$num_put@DV?$ostreambuf_iterator@DU?$char_traits@D@std@@@std@@@std@@ABA?AV?$ostreambuf_iterator@DU?$char_traits@D@std@@@2@V32@AAVios_base@2@DPBDIIII@Z ; std::num_put<char,std::ostreambuf_iterator<char,std::char_traits<char> > >::_Fput
PUBLIC	?_Ffmt@?$num_put@DV?$ostreambuf_iterator@DU?$char_traits@D@std@@@std@@@std@@ABAPADPADDH@Z ; std::num_put<char,std::ostreambuf_iterator<char,std::char_traits<char> > >::_Ffmt
PUBLIC	__real@38aa95a5b7f87a0f
PUBLIC	__real@4202a05f20000000
PUBLIC	__real@4733426172c74d82
PUBLIC	__real@3fe0000000000000
PUBLIC	?precision@ios_base@std@@QBE_JXZ		; std::ios_base::precision
PUBLIC	__$ArrayPad$
;	COMDAT __real@38aa95a5b7f87a0f
CONST	SEGMENT
__real@38aa95a5b7f87a0f DQ 038aa95a5b7f87a0fr	; 1e-035
CONST	ENDS
;	COMDAT __real@4202a05f20000000
CONST	SEGMENT
__real@4202a05f20000000 DQ 04202a05f20000000r	; 1e+010
CONST	ENDS
;	COMDAT __real@4733426172c74d82
CONST	SEGMENT
__real@4733426172c74d82 DQ 04733426172c74d82r	; 1e+035
CONST	ENDS
;	COMDAT __real@3fe0000000000000
CONST	SEGMENT
__real@3fe0000000000000 DQ 03fe0000000000000r	; 0.5
; Function compile flags: /Odtp /RTCsu
CONST	ENDS
;	COMDAT ?do_put@?$num_put@DV?$ostreambuf_iterator@DU?$char_traits@D@std@@@std@@@std@@MBE?AV?$ostreambuf_iterator@DU?$char_traits@D@std@@@2@V32@AAVios_base@2@DN@Z
_TEXT	SEGMENT
tv86 = -188						; size = 4
tv76 = -184						; size = 4
tv73 = -180						; size = 8
tv166 = -172						; size = 8
__Signed$139856 = -161					; size = 1
__Afterpoint$ = -160					; size = 4
__Beforepoint$ = -156					; size = 4
__Significance$ = -152					; size = 4
__Precision$ = -148					; size = 8
__Fmt$ = -136						; size = 8
__Buf$ = -120						; size = 108
_this$ = -8						; size = 4
__$ArrayPad$ = -4					; size = 4
___$ReturnUdt$ = 8					; size = 4
__Dest$ = 12						; size = 8
__Iosbase$ = 20						; size = 4
__Fill$ = 24						; size = 1
__Val$ = 28						; size = 8
?do_put@?$num_put@DV?$ostreambuf_iterator@DU?$char_traits@D@std@@@std@@@std@@MBE?AV?$ostreambuf_iterator@DU?$char_traits@D@std@@@2@V32@AAVios_base@2@DN@Z PROC ; std::num_put<char,std::ostreambuf_iterator<char,std::char_traits<char> > >::do_put, COMDAT
; _this$ = ecx

; 1215 : 		{	// put formatted double to _Dest

	push	ebp
	mov	ebp, esp
	sub	esp, 188				; 000000bcH
	push	edi
	push	ecx
	lea	edi, DWORD PTR [ebp-188]
	mov	ecx, 47					; 0000002fH
	mov	eax, -858993460				; ccccccccH
	rep stosd
	pop	ecx
	mov	eax, DWORD PTR ___security_cookie
	xor	eax, ebp
	mov	DWORD PTR __$ArrayPad$[ebp], eax
	mov	DWORD PTR _this$[ebp], ecx

; 1216 : 		char _Buf[_MAX_EXP_DIG + _MAX_SIG_DIG + 64], _Fmt[8];
; 1217 : 		streamsize _Precision = _Iosbase.precision() <= 0
; 1218 : 			&& !(_Iosbase.flags() & ios_base::fixed)
; 1219 : 				? 6 : _Iosbase.precision();	// desired precision

	mov	ecx, DWORD PTR __Iosbase$[ebp]
	call	?precision@ios_base@std@@QBE_JXZ	; std::ios_base::precision
	mov	DWORD PTR tv166[ebp], eax
	mov	DWORD PTR tv166[ebp+4], edx
	cmp	DWORD PTR tv166[ebp+4], 0
	jg	SHORT $LN13@do_put@6
	jl	SHORT $LN19@do_put@6
	cmp	DWORD PTR tv166[ebp], 0
	ja	SHORT $LN13@do_put@6
$LN19@do_put@6:
	mov	ecx, DWORD PTR __Iosbase$[ebp]
	call	?flags@ios_base@std@@QBEHXZ		; std::ios_base::flags
	and	eax, 8192				; 00002000H
	jne	SHORT $LN13@do_put@6
	mov	DWORD PTR tv73[ebp], 6
	mov	DWORD PTR tv73[ebp+4], 0
	jmp	SHORT $LN14@do_put@6
$LN13@do_put@6:
	mov	ecx, DWORD PTR __Iosbase$[ebp]
	call	?precision@ios_base@std@@QBE_JXZ	; std::ios_base::precision
	mov	DWORD PTR tv73[ebp], eax
	mov	DWORD PTR tv73[ebp+4], edx
$LN14@do_put@6:
	mov	eax, DWORD PTR tv73[ebp]
	mov	DWORD PTR __Precision$[ebp], eax
	mov	ecx, DWORD PTR tv73[ebp+4]
	mov	DWORD PTR __Precision$[ebp+4], ecx

; 1220 : 		int _Significance = _MAX_SIG_DIG < _Precision
; 1221 : 			? _MAX_SIG_DIG : (int)_Precision;	// actual sprintf precision

	cmp	DWORD PTR __Precision$[ebp+4], 0
	jl	SHORT $LN15@do_put@6
	jg	SHORT $LN20@do_put@6
	cmp	DWORD PTR __Precision$[ebp], 36		; 00000024H
	jbe	SHORT $LN15@do_put@6
$LN20@do_put@6:
	mov	DWORD PTR tv76[ebp], 36			; 00000024H
	jmp	SHORT $LN16@do_put@6
$LN15@do_put@6:
	mov	edx, DWORD PTR __Precision$[ebp]
	mov	DWORD PTR tv76[ebp], edx
$LN16@do_put@6:
	mov	eax, DWORD PTR tv76[ebp]
	mov	DWORD PTR __Significance$[ebp], eax

; 1222 : 		_Precision -= _Significance;

	mov	eax, DWORD PTR __Significance$[ebp]
	cdq
	mov	ecx, DWORD PTR __Precision$[ebp]
	sub	ecx, eax
	mov	eax, DWORD PTR __Precision$[ebp+4]
	sbb	eax, edx
	mov	DWORD PTR __Precision$[ebp], ecx
	mov	DWORD PTR __Precision$[ebp+4], eax

; 1223 : 		size_t _Beforepoint = 0;	// zeros to add before decimal point

	mov	DWORD PTR __Beforepoint$[ebp], 0

; 1224 : 		size_t _Afterpoint = 0;	// zeros to add after decimal point

	mov	DWORD PTR __Afterpoint$[ebp], 0

; 1225 : 
; 1226 : 		if ((_Iosbase.flags() & ios_base::floatfield) == ios_base::fixed
; 1227 : 			&& _Val * 0.5 != _Val)	// skip -Inf, 0, Inf

	mov	ecx, DWORD PTR __Iosbase$[ebp]
	call	?flags@ios_base@std@@QBEHXZ		; std::ios_base::flags
	and	eax, 12288				; 00003000H
	cmp	eax, 8192				; 00002000H
	jne	$LN1@do_put@6
	fld	QWORD PTR __Val$[ebp]
	fmul	QWORD PTR __real@3fe0000000000000
	fld	QWORD PTR __Val$[ebp]
	fucompp
	fnstsw	ax
	test	ah, 68					; 00000044H
	jnp	$LN1@do_put@6

; 1228 : 			{	// scale silly fixed-point value
; 1229 : 			bool _Signed = _Val < 0;

	fldz
	fcomp	QWORD PTR __Val$[ebp]
	fnstsw	ax
	test	ah, 65					; 00000041H
	jne	SHORT $LN17@do_put@6
	mov	DWORD PTR tv86[ebp], 1
	jmp	SHORT $LN18@do_put@6
$LN17@do_put@6:
	mov	DWORD PTR tv86[ebp], 0
$LN18@do_put@6:
	mov	cl, BYTE PTR tv86[ebp]
	mov	BYTE PTR __Signed$139856[ebp], cl

; 1230 : 			if (_Signed)

	movzx	edx, BYTE PTR __Signed$139856[ebp]
	test	edx, edx
	je	SHORT $LN9@do_put@6

; 1231 : 				_Val = -_Val;

	fld	QWORD PTR __Val$[ebp]
	fchs
	fstp	QWORD PTR __Val$[ebp]
$LN9@do_put@6:

; 1232 : 
; 1233 : 			for (; 1e35 <= _Val && _Beforepoint < 5000; _Beforepoint += 10)

	jmp	SHORT $LN8@do_put@6
$LN7@do_put@6:
	mov	eax, DWORD PTR __Beforepoint$[ebp]
	add	eax, 10					; 0000000aH
	mov	DWORD PTR __Beforepoint$[ebp], eax
$LN8@do_put@6:
	fld	QWORD PTR __Val$[ebp]
	fcomp	QWORD PTR __real@4733426172c74d82
	fnstsw	ax
	test	ah, 1
	jne	SHORT $LN6@do_put@6
	cmp	DWORD PTR __Beforepoint$[ebp], 5000	; 00001388H
	jae	SHORT $LN6@do_put@6

; 1234 : 				_Val /= 1e10;	// drop 10 zeros before decimal point

	fld	QWORD PTR __Val$[ebp]
	fdiv	QWORD PTR __real@4202a05f20000000
	fstp	QWORD PTR __Val$[ebp]
	jmp	SHORT $LN7@do_put@6
$LN6@do_put@6:

; 1235 : 
; 1236 : 			if (0 < _Val)

	fld	QWORD PTR __Val$[ebp]
	fcomp	QWORD PTR __real@0000000000000000
	fnstsw	ax
	test	ah, 65					; 00000041H
	jne	SHORT $LN2@do_put@6

; 1237 : 				for (; 10 <= _Precision && _Val <= 1e-35
; 1238 : 					&& _Afterpoint < 5000; _Afterpoint += 10)

	jmp	SHORT $LN4@do_put@6
$LN3@do_put@6:
	mov	ecx, DWORD PTR __Afterpoint$[ebp]
	add	ecx, 10					; 0000000aH
	mov	DWORD PTR __Afterpoint$[ebp], ecx
$LN4@do_put@6:
	cmp	DWORD PTR __Precision$[ebp+4], 0
	jl	SHORT $LN2@do_put@6
	jg	SHORT $LN21@do_put@6
	cmp	DWORD PTR __Precision$[ebp], 10		; 0000000aH
	jb	SHORT $LN2@do_put@6
$LN21@do_put@6:
	fld	QWORD PTR __real@38aa95a5b7f87a0f
	fcomp	QWORD PTR __Val$[ebp]
	fnstsw	ax
	test	ah, 1
	jne	SHORT $LN2@do_put@6
	cmp	DWORD PTR __Afterpoint$[ebp], 5000	; 00001388H
	jae	SHORT $LN2@do_put@6

; 1239 : 					{	// drop 10 zeros after decimal point
; 1240 : 					_Val *= 1e10;

	fld	QWORD PTR __Val$[ebp]
	fmul	QWORD PTR __real@4202a05f20000000
	fstp	QWORD PTR __Val$[ebp]

; 1241 : 					_Precision -= 10;

	mov	edx, DWORD PTR __Precision$[ebp]
	sub	edx, 10					; 0000000aH
	mov	eax, DWORD PTR __Precision$[ebp+4]
	sbb	eax, 0
	mov	DWORD PTR __Precision$[ebp], edx
	mov	DWORD PTR __Precision$[ebp+4], eax

; 1242 : 					}

	jmp	SHORT $LN3@do_put@6
$LN2@do_put@6:

; 1243 : 
; 1244 : 			if (_Signed)

	movzx	ecx, BYTE PTR __Signed$139856[ebp]
	test	ecx, ecx
	je	SHORT $LN1@do_put@6

; 1245 : 				_Val = -_Val;

	fld	QWORD PTR __Val$[ebp]
	fchs
	fstp	QWORD PTR __Val$[ebp]
$LN1@do_put@6:

; 1246 : 			}
; 1247 : 
; 1248 : 		return (_Fput(_Dest, _Iosbase, _Fill, _Buf,
; 1249 : 			_Beforepoint, _Afterpoint, (size_t)_Precision,
; 1250 : 				_CSTD sprintf_s(_Buf, sizeof (_Buf),
; 1251 : 					_Ffmt(_Fmt, 0, _Iosbase.flags()),
; 1252 : 					_Significance, _Val)));	// convert and put

	sub	esp, 8
	fld	QWORD PTR __Val$[ebp]
	fstp	QWORD PTR [esp]
	mov	edx, DWORD PTR __Significance$[ebp]
	push	edx
	mov	ecx, DWORD PTR __Iosbase$[ebp]
	call	?flags@ios_base@std@@QBEHXZ		; std::ios_base::flags
	push	eax
	push	0
	lea	eax, DWORD PTR __Fmt$[ebp]
	push	eax
	mov	ecx, DWORD PTR _this$[ebp]
	push	ecx
	call	?_Ffmt@?$num_put@DV?$ostreambuf_iterator@DU?$char_traits@D@std@@@std@@@std@@ABAPADPADDH@Z ; std::num_put<char,std::ostreambuf_iterator<char,std::char_traits<char> > >::_Ffmt
	add	esp, 16					; 00000010H
	push	eax
	push	108					; 0000006cH
	lea	edx, DWORD PTR __Buf$[ebp]
	push	edx
	call	_sprintf_s
	add	esp, 24					; 00000018H
	push	eax
	mov	eax, DWORD PTR __Precision$[ebp]
	push	eax
	mov	ecx, DWORD PTR __Afterpoint$[ebp]
	push	ecx
	mov	edx, DWORD PTR __Beforepoint$[ebp]
	push	edx
	lea	eax, DWORD PTR __Buf$[ebp]
	push	eax
	movzx	ecx, BYTE PTR __Fill$[ebp]
	push	ecx
	mov	edx, DWORD PTR __Iosbase$[ebp]
	push	edx
	mov	eax, DWORD PTR __Dest$[ebp+4]
	push	eax
	mov	ecx, DWORD PTR __Dest$[ebp]
	push	ecx
	mov	edx, DWORD PTR ___$ReturnUdt$[ebp]
	push	edx
	mov	eax, DWORD PTR _this$[ebp]
	push	eax
	call	?_Fput@?$num_put@DV?$ostreambuf_iterator@DU?$char_traits@D@std@@@std@@@std@@ABA?AV?$ostreambuf_iterator@DU?$char_traits@D@std@@@2@V32@AAVios_base@2@DPBDIIII@Z ; std::num_put<char,std::ostreambuf_iterator<char,std::char_traits<char> > >::_Fput
	add	esp, 44					; 0000002cH
	mov	eax, DWORD PTR ___$ReturnUdt$[ebp]

; 1253 : 		}

	push	edx
	mov	ecx, ebp
	push	eax
	lea	edx, DWORD PTR $LN25@do_put@6
	call	@_RTC_CheckStackVars@8
	pop	eax
	pop	edx
	pop	edi
	mov	ecx, DWORD PTR __$ArrayPad$[ebp]
	xor	ecx, ebp
	call	@__security_check_cookie@4
	add	esp, 188				; 000000bcH
	cmp	ebp, esp
	call	__RTC_CheckEsp
	mov	esp, ebp
	pop	ebp
	ret	28					; 0000001cH
	npad	2
$LN25@do_put@6:
	DD	2
	DD	$LN24@do_put@6
$LN24@do_put@6:
	DD	-120					; ffffff88H
	DD	108					; 0000006cH
	DD	$LN22@do_put@6
	DD	-136					; ffffff78H
	DD	8
	DD	$LN23@do_put@6
$LN23@do_put@6:
	DB	95					; 0000005fH
	DB	70					; 00000046H
	DB	109					; 0000006dH
	DB	116					; 00000074H
	DB	0
$LN22@do_put@6:
	DB	95					; 0000005fH
	DB	66					; 00000042H
	DB	117					; 00000075H
	DB	102					; 00000066H
	DB	0
?do_put@?$num_put@DV?$ostreambuf_iterator@DU?$char_traits@D@std@@@std@@@std@@MBE?AV?$ostreambuf_iterator@DU?$char_traits@D@std@@@2@V32@AAVios_base@2@DN@Z ENDP ; std::num_put<char,std::ostreambuf_iterator<char,std::char_traits<char> > >::do_put
; Function compile flags: /Odtp /RTCsu
; File c:\program files (x86)\microsoft visual studio 10.0\vc\include\xiosbase
_TEXT	ENDS
;	COMDAT ?precision@ios_base@std@@QBE_JXZ
_TEXT	SEGMENT
_this$ = -4						; size = 4
?precision@ios_base@std@@QBE_JXZ PROC			; std::ios_base::precision, COMDAT
; _this$ = ecx

; 427  : 		{	// return precision

	push	ebp
	mov	ebp, esp
	push	ecx
	mov	DWORD PTR [ebp-4], -858993460		; ccccccccH
	mov	DWORD PTR _this$[ebp], ecx

; 428  : 		return (_Prec);

	mov	ecx, DWORD PTR _this$[ebp]
	mov	eax, DWORD PTR [ecx+24]
	mov	edx, DWORD PTR [ecx+28]

; 429  : 		}

	mov	esp, ebp
	pop	ebp
	ret	0
?precision@ios_base@std@@QBE_JXZ ENDP			; std::ios_base::precision
_TEXT	ENDS
PUBLIC	__$ArrayPad$
; Function compile flags: /Odtp /RTCsu
; File c:\program files (x86)\microsoft visual studio 10.0\vc\include\xlocnum
;	COMDAT ?do_put@?$num_put@DV?$ostreambuf_iterator@DU?$char_traits@D@std@@@std@@@std@@MBE?AV?$ostreambuf_iterator@DU?$char_traits@D@std@@@2@V32@AAVios_base@2@DO@Z
_TEXT	SEGMENT
tv84 = -188						; size = 4
tv76 = -184						; size = 4
tv73 = -180						; size = 8
tv164 = -172						; size = 8
__Signed$139879 = -161					; size = 1
__Afterpoint$ = -160					; size = 4
__Beforepoint$ = -156					; size = 4
__Significance$ = -152					; size = 4
__Precision$ = -148					; size = 8
__Fmt$ = -136						; size = 8
__Buf$ = -120						; size = 108
_this$ = -8						; size = 4
__$ArrayPad$ = -4					; size = 4
___$ReturnUdt$ = 8					; size = 4
__Dest$ = 12						; size = 8
__Iosbase$ = 20						; size = 4
__Fill$ = 24						; size = 1
__Val$ = 28						; size = 8
?do_put@?$num_put@DV?$ostreambuf_iterator@DU?$char_traits@D@std@@@std@@@std@@MBE?AV?$ostreambuf_iterator@DU?$char_traits@D@std@@@2@V32@AAVios_base@2@DO@Z PROC ; std::num_put<char,std::ostreambuf_iterator<char,std::char_traits<char> > >::do_put, COMDAT
; _this$ = ecx

; 1257 : 		{	// put formatted long double to _Dest

	push	ebp
	mov	ebp, esp
	sub	esp, 188				; 000000bcH
	push	edi
	push	ecx
	lea	edi, DWORD PTR [ebp-188]
	mov	ecx, 47					; 0000002fH
	mov	eax, -858993460				; ccccccccH
	rep stosd
	pop	ecx
	mov	eax, DWORD PTR ___security_cookie
	xor	eax, ebp
	mov	DWORD PTR __$ArrayPad$[ebp], eax
	mov	DWORD PTR _this$[ebp], ecx

; 1258 : 		char _Buf[_MAX_EXP_DIG + _MAX_SIG_DIG + 64], _Fmt[8];
; 1259 : 		streamsize _Precision = _Iosbase.precision() <= 0
; 1260 : 			&& !(_Iosbase.flags() & ios_base::fixed)
; 1261 : 				? 6 : _Iosbase.precision();	// desired precision

	mov	ecx, DWORD PTR __Iosbase$[ebp]
	call	?precision@ios_base@std@@QBE_JXZ	; std::ios_base::precision
	mov	DWORD PTR tv164[ebp], eax
	mov	DWORD PTR tv164[ebp+4], edx
	cmp	DWORD PTR tv164[ebp+4], 0
	jg	SHORT $LN13@do_put@7
	jl	SHORT $LN19@do_put@7
	cmp	DWORD PTR tv164[ebp], 0
	ja	SHORT $LN13@do_put@7
$LN19@do_put@7:
	mov	ecx, DWORD PTR __Iosbase$[ebp]
	call	?flags@ios_base@std@@QBEHXZ		; std::ios_base::flags
	and	eax, 8192				; 00002000H
	jne	SHORT $LN13@do_put@7
	mov	DWORD PTR tv73[ebp], 6
	mov	DWORD PTR tv73[ebp+4], 0
	jmp	SHORT $LN14@do_put@7
$LN13@do_put@7:
	mov	ecx, DWORD PTR __Iosbase$[ebp]
	call	?precision@ios_base@std@@QBE_JXZ	; std::ios_base::precision
	mov	DWORD PTR tv73[ebp], eax
	mov	DWORD PTR tv73[ebp+4], edx
$LN14@do_put@7:
	mov	eax, DWORD PTR tv73[ebp]
	mov	DWORD PTR __Precision$[ebp], eax
	mov	ecx, DWORD PTR tv73[ebp+4]
	mov	DWORD PTR __Precision$[ebp+4], ecx

; 1262 : 		int _Significance = _MAX_SIG_DIG < _Precision
; 1263 : 			? _MAX_SIG_DIG : (int)_Precision;	// actual sprintf precision

	cmp	DWORD PTR __Precision$[ebp+4], 0
	jl	SHORT $LN15@do_put@7
	jg	SHORT $LN20@do_put@7
	cmp	DWORD PTR __Precision$[ebp], 36		; 00000024H
	jbe	SHORT $LN15@do_put@7
$LN20@do_put@7:
	mov	DWORD PTR tv76[ebp], 36			; 00000024H
	jmp	SHORT $LN16@do_put@7
$LN15@do_put@7:
	mov	edx, DWORD PTR __Precision$[ebp]
	mov	DWORD PTR tv76[ebp], edx
$LN16@do_put@7:
	mov	eax, DWORD PTR tv76[ebp]
	mov	DWORD PTR __Significance$[ebp], eax

; 1264 : 		_Precision -= _Significance;

	mov	eax, DWORD PTR __Significance$[ebp]
	cdq
	mov	ecx, DWORD PTR __Precision$[ebp]
	sub	ecx, eax
	mov	eax, DWORD PTR __Precision$[ebp+4]
	sbb	eax, edx
	mov	DWORD PTR __Precision$[ebp], ecx
	mov	DWORD PTR __Precision$[ebp+4], eax

; 1265 : 		size_t _Beforepoint = 0;	// zeros to add before decimal point

	mov	DWORD PTR __Beforepoint$[ebp], 0

; 1266 : 		size_t _Afterpoint = 0;	// zeros to add after decimal point

	mov	DWORD PTR __Afterpoint$[ebp], 0

; 1267 : 
; 1268 : 		if ((_Iosbase.flags() & ios_base::floatfield) == ios_base::fixed)

	mov	ecx, DWORD PTR __Iosbase$[ebp]
	call	?flags@ios_base@std@@QBEHXZ		; std::ios_base::flags
	and	eax, 12288				; 00003000H
	cmp	eax, 8192				; 00002000H
	jne	$LN1@do_put@7

; 1269 : 			{	// scale silly fixed-point value
; 1270 : 			bool _Signed = _Val < 0;

	fldz
	fcomp	QWORD PTR __Val$[ebp]
	fnstsw	ax
	test	ah, 65					; 00000041H
	jne	SHORT $LN17@do_put@7
	mov	DWORD PTR tv84[ebp], 1
	jmp	SHORT $LN18@do_put@7
$LN17@do_put@7:
	mov	DWORD PTR tv84[ebp], 0
$LN18@do_put@7:
	mov	cl, BYTE PTR tv84[ebp]
	mov	BYTE PTR __Signed$139879[ebp], cl

; 1271 : 			if (_Signed)

	movzx	edx, BYTE PTR __Signed$139879[ebp]
	test	edx, edx
	je	SHORT $LN9@do_put@7

; 1272 : 				_Val = -_Val;

	fld	QWORD PTR __Val$[ebp]
	fchs
	fstp	QWORD PTR __Val$[ebp]
$LN9@do_put@7:

; 1273 : 
; 1274 : 			for (; 1e35 <= _Val && _Beforepoint < 5000; _Beforepoint += 10)

	jmp	SHORT $LN8@do_put@7
$LN7@do_put@7:
	mov	eax, DWORD PTR __Beforepoint$[ebp]
	add	eax, 10					; 0000000aH
	mov	DWORD PTR __Beforepoint$[ebp], eax
$LN8@do_put@7:
	fld	QWORD PTR __Val$[ebp]
	fcomp	QWORD PTR __real@4733426172c74d82
	fnstsw	ax
	test	ah, 1
	jne	SHORT $LN6@do_put@7
	cmp	DWORD PTR __Beforepoint$[ebp], 5000	; 00001388H
	jae	SHORT $LN6@do_put@7

; 1275 : 				_Val /= 1e10;	// drop 10 zeros before decimal point

	fld	QWORD PTR __Val$[ebp]
	fdiv	QWORD PTR __real@4202a05f20000000
	fstp	QWORD PTR __Val$[ebp]
	jmp	SHORT $LN7@do_put@7
$LN6@do_put@7:

; 1276 : 
; 1277 : 			if (0 < _Val)

	fld	QWORD PTR __Val$[ebp]
	fcomp	QWORD PTR __real@0000000000000000
	fnstsw	ax
	test	ah, 65					; 00000041H
	jne	SHORT $LN2@do_put@7

; 1278 : 				for (; 10 <= _Precision && _Val <= 1e-35
; 1279 : 					&& _Afterpoint < 5000; _Afterpoint += 10)

	jmp	SHORT $LN4@do_put@7
$LN3@do_put@7:
	mov	ecx, DWORD PTR __Afterpoint$[ebp]
	add	ecx, 10					; 0000000aH
	mov	DWORD PTR __Afterpoint$[ebp], ecx
$LN4@do_put@7:
	cmp	DWORD PTR __Precision$[ebp+4], 0
	jl	SHORT $LN2@do_put@7
	jg	SHORT $LN21@do_put@7
	cmp	DWORD PTR __Precision$[ebp], 10		; 0000000aH
	jb	SHORT $LN2@do_put@7
$LN21@do_put@7:
	fld	QWORD PTR __real@38aa95a5b7f87a0f
	fcomp	QWORD PTR __Val$[ebp]
	fnstsw	ax
	test	ah, 1
	jne	SHORT $LN2@do_put@7
	cmp	DWORD PTR __Afterpoint$[ebp], 5000	; 00001388H
	jae	SHORT $LN2@do_put@7

; 1280 : 					{	// drop 10 zeros after decimal point
; 1281 : 					_Val *= 1e10;

	fld	QWORD PTR __Val$[ebp]
	fmul	QWORD PTR __real@4202a05f20000000
	fstp	QWORD PTR __Val$[ebp]

; 1282 : 					_Precision -= 10;

	mov	edx, DWORD PTR __Precision$[ebp]
	sub	edx, 10					; 0000000aH
	mov	eax, DWORD PTR __Precision$[ebp+4]
	sbb	eax, 0
	mov	DWORD PTR __Precision$[ebp], edx
	mov	DWORD PTR __Precision$[ebp+4], eax

; 1283 : 					}

	jmp	SHORT $LN3@do_put@7
$LN2@do_put@7:

; 1284 : 
; 1285 : 			if (_Signed)

	movzx	ecx, BYTE PTR __Signed$139879[ebp]
	test	ecx, ecx
	je	SHORT $LN1@do_put@7

; 1286 : 				_Val = -_Val;

	fld	QWORD PTR __Val$[ebp]
	fchs
	fstp	QWORD PTR __Val$[ebp]
$LN1@do_put@7:

; 1287 : 			}
; 1288 : 
; 1289 : 		return (_Fput(_Dest, _Iosbase, _Fill, _Buf,
; 1290 : 			_Beforepoint, _Afterpoint, (size_t)_Precision,
; 1291 : 				_CSTD sprintf_s(_Buf, sizeof (_Buf),
; 1292 : 					_Ffmt(_Fmt, 'L', _Iosbase.flags()),
; 1293 : 					_Significance, _Val)));	// convert and put

	sub	esp, 8
	fld	QWORD PTR __Val$[ebp]
	fstp	QWORD PTR [esp]
	mov	edx, DWORD PTR __Significance$[ebp]
	push	edx
	mov	ecx, DWORD PTR __Iosbase$[ebp]
	call	?flags@ios_base@std@@QBEHXZ		; std::ios_base::flags
	push	eax
	push	76					; 0000004cH
	lea	eax, DWORD PTR __Fmt$[ebp]
	push	eax
	mov	ecx, DWORD PTR _this$[ebp]
	push	ecx
	call	?_Ffmt@?$num_put@DV?$ostreambuf_iterator@DU?$char_traits@D@std@@@std@@@std@@ABAPADPADDH@Z ; std::num_put<char,std::ostreambuf_iterator<char,std::char_traits<char> > >::_Ffmt
	add	esp, 16					; 00000010H
	push	eax
	push	108					; 0000006cH
	lea	edx, DWORD PTR __Buf$[ebp]
	push	edx
	call	_sprintf_s
	add	esp, 24					; 00000018H
	push	eax
	mov	eax, DWORD PTR __Precision$[ebp]
	push	eax
	mov	ecx, DWORD PTR __Afterpoint$[ebp]
	push	ecx
	mov	edx, DWORD PTR __Beforepoint$[ebp]
	push	edx
	lea	eax, DWORD PTR __Buf$[ebp]
	push	eax
	movzx	ecx, BYTE PTR __Fill$[ebp]
	push	ecx
	mov	edx, DWORD PTR __Iosbase$[ebp]
	push	edx
	mov	eax, DWORD PTR __Dest$[ebp+4]
	push	eax
	mov	ecx, DWORD PTR __Dest$[ebp]
	push	ecx
	mov	edx, DWORD PTR ___$ReturnUdt$[ebp]
	push	edx
	mov	eax, DWORD PTR _this$[ebp]
	push	eax
	call	?_Fput@?$num_put@DV?$ostreambuf_iterator@DU?$char_traits@D@std@@@std@@@std@@ABA?AV?$ostreambuf_iterator@DU?$char_traits@D@std@@@2@V32@AAVios_base@2@DPBDIIII@Z ; std::num_put<char,std::ostreambuf_iterator<char,std::char_traits<char> > >::_Fput
	add	esp, 44					; 0000002cH
	mov	eax, DWORD PTR ___$ReturnUdt$[ebp]

; 1294 : 		}

	push	edx
	mov	ecx, ebp
	push	eax
	lea	edx, DWORD PTR $LN25@do_put@7
	call	@_RTC_CheckStackVars@8
	pop	eax
	pop	edx
	pop	edi
	mov	ecx, DWORD PTR __$ArrayPad$[ebp]
	xor	ecx, ebp
	call	@__security_check_cookie@4
	add	esp, 188				; 000000bcH
	cmp	ebp, esp
	call	__RTC_CheckEsp
	mov	esp, ebp
	pop	ebp
	ret	28					; 0000001cH
	npad	3
$LN25@do_put@7:
	DD	2
	DD	$LN24@do_put@7
$LN24@do_put@7:
	DD	-120					; ffffff88H
	DD	108					; 0000006cH
	DD	$LN22@do_put@7
	DD	-136					; ffffff78H
	DD	8
	DD	$LN23@do_put@7
$LN23@do_put@7:
	DB	95					; 0000005fH
	DB	70					; 00000046H
	DB	109					; 0000006dH
	DB	116					; 00000074H
	DB	0
$LN22@do_put@7:
	DB	95					; 0000005fH
	DB	66					; 00000042H
	DB	117					; 00000075H
	DB	102					; 00000066H
	DB	0
?do_put@?$num_put@DV?$ostreambuf_iterator@DU?$char_traits@D@std@@@std@@@std@@MBE?AV?$ostreambuf_iterator@DU?$char_traits@D@std@@@2@V32@AAVios_base@2@DO@Z ENDP ; std::num_put<char,std::ostreambuf_iterator<char,std::char_traits<char> > >::do_put
_TEXT	ENDS
PUBLIC	??_C@_02BBAHNLBA@?$CFp?$AA@			; `string'
PUBLIC	__$ArrayPad$
;	COMDAT ??_C@_02BBAHNLBA@?$CFp?$AA@
CONST	SEGMENT
??_C@_02BBAHNLBA@?$CFp?$AA@ DB '%p', 00H		; `string'
; Function compile flags: /Odtp /RTCsu
CONST	ENDS
;	COMDAT ?do_put@?$num_put@DV?$ostreambuf_iterator@DU?$char_traits@D@std@@@std@@@std@@MBE?AV?$ostreambuf_iterator@DU?$char_traits@D@std@@@2@V32@AAVios_base@2@DPBX@Z
_TEXT	SEGMENT
__Buf$ = -76						; size = 64
_this$ = -8						; size = 4
__$ArrayPad$ = -4					; size = 4
___$ReturnUdt$ = 8					; size = 4
__Dest$ = 12						; size = 8
__Iosbase$ = 20						; size = 4
__Fill$ = 24						; size = 1
__Val$ = 28						; size = 4
?do_put@?$num_put@DV?$ostreambuf_iterator@DU?$char_traits@D@std@@@std@@@std@@MBE?AV?$ostreambuf_iterator@DU?$char_traits@D@std@@@2@V32@AAVios_base@2@DPBX@Z PROC ; std::num_put<char,std::ostreambuf_iterator<char,std::char_traits<char> > >::do_put, COMDAT
; _this$ = ecx

; 1298 : 		{	// put formatted void pointer to _Dest

	push	ebp
	mov	ebp, esp
	sub	esp, 80					; 00000050H
	push	edi
	push	ecx
	lea	edi, DWORD PTR [ebp-80]
	mov	ecx, 20					; 00000014H
	mov	eax, -858993460				; ccccccccH
	rep stosd
	pop	ecx
	mov	eax, DWORD PTR ___security_cookie
	xor	eax, ebp
	mov	DWORD PTR __$ArrayPad$[ebp], eax
	mov	DWORD PTR _this$[ebp], ecx

; 1299 : 		char _Buf[2 * _MAX_INT_DIG];
; 1300 : 
; 1301 : 		return (_Iput(_Dest, _Iosbase, _Fill, _Buf,
; 1302 : 			_CSTD sprintf_s(_Buf, sizeof (_Buf), "%p", _Val)));

	mov	eax, DWORD PTR __Val$[ebp]
	push	eax
	push	OFFSET ??_C@_02BBAHNLBA@?$CFp?$AA@
	push	64					; 00000040H
	lea	ecx, DWORD PTR __Buf$[ebp]
	push	ecx
	call	_sprintf_s
	add	esp, 16					; 00000010H
	push	eax
	lea	edx, DWORD PTR __Buf$[ebp]
	push	edx
	movzx	eax, BYTE PTR __Fill$[ebp]
	push	eax
	mov	ecx, DWORD PTR __Iosbase$[ebp]
	push	ecx
	mov	edx, DWORD PTR __Dest$[ebp+4]
	push	edx
	mov	eax, DWORD PTR __Dest$[ebp]
	push	eax
	mov	ecx, DWORD PTR ___$ReturnUdt$[ebp]
	push	ecx
	mov	edx, DWORD PTR _this$[ebp]
	push	edx
	call	?_Iput@?$num_put@DV?$ostreambuf_iterator@DU?$char_traits@D@std@@@std@@@std@@ABA?AV?$ostreambuf_iterator@DU?$char_traits@D@std@@@2@V32@AAVios_base@2@DPADI@Z ; std::num_put<char,std::ostreambuf_iterator<char,std::char_traits<char> > >::_Iput
	add	esp, 32					; 00000020H
	mov	eax, DWORD PTR ___$ReturnUdt$[ebp]

; 1303 : 		}

	push	edx
	mov	ecx, ebp
	push	eax
	lea	edx, DWORD PTR $LN5@do_put@8
	call	@_RTC_CheckStackVars@8
	pop	eax
	pop	edx
	pop	edi
	mov	ecx, DWORD PTR __$ArrayPad$[ebp]
	xor	ecx, ebp
	call	@__security_check_cookie@4
	add	esp, 80					; 00000050H
	cmp	ebp, esp
	call	__RTC_CheckEsp
	mov	esp, ebp
	pop	ebp
	ret	24					; 00000018H
	npad	3
$LN5@do_put@8:
	DD	1
	DD	$LN4@do_put@8
$LN4@do_put@8:
	DD	-76					; ffffffb4H
	DD	64					; 00000040H
	DD	$LN3@do_put@8
$LN3@do_put@8:
	DB	95					; 0000005fH
	DB	66					; 00000042H
	DB	117					; 00000075H
	DB	102					; 00000066H
	DB	0
?do_put@?$num_put@DV?$ostreambuf_iterator@DU?$char_traits@D@std@@@std@@@std@@MBE?AV?$ostreambuf_iterator@DU?$char_traits@D@std@@@2@V32@AAVios_base@2@DPBX@Z ENDP ; std::num_put<char,std::ostreambuf_iterator<char,std::char_traits<char> > >::do_put
_TEXT	ENDS
PUBLIC	??1?$num_put@DV?$ostreambuf_iterator@DU?$char_traits@D@std@@@std@@@std@@MAE@XZ ; std::num_put<char,std::ostreambuf_iterator<char,std::char_traits<char> > >::~num_put<char,std::ostreambuf_iterator<char,std::char_traits<char> > >
; Function compile flags: /Odtp /RTCsu
;	COMDAT ??_G?$num_put@DV?$ostreambuf_iterator@DU?$char_traits@D@std@@@std@@@std@@MAEPAXI@Z
_TEXT	SEGMENT
_this$ = -4						; size = 4
___flags$ = 8						; size = 4
??_G?$num_put@DV?$ostreambuf_iterator@DU?$char_traits@D@std@@@std@@@std@@MAEPAXI@Z PROC ; std::num_put<char,std::ostreambuf_iterator<char,std::char_traits<char> > >::`scalar deleting destructor', COMDAT
; _this$ = ecx
	push	ebp
	mov	ebp, esp
	push	ecx
	mov	DWORD PTR [ebp-4], -858993460		; ccccccccH
	mov	DWORD PTR _this$[ebp], ecx
	mov	ecx, DWORD PTR _this$[ebp]
	call	??1?$num_put@DV?$ostreambuf_iterator@DU?$char_traits@D@std@@@std@@@std@@MAE@XZ ; std::num_put<char,std::ostreambuf_iterator<char,std::char_traits<char> > >::~num_put<char,std::ostreambuf_iterator<char,std::char_traits<char> > >
	mov	eax, DWORD PTR ___flags$[ebp]
	and	eax, 1
	je	SHORT $LN1@scalar@13
	mov	ecx, DWORD PTR _this$[ebp]
	push	ecx
	call	??3facet@locale@std@@SAXPAX@Z		; std::locale::facet::operator delete
	add	esp, 4
$LN1@scalar@13:
	mov	eax, DWORD PTR _this$[ebp]
	add	esp, 4
	cmp	ebp, esp
	call	__RTC_CheckEsp
	mov	esp, ebp
	pop	ebp
	ret	4
??_G?$num_put@DV?$ostreambuf_iterator@DU?$char_traits@D@std@@@std@@@std@@MAEPAXI@Z ENDP ; std::num_put<char,std::ostreambuf_iterator<char,std::char_traits<char> > >::`scalar deleting destructor'
; Function compile flags: /Odtp /RTCsu
_TEXT	ENDS
;	COMDAT ??1?$num_put@DV?$ostreambuf_iterator@DU?$char_traits@D@std@@@std@@@std@@MAE@XZ
_TEXT	SEGMENT
_this$ = -4						; size = 4
??1?$num_put@DV?$ostreambuf_iterator@DU?$char_traits@D@std@@@std@@@std@@MAE@XZ PROC ; std::num_put<char,std::ostreambuf_iterator<char,std::char_traits<char> > >::~num_put<char,std::ostreambuf_iterator<char,std::char_traits<char> > >, COMDAT
; _this$ = ecx

; 1062 : 		{	// destroy the object

	push	ebp
	mov	ebp, esp
	push	ecx
	mov	DWORD PTR [ebp-4], -858993460		; ccccccccH
	mov	DWORD PTR _this$[ebp], ecx
	mov	eax, DWORD PTR _this$[ebp]
	mov	DWORD PTR [eax], OFFSET ??_7?$num_put@DV?$ostreambuf_iterator@DU?$char_traits@D@std@@@std@@@std@@6B@

; 1063 : 		}

	mov	ecx, DWORD PTR _this$[ebp]
	call	??1facet@locale@std@@UAE@XZ		; std::locale::facet::~facet
	add	esp, 4
	cmp	ebp, esp
	call	__RTC_CheckEsp
	mov	esp, ebp
	pop	ebp
	ret	0
??1?$num_put@DV?$ostreambuf_iterator@DU?$char_traits@D@std@@@std@@@std@@MAE@XZ ENDP ; std::num_put<char,std::ostreambuf_iterator<char,std::char_traits<char> > >::~num_put<char,std::ostreambuf_iterator<char,std::char_traits<char> > >
; Function compile flags: /Odtp /RTCsu
_TEXT	ENDS
;	COMDAT ?_Ffmt@?$num_put@DV?$ostreambuf_iterator@DU?$char_traits@D@std@@@std@@@std@@ABAPADPADDH@Z
_TEXT	SEGMENT
tv82 = -10						; size = 1
tv83 = -9						; size = 1
__Ffl$ = -8						; size = 4
__Ptr$ = -4						; size = 4
_this$ = 8						; size = 4
__Fmt$ = 12						; size = 4
__Spec$ = 16						; size = 1
__Flags$ = 20						; size = 4
?_Ffmt@?$num_put@DV?$ostreambuf_iterator@DU?$char_traits@D@std@@@std@@@std@@ABAPADPADDH@Z PROC ; std::num_put<char,std::ostreambuf_iterator<char,std::char_traits<char> > >::_Ffmt, COMDAT

; 1308 : 		{	// generate sprintf format for floating-point

	push	ebp
	mov	ebp, esp
	sub	esp, 12					; 0000000cH
	mov	DWORD PTR [ebp-12], -858993460		; ccccccccH
	mov	DWORD PTR [ebp-8], -858993460		; ccccccccH
	mov	DWORD PTR [ebp-4], -858993460		; ccccccccH

; 1309 : 		char *_Ptr = _Fmt;

	mov	eax, DWORD PTR __Fmt$[ebp]
	mov	DWORD PTR __Ptr$[ebp], eax

; 1310 : 		*_Ptr++ = '%';

	mov	ecx, DWORD PTR __Ptr$[ebp]
	mov	BYTE PTR [ecx], 37			; 00000025H
	mov	edx, DWORD PTR __Ptr$[ebp]
	add	edx, 1
	mov	DWORD PTR __Ptr$[ebp], edx

; 1311 : 
; 1312 : 		if (_Flags & ios_base::showpos)

	mov	eax, DWORD PTR __Flags$[ebp]
	and	eax, 32					; 00000020H
	je	SHORT $LN3@Ffmt

; 1313 : 			*_Ptr++ = '+';

	mov	ecx, DWORD PTR __Ptr$[ebp]
	mov	BYTE PTR [ecx], 43			; 0000002bH
	mov	edx, DWORD PTR __Ptr$[ebp]
	add	edx, 1
	mov	DWORD PTR __Ptr$[ebp], edx
$LN3@Ffmt:

; 1314 : 		if (_Flags & ios_base::showpoint)

	mov	eax, DWORD PTR __Flags$[ebp]
	and	eax, 16					; 00000010H
	je	SHORT $LN2@Ffmt

; 1315 : 			*_Ptr++ = '#';

	mov	ecx, DWORD PTR __Ptr$[ebp]
	mov	BYTE PTR [ecx], 35			; 00000023H
	mov	edx, DWORD PTR __Ptr$[ebp]
	add	edx, 1
	mov	DWORD PTR __Ptr$[ebp], edx
$LN2@Ffmt:

; 1316 : 		*_Ptr++ = '.';

	mov	eax, DWORD PTR __Ptr$[ebp]
	mov	BYTE PTR [eax], 46			; 0000002eH
	mov	ecx, DWORD PTR __Ptr$[ebp]
	add	ecx, 1
	mov	DWORD PTR __Ptr$[ebp], ecx

; 1317 : 		*_Ptr++ = '*';	// for precision argument

	mov	edx, DWORD PTR __Ptr$[ebp]
	mov	BYTE PTR [edx], 42			; 0000002aH
	mov	eax, DWORD PTR __Ptr$[ebp]
	add	eax, 1
	mov	DWORD PTR __Ptr$[ebp], eax

; 1318 : 		if (_Spec != '\0')

	movsx	ecx, BYTE PTR __Spec$[ebp]
	test	ecx, ecx
	je	SHORT $LN1@Ffmt

; 1319 : 			*_Ptr++ = _Spec;	// 'L' qualifier for long double only

	mov	edx, DWORD PTR __Ptr$[ebp]
	mov	al, BYTE PTR __Spec$[ebp]
	mov	BYTE PTR [edx], al
	mov	ecx, DWORD PTR __Ptr$[ebp]
	add	ecx, 1
	mov	DWORD PTR __Ptr$[ebp], ecx
$LN1@Ffmt:

; 1320 : 
; 1321 : 		ios_base::fmtflags _Ffl = _Flags & ios_base::floatfield;

	mov	edx, DWORD PTR __Flags$[ebp]
	and	edx, 12288				; 00003000H
	mov	DWORD PTR __Ffl$[ebp], edx

; 1322 : 		*_Ptr++ = _Ffl == ios_base::fixed ? 'f'
; 1323 : 			: _Ffl == ios_base::hexfloat ? 'a'	// added with TR1
; 1324 : 			: _Ffl == ios_base::scientific ? 'e' : 'g';	// specifier

	cmp	DWORD PTR __Ffl$[ebp], 8192		; 00002000H
	jne	SHORT $LN8@Ffmt
	mov	BYTE PTR tv83[ebp], 102			; 00000066H
	jmp	SHORT $LN9@Ffmt
$LN8@Ffmt:
	cmp	DWORD PTR __Ffl$[ebp], 12288		; 00003000H
	jne	SHORT $LN6@Ffmt
	mov	BYTE PTR tv82[ebp], 97			; 00000061H
	jmp	SHORT $LN7@Ffmt
$LN6@Ffmt:
	cmp	DWORD PTR __Ffl$[ebp], 4096		; 00001000H
	setne	al
	lea	eax, DWORD PTR [eax+eax+101]
	mov	BYTE PTR tv82[ebp], al
$LN7@Ffmt:
	mov	cl, BYTE PTR tv82[ebp]
	mov	BYTE PTR tv83[ebp], cl
$LN9@Ffmt:
	mov	edx, DWORD PTR __Ptr$[ebp]
	mov	al, BYTE PTR tv83[ebp]
	mov	BYTE PTR [edx], al
	mov	ecx, DWORD PTR __Ptr$[ebp]
	add	ecx, 1
	mov	DWORD PTR __Ptr$[ebp], ecx

; 1325 : 		*_Ptr = '\0';

	mov	edx, DWORD PTR __Ptr$[ebp]
	mov	BYTE PTR [edx], 0

; 1326 : 		return (_Fmt);

	mov	eax, DWORD PTR __Fmt$[ebp]

; 1327 : 		}

	mov	esp, ebp
	pop	ebp
	ret	0
?_Ffmt@?$num_put@DV?$ostreambuf_iterator@DU?$char_traits@D@std@@@std@@@std@@ABAPADPADDH@Z ENDP ; std::num_put<char,std::ostreambuf_iterator<char,std::char_traits<char> > >::_Ffmt
_TEXT	ENDS
PUBLIC	??_C@_01KGKMHCOC@e?$AA@				; `string'
PUBLIC	??_C@_01DDCIFGEA@E?$AA@				; `string'
PUBLIC	?decimal_point@?$numpunct@D@std@@QBEDXZ		; std::numpunct<char>::decimal_point
PUBLIC	?_Putgrouped@?$num_put@DV?$ostreambuf_iterator@DU?$char_traits@D@std@@@std@@@std@@ABA?AV?$ostreambuf_iterator@DU?$char_traits@D@std@@@2@V32@PBDID@Z ; std::num_put<char,std::ostreambuf_iterator<char,std::char_traits<char> > >::_Putgrouped
PUBLIC	?_Putc@?$num_put@DV?$ostreambuf_iterator@DU?$char_traits@D@std@@@std@@@std@@ABA?AV?$ostreambuf_iterator@DU?$char_traits@D@std@@@2@V32@PBDI@Z ; std::num_put<char,std::ostreambuf_iterator<char,std::char_traits<char> > >::_Putc
PUBLIC	??A?$basic_string@DU?$char_traits@D@std@@V?$allocator@D@2@@std@@QAEAADI@Z ; std::basic_string<char,std::char_traits<char>,std::allocator<char> >::operator[]
PUBLIC	?insert@?$basic_string@DU?$char_traits@D@std@@V?$allocator@D@2@@std@@QAEAAV12@IID@Z ; std::basic_string<char,std::char_traits<char>,std::allocator<char> >::insert
PUBLIC	?append@?$basic_string@DU?$char_traits@D@std@@V?$allocator@D@2@@std@@QAEAAV12@ID@Z ; std::basic_string<char,std::char_traits<char>,std::allocator<char> >::append
PUBLIC	?append@?$basic_string@DU?$char_traits@D@std@@V?$allocator@D@2@@std@@QAEAAV12@PBDI@Z ; std::basic_string<char,std::char_traits<char>,std::allocator<char> >::append
PUBLIC	??$_Maklocchr@D@std@@YADDPADABU_Cvtvec@@@Z	; std::_Maklocchr<char>
PUBLIC	?thousands_sep@?$numpunct@D@std@@QBEDXZ		; std::numpunct<char>::thousands_sep
PUBLIC	?grouping@?$numpunct@D@std@@QBE?AV?$basic_string@DU?$char_traits@D@std@@V?$allocator@D@2@@2@XZ ; std::numpunct<char>::grouping
PUBLIC	__$ArrayPad$
EXTRN	_strcspn:PROC
EXTRN	_memchr:PROC
EXTRN	_localeconv:PROC
;	COMDAT ??_C@_01KGKMHCOC@e?$AA@
CONST	SEGMENT
??_C@_01KGKMHCOC@e?$AA@ DB 'e', 00H			; `string'
CONST	ENDS
;	COMDAT ??_C@_01DDCIFGEA@E?$AA@
CONST	SEGMENT
??_C@_01DDCIFGEA@E?$AA@ DB 'E', 00H			; `string'
CONST	ENDS
;	COMDAT xdata$x
xdata$x	SEGMENT
__unwindtable$?_Fput@?$num_put@DV?$ostreambuf_iterator@DU?$char_traits@D@std@@@std@@@std@@ABA?AV?$ostreambuf_iterator@DU?$char_traits@D@std@@@2@V32@AAVios_base@2@DPBDIIII@Z DD 0ffffffffH
	DD	FLAT:__unwindfunclet$?_Fput@?$num_put@DV?$ostreambuf_iterator@DU?$char_traits@D@std@@@std@@@std@@ABA?AV?$ostreambuf_iterator@DU?$char_traits@D@std@@@2@V32@AAVios_base@2@DPBDIIII@Z$0
	DD	0ffffffffH
	DD	FLAT:__unwindfunclet$?_Fput@?$num_put@DV?$ostreambuf_iterator@DU?$char_traits@D@std@@@std@@@std@@ABA?AV?$ostreambuf_iterator@DU?$char_traits@D@std@@@2@V32@AAVios_base@2@DPBDIIII@Z$1
	DD	01H
	DD	FLAT:__unwindfunclet$?_Fput@?$num_put@DV?$ostreambuf_iterator@DU?$char_traits@D@std@@@std@@@std@@ABA?AV?$ostreambuf_iterator@DU?$char_traits@D@std@@@2@V32@AAVios_base@2@DPBDIIII@Z$2
__ehfuncinfo$?_Fput@?$num_put@DV?$ostreambuf_iterator@DU?$char_traits@D@std@@@std@@@std@@ABA?AV?$ostreambuf_iterator@DU?$char_traits@D@std@@@2@V32@AAVios_base@2@DPBDIIII@Z DD 019930522H
	DD	03H
	DD	FLAT:__unwindtable$?_Fput@?$num_put@DV?$ostreambuf_iterator@DU?$char_traits@D@std@@@std@@@std@@ABA?AV?$ostreambuf_iterator@DU?$char_traits@D@std@@@2@V32@AAVios_base@2@DPBDIIII@Z
	DD	2 DUP(00H)
	DD	2 DUP(00H)
	DD	00H
	DD	01H
; Function compile flags: /Odtp /RTCsu
xdata$x	ENDS
;	COMDAT ?_Fput@?$num_put@DV?$ostreambuf_iterator@DU?$char_traits@D@std@@@std@@@std@@ABA?AV?$ostreambuf_iterator@DU?$char_traits@D@std@@@2@V32@AAVios_base@2@DPBDIIII@Z
_TEXT	SEGMENT
tv357 = -284						; size = 4
tv222 = -280						; size = 4
tv447 = -276						; size = 8
tv92 = -268						; size = 4
tv387 = -264						; size = 4
tv392 = -260						; size = 4
$T147796 = -256						; size = 8
$T147795 = -248						; size = 8
$T147794 = -240						; size = 8
$T147791 = -232						; size = 8
$T147790 = -224						; size = 8
$T147789 = -216						; size = 8
$T147788 = -208						; size = 8
$T147787 = -200						; size = 8
$T147786 = -192						; size = 8
$T147785 = -184						; size = 8
$T147784 = -176						; size = 8
$T147783 = -168						; size = 8
$T147778 = -160						; size = 4
__Expoffset$140434 = -156				; size = 4
__Fracoffset$140427 = -152				; size = 4
__Adjustfield$ = -148					; size = 4
__Fillcount$ = -144					; size = 4
__Off$140407 = -140					; size = 4
__Pg$140406 = -136					; size = 4
__Pointptr$ = -132					; size = 4
__Eptr$ = -128						; size = 4
__Enders$ = -120					; size = 3
__Prefix$ = -112					; size = 4
__E0$ = -105						; size = 1
__Groupstring$ = -100					; size = 32
__Kseparator$ = -61					; size = 1
__Grouping$ = -56					; size = 32
__Punct_fac$ = -20					; size = 4
__$ArrayPad$ = -16					; size = 4
__$EHRec$ = -12						; size = 12
_this$ = 8						; size = 4
___$ReturnUdt$ = 12					; size = 4
__Dest$ = 16						; size = 8
__Iosbase$ = 24						; size = 4
__Fill$ = 28						; size = 1
__Buf$ = 32						; size = 4
__Beforepoint$ = 36					; size = 4
__Afterpoint$ = 40					; size = 4
__Trailing$ = 44					; size = 4
__Count$ = 48						; size = 4
?_Fput@?$num_put@DV?$ostreambuf_iterator@DU?$char_traits@D@std@@@std@@@std@@ABA?AV?$ostreambuf_iterator@DU?$char_traits@D@std@@@2@V32@AAVios_base@2@DPBDIIII@Z PROC ; std::num_put<char,std::ostreambuf_iterator<char,std::char_traits<char> > >::_Fput, COMDAT

; 1333 : 		{	// put formatted floating-point to _Dest

	push	ebp
	mov	ebp, esp
	push	-1
	push	__ehhandler$?_Fput@?$num_put@DV?$ostreambuf_iterator@DU?$char_traits@D@std@@@std@@@std@@ABA?AV?$ostreambuf_iterator@DU?$char_traits@D@std@@@2@V32@AAVios_base@2@DPBDIIII@Z
	mov	eax, DWORD PTR fs:0
	push	eax
	sub	esp, 272				; 00000110H
	push	edi
	lea	edi, DWORD PTR [ebp-284]
	mov	ecx, 68					; 00000044H
	mov	eax, -858993460				; ccccccccH
	rep stosd
	mov	eax, DWORD PTR ___security_cookie
	xor	eax, ebp
	mov	DWORD PTR __$ArrayPad$[ebp], eax
	push	eax
	lea	eax, DWORD PTR __$EHRec$[ebp]
	mov	DWORD PTR fs:0, eax

; 1334 : 		_DEBUG_POINTER(_Dest);

	push	1334					; 00000536H
	push	OFFSET ??_C@_1IO@NAGBLLMA@?$AAc?$AA?3?$AA?2?$AAP?$AAr?$AAo?$AAg?$AAr?$AAa?$AAm?$AA?5?$AAF?$AAi?$AAl?$AAe?$AAs?$AA?5?$AA?$CI?$AAx?$AA8?$AA6?$AA?$CJ?$AA?2?$AAM?$AAi?$AAc?$AAr?$AAo?$AAs?$AAo?$AAf?$AAt@
	lea	eax, DWORD PTR __Dest$[ebp]
	push	eax
	call	??$_Debug_pointer@V?$ostreambuf_iterator@DU?$char_traits@D@std@@@std@@@std@@YAXAAV?$ostreambuf_iterator@DU?$char_traits@D@std@@@0@PB_WI@Z ; std::_Debug_pointer<std::ostreambuf_iterator<char,std::char_traits<char> > >
	add	esp, 12					; 0000000cH

; 1335 : 		const _Mypunct& _Punct_fac = _USE(_Iosbase.getloc(), _Mypunct);

	lea	ecx, DWORD PTR $T147778[ebp]
	push	ecx
	mov	ecx, DWORD PTR __Iosbase$[ebp]
	call	?getloc@ios_base@std@@QBE?AVlocale@2@XZ	; std::ios_base::getloc
	mov	DWORD PTR tv392[ebp], eax
	mov	edx, DWORD PTR tv392[ebp]
	mov	DWORD PTR tv387[ebp], edx
	mov	DWORD PTR __$EHRec$[ebp+8], 0
	mov	eax, DWORD PTR tv387[ebp]
	push	eax
	call	??$use_facet@V?$numpunct@D@std@@@std@@YAABV?$numpunct@D@0@ABVlocale@0@@Z ; std::use_facet<std::numpunct<char> >
	add	esp, 4
	mov	DWORD PTR __Punct_fac$[ebp], eax
	mov	DWORD PTR __$EHRec$[ebp+8], -1
	lea	ecx, DWORD PTR $T147778[ebp]
	call	??1locale@std@@QAE@XZ			; std::locale::~locale

; 1336 : 		const string _Grouping = _Punct_fac.grouping();

	lea	ecx, DWORD PTR __Grouping$[ebp]
	push	ecx
	mov	ecx, DWORD PTR __Punct_fac$[ebp]
	call	?grouping@?$numpunct@D@std@@QBE?AV?$basic_string@DU?$char_traits@D@std@@V?$allocator@D@2@@2@XZ ; std::numpunct<char>::grouping
	mov	DWORD PTR __$EHRec$[ebp+8], 1

; 1337 : 		const _Elem _Kseparator = _Punct_fac.thousands_sep();

	mov	ecx, DWORD PTR __Punct_fac$[ebp]
	call	?thousands_sep@?$numpunct@D@std@@QBEDXZ	; std::numpunct<char>::thousands_sep
	mov	BYTE PTR __Kseparator$[ebp], al

; 1338 : 		string _Groupstring;

	lea	ecx, DWORD PTR __Groupstring$[ebp]
	call	??0?$basic_string@DU?$char_traits@D@std@@V?$allocator@D@2@@std@@QAE@XZ ; std::basic_string<char,std::char_traits<char>,std::allocator<char> >::basic_string<char,std::char_traits<char>,std::allocator<char> >
	mov	BYTE PTR __$EHRec$[ebp+8], 2

; 1339 : 		const _Elem _E0 = _MAKLOCCHR(_Elem, '0', _Cvt);

	mov	edx, DWORD PTR _this$[ebp]
	add	edx, 8
	push	edx
	push	0
	push	48					; 00000030H
	call	??$_Maklocchr@D@std@@YADDPADABU_Cvtvec@@@Z ; std::_Maklocchr<char>
	add	esp, 12					; 0000000cH
	mov	BYTE PTR __E0$[ebp], al

; 1340 : 		size_t _Prefix = _Buf[0] == '+' || _Buf[0] == '-' ? 1 : 0;

	mov	eax, DWORD PTR __Buf$[ebp]
	movsx	ecx, BYTE PTR [eax]
	cmp	ecx, 43					; 0000002bH
	je	SHORT $LN19@Fput
	mov	edx, DWORD PTR __Buf$[ebp]
	movsx	eax, BYTE PTR [edx]
	cmp	eax, 45					; 0000002dH
	je	SHORT $LN19@Fput
	mov	DWORD PTR tv92[ebp], 0
	jmp	SHORT $LN20@Fput
$LN19@Fput:
	mov	DWORD PTR tv92[ebp], 1
$LN20@Fput:
	mov	ecx, DWORD PTR tv92[ebp]
	mov	DWORD PTR __Prefix$[ebp], ecx

; 1341 : 
; 1342 : 		char _Enders[3];
; 1343 : 		_Enders[0] = _CSTD localeconv()->decimal_point[0];

	call	_localeconv
	mov	edx, DWORD PTR [eax]
	mov	al, BYTE PTR [edx]
	mov	BYTE PTR __Enders$[ebp], al

; 1344 : 		_Enders[1] = 'e';

	mov	BYTE PTR __Enders$[ebp+1], 101		; 00000065H

; 1345 : 		_Enders[2] = '\0';

	mov	BYTE PTR __Enders$[ebp+2], 0

; 1346 : 
; 1347 : 		const char *_Eptr = (const char *)_CSTD memchr(_Buf,
; 1348 : 			'e', _Count);	// find exponent

	mov	ecx, DWORD PTR __Count$[ebp]
	push	ecx
	push	101					; 00000065H
	mov	edx, DWORD PTR __Buf$[ebp]
	push	edx
	call	_memchr
	add	esp, 12					; 0000000cH
	mov	DWORD PTR __Eptr$[ebp], eax

; 1349 : 		const char *_Pointptr = (const char *)_CSTD memchr(_Buf,
; 1350 : 			_Enders[0], _Count);	// find decimal point

	mov	eax, DWORD PTR __Count$[ebp]
	push	eax
	movsx	ecx, BYTE PTR __Enders$[ebp]
	push	ecx
	mov	edx, DWORD PTR __Buf$[ebp]
	push	edx
	call	_memchr
	add	esp, 12					; 0000000cH
	mov	DWORD PTR __Pointptr$[ebp], eax

; 1351 : 		if (_Pointptr == 0)

	cmp	DWORD PTR __Pointptr$[ebp], 0
	jne	SHORT $LN16@Fput

; 1352 : 			_Trailing = 0;

	mov	DWORD PTR __Trailing$[ebp], 0
$LN16@Fput:

; 1353 : 
; 1354 : 		if (*_Grouping.c_str() != CHAR_MAX && '\0' < *_Grouping.c_str())

	lea	ecx, DWORD PTR __Grouping$[ebp]
	call	?c_str@?$basic_string@DU?$char_traits@D@std@@V?$allocator@D@2@@std@@QBEPBDXZ ; std::basic_string<char,std::char_traits<char>,std::allocator<char> >::c_str
	movsx	eax, BYTE PTR [eax]
	cmp	eax, 127				; 0000007fH
	je	$LN15@Fput
	lea	ecx, DWORD PTR __Grouping$[ebp]
	call	?c_str@?$basic_string@DU?$char_traits@D@std@@V?$allocator@D@2@@std@@QBEPBDXZ ; std::basic_string<char,std::char_traits<char>,std::allocator<char> >::c_str
	movsx	ecx, BYTE PTR [eax]
	test	ecx, ecx
	jle	$LN15@Fput

; 1355 : 			{	// grouping specified, add thousands separators
; 1356 : 			_Groupstring.append(_Buf, _Count);	// assemble field into string

	mov	edx, DWORD PTR __Count$[ebp]
	push	edx
	mov	eax, DWORD PTR __Buf$[ebp]
	push	eax
	lea	ecx, DWORD PTR __Groupstring$[ebp]
	call	?append@?$basic_string@DU?$char_traits@D@std@@V?$allocator@D@2@@std@@QAEAAV12@PBDI@Z ; std::basic_string<char,std::char_traits<char>,std::allocator<char> >::append

; 1357 : 			if (_Eptr == 0)

	cmp	DWORD PTR __Eptr$[ebp], 0
	jne	SHORT $LN14@Fput

; 1358 : 				_Groupstring.append(_Trailing, '0');

	push	48					; 00000030H
	mov	ecx, DWORD PTR __Trailing$[ebp]
	push	ecx
	lea	ecx, DWORD PTR __Groupstring$[ebp]
	call	?append@?$basic_string@DU?$char_traits@D@std@@V?$allocator@D@2@@std@@QAEAAV12@ID@Z ; std::basic_string<char,std::char_traits<char>,std::allocator<char> >::append

; 1359 : 			else

	jmp	SHORT $LN13@Fput
$LN14@Fput:

; 1360 : 				{	/* dispose of any zeros before exponent */
; 1361 : 				if (_Pointptr == 0)

	cmp	DWORD PTR __Pointptr$[ebp], 0
	jne	SHORT $LN12@Fput

; 1362 : 					{	/* no point but exponent, put scaling zeros */
; 1363 : 					_Groupstring.append(_Beforepoint, '0');

	push	48					; 00000030H
	mov	edx, DWORD PTR __Beforepoint$[ebp]
	push	edx
	lea	ecx, DWORD PTR __Groupstring$[ebp]
	call	?append@?$basic_string@DU?$char_traits@D@std@@V?$allocator@D@2@@std@@QAEAAV12@ID@Z ; std::basic_string<char,std::char_traits<char>,std::allocator<char> >::append

; 1364 : 					_Beforepoint = 0;

	mov	DWORD PTR __Beforepoint$[ebp], 0
$LN12@Fput:

; 1365 : 					}
; 1366 : 				_Groupstring.insert(_Eptr - _Buf, _Trailing, '0');

	push	48					; 00000030H
	mov	eax, DWORD PTR __Trailing$[ebp]
	push	eax
	mov	ecx, DWORD PTR __Eptr$[ebp]
	sub	ecx, DWORD PTR __Buf$[ebp]
	push	ecx
	lea	ecx, DWORD PTR __Groupstring$[ebp]
	call	?insert@?$basic_string@DU?$char_traits@D@std@@V?$allocator@D@2@@std@@QAEAAV12@IID@Z ; std::basic_string<char,std::char_traits<char>,std::allocator<char> >::insert
$LN13@Fput:

; 1367 : 				}
; 1368 : 			_Trailing = 0;

	mov	DWORD PTR __Trailing$[ebp], 0

; 1369 : 
; 1370 : 			if (_Pointptr == 0)

	cmp	DWORD PTR __Pointptr$[ebp], 0
	jne	SHORT $LN11@Fput

; 1371 : 				_Groupstring.append(_Beforepoint, '0');

	push	48					; 00000030H
	mov	edx, DWORD PTR __Beforepoint$[ebp]
	push	edx
	lea	ecx, DWORD PTR __Groupstring$[ebp]
	call	?append@?$basic_string@DU?$char_traits@D@std@@V?$allocator@D@2@@std@@QAEAAV12@ID@Z ; std::basic_string<char,std::char_traits<char>,std::allocator<char> >::append

; 1372 : 			else

	jmp	SHORT $LN10@Fput
$LN11@Fput:

; 1373 : 				{	// fill in zeros around decimal point
; 1374 : 				_Groupstring.insert(_Pointptr - _Buf + 1, _Afterpoint, '0');

	push	48					; 00000030H
	mov	eax, DWORD PTR __Afterpoint$[ebp]
	push	eax
	mov	ecx, DWORD PTR __Pointptr$[ebp]
	sub	ecx, DWORD PTR __Buf$[ebp]
	add	ecx, 1
	push	ecx
	lea	ecx, DWORD PTR __Groupstring$[ebp]
	call	?insert@?$basic_string@DU?$char_traits@D@std@@V?$allocator@D@2@@std@@QAEAAV12@IID@Z ; std::basic_string<char,std::char_traits<char>,std::allocator<char> >::insert

; 1375 : 				_Groupstring.insert(_Pointptr - _Buf, _Beforepoint, '0');

	push	48					; 00000030H
	mov	edx, DWORD PTR __Beforepoint$[ebp]
	push	edx
	mov	eax, DWORD PTR __Pointptr$[ebp]
	sub	eax, DWORD PTR __Buf$[ebp]
	push	eax
	lea	ecx, DWORD PTR __Groupstring$[ebp]
	call	?insert@?$basic_string@DU?$char_traits@D@std@@V?$allocator@D@2@@std@@QAEAAV12@IID@Z ; std::basic_string<char,std::char_traits<char>,std::allocator<char> >::insert

; 1376 : 				_Afterpoint = 0;

	mov	DWORD PTR __Afterpoint$[ebp], 0
$LN10@Fput:

; 1377 : 				}
; 1378 : 			_Beforepoint = 0;

	mov	DWORD PTR __Beforepoint$[ebp], 0

; 1379 : 
; 1380 : 			const char *_Pg = _Grouping.c_str();

	lea	ecx, DWORD PTR __Grouping$[ebp]
	call	?c_str@?$basic_string@DU?$char_traits@D@std@@V?$allocator@D@2@@std@@QBEPBDXZ ; std::basic_string<char,std::char_traits<char>,std::allocator<char> >::c_str
	mov	DWORD PTR __Pg$140406[ebp], eax

; 1381 : 			size_t _Off = _CSTD strcspn(&_Groupstring[0], &_Enders[0]);

	lea	ecx, DWORD PTR __Enders$[ebp]
	push	ecx
	push	0
	lea	ecx, DWORD PTR __Groupstring$[ebp]
	call	??A?$basic_string@DU?$char_traits@D@std@@V?$allocator@D@2@@std@@QAEAADI@Z ; std::basic_string<char,std::char_traits<char>,std::allocator<char> >::operator[]
	push	eax
	call	_strcspn
	add	esp, 8
	mov	DWORD PTR __Off$140407[ebp], eax
$LN9@Fput:

; 1382 : 			while (*_Pg != CHAR_MAX && '\0' < *_Pg
; 1383 : 				&& (size_t)*_Pg < _Off - _Prefix)

	mov	edx, DWORD PTR __Pg$140406[ebp]
	movsx	eax, BYTE PTR [edx]
	cmp	eax, 127				; 0000007fH
	je	SHORT $LN8@Fput
	mov	ecx, DWORD PTR __Pg$140406[ebp]
	movsx	edx, BYTE PTR [ecx]
	test	edx, edx
	jle	SHORT $LN8@Fput
	mov	eax, DWORD PTR __Pg$140406[ebp]
	movsx	ecx, BYTE PTR [eax]
	mov	edx, DWORD PTR __Off$140407[ebp]
	sub	edx, DWORD PTR __Prefix$[ebp]
	cmp	ecx, edx
	jae	SHORT $LN8@Fput

; 1384 : 				{	// add a NUL to mark thousands separator
; 1385 : 				_Groupstring.insert(_Off -= *_Pg, (size_t)1, '\0');

	mov	eax, DWORD PTR __Pg$140406[ebp]
	movsx	ecx, BYTE PTR [eax]
	mov	edx, DWORD PTR __Off$140407[ebp]
	sub	edx, ecx
	mov	DWORD PTR __Off$140407[ebp], edx
	push	0
	push	1
	mov	eax, DWORD PTR __Off$140407[ebp]
	push	eax
	lea	ecx, DWORD PTR __Groupstring$[ebp]
	call	?insert@?$basic_string@DU?$char_traits@D@std@@V?$allocator@D@2@@std@@QAEAAV12@IID@Z ; std::basic_string<char,std::char_traits<char>,std::allocator<char> >::insert

; 1386 : 				if ('\0' < _Pg[1])

	mov	ecx, DWORD PTR __Pg$140406[ebp]
	movsx	edx, BYTE PTR [ecx+1]
	test	edx, edx
	jle	SHORT $LN7@Fput

; 1387 : 					++_Pg;	// not last group, advance

	mov	eax, DWORD PTR __Pg$140406[ebp]
	add	eax, 1
	mov	DWORD PTR __Pg$140406[ebp], eax
$LN7@Fput:

; 1388 : 				}

	jmp	SHORT $LN9@Fput
$LN8@Fput:

; 1389 : 
; 1390 : 			_Buf = &_Groupstring[0];

	push	0
	lea	ecx, DWORD PTR __Groupstring$[ebp]
	call	??A?$basic_string@DU?$char_traits@D@std@@V?$allocator@D@2@@std@@QAEAADI@Z ; std::basic_string<char,std::char_traits<char>,std::allocator<char> >::operator[]
	mov	DWORD PTR __Buf$[ebp], eax

; 1391 : 			_Trailing = 0;

	mov	DWORD PTR __Trailing$[ebp], 0

; 1392 : 			_Count = _Groupstring.size();

	lea	ecx, DWORD PTR __Groupstring$[ebp]
	call	?size@?$basic_string@DU?$char_traits@D@std@@V?$allocator@D@2@@std@@QBEIXZ ; std::basic_string<char,std::char_traits<char>,std::allocator<char> >::size
	mov	DWORD PTR __Count$[ebp], eax
$LN15@Fput:

; 1393 : 			}
; 1394 : 
; 1395 : 		size_t _Fillcount = _Beforepoint + _Afterpoint + _Trailing + _Count;

	mov	ecx, DWORD PTR __Beforepoint$[ebp]
	add	ecx, DWORD PTR __Afterpoint$[ebp]
	add	ecx, DWORD PTR __Trailing$[ebp]
	add	ecx, DWORD PTR __Count$[ebp]
	mov	DWORD PTR __Fillcount$[ebp], ecx

; 1396 : 		_Fillcount = _Iosbase.width() <= 0
; 1397 : 			|| (size_t)_Iosbase.width() <= _Fillcount
; 1398 : 				? 0 : (size_t)_Iosbase.width() - _Fillcount;

	mov	ecx, DWORD PTR __Iosbase$[ebp]
	call	?width@ios_base@std@@QBE_JXZ		; std::ios_base::width
	mov	DWORD PTR tv447[ebp], eax
	mov	DWORD PTR tv447[ebp+4], edx
	cmp	DWORD PTR tv447[ebp+4], 0
	jl	SHORT $LN21@Fput
	jg	SHORT $LN28@Fput
	cmp	DWORD PTR tv447[ebp], 0
	jbe	SHORT $LN21@Fput
$LN28@Fput:
	mov	ecx, DWORD PTR __Iosbase$[ebp]
	call	?width@ios_base@std@@QBE_JXZ		; std::ios_base::width
	cmp	eax, DWORD PTR __Fillcount$[ebp]
	jbe	SHORT $LN21@Fput
	mov	ecx, DWORD PTR __Iosbase$[ebp]
	call	?width@ios_base@std@@QBE_JXZ		; std::ios_base::width
	sub	eax, DWORD PTR __Fillcount$[ebp]
	mov	DWORD PTR tv222[ebp], eax
	jmp	SHORT $LN22@Fput
$LN21@Fput:
	mov	DWORD PTR tv222[ebp], 0
$LN22@Fput:
	mov	edx, DWORD PTR tv222[ebp]
	mov	DWORD PTR __Fillcount$[ebp], edx

; 1399 : 		ios_base::fmtflags _Adjustfield =
; 1400 : 			_Iosbase.flags() & ios_base::adjustfield;

	mov	ecx, DWORD PTR __Iosbase$[ebp]
	call	?flags@ios_base@std@@QBEHXZ		; std::ios_base::flags
	and	eax, 448				; 000001c0H
	mov	DWORD PTR __Adjustfield$[ebp], eax

; 1401 : 		if (_Adjustfield != ios_base::left
; 1402 : 			&& _Adjustfield != ios_base::internal)

	cmp	DWORD PTR __Adjustfield$[ebp], 64	; 00000040H
	je	SHORT $LN6@Fput
	cmp	DWORD PTR __Adjustfield$[ebp], 256	; 00000100H
	je	SHORT $LN6@Fput

; 1403 : 			{	// put leading fill
; 1404 : 			_Dest = _Rep(_Dest, _Fill, _Fillcount);

	mov	eax, DWORD PTR __Fillcount$[ebp]
	push	eax
	movzx	ecx, BYTE PTR __Fill$[ebp]
	push	ecx
	mov	edx, DWORD PTR __Dest$[ebp+4]
	push	edx
	mov	eax, DWORD PTR __Dest$[ebp]
	push	eax
	lea	ecx, DWORD PTR $T147783[ebp]
	push	ecx
	mov	edx, DWORD PTR _this$[ebp]
	push	edx
	call	?_Rep@?$num_put@DV?$ostreambuf_iterator@DU?$char_traits@D@std@@@std@@@std@@ABA?AV?$ostreambuf_iterator@DU?$char_traits@D@std@@@2@V32@DI@Z ; std::num_put<char,std::ostreambuf_iterator<char,std::char_traits<char> > >::_Rep
	add	esp, 24					; 00000018H
	mov	ecx, DWORD PTR [eax]
	mov	edx, DWORD PTR [eax+4]
	mov	DWORD PTR __Dest$[ebp], ecx
	mov	DWORD PTR __Dest$[ebp+4], edx

; 1405 : 			_Fillcount = 0;

	mov	DWORD PTR __Fillcount$[ebp], 0
	jmp	$LN5@Fput
$LN6@Fput:

; 1406 : 			}
; 1407 : 		else if (_Adjustfield == ios_base::internal)

	cmp	DWORD PTR __Adjustfield$[ebp], 256	; 00000100H
	jne	$LN5@Fput

; 1408 : 			{	// put internal fill
; 1409 : 			if (0 < _Prefix)

	cmp	DWORD PTR __Prefix$[ebp], 0
	jbe	SHORT $LN3@Fput

; 1410 : 				{	// but first put sign
; 1411 : 				_Dest = _Putc(_Dest, _Buf, 1);

	push	1
	mov	eax, DWORD PTR __Buf$[ebp]
	push	eax
	mov	ecx, DWORD PTR __Dest$[ebp+4]
	push	ecx
	mov	edx, DWORD PTR __Dest$[ebp]
	push	edx
	lea	eax, DWORD PTR $T147784[ebp]
	push	eax
	mov	ecx, DWORD PTR _this$[ebp]
	push	ecx
	call	?_Putc@?$num_put@DV?$ostreambuf_iterator@DU?$char_traits@D@std@@@std@@@std@@ABA?AV?$ostreambuf_iterator@DU?$char_traits@D@std@@@2@V32@PBDI@Z ; std::num_put<char,std::ostreambuf_iterator<char,std::char_traits<char> > >::_Putc
	add	esp, 24					; 00000018H
	mov	edx, DWORD PTR [eax]
	mov	eax, DWORD PTR [eax+4]
	mov	DWORD PTR __Dest$[ebp], edx
	mov	DWORD PTR __Dest$[ebp+4], eax

; 1412 : 				++_Buf, --_Count;

	mov	ecx, DWORD PTR __Buf$[ebp]
	add	ecx, 1
	mov	DWORD PTR __Buf$[ebp], ecx
	mov	edx, DWORD PTR __Count$[ebp]
	sub	edx, 1
	mov	DWORD PTR __Count$[ebp], edx
$LN3@Fput:

; 1413 : 				}
; 1414 : 			_Dest = _Rep(_Dest, _Fill, _Fillcount);

	mov	eax, DWORD PTR __Fillcount$[ebp]
	push	eax
	movzx	ecx, BYTE PTR __Fill$[ebp]
	push	ecx
	mov	edx, DWORD PTR __Dest$[ebp+4]
	push	edx
	mov	eax, DWORD PTR __Dest$[ebp]
	push	eax
	lea	ecx, DWORD PTR $T147785[ebp]
	push	ecx
	mov	edx, DWORD PTR _this$[ebp]
	push	edx
	call	?_Rep@?$num_put@DV?$ostreambuf_iterator@DU?$char_traits@D@std@@@std@@@std@@ABA?AV?$ostreambuf_iterator@DU?$char_traits@D@std@@@2@V32@DI@Z ; std::num_put<char,std::ostreambuf_iterator<char,std::char_traits<char> > >::_Rep
	add	esp, 24					; 00000018H
	mov	ecx, DWORD PTR [eax]
	mov	edx, DWORD PTR [eax+4]
	mov	DWORD PTR __Dest$[ebp], ecx
	mov	DWORD PTR __Dest$[ebp+4], edx

; 1415 : 			_Fillcount = 0;

	mov	DWORD PTR __Fillcount$[ebp], 0
$LN5@Fput:

; 1416 : 			}
; 1417 : 
; 1418 : 		_Pointptr = (const char *)_CSTD memchr(_Buf,
; 1419 : 			_Enders[0], _Count);	// find decimal point again

	mov	eax, DWORD PTR __Count$[ebp]
	push	eax
	movsx	ecx, BYTE PTR __Enders$[ebp]
	push	ecx
	mov	edx, DWORD PTR __Buf$[ebp]
	push	edx
	call	_memchr
	add	esp, 12					; 0000000cH
	mov	DWORD PTR __Pointptr$[ebp], eax

; 1420 : 		if (_Pointptr != 0)

	cmp	DWORD PTR __Pointptr$[ebp], 0
	je	$LN2@Fput

; 1421 : 			{	// has decimal point, put pieces and zero fills
; 1422 : 			size_t _Fracoffset = _Pointptr - _Buf + 1;

	mov	eax, DWORD PTR __Pointptr$[ebp]
	sub	eax, DWORD PTR __Buf$[ebp]
	add	eax, 1
	mov	DWORD PTR __Fracoffset$140427[ebp], eax

; 1423 : 			_Dest = _Putgrouped(_Dest, _Buf, _Fracoffset - 1, _Kseparator);

	movzx	ecx, BYTE PTR __Kseparator$[ebp]
	push	ecx
	mov	edx, DWORD PTR __Fracoffset$140427[ebp]
	sub	edx, 1
	push	edx
	mov	eax, DWORD PTR __Buf$[ebp]
	push	eax
	mov	ecx, DWORD PTR __Dest$[ebp+4]
	push	ecx
	mov	edx, DWORD PTR __Dest$[ebp]
	push	edx
	lea	eax, DWORD PTR $T147786[ebp]
	push	eax
	mov	ecx, DWORD PTR _this$[ebp]
	push	ecx
	call	?_Putgrouped@?$num_put@DV?$ostreambuf_iterator@DU?$char_traits@D@std@@@std@@@std@@ABA?AV?$ostreambuf_iterator@DU?$char_traits@D@std@@@2@V32@PBDID@Z ; std::num_put<char,std::ostreambuf_iterator<char,std::char_traits<char> > >::_Putgrouped
	add	esp, 28					; 0000001cH
	mov	edx, DWORD PTR [eax]
	mov	eax, DWORD PTR [eax+4]
	mov	DWORD PTR __Dest$[ebp], edx
	mov	DWORD PTR __Dest$[ebp+4], eax

; 1424 : 			_Dest = _Rep(_Dest, _E0, _Beforepoint);

	mov	ecx, DWORD PTR __Beforepoint$[ebp]
	push	ecx
	movzx	edx, BYTE PTR __E0$[ebp]
	push	edx
	mov	eax, DWORD PTR __Dest$[ebp+4]
	push	eax
	mov	ecx, DWORD PTR __Dest$[ebp]
	push	ecx
	lea	edx, DWORD PTR $T147787[ebp]
	push	edx
	mov	eax, DWORD PTR _this$[ebp]
	push	eax
	call	?_Rep@?$num_put@DV?$ostreambuf_iterator@DU?$char_traits@D@std@@@std@@@std@@ABA?AV?$ostreambuf_iterator@DU?$char_traits@D@std@@@2@V32@DI@Z ; std::num_put<char,std::ostreambuf_iterator<char,std::char_traits<char> > >::_Rep
	add	esp, 24					; 00000018H
	mov	ecx, DWORD PTR [eax]
	mov	edx, DWORD PTR [eax+4]
	mov	DWORD PTR __Dest$[ebp], ecx
	mov	DWORD PTR __Dest$[ebp+4], edx

; 1425 : 			_Dest = _Rep(_Dest, _Punct_fac.decimal_point(), 1);

	push	1
	mov	ecx, DWORD PTR __Punct_fac$[ebp]
	call	?decimal_point@?$numpunct@D@std@@QBEDXZ	; std::numpunct<char>::decimal_point
	movzx	eax, al
	push	eax
	mov	ecx, DWORD PTR __Dest$[ebp+4]
	push	ecx
	mov	edx, DWORD PTR __Dest$[ebp]
	push	edx
	lea	eax, DWORD PTR $T147788[ebp]
	push	eax
	mov	ecx, DWORD PTR _this$[ebp]
	push	ecx
	call	?_Rep@?$num_put@DV?$ostreambuf_iterator@DU?$char_traits@D@std@@@std@@@std@@ABA?AV?$ostreambuf_iterator@DU?$char_traits@D@std@@@2@V32@DI@Z ; std::num_put<char,std::ostreambuf_iterator<char,std::char_traits<char> > >::_Rep
	add	esp, 24					; 00000018H
	mov	edx, DWORD PTR [eax]
	mov	eax, DWORD PTR [eax+4]
	mov	DWORD PTR __Dest$[ebp], edx
	mov	DWORD PTR __Dest$[ebp+4], eax

; 1426 : 			_Dest = _Rep(_Dest, _E0, _Afterpoint);

	mov	ecx, DWORD PTR __Afterpoint$[ebp]
	push	ecx
	movzx	edx, BYTE PTR __E0$[ebp]
	push	edx
	mov	eax, DWORD PTR __Dest$[ebp+4]
	push	eax
	mov	ecx, DWORD PTR __Dest$[ebp]
	push	ecx
	lea	edx, DWORD PTR $T147789[ebp]
	push	edx
	mov	eax, DWORD PTR _this$[ebp]
	push	eax
	call	?_Rep@?$num_put@DV?$ostreambuf_iterator@DU?$char_traits@D@std@@@std@@@std@@ABA?AV?$ostreambuf_iterator@DU?$char_traits@D@std@@@2@V32@DI@Z ; std::num_put<char,std::ostreambuf_iterator<char,std::char_traits<char> > >::_Rep
	add	esp, 24					; 00000018H
	mov	ecx, DWORD PTR [eax]
	mov	edx, DWORD PTR [eax+4]
	mov	DWORD PTR __Dest$[ebp], ecx
	mov	DWORD PTR __Dest$[ebp+4], edx

; 1427 : 			_Buf += _Fracoffset, _Count -= _Fracoffset;

	mov	eax, DWORD PTR __Buf$[ebp]
	add	eax, DWORD PTR __Fracoffset$140427[ebp]
	mov	DWORD PTR __Buf$[ebp], eax
	mov	ecx, DWORD PTR __Count$[ebp]
	sub	ecx, DWORD PTR __Fracoffset$140427[ebp]
	mov	DWORD PTR __Count$[ebp], ecx
$LN2@Fput:

; 1428 : 			}
; 1429 : 
; 1430 : 		_Eptr = (const char *)_CSTD memchr(_Buf,
; 1431 : 			'e', _Count);	// find exponent again

	mov	edx, DWORD PTR __Count$[ebp]
	push	edx
	push	101					; 00000065H
	mov	eax, DWORD PTR __Buf$[ebp]
	push	eax
	call	_memchr
	add	esp, 12					; 0000000cH
	mov	DWORD PTR __Eptr$[ebp], eax

; 1432 : 		if (_Eptr != 0)

	cmp	DWORD PTR __Eptr$[ebp], 0
	je	$LN1@Fput

; 1433 : 			{	// has exponent field, put it out
; 1434 : 			size_t _Expoffset = _Eptr - _Buf + 1;

	mov	ecx, DWORD PTR __Eptr$[ebp]
	sub	ecx, DWORD PTR __Buf$[ebp]
	add	ecx, 1
	mov	DWORD PTR __Expoffset$140434[ebp], ecx

; 1435 : 			_Dest = _Putgrouped(_Dest, _Buf, _Expoffset - 1, _Kseparator);

	movzx	edx, BYTE PTR __Kseparator$[ebp]
	push	edx
	mov	eax, DWORD PTR __Expoffset$140434[ebp]
	sub	eax, 1
	push	eax
	mov	ecx, DWORD PTR __Buf$[ebp]
	push	ecx
	mov	edx, DWORD PTR __Dest$[ebp+4]
	push	edx
	mov	eax, DWORD PTR __Dest$[ebp]
	push	eax
	lea	ecx, DWORD PTR $T147790[ebp]
	push	ecx
	mov	edx, DWORD PTR _this$[ebp]
	push	edx
	call	?_Putgrouped@?$num_put@DV?$ostreambuf_iterator@DU?$char_traits@D@std@@@std@@@std@@ABA?AV?$ostreambuf_iterator@DU?$char_traits@D@std@@@2@V32@PBDID@Z ; std::num_put<char,std::ostreambuf_iterator<char,std::char_traits<char> > >::_Putgrouped
	add	esp, 28					; 0000001cH
	mov	ecx, DWORD PTR [eax]
	mov	edx, DWORD PTR [eax+4]
	mov	DWORD PTR __Dest$[ebp], ecx
	mov	DWORD PTR __Dest$[ebp+4], edx

; 1436 : 			_Dest = _Rep(_Dest, _E0, _Trailing), _Trailing = 0;

	mov	eax, DWORD PTR __Trailing$[ebp]
	push	eax
	movzx	ecx, BYTE PTR __E0$[ebp]
	push	ecx
	mov	edx, DWORD PTR __Dest$[ebp+4]
	push	edx
	mov	eax, DWORD PTR __Dest$[ebp]
	push	eax
	lea	ecx, DWORD PTR $T147791[ebp]
	push	ecx
	mov	edx, DWORD PTR _this$[ebp]
	push	edx
	call	?_Rep@?$num_put@DV?$ostreambuf_iterator@DU?$char_traits@D@std@@@std@@@std@@ABA?AV?$ostreambuf_iterator@DU?$char_traits@D@std@@@2@V32@DI@Z ; std::num_put<char,std::ostreambuf_iterator<char,std::char_traits<char> > >::_Rep
	add	esp, 24					; 00000018H
	mov	ecx, DWORD PTR [eax]
	mov	edx, DWORD PTR [eax+4]
	mov	DWORD PTR __Dest$[ebp], ecx
	mov	DWORD PTR __Dest$[ebp+4], edx
	mov	DWORD PTR __Trailing$[ebp], 0

; 1437 : 			_Dest = _Putc(_Dest, _Iosbase.flags() & ios_base::uppercase
; 1438 : 				? "E" : "e", 1);

	mov	ecx, DWORD PTR __Iosbase$[ebp]
	call	?flags@ios_base@std@@QBEHXZ		; std::ios_base::flags
	and	eax, 4
	je	SHORT $LN23@Fput
	mov	DWORD PTR tv357[ebp], OFFSET ??_C@_01DDCIFGEA@E?$AA@
	jmp	SHORT $LN24@Fput
$LN23@Fput:
	mov	DWORD PTR tv357[ebp], OFFSET ??_C@_01KGKMHCOC@e?$AA@
$LN24@Fput:
	push	1
	mov	eax, DWORD PTR tv357[ebp]
	push	eax
	mov	ecx, DWORD PTR __Dest$[ebp+4]
	push	ecx
	mov	edx, DWORD PTR __Dest$[ebp]
	push	edx
	lea	eax, DWORD PTR $T147794[ebp]
	push	eax
	mov	ecx, DWORD PTR _this$[ebp]
	push	ecx
	call	?_Putc@?$num_put@DV?$ostreambuf_iterator@DU?$char_traits@D@std@@@std@@@std@@ABA?AV?$ostreambuf_iterator@DU?$char_traits@D@std@@@2@V32@PBDI@Z ; std::num_put<char,std::ostreambuf_iterator<char,std::char_traits<char> > >::_Putc
	add	esp, 24					; 00000018H
	mov	edx, DWORD PTR [eax]
	mov	eax, DWORD PTR [eax+4]
	mov	DWORD PTR __Dest$[ebp], edx
	mov	DWORD PTR __Dest$[ebp+4], eax

; 1439 : 			_Buf += _Expoffset, _Count -= _Expoffset;

	mov	ecx, DWORD PTR __Buf$[ebp]
	add	ecx, DWORD PTR __Expoffset$140434[ebp]
	mov	DWORD PTR __Buf$[ebp], ecx
	mov	edx, DWORD PTR __Count$[ebp]
	sub	edx, DWORD PTR __Expoffset$140434[ebp]
	mov	DWORD PTR __Count$[ebp], edx
$LN1@Fput:

; 1440 : 			}
; 1441 : 
; 1442 : 		_Dest = _Putgrouped(_Dest, _Buf, _Count,
; 1443 : 			_Kseparator);	// put leftover field

	movzx	eax, BYTE PTR __Kseparator$[ebp]
	push	eax
	mov	ecx, DWORD PTR __Count$[ebp]
	push	ecx
	mov	edx, DWORD PTR __Buf$[ebp]
	push	edx
	mov	eax, DWORD PTR __Dest$[ebp+4]
	push	eax
	mov	ecx, DWORD PTR __Dest$[ebp]
	push	ecx
	lea	edx, DWORD PTR $T147795[ebp]
	push	edx
	mov	eax, DWORD PTR _this$[ebp]
	push	eax
	call	?_Putgrouped@?$num_put@DV?$ostreambuf_iterator@DU?$char_traits@D@std@@@std@@@std@@ABA?AV?$ostreambuf_iterator@DU?$char_traits@D@std@@@2@V32@PBDID@Z ; std::num_put<char,std::ostreambuf_iterator<char,std::char_traits<char> > >::_Putgrouped
	add	esp, 28					; 0000001cH
	mov	ecx, DWORD PTR [eax]
	mov	edx, DWORD PTR [eax+4]
	mov	DWORD PTR __Dest$[ebp], ecx
	mov	DWORD PTR __Dest$[ebp+4], edx

; 1444 : 		_Dest = _Rep(_Dest, _E0, _Trailing);	// put trailing zeros

	mov	eax, DWORD PTR __Trailing$[ebp]
	push	eax
	movzx	ecx, BYTE PTR __E0$[ebp]
	push	ecx
	mov	edx, DWORD PTR __Dest$[ebp+4]
	push	edx
	mov	eax, DWORD PTR __Dest$[ebp]
	push	eax
	lea	ecx, DWORD PTR $T147796[ebp]
	push	ecx
	mov	edx, DWORD PTR _this$[ebp]
	push	edx
	call	?_Rep@?$num_put@DV?$ostreambuf_iterator@DU?$char_traits@D@std@@@std@@@std@@ABA?AV?$ostreambuf_iterator@DU?$char_traits@D@std@@@2@V32@DI@Z ; std::num_put<char,std::ostreambuf_iterator<char,std::char_traits<char> > >::_Rep
	add	esp, 24					; 00000018H
	mov	ecx, DWORD PTR [eax]
	mov	edx, DWORD PTR [eax+4]
	mov	DWORD PTR __Dest$[ebp], ecx
	mov	DWORD PTR __Dest$[ebp+4], edx

; 1445 : 		_Iosbase.width(0);

	push	0
	push	0
	mov	ecx, DWORD PTR __Iosbase$[ebp]
	call	?width@ios_base@std@@QAE_J_J@Z		; std::ios_base::width

; 1446 : 		return (_Rep(_Dest, _Fill, _Fillcount));	// put trailing fill

	mov	eax, DWORD PTR __Fillcount$[ebp]
	push	eax
	movzx	ecx, BYTE PTR __Fill$[ebp]
	push	ecx
	mov	edx, DWORD PTR __Dest$[ebp+4]
	push	edx
	mov	eax, DWORD PTR __Dest$[ebp]
	push	eax
	mov	ecx, DWORD PTR ___$ReturnUdt$[ebp]
	push	ecx
	mov	edx, DWORD PTR _this$[ebp]
	push	edx
	call	?_Rep@?$num_put@DV?$ostreambuf_iterator@DU?$char_traits@D@std@@@std@@@std@@ABA?AV?$ostreambuf_iterator@DU?$char_traits@D@std@@@2@V32@DI@Z ; std::num_put<char,std::ostreambuf_iterator<char,std::char_traits<char> > >::_Rep
	add	esp, 24					; 00000018H
	mov	BYTE PTR __$EHRec$[ebp+8], 1
	lea	ecx, DWORD PTR __Groupstring$[ebp]
	call	??1?$basic_string@DU?$char_traits@D@std@@V?$allocator@D@2@@std@@QAE@XZ ; std::basic_string<char,std::char_traits<char>,std::allocator<char> >::~basic_string<char,std::char_traits<char>,std::allocator<char> >
	mov	DWORD PTR __$EHRec$[ebp+8], -1
	lea	ecx, DWORD PTR __Grouping$[ebp]
	call	??1?$basic_string@DU?$char_traits@D@std@@V?$allocator@D@2@@std@@QAE@XZ ; std::basic_string<char,std::char_traits<char>,std::allocator<char> >::~basic_string<char,std::char_traits<char>,std::allocator<char> >
	mov	eax, DWORD PTR ___$ReturnUdt$[ebp]

; 1447 : 		}

	push	edx
	mov	ecx, ebp
	push	eax
	lea	edx, DWORD PTR $LN34@Fput
	call	@_RTC_CheckStackVars@8
	pop	eax
	pop	edx
	mov	ecx, DWORD PTR __$EHRec$[ebp]
	mov	DWORD PTR fs:0, ecx
	pop	ecx
	pop	edi
	mov	ecx, DWORD PTR __$ArrayPad$[ebp]
	xor	ecx, ebp
	call	@__security_check_cookie@4
	add	esp, 284				; 0000011cH
	cmp	ebp, esp
	call	__RTC_CheckEsp
	mov	esp, ebp
	pop	ebp
	ret	0
	npad	3
$LN34@Fput:
	DD	3
	DD	$LN33@Fput
$LN33@Fput:
	DD	-56					; ffffffc8H
	DD	32					; 00000020H
	DD	$LN29@Fput
	DD	-100					; ffffff9cH
	DD	32					; 00000020H
	DD	$LN30@Fput
	DD	-120					; ffffff88H
	DD	3
	DD	$LN31@Fput
$LN31@Fput:
	DB	95					; 0000005fH
	DB	69					; 00000045H
	DB	110					; 0000006eH
	DB	100					; 00000064H
	DB	101					; 00000065H
	DB	114					; 00000072H
	DB	115					; 00000073H
	DB	0
$LN30@Fput:
	DB	95					; 0000005fH
	DB	71					; 00000047H
	DB	114					; 00000072H
	DB	111					; 0000006fH
	DB	117					; 00000075H
	DB	112					; 00000070H
	DB	115					; 00000073H
	DB	116					; 00000074H
	DB	114					; 00000072H
	DB	105					; 00000069H
	DB	110					; 0000006eH
	DB	103					; 00000067H
	DB	0
$LN29@Fput:
	DB	95					; 0000005fH
	DB	71					; 00000047H
	DB	114					; 00000072H
	DB	111					; 0000006fH
	DB	117					; 00000075H
	DB	112					; 00000070H
	DB	105					; 00000069H
	DB	110					; 0000006eH
	DB	103					; 00000067H
	DB	0
_TEXT	ENDS
;	COMDAT text$x
text$x	SEGMENT
__unwindfunclet$?_Fput@?$num_put@DV?$ostreambuf_iterator@DU?$char_traits@D@std@@@std@@@std@@ABA?AV?$ostreambuf_iterator@DU?$char_traits@D@std@@@2@V32@AAVios_base@2@DPBDIIII@Z$0:
	lea	ecx, DWORD PTR $T147778[ebp]
	jmp	??1locale@std@@QAE@XZ			; std::locale::~locale
__unwindfunclet$?_Fput@?$num_put@DV?$ostreambuf_iterator@DU?$char_traits@D@std@@@std@@@std@@ABA?AV?$ostreambuf_iterator@DU?$char_traits@D@std@@@2@V32@AAVios_base@2@DPBDIIII@Z$1:
	lea	ecx, DWORD PTR __Grouping$[ebp]
	jmp	??1?$basic_string@DU?$char_traits@D@std@@V?$allocator@D@2@@std@@QAE@XZ ; std::basic_string<char,std::char_traits<char>,std::allocator<char> >::~basic_string<char,std::char_traits<char>,std::allocator<char> >
__unwindfunclet$?_Fput@?$num_put@DV?$ostreambuf_iterator@DU?$char_traits@D@std@@@std@@@std@@ABA?AV?$ostreambuf_iterator@DU?$char_traits@D@std@@@2@V32@AAVios_base@2@DPBDIIII@Z$2:
	lea	ecx, DWORD PTR __Groupstring$[ebp]
	jmp	??1?$basic_string@DU?$char_traits@D@std@@V?$allocator@D@2@@std@@QAE@XZ ; std::basic_string<char,std::char_traits<char>,std::allocator<char> >::~basic_string<char,std::char_traits<char>,std::allocator<char> >
__ehhandler$?_Fput@?$num_put@DV?$ostreambuf_iterator@DU?$char_traits@D@std@@@std@@@std@@ABA?AV?$ostreambuf_iterator@DU?$char_traits@D@std@@@2@V32@AAVios_base@2@DPBDIIII@Z:
	mov	edx, DWORD PTR [esp+8]
	lea	eax, DWORD PTR [edx+12]
	mov	ecx, DWORD PTR [edx-280]
	xor	ecx, eax
	call	@__security_check_cookie@4
	mov	ecx, DWORD PTR [edx-4]
	xor	ecx, eax
	call	@__security_check_cookie@4
	mov	eax, OFFSET __ehfuncinfo$?_Fput@?$num_put@DV?$ostreambuf_iterator@DU?$char_traits@D@std@@@std@@@std@@ABA?AV?$ostreambuf_iterator@DU?$char_traits@D@std@@@2@V32@AAVios_base@2@DPBDIIII@Z
	jmp	___CxxFrameHandler3
text$x	ENDS
?_Fput@?$num_put@DV?$ostreambuf_iterator@DU?$char_traits@D@std@@@std@@@std@@ABA?AV?$ostreambuf_iterator@DU?$char_traits@D@std@@@2@V32@AAVios_base@2@DPBDIIII@Z ENDP ; std::num_put<char,std::ostreambuf_iterator<char,std::char_traits<char> > >::_Fput
PUBLIC	?_Chassign@?$basic_string@DU?$char_traits@D@std@@V?$allocator@D@2@@std@@QAEXIID@Z ; std::basic_string<char,std::char_traits<char>,std::allocator<char> >::_Chassign
; Function compile flags: /Odtp /RTCsu
; File c:\program files (x86)\microsoft visual studio 10.0\vc\include\xstring
;	COMDAT ?append@?$basic_string@DU?$char_traits@D@std@@V?$allocator@D@2@@std@@QAEAAV12@ID@Z
_TEXT	SEGMENT
__Num$ = -8						; size = 4
_this$ = -4						; size = 4
__Count$ = 8						; size = 4
__Ch$ = 12						; size = 1
?append@?$basic_string@DU?$char_traits@D@std@@V?$allocator@D@2@@std@@QAEAAV12@ID@Z PROC ; std::basic_string<char,std::char_traits<char>,std::allocator<char> >::append, COMDAT
; _this$ = ecx

; 844  : 		{	// append _Count * _Ch

	push	ebp
	mov	ebp, esp
	sub	esp, 8
	mov	DWORD PTR [ebp-8], -858993460		; ccccccccH
	mov	DWORD PTR [ebp-4], -858993460		; ccccccccH
	mov	DWORD PTR _this$[ebp], ecx

; 845  : 		if (npos - this->_Mysize <= _Count)

	mov	eax, DWORD PTR _this$[ebp]
	mov	ecx, DWORD PTR ?npos@?$basic_string@DU?$char_traits@D@std@@V?$allocator@D@2@@std@@2IB ; std::basic_string<char,std::char_traits<char>,std::allocator<char> >::npos
	sub	ecx, DWORD PTR [eax+20]
	cmp	ecx, DWORD PTR __Count$[ebp]
	ja	SHORT $LN2@append

; 846  : 			_Xlen();	// result too long

	mov	ecx, DWORD PTR _this$[ebp]
	call	?_Xlen@?$basic_string@DU?$char_traits@D@std@@V?$allocator@D@2@@std@@QBEXXZ ; std::basic_string<char,std::char_traits<char>,std::allocator<char> >::_Xlen
$LN2@append:

; 847  : 
; 848  : 		size_type _Num;
; 849  : 		if (0 < _Count && _Grow(_Num = this->_Mysize + _Count))

	cmp	DWORD PTR __Count$[ebp], 0
	jbe	SHORT $LN1@append
	mov	edx, DWORD PTR _this$[ebp]
	mov	eax, DWORD PTR [edx+20]
	add	eax, DWORD PTR __Count$[ebp]
	mov	DWORD PTR __Num$[ebp], eax
	push	0
	mov	ecx, DWORD PTR __Num$[ebp]
	push	ecx
	mov	ecx, DWORD PTR _this$[ebp]
	call	?_Grow@?$basic_string@DU?$char_traits@D@std@@V?$allocator@D@2@@std@@QAE_NI_N@Z ; std::basic_string<char,std::char_traits<char>,std::allocator<char> >::_Grow
	movzx	edx, al
	test	edx, edx
	je	SHORT $LN1@append

; 850  : 			{	// make room and append new stuff using assign
; 851  : 			_Chassign(this->_Mysize, _Count, _Ch);

	movzx	eax, BYTE PTR __Ch$[ebp]
	push	eax
	mov	ecx, DWORD PTR __Count$[ebp]
	push	ecx
	mov	edx, DWORD PTR _this$[ebp]
	mov	eax, DWORD PTR [edx+20]
	push	eax
	mov	ecx, DWORD PTR _this$[ebp]
	call	?_Chassign@?$basic_string@DU?$char_traits@D@std@@V?$allocator@D@2@@std@@QAEXIID@Z ; std::basic_string<char,std::char_traits<char>,std::allocator<char> >::_Chassign

; 852  : 			_Eos(_Num);

	mov	ecx, DWORD PTR __Num$[ebp]
	push	ecx
	mov	ecx, DWORD PTR _this$[ebp]
	call	?_Eos@?$basic_string@DU?$char_traits@D@std@@V?$allocator@D@2@@std@@QAEXI@Z ; std::basic_string<char,std::char_traits<char>,std::allocator<char> >::_Eos
$LN1@append:

; 853  : 			}
; 854  : 		return (*this);

	mov	eax, DWORD PTR _this$[ebp]
$LN4@append:

; 855  : 		}

	add	esp, 8
	cmp	ebp, esp
	call	__RTC_CheckEsp
	mov	esp, ebp
	pop	ebp
	ret	8
?append@?$basic_string@DU?$char_traits@D@std@@V?$allocator@D@2@@std@@QAEAAV12@ID@Z ENDP ; std::basic_string<char,std::char_traits<char>,std::allocator<char> >::append
; Function compile flags: /Odtp /RTCsu
_TEXT	ENDS
;	COMDAT ?insert@?$basic_string@DU?$char_traits@D@std@@V?$allocator@D@2@@std@@QAEAAV12@IID@Z
_TEXT	SEGMENT
__Num$ = -8						; size = 4
_this$ = -4						; size = 4
__Off$ = 8						; size = 4
__Count$ = 12						; size = 4
__Ch$ = 16						; size = 1
?insert@?$basic_string@DU?$char_traits@D@std@@V?$allocator@D@2@@std@@QAEAAV12@IID@Z PROC ; std::basic_string<char,std::char_traits<char>,std::allocator<char> >::insert, COMDAT
; _this$ = ecx

; 1040 : 		{	// insert _Count * _Ch at _Off

	push	ebp
	mov	ebp, esp
	sub	esp, 8
	mov	DWORD PTR [ebp-8], -858993460		; ccccccccH
	mov	DWORD PTR [ebp-4], -858993460		; ccccccccH
	mov	DWORD PTR _this$[ebp], ecx

; 1041 : 		if (this->_Mysize < _Off)

	mov	eax, DWORD PTR _this$[ebp]
	mov	ecx, DWORD PTR [eax+20]
	cmp	ecx, DWORD PTR __Off$[ebp]
	jae	SHORT $LN3@insert@2

; 1042 : 			_Xran();	// _Off off end

	mov	ecx, DWORD PTR _this$[ebp]
	call	?_Xran@?$basic_string@DU?$char_traits@D@std@@V?$allocator@D@2@@std@@QBEXXZ ; std::basic_string<char,std::char_traits<char>,std::allocator<char> >::_Xran
$LN3@insert@2:

; 1043 : 		if (npos - this->_Mysize <= _Count)

	mov	edx, DWORD PTR _this$[ebp]
	mov	eax, DWORD PTR ?npos@?$basic_string@DU?$char_traits@D@std@@V?$allocator@D@2@@std@@2IB ; std::basic_string<char,std::char_traits<char>,std::allocator<char> >::npos
	sub	eax, DWORD PTR [edx+20]
	cmp	eax, DWORD PTR __Count$[ebp]
	ja	SHORT $LN2@insert@2

; 1044 : 			_Xlen();	// result too long

	mov	ecx, DWORD PTR _this$[ebp]
	call	?_Xlen@?$basic_string@DU?$char_traits@D@std@@V?$allocator@D@2@@std@@QBEXXZ ; std::basic_string<char,std::char_traits<char>,std::allocator<char> >::_Xlen
$LN2@insert@2:

; 1045 : 		size_type _Num;
; 1046 : 		if (0 < _Count && _Grow(_Num = this->_Mysize + _Count))

	cmp	DWORD PTR __Count$[ebp], 0
	jbe	SHORT $LN1@insert@2
	mov	ecx, DWORD PTR _this$[ebp]
	mov	edx, DWORD PTR [ecx+20]
	add	edx, DWORD PTR __Count$[ebp]
	mov	DWORD PTR __Num$[ebp], edx
	push	0
	mov	eax, DWORD PTR __Num$[ebp]
	push	eax
	mov	ecx, DWORD PTR _this$[ebp]
	call	?_Grow@?$basic_string@DU?$char_traits@D@std@@V?$allocator@D@2@@std@@QAE_NI_N@Z ; std::basic_string<char,std::char_traits<char>,std::allocator<char> >::_Grow
	movzx	ecx, al
	test	ecx, ecx
	je	SHORT $LN1@insert@2

; 1047 : 			{	// make room and insert new stuff
; 1048 : 			_Traits::move(_Myptr() + _Off + _Count,
; 1049 : 				_Myptr() + _Off, this->_Mysize - _Off);	// empty out hole

	mov	edx, DWORD PTR _this$[ebp]
	mov	eax, DWORD PTR [edx+20]
	sub	eax, DWORD PTR __Off$[ebp]
	push	eax
	mov	ecx, DWORD PTR _this$[ebp]
	call	?_Myptr@?$basic_string@DU?$char_traits@D@std@@V?$allocator@D@2@@std@@QAEPADXZ ; std::basic_string<char,std::char_traits<char>,std::allocator<char> >::_Myptr
	add	eax, DWORD PTR __Off$[ebp]
	push	eax
	mov	ecx, DWORD PTR _this$[ebp]
	call	?_Myptr@?$basic_string@DU?$char_traits@D@std@@V?$allocator@D@2@@std@@QAEPADXZ ; std::basic_string<char,std::char_traits<char>,std::allocator<char> >::_Myptr
	add	eax, DWORD PTR __Off$[ebp]
	add	eax, DWORD PTR __Count$[ebp]
	push	eax
	call	?move@?$char_traits@D@std@@SAPADPADPBDI@Z ; std::char_traits<char>::move
	add	esp, 12					; 0000000cH

; 1050 : 			_Chassign(_Off, _Count, _Ch);	// fill hole

	movzx	ecx, BYTE PTR __Ch$[ebp]
	push	ecx
	mov	edx, DWORD PTR __Count$[ebp]
	push	edx
	mov	eax, DWORD PTR __Off$[ebp]
	push	eax
	mov	ecx, DWORD PTR _this$[ebp]
	call	?_Chassign@?$basic_string@DU?$char_traits@D@std@@V?$allocator@D@2@@std@@QAEXIID@Z ; std::basic_string<char,std::char_traits<char>,std::allocator<char> >::_Chassign

; 1051 : 			_Eos(_Num);

	mov	ecx, DWORD PTR __Num$[ebp]
	push	ecx
	mov	ecx, DWORD PTR _this$[ebp]
	call	?_Eos@?$basic_string@DU?$char_traits@D@std@@V?$allocator@D@2@@std@@QAEXI@Z ; std::basic_string<char,std::char_traits<char>,std::allocator<char> >::_Eos
$LN1@insert@2:

; 1052 : 			}
; 1053 : 		return (*this);

	mov	eax, DWORD PTR _this$[ebp]
$LN5@insert@2:

; 1054 : 		}

	add	esp, 8
	cmp	ebp, esp
	call	__RTC_CheckEsp
	mov	esp, ebp
	pop	ebp
	ret	12					; 0000000cH
?insert@?$basic_string@DU?$char_traits@D@std@@V?$allocator@D@2@@std@@QAEAAV12@IID@Z ENDP ; std::basic_string<char,std::char_traits<char>,std::allocator<char> >::insert
_TEXT	ENDS
PUBLIC	?assign@?$char_traits@D@std@@SAPADPADID@Z	; std::char_traits<char>::assign
; Function compile flags: /Odtp /RTCsu
;	COMDAT ?_Chassign@?$basic_string@DU?$char_traits@D@std@@V?$allocator@D@2@@std@@QAEXIID@Z
_TEXT	SEGMENT
_this$ = -4						; size = 4
__Off$ = 8						; size = 4
__Count$ = 12						; size = 4
__Ch$ = 16						; size = 1
?_Chassign@?$basic_string@DU?$char_traits@D@std@@V?$allocator@D@2@@std@@QAEXIID@Z PROC ; std::basic_string<char,std::char_traits<char>,std::allocator<char> >::_Chassign, COMDAT
; _this$ = ecx

; 1910 : 		{	// assign _Count copies of _Ch beginning at _Off

	push	ebp
	mov	ebp, esp
	push	ecx
	mov	DWORD PTR [ebp-4], -858993460		; ccccccccH
	mov	DWORD PTR _this$[ebp], ecx

; 1911 : 		if (_Count == 1)

	cmp	DWORD PTR __Count$[ebp], 1
	jne	SHORT $LN2@Chassign

; 1912 : 			_Traits::assign(*(_Myptr() + _Off), _Ch);

	lea	eax, DWORD PTR __Ch$[ebp]
	push	eax
	mov	ecx, DWORD PTR _this$[ebp]
	call	?_Myptr@?$basic_string@DU?$char_traits@D@std@@V?$allocator@D@2@@std@@QAEPADXZ ; std::basic_string<char,std::char_traits<char>,std::allocator<char> >::_Myptr
	add	eax, DWORD PTR __Off$[ebp]
	push	eax
	call	?assign@?$char_traits@D@std@@SAXAADABD@Z ; std::char_traits<char>::assign
	add	esp, 8

; 1913 : 		else

	jmp	SHORT $LN3@Chassign
$LN2@Chassign:

; 1914 : 			_Traits::assign(_Myptr() + _Off, _Count, _Ch);

	movzx	ecx, BYTE PTR __Ch$[ebp]
	push	ecx
	mov	edx, DWORD PTR __Count$[ebp]
	push	edx
	mov	ecx, DWORD PTR _this$[ebp]
	call	?_Myptr@?$basic_string@DU?$char_traits@D@std@@V?$allocator@D@2@@std@@QAEPADXZ ; std::basic_string<char,std::char_traits<char>,std::allocator<char> >::_Myptr
	add	eax, DWORD PTR __Off$[ebp]
	push	eax
	call	?assign@?$char_traits@D@std@@SAPADPADID@Z ; std::char_traits<char>::assign
	add	esp, 12					; 0000000cH
$LN3@Chassign:

; 1915 : 		}

	add	esp, 4
	cmp	ebp, esp
	call	__RTC_CheckEsp
	mov	esp, ebp
	pop	ebp
	ret	12					; 0000000cH
?_Chassign@?$basic_string@DU?$char_traits@D@std@@V?$allocator@D@2@@std@@QAEXIID@Z ENDP ; std::basic_string<char,std::char_traits<char>,std::allocator<char> >::_Chassign
_TEXT	ENDS
EXTRN	_memset:PROC
; Function compile flags: /Odtp /RTCsu
; File c:\program files (x86)\microsoft visual studio 10.0\vc\include\iosfwd
;	COMDAT ?assign@?$char_traits@D@std@@SAPADPADID@Z
_TEXT	SEGMENT
__First$ = 8						; size = 4
__Count$ = 12						; size = 4
__Ch$ = 16						; size = 1
?assign@?$char_traits@D@std@@SAPADPADID@Z PROC		; std::char_traits<char>::assign, COMDAT

; 521  : 		{	// assign _Count * _Ch to [_First, ...)

	push	ebp
	mov	ebp, esp

; 522  : 		return ((_Elem *)_CSTD memset(_First, _Ch, _Count));

	mov	eax, DWORD PTR __Count$[ebp]
	push	eax
	movsx	ecx, BYTE PTR __Ch$[ebp]
	push	ecx
	mov	edx, DWORD PTR __First$[ebp]
	push	edx
	call	_memset
	add	esp, 12					; 0000000cH

; 523  : 		}

	cmp	ebp, esp
	call	__RTC_CheckEsp
	pop	ebp
	ret	0
?assign@?$char_traits@D@std@@SAPADPADID@Z ENDP		; std::char_traits<char>::assign
; Function compile flags: /Odtp /RTCsu
; File c:\program files (x86)\microsoft visual studio 10.0\vc\include\xlocnum
_TEXT	ENDS
;	COMDAT ?_Ifmt@?$num_put@DV?$ostreambuf_iterator@DU?$char_traits@D@std@@@std@@@std@@ABAPADPADPBDH@Z
_TEXT	SEGMENT
tv85 = -10						; size = 1
tv86 = -9						; size = 1
__Basefield$ = -8					; size = 4
__Ptr$ = -4						; size = 4
_this$ = 8						; size = 4
__Fmt$ = 12						; size = 4
__Spec$ = 16						; size = 4
__Flags$ = 20						; size = 4
?_Ifmt@?$num_put@DV?$ostreambuf_iterator@DU?$char_traits@D@std@@@std@@@std@@ABAPADPADPBDH@Z PROC ; std::num_put<char,std::ostreambuf_iterator<char,std::char_traits<char> > >::_Ifmt, COMDAT

; 1451 : 		{	// generate sprintf format for integer

	push	ebp
	mov	ebp, esp
	sub	esp, 12					; 0000000cH
	mov	DWORD PTR [ebp-12], -858993460		; ccccccccH
	mov	DWORD PTR [ebp-8], -858993460		; ccccccccH
	mov	DWORD PTR [ebp-4], -858993460		; ccccccccH

; 1452 : 		char *_Ptr = _Fmt;

	mov	eax, DWORD PTR __Fmt$[ebp]
	mov	DWORD PTR __Ptr$[ebp], eax

; 1453 : 		*_Ptr++ = '%';

	mov	ecx, DWORD PTR __Ptr$[ebp]
	mov	BYTE PTR [ecx], 37			; 00000025H
	mov	edx, DWORD PTR __Ptr$[ebp]
	add	edx, 1
	mov	DWORD PTR __Ptr$[ebp], edx

; 1454 : 
; 1455 : 		if (_Flags & ios_base::showpos)

	mov	eax, DWORD PTR __Flags$[ebp]
	and	eax, 32					; 00000020H
	je	SHORT $LN4@Ifmt

; 1456 : 			*_Ptr++ = '+';

	mov	ecx, DWORD PTR __Ptr$[ebp]
	mov	BYTE PTR [ecx], 43			; 0000002bH
	mov	edx, DWORD PTR __Ptr$[ebp]
	add	edx, 1
	mov	DWORD PTR __Ptr$[ebp], edx
$LN4@Ifmt:

; 1457 : 		if (_Flags & ios_base::showbase)

	mov	eax, DWORD PTR __Flags$[ebp]
	and	eax, 8
	je	SHORT $LN3@Ifmt

; 1458 : 			*_Ptr++ = '#';

	mov	ecx, DWORD PTR __Ptr$[ebp]
	mov	BYTE PTR [ecx], 35			; 00000023H
	mov	edx, DWORD PTR __Ptr$[ebp]
	add	edx, 1
	mov	DWORD PTR __Ptr$[ebp], edx
$LN3@Ifmt:

; 1459 : 		if (_Spec[0] != 'L')

	mov	eax, DWORD PTR __Spec$[ebp]
	movsx	ecx, BYTE PTR [eax]
	cmp	ecx, 76					; 0000004cH
	je	SHORT $LN2@Ifmt

; 1460 : 			*_Ptr++ = _Spec[0];	// qualifier

	mov	edx, DWORD PTR __Ptr$[ebp]
	mov	eax, DWORD PTR __Spec$[ebp]
	mov	cl, BYTE PTR [eax]
	mov	BYTE PTR [edx], cl
	mov	edx, DWORD PTR __Ptr$[ebp]
	add	edx, 1
	mov	DWORD PTR __Ptr$[ebp], edx

; 1461 : 		else

	jmp	SHORT $LN1@Ifmt
$LN2@Ifmt:

; 1462 : 
; 1463 : 			{	/* change L to I64 */
; 1464 : 			*_Ptr++ = 'I';

	mov	eax, DWORD PTR __Ptr$[ebp]
	mov	BYTE PTR [eax], 73			; 00000049H
	mov	ecx, DWORD PTR __Ptr$[ebp]
	add	ecx, 1
	mov	DWORD PTR __Ptr$[ebp], ecx

; 1465 : 			*_Ptr++ = '6';

	mov	edx, DWORD PTR __Ptr$[ebp]
	mov	BYTE PTR [edx], 54			; 00000036H
	mov	eax, DWORD PTR __Ptr$[ebp]
	add	eax, 1
	mov	DWORD PTR __Ptr$[ebp], eax

; 1466 : 			*_Ptr++ = '4';

	mov	ecx, DWORD PTR __Ptr$[ebp]
	mov	BYTE PTR [ecx], 52			; 00000034H
	mov	edx, DWORD PTR __Ptr$[ebp]
	add	edx, 1
	mov	DWORD PTR __Ptr$[ebp], edx
$LN1@Ifmt:

; 1467 : 			}
; 1468 : 
; 1469 : 		ios_base::fmtflags _Basefield = _Flags & ios_base::basefield;

	mov	eax, DWORD PTR __Flags$[ebp]
	and	eax, 3584				; 00000e00H
	mov	DWORD PTR __Basefield$[ebp], eax

; 1470 : 		*_Ptr++ = _Basefield == ios_base::oct ? 'o'
; 1471 : 			: _Basefield != ios_base::hex ? _Spec[1]	// 'd' or 'u'
; 1472 : 			: _Flags & ios_base::uppercase ? 'X' : 'x';

	cmp	DWORD PTR __Basefield$[ebp], 1024	; 00000400H
	jne	SHORT $LN9@Ifmt
	mov	BYTE PTR tv86[ebp], 111			; 0000006fH
	jmp	SHORT $LN10@Ifmt
$LN9@Ifmt:
	cmp	DWORD PTR __Basefield$[ebp], 2048	; 00000800H
	je	SHORT $LN7@Ifmt
	mov	ecx, DWORD PTR __Spec$[ebp]
	mov	dl, BYTE PTR [ecx+1]
	mov	BYTE PTR tv85[ebp], dl
	jmp	SHORT $LN8@Ifmt
$LN7@Ifmt:
	mov	eax, DWORD PTR __Flags$[ebp]
	and	eax, 4
	neg	eax
	sbb	al, al
	and	al, -32					; ffffffe0H
	add	al, 120					; 00000078H
	mov	BYTE PTR tv85[ebp], al
$LN8@Ifmt:
	mov	cl, BYTE PTR tv85[ebp]
	mov	BYTE PTR tv86[ebp], cl
$LN10@Ifmt:
	mov	edx, DWORD PTR __Ptr$[ebp]
	mov	al, BYTE PTR tv86[ebp]
	mov	BYTE PTR [edx], al
	mov	ecx, DWORD PTR __Ptr$[ebp]
	add	ecx, 1
	mov	DWORD PTR __Ptr$[ebp], ecx

; 1473 : 		*_Ptr = '\0';

	mov	edx, DWORD PTR __Ptr$[ebp]
	mov	BYTE PTR [edx], 0

; 1474 : 		return (_Fmt);

	mov	eax, DWORD PTR __Fmt$[ebp]

; 1475 : 		}

	mov	esp, ebp
	pop	ebp
	ret	0
?_Ifmt@?$num_put@DV?$ostreambuf_iterator@DU?$char_traits@D@std@@@std@@@std@@ABAPADPADPBDH@Z ENDP ; std::num_put<char,std::ostreambuf_iterator<char,std::char_traits<char> > >::_Ifmt
_TEXT	ENDS
PUBLIC	__$ArrayPad$
EXTRN	_memmove_s:PROC
;	COMDAT xdata$x
xdata$x	SEGMENT
__unwindtable$?_Iput@?$num_put@DV?$ostreambuf_iterator@DU?$char_traits@D@std@@@std@@@std@@ABA?AV?$ostreambuf_iterator@DU?$char_traits@D@std@@@2@V32@AAVios_base@2@DPADI@Z DD 0ffffffffH
	DD	FLAT:__unwindfunclet$?_Iput@?$num_put@DV?$ostreambuf_iterator@DU?$char_traits@D@std@@@std@@@std@@ABA?AV?$ostreambuf_iterator@DU?$char_traits@D@std@@@2@V32@AAVios_base@2@DPADI@Z$0
	DD	0ffffffffH
	DD	FLAT:__unwindfunclet$?_Iput@?$num_put@DV?$ostreambuf_iterator@DU?$char_traits@D@std@@@std@@@std@@ABA?AV?$ostreambuf_iterator@DU?$char_traits@D@std@@@2@V32@AAVios_base@2@DPADI@Z$1
__ehfuncinfo$?_Iput@?$num_put@DV?$ostreambuf_iterator@DU?$char_traits@D@std@@@std@@@std@@ABA?AV?$ostreambuf_iterator@DU?$char_traits@D@std@@@2@V32@AAVios_base@2@DPADI@Z DD 019930522H
	DD	02H
	DD	FLAT:__unwindtable$?_Iput@?$num_put@DV?$ostreambuf_iterator@DU?$char_traits@D@std@@@std@@@std@@ABA?AV?$ostreambuf_iterator@DU?$char_traits@D@std@@@2@V32@AAVios_base@2@DPADI@Z
	DD	2 DUP(00H)
	DD	2 DUP(00H)
	DD	00H
	DD	01H
; Function compile flags: /Odtp /RTCsu
xdata$x	ENDS
;	COMDAT ?_Iput@?$num_put@DV?$ostreambuf_iterator@DU?$char_traits@D@std@@@std@@@std@@ABA?AV?$ostreambuf_iterator@DU?$char_traits@D@std@@@2@V32@AAVios_base@2@DPADI@Z
_TEXT	SEGMENT
tv171 = -144						; size = 4
tv261 = -140						; size = 8
tv91 = -132						; size = 4
tv90 = -128						; size = 4
tv219 = -124						; size = 4
tv222 = -120						; size = 4
$T147840 = -116						; size = 8
$T147839 = -108						; size = 8
$T147838 = -100						; size = 8
$T147837 = -92						; size = 8
$T147829 = -84						; size = 4
__Adjustfield$ = -80					; size = 4
__Fillcount$ = -76					; size = 4
__Off$140462 = -72					; size = 4
__Pg$140461 = -68					; size = 4
__Prefix$ = -64						; size = 4
__Grouping$ = -56					; size = 32
__Punct_fac$ = -20					; size = 4
__$ArrayPad$ = -16					; size = 4
__$EHRec$ = -12						; size = 12
_this$ = 8						; size = 4
___$ReturnUdt$ = 12					; size = 4
__Dest$ = 16						; size = 8
__Iosbase$ = 24						; size = 4
__Fill$ = 28						; size = 1
__Buf$ = 32						; size = 4
__Count$ = 36						; size = 4
?_Iput@?$num_put@DV?$ostreambuf_iterator@DU?$char_traits@D@std@@@std@@@std@@ABA?AV?$ostreambuf_iterator@DU?$char_traits@D@std@@@2@V32@AAVios_base@2@DPADI@Z PROC ; std::num_put<char,std::ostreambuf_iterator<char,std::char_traits<char> > >::_Iput, COMDAT

; 1479 : 		{	// put formatted integer to _Dest

	push	ebp
	mov	ebp, esp
	push	-1
	push	__ehhandler$?_Iput@?$num_put@DV?$ostreambuf_iterator@DU?$char_traits@D@std@@@std@@@std@@ABA?AV?$ostreambuf_iterator@DU?$char_traits@D@std@@@2@V32@AAVios_base@2@DPADI@Z
	mov	eax, DWORD PTR fs:0
	push	eax
	sub	esp, 132				; 00000084H
	push	edi
	lea	edi, DWORD PTR [ebp-144]
	mov	ecx, 33					; 00000021H
	mov	eax, -858993460				; ccccccccH
	rep stosd
	mov	eax, DWORD PTR ___security_cookie
	xor	eax, ebp
	mov	DWORD PTR __$ArrayPad$[ebp], eax
	push	eax
	lea	eax, DWORD PTR __$EHRec$[ebp]
	mov	DWORD PTR fs:0, eax

; 1480 : 		_DEBUG_POINTER(_Dest);

	push	1480					; 000005c8H
	push	OFFSET ??_C@_1IO@NAGBLLMA@?$AAc?$AA?3?$AA?2?$AAP?$AAr?$AAo?$AAg?$AAr?$AAa?$AAm?$AA?5?$AAF?$AAi?$AAl?$AAe?$AAs?$AA?5?$AA?$CI?$AAx?$AA8?$AA6?$AA?$CJ?$AA?2?$AAM?$AAi?$AAc?$AAr?$AAo?$AAs?$AAo?$AAf?$AAt@
	lea	eax, DWORD PTR __Dest$[ebp]
	push	eax
	call	??$_Debug_pointer@V?$ostreambuf_iterator@DU?$char_traits@D@std@@@std@@@std@@YAXAAV?$ostreambuf_iterator@DU?$char_traits@D@std@@@0@PB_WI@Z ; std::_Debug_pointer<std::ostreambuf_iterator<char,std::char_traits<char> > >
	add	esp, 12					; 0000000cH

; 1481 : 		const _Mypunct& _Punct_fac = _USE(_Iosbase.getloc(), _Mypunct);

	lea	ecx, DWORD PTR $T147829[ebp]
	push	ecx
	mov	ecx, DWORD PTR __Iosbase$[ebp]
	call	?getloc@ios_base@std@@QBE?AVlocale@2@XZ	; std::ios_base::getloc
	mov	DWORD PTR tv222[ebp], eax
	mov	edx, DWORD PTR tv222[ebp]
	mov	DWORD PTR tv219[ebp], edx
	mov	DWORD PTR __$EHRec$[ebp+8], 0
	mov	eax, DWORD PTR tv219[ebp]
	push	eax
	call	??$use_facet@V?$numpunct@D@std@@@std@@YAABV?$numpunct@D@0@ABVlocale@0@@Z ; std::use_facet<std::numpunct<char> >
	add	esp, 4
	mov	DWORD PTR __Punct_fac$[ebp], eax
	mov	DWORD PTR __$EHRec$[ebp+8], -1
	lea	ecx, DWORD PTR $T147829[ebp]
	call	??1locale@std@@QAE@XZ			; std::locale::~locale

; 1482 : 		const string _Grouping = _Punct_fac.grouping();

	lea	ecx, DWORD PTR __Grouping$[ebp]
	push	ecx
	mov	ecx, DWORD PTR __Punct_fac$[ebp]
	call	?grouping@?$numpunct@D@std@@QBE?AV?$basic_string@DU?$char_traits@D@std@@V?$allocator@D@2@@2@XZ ; std::numpunct<char>::grouping
	mov	DWORD PTR __$EHRec$[ebp+8], 1

; 1483 : 		const size_t _Prefix = *_Buf == '+' || *_Buf == '-' ? 1
; 1484 : 			: *_Buf == '0' && (_Buf[1] == 'x' || _Buf[1] == 'X') ? 2
; 1485 : 			: 0;

	mov	edx, DWORD PTR __Buf$[ebp]
	movsx	eax, BYTE PTR [edx]
	cmp	eax, 43					; 0000002bH
	je	SHORT $LN10@Iput
	mov	ecx, DWORD PTR __Buf$[ebp]
	movsx	edx, BYTE PTR [ecx]
	cmp	edx, 45					; 0000002dH
	je	SHORT $LN10@Iput
	mov	eax, DWORD PTR __Buf$[ebp]
	movsx	ecx, BYTE PTR [eax]
	cmp	ecx, 48					; 00000030H
	jne	SHORT $LN12@Iput
	mov	edx, DWORD PTR __Buf$[ebp]
	movsx	eax, BYTE PTR [edx+1]
	cmp	eax, 120				; 00000078H
	je	SHORT $LN11@Iput
	mov	ecx, DWORD PTR __Buf$[ebp]
	movsx	edx, BYTE PTR [ecx+1]
	cmp	edx, 88					; 00000058H
	jne	SHORT $LN12@Iput
$LN11@Iput:
	mov	DWORD PTR tv90[ebp], 2
	jmp	SHORT $LN13@Iput
$LN12@Iput:
	mov	DWORD PTR tv90[ebp], 0
$LN13@Iput:
	mov	eax, DWORD PTR tv90[ebp]
	mov	DWORD PTR tv91[ebp], eax
	jmp	SHORT $LN14@Iput
$LN10@Iput:
	mov	DWORD PTR tv91[ebp], 1
$LN14@Iput:
	mov	ecx, DWORD PTR tv91[ebp]
	mov	DWORD PTR __Prefix$[ebp], ecx

; 1486 : 
; 1487 : 		if (*_Grouping.c_str() != CHAR_MAX && '\0' < *_Grouping.c_str())

	lea	ecx, DWORD PTR __Grouping$[ebp]
	call	?c_str@?$basic_string@DU?$char_traits@D@std@@V?$allocator@D@2@@std@@QBEPBDXZ ; std::basic_string<char,std::char_traits<char>,std::allocator<char> >::c_str
	movsx	edx, BYTE PTR [eax]
	cmp	edx, 127				; 0000007fH
	je	$LN7@Iput
	lea	ecx, DWORD PTR __Grouping$[ebp]
	call	?c_str@?$basic_string@DU?$char_traits@D@std@@V?$allocator@D@2@@std@@QBEPBDXZ ; std::basic_string<char,std::char_traits<char>,std::allocator<char> >::c_str
	movsx	eax, BYTE PTR [eax]
	test	eax, eax
	jle	$LN7@Iput

; 1488 : 			{	// grouping specified, add thousands separators
; 1489 : 			const char *_Pg = _Grouping.c_str();

	lea	ecx, DWORD PTR __Grouping$[ebp]
	call	?c_str@?$basic_string@DU?$char_traits@D@std@@V?$allocator@D@2@@std@@QBEPBDXZ ; std::basic_string<char,std::char_traits<char>,std::allocator<char> >::c_str
	mov	DWORD PTR __Pg$140461[ebp], eax

; 1490 : 			size_t _Off = _Count;

	mov	ecx, DWORD PTR __Count$[ebp]
	mov	DWORD PTR __Off$140462[ebp], ecx
$LN6@Iput:

; 1491 : 			while (*_Pg != CHAR_MAX && '\0' < *_Pg
; 1492 : 				&& (size_t)*_Pg < _Off - _Prefix)

	mov	edx, DWORD PTR __Pg$140461[ebp]
	movsx	eax, BYTE PTR [edx]
	cmp	eax, 127				; 0000007fH
	je	$LN7@Iput
	mov	ecx, DWORD PTR __Pg$140461[ebp]
	movsx	edx, BYTE PTR [ecx]
	test	edx, edx
	jle	SHORT $LN7@Iput
	mov	eax, DWORD PTR __Pg$140461[ebp]
	movsx	ecx, BYTE PTR [eax]
	mov	edx, DWORD PTR __Off$140462[ebp]
	sub	edx, DWORD PTR __Prefix$[ebp]
	cmp	ecx, edx
	jae	SHORT $LN7@Iput

; 1493 : 				{	// add a NUL to mark thousands separator
; 1494 : 				_Off -= *_Pg;

	mov	eax, DWORD PTR __Pg$140461[ebp]
	movsx	ecx, BYTE PTR [eax]
	mov	edx, DWORD PTR __Off$140462[ebp]
	sub	edx, ecx
	mov	DWORD PTR __Off$140462[ebp], edx

; 1495 : 
; 1496 : 				__analysis_assume(_Count + 1 > _Off);
; 1497 : 				_CRT_SECURE_MEMMOVE(&_Buf[_Off + 1], _Count + 1 - _Off,

	mov	eax, DWORD PTR __Count$[ebp]
	add	eax, 1
	sub	eax, DWORD PTR __Off$140462[ebp]
	push	eax
	mov	ecx, DWORD PTR __Buf$[ebp]
	add	ecx, DWORD PTR __Off$140462[ebp]
	push	ecx
	mov	edx, DWORD PTR __Count$[ebp]
	add	edx, 1
	sub	edx, DWORD PTR __Off$140462[ebp]
	push	edx
	mov	eax, DWORD PTR __Off$140462[ebp]
	mov	ecx, DWORD PTR __Buf$[ebp]
	lea	edx, DWORD PTR [ecx+eax+1]
	push	edx
	call	_memmove_s
	add	esp, 16					; 00000010H

; 1498 : 					&_Buf[_Off], _Count + 1 - _Off);
; 1499 : 
; 1500 : 				_Buf[_Off] = '\0', ++_Count;

	mov	eax, DWORD PTR __Buf$[ebp]
	add	eax, DWORD PTR __Off$140462[ebp]
	mov	BYTE PTR [eax], 0
	mov	ecx, DWORD PTR __Count$[ebp]
	add	ecx, 1
	mov	DWORD PTR __Count$[ebp], ecx

; 1501 : 				if ('\0' < _Pg[1])

	mov	edx, DWORD PTR __Pg$140461[ebp]
	movsx	eax, BYTE PTR [edx+1]
	test	eax, eax
	jle	SHORT $LN4@Iput

; 1502 : 					++_Pg;	// not last group, advance

	mov	ecx, DWORD PTR __Pg$140461[ebp]
	add	ecx, 1
	mov	DWORD PTR __Pg$140461[ebp], ecx
$LN4@Iput:

; 1503 : 				}

	jmp	$LN6@Iput
$LN7@Iput:

; 1504 : 			}
; 1505 : 
; 1506 : 		size_t _Fillcount = _Iosbase.width() <= 0
; 1507 : 			|| (size_t)_Iosbase.width() <= _Count
; 1508 : 				? 0 : (size_t)_Iosbase.width() - _Count;

	mov	ecx, DWORD PTR __Iosbase$[ebp]
	call	?width@ios_base@std@@QBE_JXZ		; std::ios_base::width
	mov	DWORD PTR tv261[ebp], eax
	mov	DWORD PTR tv261[ebp+4], edx
	cmp	DWORD PTR tv261[ebp+4], 0
	jl	SHORT $LN15@Iput
	jg	SHORT $LN19@Iput
	cmp	DWORD PTR tv261[ebp], 0
	jbe	SHORT $LN15@Iput
$LN19@Iput:
	mov	ecx, DWORD PTR __Iosbase$[ebp]
	call	?width@ios_base@std@@QBE_JXZ		; std::ios_base::width
	cmp	eax, DWORD PTR __Count$[ebp]
	jbe	SHORT $LN15@Iput
	mov	ecx, DWORD PTR __Iosbase$[ebp]
	call	?width@ios_base@std@@QBE_JXZ		; std::ios_base::width
	sub	eax, DWORD PTR __Count$[ebp]
	mov	DWORD PTR tv171[ebp], eax
	jmp	SHORT $LN16@Iput
$LN15@Iput:
	mov	DWORD PTR tv171[ebp], 0
$LN16@Iput:
	mov	edx, DWORD PTR tv171[ebp]
	mov	DWORD PTR __Fillcount$[ebp], edx

; 1509 : 
; 1510 : 		ios_base::fmtflags _Adjustfield =
; 1511 : 			_Iosbase.flags() & ios_base::adjustfield;

	mov	ecx, DWORD PTR __Iosbase$[ebp]
	call	?flags@ios_base@std@@QBEHXZ		; std::ios_base::flags
	and	eax, 448				; 000001c0H
	mov	DWORD PTR __Adjustfield$[ebp], eax

; 1512 : 		if (_Adjustfield != ios_base::left
; 1513 : 			&& _Adjustfield != ios_base::internal)

	cmp	DWORD PTR __Adjustfield$[ebp], 64	; 00000040H
	je	SHORT $LN3@Iput
	cmp	DWORD PTR __Adjustfield$[ebp], 256	; 00000100H
	je	SHORT $LN3@Iput

; 1514 : 			{	// put leading fill
; 1515 : 			_Dest = _Rep(_Dest, _Fill, _Fillcount);

	mov	eax, DWORD PTR __Fillcount$[ebp]
	push	eax
	movzx	ecx, BYTE PTR __Fill$[ebp]
	push	ecx
	mov	edx, DWORD PTR __Dest$[ebp+4]
	push	edx
	mov	eax, DWORD PTR __Dest$[ebp]
	push	eax
	lea	ecx, DWORD PTR $T147837[ebp]
	push	ecx
	mov	edx, DWORD PTR _this$[ebp]
	push	edx
	call	?_Rep@?$num_put@DV?$ostreambuf_iterator@DU?$char_traits@D@std@@@std@@@std@@ABA?AV?$ostreambuf_iterator@DU?$char_traits@D@std@@@2@V32@DI@Z ; std::num_put<char,std::ostreambuf_iterator<char,std::char_traits<char> > >::_Rep
	add	esp, 24					; 00000018H
	mov	ecx, DWORD PTR [eax]
	mov	edx, DWORD PTR [eax+4]
	mov	DWORD PTR __Dest$[ebp], ecx
	mov	DWORD PTR __Dest$[ebp+4], edx

; 1516 : 			_Fillcount = 0;

	mov	DWORD PTR __Fillcount$[ebp], 0
	jmp	SHORT $LN2@Iput
$LN3@Iput:

; 1517 : 			}
; 1518 : 		else if (_Adjustfield == ios_base::internal)

	cmp	DWORD PTR __Adjustfield$[ebp], 256	; 00000100H
	jne	SHORT $LN2@Iput

; 1519 : 			{	// put internal fill
; 1520 : 			_Dest = _Putc(_Dest, _Buf, _Prefix);	// put prefix

	mov	eax, DWORD PTR __Prefix$[ebp]
	push	eax
	mov	ecx, DWORD PTR __Buf$[ebp]
	push	ecx
	mov	edx, DWORD PTR __Dest$[ebp+4]
	push	edx
	mov	eax, DWORD PTR __Dest$[ebp]
	push	eax
	lea	ecx, DWORD PTR $T147838[ebp]
	push	ecx
	mov	edx, DWORD PTR _this$[ebp]
	push	edx
	call	?_Putc@?$num_put@DV?$ostreambuf_iterator@DU?$char_traits@D@std@@@std@@@std@@ABA?AV?$ostreambuf_iterator@DU?$char_traits@D@std@@@2@V32@PBDI@Z ; std::num_put<char,std::ostreambuf_iterator<char,std::char_traits<char> > >::_Putc
	add	esp, 24					; 00000018H
	mov	ecx, DWORD PTR [eax]
	mov	edx, DWORD PTR [eax+4]
	mov	DWORD PTR __Dest$[ebp], ecx
	mov	DWORD PTR __Dest$[ebp+4], edx

; 1521 : 			_Buf += _Prefix, _Count -= _Prefix;

	mov	eax, DWORD PTR __Buf$[ebp]
	add	eax, DWORD PTR __Prefix$[ebp]
	mov	DWORD PTR __Buf$[ebp], eax
	mov	ecx, DWORD PTR __Count$[ebp]
	sub	ecx, DWORD PTR __Prefix$[ebp]
	mov	DWORD PTR __Count$[ebp], ecx

; 1522 : 			_Dest = _Rep(_Dest, _Fill, _Fillcount), _Fillcount = 0;

	mov	edx, DWORD PTR __Fillcount$[ebp]
	push	edx
	movzx	eax, BYTE PTR __Fill$[ebp]
	push	eax
	mov	ecx, DWORD PTR __Dest$[ebp+4]
	push	ecx
	mov	edx, DWORD PTR __Dest$[ebp]
	push	edx
	lea	eax, DWORD PTR $T147839[ebp]
	push	eax
	mov	ecx, DWORD PTR _this$[ebp]
	push	ecx
	call	?_Rep@?$num_put@DV?$ostreambuf_iterator@DU?$char_traits@D@std@@@std@@@std@@ABA?AV?$ostreambuf_iterator@DU?$char_traits@D@std@@@2@V32@DI@Z ; std::num_put<char,std::ostreambuf_iterator<char,std::char_traits<char> > >::_Rep
	add	esp, 24					; 00000018H
	mov	edx, DWORD PTR [eax]
	mov	eax, DWORD PTR [eax+4]
	mov	DWORD PTR __Dest$[ebp], edx
	mov	DWORD PTR __Dest$[ebp+4], eax
	mov	DWORD PTR __Fillcount$[ebp], 0
$LN2@Iput:

; 1523 : 			}
; 1524 : 
; 1525 : 		_Dest = _Putgrouped(_Dest, _Buf, _Count,
; 1526 : 			_Punct_fac.thousands_sep());	// put field

	mov	ecx, DWORD PTR __Punct_fac$[ebp]
	call	?thousands_sep@?$numpunct@D@std@@QBEDXZ	; std::numpunct<char>::thousands_sep
	movzx	ecx, al
	push	ecx
	mov	edx, DWORD PTR __Count$[ebp]
	push	edx
	mov	eax, DWORD PTR __Buf$[ebp]
	push	eax
	mov	ecx, DWORD PTR __Dest$[ebp+4]
	push	ecx
	mov	edx, DWORD PTR __Dest$[ebp]
	push	edx
	lea	eax, DWORD PTR $T147840[ebp]
	push	eax
	mov	ecx, DWORD PTR _this$[ebp]
	push	ecx
	call	?_Putgrouped@?$num_put@DV?$ostreambuf_iterator@DU?$char_traits@D@std@@@std@@@std@@ABA?AV?$ostreambuf_iterator@DU?$char_traits@D@std@@@2@V32@PBDID@Z ; std::num_put<char,std::ostreambuf_iterator<char,std::char_traits<char> > >::_Putgrouped
	add	esp, 28					; 0000001cH
	mov	edx, DWORD PTR [eax]
	mov	eax, DWORD PTR [eax+4]
	mov	DWORD PTR __Dest$[ebp], edx
	mov	DWORD PTR __Dest$[ebp+4], eax

; 1527 : 		_Iosbase.width(0);

	push	0
	push	0
	mov	ecx, DWORD PTR __Iosbase$[ebp]
	call	?width@ios_base@std@@QAE_J_J@Z		; std::ios_base::width

; 1528 : 		return (_Rep(_Dest, _Fill, _Fillcount));	// put trailing fill

	mov	ecx, DWORD PTR __Fillcount$[ebp]
	push	ecx
	movzx	edx, BYTE PTR __Fill$[ebp]
	push	edx
	mov	eax, DWORD PTR __Dest$[ebp+4]
	push	eax
	mov	ecx, DWORD PTR __Dest$[ebp]
	push	ecx
	mov	edx, DWORD PTR ___$ReturnUdt$[ebp]
	push	edx
	mov	eax, DWORD PTR _this$[ebp]
	push	eax
	call	?_Rep@?$num_put@DV?$ostreambuf_iterator@DU?$char_traits@D@std@@@std@@@std@@ABA?AV?$ostreambuf_iterator@DU?$char_traits@D@std@@@2@V32@DI@Z ; std::num_put<char,std::ostreambuf_iterator<char,std::char_traits<char> > >::_Rep
	add	esp, 24					; 00000018H
	mov	DWORD PTR __$EHRec$[ebp+8], -1
	lea	ecx, DWORD PTR __Grouping$[ebp]
	call	??1?$basic_string@DU?$char_traits@D@std@@V?$allocator@D@2@@std@@QAE@XZ ; std::basic_string<char,std::char_traits<char>,std::allocator<char> >::~basic_string<char,std::char_traits<char>,std::allocator<char> >
	mov	eax, DWORD PTR ___$ReturnUdt$[ebp]

; 1529 : 		}

	push	edx
	mov	ecx, ebp
	push	eax
	lea	edx, DWORD PTR $LN23@Iput
	call	@_RTC_CheckStackVars@8
	pop	eax
	pop	edx
	mov	ecx, DWORD PTR __$EHRec$[ebp]
	mov	DWORD PTR fs:0, ecx
	pop	ecx
	pop	edi
	mov	ecx, DWORD PTR __$ArrayPad$[ebp]
	xor	ecx, ebp
	call	@__security_check_cookie@4
	add	esp, 144				; 00000090H
	cmp	ebp, esp
	call	__RTC_CheckEsp
	mov	esp, ebp
	pop	ebp
	ret	0
	npad	2
$LN23@Iput:
	DD	1
	DD	$LN22@Iput
$LN22@Iput:
	DD	-56					; ffffffc8H
	DD	32					; 00000020H
	DD	$LN20@Iput
$LN20@Iput:
	DB	95					; 0000005fH
	DB	71					; 00000047H
	DB	114					; 00000072H
	DB	111					; 0000006fH
	DB	117					; 00000075H
	DB	112					; 00000070H
	DB	105					; 00000069H
	DB	110					; 0000006eH
	DB	103					; 00000067H
	DB	0
_TEXT	ENDS
;	COMDAT text$x
text$x	SEGMENT
__unwindfunclet$?_Iput@?$num_put@DV?$ostreambuf_iterator@DU?$char_traits@D@std@@@std@@@std@@ABA?AV?$ostreambuf_iterator@DU?$char_traits@D@std@@@2@V32@AAVios_base@2@DPADI@Z$0:
	lea	ecx, DWORD PTR $T147829[ebp]
	jmp	??1locale@std@@QAE@XZ			; std::locale::~locale
__unwindfunclet$?_Iput@?$num_put@DV?$ostreambuf_iterator@DU?$char_traits@D@std@@@std@@@std@@ABA?AV?$ostreambuf_iterator@DU?$char_traits@D@std@@@2@V32@AAVios_base@2@DPADI@Z$1:
	lea	ecx, DWORD PTR __Grouping$[ebp]
	jmp	??1?$basic_string@DU?$char_traits@D@std@@V?$allocator@D@2@@std@@QAE@XZ ; std::basic_string<char,std::char_traits<char>,std::allocator<char> >::~basic_string<char,std::char_traits<char>,std::allocator<char> >
__ehhandler$?_Iput@?$num_put@DV?$ostreambuf_iterator@DU?$char_traits@D@std@@@std@@@std@@ABA?AV?$ostreambuf_iterator@DU?$char_traits@D@std@@@2@V32@AAVios_base@2@DPADI@Z:
	mov	edx, DWORD PTR [esp+8]
	lea	eax, DWORD PTR [edx+12]
	mov	ecx, DWORD PTR [edx-140]
	xor	ecx, eax
	call	@__security_check_cookie@4
	mov	ecx, DWORD PTR [edx-4]
	xor	ecx, eax
	call	@__security_check_cookie@4
	mov	eax, OFFSET __ehfuncinfo$?_Iput@?$num_put@DV?$ostreambuf_iterator@DU?$char_traits@D@std@@@std@@@std@@ABA?AV?$ostreambuf_iterator@DU?$char_traits@D@std@@@2@V32@AAVios_base@2@DPADI@Z
	jmp	___CxxFrameHandler3
text$x	ENDS
?_Iput@?$num_put@DV?$ostreambuf_iterator@DU?$char_traits@D@std@@@std@@@std@@ABA?AV?$ostreambuf_iterator@DU?$char_traits@D@std@@@2@V32@AAVios_base@2@DPADI@Z ENDP ; std::num_put<char,std::ostreambuf_iterator<char,std::char_traits<char> > >::_Iput
PUBLIC	??4?$ostreambuf_iterator@DU?$char_traits@D@std@@@std@@QAEAAV01@D@Z ; std::ostreambuf_iterator<char,std::char_traits<char> >::operator=
PUBLIC	??D?$ostreambuf_iterator@DU?$char_traits@D@std@@@std@@QAEAAV01@XZ ; std::ostreambuf_iterator<char,std::char_traits<char> >::operator*
PUBLIC	??E?$ostreambuf_iterator@DU?$char_traits@D@std@@@std@@QAEAAV01@XZ ; std::ostreambuf_iterator<char,std::char_traits<char> >::operator++
; Function compile flags: /Odtp /RTCsu
;	COMDAT ?_Put@?$num_put@DV?$ostreambuf_iterator@DU?$char_traits@D@std@@@std@@@std@@ABA?AV?$ostreambuf_iterator@DU?$char_traits@D@std@@@2@V32@PBDI@Z
_TEXT	SEGMENT
_this$ = 8						; size = 4
___$ReturnUdt$ = 12					; size = 4
__Dest$ = 16						; size = 8
__Ptr$ = 24						; size = 4
__Count$ = 28						; size = 4
?_Put@?$num_put@DV?$ostreambuf_iterator@DU?$char_traits@D@std@@@std@@@std@@ABA?AV?$ostreambuf_iterator@DU?$char_traits@D@std@@@2@V32@PBDI@Z PROC ; std::num_put<char,std::ostreambuf_iterator<char,std::char_traits<char> > >::_Put, COMDAT

; 1533 : 		{	// put [_Ptr, _Ptr + _Count) to _Dest

	push	ebp
	mov	ebp, esp

; 1534 : 		for (; 0 < _Count; --_Count, ++_Dest, ++_Ptr)

	jmp	SHORT $LN3@Put
$LN2@Put:
	mov	eax, DWORD PTR __Count$[ebp]
	sub	eax, 1
	mov	DWORD PTR __Count$[ebp], eax
	lea	ecx, DWORD PTR __Dest$[ebp]
	call	??E?$ostreambuf_iterator@DU?$char_traits@D@std@@@std@@QAEAAV01@XZ ; std::ostreambuf_iterator<char,std::char_traits<char> >::operator++
	mov	ecx, DWORD PTR __Ptr$[ebp]
	add	ecx, 1
	mov	DWORD PTR __Ptr$[ebp], ecx
$LN3@Put:
	cmp	DWORD PTR __Count$[ebp], 0
	jbe	SHORT $LN1@Put

; 1535 : 			*_Dest = *_Ptr;

	mov	edx, DWORD PTR __Ptr$[ebp]
	movzx	eax, BYTE PTR [edx]
	push	eax
	lea	ecx, DWORD PTR __Dest$[ebp]
	call	??D?$ostreambuf_iterator@DU?$char_traits@D@std@@@std@@QAEAAV01@XZ ; std::ostreambuf_iterator<char,std::char_traits<char> >::operator*
	mov	ecx, eax
	call	??4?$ostreambuf_iterator@DU?$char_traits@D@std@@@std@@QAEAAV01@D@Z ; std::ostreambuf_iterator<char,std::char_traits<char> >::operator=
	jmp	SHORT $LN2@Put
$LN1@Put:

; 1536 : 		return (_Dest);

	mov	ecx, DWORD PTR ___$ReturnUdt$[ebp]
	mov	edx, DWORD PTR __Dest$[ebp]
	mov	DWORD PTR [ecx], edx
	mov	eax, DWORD PTR __Dest$[ebp+4]
	mov	DWORD PTR [ecx+4], eax
	mov	eax, DWORD PTR ___$ReturnUdt$[ebp]

; 1537 : 		}

	cmp	ebp, esp
	call	__RTC_CheckEsp
	pop	ebp
	ret	0
?_Put@?$num_put@DV?$ostreambuf_iterator@DU?$char_traits@D@std@@@std@@@std@@ABA?AV?$ostreambuf_iterator@DU?$char_traits@D@std@@@2@V32@PBDI@Z ENDP ; std::num_put<char,std::ostreambuf_iterator<char,std::char_traits<char> > >::_Put
; Function compile flags: /Odtp /RTCsu
_TEXT	ENDS
;	COMDAT ?_Rep@?$num_put@DV?$ostreambuf_iterator@DU?$char_traits@D@std@@@std@@@std@@ABA?AV?$ostreambuf_iterator@DU?$char_traits@D@std@@@2@V32@DI@Z
_TEXT	SEGMENT
_this$ = 8						; size = 4
___$ReturnUdt$ = 12					; size = 4
__Dest$ = 16						; size = 8
__Ch$ = 24						; size = 1
__Count$ = 28						; size = 4
?_Rep@?$num_put@DV?$ostreambuf_iterator@DU?$char_traits@D@std@@@std@@@std@@ABA?AV?$ostreambuf_iterator@DU?$char_traits@D@std@@@2@V32@DI@Z PROC ; std::num_put<char,std::ostreambuf_iterator<char,std::char_traits<char> > >::_Rep, COMDAT

; 1568 : 		{	// put _Count * _Ch to _Dest

	push	ebp
	mov	ebp, esp

; 1569 : 		for (; 0 < _Count; --_Count, ++_Dest)

	jmp	SHORT $LN3@Rep
$LN2@Rep:
	mov	eax, DWORD PTR __Count$[ebp]
	sub	eax, 1
	mov	DWORD PTR __Count$[ebp], eax
	lea	ecx, DWORD PTR __Dest$[ebp]
	call	??E?$ostreambuf_iterator@DU?$char_traits@D@std@@@std@@QAEAAV01@XZ ; std::ostreambuf_iterator<char,std::char_traits<char> >::operator++
$LN3@Rep:
	cmp	DWORD PTR __Count$[ebp], 0
	jbe	SHORT $LN1@Rep

; 1570 : 			*_Dest = _Ch;

	movzx	ecx, BYTE PTR __Ch$[ebp]
	push	ecx
	lea	ecx, DWORD PTR __Dest$[ebp]
	call	??D?$ostreambuf_iterator@DU?$char_traits@D@std@@@std@@QAEAAV01@XZ ; std::ostreambuf_iterator<char,std::char_traits<char> >::operator*
	mov	ecx, eax
	call	??4?$ostreambuf_iterator@DU?$char_traits@D@std@@@std@@QAEAAV01@D@Z ; std::ostreambuf_iterator<char,std::char_traits<char> >::operator=
	jmp	SHORT $LN2@Rep
$LN1@Rep:

; 1571 : 		return (_Dest);

	mov	edx, DWORD PTR ___$ReturnUdt$[ebp]
	mov	eax, DWORD PTR __Dest$[ebp]
	mov	DWORD PTR [edx], eax
	mov	ecx, DWORD PTR __Dest$[ebp+4]
	mov	DWORD PTR [edx+4], ecx
	mov	eax, DWORD PTR ___$ReturnUdt$[ebp]

; 1572 : 		}

	cmp	ebp, esp
	call	__RTC_CheckEsp
	pop	ebp
	ret	0
?_Rep@?$num_put@DV?$ostreambuf_iterator@DU?$char_traits@D@std@@@std@@@std@@ABA?AV?$ostreambuf_iterator@DU?$char_traits@D@std@@@2@V32@DI@Z ENDP ; std::num_put<char,std::ostreambuf_iterator<char,std::char_traits<char> > >::_Rep
; Function compile flags: /Odtp /RTCsu
_TEXT	ENDS
;	COMDAT ?falsename@?$numpunct@D@std@@QBE?AV?$basic_string@DU?$char_traits@D@std@@V?$allocator@D@2@@2@XZ
_TEXT	SEGMENT
$T147860 = -8						; size = 4
_this$ = -4						; size = 4
___$ReturnUdt$ = 8					; size = 4
?falsename@?$numpunct@D@std@@QBE?AV?$basic_string@DU?$char_traits@D@std@@V?$allocator@D@2@@2@XZ PROC ; std::numpunct<char>::falsename, COMDAT
; _this$ = ecx

; 83   : 		{	// return name for false

	push	ebp
	mov	ebp, esp
	sub	esp, 8
	push	esi
	mov	DWORD PTR [ebp-8], -858993460		; ccccccccH
	mov	DWORD PTR [ebp-4], -858993460		; ccccccccH
	mov	DWORD PTR _this$[ebp], ecx
	mov	DWORD PTR $T147860[ebp], 0

; 84   : 		return (do_falsename());

	mov	esi, esp
	mov	eax, DWORD PTR ___$ReturnUdt$[ebp]
	push	eax
	mov	ecx, DWORD PTR _this$[ebp]
	mov	edx, DWORD PTR [ecx]
	mov	ecx, DWORD PTR _this$[ebp]
	mov	eax, DWORD PTR [edx+16]
	call	eax
	cmp	esi, esp
	call	__RTC_CheckEsp
	mov	ecx, DWORD PTR $T147860[ebp]
	or	ecx, 1
	mov	DWORD PTR $T147860[ebp], ecx
	mov	eax, DWORD PTR ___$ReturnUdt$[ebp]

; 85   : 		}

	pop	esi
	add	esp, 8
	cmp	ebp, esp
	call	__RTC_CheckEsp
	mov	esp, ebp
	pop	ebp
	ret	4
?falsename@?$numpunct@D@std@@QBE?AV?$basic_string@DU?$char_traits@D@std@@V?$allocator@D@2@@2@XZ ENDP ; std::numpunct<char>::falsename
; Function compile flags: /Odtp /RTCsu
_TEXT	ENDS
;	COMDAT ?truename@?$numpunct@D@std@@QBE?AV?$basic_string@DU?$char_traits@D@std@@V?$allocator@D@2@@2@XZ
_TEXT	SEGMENT
$T147865 = -8						; size = 4
_this$ = -4						; size = 4
___$ReturnUdt$ = 8					; size = 4
?truename@?$numpunct@D@std@@QBE?AV?$basic_string@DU?$char_traits@D@std@@V?$allocator@D@2@@2@XZ PROC ; std::numpunct<char>::truename, COMDAT
; _this$ = ecx

; 88   : 		{	// return name for true

	push	ebp
	mov	ebp, esp
	sub	esp, 8
	push	esi
	mov	DWORD PTR [ebp-8], -858993460		; ccccccccH
	mov	DWORD PTR [ebp-4], -858993460		; ccccccccH
	mov	DWORD PTR _this$[ebp], ecx
	mov	DWORD PTR $T147865[ebp], 0

; 89   : 		return (do_truename());

	mov	esi, esp
	mov	eax, DWORD PTR ___$ReturnUdt$[ebp]
	push	eax
	mov	ecx, DWORD PTR _this$[ebp]
	mov	edx, DWORD PTR [ecx]
	mov	ecx, DWORD PTR _this$[ebp]
	mov	eax, DWORD PTR [edx+20]
	call	eax
	cmp	esi, esp
	call	__RTC_CheckEsp
	mov	ecx, DWORD PTR $T147865[ebp]
	or	ecx, 1
	mov	DWORD PTR $T147865[ebp], ecx
	mov	eax, DWORD PTR ___$ReturnUdt$[ebp]

; 90   : 		}

	pop	esi
	add	esp, 8
	cmp	ebp, esp
	call	__RTC_CheckEsp
	mov	esp, ebp
	pop	ebp
	ret	4
?truename@?$numpunct@D@std@@QBE?AV?$basic_string@DU?$char_traits@D@std@@V?$allocator@D@2@@2@XZ ENDP ; std::numpunct<char>::truename
_TEXT	ENDS
PUBLIC	?append@?$basic_string@DU?$char_traits@D@std@@V?$allocator@D@2@@std@@QAEAAV12@ABV12@II@Z ; std::basic_string<char,std::char_traits<char>,std::allocator<char> >::append
; Function compile flags: /Odtp /RTCsu
; File c:\program files (x86)\microsoft visual studio 10.0\vc\include\xstring
;	COMDAT ?append@?$basic_string@DU?$char_traits@D@std@@V?$allocator@D@2@@std@@QAEAAV12@PBDI@Z
_TEXT	SEGMENT
__Num$ = -8						; size = 4
_this$ = -4						; size = 4
__Ptr$ = 8						; size = 4
__Count$ = 12						; size = 4
?append@?$basic_string@DU?$char_traits@D@std@@V?$allocator@D@2@@std@@QAEAAV12@PBDI@Z PROC ; std::basic_string<char,std::char_traits<char>,std::allocator<char> >::append, COMDAT
; _this$ = ecx

; 817  : 		{	// append [_Ptr, _Ptr + _Count)

	push	ebp
	mov	ebp, esp
	sub	esp, 8
	mov	DWORD PTR [ebp-8], -858993460		; ccccccccH
	mov	DWORD PTR [ebp-4], -858993460		; ccccccccH
	mov	DWORD PTR _this$[ebp], ecx

; 818  :  #if _ITERATOR_DEBUG_LEVEL == 2
; 819  : 		if (_Count != 0)

	cmp	DWORD PTR __Count$[ebp], 0
	je	SHORT $LN4@append@2

; 820  : 			_DEBUG_POINTER(_Ptr);

	push	820					; 00000334H
	push	OFFSET ??_C@_1IO@FJMIILFL@?$AAc?$AA?3?$AA?2?$AAP?$AAr?$AAo?$AAg?$AAr?$AAa?$AAm?$AA?5?$AAF?$AAi?$AAl?$AAe?$AAs?$AA?5?$AA?$CI?$AAx?$AA8?$AA6?$AA?$CJ?$AA?2?$AAM?$AAi?$AAc?$AAr?$AAo?$AAs?$AAo?$AAf?$AAt@
	mov	eax, DWORD PTR __Ptr$[ebp]
	push	eax
	call	??$_Debug_pointer@D@std@@YAXPBDPB_WI@Z	; std::_Debug_pointer<char>
	add	esp, 12					; 0000000cH
$LN4@append@2:

; 821  :  #endif /* _ITERATOR_DEBUG_LEVEL == 2 */
; 822  : 
; 823  : 		if (_Inside(_Ptr))

	mov	ecx, DWORD PTR __Ptr$[ebp]
	push	ecx
	mov	ecx, DWORD PTR _this$[ebp]
	call	?_Inside@?$basic_string@DU?$char_traits@D@std@@V?$allocator@D@2@@std@@QAE_NPBD@Z ; std::basic_string<char,std::char_traits<char>,std::allocator<char> >::_Inside
	movzx	edx, al
	test	edx, edx
	je	SHORT $LN3@append@2

; 824  : 			return (append(*this, _Ptr - _Myptr(), _Count));	// substring

	mov	eax, DWORD PTR __Count$[ebp]
	push	eax
	mov	ecx, DWORD PTR _this$[ebp]
	call	?_Myptr@?$basic_string@DU?$char_traits@D@std@@V?$allocator@D@2@@std@@QAEPADXZ ; std::basic_string<char,std::char_traits<char>,std::allocator<char> >::_Myptr
	mov	ecx, DWORD PTR __Ptr$[ebp]
	sub	ecx, eax
	push	ecx
	mov	edx, DWORD PTR _this$[ebp]
	push	edx
	mov	ecx, DWORD PTR _this$[ebp]
	call	?append@?$basic_string@DU?$char_traits@D@std@@V?$allocator@D@2@@std@@QAEAAV12@ABV12@II@Z ; std::basic_string<char,std::char_traits<char>,std::allocator<char> >::append
	jmp	SHORT $LN6@append@2
$LN3@append@2:

; 825  : 		if (npos - this->_Mysize <= _Count)

	mov	eax, DWORD PTR _this$[ebp]
	mov	ecx, DWORD PTR ?npos@?$basic_string@DU?$char_traits@D@std@@V?$allocator@D@2@@std@@2IB ; std::basic_string<char,std::char_traits<char>,std::allocator<char> >::npos
	sub	ecx, DWORD PTR [eax+20]
	cmp	ecx, DWORD PTR __Count$[ebp]
	ja	SHORT $LN2@append@2

; 826  : 			_Xlen();	// result too long

	mov	ecx, DWORD PTR _this$[ebp]
	call	?_Xlen@?$basic_string@DU?$char_traits@D@std@@V?$allocator@D@2@@std@@QBEXXZ ; std::basic_string<char,std::char_traits<char>,std::allocator<char> >::_Xlen
$LN2@append@2:

; 827  : 
; 828  : 		size_type _Num;
; 829  : 		if (0 < _Count && _Grow(_Num = this->_Mysize + _Count))

	cmp	DWORD PTR __Count$[ebp], 0
	jbe	SHORT $LN1@append@2
	mov	edx, DWORD PTR _this$[ebp]
	mov	eax, DWORD PTR [edx+20]
	add	eax, DWORD PTR __Count$[ebp]
	mov	DWORD PTR __Num$[ebp], eax
	push	0
	mov	ecx, DWORD PTR __Num$[ebp]
	push	ecx
	mov	ecx, DWORD PTR _this$[ebp]
	call	?_Grow@?$basic_string@DU?$char_traits@D@std@@V?$allocator@D@2@@std@@QAE_NI_N@Z ; std::basic_string<char,std::char_traits<char>,std::allocator<char> >::_Grow
	movzx	edx, al
	test	edx, edx
	je	SHORT $LN1@append@2

; 830  : 			{	// make room and append new stuff
; 831  : 			_Traits::copy(_Myptr() + this->_Mysize, _Ptr, _Count);

	mov	eax, DWORD PTR __Count$[ebp]
	push	eax
	mov	ecx, DWORD PTR __Ptr$[ebp]
	push	ecx
	mov	ecx, DWORD PTR _this$[ebp]
	call	?_Myptr@?$basic_string@DU?$char_traits@D@std@@V?$allocator@D@2@@std@@QAEPADXZ ; std::basic_string<char,std::char_traits<char>,std::allocator<char> >::_Myptr
	mov	edx, DWORD PTR _this$[ebp]
	add	eax, DWORD PTR [edx+20]
	push	eax
	call	?copy@?$char_traits@D@std@@SAPADPADPBDI@Z ; std::char_traits<char>::copy
	add	esp, 12					; 0000000cH

; 832  : 			_Eos(_Num);

	mov	eax, DWORD PTR __Num$[ebp]
	push	eax
	mov	ecx, DWORD PTR _this$[ebp]
	call	?_Eos@?$basic_string@DU?$char_traits@D@std@@V?$allocator@D@2@@std@@QAEXI@Z ; std::basic_string<char,std::char_traits<char>,std::allocator<char> >::_Eos
$LN1@append@2:

; 833  : 			}
; 834  : 		return (*this);

	mov	eax, DWORD PTR _this$[ebp]
$LN6@append@2:

; 835  : 		}

	add	esp, 8
	cmp	ebp, esp
	call	__RTC_CheckEsp
	mov	esp, ebp
	pop	ebp
	ret	8
?append@?$basic_string@DU?$char_traits@D@std@@V?$allocator@D@2@@std@@QAEAAV12@PBDI@Z ENDP ; std::basic_string<char,std::char_traits<char>,std::allocator<char> >::append
_TEXT	ENDS
PUBLIC	??_C@_1DM@GMPLOCPK@?$AAs?$AAt?$AAr?$AAi?$AAn?$AAg?$AA?5?$AAs?$AAu?$AAb?$AAs?$AAc?$AAr?$AAi?$AAp?$AAt?$AA?5?$AAo?$AAu?$AAt?$AA?5?$AAo?$AAf?$AA?5?$AAr?$AAa?$AAn?$AAg?$AAe?$AA?$AA@ ; `string'
;	COMDAT ??_C@_1DM@GMPLOCPK@?$AAs?$AAt?$AAr?$AAi?$AAn?$AAg?$AA?5?$AAs?$AAu?$AAb?$AAs?$AAc?$AAr?$AAi?$AAp?$AAt?$AA?5?$AAo?$AAu?$AAt?$AA?5?$AAo?$AAf?$AA?5?$AAr?$AAa?$AAn?$AAg?$AAe?$AA?$AA@
CONST	SEGMENT
??_C@_1DM@GMPLOCPK@?$AAs?$AAt?$AAr?$AAi?$AAn?$AAg?$AA?5?$AAs?$AAu?$AAb?$AAs?$AAc?$AAr?$AAi?$AAp?$AAt?$AA?5?$AAo?$AAu?$AAt?$AA?5?$AAo?$AAf?$AA?5?$AAr?$AAa?$AAn?$AAg?$AAe?$AA?$AA@ DB 's'
	DB	00H, 't', 00H, 'r', 00H, 'i', 00H, 'n', 00H, 'g', 00H, ' ', 00H
	DB	's', 00H, 'u', 00H, 'b', 00H, 's', 00H, 'c', 00H, 'r', 00H, 'i'
	DB	00H, 'p', 00H, 't', 00H, ' ', 00H, 'o', 00H, 'u', 00H, 't', 00H
	DB	' ', 00H, 'o', 00H, 'f', 00H, ' ', 00H, 'r', 00H, 'a', 00H, 'n'
	DB	00H, 'g', 00H, 'e', 00H, 00H, 00H		; `string'
; Function compile flags: /Odtp /RTCsu
CONST	ENDS
;	COMDAT ??A?$basic_string@DU?$char_traits@D@std@@V?$allocator@D@2@@std@@QAEAADI@Z
_TEXT	SEGMENT
_this$ = -4						; size = 4
__Off$ = 8						; size = 4
??A?$basic_string@DU?$char_traits@D@std@@V?$allocator@D@2@@std@@QAEAADI@Z PROC ; std::basic_string<char,std::char_traits<char>,std::allocator<char> >::operator[], COMDAT
; _this$ = ecx

; 1435 : 		{	// subscript mutable sequence

	push	ebp
	mov	ebp, esp
	push	ecx
	mov	DWORD PTR [ebp-4], -858993460		; ccccccccH
	mov	DWORD PTR _this$[ebp], ecx

; 1436 :  #if _ITERATOR_DEBUG_LEVEL == 2
; 1437 : 
; 1438 : 		if (this->_Mysize <= _Off)

	mov	eax, DWORD PTR _this$[ebp]
	mov	ecx, DWORD PTR [eax+20]
	cmp	ecx, DWORD PTR __Off$[ebp]
	ja	SHORT $LN1@operator@4

; 1439 : 
; 1440 : 			_DEBUG_ERROR("string subscript out of range");

	push	1440					; 000005a0H
	push	OFFSET ??_C@_1IO@FJMIILFL@?$AAc?$AA?3?$AA?2?$AAP?$AAr?$AAo?$AAg?$AAr?$AAa?$AAm?$AA?5?$AAF?$AAi?$AAl?$AAe?$AAs?$AA?5?$AA?$CI?$AAx?$AA8?$AA6?$AA?$CJ?$AA?2?$AAM?$AAi?$AAc?$AAr?$AAo?$AAs?$AAo?$AAf?$AAt@
	push	OFFSET ??_C@_1DM@GMPLOCPK@?$AAs?$AAt?$AAr?$AAi?$AAn?$AAg?$AA?5?$AAs?$AAu?$AAb?$AAs?$AAc?$AAr?$AAi?$AAp?$AAt?$AA?5?$AAo?$AAu?$AAt?$AA?5?$AAo?$AAf?$AA?5?$AAr?$AAa?$AAn?$AAg?$AAe?$AA?$AA@
	call	?_Debug_message@std@@YAXPB_W0I@Z	; std::_Debug_message
	add	esp, 12					; 0000000cH
$LN1@operator@4:

; 1441 : 
; 1442 :  #elif _ITERATOR_DEBUG_LEVEL == 1
; 1443 : 		_SCL_SECURE_VALIDATE_RANGE(_Off < this->_Mysize);
; 1444 :  #endif /* _ITERATOR_DEBUG_LEVEL == 2 */
; 1445 : 
; 1446 : 		return (_Myptr()[_Off]);

	mov	ecx, DWORD PTR _this$[ebp]
	call	?_Myptr@?$basic_string@DU?$char_traits@D@std@@V?$allocator@D@2@@std@@QAEPADXZ ; std::basic_string<char,std::char_traits<char>,std::allocator<char> >::_Myptr
	add	eax, DWORD PTR __Off$[ebp]

; 1447 : 		}

	add	esp, 4
	cmp	ebp, esp
	call	__RTC_CheckEsp
	mov	esp, ebp
	pop	ebp
	ret	4
??A?$basic_string@DU?$char_traits@D@std@@V?$allocator@D@2@@std@@QAEAADI@Z ENDP ; std::basic_string<char,std::char_traits<char>,std::allocator<char> >::operator[]
; Function compile flags: /Odtp /RTCsu
; File c:\program files (x86)\microsoft visual studio 10.0\vc\include\xlocnum
_TEXT	ENDS
;	COMDAT ?_Putc@?$num_put@DV?$ostreambuf_iterator@DU?$char_traits@D@std@@@std@@@std@@ABA?AV?$ostreambuf_iterator@DU?$char_traits@D@std@@@2@V32@PBDI@Z
_TEXT	SEGMENT
_this$ = 8						; size = 4
___$ReturnUdt$ = 12					; size = 4
__Dest$ = 16						; size = 8
__Ptr$ = 24						; size = 4
__Count$ = 28						; size = 4
?_Putc@?$num_put@DV?$ostreambuf_iterator@DU?$char_traits@D@std@@@std@@@std@@ABA?AV?$ostreambuf_iterator@DU?$char_traits@D@std@@@2@V32@PBDI@Z PROC ; std::num_put<char,std::ostreambuf_iterator<char,std::char_traits<char> > >::_Putc, COMDAT

; 1541 : 		{	// put char sequence [_Ptr, _Ptr + _Count) to _Dest

	push	ebp
	mov	ebp, esp

; 1542 : 		for (; 0 < _Count; --_Count, ++_Dest, ++_Ptr)

	jmp	SHORT $LN3@Putc
$LN2@Putc:
	mov	eax, DWORD PTR __Count$[ebp]
	sub	eax, 1
	mov	DWORD PTR __Count$[ebp], eax
	lea	ecx, DWORD PTR __Dest$[ebp]
	call	??E?$ostreambuf_iterator@DU?$char_traits@D@std@@@std@@QAEAAV01@XZ ; std::ostreambuf_iterator<char,std::char_traits<char> >::operator++
	mov	ecx, DWORD PTR __Ptr$[ebp]
	add	ecx, 1
	mov	DWORD PTR __Ptr$[ebp], ecx
$LN3@Putc:
	cmp	DWORD PTR __Count$[ebp], 0
	jbe	SHORT $LN1@Putc

; 1543 : 			*_Dest = _MAKLOCCHR(_Elem, *_Ptr, _Cvt);

	mov	edx, DWORD PTR _this$[ebp]
	add	edx, 8
	push	edx
	push	0
	mov	eax, DWORD PTR __Ptr$[ebp]
	movzx	ecx, BYTE PTR [eax]
	push	ecx
	call	??$_Maklocchr@D@std@@YADDPADABU_Cvtvec@@@Z ; std::_Maklocchr<char>
	add	esp, 12					; 0000000cH
	movzx	edx, al
	push	edx
	lea	ecx, DWORD PTR __Dest$[ebp]
	call	??D?$ostreambuf_iterator@DU?$char_traits@D@std@@@std@@QAEAAV01@XZ ; std::ostreambuf_iterator<char,std::char_traits<char> >::operator*
	mov	ecx, eax
	call	??4?$ostreambuf_iterator@DU?$char_traits@D@std@@@std@@QAEAAV01@D@Z ; std::ostreambuf_iterator<char,std::char_traits<char> >::operator=
	jmp	SHORT $LN2@Putc
$LN1@Putc:

; 1544 : 		return (_Dest);

	mov	eax, DWORD PTR ___$ReturnUdt$[ebp]
	mov	ecx, DWORD PTR __Dest$[ebp]
	mov	DWORD PTR [eax], ecx
	mov	edx, DWORD PTR __Dest$[ebp+4]
	mov	DWORD PTR [eax+4], edx
	mov	eax, DWORD PTR ___$ReturnUdt$[ebp]

; 1545 : 		}

	cmp	ebp, esp
	call	__RTC_CheckEsp
	pop	ebp
	ret	0
?_Putc@?$num_put@DV?$ostreambuf_iterator@DU?$char_traits@D@std@@@std@@@std@@ABA?AV?$ostreambuf_iterator@DU?$char_traits@D@std@@@2@V32@PBDI@Z ENDP ; std::num_put<char,std::ostreambuf_iterator<char,std::char_traits<char> > >::_Putc
; Function compile flags: /Odtp /RTCsu
_TEXT	ENDS
;	COMDAT ?_Putgrouped@?$num_put@DV?$ostreambuf_iterator@DU?$char_traits@D@std@@@std@@@std@@ABA?AV?$ostreambuf_iterator@DU?$char_traits@D@std@@@2@V32@PBDID@Z
_TEXT	SEGMENT
tv72 = -28						; size = 4
$T147878 = -24						; size = 8
$T147877 = -16						; size = 8
__Groupsize$140936 = -8					; size = 4
__Pend$140934 = -4					; size = 4
_this$ = 8						; size = 4
___$ReturnUdt$ = 12					; size = 4
__Dest$ = 16						; size = 8
__Ptr$ = 24						; size = 4
__Count$ = 28						; size = 4
__Kseparator$ = 32					; size = 1
?_Putgrouped@?$num_put@DV?$ostreambuf_iterator@DU?$char_traits@D@std@@@std@@@std@@ABA?AV?$ostreambuf_iterator@DU?$char_traits@D@std@@@2@V32@PBDID@Z PROC ; std::num_put<char,std::ostreambuf_iterator<char,std::char_traits<char> > >::_Putgrouped, COMDAT

; 1549 : 		{	// put char sequence [_Ptr, _Ptr + _Count) to _Dest with commas

	push	ebp
	mov	ebp, esp
	sub	esp, 28					; 0000001cH
	mov	eax, -858993460				; ccccccccH
	mov	DWORD PTR [ebp-28], eax
	mov	DWORD PTR [ebp-24], eax
	mov	DWORD PTR [ebp-20], eax
	mov	DWORD PTR [ebp-16], eax
	mov	DWORD PTR [ebp-12], eax
	mov	DWORD PTR [ebp-8], eax
	mov	DWORD PTR [ebp-4], eax

; 1550 : 		for (; ; ++_Ptr, --_Count)

	jmp	SHORT $LN5@Putgrouped
$LN4@Putgrouped:
	mov	eax, DWORD PTR __Ptr$[ebp]
	add	eax, 1
	mov	DWORD PTR __Ptr$[ebp], eax
	mov	ecx, DWORD PTR __Count$[ebp]
	sub	ecx, 1
	mov	DWORD PTR __Count$[ebp], ecx
$LN5@Putgrouped:

; 1551 : 			{	// put field with thousands separators for NULs
; 1552 : 			const char *_Pend =
; 1553 : 				(const char *)_CSTD memchr(_Ptr, '\0', _Count);

	mov	edx, DWORD PTR __Count$[ebp]
	push	edx
	push	0
	mov	eax, DWORD PTR __Ptr$[ebp]
	push	eax
	call	_memchr
	add	esp, 12					; 0000000cH
	mov	DWORD PTR __Pend$140934[ebp], eax

; 1554 : 			size_t _Groupsize = _Pend != 0 ? _Pend - _Ptr : _Count;

	cmp	DWORD PTR __Pend$140934[ebp], 0
	je	SHORT $LN8@Putgrouped
	mov	ecx, DWORD PTR __Pend$140934[ebp]
	sub	ecx, DWORD PTR __Ptr$[ebp]
	mov	DWORD PTR tv72[ebp], ecx
	jmp	SHORT $LN9@Putgrouped
$LN8@Putgrouped:
	mov	edx, DWORD PTR __Count$[ebp]
	mov	DWORD PTR tv72[ebp], edx
$LN9@Putgrouped:
	mov	eax, DWORD PTR tv72[ebp]
	mov	DWORD PTR __Groupsize$140936[ebp], eax

; 1555 : 
; 1556 : 			_Dest = _Putc(_Dest, _Ptr, _Groupsize);

	mov	ecx, DWORD PTR __Groupsize$140936[ebp]
	push	ecx
	mov	edx, DWORD PTR __Ptr$[ebp]
	push	edx
	mov	eax, DWORD PTR __Dest$[ebp+4]
	push	eax
	mov	ecx, DWORD PTR __Dest$[ebp]
	push	ecx
	lea	edx, DWORD PTR $T147877[ebp]
	push	edx
	mov	eax, DWORD PTR _this$[ebp]
	push	eax
	call	?_Putc@?$num_put@DV?$ostreambuf_iterator@DU?$char_traits@D@std@@@std@@@std@@ABA?AV?$ostreambuf_iterator@DU?$char_traits@D@std@@@2@V32@PBDI@Z ; std::num_put<char,std::ostreambuf_iterator<char,std::char_traits<char> > >::_Putc
	add	esp, 24					; 00000018H
	mov	ecx, DWORD PTR [eax]
	mov	edx, DWORD PTR [eax+4]
	mov	DWORD PTR __Dest$[ebp], ecx
	mov	DWORD PTR __Dest$[ebp+4], edx

; 1557 : 			_Ptr += _Groupsize, _Count -= _Groupsize;

	mov	eax, DWORD PTR __Ptr$[ebp]
	add	eax, DWORD PTR __Groupsize$140936[ebp]
	mov	DWORD PTR __Ptr$[ebp], eax
	mov	ecx, DWORD PTR __Count$[ebp]
	sub	ecx, DWORD PTR __Groupsize$140936[ebp]
	mov	DWORD PTR __Count$[ebp], ecx

; 1558 : 			if (_Count == 0)

	jne	SHORT $LN2@Putgrouped

; 1559 : 				break;

	jmp	SHORT $LN3@Putgrouped
$LN2@Putgrouped:

; 1560 : 			if (_Kseparator != (_Elem)0)

	movsx	edx, BYTE PTR __Kseparator$[ebp]
	test	edx, edx
	je	SHORT $LN1@Putgrouped

; 1561 : 				_Dest = _Rep(_Dest, _Kseparator, 1);

	push	1
	movzx	eax, BYTE PTR __Kseparator$[ebp]
	push	eax
	mov	ecx, DWORD PTR __Dest$[ebp+4]
	push	ecx
	mov	edx, DWORD PTR __Dest$[ebp]
	push	edx
	lea	eax, DWORD PTR $T147878[ebp]
	push	eax
	mov	ecx, DWORD PTR _this$[ebp]
	push	ecx
	call	?_Rep@?$num_put@DV?$ostreambuf_iterator@DU?$char_traits@D@std@@@std@@@std@@ABA?AV?$ostreambuf_iterator@DU?$char_traits@D@std@@@2@V32@DI@Z ; std::num_put<char,std::ostreambuf_iterator<char,std::char_traits<char> > >::_Rep
	add	esp, 24					; 00000018H
	mov	edx, DWORD PTR [eax]
	mov	eax, DWORD PTR [eax+4]
	mov	DWORD PTR __Dest$[ebp], edx
	mov	DWORD PTR __Dest$[ebp+4], eax
$LN1@Putgrouped:

; 1562 : 			}

	jmp	$LN4@Putgrouped
$LN3@Putgrouped:

; 1563 : 		return (_Dest);

	mov	ecx, DWORD PTR ___$ReturnUdt$[ebp]
	mov	edx, DWORD PTR __Dest$[ebp]
	mov	DWORD PTR [ecx], edx
	mov	eax, DWORD PTR __Dest$[ebp+4]
	mov	DWORD PTR [ecx+4], eax
	mov	eax, DWORD PTR ___$ReturnUdt$[ebp]

; 1564 : 		}

	add	esp, 28					; 0000001cH
	cmp	ebp, esp
	call	__RTC_CheckEsp
	mov	esp, ebp
	pop	ebp
	ret	0
?_Putgrouped@?$num_put@DV?$ostreambuf_iterator@DU?$char_traits@D@std@@@std@@@std@@ABA?AV?$ostreambuf_iterator@DU?$char_traits@D@std@@@2@V32@PBDID@Z ENDP ; std::num_put<char,std::ostreambuf_iterator<char,std::char_traits<char> > >::_Putgrouped
_TEXT	ENDS
PUBLIC	?sputc@?$basic_streambuf@DU?$char_traits@D@std@@@std@@QAEHD@Z ; std::basic_streambuf<char,std::char_traits<char> >::sputc
; Function compile flags: /Odtp /RTCsu
; File c:\program files (x86)\microsoft visual studio 10.0\vc\include\streambuf
;	COMDAT ??4?$ostreambuf_iterator@DU?$char_traits@D@std@@@std@@QAEAAV01@D@Z
_TEXT	SEGMENT
$T147882 = -12						; size = 4
$T147881 = -8						; size = 4
_this$ = -4						; size = 4
__Right$ = 8						; size = 1
??4?$ostreambuf_iterator@DU?$char_traits@D@std@@@std@@QAEAAV01@D@Z PROC ; std::ostreambuf_iterator<char,std::char_traits<char> >::operator=, COMDAT
; _this$ = ecx

; 622  : 		{	// store element and increment

	push	ebp
	mov	ebp, esp
	sub	esp, 12					; 0000000cH
	mov	DWORD PTR [ebp-12], -858993460		; ccccccccH
	mov	DWORD PTR [ebp-8], -858993460		; ccccccccH
	mov	DWORD PTR [ebp-4], -858993460		; ccccccccH
	mov	DWORD PTR _this$[ebp], ecx

; 623  : 		if (_Strbuf == 0
; 624  : 			|| traits_type::eq_int_type(_Traits::eof(),
; 625  : 				_Strbuf->sputc(_Right)))

	mov	eax, DWORD PTR _this$[ebp]
	cmp	DWORD PTR [eax+4], 0
	je	SHORT $LN1@operator@5
	movzx	ecx, BYTE PTR __Right$[ebp]
	push	ecx
	mov	edx, DWORD PTR _this$[ebp]
	mov	ecx, DWORD PTR [edx+4]
	call	?sputc@?$basic_streambuf@DU?$char_traits@D@std@@@std@@QAEHD@Z ; std::basic_streambuf<char,std::char_traits<char> >::sputc
	mov	DWORD PTR $T147881[ebp], eax
	call	?eof@?$char_traits@D@std@@SAHXZ		; std::char_traits<char>::eof
	mov	DWORD PTR $T147882[ebp], eax
	lea	eax, DWORD PTR $T147881[ebp]
	push	eax
	lea	ecx, DWORD PTR $T147882[ebp]
	push	ecx
	call	?eq_int_type@?$char_traits@D@std@@SA_NABH0@Z ; std::char_traits<char>::eq_int_type
	add	esp, 8
	movzx	edx, al
	test	edx, edx
	je	SHORT $LN2@operator@5
$LN1@operator@5:

; 626  : 			_Failed = true;

	mov	eax, DWORD PTR _this$[ebp]
	mov	BYTE PTR [eax], 1
$LN2@operator@5:

; 627  : 		return (*this);

	mov	eax, DWORD PTR _this$[ebp]

; 628  : 		}

	add	esp, 12					; 0000000cH
	cmp	ebp, esp
	call	__RTC_CheckEsp
	mov	esp, ebp
	pop	ebp
	ret	4
??4?$ostreambuf_iterator@DU?$char_traits@D@std@@@std@@QAEAAV01@D@Z ENDP ; std::ostreambuf_iterator<char,std::char_traits<char> >::operator=
; Function compile flags: /Odtp /RTCsu
_TEXT	ENDS
;	COMDAT ?sputc@?$basic_streambuf@DU?$char_traits@D@std@@@std@@QAEHD@Z
_TEXT	SEGMENT
tv78 = -20						; size = 4
tv85 = -16						; size = 8
$T147885 = -8						; size = 4
_this$ = -4						; size = 4
__Ch$ = 8						; size = 1
?sputc@?$basic_streambuf@DU?$char_traits@D@std@@@std@@QAEHD@Z PROC ; std::basic_streambuf<char,std::char_traits<char> >::sputc, COMDAT
; _this$ = ecx

; 193  : 		{	// put a character

	push	ebp
	mov	ebp, esp
	sub	esp, 20					; 00000014H
	push	esi
	mov	eax, -858993460				; ccccccccH
	mov	DWORD PTR [ebp-20], eax
	mov	DWORD PTR [ebp-16], eax
	mov	DWORD PTR [ebp-12], eax
	mov	DWORD PTR [ebp-8], eax
	mov	DWORD PTR [ebp-4], eax
	mov	DWORD PTR _this$[ebp], ecx

; 194  : 		return (0 < _Pnavail()
; 195  : 			? _Traits::to_int_type(*_Pninc() = _Ch)
; 196  : 			: overflow(_Traits::to_int_type(_Ch)));

	mov	ecx, DWORD PTR _this$[ebp]
	call	?_Pnavail@?$basic_streambuf@DU?$char_traits@D@std@@@std@@IBE_JXZ ; std::basic_streambuf<char,std::char_traits<char> >::_Pnavail
	mov	DWORD PTR tv85[ebp], eax
	mov	DWORD PTR tv85[ebp+4], edx
	cmp	DWORD PTR tv85[ebp+4], 0
	jl	SHORT $LN3@sputc
	jg	SHORT $LN5@sputc
	cmp	DWORD PTR tv85[ebp], 0
	jbe	SHORT $LN3@sputc
$LN5@sputc:
	mov	ecx, DWORD PTR _this$[ebp]
	call	?_Pninc@?$basic_streambuf@DU?$char_traits@D@std@@@std@@IAEPADXZ ; std::basic_streambuf<char,std::char_traits<char> >::_Pninc
	mov	DWORD PTR $T147885[ebp], eax
	mov	eax, DWORD PTR $T147885[ebp]
	mov	cl, BYTE PTR __Ch$[ebp]
	mov	BYTE PTR [eax], cl
	mov	edx, DWORD PTR $T147885[ebp]
	push	edx
	call	?to_int_type@?$char_traits@D@std@@SAHABD@Z ; std::char_traits<char>::to_int_type
	add	esp, 4
	mov	DWORD PTR tv78[ebp], eax
	jmp	SHORT $LN4@sputc
$LN3@sputc:
	lea	eax, DWORD PTR __Ch$[ebp]
	push	eax
	call	?to_int_type@?$char_traits@D@std@@SAHABD@Z ; std::char_traits<char>::to_int_type
	add	esp, 4
	mov	esi, esp
	push	eax
	mov	ecx, DWORD PTR _this$[ebp]
	mov	edx, DWORD PTR [ecx]
	mov	ecx, DWORD PTR _this$[ebp]
	mov	eax, DWORD PTR [edx+12]
	call	eax
	cmp	esi, esp
	call	__RTC_CheckEsp
	mov	DWORD PTR tv78[ebp], eax
$LN4@sputc:
	mov	eax, DWORD PTR tv78[ebp]

; 197  : 		}

	pop	esi
	add	esp, 20					; 00000014H
	cmp	ebp, esp
	call	__RTC_CheckEsp
	mov	esp, ebp
	pop	ebp
	ret	4
?sputc@?$basic_streambuf@DU?$char_traits@D@std@@@std@@QAEHD@Z ENDP ; std::basic_streambuf<char,std::char_traits<char> >::sputc
; Function compile flags: /Odtp /RTCsu
_TEXT	ENDS
;	COMDAT ??D?$ostreambuf_iterator@DU?$char_traits@D@std@@@std@@QAEAAV01@XZ
_TEXT	SEGMENT
_this$ = -4						; size = 4
??D?$ostreambuf_iterator@DU?$char_traits@D@std@@@std@@QAEAAV01@XZ PROC ; std::ostreambuf_iterator<char,std::char_traits<char> >::operator*, COMDAT
; _this$ = ecx

; 631  : 		{	// pretend to get designated element

	push	ebp
	mov	ebp, esp
	push	ecx
	mov	DWORD PTR [ebp-4], -858993460		; ccccccccH
	mov	DWORD PTR _this$[ebp], ecx

; 632  : 		return (*this);

	mov	eax, DWORD PTR _this$[ebp]

; 633  : 		}

	mov	esp, ebp
	pop	ebp
	ret	0
??D?$ostreambuf_iterator@DU?$char_traits@D@std@@@std@@QAEAAV01@XZ ENDP ; std::ostreambuf_iterator<char,std::char_traits<char> >::operator*
; Function compile flags: /Odtp /RTCsu
_TEXT	ENDS
;	COMDAT ??E?$ostreambuf_iterator@DU?$char_traits@D@std@@@std@@QAEAAV01@XZ
_TEXT	SEGMENT
_this$ = -4						; size = 4
??E?$ostreambuf_iterator@DU?$char_traits@D@std@@@std@@QAEAAV01@XZ PROC ; std::ostreambuf_iterator<char,std::char_traits<char> >::operator++, COMDAT
; _this$ = ecx

; 636  : 		{	// pretend to preincrement

	push	ebp
	mov	ebp, esp
	push	ecx
	mov	DWORD PTR [ebp-4], -858993460		; ccccccccH
	mov	DWORD PTR _this$[ebp], ecx

; 637  : 		return (*this);

	mov	eax, DWORD PTR _this$[ebp]

; 638  : 		}

	mov	esp, ebp
	pop	ebp
	ret	0
??E?$ostreambuf_iterator@DU?$char_traits@D@std@@@std@@QAEAAV01@XZ ENDP ; std::ostreambuf_iterator<char,std::char_traits<char> >::operator++
; Function compile flags: /Odtp /RTCsu
; File c:\program files (x86)\microsoft visual studio 10.0\vc\include\xlocnum
_TEXT	ENDS
;	COMDAT ?decimal_point@?$numpunct@D@std@@QBEDXZ
_TEXT	SEGMENT
_this$ = -4						; size = 4
?decimal_point@?$numpunct@D@std@@QBEDXZ PROC		; std::numpunct<char>::decimal_point, COMDAT
; _this$ = ecx

; 68   : 		{	// return decimal point

	push	ebp
	mov	ebp, esp
	push	ecx
	push	esi
	mov	DWORD PTR [ebp-4], -858993460		; ccccccccH
	mov	DWORD PTR _this$[ebp], ecx

; 69   : 		return (do_decimal_point());

	mov	eax, DWORD PTR _this$[ebp]
	mov	edx, DWORD PTR [eax]
	mov	esi, esp
	mov	ecx, DWORD PTR _this$[ebp]
	mov	eax, DWORD PTR [edx+4]
	call	eax
	cmp	esi, esp
	call	__RTC_CheckEsp

; 70   : 		}

	pop	esi
	add	esp, 4
	cmp	ebp, esp
	call	__RTC_CheckEsp
	mov	esp, ebp
	pop	ebp
	ret	0
?decimal_point@?$numpunct@D@std@@QBEDXZ ENDP		; std::numpunct<char>::decimal_point
; Function compile flags: /Odtp /RTCsu
_TEXT	ENDS
;	COMDAT ?thousands_sep@?$numpunct@D@std@@QBEDXZ
_TEXT	SEGMENT
_this$ = -4						; size = 4
?thousands_sep@?$numpunct@D@std@@QBEDXZ PROC		; std::numpunct<char>::thousands_sep, COMDAT
; _this$ = ecx

; 73   : 		{	// return thousands separator

	push	ebp
	mov	ebp, esp
	push	ecx
	push	esi
	mov	DWORD PTR [ebp-4], -858993460		; ccccccccH
	mov	DWORD PTR _this$[ebp], ecx

; 74   : 		return (do_thousands_sep());

	mov	eax, DWORD PTR _this$[ebp]
	mov	edx, DWORD PTR [eax]
	mov	esi, esp
	mov	ecx, DWORD PTR _this$[ebp]
	mov	eax, DWORD PTR [edx+8]
	call	eax
	cmp	esi, esp
	call	__RTC_CheckEsp

; 75   : 		}

	pop	esi
	add	esp, 4
	cmp	ebp, esp
	call	__RTC_CheckEsp
	mov	esp, ebp
	pop	ebp
	ret	0
?thousands_sep@?$numpunct@D@std@@QBEDXZ ENDP		; std::numpunct<char>::thousands_sep
; Function compile flags: /Odtp /RTCsu
_TEXT	ENDS
;	COMDAT ?grouping@?$numpunct@D@std@@QBE?AV?$basic_string@DU?$char_traits@D@std@@V?$allocator@D@2@@2@XZ
_TEXT	SEGMENT
$T147900 = -8						; size = 4
_this$ = -4						; size = 4
___$ReturnUdt$ = 8					; size = 4
?grouping@?$numpunct@D@std@@QBE?AV?$basic_string@DU?$char_traits@D@std@@V?$allocator@D@2@@2@XZ PROC ; std::numpunct<char>::grouping, COMDAT
; _this$ = ecx

; 78   : 		{	// return grouping string

	push	ebp
	mov	ebp, esp
	sub	esp, 8
	push	esi
	mov	DWORD PTR [ebp-8], -858993460		; ccccccccH
	mov	DWORD PTR [ebp-4], -858993460		; ccccccccH
	mov	DWORD PTR _this$[ebp], ecx
	mov	DWORD PTR $T147900[ebp], 0

; 79   : 		return (do_grouping());

	mov	esi, esp
	mov	eax, DWORD PTR ___$ReturnUdt$[ebp]
	push	eax
	mov	ecx, DWORD PTR _this$[ebp]
	mov	edx, DWORD PTR [ecx]
	mov	ecx, DWORD PTR _this$[ebp]
	mov	eax, DWORD PTR [edx+12]
	call	eax
	cmp	esi, esp
	call	__RTC_CheckEsp
	mov	ecx, DWORD PTR $T147900[ebp]
	or	ecx, 1
	mov	DWORD PTR $T147900[ebp], ecx
	mov	eax, DWORD PTR ___$ReturnUdt$[ebp]

; 80   : 		}

	pop	esi
	add	esp, 8
	cmp	ebp, esp
	call	__RTC_CheckEsp
	mov	esp, ebp
	pop	ebp
	ret	4
?grouping@?$numpunct@D@std@@QBE?AV?$basic_string@DU?$char_traits@D@std@@V?$allocator@D@2@@2@XZ ENDP ; std::numpunct<char>::grouping
; Function compile flags: /Odtp /RTCsu
; File c:\program files (x86)\microsoft visual studio 10.0\vc\include\xstring
_TEXT	ENDS
;	COMDAT ?append@?$basic_string@DU?$char_traits@D@std@@V?$allocator@D@2@@std@@QAEAAV12@ABV12@II@Z
_TEXT	SEGMENT
__Num$ = -8						; size = 4
_this$ = -4						; size = 4
__Right$ = 8						; size = 4
__Roff$ = 12						; size = 4
__Count$ = 16						; size = 4
?append@?$basic_string@DU?$char_traits@D@std@@V?$allocator@D@2@@std@@QAEAAV12@ABV12@II@Z PROC ; std::basic_string<char,std::char_traits<char>,std::allocator<char> >::append, COMDAT
; _this$ = ecx

; 798  : 		{	// append _Right [_Roff, _Roff + _Count)

	push	ebp
	mov	ebp, esp
	sub	esp, 8
	mov	DWORD PTR [ebp-8], -858993460		; ccccccccH
	mov	DWORD PTR [ebp-4], -858993460		; ccccccccH
	mov	DWORD PTR _this$[ebp], ecx

; 799  : 		if (_Right.size() < _Roff)

	mov	ecx, DWORD PTR __Right$[ebp]
	call	?size@?$basic_string@DU?$char_traits@D@std@@V?$allocator@D@2@@std@@QBEIXZ ; std::basic_string<char,std::char_traits<char>,std::allocator<char> >::size
	cmp	eax, DWORD PTR __Roff$[ebp]
	jae	SHORT $LN4@append@3

; 800  : 			_Xran();	// _Roff off end

	mov	ecx, DWORD PTR _this$[ebp]
	call	?_Xran@?$basic_string@DU?$char_traits@D@std@@V?$allocator@D@2@@std@@QBEXXZ ; std::basic_string<char,std::char_traits<char>,std::allocator<char> >::_Xran
$LN4@append@3:

; 801  : 		size_type _Num = _Right.size() - _Roff;

	mov	ecx, DWORD PTR __Right$[ebp]
	call	?size@?$basic_string@DU?$char_traits@D@std@@V?$allocator@D@2@@std@@QBEIXZ ; std::basic_string<char,std::char_traits<char>,std::allocator<char> >::size
	sub	eax, DWORD PTR __Roff$[ebp]
	mov	DWORD PTR __Num$[ebp], eax

; 802  : 		if (_Num < _Count)

	mov	eax, DWORD PTR __Num$[ebp]
	cmp	eax, DWORD PTR __Count$[ebp]
	jae	SHORT $LN3@append@3

; 803  : 			_Count = _Num;	// trim _Count to size

	mov	ecx, DWORD PTR __Num$[ebp]
	mov	DWORD PTR __Count$[ebp], ecx
$LN3@append@3:

; 804  : 		if (npos - this->_Mysize <= _Count)

	mov	edx, DWORD PTR _this$[ebp]
	mov	eax, DWORD PTR ?npos@?$basic_string@DU?$char_traits@D@std@@V?$allocator@D@2@@std@@2IB ; std::basic_string<char,std::char_traits<char>,std::allocator<char> >::npos
	sub	eax, DWORD PTR [edx+20]
	cmp	eax, DWORD PTR __Count$[ebp]
	ja	SHORT $LN2@append@3

; 805  : 			_Xlen();	// result too long

	mov	ecx, DWORD PTR _this$[ebp]
	call	?_Xlen@?$basic_string@DU?$char_traits@D@std@@V?$allocator@D@2@@std@@QBEXXZ ; std::basic_string<char,std::char_traits<char>,std::allocator<char> >::_Xlen
$LN2@append@3:

; 806  : 
; 807  : 		if (0 < _Count && _Grow(_Num = this->_Mysize + _Count))

	cmp	DWORD PTR __Count$[ebp], 0
	jbe	SHORT $LN1@append@3
	mov	ecx, DWORD PTR _this$[ebp]
	mov	edx, DWORD PTR [ecx+20]
	add	edx, DWORD PTR __Count$[ebp]
	mov	DWORD PTR __Num$[ebp], edx
	push	0
	mov	eax, DWORD PTR __Num$[ebp]
	push	eax
	mov	ecx, DWORD PTR _this$[ebp]
	call	?_Grow@?$basic_string@DU?$char_traits@D@std@@V?$allocator@D@2@@std@@QAE_NI_N@Z ; std::basic_string<char,std::char_traits<char>,std::allocator<char> >::_Grow
	movzx	ecx, al
	test	ecx, ecx
	je	SHORT $LN1@append@3

; 808  : 			{	// make room and append new stuff
; 809  : 			_Traits::copy(_Myptr() + this->_Mysize,
; 810  : 				_Right._Myptr() + _Roff, _Count);

	mov	edx, DWORD PTR __Count$[ebp]
	push	edx
	mov	ecx, DWORD PTR __Right$[ebp]
	call	?_Myptr@?$basic_string@DU?$char_traits@D@std@@V?$allocator@D@2@@std@@QBEPBDXZ ; std::basic_string<char,std::char_traits<char>,std::allocator<char> >::_Myptr
	add	eax, DWORD PTR __Roff$[ebp]
	push	eax
	mov	ecx, DWORD PTR _this$[ebp]
	call	?_Myptr@?$basic_string@DU?$char_traits@D@std@@V?$allocator@D@2@@std@@QAEPADXZ ; std::basic_string<char,std::char_traits<char>,std::allocator<char> >::_Myptr
	mov	ecx, DWORD PTR _this$[ebp]
	add	eax, DWORD PTR [ecx+20]
	push	eax
	call	?copy@?$char_traits@D@std@@SAPADPADPBDI@Z ; std::char_traits<char>::copy
	add	esp, 12					; 0000000cH

; 811  : 			_Eos(_Num);

	mov	edx, DWORD PTR __Num$[ebp]
	push	edx
	mov	ecx, DWORD PTR _this$[ebp]
	call	?_Eos@?$basic_string@DU?$char_traits@D@std@@V?$allocator@D@2@@std@@QAEXI@Z ; std::basic_string<char,std::char_traits<char>,std::allocator<char> >::_Eos
$LN1@append@3:

; 812  : 			}
; 813  : 		return (*this);

	mov	eax, DWORD PTR _this$[ebp]
$LN6@append@3:

; 814  : 		}

	add	esp, 8
	cmp	ebp, esp
	call	__RTC_CheckEsp
	mov	esp, ebp
	pop	ebp
	ret	12					; 0000000cH
?append@?$basic_string@DU?$char_traits@D@std@@V?$allocator@D@2@@std@@QAEAAV12@ABV12@II@Z ENDP ; std::basic_string<char,std::char_traits<char>,std::allocator<char> >::append
; Function compile flags: /Odtp /RTCsu
; File c:\program files (x86)\microsoft visual studio 10.0\vc\include\xutility
_TEXT	ENDS
;	COMDAT ??$_Debug_pointer@V?$ostreambuf_iterator@DU?$char_traits@D@std@@@std@@@std@@YAXAAV?$ostreambuf_iterator@DU?$char_traits@D@std@@@0@PB_WI@Z
_TEXT	SEGMENT
___formal$ = 8						; size = 4
___formal$ = 12						; size = 4
___formal$ = 16						; size = 4
??$_Debug_pointer@V?$ostreambuf_iterator@DU?$char_traits@D@std@@@std@@@std@@YAXAAV?$ostreambuf_iterator@DU?$char_traits@D@std@@@0@PB_WI@Z PROC ; std::_Debug_pointer<std::ostreambuf_iterator<char,std::char_traits<char> > >, COMDAT

; 696  : 	{	// test pointer for non-singularity, arbitrary type

	push	ebp
	mov	ebp, esp

; 697  : 	}

	pop	ebp
	ret	0
??$_Debug_pointer@V?$ostreambuf_iterator@DU?$char_traits@D@std@@@std@@@std@@YAXAAV?$ostreambuf_iterator@DU?$char_traits@D@std@@@0@PB_WI@Z ENDP ; std::_Debug_pointer<std::ostreambuf_iterator<char,std::char_traits<char> > >
_TEXT	ENDS
PUBLIC	?_Getcat@?$numpunct@D@std@@SAIPAPBVfacet@locale@2@PBV42@@Z ; std::numpunct<char>::_Getcat
PUBLIC	?_Psave@?$_Facetptr@V?$numpunct@D@std@@@std@@2PBVfacet@locale@2@B ; std::_Facetptr<std::numpunct<char> >::_Psave
;	COMDAT ?_Psave@?$_Facetptr@V?$numpunct@D@std@@@std@@2PBVfacet@locale@2@B
; File c:\program files (x86)\microsoft visual studio 10.0\vc\include\xlocale
_BSS	SEGMENT
?_Psave@?$_Facetptr@V?$numpunct@D@std@@@std@@2PBVfacet@locale@2@B DD 01H DUP (?) ; std::_Facetptr<std::numpunct<char> >::_Psave
_BSS	ENDS
;	COMDAT xdata$x
xdata$x	SEGMENT
__unwindtable$??$use_facet@V?$numpunct@D@std@@@std@@YAABV?$numpunct@D@0@ABVlocale@0@@Z DD 0ffffffffH
	DD	FLAT:__unwindfunclet$??$use_facet@V?$numpunct@D@std@@@std@@YAABV?$numpunct@D@0@ABVlocale@0@@Z$0
__ehfuncinfo$??$use_facet@V?$numpunct@D@std@@@std@@YAABV?$numpunct@D@0@ABVlocale@0@@Z DD 019930522H
	DD	01H
	DD	FLAT:__unwindtable$??$use_facet@V?$numpunct@D@std@@@std@@YAABV?$numpunct@D@0@ABVlocale@0@@Z
	DD	2 DUP(00H)
	DD	2 DUP(00H)
	DD	00H
	DD	01H
; Function compile flags: /Odtp /RTCsu
xdata$x	ENDS
;	COMDAT ??$use_facet@V?$numpunct@D@std@@@std@@YAABV?$numpunct@D@0@ABVlocale@0@@Z
_TEXT	SEGMENT
$T147909 = -64						; size = 4
$T147908 = -60						; size = 12
__Pfmod$142823 = -48					; size = 4
__Pf$142812 = -44					; size = 4
__Id$142811 = -40					; size = 4
__Psave$142799 = -32					; size = 4
__Lock$142798 = -20					; size = 4
__$EHRec$ = -12						; size = 12
__Loc$ = 8						; size = 4
??$use_facet@V?$numpunct@D@std@@@std@@YAABV?$numpunct@D@0@ABVlocale@0@@Z PROC ; std::use_facet<std::numpunct<char> >, COMDAT

; 504  : 	{	// get facet reference from locale

	push	ebp
	mov	ebp, esp
	push	-1
	push	__ehhandler$??$use_facet@V?$numpunct@D@std@@@std@@YAABV?$numpunct@D@0@ABVlocale@0@@Z
	mov	eax, DWORD PTR fs:0
	push	eax
	sub	esp, 52					; 00000034H
	push	edi
	lea	edi, DWORD PTR [ebp-64]
	mov	ecx, 13					; 0000000dH
	mov	eax, -858993460				; ccccccccH
	rep stosd
	mov	eax, DWORD PTR ___security_cookie
	xor	eax, ebp
	push	eax
	lea	eax, DWORD PTR __$EHRec$[ebp]
	mov	DWORD PTR fs:0, eax

; 505  : 	_BEGIN_LOCK(_LOCK_LOCALE)	// the thread lock, make get atomic

	push	0
	lea	ecx, DWORD PTR __Lock$142798[ebp]
	call	??0_Lockit@std@@QAE@H@Z			; std::_Lockit::_Lockit
	mov	DWORD PTR __$EHRec$[ebp+8], 0

; 506  : 		const locale::facet *_Psave =
; 507  : 			_Facetptr<_Facet>::_Psave;	// static pointer to lazy facet

	mov	eax, DWORD PTR ?_Psave@?$_Facetptr@V?$numpunct@D@std@@@std@@2PBVfacet@locale@2@B ; std::_Facetptr<std::numpunct<char> >::_Psave
	mov	DWORD PTR __Psave$142799[ebp], eax

; 508  : 
; 509  : 		size_t _Id = _Facet::id;

	mov	ecx, OFFSET ?id@?$numpunct@D@std@@2V0locale@2@A ; std::numpunct<char>::id
	call	??Bid@locale@std@@QAEIXZ		; std::locale::id::operator unsigned int
	mov	DWORD PTR __Id$142811[ebp], eax

; 510  : 		const locale::facet *_Pf = _Loc._Getfacet(_Id);

	mov	ecx, DWORD PTR __Id$142811[ebp]
	push	ecx
	mov	ecx, DWORD PTR __Loc$[ebp]
	call	?_Getfacet@locale@std@@QBEPBVfacet@12@I@Z ; std::locale::_Getfacet
	mov	DWORD PTR __Pf$142812[ebp], eax

; 511  : 
; 512  : 		if (_Pf != 0)

	cmp	DWORD PTR __Pf$142812[ebp], 0
	je	SHORT $LN6@use_facet@2
	jmp	SHORT $LN5@use_facet@2
$LN6@use_facet@2:

; 513  : 			;	// got facet from locale
; 514  : 		else if (_Psave != 0)

	cmp	DWORD PTR __Psave$142799[ebp], 0
	je	SHORT $LN4@use_facet@2

; 515  : 			_Pf = _Psave;	// lazy facet already allocated

	mov	edx, DWORD PTR __Psave$142799[ebp]
	mov	DWORD PTR __Pf$142812[ebp], edx
	jmp	SHORT $LN5@use_facet@2
$LN4@use_facet@2:

; 516  : 		else if (_Facet::_Getcat(&_Psave, &_Loc) == (size_t)(-1))

	mov	eax, DWORD PTR __Loc$[ebp]
	push	eax
	lea	ecx, DWORD PTR __Psave$142799[ebp]
	push	ecx
	call	?_Getcat@?$numpunct@D@std@@SAIPAPBVfacet@locale@2@PBV42@@Z ; std::numpunct<char>::_Getcat
	add	esp, 8
	cmp	eax, -1
	jne	SHORT $LN2@use_facet@2

; 517  : 
; 518  :  #if _HAS_EXCEPTIONS
; 519  : 
; 520  : 			_THROW_NCEE(bad_cast, _EMPTY_ARGUMENT);	// lazy disallowed

	push	OFFSET ??_C@_08EPJLHIJG@bad?5cast?$AA@
	lea	ecx, DWORD PTR $T147908[ebp]
	call	??0bad_cast@std@@QAE@PBD@Z		; std::bad_cast::bad_cast
	push	OFFSET __TI2?AVbad_cast@std@@
	lea	edx, DWORD PTR $T147908[ebp]
	push	edx
	call	__CxxThrowException@8

; 521  : 
; 522  :  #else /* _HAS_EXCEPTIONS */
; 523  : 			abort();	// lazy disallowed
; 524  :  #endif /* _HAS_EXCEPTIONS */
; 525  : 
; 526  : 		else

	jmp	SHORT $LN5@use_facet@2
$LN2@use_facet@2:

; 527  : 			{	// queue up lazy facet for destruction
; 528  : 			_Pf = _Psave;

	mov	eax, DWORD PTR __Psave$142799[ebp]
	mov	DWORD PTR __Pf$142812[ebp], eax

; 529  : 			_Facetptr<_Facet>::_Psave = _Psave;

	mov	ecx, DWORD PTR __Psave$142799[ebp]
	mov	DWORD PTR ?_Psave@?$_Facetptr@V?$numpunct@D@std@@@std@@2PBVfacet@locale@2@B, ecx ; std::_Facetptr<std::numpunct<char> >::_Psave

; 530  : 
; 531  : 			locale::facet *_Pfmod = (_Facet *)_Psave;

	mov	edx, DWORD PTR __Psave$142799[ebp]
	mov	DWORD PTR __Pfmod$142823[ebp], edx

; 532  : 			_Pfmod->_Incref();

	mov	ecx, DWORD PTR __Pfmod$142823[ebp]
	call	?_Incref@facet@locale@std@@QAEXXZ	; std::locale::facet::_Incref

; 533  : 			_Pfmod->_Register();

	mov	ecx, DWORD PTR __Pfmod$142823[ebp]
	call	?_Register@facet@locale@std@@QAEXXZ	; std::locale::facet::_Register
$LN5@use_facet@2:

; 534  : 			}
; 535  : 
; 536  : 		return ((const _Facet&)(*_Pf));	// should be dynamic_cast

	mov	eax, DWORD PTR __Pf$142812[ebp]
	mov	DWORD PTR $T147909[ebp], eax
	mov	DWORD PTR __$EHRec$[ebp+8], -1
	lea	ecx, DWORD PTR __Lock$142798[ebp]
	call	??1_Lockit@std@@QAE@XZ			; std::_Lockit::~_Lockit
	mov	eax, DWORD PTR $T147909[ebp]
$LN8@use_facet@2:

; 537  : 	_END_LOCK()
; 538  : 	}

	push	edx
	mov	ecx, ebp
	push	eax
	lea	edx, DWORD PTR $LN14@use_facet@2
	call	@_RTC_CheckStackVars@8
	pop	eax
	pop	edx
	mov	ecx, DWORD PTR __$EHRec$[ebp]
	mov	DWORD PTR fs:0, ecx
	pop	ecx
	pop	edi
	add	esp, 64					; 00000040H
	cmp	ebp, esp
	call	__RTC_CheckEsp
	mov	esp, ebp
	pop	ebp
	ret	0
	npad	2
$LN14@use_facet@2:
	DD	2
	DD	$LN13@use_facet@2
$LN13@use_facet@2:
	DD	-20					; ffffffecH
	DD	4
	DD	$LN10@use_facet@2
	DD	-32					; ffffffe0H
	DD	4
	DD	$LN11@use_facet@2
$LN11@use_facet@2:
	DB	95					; 0000005fH
	DB	80					; 00000050H
	DB	115					; 00000073H
	DB	97					; 00000061H
	DB	118					; 00000076H
	DB	101					; 00000065H
	DB	0
$LN10@use_facet@2:
	DB	95					; 0000005fH
	DB	76					; 0000004cH
	DB	111					; 0000006fH
	DB	99					; 00000063H
	DB	107					; 0000006bH
	DB	0
_TEXT	ENDS
;	COMDAT text$x
text$x	SEGMENT
__unwindfunclet$??$use_facet@V?$numpunct@D@std@@@std@@YAABV?$numpunct@D@0@ABVlocale@0@@Z$0:
	lea	ecx, DWORD PTR __Lock$142798[ebp]
	jmp	??1_Lockit@std@@QAE@XZ			; std::_Lockit::~_Lockit
__ehhandler$??$use_facet@V?$numpunct@D@std@@@std@@YAABV?$numpunct@D@0@ABVlocale@0@@Z:
	mov	edx, DWORD PTR [esp+8]
	lea	eax, DWORD PTR [edx+12]
	mov	ecx, DWORD PTR [edx-60]
	xor	ecx, eax
	call	@__security_check_cookie@4
	mov	eax, OFFSET __ehfuncinfo$??$use_facet@V?$numpunct@D@std@@@std@@YAABV?$numpunct@D@0@ABVlocale@0@@Z
	jmp	___CxxFrameHandler3
text$x	ENDS
??$use_facet@V?$numpunct@D@std@@@std@@YAABV?$numpunct@D@0@ABVlocale@0@@Z ENDP ; std::use_facet<std::numpunct<char> >
; Function compile flags: /Odtp /RTCsu
;	COMDAT ??$_Maklocchr@D@std@@YADDPADABU_Cvtvec@@@Z
_TEXT	SEGMENT
__Byte$ = 8						; size = 1
___formal$ = 12						; size = 4
___formal$ = 16						; size = 4
??$_Maklocchr@D@std@@YADDPADABU_Cvtvec@@@Z PROC		; std::_Maklocchr<char>, COMDAT

; 625  : 	{	// convert char to _Elem using _Cvtvec

	push	ebp
	mov	ebp, esp

; 626  : 	return ((_Elem)(unsigned char)_Byte);

	mov	al, BYTE PTR __Byte$[ebp]

; 627  : 	}

	pop	ebp
	ret	0
??$_Maklocchr@D@std@@YADDPADABU_Cvtvec@@@Z ENDP		; std::_Maklocchr<char>
_TEXT	ENDS
PUBLIC	??0?$numpunct@D@std@@QAE@ABV_Locinfo@1@I_N@Z	; std::numpunct<char>::numpunct<char>
;	COMDAT xdata$x
; File c:\program files (x86)\microsoft visual studio 10.0\vc\include\xlocnum
xdata$x	SEGMENT
__unwindtable$?_Getcat@?$numpunct@D@std@@SAIPAPBVfacet@locale@2@PBV42@@Z DD 0ffffffffH
	DD	FLAT:__unwindfunclet$?_Getcat@?$numpunct@D@std@@SAIPAPBVfacet@locale@2@PBV42@@Z$0
	DD	00H
	DD	FLAT:__unwindfunclet$?_Getcat@?$numpunct@D@std@@SAIPAPBVfacet@locale@2@PBV42@@Z$1
	DD	0ffffffffH
	DD	FLAT:__unwindfunclet$?_Getcat@?$numpunct@D@std@@SAIPAPBVfacet@locale@2@PBV42@@Z$1
__ehfuncinfo$?_Getcat@?$numpunct@D@std@@SAIPAPBVfacet@locale@2@PBV42@@Z DD 019930522H
	DD	03H
	DD	FLAT:__unwindtable$?_Getcat@?$numpunct@D@std@@SAIPAPBVfacet@locale@2@PBV42@@Z
	DD	2 DUP(00H)
	DD	2 DUP(00H)
	DD	00H
	DD	01H
; Function compile flags: /Odtp /RTCsu
xdata$x	ENDS
;	COMDAT ?_Getcat@?$numpunct@D@std@@SAIPAPBVfacet@locale@2@PBV42@@Z
_TEXT	SEGMENT
tv93 = -76						; size = 4
tv134 = -72						; size = 4
tv139 = -68						; size = 4
$T147933 = -64						; size = 4
$T147929 = -60						; size = 36
$T147928 = -24						; size = 4
$T147927 = -20						; size = 4
$T147926 = -16						; size = 4
__$EHRec$ = -12						; size = 12
__Ppf$ = 8						; size = 4
__Ploc$ = 12						; size = 4
?_Getcat@?$numpunct@D@std@@SAIPAPBVfacet@locale@2@PBV42@@Z PROC ; std::numpunct<char>::_Getcat, COMDAT

; 111  : 		{	// return locale category mask and construct standard facet

	push	ebp
	mov	ebp, esp
	push	-1
	push	__ehhandler$?_Getcat@?$numpunct@D@std@@SAIPAPBVfacet@locale@2@PBV42@@Z
	mov	eax, DWORD PTR fs:0
	push	eax
	sub	esp, 64					; 00000040H
	push	edi
	lea	edi, DWORD PTR [ebp-76]
	mov	ecx, 16					; 00000010H
	mov	eax, -858993460				; ccccccccH
	rep stosd
	mov	eax, DWORD PTR ___security_cookie
	xor	eax, ebp
	push	eax
	lea	eax, DWORD PTR __$EHRec$[ebp]
	mov	DWORD PTR fs:0, eax
	mov	DWORD PTR $T147933[ebp], 0

; 112  : 		if (_Ppf != 0 && *_Ppf == 0)

	cmp	DWORD PTR __Ppf$[ebp], 0
	je	$LN1@Getcat@2
	mov	eax, DWORD PTR __Ppf$[ebp]
	cmp	DWORD PTR [eax], 0
	jne	$LN1@Getcat@2

; 113  : 			*_Ppf = _NEW_CRT numpunct<_Elem>(
; 114  : 				_Locinfo(_Ploc->c_str()), 0, true);

	call	?_DebugHeapTag_func@std@@YAABU_DebugHeapTag_t@1@XZ ; std::_DebugHeapTag_func
	mov	DWORD PTR $T147928[ebp], eax
	push	113					; 00000071H
	push	OFFSET ??_C@_0EH@GHEBKCIB@c?3?2Program?5Files?5?$CIx86?$CJ?2Microsoft@
	mov	ecx, DWORD PTR $T147928[ebp]
	push	ecx
	push	24					; 00000018H
	call	??2facet@locale@std@@SAPAXIABU_DebugHeapTag_t@2@PADH@Z ; std::locale::facet::operator new
	add	esp, 16					; 00000010H
	mov	DWORD PTR $T147927[ebp], eax
	mov	DWORD PTR __$EHRec$[ebp+8], 0
	cmp	DWORD PTR $T147927[ebp], 0
	je	SHORT $LN4@Getcat@2
	push	1
	push	0
	mov	ecx, DWORD PTR __Ploc$[ebp]
	call	?c_str@locale@std@@QBEPBDXZ		; std::locale::c_str
	push	eax
	lea	ecx, DWORD PTR $T147929[ebp]
	call	??0_Locinfo@std@@QAE@PBD@Z		; std::_Locinfo::_Locinfo
	mov	DWORD PTR tv139[ebp], eax
	mov	edx, DWORD PTR tv139[ebp]
	mov	DWORD PTR tv134[ebp], edx
	mov	BYTE PTR __$EHRec$[ebp+8], 1
	mov	eax, DWORD PTR $T147933[ebp]
	or	eax, 1
	mov	DWORD PTR $T147933[ebp], eax
	mov	ecx, DWORD PTR tv134[ebp]
	push	ecx
	mov	ecx, DWORD PTR $T147927[ebp]
	call	??0?$numpunct@D@std@@QAE@ABV_Locinfo@1@I_N@Z ; std::numpunct<char>::numpunct<char>
	mov	DWORD PTR tv93[ebp], eax
	jmp	SHORT $LN5@Getcat@2
$LN4@Getcat@2:
	mov	DWORD PTR tv93[ebp], 0
$LN5@Getcat@2:
	mov	edx, DWORD PTR tv93[ebp]
	mov	DWORD PTR $T147926[ebp], edx
	mov	DWORD PTR __$EHRec$[ebp+8], 2
	mov	eax, DWORD PTR __Ppf$[ebp]
	mov	ecx, DWORD PTR $T147926[ebp]
	mov	DWORD PTR [eax], ecx
	mov	DWORD PTR __$EHRec$[ebp+8], -1
	mov	edx, DWORD PTR $T147933[ebp]
	and	edx, 1
	je	SHORT $LN1@Getcat@2
	and	DWORD PTR $T147933[ebp], -2		; fffffffeH
	lea	ecx, DWORD PTR $T147929[ebp]
	call	??1_Locinfo@std@@QAE@XZ			; std::_Locinfo::~_Locinfo
$LN1@Getcat@2:

; 115  : 		return (_X_NUMERIC);

	mov	eax, 4

; 116  : 		}

	mov	ecx, DWORD PTR __$EHRec$[ebp]
	mov	DWORD PTR fs:0, ecx
	pop	ecx
	pop	edi
	add	esp, 76					; 0000004cH
	cmp	ebp, esp
	call	__RTC_CheckEsp
	mov	esp, ebp
	pop	ebp
	ret	0
_TEXT	ENDS
;	COMDAT text$x
text$x	SEGMENT
__unwindfunclet$?_Getcat@?$numpunct@D@std@@SAIPAPBVfacet@locale@2@PBV42@@Z$0:
	push	113					; 00000071H
	push	OFFSET ??_C@_0EH@GHEBKCIB@c?3?2Program?5Files?5?$CIx86?$CJ?2Microsoft@
	mov	eax, DWORD PTR $T147928[ebp]
	push	eax
	mov	ecx, DWORD PTR $T147927[ebp]
	push	ecx
	call	??3facet@locale@std@@SAXPAXABU_DebugHeapTag_t@2@PADH@Z ; std::locale::facet::operator delete
	add	esp, 16					; 00000010H
	ret	0
__unwindfunclet$?_Getcat@?$numpunct@D@std@@SAIPAPBVfacet@locale@2@PBV42@@Z$1:
	mov	eax, DWORD PTR $T147933[ebp]
	and	eax, 1
	je	$LN8@Getcat@2
	and	DWORD PTR $T147933[ebp], -2		; fffffffeH
	lea	ecx, DWORD PTR $T147929[ebp]
	jmp	??1_Locinfo@std@@QAE@XZ			; std::_Locinfo::~_Locinfo
$LN8@Getcat@2:
	ret	0
__ehhandler$?_Getcat@?$numpunct@D@std@@SAIPAPBVfacet@locale@2@PBV42@@Z:
	mov	edx, DWORD PTR [esp+8]
	lea	eax, DWORD PTR [edx+12]
	mov	ecx, DWORD PTR [edx-72]
	xor	ecx, eax
	call	@__security_check_cookie@4
	mov	eax, OFFSET __ehfuncinfo$?_Getcat@?$numpunct@D@std@@SAIPAPBVfacet@locale@2@PBV42@@Z
	jmp	___CxxFrameHandler3
text$x	ENDS
?_Getcat@?$numpunct@D@std@@SAIPAPBVfacet@locale@2@PBV42@@Z ENDP ; std::numpunct<char>::_Getcat
PUBLIC	?_Init@?$numpunct@D@std@@IAEXABV_Locinfo@2@_N@Z	; std::numpunct<char>::_Init
PUBLIC	??_7?$numpunct@D@std@@6B@			; std::numpunct<char>::`vftable'
PUBLIC	??_R4?$numpunct@D@std@@6B@			; std::numpunct<char>::`RTTI Complete Object Locator'
PUBLIC	??_R0?AV?$numpunct@D@std@@@8			; std::numpunct<char> `RTTI Type Descriptor'
PUBLIC	??_R3?$numpunct@D@std@@8			; std::numpunct<char>::`RTTI Class Hierarchy Descriptor'
PUBLIC	??_R2?$numpunct@D@std@@8			; std::numpunct<char>::`RTTI Base Class Array'
PUBLIC	??_R1A@?0A@EA@?$numpunct@D@std@@8		; std::numpunct<char>::`RTTI Base Class Descriptor at (0,-1,0,64)'
PUBLIC	?do_decimal_point@?$numpunct@D@std@@MBEDXZ	; std::numpunct<char>::do_decimal_point
PUBLIC	?do_thousands_sep@?$numpunct@D@std@@MBEDXZ	; std::numpunct<char>::do_thousands_sep
PUBLIC	?do_grouping@?$numpunct@D@std@@MBE?AV?$basic_string@DU?$char_traits@D@std@@V?$allocator@D@2@@2@XZ ; std::numpunct<char>::do_grouping
PUBLIC	?do_falsename@?$numpunct@D@std@@MBE?AV?$basic_string@DU?$char_traits@D@std@@V?$allocator@D@2@@2@XZ ; std::numpunct<char>::do_falsename
PUBLIC	?do_truename@?$numpunct@D@std@@MBE?AV?$basic_string@DU?$char_traits@D@std@@V?$allocator@D@2@@2@XZ ; std::numpunct<char>::do_truename
EXTRN	??_E?$numpunct@D@std@@MAEPAXI@Z:PROC		; std::numpunct<char>::`vector deleting destructor'
;	COMDAT ??_R1A@?0A@EA@?$numpunct@D@std@@8
rdata$r	SEGMENT
??_R1A@?0A@EA@?$numpunct@D@std@@8 DD FLAT:??_R0?AV?$numpunct@D@std@@@8 ; std::numpunct<char>::`RTTI Base Class Descriptor at (0,-1,0,64)'
	DD	01H
	DD	00H
	DD	0ffffffffH
	DD	00H
	DD	040H
	DD	FLAT:??_R3?$numpunct@D@std@@8
rdata$r	ENDS
;	COMDAT ??_R2?$numpunct@D@std@@8
rdata$r	SEGMENT
??_R2?$numpunct@D@std@@8 DD FLAT:??_R1A@?0A@EA@?$numpunct@D@std@@8 ; std::numpunct<char>::`RTTI Base Class Array'
	DD	FLAT:??_R1A@?0A@EA@facet@locale@std@@8
rdata$r	ENDS
;	COMDAT ??_R3?$numpunct@D@std@@8
rdata$r	SEGMENT
??_R3?$numpunct@D@std@@8 DD 00H				; std::numpunct<char>::`RTTI Class Hierarchy Descriptor'
	DD	00H
	DD	02H
	DD	FLAT:??_R2?$numpunct@D@std@@8
rdata$r	ENDS
;	COMDAT ??_R0?AV?$numpunct@D@std@@@8
_DATA	SEGMENT
??_R0?AV?$numpunct@D@std@@@8 DD FLAT:??_7type_info@@6B@	; std::numpunct<char> `RTTI Type Descriptor'
	DD	00H
	DB	'.?AV?$numpunct@D@std@@', 00H
_DATA	ENDS
;	COMDAT ??_R4?$numpunct@D@std@@6B@
rdata$r	SEGMENT
??_R4?$numpunct@D@std@@6B@ DD 00H			; std::numpunct<char>::`RTTI Complete Object Locator'
	DD	00H
	DD	00H
	DD	FLAT:??_R0?AV?$numpunct@D@std@@@8
	DD	FLAT:??_R3?$numpunct@D@std@@8
rdata$r	ENDS
;	COMDAT ??_7?$numpunct@D@std@@6B@
CONST	SEGMENT
??_7?$numpunct@D@std@@6B@ DD FLAT:??_R4?$numpunct@D@std@@6B@ ; std::numpunct<char>::`vftable'
	DD	FLAT:??_E?$numpunct@D@std@@MAEPAXI@Z
	DD	FLAT:?do_decimal_point@?$numpunct@D@std@@MBEDXZ
	DD	FLAT:?do_thousands_sep@?$numpunct@D@std@@MBEDXZ
	DD	FLAT:?do_grouping@?$numpunct@D@std@@MBE?AV?$basic_string@DU?$char_traits@D@std@@V?$allocator@D@2@@2@XZ
	DD	FLAT:?do_falsename@?$numpunct@D@std@@MBE?AV?$basic_string@DU?$char_traits@D@std@@V?$allocator@D@2@@2@XZ
	DD	FLAT:?do_truename@?$numpunct@D@std@@MBE?AV?$basic_string@DU?$char_traits@D@std@@V?$allocator@D@2@@2@XZ
CONST	ENDS
;	COMDAT xdata$x
xdata$x	SEGMENT
__unwindtable$??0?$numpunct@D@std@@QAE@ABV_Locinfo@1@I_N@Z DD 0ffffffffH
	DD	FLAT:__unwindfunclet$??0?$numpunct@D@std@@QAE@ABV_Locinfo@1@I_N@Z$0
__ehfuncinfo$??0?$numpunct@D@std@@QAE@ABV_Locinfo@1@I_N@Z DD 019930522H
	DD	01H
	DD	FLAT:__unwindtable$??0?$numpunct@D@std@@QAE@ABV_Locinfo@1@I_N@Z
	DD	2 DUP(00H)
	DD	2 DUP(00H)
	DD	00H
	DD	01H
; Function compile flags: /Odtp /RTCsu
xdata$x	ENDS
;	COMDAT ??0?$numpunct@D@std@@QAE@ABV_Locinfo@1@I_N@Z
_TEXT	SEGMENT
_this$ = -16						; size = 4
__$EHRec$ = -12						; size = 12
__Lobj$ = 8						; size = 4
__Refs$ = 12						; size = 4
__Isdef$ = 16						; size = 1
??0?$numpunct@D@std@@QAE@ABV_Locinfo@1@I_N@Z PROC	; std::numpunct<char>::numpunct<char>, COMDAT
; _this$ = ecx

; 105  : 		{	// construct from specified locale

	push	ebp
	mov	ebp, esp
	push	-1
	push	__ehhandler$??0?$numpunct@D@std@@QAE@ABV_Locinfo@1@I_N@Z
	mov	eax, DWORD PTR fs:0
	push	eax
	push	ecx
	mov	DWORD PTR [ebp-16], -858993460		; ccccccccH
	mov	eax, DWORD PTR ___security_cookie
	xor	eax, ebp
	push	eax
	lea	eax, DWORD PTR __$EHRec$[ebp]
	mov	DWORD PTR fs:0, eax
	mov	DWORD PTR _this$[ebp], ecx
	mov	eax, DWORD PTR __Refs$[ebp]
	push	eax
	mov	ecx, DWORD PTR _this$[ebp]
	call	??0facet@locale@std@@IAE@I@Z		; std::locale::facet::facet
	mov	DWORD PTR __$EHRec$[ebp+8], 0
	mov	ecx, DWORD PTR _this$[ebp]
	mov	DWORD PTR [ecx], OFFSET ??_7?$numpunct@D@std@@6B@

; 106  : 		_Init(_Lobj, _Isdef);

	movzx	edx, BYTE PTR __Isdef$[ebp]
	push	edx
	mov	eax, DWORD PTR __Lobj$[ebp]
	push	eax
	mov	ecx, DWORD PTR _this$[ebp]
	call	?_Init@?$numpunct@D@std@@IAEXABV_Locinfo@2@_N@Z ; std::numpunct<char>::_Init

; 107  : 		}

	mov	DWORD PTR __$EHRec$[ebp+8], -1
	mov	eax, DWORD PTR _this$[ebp]
	mov	ecx, DWORD PTR __$EHRec$[ebp]
	mov	DWORD PTR fs:0, ecx
	pop	ecx
	add	esp, 16					; 00000010H
	cmp	ebp, esp
	call	__RTC_CheckEsp
	mov	esp, ebp
	pop	ebp
	ret	12					; 0000000cH
_TEXT	ENDS
;	COMDAT text$x
text$x	SEGMENT
__unwindfunclet$??0?$numpunct@D@std@@QAE@ABV_Locinfo@1@I_N@Z$0:
	mov	ecx, DWORD PTR _this$[ebp]
	jmp	??1facet@locale@std@@UAE@XZ		; std::locale::facet::~facet
__ehhandler$??0?$numpunct@D@std@@QAE@ABV_Locinfo@1@I_N@Z:
	mov	edx, DWORD PTR [esp+8]
	lea	eax, DWORD PTR [edx+12]
	mov	ecx, DWORD PTR [edx-8]
	xor	ecx, eax
	call	@__security_check_cookie@4
	mov	eax, OFFSET __ehfuncinfo$??0?$numpunct@D@std@@QAE@ABV_Locinfo@1@I_N@Z
	jmp	___CxxFrameHandler3
text$x	ENDS
??0?$numpunct@D@std@@QAE@ABV_Locinfo@1@I_N@Z ENDP	; std::numpunct<char>::numpunct<char>
; Function compile flags: /Odtp /RTCsu
;	COMDAT ?do_decimal_point@?$numpunct@D@std@@MBEDXZ
_TEXT	SEGMENT
_this$ = -4						; size = 4
?do_decimal_point@?$numpunct@D@std@@MBEDXZ PROC		; std::numpunct<char>::do_decimal_point, COMDAT
; _this$ = ecx

; 163  : 		{	// return decimal point

	push	ebp
	mov	ebp, esp
	push	ecx
	mov	DWORD PTR [ebp-4], -858993460		; ccccccccH
	mov	DWORD PTR _this$[ebp], ecx

; 164  : 		return (_Dp);

	mov	eax, DWORD PTR _this$[ebp]
	mov	al, BYTE PTR [eax+12]

; 165  : 		}

	mov	esp, ebp
	pop	ebp
	ret	0
?do_decimal_point@?$numpunct@D@std@@MBEDXZ ENDP		; std::numpunct<char>::do_decimal_point
; Function compile flags: /Odtp /RTCsu
_TEXT	ENDS
;	COMDAT ?do_thousands_sep@?$numpunct@D@std@@MBEDXZ
_TEXT	SEGMENT
_this$ = -4						; size = 4
?do_thousands_sep@?$numpunct@D@std@@MBEDXZ PROC		; std::numpunct<char>::do_thousands_sep, COMDAT
; _this$ = ecx

; 168  : 		{	// return thousands separator

	push	ebp
	mov	ebp, esp
	push	ecx
	mov	DWORD PTR [ebp-4], -858993460		; ccccccccH
	mov	DWORD PTR _this$[ebp], ecx

; 169  : 		return (_Kseparator);

	mov	eax, DWORD PTR _this$[ebp]
	mov	al, BYTE PTR [eax+13]

; 170  : 		}

	mov	esp, ebp
	pop	ebp
	ret	0
?do_thousands_sep@?$numpunct@D@std@@MBEDXZ ENDP		; std::numpunct<char>::do_thousands_sep
_TEXT	ENDS
PUBLIC	??0?$basic_string@DU?$char_traits@D@std@@V?$allocator@D@2@@std@@QAE@PBD@Z ; std::basic_string<char,std::char_traits<char>,std::allocator<char> >::basic_string<char,std::char_traits<char>,std::allocator<char> >
; Function compile flags: /Odtp /RTCsu
;	COMDAT ?do_grouping@?$numpunct@D@std@@MBE?AV?$basic_string@DU?$char_traits@D@std@@V?$allocator@D@2@@2@XZ
_TEXT	SEGMENT
$T147959 = -8						; size = 4
_this$ = -4						; size = 4
___$ReturnUdt$ = 8					; size = 4
?do_grouping@?$numpunct@D@std@@MBE?AV?$basic_string@DU?$char_traits@D@std@@V?$allocator@D@2@@2@XZ PROC ; std::numpunct<char>::do_grouping, COMDAT
; _this$ = ecx

; 173  : 		{	// return grouping string

	push	ebp
	mov	ebp, esp
	sub	esp, 8
	mov	DWORD PTR [ebp-8], -858993460		; ccccccccH
	mov	DWORD PTR [ebp-4], -858993460		; ccccccccH
	mov	DWORD PTR _this$[ebp], ecx
	mov	DWORD PTR $T147959[ebp], 0

; 174  : 		return (string(_Grouping));

	mov	eax, DWORD PTR _this$[ebp]
	mov	ecx, DWORD PTR [eax+8]
	push	ecx
	mov	ecx, DWORD PTR ___$ReturnUdt$[ebp]
	call	??0?$basic_string@DU?$char_traits@D@std@@V?$allocator@D@2@@std@@QAE@PBD@Z ; std::basic_string<char,std::char_traits<char>,std::allocator<char> >::basic_string<char,std::char_traits<char>,std::allocator<char> >
	mov	edx, DWORD PTR $T147959[ebp]
	or	edx, 1
	mov	DWORD PTR $T147959[ebp], edx
	mov	eax, DWORD PTR ___$ReturnUdt$[ebp]

; 175  : 		}

	add	esp, 8
	cmp	ebp, esp
	call	__RTC_CheckEsp
	mov	esp, ebp
	pop	ebp
	ret	4
?do_grouping@?$numpunct@D@std@@MBE?AV?$basic_string@DU?$char_traits@D@std@@V?$allocator@D@2@@2@XZ ENDP ; std::numpunct<char>::do_grouping
_TEXT	ENDS
;	COMDAT xdata$x
; File c:\program files (x86)\microsoft visual studio 10.0\vc\include\xstring
xdata$x	SEGMENT
__unwindtable$??0?$basic_string@DU?$char_traits@D@std@@V?$allocator@D@2@@std@@QAE@PBD@Z DD 0ffffffffH
	DD	FLAT:__unwindfunclet$??0?$basic_string@DU?$char_traits@D@std@@V?$allocator@D@2@@std@@QAE@PBD@Z$0
__ehfuncinfo$??0?$basic_string@DU?$char_traits@D@std@@V?$allocator@D@2@@std@@QAE@PBD@Z DD 019930522H
	DD	01H
	DD	FLAT:__unwindtable$??0?$basic_string@DU?$char_traits@D@std@@V?$allocator@D@2@@std@@QAE@PBD@Z
	DD	2 DUP(00H)
	DD	2 DUP(00H)
	DD	00H
	DD	01H
; Function compile flags: /Odtp /RTCsu
xdata$x	ENDS
;	COMDAT ??0?$basic_string@DU?$char_traits@D@std@@V?$allocator@D@2@@std@@QAE@PBD@Z
_TEXT	SEGMENT
$T147963 = -20						; size = 4
_this$ = -16						; size = 4
__$EHRec$ = -12						; size = 12
__Ptr$ = 8						; size = 4
??0?$basic_string@DU?$char_traits@D@std@@V?$allocator@D@2@@std@@QAE@PBD@Z PROC ; std::basic_string<char,std::char_traits<char>,std::allocator<char> >::basic_string<char,std::char_traits<char>,std::allocator<char> >, COMDAT
; _this$ = ecx

; 592  : 		{	// construct from [_Ptr, <null>)

	push	ebp
	mov	ebp, esp
	push	-1
	push	__ehhandler$??0?$basic_string@DU?$char_traits@D@std@@V?$allocator@D@2@@std@@QAE@PBD@Z
	mov	eax, DWORD PTR fs:0
	push	eax
	sub	esp, 8
	mov	DWORD PTR [ebp-20], -858993460		; ccccccccH
	mov	DWORD PTR [ebp-16], -858993460		; ccccccccH
	mov	eax, DWORD PTR ___security_cookie
	xor	eax, ebp
	push	eax
	lea	eax, DWORD PTR __$EHRec$[ebp]
	mov	DWORD PTR fs:0, eax
	mov	DWORD PTR _this$[ebp], ecx
	push	ecx
	mov	ecx, esp
	mov	DWORD PTR $T147963[ebp], esp
	call	??0?$allocator@D@std@@QAE@XZ		; std::allocator<char>::allocator<char>
	mov	ecx, DWORD PTR _this$[ebp]
	call	??0?$_String_val@DV?$allocator@D@std@@@std@@QAE@V?$allocator@D@1@@Z ; std::_String_val<char,std::allocator<char> >::_String_val<char,std::allocator<char> >
	mov	DWORD PTR __$EHRec$[ebp+8], 0

; 593  : 		_Tidy();

	push	0
	push	0
	mov	ecx, DWORD PTR _this$[ebp]
	call	?_Tidy@?$basic_string@DU?$char_traits@D@std@@V?$allocator@D@2@@std@@QAEX_NI@Z ; std::basic_string<char,std::char_traits<char>,std::allocator<char> >::_Tidy

; 594  : 		assign(_Ptr);

	mov	eax, DWORD PTR __Ptr$[ebp]
	push	eax
	mov	ecx, DWORD PTR _this$[ebp]
	call	?assign@?$basic_string@DU?$char_traits@D@std@@V?$allocator@D@2@@std@@QAEAAV12@PBD@Z ; std::basic_string<char,std::char_traits<char>,std::allocator<char> >::assign

; 595  : 		}

	mov	DWORD PTR __$EHRec$[ebp+8], -1
	mov	eax, DWORD PTR _this$[ebp]
	mov	ecx, DWORD PTR __$EHRec$[ebp]
	mov	DWORD PTR fs:0, ecx
	pop	ecx
	add	esp, 20					; 00000014H
	cmp	ebp, esp
	call	__RTC_CheckEsp
	mov	esp, ebp
	pop	ebp
	ret	4
_TEXT	ENDS
;	COMDAT text$x
text$x	SEGMENT
__unwindfunclet$??0?$basic_string@DU?$char_traits@D@std@@V?$allocator@D@2@@std@@QAE@PBD@Z$0:
	mov	ecx, DWORD PTR _this$[ebp]
	jmp	??1?$_String_val@DV?$allocator@D@std@@@std@@QAE@XZ ; std::_String_val<char,std::allocator<char> >::~_String_val<char,std::allocator<char> >
__ehhandler$??0?$basic_string@DU?$char_traits@D@std@@V?$allocator@D@2@@std@@QAE@PBD@Z:
	mov	edx, DWORD PTR [esp+8]
	lea	eax, DWORD PTR [edx+12]
	mov	ecx, DWORD PTR [edx-12]
	xor	ecx, eax
	call	@__security_check_cookie@4
	mov	eax, OFFSET __ehfuncinfo$??0?$basic_string@DU?$char_traits@D@std@@V?$allocator@D@2@@std@@QAE@PBD@Z
	jmp	___CxxFrameHandler3
text$x	ENDS
??0?$basic_string@DU?$char_traits@D@std@@V?$allocator@D@2@@std@@QAE@PBD@Z ENDP ; std::basic_string<char,std::char_traits<char>,std::allocator<char> >::basic_string<char,std::char_traits<char>,std::allocator<char> >
; Function compile flags: /Odtp /RTCsu
; File c:\program files (x86)\microsoft visual studio 10.0\vc\include\xlocnum
;	COMDAT ?do_falsename@?$numpunct@D@std@@MBE?AV?$basic_string@DU?$char_traits@D@std@@V?$allocator@D@2@@2@XZ
_TEXT	SEGMENT
$T147974 = -8						; size = 4
_this$ = -4						; size = 4
___$ReturnUdt$ = 8					; size = 4
?do_falsename@?$numpunct@D@std@@MBE?AV?$basic_string@DU?$char_traits@D@std@@V?$allocator@D@2@@2@XZ PROC ; std::numpunct<char>::do_falsename, COMDAT
; _this$ = ecx

; 178  : 		{	// return name for false

	push	ebp
	mov	ebp, esp
	sub	esp, 8
	mov	DWORD PTR [ebp-8], -858993460		; ccccccccH
	mov	DWORD PTR [ebp-4], -858993460		; ccccccccH
	mov	DWORD PTR _this$[ebp], ecx
	mov	DWORD PTR $T147974[ebp], 0

; 179  : 		return (string_type(_Falsename));

	mov	eax, DWORD PTR _this$[ebp]
	mov	ecx, DWORD PTR [eax+16]
	push	ecx
	mov	ecx, DWORD PTR ___$ReturnUdt$[ebp]
	call	??0?$basic_string@DU?$char_traits@D@std@@V?$allocator@D@2@@std@@QAE@PBD@Z ; std::basic_string<char,std::char_traits<char>,std::allocator<char> >::basic_string<char,std::char_traits<char>,std::allocator<char> >
	mov	edx, DWORD PTR $T147974[ebp]
	or	edx, 1
	mov	DWORD PTR $T147974[ebp], edx
	mov	eax, DWORD PTR ___$ReturnUdt$[ebp]

; 180  : 		}

	add	esp, 8
	cmp	ebp, esp
	call	__RTC_CheckEsp
	mov	esp, ebp
	pop	ebp
	ret	4
?do_falsename@?$numpunct@D@std@@MBE?AV?$basic_string@DU?$char_traits@D@std@@V?$allocator@D@2@@2@XZ ENDP ; std::numpunct<char>::do_falsename
; Function compile flags: /Odtp /RTCsu
_TEXT	ENDS
;	COMDAT ?do_truename@?$numpunct@D@std@@MBE?AV?$basic_string@DU?$char_traits@D@std@@V?$allocator@D@2@@2@XZ
_TEXT	SEGMENT
$T147979 = -8						; size = 4
_this$ = -4						; size = 4
___$ReturnUdt$ = 8					; size = 4
?do_truename@?$numpunct@D@std@@MBE?AV?$basic_string@DU?$char_traits@D@std@@V?$allocator@D@2@@2@XZ PROC ; std::numpunct<char>::do_truename, COMDAT
; _this$ = ecx

; 183  : 		{	// return name for true

	push	ebp
	mov	ebp, esp
	sub	esp, 8
	mov	DWORD PTR [ebp-8], -858993460		; ccccccccH
	mov	DWORD PTR [ebp-4], -858993460		; ccccccccH
	mov	DWORD PTR _this$[ebp], ecx
	mov	DWORD PTR $T147979[ebp], 0

; 184  : 		return (string_type(_Truename));

	mov	eax, DWORD PTR _this$[ebp]
	mov	ecx, DWORD PTR [eax+20]
	push	ecx
	mov	ecx, DWORD PTR ___$ReturnUdt$[ebp]
	call	??0?$basic_string@DU?$char_traits@D@std@@V?$allocator@D@2@@std@@QAE@PBD@Z ; std::basic_string<char,std::char_traits<char>,std::allocator<char> >::basic_string<char,std::char_traits<char>,std::allocator<char> >
	mov	edx, DWORD PTR $T147979[ebp]
	or	edx, 1
	mov	DWORD PTR $T147979[ebp], edx
	mov	eax, DWORD PTR ___$ReturnUdt$[ebp]

; 185  : 		}

	add	esp, 8
	cmp	ebp, esp
	call	__RTC_CheckEsp
	mov	esp, ebp
	pop	ebp
	ret	4
?do_truename@?$numpunct@D@std@@MBE?AV?$basic_string@DU?$char_traits@D@std@@V?$allocator@D@2@@2@XZ ENDP ; std::numpunct<char>::do_truename
_TEXT	ENDS
PUBLIC	??1?$numpunct@D@std@@MAE@XZ			; std::numpunct<char>::~numpunct<char>
; Function compile flags: /Odtp /RTCsu
;	COMDAT ??_G?$numpunct@D@std@@MAEPAXI@Z
_TEXT	SEGMENT
_this$ = -4						; size = 4
___flags$ = 8						; size = 4
??_G?$numpunct@D@std@@MAEPAXI@Z PROC			; std::numpunct<char>::`scalar deleting destructor', COMDAT
; _this$ = ecx
	push	ebp
	mov	ebp, esp
	push	ecx
	mov	DWORD PTR [ebp-4], -858993460		; ccccccccH
	mov	DWORD PTR _this$[ebp], ecx
	mov	ecx, DWORD PTR _this$[ebp]
	call	??1?$numpunct@D@std@@MAE@XZ		; std::numpunct<char>::~numpunct<char>
	mov	eax, DWORD PTR ___flags$[ebp]
	and	eax, 1
	je	SHORT $LN1@scalar@14
	mov	ecx, DWORD PTR _this$[ebp]
	push	ecx
	call	??3facet@locale@std@@SAXPAX@Z		; std::locale::facet::operator delete
	add	esp, 4
$LN1@scalar@14:
	mov	eax, DWORD PTR _this$[ebp]
	add	esp, 4
	cmp	ebp, esp
	call	__RTC_CheckEsp
	mov	esp, ebp
	pop	ebp
	ret	4
??_G?$numpunct@D@std@@MAEPAXI@Z ENDP			; std::numpunct<char>::`scalar deleting destructor'
_TEXT	ENDS
PUBLIC	?_Tidy@?$numpunct@D@std@@AAEXXZ			; std::numpunct<char>::_Tidy
;	COMDAT xdata$x
xdata$x	SEGMENT
__unwindtable$??1?$numpunct@D@std@@MAE@XZ DD 0ffffffffH
	DD	FLAT:__unwindfunclet$??1?$numpunct@D@std@@MAE@XZ$0
__ehfuncinfo$??1?$numpunct@D@std@@MAE@XZ DD 019930522H
	DD	01H
	DD	FLAT:__unwindtable$??1?$numpunct@D@std@@MAE@XZ
	DD	2 DUP(00H)
	DD	2 DUP(00H)
	DD	00H
	DD	01H
; Function compile flags: /Odtp /RTCsu
xdata$x	ENDS
;	COMDAT ??1?$numpunct@D@std@@MAE@XZ
_TEXT	SEGMENT
_this$ = -16						; size = 4
__$EHRec$ = -12						; size = 12
??1?$numpunct@D@std@@MAE@XZ PROC			; std::numpunct<char>::~numpunct<char>, COMDAT
; _this$ = ecx

; 120  : 		{	// destroy the object

	push	ebp
	mov	ebp, esp
	push	-1
	push	__ehhandler$??1?$numpunct@D@std@@MAE@XZ
	mov	eax, DWORD PTR fs:0
	push	eax
	push	ecx
	mov	DWORD PTR [ebp-16], -858993460		; ccccccccH
	mov	eax, DWORD PTR ___security_cookie
	xor	eax, ebp
	push	eax
	lea	eax, DWORD PTR __$EHRec$[ebp]
	mov	DWORD PTR fs:0, eax
	mov	DWORD PTR _this$[ebp], ecx
	mov	eax, DWORD PTR _this$[ebp]
	mov	DWORD PTR [eax], OFFSET ??_7?$numpunct@D@std@@6B@
	mov	DWORD PTR __$EHRec$[ebp+8], 0

; 121  : 		_Tidy();

	mov	ecx, DWORD PTR _this$[ebp]
	call	?_Tidy@?$numpunct@D@std@@AAEXXZ		; std::numpunct<char>::_Tidy

; 122  : 		}

	mov	DWORD PTR __$EHRec$[ebp+8], -1
	mov	ecx, DWORD PTR _this$[ebp]
	call	??1facet@locale@std@@UAE@XZ		; std::locale::facet::~facet
	mov	ecx, DWORD PTR __$EHRec$[ebp]
	mov	DWORD PTR fs:0, ecx
	pop	ecx
	add	esp, 16					; 00000010H
	cmp	ebp, esp
	call	__RTC_CheckEsp
	mov	esp, ebp
	pop	ebp
	ret	0
_TEXT	ENDS
;	COMDAT text$x
text$x	SEGMENT
__unwindfunclet$??1?$numpunct@D@std@@MAE@XZ$0:
	mov	ecx, DWORD PTR _this$[ebp]
	jmp	??1facet@locale@std@@UAE@XZ		; std::locale::facet::~facet
__ehhandler$??1?$numpunct@D@std@@MAE@XZ:
	mov	edx, DWORD PTR [esp+8]
	lea	eax, DWORD PTR [edx+12]
	mov	ecx, DWORD PTR [edx-8]
	xor	ecx, eax
	call	@__security_check_cookie@4
	mov	eax, OFFSET __ehfuncinfo$??1?$numpunct@D@std@@MAE@XZ
	jmp	___CxxFrameHandler3
text$x	ENDS
??1?$numpunct@D@std@@MAE@XZ ENDP			; std::numpunct<char>::~numpunct<char>
PUBLIC	??$_DebugHeapDelete@X@std@@YAXPAX@Z		; std::_DebugHeapDelete<void>
; Function compile flags: /Odtp /RTCsu
;	COMDAT ?_Tidy@?$numpunct@D@std@@AAEXXZ
_TEXT	SEGMENT
_this$ = -4						; size = 4
?_Tidy@?$numpunct@D@std@@AAEXXZ PROC			; std::numpunct<char>::_Tidy, COMDAT
; _this$ = ecx

; 189  : 		{	// free all storage

	push	ebp
	mov	ebp, esp
	push	ecx
	mov	DWORD PTR [ebp-4], -858993460		; ccccccccH
	mov	DWORD PTR _this$[ebp], ecx

; 190  : 		_DELETE_CRT_VEC((void *)_Grouping);

	mov	eax, DWORD PTR _this$[ebp]
	mov	ecx, DWORD PTR [eax+8]
	push	ecx
	call	??$_DebugHeapDelete@X@std@@YAXPAX@Z	; std::_DebugHeapDelete<void>
	add	esp, 4

; 191  : 		_DELETE_CRT_VEC((void *)_Falsename);

	mov	edx, DWORD PTR _this$[ebp]
	mov	eax, DWORD PTR [edx+16]
	push	eax
	call	??$_DebugHeapDelete@X@std@@YAXPAX@Z	; std::_DebugHeapDelete<void>
	add	esp, 4

; 192  : 		_DELETE_CRT_VEC((void *)_Truename);

	mov	ecx, DWORD PTR _this$[ebp]
	mov	edx, DWORD PTR [ecx+20]
	push	edx
	call	??$_DebugHeapDelete@X@std@@YAXPAX@Z	; std::_DebugHeapDelete<void>
	add	esp, 4

; 193  : 		}

	add	esp, 4
	cmp	ebp, esp
	call	__RTC_CheckEsp
	mov	esp, ebp
	pop	ebp
	ret	0
?_Tidy@?$numpunct@D@std@@AAEXXZ ENDP			; std::numpunct<char>::_Tidy
; Function compile flags: /Odtp /RTCsu
; File c:\program files (x86)\microsoft visual studio 10.0\vc\include\xdebug
_TEXT	ENDS
;	COMDAT ??$_DebugHeapDelete@X@std@@YAXPAX@Z
_TEXT	SEGMENT
__Ptr$ = 8						; size = 4
??$_DebugHeapDelete@X@std@@YAXPAX@Z PROC		; std::_DebugHeapDelete<void>, COMDAT

; 56   : 	{	// delete from the debug CRT heap even if operator delete exists

	push	ebp
	mov	ebp, esp

; 57   : 	if (_Ptr != 0)

	cmp	DWORD PTR __Ptr$[ebp], 0
	je	SHORT $LN2@DebugHeapD@3

; 58   : 		{	// worth deleting
; 59   : 		_Ptr->~_Ty();
; 60   : 		// delete as _NORMAL_BLOCK, not _CRT_BLOCK, since we might have
; 61   : 		// facets allocated by normal new.
; 62   : 		free(_Ptr);

	mov	eax, DWORD PTR __Ptr$[ebp]
	push	eax
	call	_free
	add	esp, 4
$LN2@DebugHeapD@3:

; 63   : 		}
; 64   : 	}

	cmp	ebp, esp
	call	__RTC_CheckEsp
	pop	ebp
	ret	0
??$_DebugHeapDelete@X@std@@YAXPAX@Z ENDP		; std::_DebugHeapDelete<void>
_TEXT	ENDS
PUBLIC	?_Init@?$basic_stringbuf@DU?$char_traits@D@std@@V?$allocator@D@2@@std@@IAEXPBDIH@Z ; std::basic_stringbuf<char,std::char_traits<char>,std::allocator<char> >::_Init
PUBLIC	?_Getstate@?$basic_stringbuf@DU?$char_traits@D@std@@V?$allocator@D@2@@std@@AAEHH@Z ; std::basic_stringbuf<char,std::char_traits<char>,std::allocator<char> >::_Getstate
PUBLIC	??0?$basic_streambuf@DU?$char_traits@D@std@@@std@@IAE@XZ ; std::basic_streambuf<char,std::char_traits<char> >::basic_streambuf<char,std::char_traits<char> >
;	COMDAT xdata$x
; File c:\program files (x86)\microsoft visual studio 10.0\vc\include\sstream
xdata$x	SEGMENT
__unwindtable$??0?$basic_stringbuf@DU?$char_traits@D@std@@V?$allocator@D@2@@std@@QAE@H@Z DD 0ffffffffH
	DD	FLAT:__unwindfunclet$??0?$basic_stringbuf@DU?$char_traits@D@std@@V?$allocator@D@2@@std@@QAE@H@Z$0
__ehfuncinfo$??0?$basic_stringbuf@DU?$char_traits@D@std@@V?$allocator@D@2@@std@@QAE@H@Z DD 019930522H
	DD	01H
	DD	FLAT:__unwindtable$??0?$basic_stringbuf@DU?$char_traits@D@std@@V?$allocator@D@2@@std@@QAE@H@Z
	DD	2 DUP(00H)
	DD	2 DUP(00H)
	DD	00H
	DD	01H
; Function compile flags: /Odtp /RTCsu
xdata$x	ENDS
;	COMDAT ??0?$basic_stringbuf@DU?$char_traits@D@std@@V?$allocator@D@2@@std@@QAE@H@Z
_TEXT	SEGMENT
_this$ = -16						; size = 4
__$EHRec$ = -12						; size = 12
__Mode$ = 8						; size = 4
??0?$basic_stringbuf@DU?$char_traits@D@std@@V?$allocator@D@2@@std@@QAE@H@Z PROC ; std::basic_stringbuf<char,std::char_traits<char>,std::allocator<char> >::basic_stringbuf<char,std::char_traits<char>,std::allocator<char> >, COMDAT
; _this$ = ecx

; 26   : 	explicit basic_stringbuf(ios_base::openmode _Mode =

	push	ebp
	mov	ebp, esp
	push	-1
	push	__ehhandler$??0?$basic_stringbuf@DU?$char_traits@D@std@@V?$allocator@D@2@@std@@QAE@H@Z
	mov	eax, DWORD PTR fs:0
	push	eax
	push	ecx
	mov	DWORD PTR [ebp-16], -858993460		; ccccccccH
	mov	eax, DWORD PTR ___security_cookie
	xor	eax, ebp
	push	eax
	lea	eax, DWORD PTR __$EHRec$[ebp]
	mov	DWORD PTR fs:0, eax
	mov	DWORD PTR _this$[ebp], ecx
	mov	ecx, DWORD PTR _this$[ebp]
	call	??0?$basic_streambuf@DU?$char_traits@D@std@@@std@@IAE@XZ ; std::basic_streambuf<char,std::char_traits<char> >::basic_streambuf<char,std::char_traits<char> >
	mov	DWORD PTR __$EHRec$[ebp+8], 0
	mov	eax, DWORD PTR _this$[ebp]
	mov	DWORD PTR [eax], OFFSET ??_7?$basic_stringbuf@DU?$char_traits@D@std@@V?$allocator@D@2@@std@@6B@
	mov	ecx, DWORD PTR _this$[ebp]
	add	ecx, 68					; 00000044H
	call	??0?$allocator@D@std@@QAE@XZ		; std::allocator<char>::allocator<char>

; 27   : 		ios_base::in | ios_base::out)
; 28   : 		{	// construct empty character buffer from mode
; 29   : 		_Init(0, 0, _Getstate(_Mode));

	mov	ecx, DWORD PTR __Mode$[ebp]
	push	ecx
	mov	ecx, DWORD PTR _this$[ebp]
	call	?_Getstate@?$basic_stringbuf@DU?$char_traits@D@std@@V?$allocator@D@2@@std@@AAEHH@Z ; std::basic_stringbuf<char,std::char_traits<char>,std::allocator<char> >::_Getstate
	push	eax
	push	0
	push	0
	mov	ecx, DWORD PTR _this$[ebp]
	call	?_Init@?$basic_stringbuf@DU?$char_traits@D@std@@V?$allocator@D@2@@std@@IAEXPBDIH@Z ; std::basic_stringbuf<char,std::char_traits<char>,std::allocator<char> >::_Init

; 30   : 		}

	mov	DWORD PTR __$EHRec$[ebp+8], -1
	mov	eax, DWORD PTR _this$[ebp]
	mov	ecx, DWORD PTR __$EHRec$[ebp]
	mov	DWORD PTR fs:0, ecx
	pop	ecx
	add	esp, 16					; 00000010H
	cmp	ebp, esp
	call	__RTC_CheckEsp
	mov	esp, ebp
	pop	ebp
	ret	4
_TEXT	ENDS
;	COMDAT text$x
text$x	SEGMENT
__unwindfunclet$??0?$basic_stringbuf@DU?$char_traits@D@std@@V?$allocator@D@2@@std@@QAE@H@Z$0:
	mov	ecx, DWORD PTR _this$[ebp]
	jmp	??1?$basic_streambuf@DU?$char_traits@D@std@@@std@@UAE@XZ ; std::basic_streambuf<char,std::char_traits<char> >::~basic_streambuf<char,std::char_traits<char> >
__ehhandler$??0?$basic_stringbuf@DU?$char_traits@D@std@@V?$allocator@D@2@@std@@QAE@H@Z:
	mov	edx, DWORD PTR [esp+8]
	lea	eax, DWORD PTR [edx+12]
	mov	ecx, DWORD PTR [edx-8]
	xor	ecx, eax
	call	@__security_check_cookie@4
	mov	eax, OFFSET __ehfuncinfo$??0?$basic_stringbuf@DU?$char_traits@D@std@@V?$allocator@D@2@@std@@QAE@H@Z
	jmp	___CxxFrameHandler3
text$x	ENDS
??0?$basic_stringbuf@DU?$char_traits@D@std@@V?$allocator@D@2@@std@@QAE@H@Z ENDP ; std::basic_stringbuf<char,std::char_traits<char>,std::allocator<char> >::basic_stringbuf<char,std::char_traits<char>,std::allocator<char> >
PUBLIC	??0?$basic_string@DU?$char_traits@D@std@@V?$allocator@D@2@@std@@QAE@PBDI@Z ; std::basic_string<char,std::char_traits<char>,std::allocator<char> >::basic_string<char,std::char_traits<char>,std::allocator<char> >
PUBLIC	__$ArrayPad$
;	COMDAT xdata$x
xdata$x	SEGMENT
__unwindtable$?str@?$basic_stringbuf@DU?$char_traits@D@std@@V?$allocator@D@2@@std@@QBE?AV?$basic_string@DU?$char_traits@D@std@@V?$allocator@D@2@@2@XZ DD 0ffffffffH
	DD	FLAT:__unwindfunclet$?str@?$basic_stringbuf@DU?$char_traits@D@std@@V?$allocator@D@2@@std@@QBE?AV?$basic_string@DU?$char_traits@D@std@@V?$allocator@D@2@@2@XZ$1
	DD	00H
	DD	FLAT:__unwindfunclet$?str@?$basic_stringbuf@DU?$char_traits@D@std@@V?$allocator@D@2@@std@@QBE?AV?$basic_string@DU?$char_traits@D@std@@V?$allocator@D@2@@2@XZ$0
	DD	00H
	DD	FLAT:__unwindfunclet$?str@?$basic_stringbuf@DU?$char_traits@D@std@@V?$allocator@D@2@@std@@QBE?AV?$basic_string@DU?$char_traits@D@std@@V?$allocator@D@2@@2@XZ$2
	DD	00H
	DD	FLAT:__unwindfunclet$?str@?$basic_stringbuf@DU?$char_traits@D@std@@V?$allocator@D@2@@std@@QBE?AV?$basic_string@DU?$char_traits@D@std@@V?$allocator@D@2@@2@XZ$3
__ehfuncinfo$?str@?$basic_stringbuf@DU?$char_traits@D@std@@V?$allocator@D@2@@std@@QBE?AV?$basic_string@DU?$char_traits@D@std@@V?$allocator@D@2@@2@XZ DD 019930522H
	DD	04H
	DD	FLAT:__unwindtable$?str@?$basic_stringbuf@DU?$char_traits@D@std@@V?$allocator@D@2@@std@@QBE?AV?$basic_string@DU?$char_traits@D@std@@V?$allocator@D@2@@2@XZ
	DD	2 DUP(00H)
	DD	2 DUP(00H)
	DD	00H
	DD	01H
; Function compile flags: /Odtp /RTCsu
xdata$x	ENDS
;	COMDAT ?str@?$basic_stringbuf@DU?$char_traits@D@std@@V?$allocator@D@2@@std@@QBE?AV?$basic_string@DU?$char_traits@D@std@@V?$allocator@D@2@@2@XZ
_TEXT	SEGMENT
tv91 = -148						; size = 4
$T148012 = -144						; size = 4
__Nul$143790 = -136					; size = 32
__Str$143788 = -96					; size = 32
__Str$143785 = -56					; size = 32
_this$ = -20						; size = 4
__$ArrayPad$ = -16					; size = 4
__$EHRec$ = -12						; size = 12
___$ReturnUdt$ = 8					; size = 4
?str@?$basic_stringbuf@DU?$char_traits@D@std@@V?$allocator@D@2@@std@@QBE?AV?$basic_string@DU?$char_traits@D@std@@V?$allocator@D@2@@2@XZ PROC ; std::basic_stringbuf<char,std::char_traits<char>,std::allocator<char> >::str, COMDAT
; _this$ = ecx

; 93   : 		{	// return string copy of character array

	push	ebp
	mov	ebp, esp
	push	-1
	push	__ehhandler$?str@?$basic_stringbuf@DU?$char_traits@D@std@@V?$allocator@D@2@@std@@QBE?AV?$basic_string@DU?$char_traits@D@std@@V?$allocator@D@2@@2@XZ
	mov	eax, DWORD PTR fs:0
	push	eax
	sub	esp, 136				; 00000088H
	push	esi
	push	edi
	push	ecx
	lea	edi, DWORD PTR [ebp-148]
	mov	ecx, 34					; 00000022H
	mov	eax, -858993460				; ccccccccH
	rep stosd
	pop	ecx
	mov	eax, DWORD PTR ___security_cookie
	xor	eax, ebp
	mov	DWORD PTR __$ArrayPad$[ebp], eax
	push	eax
	lea	eax, DWORD PTR __$EHRec$[ebp]
	mov	DWORD PTR fs:0, eax
	mov	DWORD PTR _this$[ebp], ecx
	mov	DWORD PTR $T148012[ebp], 0

; 94   : 		if (!(_Mystate & _Constant) && _Mysb::pptr() != 0)

	mov	eax, DWORD PTR _this$[ebp]
	mov	ecx, DWORD PTR [eax+64]
	and	ecx, 2
	jne	$LN4@str
	mov	ecx, DWORD PTR _this$[ebp]
	call	?pptr@?$basic_streambuf@DU?$char_traits@D@std@@@std@@IBEPADXZ ; std::basic_streambuf<char,std::char_traits<char> >::pptr
	test	eax, eax
	je	$LN4@str

; 95   : 			{	// writable, make string from write buffer
; 96   : 			_Mystr _Str(_Mysb::pbase(), (_Seekhigh < _Mysb::pptr()
; 97   : 				? _Mysb::pptr() : _Seekhigh) - _Mysb::pbase());

	mov	ecx, DWORD PTR _this$[ebp]
	call	?pptr@?$basic_streambuf@DU?$char_traits@D@std@@@std@@IBEPADXZ ; std::basic_streambuf<char,std::char_traits<char> >::pptr
	mov	edx, DWORD PTR _this$[ebp]
	cmp	DWORD PTR [edx+60], eax
	jae	SHORT $LN7@str
	mov	ecx, DWORD PTR _this$[ebp]
	call	?pptr@?$basic_streambuf@DU?$char_traits@D@std@@@std@@IBEPADXZ ; std::basic_streambuf<char,std::char_traits<char> >::pptr
	mov	DWORD PTR tv91[ebp], eax
	jmp	SHORT $LN8@str
$LN7@str:
	mov	eax, DWORD PTR _this$[ebp]
	mov	ecx, DWORD PTR [eax+60]
	mov	DWORD PTR tv91[ebp], ecx
$LN8@str:
	mov	ecx, DWORD PTR _this$[ebp]
	call	?pbase@?$basic_streambuf@DU?$char_traits@D@std@@@std@@IBEPADXZ ; std::basic_streambuf<char,std::char_traits<char> >::pbase
	mov	edx, DWORD PTR tv91[ebp]
	sub	edx, eax
	push	edx
	mov	ecx, DWORD PTR _this$[ebp]
	call	?pbase@?$basic_streambuf@DU?$char_traits@D@std@@@std@@IBEPADXZ ; std::basic_streambuf<char,std::char_traits<char> >::pbase
	push	eax
	lea	ecx, DWORD PTR __Str$143785[ebp]
	call	??0?$basic_string@DU?$char_traits@D@std@@V?$allocator@D@2@@std@@QAE@PBDI@Z ; std::basic_string<char,std::char_traits<char>,std::allocator<char> >::basic_string<char,std::char_traits<char>,std::allocator<char> >
	mov	DWORD PTR __$EHRec$[ebp+8], 1

; 98   : 			return (_Str);

	lea	eax, DWORD PTR __Str$143785[ebp]
	push	eax
	mov	ecx, DWORD PTR ___$ReturnUdt$[ebp]
	call	??0?$basic_string@DU?$char_traits@D@std@@V?$allocator@D@2@@std@@QAE@$$QAV01@@Z ; std::basic_string<char,std::char_traits<char>,std::allocator<char> >::basic_string<char,std::char_traits<char>,std::allocator<char> >
	mov	ecx, DWORD PTR $T148012[ebp]
	or	ecx, 1
	mov	DWORD PTR $T148012[ebp], ecx
	mov	BYTE PTR __$EHRec$[ebp+8], 0
	lea	ecx, DWORD PTR __Str$143785[ebp]
	call	??1?$basic_string@DU?$char_traits@D@std@@V?$allocator@D@2@@std@@QAE@XZ ; std::basic_string<char,std::char_traits<char>,std::allocator<char> >::~basic_string<char,std::char_traits<char>,std::allocator<char> >
	mov	eax, DWORD PTR ___$ReturnUdt$[ebp]
	jmp	$LN5@str
	jmp	$LN5@str
$LN4@str:

; 99   : 			}
; 100  : 		else if (!(_Mystate & _Noread) && _Mysb::gptr() != 0)

	mov	edx, DWORD PTR _this$[ebp]
	mov	eax, DWORD PTR [edx+64]
	and	eax, 4
	jne	SHORT $LN2@str
	mov	ecx, DWORD PTR _this$[ebp]
	call	?gptr@?$basic_streambuf@DU?$char_traits@D@std@@@std@@IBEPADXZ ; std::basic_streambuf<char,std::char_traits<char> >::gptr
	test	eax, eax
	je	SHORT $LN2@str

; 101  : 			{	// readable, make string from read buffer
; 102  : 			_Mystr _Str(_Mysb::eback(), _Mysb::egptr() - _Mysb::eback());

	mov	ecx, DWORD PTR _this$[ebp]
	call	?egptr@?$basic_streambuf@DU?$char_traits@D@std@@@std@@IBEPADXZ ; std::basic_streambuf<char,std::char_traits<char> >::egptr
	mov	esi, eax
	mov	ecx, DWORD PTR _this$[ebp]
	call	?eback@?$basic_streambuf@DU?$char_traits@D@std@@@std@@IBEPADXZ ; std::basic_streambuf<char,std::char_traits<char> >::eback
	sub	esi, eax
	push	esi
	mov	ecx, DWORD PTR _this$[ebp]
	call	?eback@?$basic_streambuf@DU?$char_traits@D@std@@@std@@IBEPADXZ ; std::basic_streambuf<char,std::char_traits<char> >::eback
	push	eax
	lea	ecx, DWORD PTR __Str$143788[ebp]
	call	??0?$basic_string@DU?$char_traits@D@std@@V?$allocator@D@2@@std@@QAE@PBDI@Z ; std::basic_string<char,std::char_traits<char>,std::allocator<char> >::basic_string<char,std::char_traits<char>,std::allocator<char> >
	mov	DWORD PTR __$EHRec$[ebp+8], 2

; 103  : 			return (_Str);

	lea	ecx, DWORD PTR __Str$143788[ebp]
	push	ecx
	mov	ecx, DWORD PTR ___$ReturnUdt$[ebp]
	call	??0?$basic_string@DU?$char_traits@D@std@@V?$allocator@D@2@@std@@QAE@$$QAV01@@Z ; std::basic_string<char,std::char_traits<char>,std::allocator<char> >::basic_string<char,std::char_traits<char>,std::allocator<char> >
	mov	edx, DWORD PTR $T148012[ebp]
	or	edx, 1
	mov	DWORD PTR $T148012[ebp], edx
	mov	BYTE PTR __$EHRec$[ebp+8], 0
	lea	ecx, DWORD PTR __Str$143788[ebp]
	call	??1?$basic_string@DU?$char_traits@D@std@@V?$allocator@D@2@@std@@QAE@XZ ; std::basic_string<char,std::char_traits<char>,std::allocator<char> >::~basic_string<char,std::char_traits<char>,std::allocator<char> >
	mov	eax, DWORD PTR ___$ReturnUdt$[ebp]
	jmp	SHORT $LN5@str

; 104  : 			}
; 105  : 		else

	jmp	SHORT $LN5@str
$LN2@str:

; 106  : 			{	// inaccessible, return empty string
; 107  : 			_Mystr _Nul;

	lea	ecx, DWORD PTR __Nul$143790[ebp]
	call	??0?$basic_string@DU?$char_traits@D@std@@V?$allocator@D@2@@std@@QAE@XZ ; std::basic_string<char,std::char_traits<char>,std::allocator<char> >::basic_string<char,std::char_traits<char>,std::allocator<char> >
	mov	DWORD PTR __$EHRec$[ebp+8], 3

; 108  : 			return (_Nul);

	lea	eax, DWORD PTR __Nul$143790[ebp]
	push	eax
	mov	ecx, DWORD PTR ___$ReturnUdt$[ebp]
	call	??0?$basic_string@DU?$char_traits@D@std@@V?$allocator@D@2@@std@@QAE@$$QAV01@@Z ; std::basic_string<char,std::char_traits<char>,std::allocator<char> >::basic_string<char,std::char_traits<char>,std::allocator<char> >
	mov	ecx, DWORD PTR $T148012[ebp]
	or	ecx, 1
	mov	DWORD PTR $T148012[ebp], ecx
	mov	BYTE PTR __$EHRec$[ebp+8], 0
	lea	ecx, DWORD PTR __Nul$143790[ebp]
	call	??1?$basic_string@DU?$char_traits@D@std@@V?$allocator@D@2@@std@@QAE@XZ ; std::basic_string<char,std::char_traits<char>,std::allocator<char> >::~basic_string<char,std::char_traits<char>,std::allocator<char> >
	mov	eax, DWORD PTR ___$ReturnUdt$[ebp]
$LN5@str:

; 109  : 			}
; 110  : 		}

	push	edx
	mov	ecx, ebp
	push	eax
	lea	edx, DWORD PTR $LN19@str
	call	@_RTC_CheckStackVars@8
	pop	eax
	pop	edx
	mov	ecx, DWORD PTR __$EHRec$[ebp]
	mov	DWORD PTR fs:0, ecx
	pop	ecx
	pop	edi
	pop	esi
	mov	ecx, DWORD PTR __$ArrayPad$[ebp]
	xor	ecx, ebp
	call	@__security_check_cookie@4
	add	esp, 148				; 00000094H
	cmp	ebp, esp
	call	__RTC_CheckEsp
	mov	esp, ebp
	pop	ebp
	ret	4
	npad	3
$LN19@str:
	DD	3
	DD	$LN18@str
$LN18@str:
	DD	-56					; ffffffc8H
	DD	32					; 00000020H
	DD	$LN14@str
	DD	-96					; ffffffa0H
	DD	32					; 00000020H
	DD	$LN15@str
	DD	-136					; ffffff78H
	DD	32					; 00000020H
	DD	$LN16@str
$LN16@str:
	DB	95					; 0000005fH
	DB	78					; 0000004eH
	DB	117					; 00000075H
	DB	108					; 0000006cH
	DB	0
$LN15@str:
	DB	95					; 0000005fH
	DB	83					; 00000053H
	DB	116					; 00000074H
	DB	114					; 00000072H
	DB	0
$LN14@str:
	DB	95					; 0000005fH
	DB	83					; 00000053H
	DB	116					; 00000074H
	DB	114					; 00000072H
	DB	0
_TEXT	ENDS
;	COMDAT text$x
text$x	SEGMENT
__unwindfunclet$?str@?$basic_stringbuf@DU?$char_traits@D@std@@V?$allocator@D@2@@std@@QBE?AV?$basic_string@DU?$char_traits@D@std@@V?$allocator@D@2@@2@XZ$0:
	lea	ecx, DWORD PTR __Str$143785[ebp]
	jmp	??1?$basic_string@DU?$char_traits@D@std@@V?$allocator@D@2@@std@@QAE@XZ ; std::basic_string<char,std::char_traits<char>,std::allocator<char> >::~basic_string<char,std::char_traits<char>,std::allocator<char> >
__unwindfunclet$?str@?$basic_stringbuf@DU?$char_traits@D@std@@V?$allocator@D@2@@std@@QBE?AV?$basic_string@DU?$char_traits@D@std@@V?$allocator@D@2@@2@XZ$1:
	mov	eax, DWORD PTR $T148012[ebp]
	and	eax, 1
	je	$LN11@str
	and	DWORD PTR $T148012[ebp], -2		; fffffffeH
	mov	ecx, DWORD PTR ___$ReturnUdt$[ebp]
	jmp	??1?$basic_string@DU?$char_traits@D@std@@V?$allocator@D@2@@std@@QAE@XZ ; std::basic_string<char,std::char_traits<char>,std::allocator<char> >::~basic_string<char,std::char_traits<char>,std::allocator<char> >
$LN11@str:
	ret	0
__unwindfunclet$?str@?$basic_stringbuf@DU?$char_traits@D@std@@V?$allocator@D@2@@std@@QBE?AV?$basic_string@DU?$char_traits@D@std@@V?$allocator@D@2@@2@XZ$2:
	lea	ecx, DWORD PTR __Str$143788[ebp]
	jmp	??1?$basic_string@DU?$char_traits@D@std@@V?$allocator@D@2@@std@@QAE@XZ ; std::basic_string<char,std::char_traits<char>,std::allocator<char> >::~basic_string<char,std::char_traits<char>,std::allocator<char> >
__unwindfunclet$?str@?$basic_stringbuf@DU?$char_traits@D@std@@V?$allocator@D@2@@std@@QBE?AV?$basic_string@DU?$char_traits@D@std@@V?$allocator@D@2@@2@XZ$3:
	lea	ecx, DWORD PTR __Nul$143790[ebp]
	jmp	??1?$basic_string@DU?$char_traits@D@std@@V?$allocator@D@2@@std@@QAE@XZ ; std::basic_string<char,std::char_traits<char>,std::allocator<char> >::~basic_string<char,std::char_traits<char>,std::allocator<char> >
__ehhandler$?str@?$basic_stringbuf@DU?$char_traits@D@std@@V?$allocator@D@2@@std@@QBE?AV?$basic_string@DU?$char_traits@D@std@@V?$allocator@D@2@@2@XZ:
	mov	edx, DWORD PTR [esp+8]
	lea	eax, DWORD PTR [edx+12]
	mov	ecx, DWORD PTR [edx-148]
	xor	ecx, eax
	call	@__security_check_cookie@4
	mov	ecx, DWORD PTR [edx-4]
	xor	ecx, eax
	call	@__security_check_cookie@4
	mov	eax, OFFSET __ehfuncinfo$?str@?$basic_stringbuf@DU?$char_traits@D@std@@V?$allocator@D@2@@std@@QBE?AV?$basic_string@DU?$char_traits@D@std@@V?$allocator@D@2@@2@XZ
	jmp	___CxxFrameHandler3
text$x	ENDS
?str@?$basic_stringbuf@DU?$char_traits@D@std@@V?$allocator@D@2@@std@@QBE?AV?$basic_string@DU?$char_traits@D@std@@V?$allocator@D@2@@2@XZ ENDP ; std::basic_stringbuf<char,std::char_traits<char>,std::allocator<char> >::str
; Function compile flags: /Odtp /RTCsu
;	COMDAT ?_Tidy@?$basic_stringbuf@DU?$char_traits@D@std@@V?$allocator@D@2@@std@@IAEXXZ
_TEXT	SEGMENT
tv88 = -8						; size = 4
_this$ = -4						; size = 4
?_Tidy@?$basic_stringbuf@DU?$char_traits@D@std@@V?$allocator@D@2@@std@@IAEXXZ PROC ; std::basic_stringbuf<char,std::char_traits<char>,std::allocator<char> >::_Tidy, COMDAT
; _this$ = ecx

; 340  : 		{	// discard any allocated buffer and clear pointers

	push	ebp
	mov	ebp, esp
	sub	esp, 8
	mov	DWORD PTR [ebp-8], -858993460		; ccccccccH
	mov	DWORD PTR [ebp-4], -858993460		; ccccccccH
	mov	DWORD PTR _this$[ebp], ecx

; 341  : 		if (_Mystate & _Allocated)

	mov	eax, DWORD PTR _this$[ebp]
	mov	ecx, DWORD PTR [eax+64]
	and	ecx, 1
	je	SHORT $LN1@Tidy@3

; 342  : 			_Al.deallocate(_Mysb::eback(),
; 343  : 				(_Mysb::pptr() != 0 ? _Mysb::epptr()
; 344  : 					: _Mysb::egptr()) - _Mysb::eback());

	mov	ecx, DWORD PTR _this$[ebp]
	call	?pptr@?$basic_streambuf@DU?$char_traits@D@std@@@std@@IBEPADXZ ; std::basic_streambuf<char,std::char_traits<char> >::pptr
	test	eax, eax
	je	SHORT $LN4@Tidy@3
	mov	ecx, DWORD PTR _this$[ebp]
	call	?epptr@?$basic_streambuf@DU?$char_traits@D@std@@@std@@IBEPADXZ ; std::basic_streambuf<char,std::char_traits<char> >::epptr
	mov	DWORD PTR tv88[ebp], eax
	jmp	SHORT $LN5@Tidy@3
$LN4@Tidy@3:
	mov	ecx, DWORD PTR _this$[ebp]
	call	?egptr@?$basic_streambuf@DU?$char_traits@D@std@@@std@@IBEPADXZ ; std::basic_streambuf<char,std::char_traits<char> >::egptr
	mov	DWORD PTR tv88[ebp], eax
$LN5@Tidy@3:
	mov	ecx, DWORD PTR _this$[ebp]
	call	?eback@?$basic_streambuf@DU?$char_traits@D@std@@@std@@IBEPADXZ ; std::basic_streambuf<char,std::char_traits<char> >::eback
	mov	edx, DWORD PTR tv88[ebp]
	sub	edx, eax
	push	edx
	mov	ecx, DWORD PTR _this$[ebp]
	call	?eback@?$basic_streambuf@DU?$char_traits@D@std@@@std@@IBEPADXZ ; std::basic_streambuf<char,std::char_traits<char> >::eback
	push	eax
	mov	ecx, DWORD PTR _this$[ebp]
	add	ecx, 68					; 00000044H
	call	?deallocate@?$allocator@D@std@@QAEXPADI@Z ; std::allocator<char>::deallocate
$LN1@Tidy@3:

; 345  : 		_Mysb::setg(0, 0, 0);

	push	0
	push	0
	push	0
	mov	ecx, DWORD PTR _this$[ebp]
	call	?setg@?$basic_streambuf@DU?$char_traits@D@std@@@std@@IAEXPAD00@Z ; std::basic_streambuf<char,std::char_traits<char> >::setg

; 346  : 		_Mysb::setp(0, 0);

	push	0
	push	0
	mov	ecx, DWORD PTR _this$[ebp]
	call	?setp@?$basic_streambuf@DU?$char_traits@D@std@@@std@@IAEXPAD0@Z ; std::basic_streambuf<char,std::char_traits<char> >::setp

; 347  : 		_Seekhigh = 0;

	mov	eax, DWORD PTR _this$[ebp]
	mov	DWORD PTR [eax+60], 0

; 348  : 		_Mystate &= ~_Allocated;

	mov	ecx, DWORD PTR _this$[ebp]
	mov	edx, DWORD PTR [ecx+64]
	and	edx, -2					; fffffffeH
	mov	eax, DWORD PTR _this$[ebp]
	mov	DWORD PTR [eax+64], edx

; 349  : 		}

	add	esp, 8
	cmp	ebp, esp
	call	__RTC_CheckEsp
	mov	esp, ebp
	pop	ebp
	ret	0
?_Tidy@?$basic_stringbuf@DU?$char_traits@D@std@@V?$allocator@D@2@@std@@IAEXXZ ENDP ; std::basic_stringbuf<char,std::char_traits<char>,std::allocator<char> >::_Tidy
_TEXT	ENDS
;	COMDAT xdata$x
; File c:\program files (x86)\microsoft visual studio 10.0\vc\include\xstring
xdata$x	SEGMENT
__unwindtable$??0?$basic_string@DU?$char_traits@D@std@@V?$allocator@D@2@@std@@QAE@PBDI@Z DD 0ffffffffH
	DD	FLAT:__unwindfunclet$??0?$basic_string@DU?$char_traits@D@std@@V?$allocator@D@2@@std@@QAE@PBDI@Z$0
__ehfuncinfo$??0?$basic_string@DU?$char_traits@D@std@@V?$allocator@D@2@@std@@QAE@PBDI@Z DD 019930522H
	DD	01H
	DD	FLAT:__unwindtable$??0?$basic_string@DU?$char_traits@D@std@@V?$allocator@D@2@@std@@QAE@PBDI@Z
	DD	2 DUP(00H)
	DD	2 DUP(00H)
	DD	00H
	DD	01H
; Function compile flags: /Odtp /RTCsu
xdata$x	ENDS
;	COMDAT ??0?$basic_string@DU?$char_traits@D@std@@V?$allocator@D@2@@std@@QAE@PBDI@Z
_TEXT	SEGMENT
$T148033 = -20						; size = 4
_this$ = -16						; size = 4
__$EHRec$ = -12						; size = 12
__Ptr$ = 8						; size = 4
__Count$ = 12						; size = 4
??0?$basic_string@DU?$char_traits@D@std@@V?$allocator@D@2@@std@@QAE@PBDI@Z PROC ; std::basic_string<char,std::char_traits<char>,std::allocator<char> >::basic_string<char,std::char_traits<char>,std::allocator<char> >, COMDAT
; _this$ = ecx

; 578  : 		{	// construct from [_Ptr, _Ptr + _Count)

	push	ebp
	mov	ebp, esp
	push	-1
	push	__ehhandler$??0?$basic_string@DU?$char_traits@D@std@@V?$allocator@D@2@@std@@QAE@PBDI@Z
	mov	eax, DWORD PTR fs:0
	push	eax
	sub	esp, 8
	mov	DWORD PTR [ebp-20], -858993460		; ccccccccH
	mov	DWORD PTR [ebp-16], -858993460		; ccccccccH
	mov	eax, DWORD PTR ___security_cookie
	xor	eax, ebp
	push	eax
	lea	eax, DWORD PTR __$EHRec$[ebp]
	mov	DWORD PTR fs:0, eax
	mov	DWORD PTR _this$[ebp], ecx
	push	ecx
	mov	ecx, esp
	mov	DWORD PTR $T148033[ebp], esp
	call	??0?$allocator@D@std@@QAE@XZ		; std::allocator<char>::allocator<char>
	mov	ecx, DWORD PTR _this$[ebp]
	call	??0?$_String_val@DV?$allocator@D@std@@@std@@QAE@V?$allocator@D@1@@Z ; std::_String_val<char,std::allocator<char> >::_String_val<char,std::allocator<char> >
	mov	DWORD PTR __$EHRec$[ebp+8], 0

; 579  : 		_Tidy();

	push	0
	push	0
	mov	ecx, DWORD PTR _this$[ebp]
	call	?_Tidy@?$basic_string@DU?$char_traits@D@std@@V?$allocator@D@2@@std@@QAEX_NI@Z ; std::basic_string<char,std::char_traits<char>,std::allocator<char> >::_Tidy

; 580  : 		assign(_Ptr, _Count);

	mov	eax, DWORD PTR __Count$[ebp]
	push	eax
	mov	ecx, DWORD PTR __Ptr$[ebp]
	push	ecx
	mov	ecx, DWORD PTR _this$[ebp]
	call	?assign@?$basic_string@DU?$char_traits@D@std@@V?$allocator@D@2@@std@@QAEAAV12@PBDI@Z ; std::basic_string<char,std::char_traits<char>,std::allocator<char> >::assign

; 581  : 		}

	mov	DWORD PTR __$EHRec$[ebp+8], -1
	mov	eax, DWORD PTR _this$[ebp]
	mov	ecx, DWORD PTR __$EHRec$[ebp]
	mov	DWORD PTR fs:0, ecx
	pop	ecx
	add	esp, 20					; 00000014H
	cmp	ebp, esp
	call	__RTC_CheckEsp
	mov	esp, ebp
	pop	ebp
	ret	8
_TEXT	ENDS
;	COMDAT text$x
text$x	SEGMENT
__unwindfunclet$??0?$basic_string@DU?$char_traits@D@std@@V?$allocator@D@2@@std@@QAE@PBDI@Z$0:
	mov	ecx, DWORD PTR _this$[ebp]
	jmp	??1?$_String_val@DV?$allocator@D@std@@@std@@QAE@XZ ; std::_String_val<char,std::allocator<char> >::~_String_val<char,std::allocator<char> >
__ehhandler$??0?$basic_string@DU?$char_traits@D@std@@V?$allocator@D@2@@std@@QAE@PBDI@Z:
	mov	edx, DWORD PTR [esp+8]
	lea	eax, DWORD PTR [edx+12]
	mov	ecx, DWORD PTR [edx-12]
	xor	ecx, eax
	call	@__security_check_cookie@4
	mov	eax, OFFSET __ehfuncinfo$??0?$basic_string@DU?$char_traits@D@std@@V?$allocator@D@2@@std@@QAE@PBDI@Z
	jmp	___CxxFrameHandler3
text$x	ENDS
??0?$basic_string@DU?$char_traits@D@std@@V?$allocator@D@2@@std@@QAE@PBDI@Z ENDP ; std::basic_string<char,std::char_traits<char>,std::allocator<char> >::basic_string<char,std::char_traits<char>,std::allocator<char> >
PUBLIC	?widen@?$basic_ios@DU?$char_traits@D@std@@@std@@QBEDD@Z ; std::basic_ios<char,std::char_traits<char> >::widen
PUBLIC	?_Init@ios_base@std@@IAEXXZ			; std::ios_base::_Init
EXTRN	?_Addstd@ios_base@std@@SAXPAV12@@Z:PROC		; std::ios_base::_Addstd
; Function compile flags: /Odtp /RTCsu
; File c:\program files (x86)\microsoft visual studio 10.0\vc\include\ios
;	COMDAT ?init@?$basic_ios@DU?$char_traits@D@std@@@std@@IAEXPAV?$basic_streambuf@DU?$char_traits@D@std@@@2@_N@Z
_TEXT	SEGMENT
_this$ = -4						; size = 4
__Strbuf$ = 8						; size = 4
__Isstd$ = 12						; size = 1
?init@?$basic_ios@DU?$char_traits@D@std@@@std@@IAEXPAV?$basic_streambuf@DU?$char_traits@D@std@@@2@_N@Z PROC ; std::basic_ios<char,std::char_traits<char> >::init, COMDAT
; _this$ = ecx

; 154  : 		{	// initialize with stream buffer pointer

	push	ebp
	mov	ebp, esp
	push	ecx
	mov	DWORD PTR [ebp-4], -858993460		; ccccccccH
	mov	DWORD PTR _this$[ebp], ecx

; 155  : 		_Init();	// initialize ios_base

	mov	ecx, DWORD PTR _this$[ebp]
	call	?_Init@ios_base@std@@IAEXXZ		; std::ios_base::_Init

; 156  : 		_Mystrbuf = _Strbuf;

	mov	eax, DWORD PTR _this$[ebp]
	mov	ecx, DWORD PTR __Strbuf$[ebp]
	mov	DWORD PTR [eax+56], ecx

; 157  : 		_Tiestr = 0;

	mov	edx, DWORD PTR _this$[ebp]
	mov	DWORD PTR [edx+60], 0

; 158  : 		_Fillch = widen(' ');

	push	32					; 00000020H
	mov	ecx, DWORD PTR _this$[ebp]
	call	?widen@?$basic_ios@DU?$char_traits@D@std@@@std@@QBEDD@Z ; std::basic_ios<char,std::char_traits<char> >::widen
	mov	ecx, DWORD PTR _this$[ebp]
	mov	BYTE PTR [ecx+64], al

; 159  : 
; 160  : 		if (_Mystrbuf == 0)

	mov	edx, DWORD PTR _this$[ebp]
	cmp	DWORD PTR [edx+56], 0
	jne	SHORT $LN2@init

; 161  : 			setstate(badbit);

	push	0
	push	4
	mov	ecx, DWORD PTR _this$[ebp]
	call	?setstate@?$basic_ios@DU?$char_traits@D@std@@@std@@QAEXH_N@Z ; std::basic_ios<char,std::char_traits<char> >::setstate
$LN2@init:

; 162  : 
; 163  : 		if (_Isstd)

	movzx	eax, BYTE PTR __Isstd$[ebp]
	test	eax, eax
	je	SHORT $LN3@init

; 164  : 			_Addstd(this);	// special handling for standard streams

	mov	ecx, DWORD PTR _this$[ebp]
	push	ecx
	call	?_Addstd@ios_base@std@@SAXPAV12@@Z	; std::ios_base::_Addstd
	add	esp, 4
$LN3@init:

; 165  : 		}

	add	esp, 4
	cmp	ebp, esp
	call	__RTC_CheckEsp
	mov	esp, ebp
	pop	ebp
	ret	8
?init@?$basic_ios@DU?$char_traits@D@std@@@std@@IAEXPAV?$basic_streambuf@DU?$char_traits@D@std@@@2@_N@Z ENDP ; std::basic_ios<char,std::char_traits<char> >::init
_TEXT	ENDS
PUBLIC	??0locale@std@@QAE@XZ				; std::locale::locale
PUBLIC	??_C@_0EI@MFFHMCLK@c?3?2Program?5Files?5?$CIx86?$CJ?2Microsoft@ ; `string'
PUBLIC	?clear@ios_base@std@@QAEXH@Z			; std::ios_base::clear
;	COMDAT ??_C@_0EI@MFFHMCLK@c?3?2Program?5Files?5?$CIx86?$CJ?2Microsoft@
; File c:\program files (x86)\microsoft visual studio 10.0\vc\include\xiosbase
CONST	SEGMENT
??_C@_0EI@MFFHMCLK@c?3?2Program?5Files?5?$CIx86?$CJ?2Microsoft@ DB 'c:\Pr'
	DB	'ogram Files (x86)\Microsoft Visual Studio 10.0\VC\include\xio'
	DB	'sbase', 00H					; `string'
; Function compile flags: /Odtp /RTCsu
CONST	ENDS
;	COMDAT ?_Init@ios_base@std@@IAEXXZ
_TEXT	SEGMENT
tv84 = -12						; size = 4
$T148045 = -8						; size = 4
_this$ = -4						; size = 4
?_Init@ios_base@std@@IAEXXZ PROC			; std::ios_base::_Init, COMDAT
; _this$ = ecx

; 554  : 		{	// initialize a new ios_base

	push	ebp
	mov	ebp, esp
	sub	esp, 12					; 0000000cH
	mov	DWORD PTR [ebp-12], -858993460		; ccccccccH
	mov	DWORD PTR [ebp-8], -858993460		; ccccccccH
	mov	DWORD PTR [ebp-4], -858993460		; ccccccccH
	mov	DWORD PTR _this$[ebp], ecx

; 555  : 		_Ploc = 0;

	mov	eax, DWORD PTR _this$[ebp]
	mov	DWORD PTR [eax+48], 0

; 556  : 		_Stdstr = 0;

	mov	ecx, DWORD PTR _this$[ebp]
	mov	DWORD PTR [ecx+8], 0

; 557  : 		_Except = goodbit;

	mov	edx, DWORD PTR _this$[ebp]
	mov	DWORD PTR [edx+16], 0

; 558  : 		_Fmtfl = (fmtflags)(skipws | dec);

	mov	eax, DWORD PTR _this$[ebp]
	mov	DWORD PTR [eax+20], 513			; 00000201H

; 559  : 		_Prec = 6;

	mov	ecx, DWORD PTR _this$[ebp]
	mov	DWORD PTR [ecx+24], 6
	mov	DWORD PTR [ecx+28], 0

; 560  : 		_Wide = 0;

	mov	edx, DWORD PTR _this$[ebp]
	mov	DWORD PTR [edx+32], 0
	mov	DWORD PTR [edx+36], 0

; 561  : 		_Arr = 0;

	mov	eax, DWORD PTR _this$[ebp]
	mov	DWORD PTR [eax+40], 0

; 562  : 		_Calls = 0;

	mov	ecx, DWORD PTR _this$[ebp]
	mov	DWORD PTR [ecx+44], 0

; 563  : 		clear(goodbit);

	push	0
	mov	ecx, DWORD PTR _this$[ebp]
	call	?clear@ios_base@std@@QAEXH@Z		; std::ios_base::clear

; 564  : 		_Ploc = _NEW_CRT locale;

	push	564					; 00000234H
	push	OFFSET ??_C@_0EI@MFFHMCLK@c?3?2Program?5Files?5?$CIx86?$CJ?2Microsoft@
	call	?_DebugHeapTag_func@std@@YAABU_DebugHeapTag_t@1@XZ ; std::_DebugHeapTag_func
	push	eax
	push	4
	call	??2@YAPAXIABU_DebugHeapTag_t@std@@PADH@Z ; operator new
	add	esp, 16					; 00000010H
	mov	DWORD PTR $T148045[ebp], eax
	cmp	DWORD PTR $T148045[ebp], 0
	je	SHORT $LN3@Init
	mov	ecx, DWORD PTR $T148045[ebp]
	call	??0locale@std@@QAE@XZ			; std::locale::locale
	mov	DWORD PTR tv84[ebp], eax
	jmp	SHORT $LN4@Init
$LN3@Init:
	mov	DWORD PTR tv84[ebp], 0
$LN4@Init:
	mov	edx, DWORD PTR _this$[ebp]
	mov	eax, DWORD PTR tv84[ebp]
	mov	DWORD PTR [edx+48], eax

; 565  : 		}

	add	esp, 12					; 0000000cH
	cmp	ebp, esp
	call	__RTC_CheckEsp
	mov	esp, ebp
	pop	ebp
	ret	0
?_Init@ios_base@std@@IAEXXZ ENDP			; std::ios_base::_Init
_TEXT	ENDS
EXTRN	?_Init@locale@std@@CAPAV_Locimp@12@XZ:PROC	; std::locale::_Init
; Function compile flags: /Odtp /RTCsu
; File c:\program files (x86)\microsoft visual studio 10.0\vc\include\xlocale
;	COMDAT ??0locale@std@@QAE@XZ
_TEXT	SEGMENT
_this$ = -4						; size = 4
??0locale@std@@QAE@XZ PROC				; std::locale::locale, COMDAT
; _this$ = ecx

; 315  : 		{	// construct from current locale

	push	ebp
	mov	ebp, esp
	push	ecx
	mov	DWORD PTR [ebp-4], -858993460		; ccccccccH
	mov	DWORD PTR _this$[ebp], ecx
	call	?_Init@locale@std@@CAPAV_Locimp@12@XZ	; std::locale::_Init
	mov	ecx, DWORD PTR _this$[ebp]
	mov	DWORD PTR [ecx], eax

; 316  : 		_Getgloballocale()->_Incref();

	call	?_Getgloballocale@locale@std@@CAPAV_Locimp@12@XZ ; std::locale::_Getgloballocale
	mov	ecx, eax
	call	?_Incref@facet@locale@std@@QAEXXZ	; std::locale::facet::_Incref

; 317  : 		}

	mov	eax, DWORD PTR _this$[ebp]
	add	esp, 4
	cmp	ebp, esp
	call	__RTC_CheckEsp
	mov	esp, ebp
	pop	ebp
	ret	0
??0locale@std@@QAE@XZ ENDP				; std::locale::locale
; Function compile flags: /Odtp /RTCsu
; File c:\program files (x86)\microsoft visual studio 10.0\vc\include\xiosbase
_TEXT	ENDS
;	COMDAT ?clear@ios_base@std@@QAEXH@Z
_TEXT	SEGMENT
_this$ = -4						; size = 4
__State$ = 8						; size = 4
?clear@ios_base@std@@QAEXH@Z PROC			; std::ios_base::clear, COMDAT
; _this$ = ecx

; 325  : 		{	// set state to argument

	push	ebp
	mov	ebp, esp
	push	ecx
	mov	DWORD PTR [ebp-4], -858993460		; ccccccccH
	mov	DWORD PTR _this$[ebp], ecx

; 326  : 		clear(_State, false);

	push	0
	mov	eax, DWORD PTR __State$[ebp]
	push	eax
	mov	ecx, DWORD PTR _this$[ebp]
	call	?clear@ios_base@std@@QAEXH_N@Z		; std::ios_base::clear

; 327  : 		}

	add	esp, 4
	cmp	ebp, esp
	call	__RTC_CheckEsp
	mov	esp, ebp
	pop	ebp
	ret	4
?clear@ios_base@std@@QAEXH@Z ENDP			; std::ios_base::clear
_TEXT	ENDS
PUBLIC	?_Init@?$basic_streambuf@DU?$char_traits@D@std@@@std@@IAEXXZ ; std::basic_streambuf<char,std::char_traits<char> >::_Init
PUBLIC	??_C@_0EJ@OJOOBOIL@c?3?2Program?5Files?5?$CIx86?$CJ?2Microsoft@ ; `string'
EXTRN	??0_Mutex@std@@QAE@XZ:PROC			; std::_Mutex::_Mutex
;	COMDAT ??_C@_0EJ@OJOOBOIL@c?3?2Program?5Files?5?$CIx86?$CJ?2Microsoft@
; File c:\program files (x86)\microsoft visual studio 10.0\vc\include\streambuf
CONST	SEGMENT
??_C@_0EJ@OJOOBOIL@c?3?2Program?5Files?5?$CIx86?$CJ?2Microsoft@ DB 'c:\Pr'
	DB	'ogram Files (x86)\Microsoft Visual Studio 10.0\VC\include\str'
	DB	'eambuf', 00H				; `string'
CONST	ENDS
;	COMDAT xdata$x
xdata$x	SEGMENT
__unwindtable$??0?$basic_streambuf@DU?$char_traits@D@std@@@std@@IAE@XZ DD 0ffffffffH
	DD	FLAT:__unwindfunclet$??0?$basic_streambuf@DU?$char_traits@D@std@@@std@@IAE@XZ$0
__ehfuncinfo$??0?$basic_streambuf@DU?$char_traits@D@std@@@std@@IAE@XZ DD 019930522H
	DD	01H
	DD	FLAT:__unwindtable$??0?$basic_streambuf@DU?$char_traits@D@std@@@std@@IAE@XZ
	DD	2 DUP(00H)
	DD	2 DUP(00H)
	DD	00H
	DD	01H
; Function compile flags: /Odtp /RTCsu
xdata$x	ENDS
;	COMDAT ??0?$basic_streambuf@DU?$char_traits@D@std@@@std@@IAE@XZ
_TEXT	SEGMENT
tv79 = -24						; size = 4
$T148054 = -20						; size = 4
_this$ = -16						; size = 4
__$EHRec$ = -12						; size = 12
??0?$basic_streambuf@DU?$char_traits@D@std@@@std@@IAE@XZ PROC ; std::basic_streambuf<char,std::char_traits<char> >::basic_streambuf<char,std::char_traits<char> >, COMDAT
; _this$ = ecx

; 25   : 		{	// construct with no buffers

	push	ebp
	mov	ebp, esp
	push	-1
	push	__ehhandler$??0?$basic_streambuf@DU?$char_traits@D@std@@@std@@IAE@XZ
	mov	eax, DWORD PTR fs:0
	push	eax
	sub	esp, 12					; 0000000cH
	mov	DWORD PTR [ebp-24], -858993460		; ccccccccH
	mov	DWORD PTR [ebp-20], -858993460		; ccccccccH
	mov	DWORD PTR [ebp-16], -858993460		; ccccccccH
	mov	eax, DWORD PTR ___security_cookie
	xor	eax, ebp
	push	eax
	lea	eax, DWORD PTR __$EHRec$[ebp]
	mov	DWORD PTR fs:0, eax
	mov	DWORD PTR _this$[ebp], ecx
	mov	eax, DWORD PTR _this$[ebp]
	mov	DWORD PTR [eax], OFFSET ??_7?$basic_streambuf@DU?$char_traits@D@std@@@std@@6B@
	mov	ecx, DWORD PTR _this$[ebp]
	add	ecx, 4
	call	??0_Mutex@std@@QAE@XZ			; std::_Mutex::_Mutex
	mov	DWORD PTR __$EHRec$[ebp+8], 0
	push	24					; 00000018H
	push	OFFSET ??_C@_0EJ@OJOOBOIL@c?3?2Program?5Files?5?$CIx86?$CJ?2Microsoft@
	call	?_DebugHeapTag_func@std@@YAABU_DebugHeapTag_t@1@XZ ; std::_DebugHeapTag_func
	push	eax
	push	4
	call	??2@YAPAXIABU_DebugHeapTag_t@std@@PADH@Z ; operator new
	add	esp, 16					; 00000010H
	mov	DWORD PTR $T148054[ebp], eax
	cmp	DWORD PTR $T148054[ebp], 0
	je	SHORT $LN3@basic_stre
	mov	ecx, DWORD PTR $T148054[ebp]
	call	??0locale@std@@QAE@XZ			; std::locale::locale
	mov	DWORD PTR tv79[ebp], eax
	jmp	SHORT $LN4@basic_stre
$LN3@basic_stre:
	mov	DWORD PTR tv79[ebp], 0
$LN4@basic_stre:
	mov	ecx, DWORD PTR _this$[ebp]
	mov	edx, DWORD PTR tv79[ebp]
	mov	DWORD PTR [ecx+56], edx

; 26   : 		_Init();

	mov	ecx, DWORD PTR _this$[ebp]
	call	?_Init@?$basic_streambuf@DU?$char_traits@D@std@@@std@@IAEXXZ ; std::basic_streambuf<char,std::char_traits<char> >::_Init

; 27   : 		}

	mov	DWORD PTR __$EHRec$[ebp+8], -1
	mov	eax, DWORD PTR _this$[ebp]
	mov	ecx, DWORD PTR __$EHRec$[ebp]
	mov	DWORD PTR fs:0, ecx
	pop	ecx
	add	esp, 24					; 00000018H
	cmp	ebp, esp
	call	__RTC_CheckEsp
	mov	esp, ebp
	pop	ebp
	ret	0
_TEXT	ENDS
;	COMDAT text$x
text$x	SEGMENT
__unwindfunclet$??0?$basic_streambuf@DU?$char_traits@D@std@@@std@@IAE@XZ$0:
	mov	ecx, DWORD PTR _this$[ebp]
	add	ecx, 4
	jmp	??1_Mutex@std@@QAE@XZ			; std::_Mutex::~_Mutex
__ehhandler$??0?$basic_streambuf@DU?$char_traits@D@std@@@std@@IAE@XZ:
	mov	edx, DWORD PTR [esp+8]
	lea	eax, DWORD PTR [edx+12]
	mov	ecx, DWORD PTR [edx-16]
	xor	ecx, eax
	call	@__security_check_cookie@4
	mov	eax, OFFSET __ehfuncinfo$??0?$basic_streambuf@DU?$char_traits@D@std@@@std@@IAE@XZ
	jmp	___CxxFrameHandler3
text$x	ENDS
??0?$basic_streambuf@DU?$char_traits@D@std@@@std@@IAE@XZ ENDP ; std::basic_streambuf<char,std::char_traits<char> >::basic_streambuf<char,std::char_traits<char> >
; Function compile flags: /Odtp /RTCsu
;	COMDAT ?_Init@?$basic_streambuf@DU?$char_traits@D@std@@@std@@IAEXXZ
_TEXT	SEGMENT
_this$ = -4						; size = 4
?_Init@?$basic_streambuf@DU?$char_traits@D@std@@@std@@IAEXXZ PROC ; std::basic_streambuf<char,std::char_traits<char> >::_Init, COMDAT
; _this$ = ecx

; 314  : 		{	// initialize buffer parameters for no buffers

	push	ebp
	mov	ebp, esp
	push	ecx
	mov	DWORD PTR [ebp-4], -858993460		; ccccccccH
	mov	DWORD PTR _this$[ebp], ecx

; 315  : 		_IGfirst = &_Gfirst;

	mov	eax, DWORD PTR _this$[ebp]
	add	eax, 8
	mov	ecx, DWORD PTR _this$[ebp]
	mov	DWORD PTR [ecx+16], eax

; 316  : 		_IPfirst = &_Pfirst;

	mov	edx, DWORD PTR _this$[ebp]
	add	edx, 12					; 0000000cH
	mov	eax, DWORD PTR _this$[ebp]
	mov	DWORD PTR [eax+20], edx

; 317  : 		_IGnext = &_Gnext;

	mov	ecx, DWORD PTR _this$[ebp]
	add	ecx, 24					; 00000018H
	mov	edx, DWORD PTR _this$[ebp]
	mov	DWORD PTR [edx+32], ecx

; 318  : 		_IPnext = &_Pnext;

	mov	eax, DWORD PTR _this$[ebp]
	add	eax, 28					; 0000001cH
	mov	ecx, DWORD PTR _this$[ebp]
	mov	DWORD PTR [ecx+36], eax

; 319  : 		_IGcount = &_Gcount;

	mov	edx, DWORD PTR _this$[ebp]
	add	edx, 40					; 00000028H
	mov	eax, DWORD PTR _this$[ebp]
	mov	DWORD PTR [eax+48], edx

; 320  : 		_IPcount = &_Pcount;

	mov	ecx, DWORD PTR _this$[ebp]
	add	ecx, 44					; 0000002cH
	mov	edx, DWORD PTR _this$[ebp]
	mov	DWORD PTR [edx+52], ecx

; 321  : 		setp(0, 0);

	push	0
	push	0
	mov	ecx, DWORD PTR _this$[ebp]
	call	?setp@?$basic_streambuf@DU?$char_traits@D@std@@@std@@IAEXPAD0@Z ; std::basic_streambuf<char,std::char_traits<char> >::setp

; 322  : 		setg(0, 0, 0);

	push	0
	push	0
	push	0
	mov	ecx, DWORD PTR _this$[ebp]
	call	?setg@?$basic_streambuf@DU?$char_traits@D@std@@@std@@IAEXPAD00@Z ; std::basic_streambuf<char,std::char_traits<char> >::setg

; 323  : 		}

	add	esp, 4
	cmp	ebp, esp
	call	__RTC_CheckEsp
	mov	esp, ebp
	pop	ebp
	ret	0
?_Init@?$basic_streambuf@DU?$char_traits@D@std@@@std@@IAEXXZ ENDP ; std::basic_streambuf<char,std::char_traits<char> >::_Init
_TEXT	ENDS
PUBLIC	?_Getcvt@_Locinfo@std@@QBE?AU_Cvtvec@@XZ	; std::_Locinfo::_Getcvt
; Function compile flags: /Odtp /RTCsu
; File c:\program files (x86)\microsoft visual studio 10.0\vc\include\xlocnum
;	COMDAT ?_Init@?$num_put@DV?$ostreambuf_iterator@DU?$char_traits@D@std@@@std@@@std@@IAEXABV_Locinfo@2@@Z
_TEXT	SEGMENT
$T148068 = -12						; size = 8
_this$ = -4						; size = 4
__Lobj$ = 8						; size = 4
?_Init@?$num_put@DV?$ostreambuf_iterator@DU?$char_traits@D@std@@@std@@@std@@IAEXABV_Locinfo@2@@Z PROC ; std::num_put<char,std::ostreambuf_iterator<char,std::char_traits<char> > >::_Init, COMDAT
; _this$ = ecx

; 1066 : 		{	// initialize from _Locinfo object

	push	ebp
	mov	ebp, esp
	sub	esp, 12					; 0000000cH
	mov	DWORD PTR [ebp-12], -858993460		; ccccccccH
	mov	DWORD PTR [ebp-8], -858993460		; ccccccccH
	mov	DWORD PTR [ebp-4], -858993460		; ccccccccH
	mov	DWORD PTR _this$[ebp], ecx

; 1067 : 		_Cvt = _Lobj._Getcvt();

	lea	eax, DWORD PTR $T148068[ebp]
	push	eax
	mov	ecx, DWORD PTR __Lobj$[ebp]
	call	?_Getcvt@_Locinfo@std@@QBE?AU_Cvtvec@@XZ ; std::_Locinfo::_Getcvt
	mov	ecx, DWORD PTR [eax]
	mov	edx, DWORD PTR [eax+4]
	mov	eax, DWORD PTR _this$[ebp]
	mov	DWORD PTR [eax+8], ecx
	mov	DWORD PTR [eax+12], edx

; 1068 : 		}

	add	esp, 12					; 0000000cH
	cmp	ebp, esp
	call	__RTC_CheckEsp
	mov	esp, ebp
	pop	ebp
	ret	4
?_Init@?$num_put@DV?$ostreambuf_iterator@DU?$char_traits@D@std@@@std@@@std@@IAEXABV_Locinfo@2@@Z ENDP ; std::num_put<char,std::ostreambuf_iterator<char,std::char_traits<char> > >::_Init
_TEXT	ENDS
EXTRN	__Getcvt:PROC
; Function compile flags: /Odtp /RTCsu
; File c:\program files (x86)\microsoft visual studio 10.0\vc\include\xlocinfo
;	COMDAT ?_Getcvt@_Locinfo@std@@QBE?AU_Cvtvec@@XZ
_TEXT	SEGMENT
$T148071 = -12						; size = 8
_this$ = -4						; size = 4
___$ReturnUdt$ = 8					; size = 4
?_Getcvt@_Locinfo@std@@QBE?AU_Cvtvec@@XZ PROC		; std::_Locinfo::_Getcvt, COMDAT
; _this$ = ecx

; 122  : 		{	// return codecvt stuff

	push	ebp
	mov	ebp, esp
	sub	esp, 12					; 0000000cH
	mov	DWORD PTR [ebp-12], -858993460		; ccccccccH
	mov	DWORD PTR [ebp-8], -858993460		; ccccccccH
	mov	DWORD PTR [ebp-4], -858993460		; ccccccccH
	mov	DWORD PTR _this$[ebp], ecx

; 123  : 		return (::_Getcvt());

	call	__Getcvt
	mov	DWORD PTR $T148071[ebp], eax
	mov	DWORD PTR $T148071[ebp+4], edx
	mov	eax, DWORD PTR ___$ReturnUdt$[ebp]
	mov	ecx, DWORD PTR $T148071[ebp]
	mov	DWORD PTR [eax], ecx
	mov	edx, DWORD PTR $T148071[ebp+4]
	mov	DWORD PTR [eax+4], edx
	mov	eax, DWORD PTR ___$ReturnUdt$[ebp]

; 124  : 		}

	add	esp, 12					; 0000000cH
	cmp	ebp, esp
	call	__RTC_CheckEsp
	mov	esp, ebp
	pop	ebp
	ret	4
?_Getcvt@_Locinfo@std@@QBE?AU_Cvtvec@@XZ ENDP		; std::_Locinfo::_Getcvt
_TEXT	ENDS
PUBLIC	?_Gettrue@_Locinfo@std@@QBEPBDXZ		; std::_Locinfo::_Gettrue
PUBLIC	?_Getfalse@_Locinfo@std@@QBEPBDXZ		; std::_Locinfo::_Getfalse
PUBLIC	??$_Maklocstr@D@std@@YAPADPBDPADABU_Cvtvec@@@Z	; std::_Maklocstr<char>
PUBLIC	??_C@_00CNPNBAHC@?$AA@				; `string'
PUBLIC	?_Getlconv@_Locinfo@std@@QBEPBUlconv@@XZ	; std::_Locinfo::_Getlconv
;	COMDAT ??_C@_00CNPNBAHC@?$AA@
; File c:\program files (x86)\microsoft visual studio 10.0\vc\include\xlocnum
CONST	SEGMENT
??_C@_00CNPNBAHC@?$AA@ DB 00H				; `string'
CONST	ENDS
;	COMDAT xdata$x
xdata$x	SEGMENT
__catchsym$?_Init@?$numpunct@D@std@@IAEXABV_Locinfo@2@_N@Z$2 DD 040H
	DD	00H
	DD	00H
	DD	FLAT:__catch$?_Init@?$numpunct@D@std@@IAEXABV_Locinfo@2@_N@Z$0
__unwindtable$?_Init@?$numpunct@D@std@@IAEXABV_Locinfo@2@_N@Z DD 0ffffffffH
	DD	00H
	DD	0ffffffffH
	DD	00H
__tryblocktable$?_Init@?$numpunct@D@std@@IAEXABV_Locinfo@2@_N@Z DD 00H
	DD	00H
	DD	01H
	DD	01H
	DD	FLAT:__catchsym$?_Init@?$numpunct@D@std@@IAEXABV_Locinfo@2@_N@Z$2
__ehfuncinfo$?_Init@?$numpunct@D@std@@IAEXABV_Locinfo@2@_N@Z DD 019930522H
	DD	02H
	DD	FLAT:__unwindtable$?_Init@?$numpunct@D@std@@IAEXABV_Locinfo@2@_N@Z
	DD	01H
	DD	FLAT:__tryblocktable$?_Init@?$numpunct@D@std@@IAEXABV_Locinfo@2@_N@Z
	DD	2 DUP(00H)
	DD	00H
	DD	01H
; Function compile flags: /Odtp /RTCsu
xdata$x	ENDS
;	COMDAT ?_Init@?$numpunct@D@std@@IAEXABV_Locinfo@2@_N@Z
_TEXT	SEGMENT
tv181 = -116						; size = 4
tv180 = -112						; size = 4
tv179 = -108						; size = 4
tv178 = -104						; size = 4
tv177 = -100						; size = 4
tv176 = -96						; size = 4
tv175 = -92						; size = 4
tv174 = -88						; size = 4
tv79 = -84						; size = 4
$T148082 = -80						; size = 8
$T148081 = -72						; size = 8
$T148080 = -64						; size = 8
$T148079 = -56						; size = 8
$T148078 = -48						; size = 8
$T148077 = -40						; size = 8
$T148074 = -32						; size = 8
__Ptr$ = -24						; size = 4
_this$ = -20						; size = 4
__$EHRec$ = -16						; size = 16
__Lobj$ = 8						; size = 4
__Isdef$ = 12						; size = 1
?_Init@?$numpunct@D@std@@IAEXABV_Locinfo@2@_N@Z PROC	; std::numpunct<char>::_Init, COMDAT
; _this$ = ecx

; 133  : 		{	// initialize from _Lobj

	push	ebp
	mov	ebp, esp
	push	-1
	push	__ehhandler$?_Init@?$numpunct@D@std@@IAEXABV_Locinfo@2@_N@Z
	mov	eax, DWORD PTR fs:0
	push	eax
	push	ecx
	sub	esp, 100				; 00000064H
	push	ebx
	push	esi
	push	edi
	push	ecx
	lea	edi, DWORD PTR [ebp-116]
	mov	ecx, 25					; 00000019H
	mov	eax, -858993460				; ccccccccH
	rep stosd
	pop	ecx
	mov	eax, DWORD PTR ___security_cookie
	xor	eax, ebp
	push	eax
	lea	eax, DWORD PTR __$EHRec$[ebp+4]
	mov	DWORD PTR fs:0, eax
	mov	DWORD PTR __$EHRec$[ebp], esp
	mov	DWORD PTR _this$[ebp], ecx

; 134  : 		const lconv *_Ptr = _Lobj._Getlconv();

	mov	ecx, DWORD PTR __Lobj$[ebp]
	call	?_Getlconv@_Locinfo@std@@QBEPBUlconv@@XZ ; std::_Locinfo::_Getlconv
	mov	DWORD PTR __Ptr$[ebp], eax

; 135  : 
; 136  : 		_Grouping = 0;

	mov	eax, DWORD PTR _this$[ebp]
	mov	DWORD PTR [eax+8], 0

; 137  : 		_Falsename = 0;

	mov	ecx, DWORD PTR _this$[ebp]
	mov	DWORD PTR [ecx+16], 0

; 138  : 		_Truename = 0;

	mov	edx, DWORD PTR _this$[ebp]
	mov	DWORD PTR [edx+20], 0

; 139  : 
; 140  : 		_TRY_BEGIN

	mov	DWORD PTR __$EHRec$[ebp+12], 0

; 141  : 		_Grouping = _MAKLOCSTR(char, _Isdef ? "" : _Ptr->grouping,

	movzx	eax, BYTE PTR __Isdef$[ebp]
	test	eax, eax
	je	SHORT $LN5@Init@2
	mov	DWORD PTR tv79[ebp], OFFSET ??_C@_00CNPNBAHC@?$AA@
	jmp	SHORT $LN6@Init@2
$LN5@Init@2:
	mov	ecx, DWORD PTR __Ptr$[ebp]
	mov	edx, DWORD PTR [ecx+8]
	mov	DWORD PTR tv79[ebp], edx
$LN6@Init@2:
	lea	eax, DWORD PTR $T148074[ebp]
	push	eax
	mov	ecx, DWORD PTR __Lobj$[ebp]
	call	?_Getcvt@_Locinfo@std@@QBE?AU_Cvtvec@@XZ ; std::_Locinfo::_Getcvt
	mov	DWORD PTR tv174[ebp], eax
	mov	ecx, DWORD PTR tv174[ebp]
	push	ecx
	push	0
	mov	edx, DWORD PTR tv79[ebp]
	push	edx
	call	??$_Maklocstr@D@std@@YAPADPBDPADABU_Cvtvec@@@Z ; std::_Maklocstr<char>
	add	esp, 12					; 0000000cH
	mov	DWORD PTR tv175[ebp], eax
	mov	eax, DWORD PTR _this$[ebp]
	mov	ecx, DWORD PTR tv175[ebp]
	mov	DWORD PTR [eax+8], ecx

; 142  : 			_Lobj._Getcvt());
; 143  : 		_Falsename = _MAKLOCSTR(_Elem, _Lobj._Getfalse(), _Lobj._Getcvt());

	lea	edx, DWORD PTR $T148077[ebp]
	push	edx
	mov	ecx, DWORD PTR __Lobj$[ebp]
	call	?_Getcvt@_Locinfo@std@@QBE?AU_Cvtvec@@XZ ; std::_Locinfo::_Getcvt
	mov	DWORD PTR tv176[ebp], eax
	mov	ecx, DWORD PTR __Lobj$[ebp]
	call	?_Getfalse@_Locinfo@std@@QBEPBDXZ	; std::_Locinfo::_Getfalse
	mov	DWORD PTR tv177[ebp], eax
	mov	eax, DWORD PTR tv176[ebp]
	push	eax
	push	0
	mov	ecx, DWORD PTR tv177[ebp]
	push	ecx
	call	??$_Maklocstr@D@std@@YAPADPBDPADABU_Cvtvec@@@Z ; std::_Maklocstr<char>
	add	esp, 12					; 0000000cH
	mov	DWORD PTR tv178[ebp], eax
	mov	edx, DWORD PTR _this$[ebp]
	mov	eax, DWORD PTR tv178[ebp]
	mov	DWORD PTR [edx+16], eax

; 144  : 		_Truename = _MAKLOCSTR(_Elem, _Lobj._Gettrue(), _Lobj._Getcvt());

	lea	ecx, DWORD PTR $T148078[ebp]
	push	ecx
	mov	ecx, DWORD PTR __Lobj$[ebp]
	call	?_Getcvt@_Locinfo@std@@QBE?AU_Cvtvec@@XZ ; std::_Locinfo::_Getcvt
	mov	DWORD PTR tv179[ebp], eax
	mov	ecx, DWORD PTR __Lobj$[ebp]
	call	?_Gettrue@_Locinfo@std@@QBEPBDXZ	; std::_Locinfo::_Gettrue
	mov	DWORD PTR tv180[ebp], eax
	mov	edx, DWORD PTR tv179[ebp]
	push	edx
	push	0
	mov	eax, DWORD PTR tv180[ebp]
	push	eax
	call	??$_Maklocstr@D@std@@YAPADPBDPADABU_Cvtvec@@@Z ; std::_Maklocstr<char>
	add	esp, 12					; 0000000cH
	mov	DWORD PTR tv181[ebp], eax
	mov	ecx, DWORD PTR _this$[ebp]
	mov	edx, DWORD PTR tv181[ebp]
	mov	DWORD PTR [ecx+20], edx
	jmp	SHORT $LN7@Init@2
__catch$?_Init@?$numpunct@D@std@@IAEXABV_Locinfo@2@_N@Z$0:

; 145  : 		_CATCH_ALL
; 146  : 		_Tidy();

	mov	ecx, DWORD PTR _this$[ebp]
	call	?_Tidy@?$numpunct@D@std@@AAEXXZ		; std::numpunct<char>::_Tidy

; 147  : 		_RERAISE;

	push	0
	push	0
	call	__CxxThrowException@8

; 148  : 		_CATCH_END

	mov	DWORD PTR __$EHRec$[ebp+12], -1
	mov	eax, __tryend$?_Init@?$numpunct@D@std@@IAEXABV_Locinfo@2@_N@Z$1
	ret	0
$LN7@Init@2:
	mov	DWORD PTR __$EHRec$[ebp+12], -1
__tryend$?_Init@?$numpunct@D@std@@IAEXABV_Locinfo@2@_N@Z$1:

; 149  : 
; 150  : 		_Dp = _MAKLOCCHR(_Elem, _Ptr->decimal_point[0], _Lobj._Getcvt());

	lea	eax, DWORD PTR $T148079[ebp]
	push	eax
	mov	ecx, DWORD PTR __Lobj$[ebp]
	call	?_Getcvt@_Locinfo@std@@QBE?AU_Cvtvec@@XZ ; std::_Locinfo::_Getcvt
	push	eax
	push	0
	mov	ecx, DWORD PTR __Ptr$[ebp]
	mov	edx, DWORD PTR [ecx]
	movzx	eax, BYTE PTR [edx]
	push	eax
	call	??$_Maklocchr@D@std@@YADDPADABU_Cvtvec@@@Z ; std::_Maklocchr<char>
	add	esp, 12					; 0000000cH
	mov	ecx, DWORD PTR _this$[ebp]
	mov	BYTE PTR [ecx+12], al

; 151  : 		_Kseparator =
; 152  : 			_MAKLOCCHR(_Elem, _Ptr->thousands_sep[0], _Lobj._Getcvt());

	lea	edx, DWORD PTR $T148080[ebp]
	push	edx
	mov	ecx, DWORD PTR __Lobj$[ebp]
	call	?_Getcvt@_Locinfo@std@@QBE?AU_Cvtvec@@XZ ; std::_Locinfo::_Getcvt
	push	eax
	push	0
	mov	eax, DWORD PTR __Ptr$[ebp]
	mov	ecx, DWORD PTR [eax+4]
	movzx	edx, BYTE PTR [ecx]
	push	edx
	call	??$_Maklocchr@D@std@@YADDPADABU_Cvtvec@@@Z ; std::_Maklocchr<char>
	add	esp, 12					; 0000000cH
	mov	ecx, DWORD PTR _this$[ebp]
	mov	BYTE PTR [ecx+13], al

; 153  : 
; 154  : 		if (_Isdef)

	movzx	edx, BYTE PTR __Isdef$[ebp]
	test	edx, edx
	je	SHORT $LN4@Init@2

; 155  : 			{	// apply defaults for required facets
; 156  : //			_Grouping = _MAKLOCSTR(char, "", _Lobj._Getcvt());
; 157  : 			_Dp = _MAKLOCCHR(_Elem, '.', _Lobj._Getcvt());

	lea	eax, DWORD PTR $T148081[ebp]
	push	eax
	mov	ecx, DWORD PTR __Lobj$[ebp]
	call	?_Getcvt@_Locinfo@std@@QBE?AU_Cvtvec@@XZ ; std::_Locinfo::_Getcvt
	push	eax
	push	0
	push	46					; 0000002eH
	call	??$_Maklocchr@D@std@@YADDPADABU_Cvtvec@@@Z ; std::_Maklocchr<char>
	add	esp, 12					; 0000000cH
	mov	ecx, DWORD PTR _this$[ebp]
	mov	BYTE PTR [ecx+12], al

; 158  : 			_Kseparator = _MAKLOCCHR(_Elem, ',', _Lobj._Getcvt());

	lea	edx, DWORD PTR $T148082[ebp]
	push	edx
	mov	ecx, DWORD PTR __Lobj$[ebp]
	call	?_Getcvt@_Locinfo@std@@QBE?AU_Cvtvec@@XZ ; std::_Locinfo::_Getcvt
	push	eax
	push	0
	push	44					; 0000002cH
	call	??$_Maklocchr@D@std@@YADDPADABU_Cvtvec@@@Z ; std::_Maklocchr<char>
	add	esp, 12					; 0000000cH
	mov	ecx, DWORD PTR _this$[ebp]
	mov	BYTE PTR [ecx+13], al
$LN4@Init@2:

; 159  : 			}
; 160  : 		}

	mov	ecx, DWORD PTR __$EHRec$[ebp+4]
	mov	DWORD PTR fs:0, ecx
	pop	ecx
	pop	edi
	pop	esi
	pop	ebx
	add	esp, 116				; 00000074H
	cmp	ebp, esp
	call	__RTC_CheckEsp
	mov	esp, ebp
	pop	ebp
	ret	8
_TEXT	ENDS
;	COMDAT text$x
text$x	SEGMENT
__ehhandler$?_Init@?$numpunct@D@std@@IAEXABV_Locinfo@2@_N@Z:
	mov	edx, DWORD PTR [esp+8]
	lea	eax, DWORD PTR [edx+12]
	mov	ecx, DWORD PTR [edx-120]
	xor	ecx, eax
	call	@__security_check_cookie@4
	mov	eax, OFFSET __ehfuncinfo$?_Init@?$numpunct@D@std@@IAEXABV_Locinfo@2@_N@Z
	jmp	___CxxFrameHandler3
text$x	ENDS
?_Init@?$numpunct@D@std@@IAEXABV_Locinfo@2@_N@Z ENDP	; std::numpunct<char>::_Init
; Function compile flags: /Odtp /RTCsu
; File c:\program files (x86)\microsoft visual studio 10.0\vc\include\xlocinfo
;	COMDAT ?_Getlconv@_Locinfo@std@@QBEPBUlconv@@XZ
_TEXT	SEGMENT
_this$ = -4						; size = 4
?_Getlconv@_Locinfo@std@@QBEPBUlconv@@XZ PROC		; std::_Locinfo::_Getlconv, COMDAT
; _this$ = ecx

; 127  : 		{	// return localeconv stuff

	push	ebp
	mov	ebp, esp
	push	ecx
	mov	DWORD PTR [ebp-4], -858993460		; ccccccccH
	mov	DWORD PTR _this$[ebp], ecx

; 128  : 		return (localeconv());

	call	_localeconv

; 129  : 		}

	add	esp, 4
	cmp	ebp, esp
	call	__RTC_CheckEsp
	mov	esp, ebp
	pop	ebp
	ret	0
?_Getlconv@_Locinfo@std@@QBEPBUlconv@@XZ ENDP		; std::_Locinfo::_Getlconv
_TEXT	ENDS
PUBLIC	??_C@_05LAPONLG@false?$AA@			; `string'
;	COMDAT ??_C@_05LAPONLG@false?$AA@
CONST	SEGMENT
??_C@_05LAPONLG@false?$AA@ DB 'false', 00H		; `string'
; Function compile flags: /Odtp /RTCsu
CONST	ENDS
;	COMDAT ?_Getfalse@_Locinfo@std@@QBEPBDXZ
_TEXT	SEGMENT
_this$ = -4						; size = 4
?_Getfalse@_Locinfo@std@@QBEPBDXZ PROC			; std::_Locinfo::_Getfalse, COMDAT
; _this$ = ecx

; 165  : 		{	// return false name (no C source)

	push	ebp
	mov	ebp, esp
	push	ecx
	mov	DWORD PTR [ebp-4], -858993460		; ccccccccH
	mov	DWORD PTR _this$[ebp], ecx

; 166  : 		return ("false");

	mov	eax, OFFSET ??_C@_05LAPONLG@false?$AA@

; 167  : 		}

	mov	esp, ebp
	pop	ebp
	ret	0
?_Getfalse@_Locinfo@std@@QBEPBDXZ ENDP			; std::_Locinfo::_Getfalse
_TEXT	ENDS
PUBLIC	??_C@_04LOAJBDKD@true?$AA@			; `string'
;	COMDAT ??_C@_04LOAJBDKD@true?$AA@
CONST	SEGMENT
??_C@_04LOAJBDKD@true?$AA@ DB 'true', 00H		; `string'
; Function compile flags: /Odtp /RTCsu
CONST	ENDS
;	COMDAT ?_Gettrue@_Locinfo@std@@QBEPBDXZ
_TEXT	SEGMENT
_this$ = -4						; size = 4
?_Gettrue@_Locinfo@std@@QBEPBDXZ PROC			; std::_Locinfo::_Gettrue, COMDAT
; _this$ = ecx

; 170  : 		{	// return true name (no C source)

	push	ebp
	mov	ebp, esp
	push	ecx
	mov	DWORD PTR [ebp-4], -858993460		; ccccccccH
	mov	DWORD PTR _this$[ebp], ecx

; 171  : 		return ("true");

	mov	eax, OFFSET ??_C@_04LOAJBDKD@true?$AA@

; 172  : 		}

	mov	esp, ebp
	pop	ebp
	ret	0
?_Gettrue@_Locinfo@std@@QBEPBDXZ ENDP			; std::_Locinfo::_Gettrue
; Function compile flags: /Odtp /RTCsu
; File c:\program files (x86)\microsoft visual studio 10.0\vc\include\sstream
_TEXT	ENDS
;	COMDAT ?_Init@?$basic_stringbuf@DU?$char_traits@D@std@@V?$allocator@D@2@@std@@IAEXPBDIH@Z
_TEXT	SEGMENT
tv137 = -12						; size = 4
__Pnew$143879 = -8					; size = 4
_this$ = -4						; size = 4
__Ptr$ = 8						; size = 4
__Count$ = 12						; size = 4
__State$ = 16						; size = 4
?_Init@?$basic_stringbuf@DU?$char_traits@D@std@@V?$allocator@D@2@@std@@IAEXPBDIH@Z PROC ; std::basic_stringbuf<char,std::char_traits<char>,std::allocator<char> >::_Init, COMDAT
; _this$ = ecx

; 313  : 		{	// initialize buffer to [_Ptr, _Ptr + _Count), set state

	push	ebp
	mov	ebp, esp
	sub	esp, 12					; 0000000cH
	mov	DWORD PTR [ebp-12], -858993460		; ccccccccH
	mov	DWORD PTR [ebp-8], -858993460		; ccccccccH
	mov	DWORD PTR [ebp-4], -858993460		; ccccccccH
	mov	DWORD PTR _this$[ebp], ecx

; 314  : 		_Seekhigh = 0;

	mov	eax, DWORD PTR _this$[ebp]
	mov	DWORD PTR [eax+60], 0

; 315  : 		_Mystate = _State;

	mov	ecx, DWORD PTR _this$[ebp]
	mov	edx, DWORD PTR __State$[ebp]
	mov	DWORD PTR [ecx+64], edx

; 316  : 
; 317  : 		if (_Count != 0
; 318  : 			&& (_Mystate & (_Noread | _Constant)) != (_Noread | _Constant))

	cmp	DWORD PTR __Count$[ebp], 0
	je	$LN5@Init@3
	mov	eax, DWORD PTR _this$[ebp]
	mov	ecx, DWORD PTR [eax+64]
	and	ecx, 6
	cmp	ecx, 6
	je	$LN5@Init@3

; 319  : 			{	// finite buffer that can be read or written, set it up
; 320  : 			_Elem *_Pnew = _Al.allocate(_Count);

	mov	edx, DWORD PTR __Count$[ebp]
	push	edx
	mov	ecx, DWORD PTR _this$[ebp]
	add	ecx, 68					; 00000044H
	call	?allocate@?$allocator@D@std@@QAEPADI@Z	; std::allocator<char>::allocate
	mov	DWORD PTR __Pnew$143879[ebp], eax

; 321  : 			_Traits::copy(_Pnew, _Ptr, _Count);

	mov	eax, DWORD PTR __Count$[ebp]
	push	eax
	mov	ecx, DWORD PTR __Ptr$[ebp]
	push	ecx
	mov	edx, DWORD PTR __Pnew$143879[ebp]
	push	edx
	call	?copy@?$char_traits@D@std@@SAPADPADPBDI@Z ; std::char_traits<char>::copy
	add	esp, 12					; 0000000cH

; 322  : 			_Seekhigh = _Pnew + _Count;

	mov	eax, DWORD PTR __Pnew$143879[ebp]
	add	eax, DWORD PTR __Count$[ebp]
	mov	ecx, DWORD PTR _this$[ebp]
	mov	DWORD PTR [ecx+60], eax

; 323  : 
; 324  : 			if (!(_Mystate & _Noread))

	mov	edx, DWORD PTR _this$[ebp]
	mov	eax, DWORD PTR [edx+64]
	and	eax, 4
	jne	SHORT $LN3@Init@3

; 325  : 				_Mysb::setg(_Pnew, _Pnew,
; 326  : 					_Pnew + _Count);	// setup read buffer

	mov	ecx, DWORD PTR __Pnew$143879[ebp]
	add	ecx, DWORD PTR __Count$[ebp]
	push	ecx
	mov	edx, DWORD PTR __Pnew$143879[ebp]
	push	edx
	mov	eax, DWORD PTR __Pnew$143879[ebp]
	push	eax
	mov	ecx, DWORD PTR _this$[ebp]
	call	?setg@?$basic_streambuf@DU?$char_traits@D@std@@@std@@IAEXPAD00@Z ; std::basic_streambuf<char,std::char_traits<char> >::setg
$LN3@Init@3:

; 327  : 			if (!(_Mystate & _Constant))

	mov	ecx, DWORD PTR _this$[ebp]
	mov	edx, DWORD PTR [ecx+64]
	and	edx, 2
	jne	SHORT $LN2@Init@3

; 328  : 				{	// setup write buffer, and maybe read buffer
; 329  : 				_Mysb::setp(_Pnew,
; 330  : 					(_Mystate & _Atend) ? _Pnew + _Count : _Pnew,
; 331  : 					_Pnew + _Count);

	mov	eax, DWORD PTR _this$[ebp]
	mov	ecx, DWORD PTR [eax+64]
	and	ecx, 16					; 00000010H
	je	SHORT $LN7@Init@3
	mov	edx, DWORD PTR __Pnew$143879[ebp]
	add	edx, DWORD PTR __Count$[ebp]
	mov	DWORD PTR tv137[ebp], edx
	jmp	SHORT $LN8@Init@3
$LN7@Init@3:
	mov	eax, DWORD PTR __Pnew$143879[ebp]
	mov	DWORD PTR tv137[ebp], eax
$LN8@Init@3:
	mov	ecx, DWORD PTR __Pnew$143879[ebp]
	add	ecx, DWORD PTR __Count$[ebp]
	push	ecx
	mov	edx, DWORD PTR tv137[ebp]
	push	edx
	mov	eax, DWORD PTR __Pnew$143879[ebp]
	push	eax
	mov	ecx, DWORD PTR _this$[ebp]
	call	?setp@?$basic_streambuf@DU?$char_traits@D@std@@@std@@IAEXPAD00@Z ; std::basic_streambuf<char,std::char_traits<char> >::setp

; 332  : 				if (_Mysb::gptr() == 0)

	mov	ecx, DWORD PTR _this$[ebp]
	call	?gptr@?$basic_streambuf@DU?$char_traits@D@std@@@std@@IBEPADXZ ; std::basic_streambuf<char,std::char_traits<char> >::gptr
	test	eax, eax
	jne	SHORT $LN2@Init@3

; 333  : 					_Mysb::setg(_Pnew, 0, _Pnew);

	mov	ecx, DWORD PTR __Pnew$143879[ebp]
	push	ecx
	push	0
	mov	edx, DWORD PTR __Pnew$143879[ebp]
	push	edx
	mov	ecx, DWORD PTR _this$[ebp]
	call	?setg@?$basic_streambuf@DU?$char_traits@D@std@@@std@@IAEXPAD00@Z ; std::basic_streambuf<char,std::char_traits<char> >::setg
$LN2@Init@3:

; 334  : 				}
; 335  : 			_Mystate |= _Allocated;

	mov	eax, DWORD PTR _this$[ebp]
	mov	ecx, DWORD PTR [eax+64]
	or	ecx, 1
	mov	edx, DWORD PTR _this$[ebp]
	mov	DWORD PTR [edx+64], ecx
$LN5@Init@3:

; 336  : 			}
; 337  : 		}

	add	esp, 12					; 0000000cH
	cmp	ebp, esp
	call	__RTC_CheckEsp
	mov	esp, ebp
	pop	ebp
	ret	12					; 0000000cH
?_Init@?$basic_stringbuf@DU?$char_traits@D@std@@V?$allocator@D@2@@std@@IAEXPBDIH@Z ENDP ; std::basic_stringbuf<char,std::char_traits<char>,std::allocator<char> >::_Init
; Function compile flags: /Odtp /RTCsu
_TEXT	ENDS
;	COMDAT ?_Getstate@?$basic_stringbuf@DU?$char_traits@D@std@@V?$allocator@D@2@@std@@AAEHH@Z
_TEXT	SEGMENT
__State$ = -8						; size = 4
_this$ = -4						; size = 4
__Mode$ = 8						; size = 4
?_Getstate@?$basic_stringbuf@DU?$char_traits@D@std@@V?$allocator@D@2@@std@@AAEHH@Z PROC ; std::basic_stringbuf<char,std::char_traits<char>,std::allocator<char> >::_Getstate, COMDAT
; _this$ = ecx

; 357  : 		{	// convert open mode to stream state bits

	push	ebp
	mov	ebp, esp
	sub	esp, 8
	mov	DWORD PTR [ebp-8], -858993460		; ccccccccH
	mov	DWORD PTR [ebp-4], -858993460		; ccccccccH
	mov	DWORD PTR _this$[ebp], ecx

; 358  : 		_Strstate _State = (_Strstate)0;

	mov	DWORD PTR __State$[ebp], 0

; 359  : 		if (!(_Mode & ios_base::in))

	mov	eax, DWORD PTR __Mode$[ebp]
	and	eax, 1
	jne	SHORT $LN4@Getstate

; 360  : 			_State |= _Noread;

	mov	ecx, DWORD PTR __State$[ebp]
	or	ecx, 4
	mov	DWORD PTR __State$[ebp], ecx
$LN4@Getstate:

; 361  : 		if (!(_Mode & ios_base::out))

	mov	edx, DWORD PTR __Mode$[ebp]
	and	edx, 2
	jne	SHORT $LN3@Getstate

; 362  : 			_State |= _Constant;

	mov	eax, DWORD PTR __State$[ebp]
	or	eax, 2
	mov	DWORD PTR __State$[ebp], eax
$LN3@Getstate:

; 363  : 		if (_Mode & ios_base::app)

	mov	ecx, DWORD PTR __Mode$[ebp]
	and	ecx, 8
	je	SHORT $LN2@Getstate

; 364  : 			_State |= _Append;

	mov	edx, DWORD PTR __State$[ebp]
	or	edx, 8
	mov	DWORD PTR __State$[ebp], edx
$LN2@Getstate:

; 365  : 		if (_Mode & ios_base::ate)

	mov	eax, DWORD PTR __Mode$[ebp]
	and	eax, 4
	je	SHORT $LN1@Getstate

; 366  : 			_State |= _Atend;

	mov	ecx, DWORD PTR __State$[ebp]
	or	ecx, 16					; 00000010H
	mov	DWORD PTR __State$[ebp], ecx
$LN1@Getstate:

; 367  : 		return (_State);

	mov	eax, DWORD PTR __State$[ebp]

; 368  : 		}

	mov	esp, ebp
	pop	ebp
	ret	4
?_Getstate@?$basic_stringbuf@DU?$char_traits@D@std@@V?$allocator@D@2@@std@@AAEHH@Z ENDP ; std::basic_stringbuf<char,std::char_traits<char>,std::allocator<char> >::_Getstate
_TEXT	ENDS
PUBLIC	?widen@?$ctype@D@std@@QBEDD@Z			; std::ctype<char>::widen
PUBLIC	??$use_facet@V?$ctype@D@std@@@std@@YAABV?$ctype@D@0@ABVlocale@0@@Z ; std::use_facet<std::ctype<char> >
;	COMDAT xdata$x
; File c:\program files (x86)\microsoft visual studio 10.0\vc\include\ios
xdata$x	SEGMENT
__unwindtable$?widen@?$basic_ios@DU?$char_traits@D@std@@@std@@QBEDD@Z DD 0ffffffffH
	DD	FLAT:__unwindfunclet$?widen@?$basic_ios@DU?$char_traits@D@std@@@std@@QBEDD@Z$0
__ehfuncinfo$?widen@?$basic_ios@DU?$char_traits@D@std@@@std@@QBEDD@Z DD 019930522H
	DD	01H
	DD	FLAT:__unwindtable$?widen@?$basic_ios@DU?$char_traits@D@std@@@std@@QBEDD@Z
	DD	2 DUP(00H)
	DD	2 DUP(00H)
	DD	00H
	DD	01H
; Function compile flags: /Odtp /RTCsu
xdata$x	ENDS
;	COMDAT ?widen@?$basic_ios@DU?$char_traits@D@std@@@std@@QBEDD@Z
_TEXT	SEGMENT
tv79 = -32						; size = 4
tv80 = -28						; size = 4
$T148110 = -24						; size = 4
__Ctype_fac$ = -20					; size = 4
_this$ = -16						; size = 4
__$EHRec$ = -12						; size = 12
__Byte$ = 8						; size = 1
?widen@?$basic_ios@DU?$char_traits@D@std@@@std@@QBEDD@Z PROC ; std::basic_ios<char,std::char_traits<char> >::widen, COMDAT
; _this$ = ecx

; 124  : 		{	// convert _Byte to character using imbued locale

	push	ebp
	mov	ebp, esp
	push	-1
	push	__ehhandler$?widen@?$basic_ios@DU?$char_traits@D@std@@@std@@QBEDD@Z
	mov	eax, DWORD PTR fs:0
	push	eax
	sub	esp, 20					; 00000014H
	mov	eax, -858993460				; ccccccccH
	mov	DWORD PTR [ebp-32], eax
	mov	DWORD PTR [ebp-28], eax
	mov	DWORD PTR [ebp-24], eax
	mov	DWORD PTR [ebp-20], eax
	mov	DWORD PTR [ebp-16], eax
	mov	eax, DWORD PTR ___security_cookie
	xor	eax, ebp
	push	eax
	lea	eax, DWORD PTR __$EHRec$[ebp]
	mov	DWORD PTR fs:0, eax
	mov	DWORD PTR _this$[ebp], ecx

; 125  : 		const _Ctype& _Ctype_fac = _USE(getloc(), _Ctype);

	lea	eax, DWORD PTR $T148110[ebp]
	push	eax
	mov	ecx, DWORD PTR _this$[ebp]
	call	?getloc@ios_base@std@@QBE?AVlocale@2@XZ	; std::ios_base::getloc
	mov	DWORD PTR tv80[ebp], eax
	mov	ecx, DWORD PTR tv80[ebp]
	mov	DWORD PTR tv79[ebp], ecx
	mov	DWORD PTR __$EHRec$[ebp+8], 0
	mov	edx, DWORD PTR tv79[ebp]
	push	edx
	call	??$use_facet@V?$ctype@D@std@@@std@@YAABV?$ctype@D@0@ABVlocale@0@@Z ; std::use_facet<std::ctype<char> >
	add	esp, 4
	mov	DWORD PTR __Ctype_fac$[ebp], eax
	mov	DWORD PTR __$EHRec$[ebp+8], -1
	lea	ecx, DWORD PTR $T148110[ebp]
	call	??1locale@std@@QAE@XZ			; std::locale::~locale

; 126  : 		return (_Ctype_fac.widen(_Byte));

	movzx	eax, BYTE PTR __Byte$[ebp]
	push	eax
	mov	ecx, DWORD PTR __Ctype_fac$[ebp]
	call	?widen@?$ctype@D@std@@QBEDD@Z		; std::ctype<char>::widen

; 127  : 		}

	mov	ecx, DWORD PTR __$EHRec$[ebp]
	mov	DWORD PTR fs:0, ecx
	pop	ecx
	add	esp, 32					; 00000020H
	cmp	ebp, esp
	call	__RTC_CheckEsp
	mov	esp, ebp
	pop	ebp
	ret	4
_TEXT	ENDS
;	COMDAT text$x
text$x	SEGMENT
__unwindfunclet$?widen@?$basic_ios@DU?$char_traits@D@std@@@std@@QBEDD@Z$0:
	lea	ecx, DWORD PTR $T148110[ebp]
	jmp	??1locale@std@@QAE@XZ			; std::locale::~locale
__ehhandler$?widen@?$basic_ios@DU?$char_traits@D@std@@@std@@QBEDD@Z:
	mov	edx, DWORD PTR [esp+8]
	lea	eax, DWORD PTR [edx+12]
	mov	ecx, DWORD PTR [edx-24]
	xor	ecx, eax
	call	@__security_check_cookie@4
	mov	eax, OFFSET __ehfuncinfo$?widen@?$basic_ios@DU?$char_traits@D@std@@@std@@QBEDD@Z
	jmp	___CxxFrameHandler3
text$x	ENDS
?widen@?$basic_ios@DU?$char_traits@D@std@@@std@@QBEDD@Z ENDP ; std::basic_ios<char,std::char_traits<char> >::widen
; Function compile flags: /Odtp /RTCsu
; File c:\program files (x86)\microsoft visual studio 10.0\vc\include\xlocale
;	COMDAT ?widen@?$ctype@D@std@@QBEDD@Z
_TEXT	SEGMENT
_this$ = -4						; size = 4
__Byte$ = 8						; size = 1
?widen@?$ctype@D@std@@QBEDD@Z PROC			; std::ctype<char>::widen, COMDAT
; _this$ = ecx

; 2324 : 		{	// widen char

	push	ebp
	mov	ebp, esp
	push	ecx
	push	esi
	mov	DWORD PTR [ebp-4], -858993460		; ccccccccH
	mov	DWORD PTR _this$[ebp], ecx

; 2325 : 		return (do_widen(_Byte));

	mov	esi, esp
	movzx	eax, BYTE PTR __Byte$[ebp]
	push	eax
	mov	ecx, DWORD PTR _this$[ebp]
	mov	edx, DWORD PTR [ecx]
	mov	ecx, DWORD PTR _this$[ebp]
	mov	eax, DWORD PTR [edx+24]
	call	eax
	cmp	esi, esp
	call	__RTC_CheckEsp

; 2326 : 		}

	pop	esi
	add	esp, 4
	cmp	ebp, esp
	call	__RTC_CheckEsp
	mov	esp, ebp
	pop	ebp
	ret	4
?widen@?$ctype@D@std@@QBEDD@Z ENDP			; std::ctype<char>::widen
_TEXT	ENDS
PUBLIC	?_Getcat@?$ctype@D@std@@SAIPAPBVfacet@locale@2@PBV42@@Z ; std::ctype<char>::_Getcat
PUBLIC	?_Psave@?$_Facetptr@V?$ctype@D@std@@@std@@2PBVfacet@locale@2@B ; std::_Facetptr<std::ctype<char> >::_Psave
EXTRN	?id@?$ctype@D@std@@2V0locale@2@A:DWORD		; std::ctype<char>::id
;	COMDAT ?_Psave@?$_Facetptr@V?$ctype@D@std@@@std@@2PBVfacet@locale@2@B
_BSS	SEGMENT
?_Psave@?$_Facetptr@V?$ctype@D@std@@@std@@2PBVfacet@locale@2@B DD 01H DUP (?) ; std::_Facetptr<std::ctype<char> >::_Psave
_BSS	ENDS
;	COMDAT xdata$x
xdata$x	SEGMENT
__unwindtable$??$use_facet@V?$ctype@D@std@@@std@@YAABV?$ctype@D@0@ABVlocale@0@@Z DD 0ffffffffH
	DD	FLAT:__unwindfunclet$??$use_facet@V?$ctype@D@std@@@std@@YAABV?$ctype@D@0@ABVlocale@0@@Z$0
__ehfuncinfo$??$use_facet@V?$ctype@D@std@@@std@@YAABV?$ctype@D@0@ABVlocale@0@@Z DD 019930522H
	DD	01H
	DD	FLAT:__unwindtable$??$use_facet@V?$ctype@D@std@@@std@@YAABV?$ctype@D@0@ABVlocale@0@@Z
	DD	2 DUP(00H)
	DD	2 DUP(00H)
	DD	00H
	DD	01H
; Function compile flags: /Odtp /RTCsu
xdata$x	ENDS
;	COMDAT ??$use_facet@V?$ctype@D@std@@@std@@YAABV?$ctype@D@0@ABVlocale@0@@Z
_TEXT	SEGMENT
$T148123 = -64						; size = 4
$T148122 = -60						; size = 12
__Pfmod$141661 = -48					; size = 4
__Pf$141645 = -44					; size = 4
__Id$141644 = -40					; size = 4
__Psave$141632 = -32					; size = 4
__Lock$141631 = -20					; size = 4
__$EHRec$ = -12						; size = 12
__Loc$ = 8						; size = 4
??$use_facet@V?$ctype@D@std@@@std@@YAABV?$ctype@D@0@ABVlocale@0@@Z PROC ; std::use_facet<std::ctype<char> >, COMDAT

; 504  : 	{	// get facet reference from locale

	push	ebp
	mov	ebp, esp
	push	-1
	push	__ehhandler$??$use_facet@V?$ctype@D@std@@@std@@YAABV?$ctype@D@0@ABVlocale@0@@Z
	mov	eax, DWORD PTR fs:0
	push	eax
	sub	esp, 52					; 00000034H
	push	edi
	lea	edi, DWORD PTR [ebp-64]
	mov	ecx, 13					; 0000000dH
	mov	eax, -858993460				; ccccccccH
	rep stosd
	mov	eax, DWORD PTR ___security_cookie
	xor	eax, ebp
	push	eax
	lea	eax, DWORD PTR __$EHRec$[ebp]
	mov	DWORD PTR fs:0, eax

; 505  : 	_BEGIN_LOCK(_LOCK_LOCALE)	// the thread lock, make get atomic

	push	0
	lea	ecx, DWORD PTR __Lock$141631[ebp]
	call	??0_Lockit@std@@QAE@H@Z			; std::_Lockit::_Lockit
	mov	DWORD PTR __$EHRec$[ebp+8], 0

; 506  : 		const locale::facet *_Psave =
; 507  : 			_Facetptr<_Facet>::_Psave;	// static pointer to lazy facet

	mov	eax, DWORD PTR ?_Psave@?$_Facetptr@V?$ctype@D@std@@@std@@2PBVfacet@locale@2@B ; std::_Facetptr<std::ctype<char> >::_Psave
	mov	DWORD PTR __Psave$141632[ebp], eax

; 508  : 
; 509  : 		size_t _Id = _Facet::id;

	mov	ecx, OFFSET ?id@?$ctype@D@std@@2V0locale@2@A ; std::ctype<char>::id
	call	??Bid@locale@std@@QAEIXZ		; std::locale::id::operator unsigned int
	mov	DWORD PTR __Id$141644[ebp], eax

; 510  : 		const locale::facet *_Pf = _Loc._Getfacet(_Id);

	mov	ecx, DWORD PTR __Id$141644[ebp]
	push	ecx
	mov	ecx, DWORD PTR __Loc$[ebp]
	call	?_Getfacet@locale@std@@QBEPBVfacet@12@I@Z ; std::locale::_Getfacet
	mov	DWORD PTR __Pf$141645[ebp], eax

; 511  : 
; 512  : 		if (_Pf != 0)

	cmp	DWORD PTR __Pf$141645[ebp], 0
	je	SHORT $LN6@use_facet@3
	jmp	SHORT $LN5@use_facet@3
$LN6@use_facet@3:

; 513  : 			;	// got facet from locale
; 514  : 		else if (_Psave != 0)

	cmp	DWORD PTR __Psave$141632[ebp], 0
	je	SHORT $LN4@use_facet@3

; 515  : 			_Pf = _Psave;	// lazy facet already allocated

	mov	edx, DWORD PTR __Psave$141632[ebp]
	mov	DWORD PTR __Pf$141645[ebp], edx
	jmp	SHORT $LN5@use_facet@3
$LN4@use_facet@3:

; 516  : 		else if (_Facet::_Getcat(&_Psave, &_Loc) == (size_t)(-1))

	mov	eax, DWORD PTR __Loc$[ebp]
	push	eax
	lea	ecx, DWORD PTR __Psave$141632[ebp]
	push	ecx
	call	?_Getcat@?$ctype@D@std@@SAIPAPBVfacet@locale@2@PBV42@@Z ; std::ctype<char>::_Getcat
	add	esp, 8
	cmp	eax, -1
	jne	SHORT $LN2@use_facet@3

; 517  : 
; 518  :  #if _HAS_EXCEPTIONS
; 519  : 
; 520  : 			_THROW_NCEE(bad_cast, _EMPTY_ARGUMENT);	// lazy disallowed

	push	OFFSET ??_C@_08EPJLHIJG@bad?5cast?$AA@
	lea	ecx, DWORD PTR $T148122[ebp]
	call	??0bad_cast@std@@QAE@PBD@Z		; std::bad_cast::bad_cast
	push	OFFSET __TI2?AVbad_cast@std@@
	lea	edx, DWORD PTR $T148122[ebp]
	push	edx
	call	__CxxThrowException@8

; 521  : 
; 522  :  #else /* _HAS_EXCEPTIONS */
; 523  : 			abort();	// lazy disallowed
; 524  :  #endif /* _HAS_EXCEPTIONS */
; 525  : 
; 526  : 		else

	jmp	SHORT $LN5@use_facet@3
$LN2@use_facet@3:

; 527  : 			{	// queue up lazy facet for destruction
; 528  : 			_Pf = _Psave;

	mov	eax, DWORD PTR __Psave$141632[ebp]
	mov	DWORD PTR __Pf$141645[ebp], eax

; 529  : 			_Facetptr<_Facet>::_Psave = _Psave;

	mov	ecx, DWORD PTR __Psave$141632[ebp]
	mov	DWORD PTR ?_Psave@?$_Facetptr@V?$ctype@D@std@@@std@@2PBVfacet@locale@2@B, ecx ; std::_Facetptr<std::ctype<char> >::_Psave

; 530  : 
; 531  : 			locale::facet *_Pfmod = (_Facet *)_Psave;

	mov	edx, DWORD PTR __Psave$141632[ebp]
	mov	DWORD PTR __Pfmod$141661[ebp], edx

; 532  : 			_Pfmod->_Incref();

	mov	ecx, DWORD PTR __Pfmod$141661[ebp]
	call	?_Incref@facet@locale@std@@QAEXXZ	; std::locale::facet::_Incref

; 533  : 			_Pfmod->_Register();

	mov	ecx, DWORD PTR __Pfmod$141661[ebp]
	call	?_Register@facet@locale@std@@QAEXXZ	; std::locale::facet::_Register
$LN5@use_facet@3:

; 534  : 			}
; 535  : 
; 536  : 		return ((const _Facet&)(*_Pf));	// should be dynamic_cast

	mov	eax, DWORD PTR __Pf$141645[ebp]
	mov	DWORD PTR $T148123[ebp], eax
	mov	DWORD PTR __$EHRec$[ebp+8], -1
	lea	ecx, DWORD PTR __Lock$141631[ebp]
	call	??1_Lockit@std@@QAE@XZ			; std::_Lockit::~_Lockit
	mov	eax, DWORD PTR $T148123[ebp]
$LN8@use_facet@3:

; 537  : 	_END_LOCK()
; 538  : 	}

	push	edx
	mov	ecx, ebp
	push	eax
	lea	edx, DWORD PTR $LN14@use_facet@3
	call	@_RTC_CheckStackVars@8
	pop	eax
	pop	edx
	mov	ecx, DWORD PTR __$EHRec$[ebp]
	mov	DWORD PTR fs:0, ecx
	pop	ecx
	pop	edi
	add	esp, 64					; 00000040H
	cmp	ebp, esp
	call	__RTC_CheckEsp
	mov	esp, ebp
	pop	ebp
	ret	0
	npad	2
$LN14@use_facet@3:
	DD	2
	DD	$LN13@use_facet@3
$LN13@use_facet@3:
	DD	-20					; ffffffecH
	DD	4
	DD	$LN10@use_facet@3
	DD	-32					; ffffffe0H
	DD	4
	DD	$LN11@use_facet@3
$LN11@use_facet@3:
	DB	95					; 0000005fH
	DB	80					; 00000050H
	DB	115					; 00000073H
	DB	97					; 00000061H
	DB	118					; 00000076H
	DB	101					; 00000065H
	DB	0
$LN10@use_facet@3:
	DB	95					; 0000005fH
	DB	76					; 0000004cH
	DB	111					; 0000006fH
	DB	99					; 00000063H
	DB	107					; 0000006bH
	DB	0
_TEXT	ENDS
;	COMDAT text$x
text$x	SEGMENT
__unwindfunclet$??$use_facet@V?$ctype@D@std@@@std@@YAABV?$ctype@D@0@ABVlocale@0@@Z$0:
	lea	ecx, DWORD PTR __Lock$141631[ebp]
	jmp	??1_Lockit@std@@QAE@XZ			; std::_Lockit::~_Lockit
__ehhandler$??$use_facet@V?$ctype@D@std@@@std@@YAABV?$ctype@D@0@ABVlocale@0@@Z:
	mov	edx, DWORD PTR [esp+8]
	lea	eax, DWORD PTR [edx+12]
	mov	ecx, DWORD PTR [edx-60]
	xor	ecx, eax
	call	@__security_check_cookie@4
	mov	eax, OFFSET __ehfuncinfo$??$use_facet@V?$ctype@D@std@@@std@@YAABV?$ctype@D@0@ABVlocale@0@@Z
	jmp	___CxxFrameHandler3
text$x	ENDS
??$use_facet@V?$ctype@D@std@@@std@@YAABV?$ctype@D@0@ABVlocale@0@@Z ENDP ; std::use_facet<std::ctype<char> >
PUBLIC	??0?$ctype@D@std@@QAE@ABV_Locinfo@1@I@Z		; std::ctype<char>::ctype<char>
PUBLIC	??_C@_0EH@OEAMKACA@c?3?2Program?5Files?5?$CIx86?$CJ?2Microsoft@ ; `string'
;	COMDAT ??_C@_0EH@OEAMKACA@c?3?2Program?5Files?5?$CIx86?$CJ?2Microsoft@
CONST	SEGMENT
??_C@_0EH@OEAMKACA@c?3?2Program?5Files?5?$CIx86?$CJ?2Microsoft@ DB 'c:\Pr'
	DB	'ogram Files (x86)\Microsoft Visual Studio 10.0\VC\include\xlo'
	DB	'cale', 00H					; `string'
CONST	ENDS
;	COMDAT xdata$x
xdata$x	SEGMENT
__unwindtable$?_Getcat@?$ctype@D@std@@SAIPAPBVfacet@locale@2@PBV42@@Z DD 0ffffffffH
	DD	FLAT:__unwindfunclet$?_Getcat@?$ctype@D@std@@SAIPAPBVfacet@locale@2@PBV42@@Z$0
	DD	00H
	DD	FLAT:__unwindfunclet$?_Getcat@?$ctype@D@std@@SAIPAPBVfacet@locale@2@PBV42@@Z$1
	DD	0ffffffffH
	DD	FLAT:__unwindfunclet$?_Getcat@?$ctype@D@std@@SAIPAPBVfacet@locale@2@PBV42@@Z$1
__ehfuncinfo$?_Getcat@?$ctype@D@std@@SAIPAPBVfacet@locale@2@PBV42@@Z DD 019930522H
	DD	03H
	DD	FLAT:__unwindtable$?_Getcat@?$ctype@D@std@@SAIPAPBVfacet@locale@2@PBV42@@Z
	DD	2 DUP(00H)
	DD	2 DUP(00H)
	DD	00H
	DD	01H
; Function compile flags: /Odtp /RTCsu
xdata$x	ENDS
;	COMDAT ?_Getcat@?$ctype@D@std@@SAIPAPBVfacet@locale@2@PBV42@@Z
_TEXT	SEGMENT
tv92 = -76						; size = 4
tv133 = -72						; size = 4
tv138 = -68						; size = 4
$T148145 = -64						; size = 4
$T148141 = -60						; size = 36
$T148140 = -24						; size = 4
$T148139 = -20						; size = 4
$T148138 = -16						; size = 4
__$EHRec$ = -12						; size = 12
__Ppf$ = 8						; size = 4
__Ploc$ = 12						; size = 4
?_Getcat@?$ctype@D@std@@SAIPAPBVfacet@locale@2@PBV42@@Z PROC ; std::ctype<char>::_Getcat, COMDAT

; 2371 : 		{	// return locale category mask and construct standard facet

	push	ebp
	mov	ebp, esp
	push	-1
	push	__ehhandler$?_Getcat@?$ctype@D@std@@SAIPAPBVfacet@locale@2@PBV42@@Z
	mov	eax, DWORD PTR fs:0
	push	eax
	sub	esp, 64					; 00000040H
	push	edi
	lea	edi, DWORD PTR [ebp-76]
	mov	ecx, 16					; 00000010H
	mov	eax, -858993460				; ccccccccH
	rep stosd
	mov	eax, DWORD PTR ___security_cookie
	xor	eax, ebp
	push	eax
	lea	eax, DWORD PTR __$EHRec$[ebp]
	mov	DWORD PTR fs:0, eax
	mov	DWORD PTR $T148145[ebp], 0

; 2372 : 		if (_Ppf != 0 && *_Ppf == 0)

	cmp	DWORD PTR __Ppf$[ebp], 0
	je	$LN1@Getcat@3
	mov	eax, DWORD PTR __Ppf$[ebp]
	cmp	DWORD PTR [eax], 0
	jne	$LN1@Getcat@3

; 2373 : 			*_Ppf = _NEW_CRT ctype<_Elem>(
; 2374 : 				_Locinfo(_Ploc->c_str()));

	call	?_DebugHeapTag_func@std@@YAABU_DebugHeapTag_t@1@XZ ; std::_DebugHeapTag_func
	mov	DWORD PTR $T148140[ebp], eax
	push	2373					; 00000945H
	push	OFFSET ??_C@_0EH@OEAMKACA@c?3?2Program?5Files?5?$CIx86?$CJ?2Microsoft@
	mov	ecx, DWORD PTR $T148140[ebp]
	push	ecx
	push	24					; 00000018H
	call	??2facet@locale@std@@SAPAXIABU_DebugHeapTag_t@2@PADH@Z ; std::locale::facet::operator new
	add	esp, 16					; 00000010H
	mov	DWORD PTR $T148139[ebp], eax
	mov	DWORD PTR __$EHRec$[ebp+8], 0
	cmp	DWORD PTR $T148139[ebp], 0
	je	SHORT $LN4@Getcat@3
	push	0
	mov	ecx, DWORD PTR __Ploc$[ebp]
	call	?c_str@locale@std@@QBEPBDXZ		; std::locale::c_str
	push	eax
	lea	ecx, DWORD PTR $T148141[ebp]
	call	??0_Locinfo@std@@QAE@PBD@Z		; std::_Locinfo::_Locinfo
	mov	DWORD PTR tv138[ebp], eax
	mov	edx, DWORD PTR tv138[ebp]
	mov	DWORD PTR tv133[ebp], edx
	mov	BYTE PTR __$EHRec$[ebp+8], 1
	mov	eax, DWORD PTR $T148145[ebp]
	or	eax, 1
	mov	DWORD PTR $T148145[ebp], eax
	mov	ecx, DWORD PTR tv133[ebp]
	push	ecx
	mov	ecx, DWORD PTR $T148139[ebp]
	call	??0?$ctype@D@std@@QAE@ABV_Locinfo@1@I@Z	; std::ctype<char>::ctype<char>
	mov	DWORD PTR tv92[ebp], eax
	jmp	SHORT $LN5@Getcat@3
$LN4@Getcat@3:
	mov	DWORD PTR tv92[ebp], 0
$LN5@Getcat@3:
	mov	edx, DWORD PTR tv92[ebp]
	mov	DWORD PTR $T148138[ebp], edx
	mov	DWORD PTR __$EHRec$[ebp+8], 2
	mov	eax, DWORD PTR __Ppf$[ebp]
	mov	ecx, DWORD PTR $T148138[ebp]
	mov	DWORD PTR [eax], ecx
	mov	DWORD PTR __$EHRec$[ebp+8], -1
	mov	edx, DWORD PTR $T148145[ebp]
	and	edx, 1
	je	SHORT $LN1@Getcat@3
	and	DWORD PTR $T148145[ebp], -2		; fffffffeH
	lea	ecx, DWORD PTR $T148141[ebp]
	call	??1_Locinfo@std@@QAE@XZ			; std::_Locinfo::~_Locinfo
$LN1@Getcat@3:

; 2375 : 		return (_X_CTYPE);

	mov	eax, 2

; 2376 : 		}

	mov	ecx, DWORD PTR __$EHRec$[ebp]
	mov	DWORD PTR fs:0, ecx
	pop	ecx
	pop	edi
	add	esp, 76					; 0000004cH
	cmp	ebp, esp
	call	__RTC_CheckEsp
	mov	esp, ebp
	pop	ebp
	ret	0
_TEXT	ENDS
;	COMDAT text$x
text$x	SEGMENT
__unwindfunclet$?_Getcat@?$ctype@D@std@@SAIPAPBVfacet@locale@2@PBV42@@Z$0:
	push	2373					; 00000945H
	push	OFFSET ??_C@_0EH@OEAMKACA@c?3?2Program?5Files?5?$CIx86?$CJ?2Microsoft@
	mov	eax, DWORD PTR $T148140[ebp]
	push	eax
	mov	ecx, DWORD PTR $T148139[ebp]
	push	ecx
	call	??3facet@locale@std@@SAXPAXABU_DebugHeapTag_t@2@PADH@Z ; std::locale::facet::operator delete
	add	esp, 16					; 00000010H
	ret	0
__unwindfunclet$?_Getcat@?$ctype@D@std@@SAIPAPBVfacet@locale@2@PBV42@@Z$1:
	mov	eax, DWORD PTR $T148145[ebp]
	and	eax, 1
	je	$LN8@Getcat@3
	and	DWORD PTR $T148145[ebp], -2		; fffffffeH
	lea	ecx, DWORD PTR $T148141[ebp]
	jmp	??1_Locinfo@std@@QAE@XZ			; std::_Locinfo::~_Locinfo
$LN8@Getcat@3:
	ret	0
__ehhandler$?_Getcat@?$ctype@D@std@@SAIPAPBVfacet@locale@2@PBV42@@Z:
	mov	edx, DWORD PTR [esp+8]
	lea	eax, DWORD PTR [edx+12]
	mov	ecx, DWORD PTR [edx-72]
	xor	ecx, eax
	call	@__security_check_cookie@4
	mov	eax, OFFSET __ehfuncinfo$?_Getcat@?$ctype@D@std@@SAIPAPBVfacet@locale@2@PBV42@@Z
	jmp	___CxxFrameHandler3
text$x	ENDS
?_Getcat@?$ctype@D@std@@SAIPAPBVfacet@locale@2@PBV42@@Z ENDP ; std::ctype<char>::_Getcat
PUBLIC	??1ctype_base@std@@UAE@XZ			; std::ctype_base::~ctype_base
PUBLIC	?_Init@?$ctype@D@std@@IAEXABV_Locinfo@2@@Z	; std::ctype<char>::_Init
PUBLIC	??_7?$ctype@D@std@@6B@				; std::ctype<char>::`vftable'
PUBLIC	??0ctype_base@std@@QAE@I@Z			; std::ctype_base::ctype_base
PUBLIC	??_R4?$ctype@D@std@@6B@				; std::ctype<char>::`RTTI Complete Object Locator'
PUBLIC	??_R0?AV?$ctype@D@std@@@8			; std::ctype<char> `RTTI Type Descriptor'
PUBLIC	??_R3?$ctype@D@std@@8				; std::ctype<char>::`RTTI Class Hierarchy Descriptor'
PUBLIC	??_R2?$ctype@D@std@@8				; std::ctype<char>::`RTTI Base Class Array'
PUBLIC	??_R1A@?0A@EA@?$ctype@D@std@@8			; std::ctype<char>::`RTTI Base Class Descriptor at (0,-1,0,64)'
PUBLIC	??_R1A@?0A@EA@ctype_base@std@@8			; std::ctype_base::`RTTI Base Class Descriptor at (0,-1,0,64)'
PUBLIC	??_R0?AUctype_base@std@@@8			; std::ctype_base `RTTI Type Descriptor'
PUBLIC	??_R3ctype_base@std@@8				; std::ctype_base::`RTTI Class Hierarchy Descriptor'
PUBLIC	??_R2ctype_base@std@@8				; std::ctype_base::`RTTI Base Class Array'
PUBLIC	?do_tolower@?$ctype@D@std@@MBEPBDPADPBD@Z	; std::ctype<char>::do_tolower
PUBLIC	?do_tolower@?$ctype@D@std@@MBEDD@Z		; std::ctype<char>::do_tolower
PUBLIC	?do_toupper@?$ctype@D@std@@MBEPBDPADPBD@Z	; std::ctype<char>::do_toupper
PUBLIC	?do_toupper@?$ctype@D@std@@MBEDD@Z		; std::ctype<char>::do_toupper
PUBLIC	?do_widen@?$ctype@D@std@@MBEPBDPBD0PAD@Z	; std::ctype<char>::do_widen
PUBLIC	?do_widen@?$ctype@D@std@@MBEDD@Z		; std::ctype<char>::do_widen
PUBLIC	?do_narrow@?$ctype@D@std@@MBEPBDPBD0DPAD@Z	; std::ctype<char>::do_narrow
PUBLIC	?do_narrow@?$ctype@D@std@@MBEDDD@Z		; std::ctype<char>::do_narrow
EXTRN	??_E?$ctype@D@std@@MAEPAXI@Z:PROC		; std::ctype<char>::`vector deleting destructor'
;	COMDAT ??_R2ctype_base@std@@8
rdata$r	SEGMENT
??_R2ctype_base@std@@8 DD FLAT:??_R1A@?0A@EA@ctype_base@std@@8 ; std::ctype_base::`RTTI Base Class Array'
	DD	FLAT:??_R1A@?0A@EA@facet@locale@std@@8
rdata$r	ENDS
;	COMDAT ??_R3ctype_base@std@@8
rdata$r	SEGMENT
??_R3ctype_base@std@@8 DD 00H				; std::ctype_base::`RTTI Class Hierarchy Descriptor'
	DD	00H
	DD	02H
	DD	FLAT:??_R2ctype_base@std@@8
rdata$r	ENDS
;	COMDAT ??_R0?AUctype_base@std@@@8
_DATA	SEGMENT
??_R0?AUctype_base@std@@@8 DD FLAT:??_7type_info@@6B@	; std::ctype_base `RTTI Type Descriptor'
	DD	00H
	DB	'.?AUctype_base@std@@', 00H
_DATA	ENDS
;	COMDAT ??_R1A@?0A@EA@ctype_base@std@@8
rdata$r	SEGMENT
??_R1A@?0A@EA@ctype_base@std@@8 DD FLAT:??_R0?AUctype_base@std@@@8 ; std::ctype_base::`RTTI Base Class Descriptor at (0,-1,0,64)'
	DD	01H
	DD	00H
	DD	0ffffffffH
	DD	00H
	DD	040H
	DD	FLAT:??_R3ctype_base@std@@8
rdata$r	ENDS
;	COMDAT ??_R1A@?0A@EA@?$ctype@D@std@@8
rdata$r	SEGMENT
??_R1A@?0A@EA@?$ctype@D@std@@8 DD FLAT:??_R0?AV?$ctype@D@std@@@8 ; std::ctype<char>::`RTTI Base Class Descriptor at (0,-1,0,64)'
	DD	02H
	DD	00H
	DD	0ffffffffH
	DD	00H
	DD	040H
	DD	FLAT:??_R3?$ctype@D@std@@8
rdata$r	ENDS
;	COMDAT ??_R2?$ctype@D@std@@8
rdata$r	SEGMENT
??_R2?$ctype@D@std@@8 DD FLAT:??_R1A@?0A@EA@?$ctype@D@std@@8 ; std::ctype<char>::`RTTI Base Class Array'
	DD	FLAT:??_R1A@?0A@EA@ctype_base@std@@8
	DD	FLAT:??_R1A@?0A@EA@facet@locale@std@@8
rdata$r	ENDS
;	COMDAT ??_R3?$ctype@D@std@@8
rdata$r	SEGMENT
??_R3?$ctype@D@std@@8 DD 00H				; std::ctype<char>::`RTTI Class Hierarchy Descriptor'
	DD	00H
	DD	03H
	DD	FLAT:??_R2?$ctype@D@std@@8
rdata$r	ENDS
;	COMDAT ??_R0?AV?$ctype@D@std@@@8
_DATA	SEGMENT
??_R0?AV?$ctype@D@std@@@8 DD FLAT:??_7type_info@@6B@	; std::ctype<char> `RTTI Type Descriptor'
	DD	00H
	DB	'.?AV?$ctype@D@std@@', 00H
_DATA	ENDS
;	COMDAT ??_R4?$ctype@D@std@@6B@
rdata$r	SEGMENT
??_R4?$ctype@D@std@@6B@ DD 00H				; std::ctype<char>::`RTTI Complete Object Locator'
	DD	00H
	DD	00H
	DD	FLAT:??_R0?AV?$ctype@D@std@@@8
	DD	FLAT:??_R3?$ctype@D@std@@8
rdata$r	ENDS
;	COMDAT ??_7?$ctype@D@std@@6B@
CONST	SEGMENT
??_7?$ctype@D@std@@6B@ DD FLAT:??_R4?$ctype@D@std@@6B@	; std::ctype<char>::`vftable'
	DD	FLAT:??_E?$ctype@D@std@@MAEPAXI@Z
	DD	FLAT:?do_tolower@?$ctype@D@std@@MBEPBDPADPBD@Z
	DD	FLAT:?do_tolower@?$ctype@D@std@@MBEDD@Z
	DD	FLAT:?do_toupper@?$ctype@D@std@@MBEPBDPADPBD@Z
	DD	FLAT:?do_toupper@?$ctype@D@std@@MBEDD@Z
	DD	FLAT:?do_widen@?$ctype@D@std@@MBEPBDPBD0PAD@Z
	DD	FLAT:?do_widen@?$ctype@D@std@@MBEDD@Z
	DD	FLAT:?do_narrow@?$ctype@D@std@@MBEPBDPBD0DPAD@Z
	DD	FLAT:?do_narrow@?$ctype@D@std@@MBEDDD@Z
CONST	ENDS
;	COMDAT xdata$x
xdata$x	SEGMENT
__unwindtable$??0?$ctype@D@std@@QAE@ABV_Locinfo@1@I@Z DD 0ffffffffH
	DD	FLAT:__unwindfunclet$??0?$ctype@D@std@@QAE@ABV_Locinfo@1@I@Z$0
__ehfuncinfo$??0?$ctype@D@std@@QAE@ABV_Locinfo@1@I@Z DD 019930522H
	DD	01H
	DD	FLAT:__unwindtable$??0?$ctype@D@std@@QAE@ABV_Locinfo@1@I@Z
	DD	2 DUP(00H)
	DD	2 DUP(00H)
	DD	00H
	DD	01H
; Function compile flags: /Odtp /RTCsu
xdata$x	ENDS
;	COMDAT ??0?$ctype@D@std@@QAE@ABV_Locinfo@1@I@Z
_TEXT	SEGMENT
_this$ = -16						; size = 4
__$EHRec$ = -12						; size = 12
__Lobj$ = 8						; size = 4
__Refs$ = 12						; size = 4
??0?$ctype@D@std@@QAE@ABV_Locinfo@1@I@Z PROC		; std::ctype<char>::ctype<char>, COMDAT
; _this$ = ecx

; 2365 : 		{	// construct from current locale

	push	ebp
	mov	ebp, esp
	push	-1
	push	__ehhandler$??0?$ctype@D@std@@QAE@ABV_Locinfo@1@I@Z
	mov	eax, DWORD PTR fs:0
	push	eax
	push	ecx
	mov	DWORD PTR [ebp-16], -858993460		; ccccccccH
	mov	eax, DWORD PTR ___security_cookie
	xor	eax, ebp
	push	eax
	lea	eax, DWORD PTR __$EHRec$[ebp]
	mov	DWORD PTR fs:0, eax
	mov	DWORD PTR _this$[ebp], ecx
	mov	eax, DWORD PTR __Refs$[ebp]
	push	eax
	mov	ecx, DWORD PTR _this$[ebp]
	call	??0ctype_base@std@@QAE@I@Z		; std::ctype_base::ctype_base
	mov	DWORD PTR __$EHRec$[ebp+8], 0
	mov	ecx, DWORD PTR _this$[ebp]
	mov	DWORD PTR [ecx], OFFSET ??_7?$ctype@D@std@@6B@

; 2366 : 		_Init(_Lobj);

	mov	edx, DWORD PTR __Lobj$[ebp]
	push	edx
	mov	ecx, DWORD PTR _this$[ebp]
	call	?_Init@?$ctype@D@std@@IAEXABV_Locinfo@2@@Z ; std::ctype<char>::_Init

; 2367 : 		}

	mov	DWORD PTR __$EHRec$[ebp+8], -1
	mov	eax, DWORD PTR _this$[ebp]
	mov	ecx, DWORD PTR __$EHRec$[ebp]
	mov	DWORD PTR fs:0, ecx
	pop	ecx
	add	esp, 16					; 00000010H
	cmp	ebp, esp
	call	__RTC_CheckEsp
	mov	esp, ebp
	pop	ebp
	ret	8
_TEXT	ENDS
;	COMDAT text$x
text$x	SEGMENT
__unwindfunclet$??0?$ctype@D@std@@QAE@ABV_Locinfo@1@I@Z$0:
	mov	ecx, DWORD PTR _this$[ebp]
	jmp	??1ctype_base@std@@UAE@XZ		; std::ctype_base::~ctype_base
__ehhandler$??0?$ctype@D@std@@QAE@ABV_Locinfo@1@I@Z:
	mov	edx, DWORD PTR [esp+8]
	lea	eax, DWORD PTR [edx+12]
	mov	ecx, DWORD PTR [edx-8]
	xor	ecx, eax
	call	@__security_check_cookie@4
	mov	eax, OFFSET __ehfuncinfo$??0?$ctype@D@std@@QAE@ABV_Locinfo@1@I@Z
	jmp	___CxxFrameHandler3
text$x	ENDS
??0?$ctype@D@std@@QAE@ABV_Locinfo@1@I@Z ENDP		; std::ctype<char>::ctype<char>
PUBLIC	??_7ctype_base@std@@6B@				; std::ctype_base::`vftable'
PUBLIC	??_R4ctype_base@std@@6B@			; std::ctype_base::`RTTI Complete Object Locator'
EXTRN	??_Ectype_base@std@@UAEPAXI@Z:PROC		; std::ctype_base::`vector deleting destructor'
;	COMDAT ??_R4ctype_base@std@@6B@
rdata$r	SEGMENT
??_R4ctype_base@std@@6B@ DD 00H				; std::ctype_base::`RTTI Complete Object Locator'
	DD	00H
	DD	00H
	DD	FLAT:??_R0?AUctype_base@std@@@8
	DD	FLAT:??_R3ctype_base@std@@8
rdata$r	ENDS
;	COMDAT ??_7ctype_base@std@@6B@
CONST	SEGMENT
??_7ctype_base@std@@6B@ DD FLAT:??_R4ctype_base@std@@6B@ ; std::ctype_base::`vftable'
	DD	FLAT:??_Ectype_base@std@@UAEPAXI@Z
; Function compile flags: /Odtp /RTCsu
CONST	ENDS
;	COMDAT ??0ctype_base@std@@QAE@I@Z
_TEXT	SEGMENT
_this$ = -4						; size = 4
__Refs$ = 8						; size = 4
??0ctype_base@std@@QAE@I@Z PROC				; std::ctype_base::ctype_base, COMDAT
; _this$ = ecx

; 2011 : 		{	// default constructor

	push	ebp
	mov	ebp, esp
	push	ecx
	mov	DWORD PTR [ebp-4], -858993460		; ccccccccH
	mov	DWORD PTR _this$[ebp], ecx
	mov	eax, DWORD PTR __Refs$[ebp]
	push	eax
	mov	ecx, DWORD PTR _this$[ebp]
	call	??0facet@locale@std@@IAE@I@Z		; std::locale::facet::facet
	mov	ecx, DWORD PTR _this$[ebp]
	mov	DWORD PTR [ecx], OFFSET ??_7ctype_base@std@@6B@

; 2012 : 		}

	mov	eax, DWORD PTR _this$[ebp]
	add	esp, 4
	cmp	ebp, esp
	call	__RTC_CheckEsp
	mov	esp, ebp
	pop	ebp
	ret	4
??0ctype_base@std@@QAE@I@Z ENDP				; std::ctype_base::ctype_base
; Function compile flags: /Odtp /RTCsu
_TEXT	ENDS
;	COMDAT ??1ctype_base@std@@UAE@XZ
_TEXT	SEGMENT
_this$ = -4						; size = 4
??1ctype_base@std@@UAE@XZ PROC				; std::ctype_base::~ctype_base, COMDAT
; _this$ = ecx

; 2015 : 		{	// destroy the object

	push	ebp
	mov	ebp, esp
	push	ecx
	mov	DWORD PTR [ebp-4], -858993460		; ccccccccH
	mov	DWORD PTR _this$[ebp], ecx
	mov	eax, DWORD PTR _this$[ebp]
	mov	DWORD PTR [eax], OFFSET ??_7ctype_base@std@@6B@

; 2016 : 		}

	mov	ecx, DWORD PTR _this$[ebp]
	call	??1facet@locale@std@@UAE@XZ		; std::locale::facet::~facet
	add	esp, 4
	cmp	ebp, esp
	call	__RTC_CheckEsp
	mov	esp, ebp
	pop	ebp
	ret	0
??1ctype_base@std@@UAE@XZ ENDP				; std::ctype_base::~ctype_base
; Function compile flags: /Odtp /RTCsu
_TEXT	ENDS
;	COMDAT ??_Gctype_base@std@@UAEPAXI@Z
_TEXT	SEGMENT
_this$ = -4						; size = 4
___flags$ = 8						; size = 4
??_Gctype_base@std@@UAEPAXI@Z PROC			; std::ctype_base::`scalar deleting destructor', COMDAT
; _this$ = ecx
	push	ebp
	mov	ebp, esp
	push	ecx
	mov	DWORD PTR [ebp-4], -858993460		; ccccccccH
	mov	DWORD PTR _this$[ebp], ecx
	mov	ecx, DWORD PTR _this$[ebp]
	call	??1ctype_base@std@@UAE@XZ		; std::ctype_base::~ctype_base
	mov	eax, DWORD PTR ___flags$[ebp]
	and	eax, 1
	je	SHORT $LN1@scalar@15
	mov	ecx, DWORD PTR _this$[ebp]
	push	ecx
	call	??3facet@locale@std@@SAXPAX@Z		; std::locale::facet::operator delete
	add	esp, 4
$LN1@scalar@15:
	mov	eax, DWORD PTR _this$[ebp]
	add	esp, 4
	cmp	ebp, esp
	call	__RTC_CheckEsp
	mov	esp, ebp
	pop	ebp
	ret	4
??_Gctype_base@std@@UAEPAXI@Z ENDP			; std::ctype_base::`scalar deleting destructor'
_TEXT	ENDS
PUBLIC	?_Getctype@_Locinfo@std@@QBE?AU_Ctypevec@@XZ	; std::_Locinfo::_Getctype
; Function compile flags: /Odtp /RTCsu
;	COMDAT ?_Init@?$ctype@D@std@@IAEXABV_Locinfo@2@@Z
_TEXT	SEGMENT
$T148174 = -20						; size = 16
_this$ = -4						; size = 4
__Lobj$ = 8						; size = 4
?_Init@?$ctype@D@std@@IAEXABV_Locinfo@2@@Z PROC		; std::ctype<char>::_Init, COMDAT
; _this$ = ecx

; 2399 : 		{	// initialize from _Lobj

	push	ebp
	mov	ebp, esp
	sub	esp, 20					; 00000014H
	mov	eax, -858993460				; ccccccccH
	mov	DWORD PTR [ebp-20], eax
	mov	DWORD PTR [ebp-16], eax
	mov	DWORD PTR [ebp-12], eax
	mov	DWORD PTR [ebp-8], eax
	mov	DWORD PTR [ebp-4], eax
	mov	DWORD PTR _this$[ebp], ecx

; 2400 : 		_Ctype = _Lobj._Getctype();

	lea	eax, DWORD PTR $T148174[ebp]
	push	eax
	mov	ecx, DWORD PTR __Lobj$[ebp]
	call	?_Getctype@_Locinfo@std@@QBE?AU_Ctypevec@@XZ ; std::_Locinfo::_Getctype
	mov	ecx, DWORD PTR _this$[ebp]
	add	ecx, 8
	mov	edx, DWORD PTR [eax]
	mov	DWORD PTR [ecx], edx
	mov	edx, DWORD PTR [eax+4]
	mov	DWORD PTR [ecx+4], edx
	mov	edx, DWORD PTR [eax+8]
	mov	DWORD PTR [ecx+8], edx
	mov	eax, DWORD PTR [eax+12]
	mov	DWORD PTR [ecx+12], eax

; 2401 : 		}

	add	esp, 20					; 00000014H
	cmp	ebp, esp
	call	__RTC_CheckEsp
	mov	esp, ebp
	pop	ebp
	ret	4
?_Init@?$ctype@D@std@@IAEXABV_Locinfo@2@@Z ENDP		; std::ctype<char>::_Init
_TEXT	ENDS
EXTRN	__Getctype:PROC
; Function compile flags: /Odtp /RTCsu
; File c:\program files (x86)\microsoft visual studio 10.0\vc\include\xlocinfo
;	COMDAT ?_Getctype@_Locinfo@std@@QBE?AU_Ctypevec@@XZ
_TEXT	SEGMENT
$T148178 = -36						; size = 16
$T148177 = -20						; size = 16
_this$ = -4						; size = 4
___$ReturnUdt$ = 8					; size = 4
?_Getctype@_Locinfo@std@@QBE?AU_Ctypevec@@XZ PROC	; std::_Locinfo::_Getctype, COMDAT
; _this$ = ecx

; 117  : 		{	// return ctype stuff

	push	ebp
	mov	ebp, esp
	sub	esp, 36					; 00000024H
	mov	eax, -858993460				; ccccccccH
	mov	DWORD PTR [ebp-36], eax
	mov	DWORD PTR [ebp-32], eax
	mov	DWORD PTR [ebp-28], eax
	mov	DWORD PTR [ebp-24], eax
	mov	DWORD PTR [ebp-20], eax
	mov	DWORD PTR [ebp-16], eax
	mov	DWORD PTR [ebp-12], eax
	mov	DWORD PTR [ebp-8], eax
	mov	DWORD PTR [ebp-4], eax
	mov	DWORD PTR _this$[ebp], ecx

; 118  : 		return (::_Getctype());

	lea	eax, DWORD PTR $T148178[ebp]
	push	eax
	call	__Getctype
	add	esp, 4
	mov	ecx, DWORD PTR [eax]
	mov	DWORD PTR $T148177[ebp], ecx
	mov	edx, DWORD PTR [eax+4]
	mov	DWORD PTR $T148177[ebp+4], edx
	mov	ecx, DWORD PTR [eax+8]
	mov	DWORD PTR $T148177[ebp+8], ecx
	mov	edx, DWORD PTR [eax+12]
	mov	DWORD PTR $T148177[ebp+12], edx
	mov	eax, DWORD PTR ___$ReturnUdt$[ebp]
	mov	ecx, DWORD PTR $T148177[ebp]
	mov	DWORD PTR [eax], ecx
	mov	edx, DWORD PTR $T148177[ebp+4]
	mov	DWORD PTR [eax+4], edx
	mov	ecx, DWORD PTR $T148177[ebp+8]
	mov	DWORD PTR [eax+8], ecx
	mov	edx, DWORD PTR $T148177[ebp+12]
	mov	DWORD PTR [eax+12], edx
	mov	eax, DWORD PTR ___$ReturnUdt$[ebp]

; 119  : 		}

	add	esp, 36					; 00000024H
	cmp	ebp, esp
	call	__RTC_CheckEsp
	mov	esp, ebp
	pop	ebp
	ret	4
?_Getctype@_Locinfo@std@@QBE?AU_Ctypevec@@XZ ENDP	; std::_Locinfo::_Getctype
_TEXT	ENDS
EXTRN	__Tolower:PROC
; Function compile flags: /Odtp /RTCsu
; File c:\program files (x86)\microsoft visual studio 10.0\vc\include\xlocale
;	COMDAT ?do_tolower@?$ctype@D@std@@MBEDD@Z
_TEXT	SEGMENT
_this$ = -4						; size = 4
__Ch$ = 8						; size = 1
?do_tolower@?$ctype@D@std@@MBEDD@Z PROC			; std::ctype<char>::do_tolower, COMDAT
; _this$ = ecx

; 2412 : 		{	// convert element to lower case

	push	ebp
	mov	ebp, esp
	push	ecx
	mov	DWORD PTR [ebp-4], -858993460		; ccccccccH
	mov	DWORD PTR _this$[ebp], ecx

; 2413 : 		return ((_Elem)_Tolower((unsigned char)_Ch, &_Ctype));

	mov	eax, DWORD PTR _this$[ebp]
	add	eax, 8
	push	eax
	movzx	ecx, BYTE PTR __Ch$[ebp]
	push	ecx
	call	__Tolower
	add	esp, 8

; 2414 : 		}

	add	esp, 4
	cmp	ebp, esp
	call	__RTC_CheckEsp
	mov	esp, ebp
	pop	ebp
	ret	4
?do_tolower@?$ctype@D@std@@MBEDD@Z ENDP			; std::ctype<char>::do_tolower
_TEXT	ENDS
PUBLIC	??$_Debug_range@PBD@std@@YAXPBD0PB_WI@Z		; std::_Debug_range<char const *>
PUBLIC	??_C@_1IO@OICMNCNA@?$AAc?$AA?3?$AA?2?$AAP?$AAr?$AAo?$AAg?$AAr?$AAa?$AAm?$AA?5?$AAF?$AAi?$AAl?$AAe?$AAs?$AA?5?$AA?$CI?$AAx?$AA8?$AA6?$AA?$CJ?$AA?2?$AAM?$AAi?$AAc?$AAr?$AAo?$AAs?$AAo?$AAf?$AAt@ ; `string'
;	COMDAT ??_C@_1IO@OICMNCNA@?$AAc?$AA?3?$AA?2?$AAP?$AAr?$AAo?$AAg?$AAr?$AAa?$AAm?$AA?5?$AAF?$AAi?$AAl?$AAe?$AAs?$AA?5?$AA?$CI?$AAx?$AA8?$AA6?$AA?$CJ?$AA?2?$AAM?$AAi?$AAc?$AAr?$AAo?$AAs?$AAo?$AAf?$AAt@
CONST	SEGMENT
??_C@_1IO@OICMNCNA@?$AAc?$AA?3?$AA?2?$AAP?$AAr?$AAo?$AAg?$AAr?$AAa?$AAm?$AA?5?$AAF?$AAi?$AAl?$AAe?$AAs?$AA?5?$AA?$CI?$AAx?$AA8?$AA6?$AA?$CJ?$AA?2?$AAM?$AAi?$AAc?$AAr?$AAo?$AAs?$AAo?$AAf?$AAt@ DB 'c'
	DB	00H, ':', 00H, '\', 00H, 'P', 00H, 'r', 00H, 'o', 00H, 'g', 00H
	DB	'r', 00H, 'a', 00H, 'm', 00H, ' ', 00H, 'F', 00H, 'i', 00H, 'l'
	DB	00H, 'e', 00H, 's', 00H, ' ', 00H, '(', 00H, 'x', 00H, '8', 00H
	DB	'6', 00H, ')', 00H, '\', 00H, 'M', 00H, 'i', 00H, 'c', 00H, 'r'
	DB	00H, 'o', 00H, 's', 00H, 'o', 00H, 'f', 00H, 't', 00H, ' ', 00H
	DB	'V', 00H, 'i', 00H, 's', 00H, 'u', 00H, 'a', 00H, 'l', 00H, ' '
	DB	00H, 'S', 00H, 't', 00H, 'u', 00H, 'd', 00H, 'i', 00H, 'o', 00H
	DB	' ', 00H, '1', 00H, '0', 00H, '.', 00H, '0', 00H, '\', 00H, 'V'
	DB	00H, 'C', 00H, '\', 00H, 'i', 00H, 'n', 00H, 'c', 00H, 'l', 00H
	DB	'u', 00H, 'd', 00H, 'e', 00H, '\', 00H, 'x', 00H, 'l', 00H, 'o'
	DB	00H, 'c', 00H, 'a', 00H, 'l', 00H, 'e', 00H, 00H, 00H ; `string'
; Function compile flags: /Odtp /RTCsu
CONST	ENDS
;	COMDAT ?do_tolower@?$ctype@D@std@@MBEPBDPADPBD@Z
_TEXT	SEGMENT
_this$ = -4						; size = 4
__First$ = 8						; size = 4
__Last$ = 12						; size = 4
?do_tolower@?$ctype@D@std@@MBEPBDPADPBD@Z PROC		; std::ctype<char>::do_tolower, COMDAT
; _this$ = ecx

; 2418 : 		{	// convert [_First, _Last) in place to lower case

	push	ebp
	mov	ebp, esp
	push	ecx
	mov	DWORD PTR [ebp-4], -858993460		; ccccccccH
	mov	DWORD PTR _this$[ebp], ecx

; 2419 : 		_DEBUG_RANGE((const _Elem *)_First, _Last);

	push	2419					; 00000973H
	push	OFFSET ??_C@_1IO@OICMNCNA@?$AAc?$AA?3?$AA?2?$AAP?$AAr?$AAo?$AAg?$AAr?$AAa?$AAm?$AA?5?$AAF?$AAi?$AAl?$AAe?$AAs?$AA?5?$AA?$CI?$AAx?$AA8?$AA6?$AA?$CJ?$AA?2?$AAM?$AAi?$AAc?$AAr?$AAo?$AAs?$AAo?$AAf?$AAt@
	mov	eax, DWORD PTR __Last$[ebp]
	push	eax
	mov	ecx, DWORD PTR __First$[ebp]
	push	ecx
	call	??$_Debug_range@PBD@std@@YAXPBD0PB_WI@Z	; std::_Debug_range<char const *>
	add	esp, 16					; 00000010H

; 2420 : 		for (; _First != _Last; ++_First)

	jmp	SHORT $LN3@do_tolower
$LN2@do_tolower:
	mov	edx, DWORD PTR __First$[ebp]
	add	edx, 1
	mov	DWORD PTR __First$[ebp], edx
$LN3@do_tolower:
	mov	eax, DWORD PTR __First$[ebp]
	cmp	eax, DWORD PTR __Last$[ebp]
	je	SHORT $LN1@do_tolower

; 2421 : 			*_First = (_Elem)_Tolower((unsigned char)*_First, &_Ctype);

	mov	ecx, DWORD PTR _this$[ebp]
	add	ecx, 8
	push	ecx
	mov	edx, DWORD PTR __First$[ebp]
	movzx	eax, BYTE PTR [edx]
	push	eax
	call	__Tolower
	add	esp, 8
	mov	ecx, DWORD PTR __First$[ebp]
	mov	BYTE PTR [ecx], al
	jmp	SHORT $LN2@do_tolower
$LN1@do_tolower:

; 2422 : 		return ((const _Elem *)_First);

	mov	eax, DWORD PTR __First$[ebp]

; 2423 : 		}

	add	esp, 4
	cmp	ebp, esp
	call	__RTC_CheckEsp
	mov	esp, ebp
	pop	ebp
	ret	8
?do_tolower@?$ctype@D@std@@MBEPBDPADPBD@Z ENDP		; std::ctype<char>::do_tolower
_TEXT	ENDS
EXTRN	__Toupper:PROC
; Function compile flags: /Odtp /RTCsu
;	COMDAT ?do_toupper@?$ctype@D@std@@MBEDD@Z
_TEXT	SEGMENT
_this$ = -4						; size = 4
__Ch$ = 8						; size = 1
?do_toupper@?$ctype@D@std@@MBEDD@Z PROC			; std::ctype<char>::do_toupper, COMDAT
; _this$ = ecx

; 2426 : 		{	// convert element to upper case

	push	ebp
	mov	ebp, esp
	push	ecx
	mov	DWORD PTR [ebp-4], -858993460		; ccccccccH
	mov	DWORD PTR _this$[ebp], ecx

; 2427 : 		return ((_Elem)_Toupper((unsigned char)_Ch, &_Ctype));

	mov	eax, DWORD PTR _this$[ebp]
	add	eax, 8
	push	eax
	movzx	ecx, BYTE PTR __Ch$[ebp]
	push	ecx
	call	__Toupper
	add	esp, 8

; 2428 : 		}

	add	esp, 4
	cmp	ebp, esp
	call	__RTC_CheckEsp
	mov	esp, ebp
	pop	ebp
	ret	4
?do_toupper@?$ctype@D@std@@MBEDD@Z ENDP			; std::ctype<char>::do_toupper
; Function compile flags: /Odtp /RTCsu
_TEXT	ENDS
;	COMDAT ?do_toupper@?$ctype@D@std@@MBEPBDPADPBD@Z
_TEXT	SEGMENT
_this$ = -4						; size = 4
__First$ = 8						; size = 4
__Last$ = 12						; size = 4
?do_toupper@?$ctype@D@std@@MBEPBDPADPBD@Z PROC		; std::ctype<char>::do_toupper, COMDAT
; _this$ = ecx

; 2432 : 		{	// convert [_First, _Last) in place to upper case

	push	ebp
	mov	ebp, esp
	push	ecx
	mov	DWORD PTR [ebp-4], -858993460		; ccccccccH
	mov	DWORD PTR _this$[ebp], ecx

; 2433 : 		_DEBUG_RANGE((const _Elem *)_First, _Last);

	push	2433					; 00000981H
	push	OFFSET ??_C@_1IO@OICMNCNA@?$AAc?$AA?3?$AA?2?$AAP?$AAr?$AAo?$AAg?$AAr?$AAa?$AAm?$AA?5?$AAF?$AAi?$AAl?$AAe?$AAs?$AA?5?$AA?$CI?$AAx?$AA8?$AA6?$AA?$CJ?$AA?2?$AAM?$AAi?$AAc?$AAr?$AAo?$AAs?$AAo?$AAf?$AAt@
	mov	eax, DWORD PTR __Last$[ebp]
	push	eax
	mov	ecx, DWORD PTR __First$[ebp]
	push	ecx
	call	??$_Debug_range@PBD@std@@YAXPBD0PB_WI@Z	; std::_Debug_range<char const *>
	add	esp, 16					; 00000010H

; 2434 : 		for (; _First != _Last; ++_First)

	jmp	SHORT $LN3@do_toupper
$LN2@do_toupper:
	mov	edx, DWORD PTR __First$[ebp]
	add	edx, 1
	mov	DWORD PTR __First$[ebp], edx
$LN3@do_toupper:
	mov	eax, DWORD PTR __First$[ebp]
	cmp	eax, DWORD PTR __Last$[ebp]
	je	SHORT $LN1@do_toupper

; 2435 : 			*_First = (_Elem)_Toupper((unsigned char)*_First, &_Ctype);

	mov	ecx, DWORD PTR _this$[ebp]
	add	ecx, 8
	push	ecx
	mov	edx, DWORD PTR __First$[ebp]
	movzx	eax, BYTE PTR [edx]
	push	eax
	call	__Toupper
	add	esp, 8
	mov	ecx, DWORD PTR __First$[ebp]
	mov	BYTE PTR [ecx], al
	jmp	SHORT $LN2@do_toupper
$LN1@do_toupper:

; 2436 : 		return ((const _Elem *)_First);

	mov	eax, DWORD PTR __First$[ebp]

; 2437 : 		}

	add	esp, 4
	cmp	ebp, esp
	call	__RTC_CheckEsp
	mov	esp, ebp
	pop	ebp
	ret	8
?do_toupper@?$ctype@D@std@@MBEPBDPADPBD@Z ENDP		; std::ctype<char>::do_toupper
; Function compile flags: /Odtp /RTCsu
_TEXT	ENDS
;	COMDAT ?do_widen@?$ctype@D@std@@MBEDD@Z
_TEXT	SEGMENT
_this$ = -4						; size = 4
__Byte$ = 8						; size = 1
?do_widen@?$ctype@D@std@@MBEDD@Z PROC			; std::ctype<char>::do_widen, COMDAT
; _this$ = ecx

; 2440 : 		{	// widen char

	push	ebp
	mov	ebp, esp
	push	ecx
	mov	DWORD PTR [ebp-4], -858993460		; ccccccccH
	mov	DWORD PTR _this$[ebp], ecx

; 2441 : 		return (_Byte);

	mov	al, BYTE PTR __Byte$[ebp]

; 2442 : 		}

	mov	esp, ebp
	pop	ebp
	ret	4
?do_widen@?$ctype@D@std@@MBEDD@Z ENDP			; std::ctype<char>::do_widen
_TEXT	ENDS
PUBLIC	??$_Debug_pointer@D@std@@YAXPADPB_WI@Z		; std::_Debug_pointer<char>
; Function compile flags: /Odtp /RTCsu
;	COMDAT ?do_widen@?$ctype@D@std@@MBEPBDPBD0PAD@Z
_TEXT	SEGMENT
_this$ = -4						; size = 4
__First$ = 8						; size = 4
__Last$ = 12						; size = 4
__Dest$ = 16						; size = 4
?do_widen@?$ctype@D@std@@MBEPBDPBD0PAD@Z PROC		; std::ctype<char>::do_widen, COMDAT
; _this$ = ecx

; 2446 : 		{	// widen chars in [_First, _Last)

	push	ebp
	mov	ebp, esp
	push	ecx
	mov	DWORD PTR [ebp-4], -858993460		; ccccccccH
	mov	DWORD PTR _this$[ebp], ecx

; 2447 : 		_DEBUG_RANGE(_First, _Last);

	push	2447					; 0000098fH
	push	OFFSET ??_C@_1IO@OICMNCNA@?$AAc?$AA?3?$AA?2?$AAP?$AAr?$AAo?$AAg?$AAr?$AAa?$AAm?$AA?5?$AAF?$AAi?$AAl?$AAe?$AAs?$AA?5?$AA?$CI?$AAx?$AA8?$AA6?$AA?$CJ?$AA?2?$AAM?$AAi?$AAc?$AAr?$AAo?$AAs?$AAo?$AAf?$AAt@
	mov	eax, DWORD PTR __Last$[ebp]
	push	eax
	mov	ecx, DWORD PTR __First$[ebp]
	push	ecx
	call	??$_Debug_range@PBD@std@@YAXPBD0PB_WI@Z	; std::_Debug_range<char const *>
	add	esp, 16					; 00000010H

; 2448 : 		_DEBUG_POINTER(_Dest);

	push	2448					; 00000990H
	push	OFFSET ??_C@_1IO@OICMNCNA@?$AAc?$AA?3?$AA?2?$AAP?$AAr?$AAo?$AAg?$AAr?$AAa?$AAm?$AA?5?$AAF?$AAi?$AAl?$AAe?$AAs?$AA?5?$AA?$CI?$AAx?$AA8?$AA6?$AA?$CJ?$AA?2?$AAM?$AAi?$AAc?$AAr?$AAo?$AAs?$AAo?$AAf?$AAt@
	mov	edx, DWORD PTR __Dest$[ebp]
	push	edx
	call	??$_Debug_pointer@D@std@@YAXPADPB_WI@Z	; std::_Debug_pointer<char>
	add	esp, 12					; 0000000cH

; 2449 : 		_CSTD memcpy(_Dest, _First, _Last - _First);

	mov	eax, DWORD PTR __Last$[ebp]
	sub	eax, DWORD PTR __First$[ebp]
	push	eax
	mov	ecx, DWORD PTR __First$[ebp]
	push	ecx
	mov	edx, DWORD PTR __Dest$[ebp]
	push	edx
	call	_memcpy
	add	esp, 12					; 0000000cH

; 2450 : 		return (_Last);

	mov	eax, DWORD PTR __Last$[ebp]

; 2451 : 		}

	add	esp, 4
	cmp	ebp, esp
	call	__RTC_CheckEsp
	mov	esp, ebp
	pop	ebp
	ret	12					; 0000000cH
?do_widen@?$ctype@D@std@@MBEPBDPBD0PAD@Z ENDP		; std::ctype<char>::do_widen
; Function compile flags: /Odtp /RTCsu
_TEXT	ENDS
;	COMDAT ?do_narrow@?$ctype@D@std@@MBEDDD@Z
_TEXT	SEGMENT
_this$ = -4						; size = 4
__Ch$ = 8						; size = 1
___formal$ = 12						; size = 1
?do_narrow@?$ctype@D@std@@MBEDDD@Z PROC			; std::ctype<char>::do_narrow, COMDAT
; _this$ = ecx

; 2454 : 		{	// narrow char

	push	ebp
	mov	ebp, esp
	push	ecx
	mov	DWORD PTR [ebp-4], -858993460		; ccccccccH
	mov	DWORD PTR _this$[ebp], ecx

; 2455 : 		return (_Ch);

	mov	al, BYTE PTR __Ch$[ebp]

; 2456 : 		}

	mov	esp, ebp
	pop	ebp
	ret	8
?do_narrow@?$ctype@D@std@@MBEDDD@Z ENDP			; std::ctype<char>::do_narrow
; Function compile flags: /Odtp /RTCsu
_TEXT	ENDS
;	COMDAT ?do_narrow@?$ctype@D@std@@MBEPBDPBD0DPAD@Z
_TEXT	SEGMENT
_this$ = -4						; size = 4
__First$ = 8						; size = 4
__Last$ = 12						; size = 4
___formal$ = 16						; size = 1
__Dest$ = 20						; size = 4
?do_narrow@?$ctype@D@std@@MBEPBDPBD0DPAD@Z PROC		; std::ctype<char>::do_narrow, COMDAT
; _this$ = ecx

; 2460 : 		{	// narrow elements in [_First, _Last) to chars

	push	ebp
	mov	ebp, esp
	push	ecx
	mov	DWORD PTR [ebp-4], -858993460		; ccccccccH
	mov	DWORD PTR _this$[ebp], ecx

; 2461 : 		_DEBUG_RANGE(_First, _Last);

	push	2461					; 0000099dH
	push	OFFSET ??_C@_1IO@OICMNCNA@?$AAc?$AA?3?$AA?2?$AAP?$AAr?$AAo?$AAg?$AAr?$AAa?$AAm?$AA?5?$AAF?$AAi?$AAl?$AAe?$AAs?$AA?5?$AA?$CI?$AAx?$AA8?$AA6?$AA?$CJ?$AA?2?$AAM?$AAi?$AAc?$AAr?$AAo?$AAs?$AAo?$AAf?$AAt@
	mov	eax, DWORD PTR __Last$[ebp]
	push	eax
	mov	ecx, DWORD PTR __First$[ebp]
	push	ecx
	call	??$_Debug_range@PBD@std@@YAXPBD0PB_WI@Z	; std::_Debug_range<char const *>
	add	esp, 16					; 00000010H

; 2462 : 		_DEBUG_POINTER(_Dest);

	push	2462					; 0000099eH
	push	OFFSET ??_C@_1IO@OICMNCNA@?$AAc?$AA?3?$AA?2?$AAP?$AAr?$AAo?$AAg?$AAr?$AAa?$AAm?$AA?5?$AAF?$AAi?$AAl?$AAe?$AAs?$AA?5?$AA?$CI?$AAx?$AA8?$AA6?$AA?$CJ?$AA?2?$AAM?$AAi?$AAc?$AAr?$AAo?$AAs?$AAo?$AAf?$AAt@
	mov	edx, DWORD PTR __Dest$[ebp]
	push	edx
	call	??$_Debug_pointer@D@std@@YAXPADPB_WI@Z	; std::_Debug_pointer<char>
	add	esp, 12					; 0000000cH

; 2463 : 		_CSTD memcpy(_Dest, _First, _Last - _First);

	mov	eax, DWORD PTR __Last$[ebp]
	sub	eax, DWORD PTR __First$[ebp]
	push	eax
	mov	ecx, DWORD PTR __First$[ebp]
	push	ecx
	mov	edx, DWORD PTR __Dest$[ebp]
	push	edx
	call	_memcpy
	add	esp, 12					; 0000000cH

; 2464 : 		return (_Last);

	mov	eax, DWORD PTR __Last$[ebp]

; 2465 : 		}

	add	esp, 4
	cmp	ebp, esp
	call	__RTC_CheckEsp
	mov	esp, ebp
	pop	ebp
	ret	16					; 00000010H
?do_narrow@?$ctype@D@std@@MBEPBDPBD0DPAD@Z ENDP		; std::ctype<char>::do_narrow
_TEXT	ENDS
PUBLIC	??1?$ctype@D@std@@MAE@XZ			; std::ctype<char>::~ctype<char>
; Function compile flags: /Odtp /RTCsu
;	COMDAT ??_G?$ctype@D@std@@MAEPAXI@Z
_TEXT	SEGMENT
_this$ = -4						; size = 4
___flags$ = 8						; size = 4
??_G?$ctype@D@std@@MAEPAXI@Z PROC			; std::ctype<char>::`scalar deleting destructor', COMDAT
; _this$ = ecx
	push	ebp
	mov	ebp, esp
	push	ecx
	mov	DWORD PTR [ebp-4], -858993460		; ccccccccH
	mov	DWORD PTR _this$[ebp], ecx
	mov	ecx, DWORD PTR _this$[ebp]
	call	??1?$ctype@D@std@@MAE@XZ		; std::ctype<char>::~ctype<char>
	mov	eax, DWORD PTR ___flags$[ebp]
	and	eax, 1
	je	SHORT $LN1@scalar@16
	mov	ecx, DWORD PTR _this$[ebp]
	push	ecx
	call	??3facet@locale@std@@SAXPAX@Z		; std::locale::facet::operator delete
	add	esp, 4
$LN1@scalar@16:
	mov	eax, DWORD PTR _this$[ebp]
	add	esp, 4
	cmp	ebp, esp
	call	__RTC_CheckEsp
	mov	esp, ebp
	pop	ebp
	ret	4
??_G?$ctype@D@std@@MAEPAXI@Z ENDP			; std::ctype<char>::`scalar deleting destructor'
_TEXT	ENDS
PUBLIC	?_Tidy@?$ctype@D@std@@IAEXXZ			; std::ctype<char>::_Tidy
;	COMDAT xdata$x
xdata$x	SEGMENT
__unwindtable$??1?$ctype@D@std@@MAE@XZ DD 0ffffffffH
	DD	FLAT:__unwindfunclet$??1?$ctype@D@std@@MAE@XZ$0
__ehfuncinfo$??1?$ctype@D@std@@MAE@XZ DD 019930522H
	DD	01H
	DD	FLAT:__unwindtable$??1?$ctype@D@std@@MAE@XZ
	DD	2 DUP(00H)
	DD	2 DUP(00H)
	DD	00H
	DD	01H
; Function compile flags: /Odtp /RTCsu
xdata$x	ENDS
;	COMDAT ??1?$ctype@D@std@@MAE@XZ
_TEXT	SEGMENT
_this$ = -16						; size = 4
__$EHRec$ = -12						; size = 12
??1?$ctype@D@std@@MAE@XZ PROC				; std::ctype<char>::~ctype<char>, COMDAT
; _this$ = ecx

; 2394 : 		{	// destroy the object

	push	ebp
	mov	ebp, esp
	push	-1
	push	__ehhandler$??1?$ctype@D@std@@MAE@XZ
	mov	eax, DWORD PTR fs:0
	push	eax
	push	ecx
	mov	DWORD PTR [ebp-16], -858993460		; ccccccccH
	mov	eax, DWORD PTR ___security_cookie
	xor	eax, ebp
	push	eax
	lea	eax, DWORD PTR __$EHRec$[ebp]
	mov	DWORD PTR fs:0, eax
	mov	DWORD PTR _this$[ebp], ecx
	mov	eax, DWORD PTR _this$[ebp]
	mov	DWORD PTR [eax], OFFSET ??_7?$ctype@D@std@@6B@
	mov	DWORD PTR __$EHRec$[ebp+8], 0

; 2395 : 		_Tidy();

	mov	ecx, DWORD PTR _this$[ebp]
	call	?_Tidy@?$ctype@D@std@@IAEXXZ		; std::ctype<char>::_Tidy

; 2396 : 		}

	mov	DWORD PTR __$EHRec$[ebp+8], -1
	mov	ecx, DWORD PTR _this$[ebp]
	call	??1ctype_base@std@@UAE@XZ		; std::ctype_base::~ctype_base
	mov	ecx, DWORD PTR __$EHRec$[ebp]
	mov	DWORD PTR fs:0, ecx
	pop	ecx
	add	esp, 16					; 00000010H
	cmp	ebp, esp
	call	__RTC_CheckEsp
	mov	esp, ebp
	pop	ebp
	ret	0
_TEXT	ENDS
;	COMDAT text$x
text$x	SEGMENT
__unwindfunclet$??1?$ctype@D@std@@MAE@XZ$0:
	mov	ecx, DWORD PTR _this$[ebp]
	jmp	??1ctype_base@std@@UAE@XZ		; std::ctype_base::~ctype_base
__ehhandler$??1?$ctype@D@std@@MAE@XZ:
	mov	edx, DWORD PTR [esp+8]
	lea	eax, DWORD PTR [edx+12]
	mov	ecx, DWORD PTR [edx-8]
	xor	ecx, eax
	call	@__security_check_cookie@4
	mov	eax, OFFSET __ehfuncinfo$??1?$ctype@D@std@@MAE@XZ
	jmp	___CxxFrameHandler3
text$x	ENDS
??1?$ctype@D@std@@MAE@XZ ENDP				; std::ctype<char>::~ctype<char>
EXTRN	??_V@YAXPAX@Z:PROC				; operator delete[]
; Function compile flags: /Odtp /RTCsu
;	COMDAT ?_Tidy@?$ctype@D@std@@IAEXXZ
_TEXT	SEGMENT
$T148208 = -8						; size = 4
_this$ = -4						; size = 4
?_Tidy@?$ctype@D@std@@IAEXXZ PROC			; std::ctype<char>::_Tidy, COMDAT
; _this$ = ecx

; 2404 : 		{	// free any allocated storage

	push	ebp
	mov	ebp, esp
	sub	esp, 8
	mov	DWORD PTR [ebp-8], -858993460		; ccccccccH
	mov	DWORD PTR [ebp-4], -858993460		; ccccccccH
	mov	DWORD PTR _this$[ebp], ecx

; 2405 : 		if (0 < _Ctype._Delfl)

	mov	eax, DWORD PTR _this$[ebp]
	cmp	DWORD PTR [eax+20], 0
	jle	SHORT $LN3@Tidy@4

; 2406 : 			free((void *)_Ctype._Table);

	mov	ecx, DWORD PTR _this$[ebp]
	mov	edx, DWORD PTR [ecx+16]
	push	edx
	call	_free
	add	esp, 4
	jmp	SHORT $LN4@Tidy@4
$LN3@Tidy@4:

; 2407 : 		else if (_Ctype._Delfl < 0)

	mov	eax, DWORD PTR _this$[ebp]
	cmp	DWORD PTR [eax+20], 0
	jge	SHORT $LN4@Tidy@4

; 2408 : 			delete[] (void *)_Ctype._Table;

	mov	ecx, DWORD PTR _this$[ebp]
	mov	edx, DWORD PTR [ecx+16]
	mov	DWORD PTR $T148208[ebp], edx
	mov	eax, DWORD PTR $T148208[ebp]
	push	eax
	call	??_V@YAXPAX@Z				; operator delete[]
	add	esp, 4
$LN4@Tidy@4:

; 2409 : 		}

	add	esp, 8
	cmp	ebp, esp
	call	__RTC_CheckEsp
	mov	esp, ebp
	pop	ebp
	ret	0
?_Tidy@?$ctype@D@std@@IAEXXZ ENDP			; std::ctype<char>::_Tidy
_TEXT	ENDS
PUBLIC	??$_Debug_range2@PBD@std@@YAXPBD0PB_WIUrandom_access_iterator_tag@0@@Z ; std::_Debug_range2<char const *>
PUBLIC	??$_Iter_cat@PBD@std@@YA?AUrandom_access_iterator_tag@0@ABQBD@Z ; std::_Iter_cat<char const *>
; Function compile flags: /Odtp /RTCsu
; File c:\program files (x86)\microsoft visual studio 10.0\vc\include\xutility
;	COMDAT ??$_Debug_range@PBD@std@@YAXPBD0PB_WI@Z
_TEXT	SEGMENT
$T148211 = -1						; size = 1
__First$ = 8						; size = 4
__Last$ = 12						; size = 4
__File$ = 16						; size = 4
__Line$ = 20						; size = 4
??$_Debug_range@PBD@std@@YAXPBD0PB_WI@Z PROC		; std::_Debug_range<char const *>, COMDAT

; 739  : 	{	// test iterator pair for valid range

	push	ebp
	mov	ebp, esp
	push	ecx
	mov	DWORD PTR [ebp-4], -858993460		; ccccccccH

; 740  : 	_Debug_range2(_First, _Last, _File, _Line, _Iter_cat(_First));

	lea	eax, DWORD PTR __First$[ebp]
	push	eax
	lea	ecx, DWORD PTR $T148211[ebp]
	push	ecx
	call	??$_Iter_cat@PBD@std@@YA?AUrandom_access_iterator_tag@0@ABQBD@Z ; std::_Iter_cat<char const *>
	add	esp, 8
	movzx	edx, BYTE PTR [eax]
	push	edx
	mov	eax, DWORD PTR __Line$[ebp]
	push	eax
	mov	ecx, DWORD PTR __File$[ebp]
	push	ecx
	mov	edx, DWORD PTR __Last$[ebp]
	push	edx
	mov	eax, DWORD PTR __First$[ebp]
	push	eax
	call	??$_Debug_range2@PBD@std@@YAXPBD0PB_WIUrandom_access_iterator_tag@0@@Z ; std::_Debug_range2<char const *>
	add	esp, 20					; 00000014H

; 741  : 	}

	add	esp, 4
	cmp	ebp, esp
	call	__RTC_CheckEsp
	mov	esp, ebp
	pop	ebp
	ret	0
??$_Debug_range@PBD@std@@YAXPBD0PB_WI@Z ENDP		; std::_Debug_range<char const *>
; Function compile flags: /Odtp /RTCsu
_TEXT	ENDS
;	COMDAT ??$_Debug_pointer@D@std@@YAXPADPB_WI@Z
_TEXT	SEGMENT
__First$ = 8						; size = 4
__File$ = 12						; size = 4
__Line$ = 16						; size = 4
??$_Debug_pointer@D@std@@YAXPADPB_WI@Z PROC		; std::_Debug_pointer<char>, COMDAT

; 708  : 	{	// test iterator for non-singularity, pointers

	push	ebp
	mov	ebp, esp

; 709  : 	if (_First == 0)

	cmp	DWORD PTR __First$[ebp], 0
	jne	SHORT $LN2@Debug_poin@2

; 710  : 		_DEBUG_ERROR2("invalid null pointer", _File, _Line);

	mov	eax, DWORD PTR __Line$[ebp]
	push	eax
	mov	ecx, DWORD PTR __File$[ebp]
	push	ecx
	push	OFFSET ??_C@_1CK@EOPGIILJ@?$AAi?$AAn?$AAv?$AAa?$AAl?$AAi?$AAd?$AA?5?$AAn?$AAu?$AAl?$AAl?$AA?5?$AAp?$AAo?$AAi?$AAn?$AAt?$AAe?$AAr?$AA?$AA@
	call	?_Debug_message@std@@YAXPB_W0I@Z	; std::_Debug_message
	add	esp, 12					; 0000000cH
$LN2@Debug_poin@2:

; 711  : 	}

	cmp	ebp, esp
	call	__RTC_CheckEsp
	pop	ebp
	ret	0
??$_Debug_pointer@D@std@@YAXPADPB_WI@Z ENDP		; std::_Debug_pointer<char>
; Function compile flags: /Odtp /RTCsu
_TEXT	ENDS
;	COMDAT ??$_Iter_cat@PBD@std@@YA?AUrandom_access_iterator_tag@0@ABQBD@Z
_TEXT	SEGMENT
__Cat$ = -5						; size = 1
___$ReturnUdt$ = 8					; size = 4
___formal$ = 12						; size = 4
??$_Iter_cat@PBD@std@@YA?AUrandom_access_iterator_tag@0@ABQBD@Z PROC ; std::_Iter_cat<char const *>, COMDAT

; 488  : 	{	// return category from iterator argument

	push	ebp
	mov	ebp, esp
	sub	esp, 12					; 0000000cH
	mov	DWORD PTR [ebp-12], -858993460		; ccccccccH
	mov	DWORD PTR [ebp-8], -858993460		; ccccccccH
	mov	DWORD PTR [ebp-4], -858993460		; ccccccccH

; 489  : 	typename iterator_traits<_Iter>::iterator_category _Cat;
; 490  : 	return (_Cat);

	mov	eax, DWORD PTR ___$ReturnUdt$[ebp]
	mov	cl, BYTE PTR __Cat$[ebp]
	mov	BYTE PTR [eax], cl
	mov	eax, DWORD PTR ___$ReturnUdt$[ebp]

; 491  : 	}

	push	edx
	mov	ecx, ebp
	push	eax
	lea	edx, DWORD PTR $LN5@Iter_cat
	call	@_RTC_CheckStackVars@8
	pop	eax
	pop	edx
	mov	esp, ebp
	pop	ebp
	ret	0
	npad	1
$LN5@Iter_cat:
	DD	1
	DD	$LN4@Iter_cat
$LN4@Iter_cat:
	DD	-5					; fffffffbH
	DD	1
	DD	$LN3@Iter_cat
$LN3@Iter_cat:
	DB	95					; 0000005fH
	DB	67					; 00000043H
	DB	97					; 00000061H
	DB	116					; 00000074H
	DB	0
??$_Iter_cat@PBD@std@@YA?AUrandom_access_iterator_tag@0@ABQBD@Z ENDP ; std::_Iter_cat<char const *>
_TEXT	ENDS
PUBLIC	??_C@_1CO@DGLIKNHI@?$AAi?$AAn?$AAv?$AAa?$AAl?$AAi?$AAd?$AA?5?$AAi?$AAt?$AAe?$AAr?$AAa?$AAt?$AAo?$AAr?$AA?5?$AAr?$AAa?$AAn?$AAg?$AAe?$AA?$AA@ ; `string'
;	COMDAT ??_C@_1CO@DGLIKNHI@?$AAi?$AAn?$AAv?$AAa?$AAl?$AAi?$AAd?$AA?5?$AAi?$AAt?$AAe?$AAr?$AAa?$AAt?$AAo?$AAr?$AA?5?$AAr?$AAa?$AAn?$AAg?$AAe?$AA?$AA@
CONST	SEGMENT
??_C@_1CO@DGLIKNHI@?$AAi?$AAn?$AAv?$AAa?$AAl?$AAi?$AAd?$AA?5?$AAi?$AAt?$AAe?$AAr?$AAa?$AAt?$AAo?$AAr?$AA?5?$AAr?$AAa?$AAn?$AAg?$AAe?$AA?$AA@ DB 'i'
	DB	00H, 'n', 00H, 'v', 00H, 'a', 00H, 'l', 00H, 'i', 00H, 'd', 00H
	DB	' ', 00H, 'i', 00H, 't', 00H, 'e', 00H, 'r', 00H, 'a', 00H, 't'
	DB	00H, 'o', 00H, 'r', 00H, ' ', 00H, 'r', 00H, 'a', 00H, 'n', 00H
	DB	'g', 00H, 'e', 00H, 00H, 00H			; `string'
; Function compile flags: /Odtp /RTCsu
CONST	ENDS
;	COMDAT ??$_Debug_range2@PBD@std@@YAXPBD0PB_WIUrandom_access_iterator_tag@0@@Z
_TEXT	SEGMENT
__First$ = 8						; size = 4
__Last$ = 12						; size = 4
__File$ = 16						; size = 4
__Line$ = 20						; size = 4
___formal$ = 24						; size = 1
??$_Debug_range2@PBD@std@@YAXPBD0PB_WIUrandom_access_iterator_tag@0@@Z PROC ; std::_Debug_range2<char const *>, COMDAT

; 726  : 	{	// test iterator pair for valid range, random-access iterators

	push	ebp
	mov	ebp, esp

; 727  : 	if (_First != _Last)

	mov	eax, DWORD PTR __First$[ebp]
	cmp	eax, DWORD PTR __Last$[ebp]
	je	SHORT $LN3@Debug_rang

; 728  : 		{	// check for non-null pointers, valid range
; 729  : 		_DEBUG_POINTER2(_First, _File, _Line);

	mov	ecx, DWORD PTR __Line$[ebp]
	push	ecx
	mov	edx, DWORD PTR __File$[ebp]
	push	edx
	mov	eax, DWORD PTR __First$[ebp]
	push	eax
	call	??$_Debug_pointer@D@std@@YAXPBDPB_WI@Z	; std::_Debug_pointer<char>
	add	esp, 12					; 0000000cH

; 730  : 		_DEBUG_POINTER2(_Last, _File, _Line);

	mov	ecx, DWORD PTR __Line$[ebp]
	push	ecx
	mov	edx, DWORD PTR __File$[ebp]
	push	edx
	mov	eax, DWORD PTR __Last$[ebp]
	push	eax
	call	??$_Debug_pointer@D@std@@YAXPBDPB_WI@Z	; std::_Debug_pointer<char>
	add	esp, 12					; 0000000cH

; 731  : 		if (_Last < _First)

	mov	ecx, DWORD PTR __Last$[ebp]
	cmp	ecx, DWORD PTR __First$[ebp]
	jae	SHORT $LN3@Debug_rang

; 732  : 			_DEBUG_ERROR2("invalid iterator range", _File, _Line);

	mov	edx, DWORD PTR __Line$[ebp]
	push	edx
	mov	eax, DWORD PTR __File$[ebp]
	push	eax
	push	OFFSET ??_C@_1CO@DGLIKNHI@?$AAi?$AAn?$AAv?$AAa?$AAl?$AAi?$AAd?$AA?5?$AAi?$AAt?$AAe?$AAr?$AAa?$AAt?$AAo?$AAr?$AA?5?$AAr?$AAa?$AAn?$AAg?$AAe?$AA?$AA@
	call	?_Debug_message@std@@YAXPB_W0I@Z	; std::_Debug_message
	add	esp, 12					; 0000000cH
$LN3@Debug_rang:

; 733  : 		}
; 734  : 	}

	cmp	ebp, esp
	call	__RTC_CheckEsp
	pop	ebp
	ret	0
??$_Debug_range2@PBD@std@@YAXPBD0PB_WIUrandom_access_iterator_tag@0@@Z ENDP ; std::_Debug_range2<char const *>
; Function compile flags: /Odtp /RTCsu
; File c:\program files (x86)\microsoft visual studio 10.0\vc\include\iomanip
_TEXT	ENDS
;	COMDAT ??$?6DU?$char_traits@D@std@@_J@std@@YAAAV?$basic_ostream@DU?$char_traits@D@std@@@0@AAV10@ABU?$_Smanip@_J@0@@Z
_TEXT	SEGMENT
tv76 = -4						; size = 4
__Ostr$ = 8						; size = 4
__Manip$ = 12						; size = 4
??$?6DU?$char_traits@D@std@@_J@std@@YAAAV?$basic_ostream@DU?$char_traits@D@std@@@0@AAV10@ABU?$_Smanip@_J@0@@Z PROC ; std::operator<<<char,std::char_traits<char>,__int64>, COMDAT

; 255  : 	{	// insert by calling function with output stream and argument

	push	ebp
	mov	ebp, esp
	push	ecx
	push	esi
	mov	DWORD PTR [ebp-4], -858993460		; ccccccccH

; 256  : 	(*_Manip._Pfun)(_Ostr, _Manip._Manarg);

	cmp	DWORD PTR __Ostr$[ebp], 0
	jne	SHORT $LN3@operator@6
	mov	DWORD PTR tv76[ebp], 0
	jmp	SHORT $LN4@operator@6
$LN3@operator@6:
	mov	eax, DWORD PTR __Ostr$[ebp]
	mov	ecx, DWORD PTR [eax]
	mov	edx, DWORD PTR __Ostr$[ebp]
	add	edx, DWORD PTR [ecx+4]
	mov	DWORD PTR tv76[ebp], edx
$LN4@operator@6:
	mov	esi, esp
	mov	eax, DWORD PTR __Manip$[ebp]
	mov	ecx, DWORD PTR [eax+12]
	push	ecx
	mov	edx, DWORD PTR [eax+8]
	push	edx
	mov	eax, DWORD PTR tv76[ebp]
	push	eax
	mov	ecx, DWORD PTR __Manip$[ebp]
	mov	edx, DWORD PTR [ecx]
	call	edx
	add	esp, 12					; 0000000cH
	cmp	esi, esp
	call	__RTC_CheckEsp

; 257  : 	return (_Ostr);

	mov	eax, DWORD PTR __Ostr$[ebp]

; 258  : 	}

	pop	esi
	add	esp, 4
	cmp	ebp, esp
	call	__RTC_CheckEsp
	mov	esp, ebp
	pop	ebp
	ret	0
??$?6DU?$char_traits@D@std@@_J@std@@YAAAV?$basic_ostream@DU?$char_traits@D@std@@@0@AAV10@ABU?$_Smanip@_J@0@@Z ENDP ; std::operator<<<char,std::char_traits<char>,__int64>
; Function compile flags: /Odtp /RTCsu
; File c:\program files (x86)\microsoft visual studio 10.0\vc\include\utility
_TEXT	ENDS
;	COMDAT ??$move@AAV?$basic_string@DU?$char_traits@D@std@@V?$allocator@D@2@@std@@@std@@YA$$QAV?$basic_string@DU?$char_traits@D@std@@V?$allocator@D@2@@0@AAV10@@Z
_TEXT	SEGMENT
__Arg$ = 8						; size = 4
??$move@AAV?$basic_string@DU?$char_traits@D@std@@V?$allocator@D@2@@std@@@std@@YA$$QAV?$basic_string@DU?$char_traits@D@std@@V?$allocator@D@2@@0@AAV10@@Z PROC ; std::move<std::basic_string<char,std::char_traits<char>,std::allocator<char> > &>, COMDAT

; 86   : 	{	// forward _Arg as movable

	push	ebp
	mov	ebp, esp

; 87   : 	return ((typename tr1::_Remove_reference<_Ty>::_Type&&)_Arg);

	mov	eax, DWORD PTR __Arg$[ebp]

; 88   : 	}

	pop	ebp
	ret	0
??$move@AAV?$basic_string@DU?$char_traits@D@std@@V?$allocator@D@2@@std@@@std@@YA$$QAV?$basic_string@DU?$char_traits@D@std@@V?$allocator@D@2@@0@AAV10@@Z ENDP ; std::move<std::basic_string<char,std::char_traits<char>,std::allocator<char> > &>
; Function compile flags: /Odtp /RTCsu
; File c:\program files (x86)\microsoft visual studio 10.0\vc\include\xmemory
_TEXT	ENDS
;	COMDAT ??$?8DD@std@@YA_NABV?$allocator@D@0@0@Z
_TEXT	SEGMENT
___formal$ = 8						; size = 4
___formal$ = 12						; size = 4
??$?8DD@std@@YA_NABV?$allocator@D@0@0@Z PROC		; std::operator==<char,char>, COMDAT

; 262  : 	{	// test for allocator equality

	push	ebp
	mov	ebp, esp

; 263  : 	return (true);

	mov	al, 1

; 264  : 	}

	pop	ebp
	ret	0
??$?8DD@std@@YA_NABV?$allocator@D@0@0@Z ENDP		; std::operator==<char,char>
; Function compile flags: /Odtp /RTCsu
; File c:\program files (x86)\microsoft visual studio 10.0\vc\include\utility
_TEXT	ENDS
;	COMDAT ??$forward@U_Container_proxy@std@@@std@@YA$$QAU_Container_proxy@0@AAU10@@Z
_TEXT	SEGMENT
__Arg$ = 8						; size = 4
??$forward@U_Container_proxy@std@@@std@@YA$$QAU_Container_proxy@0@AAU10@@Z PROC ; std::forward<std::_Container_proxy>, COMDAT

; 78   : 	{	// forward _Arg, given explicitly specified type parameter

	push	ebp
	mov	ebp, esp

; 79   : 	return ((_Ty&&)_Arg);

	mov	eax, DWORD PTR __Arg$[ebp]

; 80   : 	}

	pop	ebp
	ret	0
??$forward@U_Container_proxy@std@@@std@@YA$$QAU_Container_proxy@0@AAU10@@Z ENDP ; std::forward<std::_Container_proxy>
; Function compile flags: /Odtp /RTCsu
; File c:\program files (x86)\microsoft visual studio 10.0\vc\include\xutility
_TEXT	ENDS
;	COMDAT ??$_Debug_pointer@$$A6AAAVios_base@std@@AAV12@@Z@std@@YAXP6AAAVios_base@0@AAV10@@ZPB_WI@Z
_TEXT	SEGMENT
__First$ = 8						; size = 4
__File$ = 12						; size = 4
__Line$ = 16						; size = 4
??$_Debug_pointer@$$A6AAAVios_base@std@@AAV12@@Z@std@@YAXP6AAAVios_base@0@AAV10@@ZPB_WI@Z PROC ; std::_Debug_pointer<std::ios_base & __cdecl(std::ios_base &)>, COMDAT

; 701  : 	{	// test iterator for non-singularity, const pointers

	push	ebp
	mov	ebp, esp

; 702  : 	if (_First == 0)

	cmp	DWORD PTR __First$[ebp], 0
	jne	SHORT $LN2@Debug_poin@3

; 703  : 		_DEBUG_ERROR2("invalid null pointer", _File, _Line);

	mov	eax, DWORD PTR __Line$[ebp]
	push	eax
	mov	ecx, DWORD PTR __File$[ebp]
	push	ecx
	push	OFFSET ??_C@_1CK@EOPGIILJ@?$AAi?$AAn?$AAv?$AAa?$AAl?$AAi?$AAd?$AA?5?$AAn?$AAu?$AAl?$AAl?$AA?5?$AAp?$AAo?$AAi?$AAn?$AAt?$AAe?$AAr?$AA?$AA@
	call	?_Debug_message@std@@YAXPB_W0I@Z	; std::_Debug_message
	add	esp, 12					; 0000000cH
$LN2@Debug_poin@3:

; 704  : 	}

	cmp	ebp, esp
	call	__RTC_CheckEsp
	pop	ebp
	ret	0
??$_Debug_pointer@$$A6AAAVios_base@std@@AAV12@@Z@std@@YAXP6AAAVios_base@0@AAV10@@ZPB_WI@Z ENDP ; std::_Debug_pointer<std::ios_base & __cdecl(std::ios_base &)>
; Function compile flags: /Odtp /RTCsu
; File c:\program files (x86)\microsoft visual studio 10.0\vc\include\xmemory
_TEXT	ENDS
;	COMDAT ??$_Destroy@U_Container_proxy@std@@@std@@YAXPAU_Container_proxy@0@@Z
_TEXT	SEGMENT
__Ptr$ = 8						; size = 4
??$_Destroy@U_Container_proxy@std@@@std@@YAXPAU_Container_proxy@0@@Z PROC ; std::_Destroy<std::_Container_proxy>, COMDAT

; 62   : 	{	// destroy object at _Ptr

	push	ebp
	mov	ebp, esp

; 63   : 	_Ptr->~_Ty();
; 64   : 	}

	pop	ebp
	ret	0
??$_Destroy@U_Container_proxy@std@@@std@@YAXPAU_Container_proxy@0@@Z ENDP ; std::_Destroy<std::_Container_proxy>
_TEXT	ENDS
EXTRN	??_U@YAPAXIABU_DebugHeapTag_t@std@@PADH@Z:PROC	; operator new[]
; Function compile flags: /Odtp /RTCsu
; File c:\program files (x86)\microsoft visual studio 10.0\vc\include\xlocale
;	COMDAT ??$_Maklocstr@D@std@@YAPADPBDPADABU_Cvtvec@@@Z
_TEXT	SEGMENT
$T148237 = -16						; size = 4
__Ptrnext$144252 = -12					; size = 4
__Ptrdest$ = -8						; size = 4
__Count$ = -4						; size = 4
__Ptr$ = 8						; size = 4
___formal$ = 12						; size = 4
___formal$ = 16						; size = 4
??$_Maklocstr@D@std@@YAPADPBDPADABU_Cvtvec@@@Z PROC	; std::_Maklocstr<char>, COMDAT

; 658  : 	{	// convert C string to _Elem sequence using _Cvtvec

	push	ebp
	mov	ebp, esp
	sub	esp, 16					; 00000010H
	mov	eax, -858993460				; ccccccccH
	mov	DWORD PTR [ebp-16], eax
	mov	DWORD PTR [ebp-12], eax
	mov	DWORD PTR [ebp-8], eax
	mov	DWORD PTR [ebp-4], eax

; 659  : 	size_t _Count = _CSTD strlen(_Ptr) + 1;

	mov	eax, DWORD PTR __Ptr$[ebp]
	push	eax
	call	_strlen
	add	esp, 4
	add	eax, 1
	mov	DWORD PTR __Count$[ebp], eax

; 660  : 	_Elem *_Ptrdest = _NEW_CRT _Elem[_Count];

	push	660					; 00000294H
	push	OFFSET ??_C@_0EH@OEAMKACA@c?3?2Program?5Files?5?$CIx86?$CJ?2Microsoft@
	call	?_DebugHeapTag_func@std@@YAABU_DebugHeapTag_t@1@XZ ; std::_DebugHeapTag_func
	push	eax
	mov	ecx, DWORD PTR __Count$[ebp]
	push	ecx
	call	??_U@YAPAXIABU_DebugHeapTag_t@std@@PADH@Z ; operator new[]
	add	esp, 16					; 00000010H
	mov	DWORD PTR $T148237[ebp], eax
	mov	edx, DWORD PTR $T148237[ebp]
	mov	DWORD PTR __Ptrdest$[ebp], edx

; 661  : 
; 662  :  #pragma warning(push)
; 663  :  #pragma warning(disable: 6011)	/* quiet prefast noise */
; 664  : 	for (_Elem *_Ptrnext = _Ptrdest; 0 < _Count; --_Count, ++_Ptrnext, ++_Ptr)

	mov	eax, DWORD PTR __Ptrdest$[ebp]
	mov	DWORD PTR __Ptrnext$144252[ebp], eax
	jmp	SHORT $LN3@Maklocstr
$LN2@Maklocstr:
	mov	ecx, DWORD PTR __Count$[ebp]
	sub	ecx, 1
	mov	DWORD PTR __Count$[ebp], ecx
	mov	edx, DWORD PTR __Ptrnext$144252[ebp]
	add	edx, 1
	mov	DWORD PTR __Ptrnext$144252[ebp], edx
	mov	eax, DWORD PTR __Ptr$[ebp]
	add	eax, 1
	mov	DWORD PTR __Ptr$[ebp], eax
$LN3@Maklocstr:
	cmp	DWORD PTR __Count$[ebp], 0
	jbe	SHORT $LN1@Maklocstr

; 665  : 		*_Ptrnext = (_Elem)(unsigned char)*_Ptr;

	mov	ecx, DWORD PTR __Ptrnext$144252[ebp]
	mov	edx, DWORD PTR __Ptr$[ebp]
	mov	al, BYTE PTR [edx]
	mov	BYTE PTR [ecx], al
	jmp	SHORT $LN2@Maklocstr
$LN1@Maklocstr:

; 666  :  #pragma warning(pop)
; 667  : 
; 668  : 	return (_Ptrdest);

	mov	eax, DWORD PTR __Ptrdest$[ebp]

; 669  : 	}

	add	esp, 16					; 00000010H
	cmp	ebp, esp
	call	__RTC_CheckEsp
	mov	esp, ebp
	pop	ebp
	ret	0
??$_Maklocstr@D@std@@YAPADPBDPADABU_Cvtvec@@@Z ENDP	; std::_Maklocstr<char>
_TEXT	ENDS
PUBLIC	?max@?$numeric_limits@H@std@@SAHXZ		; std::numeric_limits<int>::max
; Function compile flags: /Odtp /RTCsu
; File c:\users\teaja\documents\artificial-fun\labravenprojecttest\common\misc\utils.h
;	COMDAT ??__EMaxInt@@YAXXZ
text$yc	SEGMENT
??__EMaxInt@@YAXXZ PROC					; `dynamic initializer for 'MaxInt'', COMDAT

; 23   : const int     MaxInt    = (std::numeric_limits<int>::max)();

	push	ebp
	mov	ebp, esp
	call	?max@?$numeric_limits@H@std@@SAHXZ	; std::numeric_limits<int>::max
	mov	DWORD PTR _MaxInt, eax
	cmp	ebp, esp
	call	__RTC_CheckEsp
	pop	ebp
	ret	0
??__EMaxInt@@YAXXZ ENDP					; `dynamic initializer for 'MaxInt''
; Function compile flags: /Odtp /RTCsu
; File c:\program files (x86)\microsoft visual studio 10.0\vc\include\limits
text$yc	ENDS
;	COMDAT ?max@?$numeric_limits@H@std@@SAHXZ
_TEXT	SEGMENT
?max@?$numeric_limits@H@std@@SAHXZ PROC			; std::numeric_limits<int>::max, COMDAT

; 712  : 	static _Ty (__CRTDECL max)() _THROW0()

	push	ebp
	mov	ebp, esp

; 713  : 		{	// return maximum value
; 714  : 		return (INT_MAX);

	mov	eax, 2147483647				; 7fffffffH

; 715  : 		}

	pop	ebp
	ret	0
?max@?$numeric_limits@H@std@@SAHXZ ENDP			; std::numeric_limits<int>::max
_TEXT	ENDS
PUBLIC	?max@?$numeric_limits@N@std@@SANXZ		; std::numeric_limits<double>::max
; Function compile flags: /Odtp /RTCsu
; File c:\users\teaja\documents\artificial-fun\labravenprojecttest\common\misc\utils.h
;	COMDAT ??__EMaxDouble@@YAXXZ
text$yc	SEGMENT
??__EMaxDouble@@YAXXZ PROC				; `dynamic initializer for 'MaxDouble'', COMDAT

; 24   : const double  MaxDouble = (std::numeric_limits<double>::max)();

	push	ebp
	mov	ebp, esp
	call	?max@?$numeric_limits@N@std@@SANXZ	; std::numeric_limits<double>::max
	fstp	QWORD PTR _MaxDouble
	cmp	ebp, esp
	call	__RTC_CheckEsp
	pop	ebp
	ret	0
??__EMaxDouble@@YAXXZ ENDP				; `dynamic initializer for 'MaxDouble''
text$yc	ENDS
PUBLIC	__real@7fefffffffffffff
;	COMDAT __real@7fefffffffffffff
; File c:\program files (x86)\microsoft visual studio 10.0\vc\include\limits
CONST	SEGMENT
__real@7fefffffffffffff DQ 07fefffffffffffffr	; 1.79769e+308
; Function compile flags: /Odtp /RTCsu
CONST	ENDS
;	COMDAT ?max@?$numeric_limits@N@std@@SANXZ
_TEXT	SEGMENT
?max@?$numeric_limits@N@std@@SANXZ PROC			; std::numeric_limits<double>::max, COMDAT

; 1233 : 	static _Ty (__CRTDECL max)() _THROW0()

	push	ebp
	mov	ebp, esp

; 1234 : 		{	// return maximum value
; 1235 : 		return (DBL_MAX);

	fld	QWORD PTR __real@7fefffffffffffff

; 1236 : 		}

	pop	ebp
	ret	0
?max@?$numeric_limits@N@std@@SANXZ ENDP			; std::numeric_limits<double>::max
_TEXT	ENDS
PUBLIC	?min@?$numeric_limits@N@std@@SANXZ		; std::numeric_limits<double>::min
; Function compile flags: /Odtp /RTCsu
; File c:\users\teaja\documents\artificial-fun\labravenprojecttest\common\misc\utils.h
;	COMDAT ??__EMinDouble@@YAXXZ
text$yc	SEGMENT
??__EMinDouble@@YAXXZ PROC				; `dynamic initializer for 'MinDouble'', COMDAT

; 25   : const double  MinDouble = (std::numeric_limits<double>::min)();

	push	ebp
	mov	ebp, esp
	call	?min@?$numeric_limits@N@std@@SANXZ	; std::numeric_limits<double>::min
	fstp	QWORD PTR _MinDouble
	cmp	ebp, esp
	call	__RTC_CheckEsp
	pop	ebp
	ret	0
??__EMinDouble@@YAXXZ ENDP				; `dynamic initializer for 'MinDouble''
text$yc	ENDS
PUBLIC	__real@0010000000000000
;	COMDAT __real@0010000000000000
; File c:\program files (x86)\microsoft visual studio 10.0\vc\include\limits
CONST	SEGMENT
__real@0010000000000000 DQ 00010000000000000r	; 2.22507e-308
; Function compile flags: /Odtp /RTCsu
CONST	ENDS
;	COMDAT ?min@?$numeric_limits@N@std@@SANXZ
_TEXT	SEGMENT
?min@?$numeric_limits@N@std@@SANXZ PROC			; std::numeric_limits<double>::min, COMDAT

; 1228 : 	static _Ty (__CRTDECL min)() _THROW0()

	push	ebp
	mov	ebp, esp

; 1229 : 		{	// return minimum value
; 1230 : 		return (DBL_MIN);

	fld	QWORD PTR __real@0010000000000000

; 1231 : 		}

	pop	ebp
	ret	0
?min@?$numeric_limits@N@std@@SANXZ ENDP			; std::numeric_limits<double>::min
_TEXT	ENDS
PUBLIC	?max@?$numeric_limits@M@std@@SAMXZ		; std::numeric_limits<float>::max
; Function compile flags: /Odtp /RTCsu
; File c:\users\teaja\documents\artificial-fun\labravenprojecttest\common\misc\utils.h
;	COMDAT ??__EMaxFloat@@YAXXZ
text$yc	SEGMENT
??__EMaxFloat@@YAXXZ PROC				; `dynamic initializer for 'MaxFloat'', COMDAT

; 26   : const float   MaxFloat  = (std::numeric_limits<float>::max)();

	push	ebp
	mov	ebp, esp
	call	?max@?$numeric_limits@M@std@@SAMXZ	; std::numeric_limits<float>::max
	fstp	DWORD PTR _MaxFloat
	cmp	ebp, esp
	call	__RTC_CheckEsp
	pop	ebp
	ret	0
??__EMaxFloat@@YAXXZ ENDP				; `dynamic initializer for 'MaxFloat''
text$yc	ENDS
PUBLIC	__real@7f7fffff
;	COMDAT __real@7f7fffff
; File c:\program files (x86)\microsoft visual studio 10.0\vc\include\limits
CONST	SEGMENT
__real@7f7fffff DD 07f7fffffr			; 3.40282e+038
; Function compile flags: /Odtp /RTCsu
CONST	ENDS
;	COMDAT ?max@?$numeric_limits@M@std@@SAMXZ
_TEXT	SEGMENT
?max@?$numeric_limits@M@std@@SAMXZ PROC			; std::numeric_limits<float>::max, COMDAT

; 1166 : 	static _Ty (__CRTDECL max)() _THROW0()

	push	ebp
	mov	ebp, esp

; 1167 : 		{	// return maximum value
; 1168 : 		return (FLT_MAX);

	fld	DWORD PTR __real@7f7fffff

; 1169 : 		}

	pop	ebp
	ret	0
?max@?$numeric_limits@M@std@@SAMXZ ENDP			; std::numeric_limits<float>::max
_TEXT	ENDS
PUBLIC	?min@?$numeric_limits@M@std@@SAMXZ		; std::numeric_limits<float>::min
; Function compile flags: /Odtp /RTCsu
; File c:\users\teaja\documents\artificial-fun\labravenprojecttest\common\misc\utils.h
;	COMDAT ??__EMinFloat@@YAXXZ
text$yc	SEGMENT
??__EMinFloat@@YAXXZ PROC				; `dynamic initializer for 'MinFloat'', COMDAT

; 27   : const float   MinFloat  = (std::numeric_limits<float>::min)();

	push	ebp
	mov	ebp, esp
	call	?min@?$numeric_limits@M@std@@SAMXZ	; std::numeric_limits<float>::min
	fstp	DWORD PTR _MinFloat
	cmp	ebp, esp
	call	__RTC_CheckEsp
	pop	ebp
	ret	0
??__EMinFloat@@YAXXZ ENDP				; `dynamic initializer for 'MinFloat''
text$yc	ENDS
PUBLIC	__real@00800000
;	COMDAT __real@00800000
; File c:\program files (x86)\microsoft visual studio 10.0\vc\include\limits
CONST	SEGMENT
__real@00800000 DD 000800000r			; 1.17549e-038
; Function compile flags: /Odtp /RTCsu
CONST	ENDS
;	COMDAT ?min@?$numeric_limits@M@std@@SAMXZ
_TEXT	SEGMENT
?min@?$numeric_limits@M@std@@SAMXZ PROC			; std::numeric_limits<float>::min, COMDAT

; 1161 : 	static _Ty (__CRTDECL min)() _THROW0()

	push	ebp
	mov	ebp, esp

; 1162 : 		{	// return minimum value
; 1163 : 		return (FLT_MIN);

	fld	DWORD PTR __real@00800000

; 1164 : 		}

	pop	ebp
	ret	0
?min@?$numeric_limits@M@std@@SAMXZ ENDP			; std::numeric_limits<float>::min
; Function compile flags: /Odtp /RTCsu
; File c:\users\teaja\documents\artificial-fun\labravenprojecttest\common\misc\utils.h
_TEXT	ENDS
;	COMDAT ??__ETwoPi@@YAXXZ
text$yc	SEGMENT
??__ETwoPi@@YAXXZ PROC					; `dynamic initializer for 'TwoPi'', COMDAT

; 30   : const double   TwoPi     = Pi * 2;

	push	ebp
	mov	ebp, esp
	fld	QWORD PTR _Pi
	fadd	ST(0), ST(0)
	fstp	QWORD PTR _TwoPi
	pop	ebp
	ret	0
??__ETwoPi@@YAXXZ ENDP					; `dynamic initializer for 'TwoPi''
text$yc	ENDS
PUBLIC	__real@4000000000000000
;	COMDAT __real@4000000000000000
CONST	SEGMENT
__real@4000000000000000 DQ 04000000000000000r	; 2
; Function compile flags: /Odtp /RTCsu
CONST	ENDS
;	COMDAT ??__EHalfPi@@YAXXZ
text$yc	SEGMENT
??__EHalfPi@@YAXXZ PROC					; `dynamic initializer for 'HalfPi'', COMDAT

; 31   : const double   HalfPi    = Pi / 2;

	push	ebp
	mov	ebp, esp
	fld	QWORD PTR _Pi
	fdiv	QWORD PTR __real@4000000000000000
	fstp	QWORD PTR _HalfPi
	pop	ebp
	ret	0
??__EHalfPi@@YAXXZ ENDP					; `dynamic initializer for 'HalfPi''
text$yc	ENDS
PUBLIC	__real@4010000000000000
;	COMDAT __real@4010000000000000
CONST	SEGMENT
__real@4010000000000000 DQ 04010000000000000r	; 4
; Function compile flags: /Odtp /RTCsu
CONST	ENDS
;	COMDAT ??__EQuarterPi@@YAXXZ
text$yc	SEGMENT
??__EQuarterPi@@YAXXZ PROC				; `dynamic initializer for 'QuarterPi'', COMDAT

; 32   : const double   QuarterPi = Pi / 4;

	push	ebp
	mov	ebp, esp
	fld	QWORD PTR _Pi
	fdiv	QWORD PTR __real@4010000000000000
	fstp	QWORD PTR _QuarterPi
	pop	ebp
	ret	0
??__EQuarterPi@@YAXXZ ENDP				; `dynamic initializer for 'QuarterPi''
text$yc	ENDS
PUBLIC	??0id@locale@std@@QAE@I@Z			; std::locale::id::id
; Function compile flags: /Odtp /RTCsu
; File c:\program files (x86)\microsoft visual studio 10.0\vc\include\xlocnum
;	COMDAT ??__E?id@?$num_put@DV?$ostreambuf_iterator@DU?$char_traits@D@std@@@std@@@std@@2V0locale@2@A@@YAXXZ
text$yc	SEGMENT
??__E?id@?$num_put@DV?$ostreambuf_iterator@DU?$char_traits@D@std@@@std@@@std@@2V0locale@2@A@@YAXXZ PROC ; `dynamic initializer for 'std::num_put<char,std::ostreambuf_iterator<char,std::char_traits<char> > >::id'', COMDAT

; 1578 : 	__PURE_APPDOMAIN_GLOBAL locale::id num_put<_Elem, _OutIt>::id;

	push	ebp
	mov	ebp, esp
	push	0
	mov	ecx, OFFSET ?id@?$num_put@DV?$ostreambuf_iterator@DU?$char_traits@D@std@@@std@@@std@@2V0locale@2@A ; std::num_put<char,std::ostreambuf_iterator<char,std::char_traits<char> > >::id
	call	??0id@locale@std@@QAE@I@Z		; std::locale::id::id
	cmp	ebp, esp
	call	__RTC_CheckEsp
	pop	ebp
	ret	0
??__E?id@?$num_put@DV?$ostreambuf_iterator@DU?$char_traits@D@std@@@std@@@std@@2V0locale@2@A@@YAXXZ ENDP ; `dynamic initializer for 'std::num_put<char,std::ostreambuf_iterator<char,std::char_traits<char> > >::id''
; Function compile flags: /Odtp /RTCsu
; File c:\program files (x86)\microsoft visual studio 10.0\vc\include\xlocale
text$yc	ENDS
;	COMDAT ??0id@locale@std@@QAE@I@Z
_TEXT	SEGMENT
_this$ = -4						; size = 4
__Val$ = 8						; size = 4
??0id@locale@std@@QAE@I@Z PROC				; std::locale::id::id, COMDAT
; _this$ = ecx

; 71   : 			{	// construct with specified stamp value

	push	ebp
	mov	ebp, esp
	push	ecx
	mov	DWORD PTR [ebp-4], -858993460		; ccccccccH
	mov	DWORD PTR _this$[ebp], ecx
	mov	eax, DWORD PTR _this$[ebp]
	mov	ecx, DWORD PTR __Val$[ebp]
	mov	DWORD PTR [eax], ecx

; 72   : 			}

	mov	eax, DWORD PTR _this$[ebp]
	mov	esp, ebp
	pop	ebp
	ret	4
??0id@locale@std@@QAE@I@Z ENDP				; std::locale::id::id
; Function compile flags: /Odtp /RTCsu
; File c:\program files (x86)\microsoft visual studio 10.0\vc\include\xlocnum
_TEXT	ENDS
;	COMDAT ??__E?id@?$num_get@DV?$istreambuf_iterator@DU?$char_traits@D@std@@@std@@@std@@2V0locale@2@A@@YAXXZ
text$yc	SEGMENT
??__E?id@?$num_get@DV?$istreambuf_iterator@DU?$char_traits@D@std@@@std@@@std@@2V0locale@2@A@@YAXXZ PROC ; `dynamic initializer for 'std::num_get<char,std::istreambuf_iterator<char,std::char_traits<char> > >::id'', COMDAT

; 1036 : 	__PURE_APPDOMAIN_GLOBAL locale::id num_get<_Elem, _InIt>::id;

	push	ebp
	mov	ebp, esp
	push	0
	mov	ecx, OFFSET ?id@?$num_get@DV?$istreambuf_iterator@DU?$char_traits@D@std@@@std@@@std@@2V0locale@2@A ; std::num_get<char,std::istreambuf_iterator<char,std::char_traits<char> > >::id
	call	??0id@locale@std@@QAE@I@Z		; std::locale::id::id
	cmp	ebp, esp
	call	__RTC_CheckEsp
	pop	ebp
	ret	0
??__E?id@?$num_get@DV?$istreambuf_iterator@DU?$char_traits@D@std@@@std@@@std@@2V0locale@2@A@@YAXXZ ENDP ; `dynamic initializer for 'std::num_get<char,std::istreambuf_iterator<char,std::char_traits<char> > >::id''
; Function compile flags: /Odtp /RTCsu
; File c:\program files (x86)\microsoft visual studio 10.0\vc\include\xlocale
text$yc	ENDS
;	COMDAT ??__E?id@?$codecvt@DDH@std@@2V0locale@2@A@@YAXXZ
text$yc	SEGMENT
??__E?id@?$codecvt@DDH@std@@2V0locale@2@A@@YAXXZ PROC	; `dynamic initializer for 'std::codecvt<char,char,int>::id'', COMDAT

; 900  : 	__PURE_APPDOMAIN_GLOBAL locale::id codecvt<_Elem, _Byte, _Statype>::id;

	push	ebp
	mov	ebp, esp
	push	0
	mov	ecx, OFFSET ?id@?$codecvt@DDH@std@@2V0locale@2@A ; std::codecvt<char,char,int>::id
	call	??0id@locale@std@@QAE@I@Z		; std::locale::id::id
	cmp	ebp, esp
	call	__RTC_CheckEsp
	pop	ebp
	ret	0
??__E?id@?$codecvt@DDH@std@@2V0locale@2@A@@YAXXZ ENDP	; `dynamic initializer for 'std::codecvt<char,char,int>::id''
; Function compile flags: /Odtp /RTCsu
; File c:\program files (x86)\microsoft visual studio 10.0\vc\include\xlocnum
text$yc	ENDS
;	COMDAT ??__E?id@?$numpunct@D@std@@2V0locale@2@A@@YAXXZ
text$yc	SEGMENT
??__E?id@?$numpunct@D@std@@2V0locale@2@A@@YAXXZ PROC	; `dynamic initializer for 'std::numpunct<char>::id'', COMDAT

; 228  : 	__PURE_APPDOMAIN_GLOBAL locale::id numpunct<_Elem>::id;

	push	ebp
	mov	ebp, esp
	push	0
	mov	ecx, OFFSET ?id@?$numpunct@D@std@@2V0locale@2@A ; std::numpunct<char>::id
	call	??0id@locale@std@@QAE@I@Z		; std::locale::id::id
	cmp	ebp, esp
	call	__RTC_CheckEsp
	pop	ebp
	ret	0
??__E?id@?$numpunct@D@std@@2V0locale@2@A@@YAXXZ ENDP	; `dynamic initializer for 'std::numpunct<char>::id''
text$yc	ENDS
PUBLIC	?id@?$num_put@DV?$ostreambuf_iterator@DU?$char_traits@D@std@@@std@@@std@@2V0locale@2@A ; std::num_put<char,std::ostreambuf_iterator<char,std::char_traits<char> > >::id
PUBLIC	?id@?$numpunct@D@std@@2V0locale@2@A		; std::numpunct<char>::id
PUBLIC	?id@?$num_get@DV?$istreambuf_iterator@DU?$char_traits@D@std@@@std@@@std@@2V0locale@2@A ; std::num_get<char,std::istreambuf_iterator<char,std::char_traits<char> > >::id
PUBLIC	?id@?$codecvt@DDH@std@@2V0locale@2@A		; std::codecvt<char,char,int>::id
_BSS	SEGMENT
_MinDouble DQ	01H DUP (?)
_MaxFloat DD	01H DUP (?)
_MinFloat DD	01H DUP (?)
_TwoPi	DQ	01H DUP (?)
_BSS	ENDS
;	COMDAT ?id@?$num_put@DV?$ostreambuf_iterator@DU?$char_traits@D@std@@@std@@@std@@2V0locale@2@A
_BSS	SEGMENT
?id@?$num_put@DV?$ostreambuf_iterator@DU?$char_traits@D@std@@@std@@@std@@2V0locale@2@A DD 01H DUP (?) ; std::num_put<char,std::ostreambuf_iterator<char,std::char_traits<char> > >::id
_BSS	ENDS
_BSS	SEGMENT
_MaxInt	DD	01H DUP (?)
	ALIGN	8

_HalfPi	DQ	01H DUP (?)
_BSS	ENDS
;	COMDAT ?id@?$numpunct@D@std@@2V0locale@2@A
_BSS	SEGMENT
?id@?$numpunct@D@std@@2V0locale@2@A DD 01H DUP (?)	; std::numpunct<char>::id
_BSS	ENDS
_BSS	SEGMENT
_MaxDouble DQ	01H DUP (?)
_QuarterPi DQ	01H DUP (?)
_BSS	ENDS
;	COMDAT ?id@?$num_get@DV?$istreambuf_iterator@DU?$char_traits@D@std@@@std@@@std@@2V0locale@2@A
_BSS	SEGMENT
?id@?$num_get@DV?$istreambuf_iterator@DU?$char_traits@D@std@@@std@@@std@@2V0locale@2@A DD 01H DUP (?) ; std::num_get<char,std::istreambuf_iterator<char,std::char_traits<char> > >::id
_BSS	ENDS
;	COMDAT ?id@?$codecvt@DDH@std@@2V0locale@2@A
_BSS	SEGMENT
?id@?$codecvt@DDH@std@@2V0locale@2@A DD 01H DUP (?)	; std::codecvt<char,char,int>::id
_BSS	ENDS
CRT$XCU	SEGMENT
_MaxInt$initializer$ DD FLAT:??__EMaxInt@@YAXXZ
_MaxDouble$initializer$ DD FLAT:??__EMaxDouble@@YAXXZ
_MinDouble$initializer$ DD FLAT:??__EMinDouble@@YAXXZ
_MaxFloat$initializer$ DD FLAT:??__EMaxFloat@@YAXXZ
_MinFloat$initializer$ DD FLAT:??__EMinFloat@@YAXXZ
_TwoPi$initializer$ DD FLAT:??__ETwoPi@@YAXXZ
_HalfPi$initializer$ DD FLAT:??__EHalfPi@@YAXXZ
_QuarterPi$initializer$ DD FLAT:??__EQuarterPi@@YAXXZ
CRT$XCU	ENDS
;	COMDAT CRT$XCU
CRT$XCU	SEGMENT
?id$initializer$@?$num_put@DV?$ostreambuf_iterator@DU?$char_traits@D@std@@@std@@@std@@2P6AXXZA DD FLAT:??__E?id@?$num_put@DV?$ostreambuf_iterator@DU?$char_traits@D@std@@@std@@@std@@2V0locale@2@A@@YAXXZ ; std::num_put<char,std::ostreambuf_iterator<char,std::char_traits<char> > >::id$initializer$
CRT$XCU	ENDS
;	COMDAT CRT$XCU
CRT$XCU	SEGMENT
?id$initializer$@?$num_get@DV?$istreambuf_iterator@DU?$char_traits@D@std@@@std@@@std@@2P6AXXZA DD FLAT:??__E?id@?$num_get@DV?$istreambuf_iterator@DU?$char_traits@D@std@@@std@@@std@@2V0locale@2@A@@YAXXZ ; std::num_get<char,std::istreambuf_iterator<char,std::char_traits<char> > >::id$initializer$
CRT$XCU	ENDS
;	COMDAT CRT$XCU
CRT$XCU	SEGMENT
?id$initializer$@?$codecvt@DDH@std@@2P6AXXZA DD FLAT:??__E?id@?$codecvt@DDH@std@@2V0locale@2@A@@YAXXZ ; std::codecvt<char,char,int>::id$initializer$
CRT$XCU	ENDS
;	COMDAT CRT$XCU
CRT$XCU	SEGMENT
?id$initializer$@?$numpunct@D@std@@2P6AXXZA DD FLAT:??__E?id@?$numpunct@D@std@@2V0locale@2@A@@YAXXZ ; std::numpunct<char>::id$initializer$
CRT$XCU	ENDS
END
