; Listing generated by Microsoft (R) Optimizing Compiler Version 16.00.40219.01 

	TITLE	C:\Users\Teaja\Documents\Artificial-Fun\LabRavenProjectTest\Raven\goals\Goal_MoveToPosition.cpp
	.686P
	.XMM
	include listing.inc
	.model	flat

INCLUDELIB LIBCMTD
INCLUDELIB OLDNAMES

PUBLIC	?has_denorm@_Num_base@std@@2W4float_denorm_style@2@B ; std::_Num_base::has_denorm
PUBLIC	?has_denorm_loss@_Num_base@std@@2_NB		; std::_Num_base::has_denorm_loss
PUBLIC	?has_infinity@_Num_base@std@@2_NB		; std::_Num_base::has_infinity
PUBLIC	?has_quiet_NaN@_Num_base@std@@2_NB		; std::_Num_base::has_quiet_NaN
PUBLIC	?has_signaling_NaN@_Num_base@std@@2_NB		; std::_Num_base::has_signaling_NaN
PUBLIC	?is_bounded@_Num_base@std@@2_NB			; std::_Num_base::is_bounded
PUBLIC	?is_exact@_Num_base@std@@2_NB			; std::_Num_base::is_exact
PUBLIC	?is_iec559@_Num_base@std@@2_NB			; std::_Num_base::is_iec559
PUBLIC	?is_integer@_Num_base@std@@2_NB			; std::_Num_base::is_integer
PUBLIC	?is_modulo@_Num_base@std@@2_NB			; std::_Num_base::is_modulo
PUBLIC	?is_signed@_Num_base@std@@2_NB			; std::_Num_base::is_signed
PUBLIC	?is_specialized@_Num_base@std@@2_NB		; std::_Num_base::is_specialized
PUBLIC	?tinyness_before@_Num_base@std@@2_NB		; std::_Num_base::tinyness_before
PUBLIC	?traps@_Num_base@std@@2_NB			; std::_Num_base::traps
PUBLIC	?round_style@_Num_base@std@@2W4float_round_style@2@B ; std::_Num_base::round_style
PUBLIC	?digits@_Num_base@std@@2HB			; std::_Num_base::digits
PUBLIC	?digits10@_Num_base@std@@2HB			; std::_Num_base::digits10
PUBLIC	?max_digits10@_Num_base@std@@2HB		; std::_Num_base::max_digits10
PUBLIC	?max_exponent@_Num_base@std@@2HB		; std::_Num_base::max_exponent
PUBLIC	?max_exponent10@_Num_base@std@@2HB		; std::_Num_base::max_exponent10
PUBLIC	?min_exponent@_Num_base@std@@2HB		; std::_Num_base::min_exponent
PUBLIC	?min_exponent10@_Num_base@std@@2HB		; std::_Num_base::min_exponent10
PUBLIC	?radix@_Num_base@std@@2HB			; std::_Num_base::radix
PUBLIC	?is_bounded@_Num_int_base@std@@2_NB		; std::_Num_int_base::is_bounded
PUBLIC	?is_exact@_Num_int_base@std@@2_NB		; std::_Num_int_base::is_exact
PUBLIC	?is_integer@_Num_int_base@std@@2_NB		; std::_Num_int_base::is_integer
PUBLIC	?is_modulo@_Num_int_base@std@@2_NB		; std::_Num_int_base::is_modulo
PUBLIC	?is_specialized@_Num_int_base@std@@2_NB		; std::_Num_int_base::is_specialized
PUBLIC	?radix@_Num_int_base@std@@2HB			; std::_Num_int_base::radix
PUBLIC	?has_denorm@_Num_float_base@std@@2W4float_denorm_style@2@B ; std::_Num_float_base::has_denorm
PUBLIC	?has_denorm_loss@_Num_float_base@std@@2_NB	; std::_Num_float_base::has_denorm_loss
PUBLIC	?has_infinity@_Num_float_base@std@@2_NB		; std::_Num_float_base::has_infinity
PUBLIC	?has_quiet_NaN@_Num_float_base@std@@2_NB	; std::_Num_float_base::has_quiet_NaN
PUBLIC	?has_signaling_NaN@_Num_float_base@std@@2_NB	; std::_Num_float_base::has_signaling_NaN
PUBLIC	?is_bounded@_Num_float_base@std@@2_NB		; std::_Num_float_base::is_bounded
PUBLIC	?is_exact@_Num_float_base@std@@2_NB		; std::_Num_float_base::is_exact
PUBLIC	?is_iec559@_Num_float_base@std@@2_NB		; std::_Num_float_base::is_iec559
PUBLIC	?is_integer@_Num_float_base@std@@2_NB		; std::_Num_float_base::is_integer
PUBLIC	?is_modulo@_Num_float_base@std@@2_NB		; std::_Num_float_base::is_modulo
PUBLIC	?is_signed@_Num_float_base@std@@2_NB		; std::_Num_float_base::is_signed
PUBLIC	?is_specialized@_Num_float_base@std@@2_NB	; std::_Num_float_base::is_specialized
PUBLIC	?tinyness_before@_Num_float_base@std@@2_NB	; std::_Num_float_base::tinyness_before
PUBLIC	?traps@_Num_float_base@std@@2_NB		; std::_Num_float_base::traps
PUBLIC	?round_style@_Num_float_base@std@@2W4float_round_style@2@B ; std::_Num_float_base::round_style
PUBLIC	?radix@_Num_float_base@std@@2HB			; std::_Num_float_base::radix
PUBLIC	?is_signed@?$numeric_limits@D@std@@2_NB		; std::numeric_limits<char>::is_signed
PUBLIC	?digits@?$numeric_limits@D@std@@2HB		; std::numeric_limits<char>::digits
PUBLIC	?digits10@?$numeric_limits@D@std@@2HB		; std::numeric_limits<char>::digits10
PUBLIC	?max_digits10@?$numeric_limits@D@std@@2HB	; std::numeric_limits<char>::max_digits10
PUBLIC	?is_signed@?$numeric_limits@_W@std@@2_NB	; std::numeric_limits<wchar_t>::is_signed
PUBLIC	?digits@?$numeric_limits@_W@std@@2HB		; std::numeric_limits<wchar_t>::digits
PUBLIC	?digits10@?$numeric_limits@_W@std@@2HB		; std::numeric_limits<wchar_t>::digits10
PUBLIC	?max_digits10@?$numeric_limits@_W@std@@2HB	; std::numeric_limits<wchar_t>::max_digits10
PUBLIC	?is_modulo@?$numeric_limits@_N@std@@2_NB	; std::numeric_limits<bool>::is_modulo
PUBLIC	?is_signed@?$numeric_limits@_N@std@@2_NB	; std::numeric_limits<bool>::is_signed
PUBLIC	?digits@?$numeric_limits@_N@std@@2HB		; std::numeric_limits<bool>::digits
PUBLIC	?digits10@?$numeric_limits@_N@std@@2HB		; std::numeric_limits<bool>::digits10
PUBLIC	?max_digits10@?$numeric_limits@_N@std@@2HB	; std::numeric_limits<bool>::max_digits10
PUBLIC	?is_signed@?$numeric_limits@C@std@@2_NB		; std::numeric_limits<signed char>::is_signed
PUBLIC	?digits@?$numeric_limits@C@std@@2HB		; std::numeric_limits<signed char>::digits
PUBLIC	?digits10@?$numeric_limits@C@std@@2HB		; std::numeric_limits<signed char>::digits10
PUBLIC	?max_digits10@?$numeric_limits@C@std@@2HB	; std::numeric_limits<signed char>::max_digits10
PUBLIC	?is_signed@?$numeric_limits@E@std@@2_NB		; std::numeric_limits<unsigned char>::is_signed
PUBLIC	?digits@?$numeric_limits@E@std@@2HB		; std::numeric_limits<unsigned char>::digits
PUBLIC	?digits10@?$numeric_limits@E@std@@2HB		; std::numeric_limits<unsigned char>::digits10
PUBLIC	?max_digits10@?$numeric_limits@E@std@@2HB	; std::numeric_limits<unsigned char>::max_digits10
PUBLIC	?is_signed@?$numeric_limits@F@std@@2_NB		; std::numeric_limits<short>::is_signed
PUBLIC	?digits@?$numeric_limits@F@std@@2HB		; std::numeric_limits<short>::digits
PUBLIC	?digits10@?$numeric_limits@F@std@@2HB		; std::numeric_limits<short>::digits10
PUBLIC	?max_digits10@?$numeric_limits@F@std@@2HB	; std::numeric_limits<short>::max_digits10
PUBLIC	?is_signed@?$numeric_limits@G@std@@2_NB		; std::numeric_limits<unsigned short>::is_signed
PUBLIC	?digits@?$numeric_limits@G@std@@2HB		; std::numeric_limits<unsigned short>::digits
PUBLIC	?digits10@?$numeric_limits@G@std@@2HB		; std::numeric_limits<unsigned short>::digits10
PUBLIC	?max_digits10@?$numeric_limits@G@std@@2HB	; std::numeric_limits<unsigned short>::max_digits10
PUBLIC	?is_signed@?$numeric_limits@H@std@@2_NB		; std::numeric_limits<int>::is_signed
PUBLIC	?digits@?$numeric_limits@H@std@@2HB		; std::numeric_limits<int>::digits
PUBLIC	?digits10@?$numeric_limits@H@std@@2HB		; std::numeric_limits<int>::digits10
PUBLIC	?max_digits10@?$numeric_limits@H@std@@2HB	; std::numeric_limits<int>::max_digits10
PUBLIC	?is_signed@?$numeric_limits@I@std@@2_NB		; std::numeric_limits<unsigned int>::is_signed
PUBLIC	?digits@?$numeric_limits@I@std@@2HB		; std::numeric_limits<unsigned int>::digits
PUBLIC	?digits10@?$numeric_limits@I@std@@2HB		; std::numeric_limits<unsigned int>::digits10
PUBLIC	?max_digits10@?$numeric_limits@I@std@@2HB	; std::numeric_limits<unsigned int>::max_digits10
PUBLIC	?is_signed@?$numeric_limits@J@std@@2_NB		; std::numeric_limits<long>::is_signed
PUBLIC	?digits@?$numeric_limits@J@std@@2HB		; std::numeric_limits<long>::digits
PUBLIC	?digits10@?$numeric_limits@J@std@@2HB		; std::numeric_limits<long>::digits10
PUBLIC	?max_digits10@?$numeric_limits@J@std@@2HB	; std::numeric_limits<long>::max_digits10
PUBLIC	?is_signed@?$numeric_limits@K@std@@2_NB		; std::numeric_limits<unsigned long>::is_signed
PUBLIC	?digits@?$numeric_limits@K@std@@2HB		; std::numeric_limits<unsigned long>::digits
PUBLIC	?digits10@?$numeric_limits@K@std@@2HB		; std::numeric_limits<unsigned long>::digits10
PUBLIC	?max_digits10@?$numeric_limits@K@std@@2HB	; std::numeric_limits<unsigned long>::max_digits10
PUBLIC	?is_signed@?$numeric_limits@_J@std@@2_NB	; std::numeric_limits<__int64>::is_signed
PUBLIC	?digits@?$numeric_limits@_J@std@@2HB		; std::numeric_limits<__int64>::digits
PUBLIC	?digits10@?$numeric_limits@_J@std@@2HB		; std::numeric_limits<__int64>::digits10
PUBLIC	?max_digits10@?$numeric_limits@_J@std@@2HB	; std::numeric_limits<__int64>::max_digits10
PUBLIC	?is_signed@?$numeric_limits@_K@std@@2_NB	; std::numeric_limits<unsigned __int64>::is_signed
PUBLIC	?digits@?$numeric_limits@_K@std@@2HB		; std::numeric_limits<unsigned __int64>::digits
PUBLIC	?digits10@?$numeric_limits@_K@std@@2HB		; std::numeric_limits<unsigned __int64>::digits10
PUBLIC	?max_digits10@?$numeric_limits@_K@std@@2HB	; std::numeric_limits<unsigned __int64>::max_digits10
PUBLIC	?digits@?$numeric_limits@M@std@@2HB		; std::numeric_limits<float>::digits
PUBLIC	?digits10@?$numeric_limits@M@std@@2HB		; std::numeric_limits<float>::digits10
PUBLIC	?max_digits10@?$numeric_limits@M@std@@2HB	; std::numeric_limits<float>::max_digits10
PUBLIC	?max_exponent@?$numeric_limits@M@std@@2HB	; std::numeric_limits<float>::max_exponent
PUBLIC	?max_exponent10@?$numeric_limits@M@std@@2HB	; std::numeric_limits<float>::max_exponent10
PUBLIC	?min_exponent@?$numeric_limits@M@std@@2HB	; std::numeric_limits<float>::min_exponent
PUBLIC	?min_exponent10@?$numeric_limits@M@std@@2HB	; std::numeric_limits<float>::min_exponent10
PUBLIC	?digits@?$numeric_limits@N@std@@2HB		; std::numeric_limits<double>::digits
PUBLIC	?digits10@?$numeric_limits@N@std@@2HB		; std::numeric_limits<double>::digits10
PUBLIC	?max_digits10@?$numeric_limits@N@std@@2HB	; std::numeric_limits<double>::max_digits10
PUBLIC	?max_exponent@?$numeric_limits@N@std@@2HB	; std::numeric_limits<double>::max_exponent
PUBLIC	?max_exponent10@?$numeric_limits@N@std@@2HB	; std::numeric_limits<double>::max_exponent10
PUBLIC	?min_exponent@?$numeric_limits@N@std@@2HB	; std::numeric_limits<double>::min_exponent
PUBLIC	?min_exponent10@?$numeric_limits@N@std@@2HB	; std::numeric_limits<double>::min_exponent10
PUBLIC	?digits@?$numeric_limits@O@std@@2HB		; std::numeric_limits<long double>::digits
PUBLIC	?digits10@?$numeric_limits@O@std@@2HB		; std::numeric_limits<long double>::digits10
PUBLIC	?max_digits10@?$numeric_limits@O@std@@2HB	; std::numeric_limits<long double>::max_digits10
PUBLIC	?max_exponent@?$numeric_limits@O@std@@2HB	; std::numeric_limits<long double>::max_exponent
PUBLIC	?max_exponent10@?$numeric_limits@O@std@@2HB	; std::numeric_limits<long double>::max_exponent10
PUBLIC	?min_exponent@?$numeric_limits@O@std@@2HB	; std::numeric_limits<long double>::min_exponent
PUBLIC	?min_exponent10@?$numeric_limits@O@std@@2HB	; std::numeric_limits<long double>::min_exponent10
PUBLIC	?value@?$integral_constant@_N$0A@@tr1@std@@2_NB	; std::tr1::integral_constant<bool,0>::value
PUBLIC	?value@?$integral_constant@_N$00@tr1@std@@2_NB	; std::tr1::integral_constant<bool,1>::value
PUBLIC	?value@?$integral_constant@I$0A@@tr1@std@@2IB	; std::tr1::integral_constant<unsigned int,0>::value
PUBLIC	?_Rank@?$_Arithmetic_traits@_N@std@@2HB		; std::_Arithmetic_traits<bool>::_Rank
PUBLIC	?_Rank@?$_Arithmetic_traits@D@std@@2HB		; std::_Arithmetic_traits<char>::_Rank
PUBLIC	?_Rank@?$_Arithmetic_traits@C@std@@2HB		; std::_Arithmetic_traits<signed char>::_Rank
PUBLIC	?_Rank@?$_Arithmetic_traits@E@std@@2HB		; std::_Arithmetic_traits<unsigned char>::_Rank
PUBLIC	?_Rank@?$_Arithmetic_traits@F@std@@2HB		; std::_Arithmetic_traits<short>::_Rank
PUBLIC	?_Rank@?$_Arithmetic_traits@G@std@@2HB		; std::_Arithmetic_traits<unsigned short>::_Rank
PUBLIC	?_Rank@?$_Arithmetic_traits@H@std@@2HB		; std::_Arithmetic_traits<int>::_Rank
PUBLIC	?_Rank@?$_Arithmetic_traits@I@std@@2HB		; std::_Arithmetic_traits<unsigned int>::_Rank
PUBLIC	?_Rank@?$_Arithmetic_traits@J@std@@2HB		; std::_Arithmetic_traits<long>::_Rank
PUBLIC	?_Rank@?$_Arithmetic_traits@K@std@@2HB		; std::_Arithmetic_traits<unsigned long>::_Rank
PUBLIC	?_Rank@?$_Arithmetic_traits@_J@std@@2HB		; std::_Arithmetic_traits<__int64>::_Rank
PUBLIC	?_Rank@?$_Arithmetic_traits@_K@std@@2HB		; std::_Arithmetic_traits<unsigned __int64>::_Rank
PUBLIC	?_Rank@?$_Arithmetic_traits@M@std@@2HB		; std::_Arithmetic_traits<float>::_Rank
PUBLIC	?_Rank@?$_Arithmetic_traits@N@std@@2HB		; std::_Arithmetic_traits<double>::_Rank
PUBLIC	?_Rank@?$_Arithmetic_traits@O@std@@2HB		; std::_Arithmetic_traits<long double>::_Rank
PUBLIC	?collate@?$_Locbase@H@std@@2HB			; std::_Locbase<int>::collate
PUBLIC	?ctype@?$_Locbase@H@std@@2HB			; std::_Locbase<int>::ctype
PUBLIC	?monetary@?$_Locbase@H@std@@2HB			; std::_Locbase<int>::monetary
PUBLIC	?numeric@?$_Locbase@H@std@@2HB			; std::_Locbase<int>::numeric
PUBLIC	?time@?$_Locbase@H@std@@2HB			; std::_Locbase<int>::time
PUBLIC	?messages@?$_Locbase@H@std@@2HB			; std::_Locbase<int>::messages
PUBLIC	?all@?$_Locbase@H@std@@2HB			; std::_Locbase<int>::all
PUBLIC	?none@?$_Locbase@H@std@@2HB			; std::_Locbase<int>::none
PUBLIC	?table_size@?$ctype@D@std@@2IB			; std::ctype<char>::table_size
PUBLIC	?skipws@?$_Iosb@H@std@@2W4_Fmtflags@12@B	; std::_Iosb<int>::skipws
PUBLIC	?unitbuf@?$_Iosb@H@std@@2W4_Fmtflags@12@B	; std::_Iosb<int>::unitbuf
PUBLIC	?uppercase@?$_Iosb@H@std@@2W4_Fmtflags@12@B	; std::_Iosb<int>::uppercase
PUBLIC	?showbase@?$_Iosb@H@std@@2W4_Fmtflags@12@B	; std::_Iosb<int>::showbase
PUBLIC	?showpoint@?$_Iosb@H@std@@2W4_Fmtflags@12@B	; std::_Iosb<int>::showpoint
PUBLIC	?showpos@?$_Iosb@H@std@@2W4_Fmtflags@12@B	; std::_Iosb<int>::showpos
PUBLIC	?left@?$_Iosb@H@std@@2W4_Fmtflags@12@B		; std::_Iosb<int>::left
PUBLIC	?right@?$_Iosb@H@std@@2W4_Fmtflags@12@B		; std::_Iosb<int>::right
PUBLIC	?internal@?$_Iosb@H@std@@2W4_Fmtflags@12@B	; std::_Iosb<int>::internal
PUBLIC	?dec@?$_Iosb@H@std@@2W4_Fmtflags@12@B		; std::_Iosb<int>::dec
PUBLIC	?oct@?$_Iosb@H@std@@2W4_Fmtflags@12@B		; std::_Iosb<int>::oct
PUBLIC	?hex@?$_Iosb@H@std@@2W4_Fmtflags@12@B		; std::_Iosb<int>::hex
PUBLIC	?scientific@?$_Iosb@H@std@@2W4_Fmtflags@12@B	; std::_Iosb<int>::scientific
PUBLIC	?fixed@?$_Iosb@H@std@@2W4_Fmtflags@12@B		; std::_Iosb<int>::fixed
PUBLIC	?hexfloat@?$_Iosb@H@std@@2W4_Fmtflags@12@B	; std::_Iosb<int>::hexfloat
PUBLIC	?boolalpha@?$_Iosb@H@std@@2W4_Fmtflags@12@B	; std::_Iosb<int>::boolalpha
PUBLIC	?_Stdio@?$_Iosb@H@std@@2W4_Fmtflags@12@B	; std::_Iosb<int>::_Stdio
PUBLIC	?adjustfield@?$_Iosb@H@std@@2W4_Fmtflags@12@B	; std::_Iosb<int>::adjustfield
PUBLIC	?basefield@?$_Iosb@H@std@@2W4_Fmtflags@12@B	; std::_Iosb<int>::basefield
PUBLIC	?floatfield@?$_Iosb@H@std@@2W4_Fmtflags@12@B	; std::_Iosb<int>::floatfield
PUBLIC	?goodbit@?$_Iosb@H@std@@2W4_Iostate@12@B	; std::_Iosb<int>::goodbit
PUBLIC	?eofbit@?$_Iosb@H@std@@2W4_Iostate@12@B		; std::_Iosb<int>::eofbit
PUBLIC	?failbit@?$_Iosb@H@std@@2W4_Iostate@12@B	; std::_Iosb<int>::failbit
PUBLIC	?badbit@?$_Iosb@H@std@@2W4_Iostate@12@B		; std::_Iosb<int>::badbit
PUBLIC	?_Hardfail@?$_Iosb@H@std@@2W4_Iostate@12@B	; std::_Iosb<int>::_Hardfail
PUBLIC	?in@?$_Iosb@H@std@@2W4_Openmode@12@B		; std::_Iosb<int>::in
PUBLIC	?out@?$_Iosb@H@std@@2W4_Openmode@12@B		; std::_Iosb<int>::out
PUBLIC	?ate@?$_Iosb@H@std@@2W4_Openmode@12@B		; std::_Iosb<int>::ate
PUBLIC	?app@?$_Iosb@H@std@@2W4_Openmode@12@B		; std::_Iosb<int>::app
PUBLIC	?trunc@?$_Iosb@H@std@@2W4_Openmode@12@B		; std::_Iosb<int>::trunc
PUBLIC	?_Nocreate@?$_Iosb@H@std@@2W4_Openmode@12@B	; std::_Iosb<int>::_Nocreate
PUBLIC	?_Noreplace@?$_Iosb@H@std@@2W4_Openmode@12@B	; std::_Iosb<int>::_Noreplace
PUBLIC	?binary@?$_Iosb@H@std@@2W4_Openmode@12@B	; std::_Iosb<int>::binary
PUBLIC	?beg@?$_Iosb@H@std@@2W4_Seekdir@12@B		; std::_Iosb<int>::beg
PUBLIC	?cur@?$_Iosb@H@std@@2W4_Seekdir@12@B		; std::_Iosb<int>::cur
PUBLIC	?end@?$_Iosb@H@std@@2W4_Seekdir@12@B		; std::_Iosb<int>::end
CONST	SEGMENT
_Pi	DQ	0400921f9f01b866er		; 3.14159
_colors	DD	0ffH
	DD	0ff0000H
	DD	0ff00H
	DD	00H
	DD	0c8c8ffH
	DD	0c8c8c8H
	DD	0ffffH
	DD	0aaffH
	DD	0aa00ffH
	DD	05a85H
	DD	0ffffffH
	DD	06400H
	DD	0ffff00H
	DD	0c8c8c8H
	DD	0e6e6ffH
	ORG $+4
_pi	DQ	0400921f9f01b866er		; 3.14159
_SmallestDelay DQ 03fd0000000000000r		; 0.25
CONST	ENDS
;	COMDAT ?end@?$_Iosb@H@std@@2W4_Seekdir@12@B
CONST	SEGMENT
?end@?$_Iosb@H@std@@2W4_Seekdir@12@B DD 02H		; std::_Iosb<int>::end
CONST	ENDS
;	COMDAT ?cur@?$_Iosb@H@std@@2W4_Seekdir@12@B
CONST	SEGMENT
?cur@?$_Iosb@H@std@@2W4_Seekdir@12@B DD 01H		; std::_Iosb<int>::cur
CONST	ENDS
;	COMDAT ?beg@?$_Iosb@H@std@@2W4_Seekdir@12@B
CONST	SEGMENT
?beg@?$_Iosb@H@std@@2W4_Seekdir@12@B DD 00H		; std::_Iosb<int>::beg
CONST	ENDS
;	COMDAT ?binary@?$_Iosb@H@std@@2W4_Openmode@12@B
CONST	SEGMENT
?binary@?$_Iosb@H@std@@2W4_Openmode@12@B DD 020H	; std::_Iosb<int>::binary
CONST	ENDS
;	COMDAT ?_Noreplace@?$_Iosb@H@std@@2W4_Openmode@12@B
CONST	SEGMENT
?_Noreplace@?$_Iosb@H@std@@2W4_Openmode@12@B DD 080H	; std::_Iosb<int>::_Noreplace
CONST	ENDS
;	COMDAT ?_Nocreate@?$_Iosb@H@std@@2W4_Openmode@12@B
CONST	SEGMENT
?_Nocreate@?$_Iosb@H@std@@2W4_Openmode@12@B DD 040H	; std::_Iosb<int>::_Nocreate
CONST	ENDS
;	COMDAT ?trunc@?$_Iosb@H@std@@2W4_Openmode@12@B
CONST	SEGMENT
?trunc@?$_Iosb@H@std@@2W4_Openmode@12@B DD 010H		; std::_Iosb<int>::trunc
CONST	ENDS
;	COMDAT ?app@?$_Iosb@H@std@@2W4_Openmode@12@B
CONST	SEGMENT
?app@?$_Iosb@H@std@@2W4_Openmode@12@B DD 08H		; std::_Iosb<int>::app
CONST	ENDS
;	COMDAT ?ate@?$_Iosb@H@std@@2W4_Openmode@12@B
CONST	SEGMENT
?ate@?$_Iosb@H@std@@2W4_Openmode@12@B DD 04H		; std::_Iosb<int>::ate
CONST	ENDS
;	COMDAT ?out@?$_Iosb@H@std@@2W4_Openmode@12@B
CONST	SEGMENT
?out@?$_Iosb@H@std@@2W4_Openmode@12@B DD 02H		; std::_Iosb<int>::out
CONST	ENDS
;	COMDAT ?in@?$_Iosb@H@std@@2W4_Openmode@12@B
CONST	SEGMENT
?in@?$_Iosb@H@std@@2W4_Openmode@12@B DD 01H		; std::_Iosb<int>::in
CONST	ENDS
;	COMDAT ?_Hardfail@?$_Iosb@H@std@@2W4_Iostate@12@B
CONST	SEGMENT
?_Hardfail@?$_Iosb@H@std@@2W4_Iostate@12@B DD 010H	; std::_Iosb<int>::_Hardfail
CONST	ENDS
;	COMDAT ?badbit@?$_Iosb@H@std@@2W4_Iostate@12@B
CONST	SEGMENT
?badbit@?$_Iosb@H@std@@2W4_Iostate@12@B DD 04H		; std::_Iosb<int>::badbit
CONST	ENDS
;	COMDAT ?failbit@?$_Iosb@H@std@@2W4_Iostate@12@B
CONST	SEGMENT
?failbit@?$_Iosb@H@std@@2W4_Iostate@12@B DD 02H		; std::_Iosb<int>::failbit
CONST	ENDS
;	COMDAT ?eofbit@?$_Iosb@H@std@@2W4_Iostate@12@B
CONST	SEGMENT
?eofbit@?$_Iosb@H@std@@2W4_Iostate@12@B DD 01H		; std::_Iosb<int>::eofbit
CONST	ENDS
;	COMDAT ?goodbit@?$_Iosb@H@std@@2W4_Iostate@12@B
CONST	SEGMENT
?goodbit@?$_Iosb@H@std@@2W4_Iostate@12@B DD 00H		; std::_Iosb<int>::goodbit
CONST	ENDS
;	COMDAT ?floatfield@?$_Iosb@H@std@@2W4_Fmtflags@12@B
CONST	SEGMENT
?floatfield@?$_Iosb@H@std@@2W4_Fmtflags@12@B DD 03000H	; std::_Iosb<int>::floatfield
CONST	ENDS
;	COMDAT ?basefield@?$_Iosb@H@std@@2W4_Fmtflags@12@B
CONST	SEGMENT
?basefield@?$_Iosb@H@std@@2W4_Fmtflags@12@B DD 0e00H	; std::_Iosb<int>::basefield
CONST	ENDS
;	COMDAT ?adjustfield@?$_Iosb@H@std@@2W4_Fmtflags@12@B
CONST	SEGMENT
?adjustfield@?$_Iosb@H@std@@2W4_Fmtflags@12@B DD 01c0H	; std::_Iosb<int>::adjustfield
CONST	ENDS
;	COMDAT ?_Stdio@?$_Iosb@H@std@@2W4_Fmtflags@12@B
CONST	SEGMENT
?_Stdio@?$_Iosb@H@std@@2W4_Fmtflags@12@B DD 08000H	; std::_Iosb<int>::_Stdio
CONST	ENDS
;	COMDAT ?boolalpha@?$_Iosb@H@std@@2W4_Fmtflags@12@B
CONST	SEGMENT
?boolalpha@?$_Iosb@H@std@@2W4_Fmtflags@12@B DD 04000H	; std::_Iosb<int>::boolalpha
CONST	ENDS
;	COMDAT ?hexfloat@?$_Iosb@H@std@@2W4_Fmtflags@12@B
CONST	SEGMENT
?hexfloat@?$_Iosb@H@std@@2W4_Fmtflags@12@B DD 03000H	; std::_Iosb<int>::hexfloat
CONST	ENDS
;	COMDAT ?fixed@?$_Iosb@H@std@@2W4_Fmtflags@12@B
CONST	SEGMENT
?fixed@?$_Iosb@H@std@@2W4_Fmtflags@12@B DD 02000H	; std::_Iosb<int>::fixed
CONST	ENDS
;	COMDAT ?scientific@?$_Iosb@H@std@@2W4_Fmtflags@12@B
CONST	SEGMENT
?scientific@?$_Iosb@H@std@@2W4_Fmtflags@12@B DD 01000H	; std::_Iosb<int>::scientific
CONST	ENDS
;	COMDAT ?hex@?$_Iosb@H@std@@2W4_Fmtflags@12@B
CONST	SEGMENT
?hex@?$_Iosb@H@std@@2W4_Fmtflags@12@B DD 0800H		; std::_Iosb<int>::hex
CONST	ENDS
;	COMDAT ?oct@?$_Iosb@H@std@@2W4_Fmtflags@12@B
CONST	SEGMENT
?oct@?$_Iosb@H@std@@2W4_Fmtflags@12@B DD 0400H		; std::_Iosb<int>::oct
CONST	ENDS
;	COMDAT ?dec@?$_Iosb@H@std@@2W4_Fmtflags@12@B
CONST	SEGMENT
?dec@?$_Iosb@H@std@@2W4_Fmtflags@12@B DD 0200H		; std::_Iosb<int>::dec
CONST	ENDS
;	COMDAT ?internal@?$_Iosb@H@std@@2W4_Fmtflags@12@B
CONST	SEGMENT
?internal@?$_Iosb@H@std@@2W4_Fmtflags@12@B DD 0100H	; std::_Iosb<int>::internal
CONST	ENDS
;	COMDAT ?right@?$_Iosb@H@std@@2W4_Fmtflags@12@B
CONST	SEGMENT
?right@?$_Iosb@H@std@@2W4_Fmtflags@12@B DD 080H		; std::_Iosb<int>::right
CONST	ENDS
;	COMDAT ?left@?$_Iosb@H@std@@2W4_Fmtflags@12@B
CONST	SEGMENT
?left@?$_Iosb@H@std@@2W4_Fmtflags@12@B DD 040H		; std::_Iosb<int>::left
CONST	ENDS
;	COMDAT ?showpos@?$_Iosb@H@std@@2W4_Fmtflags@12@B
CONST	SEGMENT
?showpos@?$_Iosb@H@std@@2W4_Fmtflags@12@B DD 020H	; std::_Iosb<int>::showpos
CONST	ENDS
;	COMDAT ?showpoint@?$_Iosb@H@std@@2W4_Fmtflags@12@B
CONST	SEGMENT
?showpoint@?$_Iosb@H@std@@2W4_Fmtflags@12@B DD 010H	; std::_Iosb<int>::showpoint
CONST	ENDS
;	COMDAT ?showbase@?$_Iosb@H@std@@2W4_Fmtflags@12@B
CONST	SEGMENT
?showbase@?$_Iosb@H@std@@2W4_Fmtflags@12@B DD 08H	; std::_Iosb<int>::showbase
CONST	ENDS
;	COMDAT ?uppercase@?$_Iosb@H@std@@2W4_Fmtflags@12@B
CONST	SEGMENT
?uppercase@?$_Iosb@H@std@@2W4_Fmtflags@12@B DD 04H	; std::_Iosb<int>::uppercase
CONST	ENDS
;	COMDAT ?unitbuf@?$_Iosb@H@std@@2W4_Fmtflags@12@B
CONST	SEGMENT
?unitbuf@?$_Iosb@H@std@@2W4_Fmtflags@12@B DD 02H	; std::_Iosb<int>::unitbuf
CONST	ENDS
;	COMDAT ?skipws@?$_Iosb@H@std@@2W4_Fmtflags@12@B
CONST	SEGMENT
?skipws@?$_Iosb@H@std@@2W4_Fmtflags@12@B DD 01H		; std::_Iosb<int>::skipws
CONST	ENDS
;	COMDAT ?table_size@?$ctype@D@std@@2IB
CONST	SEGMENT
?table_size@?$ctype@D@std@@2IB DD 0100H			; std::ctype<char>::table_size
CONST	ENDS
;	COMDAT ?none@?$_Locbase@H@std@@2HB
CONST	SEGMENT
?none@?$_Locbase@H@std@@2HB DD 00H			; std::_Locbase<int>::none
CONST	ENDS
;	COMDAT ?all@?$_Locbase@H@std@@2HB
CONST	SEGMENT
?all@?$_Locbase@H@std@@2HB DD 03fH			; std::_Locbase<int>::all
CONST	ENDS
;	COMDAT ?messages@?$_Locbase@H@std@@2HB
CONST	SEGMENT
?messages@?$_Locbase@H@std@@2HB DD 020H			; std::_Locbase<int>::messages
CONST	ENDS
;	COMDAT ?time@?$_Locbase@H@std@@2HB
CONST	SEGMENT
?time@?$_Locbase@H@std@@2HB DD 010H			; std::_Locbase<int>::time
CONST	ENDS
;	COMDAT ?numeric@?$_Locbase@H@std@@2HB
CONST	SEGMENT
?numeric@?$_Locbase@H@std@@2HB DD 08H			; std::_Locbase<int>::numeric
CONST	ENDS
;	COMDAT ?monetary@?$_Locbase@H@std@@2HB
CONST	SEGMENT
?monetary@?$_Locbase@H@std@@2HB DD 04H			; std::_Locbase<int>::monetary
CONST	ENDS
;	COMDAT ?ctype@?$_Locbase@H@std@@2HB
CONST	SEGMENT
?ctype@?$_Locbase@H@std@@2HB DD 02H			; std::_Locbase<int>::ctype
CONST	ENDS
;	COMDAT ?collate@?$_Locbase@H@std@@2HB
CONST	SEGMENT
?collate@?$_Locbase@H@std@@2HB DD 01H			; std::_Locbase<int>::collate
CONST	ENDS
;	COMDAT ?_Rank@?$_Arithmetic_traits@O@std@@2HB
CONST	SEGMENT
?_Rank@?$_Arithmetic_traits@O@std@@2HB DD 09H		; std::_Arithmetic_traits<long double>::_Rank
CONST	ENDS
;	COMDAT ?_Rank@?$_Arithmetic_traits@N@std@@2HB
CONST	SEGMENT
?_Rank@?$_Arithmetic_traits@N@std@@2HB DD 08H		; std::_Arithmetic_traits<double>::_Rank
CONST	ENDS
;	COMDAT ?_Rank@?$_Arithmetic_traits@M@std@@2HB
CONST	SEGMENT
?_Rank@?$_Arithmetic_traits@M@std@@2HB DD 07H		; std::_Arithmetic_traits<float>::_Rank
CONST	ENDS
;	COMDAT ?_Rank@?$_Arithmetic_traits@_K@std@@2HB
CONST	SEGMENT
?_Rank@?$_Arithmetic_traits@_K@std@@2HB DD 06H		; std::_Arithmetic_traits<unsigned __int64>::_Rank
CONST	ENDS
;	COMDAT ?_Rank@?$_Arithmetic_traits@_J@std@@2HB
CONST	SEGMENT
?_Rank@?$_Arithmetic_traits@_J@std@@2HB DD 06H		; std::_Arithmetic_traits<__int64>::_Rank
CONST	ENDS
;	COMDAT ?_Rank@?$_Arithmetic_traits@K@std@@2HB
CONST	SEGMENT
?_Rank@?$_Arithmetic_traits@K@std@@2HB DD 05H		; std::_Arithmetic_traits<unsigned long>::_Rank
CONST	ENDS
;	COMDAT ?_Rank@?$_Arithmetic_traits@J@std@@2HB
CONST	SEGMENT
?_Rank@?$_Arithmetic_traits@J@std@@2HB DD 05H		; std::_Arithmetic_traits<long>::_Rank
CONST	ENDS
;	COMDAT ?_Rank@?$_Arithmetic_traits@I@std@@2HB
CONST	SEGMENT
?_Rank@?$_Arithmetic_traits@I@std@@2HB DD 04H		; std::_Arithmetic_traits<unsigned int>::_Rank
CONST	ENDS
;	COMDAT ?_Rank@?$_Arithmetic_traits@H@std@@2HB
CONST	SEGMENT
?_Rank@?$_Arithmetic_traits@H@std@@2HB DD 04H		; std::_Arithmetic_traits<int>::_Rank
CONST	ENDS
;	COMDAT ?_Rank@?$_Arithmetic_traits@G@std@@2HB
CONST	SEGMENT
?_Rank@?$_Arithmetic_traits@G@std@@2HB DD 03H		; std::_Arithmetic_traits<unsigned short>::_Rank
CONST	ENDS
;	COMDAT ?_Rank@?$_Arithmetic_traits@F@std@@2HB
CONST	SEGMENT
?_Rank@?$_Arithmetic_traits@F@std@@2HB DD 03H		; std::_Arithmetic_traits<short>::_Rank
CONST	ENDS
;	COMDAT ?_Rank@?$_Arithmetic_traits@E@std@@2HB
CONST	SEGMENT
?_Rank@?$_Arithmetic_traits@E@std@@2HB DD 02H		; std::_Arithmetic_traits<unsigned char>::_Rank
CONST	ENDS
;	COMDAT ?_Rank@?$_Arithmetic_traits@C@std@@2HB
CONST	SEGMENT
?_Rank@?$_Arithmetic_traits@C@std@@2HB DD 02H		; std::_Arithmetic_traits<signed char>::_Rank
CONST	ENDS
;	COMDAT ?_Rank@?$_Arithmetic_traits@D@std@@2HB
CONST	SEGMENT
?_Rank@?$_Arithmetic_traits@D@std@@2HB DD 02H		; std::_Arithmetic_traits<char>::_Rank
CONST	ENDS
;	COMDAT ?_Rank@?$_Arithmetic_traits@_N@std@@2HB
CONST	SEGMENT
?_Rank@?$_Arithmetic_traits@_N@std@@2HB DD 01H		; std::_Arithmetic_traits<bool>::_Rank
CONST	ENDS
;	COMDAT ?value@?$integral_constant@I$0A@@tr1@std@@2IB
CONST	SEGMENT
?value@?$integral_constant@I$0A@@tr1@std@@2IB DD 00H	; std::tr1::integral_constant<unsigned int,0>::value
CONST	ENDS
;	COMDAT ?value@?$integral_constant@_N$00@tr1@std@@2_NB
CONST	SEGMENT
?value@?$integral_constant@_N$00@tr1@std@@2_NB DB 01H	; std::tr1::integral_constant<bool,1>::value
CONST	ENDS
;	COMDAT ?value@?$integral_constant@_N$0A@@tr1@std@@2_NB
CONST	SEGMENT
?value@?$integral_constant@_N$0A@@tr1@std@@2_NB DB 00H	; std::tr1::integral_constant<bool,0>::value
CONST	ENDS
;	COMDAT ?min_exponent10@?$numeric_limits@O@std@@2HB
CONST	SEGMENT
?min_exponent10@?$numeric_limits@O@std@@2HB DD 0fffffecdH ; std::numeric_limits<long double>::min_exponent10
CONST	ENDS
;	COMDAT ?min_exponent@?$numeric_limits@O@std@@2HB
CONST	SEGMENT
?min_exponent@?$numeric_limits@O@std@@2HB DD 0fffffc03H	; std::numeric_limits<long double>::min_exponent
CONST	ENDS
;	COMDAT ?max_exponent10@?$numeric_limits@O@std@@2HB
CONST	SEGMENT
?max_exponent10@?$numeric_limits@O@std@@2HB DD 0134H	; std::numeric_limits<long double>::max_exponent10
CONST	ENDS
;	COMDAT ?max_exponent@?$numeric_limits@O@std@@2HB
CONST	SEGMENT
?max_exponent@?$numeric_limits@O@std@@2HB DD 0400H	; std::numeric_limits<long double>::max_exponent
CONST	ENDS
;	COMDAT ?max_digits10@?$numeric_limits@O@std@@2HB
CONST	SEGMENT
?max_digits10@?$numeric_limits@O@std@@2HB DD 011H	; std::numeric_limits<long double>::max_digits10
CONST	ENDS
;	COMDAT ?digits10@?$numeric_limits@O@std@@2HB
CONST	SEGMENT
?digits10@?$numeric_limits@O@std@@2HB DD 0fH		; std::numeric_limits<long double>::digits10
CONST	ENDS
;	COMDAT ?digits@?$numeric_limits@O@std@@2HB
CONST	SEGMENT
?digits@?$numeric_limits@O@std@@2HB DD 035H		; std::numeric_limits<long double>::digits
CONST	ENDS
;	COMDAT ?min_exponent10@?$numeric_limits@N@std@@2HB
CONST	SEGMENT
?min_exponent10@?$numeric_limits@N@std@@2HB DD 0fffffecdH ; std::numeric_limits<double>::min_exponent10
CONST	ENDS
;	COMDAT ?min_exponent@?$numeric_limits@N@std@@2HB
CONST	SEGMENT
?min_exponent@?$numeric_limits@N@std@@2HB DD 0fffffc03H	; std::numeric_limits<double>::min_exponent
CONST	ENDS
;	COMDAT ?max_exponent10@?$numeric_limits@N@std@@2HB
CONST	SEGMENT
?max_exponent10@?$numeric_limits@N@std@@2HB DD 0134H	; std::numeric_limits<double>::max_exponent10
CONST	ENDS
;	COMDAT ?max_exponent@?$numeric_limits@N@std@@2HB
CONST	SEGMENT
?max_exponent@?$numeric_limits@N@std@@2HB DD 0400H	; std::numeric_limits<double>::max_exponent
CONST	ENDS
;	COMDAT ?max_digits10@?$numeric_limits@N@std@@2HB
CONST	SEGMENT
?max_digits10@?$numeric_limits@N@std@@2HB DD 011H	; std::numeric_limits<double>::max_digits10
CONST	ENDS
;	COMDAT ?digits10@?$numeric_limits@N@std@@2HB
CONST	SEGMENT
?digits10@?$numeric_limits@N@std@@2HB DD 0fH		; std::numeric_limits<double>::digits10
CONST	ENDS
;	COMDAT ?digits@?$numeric_limits@N@std@@2HB
CONST	SEGMENT
?digits@?$numeric_limits@N@std@@2HB DD 035H		; std::numeric_limits<double>::digits
CONST	ENDS
;	COMDAT ?min_exponent10@?$numeric_limits@M@std@@2HB
CONST	SEGMENT
?min_exponent10@?$numeric_limits@M@std@@2HB DD 0ffffffdbH ; std::numeric_limits<float>::min_exponent10
CONST	ENDS
;	COMDAT ?min_exponent@?$numeric_limits@M@std@@2HB
CONST	SEGMENT
?min_exponent@?$numeric_limits@M@std@@2HB DD 0ffffff83H	; std::numeric_limits<float>::min_exponent
CONST	ENDS
;	COMDAT ?max_exponent10@?$numeric_limits@M@std@@2HB
CONST	SEGMENT
?max_exponent10@?$numeric_limits@M@std@@2HB DD 026H	; std::numeric_limits<float>::max_exponent10
CONST	ENDS
;	COMDAT ?max_exponent@?$numeric_limits@M@std@@2HB
CONST	SEGMENT
?max_exponent@?$numeric_limits@M@std@@2HB DD 080H	; std::numeric_limits<float>::max_exponent
CONST	ENDS
;	COMDAT ?max_digits10@?$numeric_limits@M@std@@2HB
CONST	SEGMENT
?max_digits10@?$numeric_limits@M@std@@2HB DD 08H	; std::numeric_limits<float>::max_digits10
CONST	ENDS
;	COMDAT ?digits10@?$numeric_limits@M@std@@2HB
CONST	SEGMENT
?digits10@?$numeric_limits@M@std@@2HB DD 06H		; std::numeric_limits<float>::digits10
CONST	ENDS
;	COMDAT ?digits@?$numeric_limits@M@std@@2HB
CONST	SEGMENT
?digits@?$numeric_limits@M@std@@2HB DD 018H		; std::numeric_limits<float>::digits
CONST	ENDS
;	COMDAT ?max_digits10@?$numeric_limits@_K@std@@2HB
CONST	SEGMENT
?max_digits10@?$numeric_limits@_K@std@@2HB DD 015H	; std::numeric_limits<unsigned __int64>::max_digits10
CONST	ENDS
;	COMDAT ?digits10@?$numeric_limits@_K@std@@2HB
CONST	SEGMENT
?digits10@?$numeric_limits@_K@std@@2HB DD 013H		; std::numeric_limits<unsigned __int64>::digits10
CONST	ENDS
;	COMDAT ?digits@?$numeric_limits@_K@std@@2HB
CONST	SEGMENT
?digits@?$numeric_limits@_K@std@@2HB DD 040H		; std::numeric_limits<unsigned __int64>::digits
CONST	ENDS
;	COMDAT ?is_signed@?$numeric_limits@_K@std@@2_NB
CONST	SEGMENT
?is_signed@?$numeric_limits@_K@std@@2_NB DB 00H		; std::numeric_limits<unsigned __int64>::is_signed
CONST	ENDS
;	COMDAT ?max_digits10@?$numeric_limits@_J@std@@2HB
CONST	SEGMENT
?max_digits10@?$numeric_limits@_J@std@@2HB DD 014H	; std::numeric_limits<__int64>::max_digits10
CONST	ENDS
;	COMDAT ?digits10@?$numeric_limits@_J@std@@2HB
CONST	SEGMENT
?digits10@?$numeric_limits@_J@std@@2HB DD 012H		; std::numeric_limits<__int64>::digits10
CONST	ENDS
;	COMDAT ?digits@?$numeric_limits@_J@std@@2HB
CONST	SEGMENT
?digits@?$numeric_limits@_J@std@@2HB DD 03fH		; std::numeric_limits<__int64>::digits
CONST	ENDS
;	COMDAT ?is_signed@?$numeric_limits@_J@std@@2_NB
CONST	SEGMENT
?is_signed@?$numeric_limits@_J@std@@2_NB DB 01H		; std::numeric_limits<__int64>::is_signed
CONST	ENDS
;	COMDAT ?max_digits10@?$numeric_limits@K@std@@2HB
CONST	SEGMENT
?max_digits10@?$numeric_limits@K@std@@2HB DD 0bH	; std::numeric_limits<unsigned long>::max_digits10
CONST	ENDS
;	COMDAT ?digits10@?$numeric_limits@K@std@@2HB
CONST	SEGMENT
?digits10@?$numeric_limits@K@std@@2HB DD 09H		; std::numeric_limits<unsigned long>::digits10
CONST	ENDS
;	COMDAT ?digits@?$numeric_limits@K@std@@2HB
CONST	SEGMENT
?digits@?$numeric_limits@K@std@@2HB DD 020H		; std::numeric_limits<unsigned long>::digits
CONST	ENDS
;	COMDAT ?is_signed@?$numeric_limits@K@std@@2_NB
CONST	SEGMENT
?is_signed@?$numeric_limits@K@std@@2_NB DB 00H		; std::numeric_limits<unsigned long>::is_signed
CONST	ENDS
;	COMDAT ?max_digits10@?$numeric_limits@J@std@@2HB
CONST	SEGMENT
?max_digits10@?$numeric_limits@J@std@@2HB DD 0bH	; std::numeric_limits<long>::max_digits10
CONST	ENDS
;	COMDAT ?digits10@?$numeric_limits@J@std@@2HB
CONST	SEGMENT
?digits10@?$numeric_limits@J@std@@2HB DD 09H		; std::numeric_limits<long>::digits10
CONST	ENDS
;	COMDAT ?digits@?$numeric_limits@J@std@@2HB
CONST	SEGMENT
?digits@?$numeric_limits@J@std@@2HB DD 01fH		; std::numeric_limits<long>::digits
CONST	ENDS
;	COMDAT ?is_signed@?$numeric_limits@J@std@@2_NB
CONST	SEGMENT
?is_signed@?$numeric_limits@J@std@@2_NB DB 01H		; std::numeric_limits<long>::is_signed
CONST	ENDS
;	COMDAT ?max_digits10@?$numeric_limits@I@std@@2HB
CONST	SEGMENT
?max_digits10@?$numeric_limits@I@std@@2HB DD 0bH	; std::numeric_limits<unsigned int>::max_digits10
CONST	ENDS
;	COMDAT ?digits10@?$numeric_limits@I@std@@2HB
CONST	SEGMENT
?digits10@?$numeric_limits@I@std@@2HB DD 09H		; std::numeric_limits<unsigned int>::digits10
CONST	ENDS
;	COMDAT ?digits@?$numeric_limits@I@std@@2HB
CONST	SEGMENT
?digits@?$numeric_limits@I@std@@2HB DD 020H		; std::numeric_limits<unsigned int>::digits
CONST	ENDS
;	COMDAT ?is_signed@?$numeric_limits@I@std@@2_NB
CONST	SEGMENT
?is_signed@?$numeric_limits@I@std@@2_NB DB 00H		; std::numeric_limits<unsigned int>::is_signed
CONST	ENDS
;	COMDAT ?max_digits10@?$numeric_limits@H@std@@2HB
CONST	SEGMENT
?max_digits10@?$numeric_limits@H@std@@2HB DD 0bH	; std::numeric_limits<int>::max_digits10
CONST	ENDS
;	COMDAT ?digits10@?$numeric_limits@H@std@@2HB
CONST	SEGMENT
?digits10@?$numeric_limits@H@std@@2HB DD 09H		; std::numeric_limits<int>::digits10
CONST	ENDS
;	COMDAT ?digits@?$numeric_limits@H@std@@2HB
CONST	SEGMENT
?digits@?$numeric_limits@H@std@@2HB DD 01fH		; std::numeric_limits<int>::digits
CONST	ENDS
;	COMDAT ?is_signed@?$numeric_limits@H@std@@2_NB
CONST	SEGMENT
?is_signed@?$numeric_limits@H@std@@2_NB DB 01H		; std::numeric_limits<int>::is_signed
CONST	ENDS
;	COMDAT ?max_digits10@?$numeric_limits@G@std@@2HB
CONST	SEGMENT
?max_digits10@?$numeric_limits@G@std@@2HB DD 06H	; std::numeric_limits<unsigned short>::max_digits10
CONST	ENDS
;	COMDAT ?digits10@?$numeric_limits@G@std@@2HB
CONST	SEGMENT
?digits10@?$numeric_limits@G@std@@2HB DD 04H		; std::numeric_limits<unsigned short>::digits10
CONST	ENDS
;	COMDAT ?digits@?$numeric_limits@G@std@@2HB
CONST	SEGMENT
?digits@?$numeric_limits@G@std@@2HB DD 010H		; std::numeric_limits<unsigned short>::digits
CONST	ENDS
;	COMDAT ?is_signed@?$numeric_limits@G@std@@2_NB
CONST	SEGMENT
?is_signed@?$numeric_limits@G@std@@2_NB DB 00H		; std::numeric_limits<unsigned short>::is_signed
CONST	ENDS
;	COMDAT ?max_digits10@?$numeric_limits@F@std@@2HB
CONST	SEGMENT
?max_digits10@?$numeric_limits@F@std@@2HB DD 06H	; std::numeric_limits<short>::max_digits10
CONST	ENDS
;	COMDAT ?digits10@?$numeric_limits@F@std@@2HB
CONST	SEGMENT
?digits10@?$numeric_limits@F@std@@2HB DD 04H		; std::numeric_limits<short>::digits10
CONST	ENDS
;	COMDAT ?digits@?$numeric_limits@F@std@@2HB
CONST	SEGMENT
?digits@?$numeric_limits@F@std@@2HB DD 0fH		; std::numeric_limits<short>::digits
CONST	ENDS
;	COMDAT ?is_signed@?$numeric_limits@F@std@@2_NB
CONST	SEGMENT
?is_signed@?$numeric_limits@F@std@@2_NB DB 01H		; std::numeric_limits<short>::is_signed
CONST	ENDS
;	COMDAT ?max_digits10@?$numeric_limits@E@std@@2HB
CONST	SEGMENT
?max_digits10@?$numeric_limits@E@std@@2HB DD 04H	; std::numeric_limits<unsigned char>::max_digits10
CONST	ENDS
;	COMDAT ?digits10@?$numeric_limits@E@std@@2HB
CONST	SEGMENT
?digits10@?$numeric_limits@E@std@@2HB DD 02H		; std::numeric_limits<unsigned char>::digits10
CONST	ENDS
;	COMDAT ?digits@?$numeric_limits@E@std@@2HB
CONST	SEGMENT
?digits@?$numeric_limits@E@std@@2HB DD 08H		; std::numeric_limits<unsigned char>::digits
CONST	ENDS
;	COMDAT ?is_signed@?$numeric_limits@E@std@@2_NB
CONST	SEGMENT
?is_signed@?$numeric_limits@E@std@@2_NB DB 00H		; std::numeric_limits<unsigned char>::is_signed
CONST	ENDS
;	COMDAT ?max_digits10@?$numeric_limits@C@std@@2HB
CONST	SEGMENT
?max_digits10@?$numeric_limits@C@std@@2HB DD 04H	; std::numeric_limits<signed char>::max_digits10
CONST	ENDS
;	COMDAT ?digits10@?$numeric_limits@C@std@@2HB
CONST	SEGMENT
?digits10@?$numeric_limits@C@std@@2HB DD 02H		; std::numeric_limits<signed char>::digits10
CONST	ENDS
;	COMDAT ?digits@?$numeric_limits@C@std@@2HB
CONST	SEGMENT
?digits@?$numeric_limits@C@std@@2HB DD 07H		; std::numeric_limits<signed char>::digits
CONST	ENDS
;	COMDAT ?is_signed@?$numeric_limits@C@std@@2_NB
CONST	SEGMENT
?is_signed@?$numeric_limits@C@std@@2_NB DB 01H		; std::numeric_limits<signed char>::is_signed
CONST	ENDS
;	COMDAT ?max_digits10@?$numeric_limits@_N@std@@2HB
CONST	SEGMENT
?max_digits10@?$numeric_limits@_N@std@@2HB DD 00H	; std::numeric_limits<bool>::max_digits10
CONST	ENDS
;	COMDAT ?digits10@?$numeric_limits@_N@std@@2HB
CONST	SEGMENT
?digits10@?$numeric_limits@_N@std@@2HB DD 00H		; std::numeric_limits<bool>::digits10
CONST	ENDS
;	COMDAT ?digits@?$numeric_limits@_N@std@@2HB
CONST	SEGMENT
?digits@?$numeric_limits@_N@std@@2HB DD 01H		; std::numeric_limits<bool>::digits
CONST	ENDS
;	COMDAT ?is_signed@?$numeric_limits@_N@std@@2_NB
CONST	SEGMENT
?is_signed@?$numeric_limits@_N@std@@2_NB DB 00H		; std::numeric_limits<bool>::is_signed
CONST	ENDS
;	COMDAT ?is_modulo@?$numeric_limits@_N@std@@2_NB
CONST	SEGMENT
?is_modulo@?$numeric_limits@_N@std@@2_NB DB 00H		; std::numeric_limits<bool>::is_modulo
CONST	ENDS
;	COMDAT ?max_digits10@?$numeric_limits@_W@std@@2HB
CONST	SEGMENT
?max_digits10@?$numeric_limits@_W@std@@2HB DD 06H	; std::numeric_limits<wchar_t>::max_digits10
CONST	ENDS
;	COMDAT ?digits10@?$numeric_limits@_W@std@@2HB
CONST	SEGMENT
?digits10@?$numeric_limits@_W@std@@2HB DD 04H		; std::numeric_limits<wchar_t>::digits10
CONST	ENDS
;	COMDAT ?digits@?$numeric_limits@_W@std@@2HB
CONST	SEGMENT
?digits@?$numeric_limits@_W@std@@2HB DD 010H		; std::numeric_limits<wchar_t>::digits
CONST	ENDS
;	COMDAT ?is_signed@?$numeric_limits@_W@std@@2_NB
CONST	SEGMENT
?is_signed@?$numeric_limits@_W@std@@2_NB DB 00H		; std::numeric_limits<wchar_t>::is_signed
CONST	ENDS
;	COMDAT ?max_digits10@?$numeric_limits@D@std@@2HB
CONST	SEGMENT
?max_digits10@?$numeric_limits@D@std@@2HB DD 04H	; std::numeric_limits<char>::max_digits10
CONST	ENDS
;	COMDAT ?digits10@?$numeric_limits@D@std@@2HB
CONST	SEGMENT
?digits10@?$numeric_limits@D@std@@2HB DD 02H		; std::numeric_limits<char>::digits10
CONST	ENDS
;	COMDAT ?digits@?$numeric_limits@D@std@@2HB
CONST	SEGMENT
?digits@?$numeric_limits@D@std@@2HB DD 07H		; std::numeric_limits<char>::digits
CONST	ENDS
;	COMDAT ?is_signed@?$numeric_limits@D@std@@2_NB
CONST	SEGMENT
?is_signed@?$numeric_limits@D@std@@2_NB DB 01H		; std::numeric_limits<char>::is_signed
CONST	ENDS
;	COMDAT ?radix@_Num_float_base@std@@2HB
CONST	SEGMENT
?radix@_Num_float_base@std@@2HB DD 02H			; std::_Num_float_base::radix
CONST	ENDS
;	COMDAT ?round_style@_Num_float_base@std@@2W4float_round_style@2@B
CONST	SEGMENT
?round_style@_Num_float_base@std@@2W4float_round_style@2@B DD 01H ; std::_Num_float_base::round_style
CONST	ENDS
;	COMDAT ?traps@_Num_float_base@std@@2_NB
CONST	SEGMENT
?traps@_Num_float_base@std@@2_NB DB 01H			; std::_Num_float_base::traps
CONST	ENDS
;	COMDAT ?tinyness_before@_Num_float_base@std@@2_NB
CONST	SEGMENT
?tinyness_before@_Num_float_base@std@@2_NB DB 01H	; std::_Num_float_base::tinyness_before
CONST	ENDS
;	COMDAT ?is_specialized@_Num_float_base@std@@2_NB
CONST	SEGMENT
?is_specialized@_Num_float_base@std@@2_NB DB 01H	; std::_Num_float_base::is_specialized
CONST	ENDS
;	COMDAT ?is_signed@_Num_float_base@std@@2_NB
CONST	SEGMENT
?is_signed@_Num_float_base@std@@2_NB DB 01H		; std::_Num_float_base::is_signed
CONST	ENDS
;	COMDAT ?is_modulo@_Num_float_base@std@@2_NB
CONST	SEGMENT
?is_modulo@_Num_float_base@std@@2_NB DB 00H		; std::_Num_float_base::is_modulo
CONST	ENDS
;	COMDAT ?is_integer@_Num_float_base@std@@2_NB
CONST	SEGMENT
?is_integer@_Num_float_base@std@@2_NB DB 00H		; std::_Num_float_base::is_integer
CONST	ENDS
;	COMDAT ?is_iec559@_Num_float_base@std@@2_NB
CONST	SEGMENT
?is_iec559@_Num_float_base@std@@2_NB DB 01H		; std::_Num_float_base::is_iec559
CONST	ENDS
;	COMDAT ?is_exact@_Num_float_base@std@@2_NB
CONST	SEGMENT
?is_exact@_Num_float_base@std@@2_NB DB 00H		; std::_Num_float_base::is_exact
CONST	ENDS
;	COMDAT ?is_bounded@_Num_float_base@std@@2_NB
CONST	SEGMENT
?is_bounded@_Num_float_base@std@@2_NB DB 01H		; std::_Num_float_base::is_bounded
CONST	ENDS
;	COMDAT ?has_signaling_NaN@_Num_float_base@std@@2_NB
CONST	SEGMENT
?has_signaling_NaN@_Num_float_base@std@@2_NB DB 01H	; std::_Num_float_base::has_signaling_NaN
CONST	ENDS
;	COMDAT ?has_quiet_NaN@_Num_float_base@std@@2_NB
CONST	SEGMENT
?has_quiet_NaN@_Num_float_base@std@@2_NB DB 01H		; std::_Num_float_base::has_quiet_NaN
CONST	ENDS
;	COMDAT ?has_infinity@_Num_float_base@std@@2_NB
CONST	SEGMENT
?has_infinity@_Num_float_base@std@@2_NB DB 01H		; std::_Num_float_base::has_infinity
CONST	ENDS
;	COMDAT ?has_denorm_loss@_Num_float_base@std@@2_NB
CONST	SEGMENT
?has_denorm_loss@_Num_float_base@std@@2_NB DB 01H	; std::_Num_float_base::has_denorm_loss
CONST	ENDS
;	COMDAT ?has_denorm@_Num_float_base@std@@2W4float_denorm_style@2@B
CONST	SEGMENT
?has_denorm@_Num_float_base@std@@2W4float_denorm_style@2@B DD 01H ; std::_Num_float_base::has_denorm
CONST	ENDS
;	COMDAT ?radix@_Num_int_base@std@@2HB
CONST	SEGMENT
?radix@_Num_int_base@std@@2HB DD 02H			; std::_Num_int_base::radix
CONST	ENDS
;	COMDAT ?is_specialized@_Num_int_base@std@@2_NB
CONST	SEGMENT
?is_specialized@_Num_int_base@std@@2_NB DB 01H		; std::_Num_int_base::is_specialized
CONST	ENDS
;	COMDAT ?is_modulo@_Num_int_base@std@@2_NB
CONST	SEGMENT
?is_modulo@_Num_int_base@std@@2_NB DB 01H		; std::_Num_int_base::is_modulo
CONST	ENDS
;	COMDAT ?is_integer@_Num_int_base@std@@2_NB
CONST	SEGMENT
?is_integer@_Num_int_base@std@@2_NB DB 01H		; std::_Num_int_base::is_integer
CONST	ENDS
;	COMDAT ?is_exact@_Num_int_base@std@@2_NB
CONST	SEGMENT
?is_exact@_Num_int_base@std@@2_NB DB 01H		; std::_Num_int_base::is_exact
CONST	ENDS
;	COMDAT ?is_bounded@_Num_int_base@std@@2_NB
CONST	SEGMENT
?is_bounded@_Num_int_base@std@@2_NB DB 01H		; std::_Num_int_base::is_bounded
CONST	ENDS
;	COMDAT ?radix@_Num_base@std@@2HB
CONST	SEGMENT
?radix@_Num_base@std@@2HB DD 00H			; std::_Num_base::radix
CONST	ENDS
;	COMDAT ?min_exponent10@_Num_base@std@@2HB
CONST	SEGMENT
?min_exponent10@_Num_base@std@@2HB DD 00H		; std::_Num_base::min_exponent10
CONST	ENDS
;	COMDAT ?min_exponent@_Num_base@std@@2HB
CONST	SEGMENT
?min_exponent@_Num_base@std@@2HB DD 00H			; std::_Num_base::min_exponent
CONST	ENDS
;	COMDAT ?max_exponent10@_Num_base@std@@2HB
CONST	SEGMENT
?max_exponent10@_Num_base@std@@2HB DD 00H		; std::_Num_base::max_exponent10
CONST	ENDS
;	COMDAT ?max_exponent@_Num_base@std@@2HB
CONST	SEGMENT
?max_exponent@_Num_base@std@@2HB DD 00H			; std::_Num_base::max_exponent
CONST	ENDS
;	COMDAT ?max_digits10@_Num_base@std@@2HB
CONST	SEGMENT
?max_digits10@_Num_base@std@@2HB DD 00H			; std::_Num_base::max_digits10
CONST	ENDS
;	COMDAT ?digits10@_Num_base@std@@2HB
CONST	SEGMENT
?digits10@_Num_base@std@@2HB DD 00H			; std::_Num_base::digits10
CONST	ENDS
;	COMDAT ?digits@_Num_base@std@@2HB
CONST	SEGMENT
?digits@_Num_base@std@@2HB DD 00H			; std::_Num_base::digits
CONST	ENDS
;	COMDAT ?round_style@_Num_base@std@@2W4float_round_style@2@B
CONST	SEGMENT
?round_style@_Num_base@std@@2W4float_round_style@2@B DD 00H ; std::_Num_base::round_style
CONST	ENDS
;	COMDAT ?traps@_Num_base@std@@2_NB
CONST	SEGMENT
?traps@_Num_base@std@@2_NB DB 00H			; std::_Num_base::traps
CONST	ENDS
;	COMDAT ?tinyness_before@_Num_base@std@@2_NB
CONST	SEGMENT
?tinyness_before@_Num_base@std@@2_NB DB 00H		; std::_Num_base::tinyness_before
CONST	ENDS
;	COMDAT ?is_specialized@_Num_base@std@@2_NB
CONST	SEGMENT
?is_specialized@_Num_base@std@@2_NB DB 00H		; std::_Num_base::is_specialized
CONST	ENDS
;	COMDAT ?is_signed@_Num_base@std@@2_NB
CONST	SEGMENT
?is_signed@_Num_base@std@@2_NB DB 00H			; std::_Num_base::is_signed
CONST	ENDS
;	COMDAT ?is_modulo@_Num_base@std@@2_NB
CONST	SEGMENT
?is_modulo@_Num_base@std@@2_NB DB 00H			; std::_Num_base::is_modulo
CONST	ENDS
;	COMDAT ?is_integer@_Num_base@std@@2_NB
CONST	SEGMENT
?is_integer@_Num_base@std@@2_NB DB 00H			; std::_Num_base::is_integer
CONST	ENDS
;	COMDAT ?is_iec559@_Num_base@std@@2_NB
CONST	SEGMENT
?is_iec559@_Num_base@std@@2_NB DB 00H			; std::_Num_base::is_iec559
CONST	ENDS
;	COMDAT ?is_exact@_Num_base@std@@2_NB
CONST	SEGMENT
?is_exact@_Num_base@std@@2_NB DB 00H			; std::_Num_base::is_exact
CONST	ENDS
;	COMDAT ?is_bounded@_Num_base@std@@2_NB
CONST	SEGMENT
?is_bounded@_Num_base@std@@2_NB DB 00H			; std::_Num_base::is_bounded
CONST	ENDS
;	COMDAT ?has_signaling_NaN@_Num_base@std@@2_NB
CONST	SEGMENT
?has_signaling_NaN@_Num_base@std@@2_NB DB 00H		; std::_Num_base::has_signaling_NaN
CONST	ENDS
;	COMDAT ?has_quiet_NaN@_Num_base@std@@2_NB
CONST	SEGMENT
?has_quiet_NaN@_Num_base@std@@2_NB DB 00H		; std::_Num_base::has_quiet_NaN
CONST	ENDS
;	COMDAT ?has_infinity@_Num_base@std@@2_NB
CONST	SEGMENT
?has_infinity@_Num_base@std@@2_NB DB 00H		; std::_Num_base::has_infinity
CONST	ENDS
;	COMDAT ?has_denorm_loss@_Num_base@std@@2_NB
CONST	SEGMENT
?has_denorm_loss@_Num_base@std@@2_NB DB 00H		; std::_Num_base::has_denorm_loss
CONST	ENDS
;	COMDAT ?has_denorm@_Num_base@std@@2W4float_denorm_style@2@B
CONST	SEGMENT
?has_denorm@_Num_base@std@@2W4float_denorm_style@2@B DD 00H ; std::_Num_base::has_denorm
CONST	ENDS
PUBLIC	?GetPathPlanner@AbstRaven_Bot@@QAEQAVRaven_PathPlanner@@XZ ; AbstRaven_Bot::GetPathPlanner
PUBLIC	?RemoveAllSubgoals@?$Goal_Composite@VAbstRaven_Bot@@@@QAEXXZ ; Goal_Composite<AbstRaven_Bot>::RemoveAllSubgoals
PUBLIC	?Activate@Goal_MoveToPosition@@UAEXXZ		; Goal_MoveToPosition::Activate
EXTRN	??3@YAXPAX@Z:PROC				; operator delete
EXTRN	??0Goal_SeekToPosition@@QAE@PAVAbstRaven_Bot@@UVector2D@@@Z:PROC ; Goal_SeekToPosition::Goal_SeekToPosition
EXTRN	??2@YAPAXI@Z:PROC				; operator new
EXTRN	?RequestPathToPosition@Raven_PathPlanner@@QAE_NUVector2D@@@Z:PROC ; Raven_PathPlanner::RequestPathToPosition
EXTRN	___security_cookie:DWORD
EXTRN	___CxxFrameHandler3:PROC
EXTRN	@__security_check_cookie@4:PROC
EXTRN	__RTC_CheckEsp:PROC
EXTRN	__RTC_Shutdown:PROC
EXTRN	__RTC_InitBase:PROC
xdata$x	SEGMENT
__unwindtable$?Activate@Goal_MoveToPosition@@UAEXXZ DD 0ffffffffH
	DD	FLAT:__unwindfunclet$?Activate@Goal_MoveToPosition@@UAEXXZ$0
__ehfuncinfo$?Activate@Goal_MoveToPosition@@UAEXXZ DD 019930522H
	DD	01H
	DD	FLAT:__unwindtable$?Activate@Goal_MoveToPosition@@UAEXXZ
	DD	2 DUP(00H)
	DD	2 DUP(00H)
	DD	00H
	DD	01H
xdata$x	ENDS
;	COMDAT rtc$TMZ
; File c:\users\teaja\documents\artificial-fun\labravenprojecttest\raven\goals\goal_movetoposition.cpp
rtc$TMZ	SEGMENT
__RTC_Shutdown.rtc$TMZ DD FLAT:__RTC_Shutdown
rtc$TMZ	ENDS
;	COMDAT rtc$IMZ
rtc$IMZ	SEGMENT
__RTC_InitBase.rtc$IMZ DD FLAT:__RTC_InitBase
; Function compile flags: /Odtp /RTCsu
rtc$IMZ	ENDS
_TEXT	SEGMENT
tv144 = -28						; size = 4
$T153166 = -24						; size = 4
$T153165 = -20						; size = 4
_this$ = -16						; size = 4
__$EHRec$ = -12						; size = 12
?Activate@Goal_MoveToPosition@@UAEXXZ PROC		; Goal_MoveToPosition::Activate
; _this$ = ecx

; 18   : {

	push	ebp
	mov	ebp, esp
	push	-1
	push	__ehhandler$?Activate@Goal_MoveToPosition@@UAEXXZ
	mov	eax, DWORD PTR fs:0
	push	eax
	sub	esp, 16					; 00000010H
	push	esi
	mov	eax, -858993460				; ccccccccH
	mov	DWORD PTR [ebp-28], eax
	mov	DWORD PTR [ebp-24], eax
	mov	DWORD PTR [ebp-20], eax
	mov	DWORD PTR [ebp-16], eax
	mov	eax, DWORD PTR ___security_cookie
	xor	eax, ebp
	push	eax
	lea	eax, DWORD PTR __$EHRec$[ebp]
	mov	DWORD PTR fs:0, eax
	mov	DWORD PTR _this$[ebp], ecx

; 19   :   m_iStatus = active;

	mov	eax, DWORD PTR _this$[ebp]
	mov	DWORD PTR [eax+12], 0

; 20   :   
; 21   :   //make sure the subgoal list is clear.
; 22   :   RemoveAllSubgoals();

	mov	ecx, DWORD PTR _this$[ebp]
	call	?RemoveAllSubgoals@?$Goal_Composite@VAbstRaven_Bot@@@@QAEXXZ ; Goal_Composite<AbstRaven_Bot>::RemoveAllSubgoals

; 23   : 
; 24   :   //requests a path to the target position from the path planner. Because, for
; 25   :   //demonstration purposes, the Raven path planner uses time-slicing when 
; 26   :   //processing the path requests the bot may have to wait a few update cycles
; 27   :   //before a path is calculated. Consequently, for appearances sake, it just
; 28   :   //seeks directly to the target position whilst it's awaiting notification
; 29   :   //that the path planning request has succeeded/failed
; 30   :   if (m_pOwner->GetPathPlanner()->RequestPathToPosition(m_vDestination))

	mov	ecx, DWORD PTR _this$[ebp]
	add	ecx, 32					; 00000020H
	sub	esp, 16					; 00000010H
	mov	edx, esp
	mov	eax, DWORD PTR [ecx]
	mov	DWORD PTR [edx], eax
	mov	eax, DWORD PTR [ecx+4]
	mov	DWORD PTR [edx+4], eax
	mov	eax, DWORD PTR [ecx+8]
	mov	DWORD PTR [edx+8], eax
	mov	ecx, DWORD PTR [ecx+12]
	mov	DWORD PTR [edx+12], ecx
	mov	edx, DWORD PTR _this$[ebp]
	mov	ecx, DWORD PTR [edx+8]
	call	?GetPathPlanner@AbstRaven_Bot@@QAEQAVRaven_PathPlanner@@XZ ; AbstRaven_Bot::GetPathPlanner
	mov	ecx, eax
	call	?RequestPathToPosition@Raven_PathPlanner@@QAE_NUVector2D@@@Z ; Raven_PathPlanner::RequestPathToPosition
	movzx	eax, al
	test	eax, eax
	je	SHORT $LN2@Activate

; 31   :   {
; 32   :     AddSubgoal(new Goal_SeekToPosition(m_pOwner, m_vDestination));

	push	48					; 00000030H
	call	??2@YAPAXI@Z				; operator new
	add	esp, 4
	mov	DWORD PTR $T153166[ebp], eax
	mov	DWORD PTR __$EHRec$[ebp+8], 0
	cmp	DWORD PTR $T153166[ebp], 0
	je	SHORT $LN4@Activate
	mov	ecx, DWORD PTR _this$[ebp]
	add	ecx, 32					; 00000020H
	sub	esp, 16					; 00000010H
	mov	edx, esp
	mov	eax, DWORD PTR [ecx]
	mov	DWORD PTR [edx], eax
	mov	eax, DWORD PTR [ecx+4]
	mov	DWORD PTR [edx+4], eax
	mov	eax, DWORD PTR [ecx+8]
	mov	DWORD PTR [edx+8], eax
	mov	ecx, DWORD PTR [ecx+12]
	mov	DWORD PTR [edx+12], ecx
	mov	edx, DWORD PTR _this$[ebp]
	mov	eax, DWORD PTR [edx+8]
	push	eax
	mov	ecx, DWORD PTR $T153166[ebp]
	call	??0Goal_SeekToPosition@@QAE@PAVAbstRaven_Bot@@UVector2D@@@Z ; Goal_SeekToPosition::Goal_SeekToPosition
	mov	DWORD PTR tv144[ebp], eax
	jmp	SHORT $LN5@Activate
$LN4@Activate:
	mov	DWORD PTR tv144[ebp], 0
$LN5@Activate:
	mov	ecx, DWORD PTR tv144[ebp]
	mov	DWORD PTR $T153165[ebp], ecx
	mov	DWORD PTR __$EHRec$[ebp+8], -1
	mov	esi, esp
	mov	edx, DWORD PTR $T153165[ebp]
	push	edx
	mov	eax, DWORD PTR _this$[ebp]
	mov	edx, DWORD PTR [eax]
	mov	ecx, DWORD PTR _this$[ebp]
	mov	eax, DWORD PTR [edx+20]
	call	eax
	cmp	esi, esp
	call	__RTC_CheckEsp
$LN2@Activate:

; 33   :   }
; 34   : }

	mov	ecx, DWORD PTR __$EHRec$[ebp]
	mov	DWORD PTR fs:0, ecx
	pop	ecx
	pop	esi
	add	esp, 28					; 0000001cH
	cmp	ebp, esp
	call	__RTC_CheckEsp
	mov	esp, ebp
	pop	ebp
	ret	0
_TEXT	ENDS
text$x	SEGMENT
__unwindfunclet$?Activate@Goal_MoveToPosition@@UAEXXZ$0:
	mov	eax, DWORD PTR $T153166[ebp]
	push	eax
	call	??3@YAXPAX@Z				; operator delete
	pop	ecx
	ret	0
__ehhandler$?Activate@Goal_MoveToPosition@@UAEXXZ:
	mov	edx, DWORD PTR [esp+8]
	lea	eax, DWORD PTR [edx+12]
	mov	ecx, DWORD PTR [edx-24]
	xor	ecx, eax
	call	@__security_check_cookie@4
	mov	eax, OFFSET __ehfuncinfo$?Activate@Goal_MoveToPosition@@UAEXXZ
	jmp	___CxxFrameHandler3
text$x	ENDS
?Activate@Goal_MoveToPosition@@UAEXXZ ENDP		; Goal_MoveToPosition::Activate
; Function compile flags: /Odtp /RTCsu
; File c:\users\teaja\documents\artificial-fun\labravenprojecttest\raven\abstraven_bot.h
;	COMDAT ?GetPathPlanner@AbstRaven_Bot@@QAEQAVRaven_PathPlanner@@XZ
_TEXT	SEGMENT
_this$ = -4						; size = 4
?GetPathPlanner@AbstRaven_Bot@@QAEQAVRaven_PathPlanner@@XZ PROC ; AbstRaven_Bot::GetPathPlanner, COMDAT
; _this$ = ecx

; 219  :   Raven_PathPlanner* const           GetPathPlanner(){return m_pPathPlanner;}

	push	ebp
	mov	ebp, esp
	push	ecx
	mov	DWORD PTR [ebp-4], -858993460		; ccccccccH
	mov	DWORD PTR _this$[ebp], ecx
	mov	eax, DWORD PTR _this$[ebp]
	mov	eax, DWORD PTR [eax+172]
	mov	esp, ebp
	pop	ebp
	ret	0
?GetPathPlanner@AbstRaven_Bot@@QAEQAVRaven_PathPlanner@@XZ ENDP ; AbstRaven_Bot::GetPathPlanner
_TEXT	ENDS
PUBLIC	?ReactivateIfFailed@?$Goal@VAbstRaven_Bot@@@@IAEXXZ ; Goal<AbstRaven_Bot>::ReactivateIfFailed
PUBLIC	?ProcessSubgoals@?$Goal_Composite@VAbstRaven_Bot@@@@IAEHXZ ; Goal_Composite<AbstRaven_Bot>::ProcessSubgoals
PUBLIC	?ActivateIfInactive@?$Goal@VAbstRaven_Bot@@@@IAEXXZ ; Goal<AbstRaven_Bot>::ActivateIfInactive
PUBLIC	?Process@Goal_MoveToPosition@@UAEHXZ		; Goal_MoveToPosition::Process
; Function compile flags: /Odtp /RTCsu
; File c:\users\teaja\documents\artificial-fun\labravenprojecttest\raven\goals\goal_movetoposition.cpp
_TEXT	SEGMENT
_this$ = -4						; size = 4
?Process@Goal_MoveToPosition@@UAEHXZ PROC		; Goal_MoveToPosition::Process
; _this$ = ecx

; 39   : {

	push	ebp
	mov	ebp, esp
	push	ecx
	mov	DWORD PTR [ebp-4], -858993460		; ccccccccH
	mov	DWORD PTR _this$[ebp], ecx

; 40   :   //if status is inactive, call Activate()
; 41   :   ActivateIfInactive();

	mov	ecx, DWORD PTR _this$[ebp]
	call	?ActivateIfInactive@?$Goal@VAbstRaven_Bot@@@@IAEXXZ ; Goal<AbstRaven_Bot>::ActivateIfInactive

; 42   :     
; 43   :   //process the subgoals
; 44   :   m_iStatus = ProcessSubgoals();

	mov	ecx, DWORD PTR _this$[ebp]
	call	?ProcessSubgoals@?$Goal_Composite@VAbstRaven_Bot@@@@IAEHXZ ; Goal_Composite<AbstRaven_Bot>::ProcessSubgoals
	mov	ecx, DWORD PTR _this$[ebp]
	mov	DWORD PTR [ecx+12], eax

; 45   : 
; 46   :   //if any of the subgoals have failed then this goal re-plans
; 47   :   ReactivateIfFailed();

	mov	ecx, DWORD PTR _this$[ebp]
	call	?ReactivateIfFailed@?$Goal@VAbstRaven_Bot@@@@IAEXXZ ; Goal<AbstRaven_Bot>::ReactivateIfFailed

; 48   : 
; 49   :   return m_iStatus;

	mov	edx, DWORD PTR _this$[ebp]
	mov	eax, DWORD PTR [edx+12]

; 50   : }

	add	esp, 4
	cmp	ebp, esp
	call	__RTC_CheckEsp
	mov	esp, ebp
	pop	ebp
	ret	0
?Process@Goal_MoveToPosition@@UAEHXZ ENDP		; Goal_MoveToPosition::Process
_TEXT	ENDS
PUBLIC	?AddTime@AbstRaven_Bot@@QAEXT_LARGE_INTEGER@@@Z	; AbstRaven_Bot::AddTime
PUBLIC	?GetTime@Raven_PathPlanner@@QAE?AT_LARGE_INTEGER@@XZ ; Raven_PathPlanner::GetTime
PUBLIC	?ForwardMessageToFrontMostSubgoal@?$Goal_Composite@VAbstRaven_Bot@@@@IAE_NABUTelegram@@@Z ; Goal_Composite<AbstRaven_Bot>::ForwardMessageToFrontMostSubgoal
PUBLIC	?HandleMessage@Goal_MoveToPosition@@UAE_NABUTelegram@@@Z ; Goal_MoveToPosition::HandleMessage
EXTRN	??0Goal_FollowPath@@QAE@PAVAbstRaven_Bot@@V?$list@VPathEdge@@V?$allocator@VPathEdge@@@std@@@std@@@Z:PROC ; Goal_FollowPath::Goal_FollowPath
EXTRN	?GetPath@Raven_PathPlanner@@QAE?AV?$list@VPathEdge@@V?$allocator@VPathEdge@@@std@@@std@@XZ:PROC ; Raven_PathPlanner::GetPath
EXTRN	@_RTC_CheckStackVars@8:PROC
xdata$x	SEGMENT
__unwindtable$?HandleMessage@Goal_MoveToPosition@@UAE_NABUTelegram@@@Z DD 0ffffffffH
	DD	FLAT:__unwindfunclet$?HandleMessage@Goal_MoveToPosition@@UAE_NABUTelegram@@@Z$0
__ehfuncinfo$?HandleMessage@Goal_MoveToPosition@@UAE_NABUTelegram@@@Z DD 019930522H
	DD	01H
	DD	FLAT:__unwindtable$?HandleMessage@Goal_MoveToPosition@@UAE_NABUTelegram@@@Z
	DD	2 DUP(00H)
	DD	2 DUP(00H)
	DD	00H
	DD	01H
; Function compile flags: /Odtp /RTCsu
xdata$x	ENDS
_TEXT	SEGMENT
tv156 = -72						; size = 4
tv186 = -68						; size = 4
tv185 = -64						; size = 4
tv74 = -60						; size = 4
$T153195 = -56						; size = 8
$T153192 = -48						; size = 4
$T153191 = -44						; size = 4
$T153190 = -40						; size = 4
_pathPlanningTime$ = -32				; size = 8
_bHandled$ = -17					; size = 1
_this$ = -16						; size = 4
__$EHRec$ = -12						; size = 12
_msg$ = 8						; size = 4
?HandleMessage@Goal_MoveToPosition@@UAE_NABUTelegram@@@Z PROC ; Goal_MoveToPosition::HandleMessage
; _this$ = ecx

; 55   : {

	push	ebp
	mov	ebp, esp
	push	-1
	push	__ehhandler$?HandleMessage@Goal_MoveToPosition@@UAE_NABUTelegram@@@Z
	mov	eax, DWORD PTR fs:0
	push	eax
	sub	esp, 60					; 0000003cH
	push	esi
	push	edi
	push	ecx
	lea	edi, DWORD PTR [ebp-72]
	mov	ecx, 15					; 0000000fH
	mov	eax, -858993460				; ccccccccH
	rep stosd
	pop	ecx
	mov	eax, DWORD PTR ___security_cookie
	xor	eax, ebp
	push	eax
	lea	eax, DWORD PTR __$EHRec$[ebp]
	mov	DWORD PTR fs:0, eax
	mov	DWORD PTR _this$[ebp], ecx

; 56   :   //first, pass the message down the goal hierarchy
; 57   :   bool bHandled = ForwardMessageToFrontMostSubgoal(msg);

	mov	eax, DWORD PTR _msg$[ebp]
	push	eax
	mov	ecx, DWORD PTR _this$[ebp]
	call	?ForwardMessageToFrontMostSubgoal@?$Goal_Composite@VAbstRaven_Bot@@@@IAE_NABUTelegram@@@Z ; Goal_Composite<AbstRaven_Bot>::ForwardMessageToFrontMostSubgoal
	mov	BYTE PTR _bHandled$[ebp], al

; 58   :   LARGE_INTEGER pathPlanningTime;
; 59   : 
; 60   :   //if the msg was not handled, test to see if this goal can handle it
; 61   :   if (bHandled == false)

	movzx	ecx, BYTE PTR _bHandled$[ebp]
	test	ecx, ecx
	jne	$LN6@HandleMess

; 62   :   {
; 63   :     switch(msg.Msg)

	mov	edx, DWORD PTR _msg$[ebp]
	mov	eax, DWORD PTR [edx+8]
	mov	DWORD PTR tv74[ebp], eax
	cmp	DWORD PTR tv74[ebp], 1
	je	SHORT $LN3@HandleMess
	cmp	DWORD PTR tv74[ebp], 2
	je	$LN2@HandleMess
	jmp	$LN1@HandleMess
$LN3@HandleMess:

; 64   :     {
; 65   :     case Msg_PathReady:
; 66   : 
; 67   : 		// ****** Add timing code here.
; 68   : 
; 69   :       //clear any existing goals
; 70   :       RemoveAllSubgoals();

	mov	ecx, DWORD PTR _this$[ebp]
	call	?RemoveAllSubgoals@?$Goal_Composite@VAbstRaven_Bot@@@@QAEXXZ ; Goal_Composite<AbstRaven_Bot>::RemoveAllSubgoals

; 71   : 
; 72   :       AddSubgoal(new Goal_FollowPath(m_pOwner,
; 73   :                                      m_pOwner->GetPathPlanner()->GetPath()));

	push	48					; 00000030H
	call	??2@YAPAXI@Z				; operator new
	add	esp, 4
	mov	DWORD PTR $T153191[ebp], eax
	mov	DWORD PTR __$EHRec$[ebp+8], 0
	cmp	DWORD PTR $T153191[ebp], 0
	je	SHORT $LN9@HandleMess
	sub	esp, 16					; 00000010H
	mov	ecx, esp
	mov	DWORD PTR $T153192[ebp], esp
	push	ecx
	mov	edx, DWORD PTR _this$[ebp]
	mov	ecx, DWORD PTR [edx+8]
	call	?GetPathPlanner@AbstRaven_Bot@@QAEQAVRaven_PathPlanner@@XZ ; AbstRaven_Bot::GetPathPlanner
	mov	ecx, eax
	call	?GetPath@Raven_PathPlanner@@QAE?AV?$list@VPathEdge@@V?$allocator@VPathEdge@@@std@@@std@@XZ ; Raven_PathPlanner::GetPath
	mov	DWORD PTR tv185[ebp], eax
	mov	eax, DWORD PTR _this$[ebp]
	mov	ecx, DWORD PTR [eax+8]
	push	ecx
	mov	ecx, DWORD PTR $T153191[ebp]
	call	??0Goal_FollowPath@@QAE@PAVAbstRaven_Bot@@V?$list@VPathEdge@@V?$allocator@VPathEdge@@@std@@@std@@@Z ; Goal_FollowPath::Goal_FollowPath
	mov	DWORD PTR tv186[ebp], eax
	mov	edx, DWORD PTR tv186[ebp]
	mov	DWORD PTR tv156[ebp], edx
	jmp	SHORT $LN10@HandleMess
$LN9@HandleMess:
	mov	DWORD PTR tv156[ebp], 0
$LN10@HandleMess:
	mov	eax, DWORD PTR tv156[ebp]
	mov	DWORD PTR $T153190[ebp], eax
	mov	DWORD PTR __$EHRec$[ebp+8], -1
	mov	esi, esp
	mov	ecx, DWORD PTR $T153190[ebp]
	push	ecx
	mov	edx, DWORD PTR _this$[ebp]
	mov	eax, DWORD PTR [edx]
	mov	ecx, DWORD PTR _this$[ebp]
	mov	edx, DWORD PTR [eax+20]
	call	edx
	cmp	esi, esp
	call	__RTC_CheckEsp

; 74   : 
; 75   : 		pathPlanningTime = m_pOwner->GetPathPlanner()->GetTime();

	lea	eax, DWORD PTR $T153195[ebp]
	push	eax
	mov	ecx, DWORD PTR _this$[ebp]
	mov	ecx, DWORD PTR [ecx+8]
	call	?GetPathPlanner@AbstRaven_Bot@@QAEQAVRaven_PathPlanner@@XZ ; AbstRaven_Bot::GetPathPlanner
	mov	ecx, eax
	call	?GetTime@Raven_PathPlanner@@QAE?AT_LARGE_INTEGER@@XZ ; Raven_PathPlanner::GetTime
	mov	edx, DWORD PTR [eax]
	mov	eax, DWORD PTR [eax+4]
	mov	DWORD PTR _pathPlanningTime$[ebp], edx
	mov	DWORD PTR _pathPlanningTime$[ebp+4], eax

; 76   : 
; 77   : 		#ifdef SHOW_NAVINFO
; 78   : 		  debug_con << "Path found. Planning time: " << ttos(pathPlanningTime.QuadPart) << "";
; 79   : 		#endif
; 80   : 
; 81   : 	  m_pOwner->AddTime(pathPlanningTime);

	mov	ecx, DWORD PTR _pathPlanningTime$[ebp+4]
	push	ecx
	mov	edx, DWORD PTR _pathPlanningTime$[ebp]
	push	edx
	mov	eax, DWORD PTR _this$[ebp]
	mov	ecx, DWORD PTR [eax+8]
	call	?AddTime@AbstRaven_Bot@@QAEXT_LARGE_INTEGER@@@Z ; AbstRaven_Bot::AddTime

; 82   : 
; 83   :       return true; //msg handled

	mov	al, 1
	jmp	SHORT $LN7@HandleMess
$LN2@HandleMess:

; 84   : 
; 85   : 
; 86   :     case Msg_NoPathAvailable:
; 87   : 
; 88   :       m_iStatus = failed;

	mov	ecx, DWORD PTR _this$[ebp]
	mov	DWORD PTR [ecx+12], 3

; 89   : 
; 90   :       return true; //msg handled

	mov	al, 1
	jmp	SHORT $LN7@HandleMess
$LN1@HandleMess:

; 91   : 
; 92   :     default: return false;

	xor	al, al
	jmp	SHORT $LN7@HandleMess
$LN6@HandleMess:

; 93   :     }
; 94   :   }
; 95   : 
; 96   :   //handled by subgoals
; 97   :   return true;

	mov	al, 1
$LN7@HandleMess:

; 98   : }

	push	edx
	mov	ecx, ebp
	push	eax
	lea	edx, DWORD PTR $LN16@HandleMess
	call	@_RTC_CheckStackVars@8
	pop	eax
	pop	edx
	mov	ecx, DWORD PTR __$EHRec$[ebp]
	mov	DWORD PTR fs:0, ecx
	pop	ecx
	pop	edi
	pop	esi
	add	esp, 72					; 00000048H
	cmp	ebp, esp
	call	__RTC_CheckEsp
	mov	esp, ebp
	pop	ebp
	ret	4
	npad	2
$LN16@HandleMess:
	DD	1
	DD	$LN15@HandleMess
$LN15@HandleMess:
	DD	-32					; ffffffe0H
	DD	8
	DD	$LN13@HandleMess
$LN13@HandleMess:
	DB	112					; 00000070H
	DB	97					; 00000061H
	DB	116					; 00000074H
	DB	104					; 00000068H
	DB	80					; 00000050H
	DB	108					; 0000006cH
	DB	97					; 00000061H
	DB	110					; 0000006eH
	DB	110					; 0000006eH
	DB	105					; 00000069H
	DB	110					; 0000006eH
	DB	103					; 00000067H
	DB	84					; 00000054H
	DB	105					; 00000069H
	DB	109					; 0000006dH
	DB	101					; 00000065H
	DB	0
_TEXT	ENDS
text$x	SEGMENT
__unwindfunclet$?HandleMessage@Goal_MoveToPosition@@UAE_NABUTelegram@@@Z$0:
	mov	eax, DWORD PTR $T153191[ebp]
	push	eax
	call	??3@YAXPAX@Z				; operator delete
	pop	ecx
	ret	0
__ehhandler$?HandleMessage@Goal_MoveToPosition@@UAE_NABUTelegram@@@Z:
	mov	edx, DWORD PTR [esp+8]
	lea	eax, DWORD PTR [edx+12]
	mov	ecx, DWORD PTR [edx-72]
	xor	ecx, eax
	call	@__security_check_cookie@4
	mov	eax, OFFSET __ehfuncinfo$?HandleMessage@Goal_MoveToPosition@@UAE_NABUTelegram@@@Z
	jmp	___CxxFrameHandler3
text$x	ENDS
?HandleMessage@Goal_MoveToPosition@@UAE_NABUTelegram@@@Z ENDP ; Goal_MoveToPosition::HandleMessage
PUBLIC	?AddTime@AbstRaven_Bot@@QAEX_J@Z		; AbstRaven_Bot::AddTime
; Function compile flags: /Odtp /RTCsu
; File c:\users\teaja\documents\artificial-fun\labravenprojecttest\raven\abstraven_bot.h
;	COMDAT ?AddTime@AbstRaven_Bot@@QAEXT_LARGE_INTEGER@@@Z
_TEXT	SEGMENT
_this$ = -4						; size = 4
_delta$ = 8						; size = 8
?AddTime@AbstRaven_Bot@@QAEXT_LARGE_INTEGER@@@Z PROC	; AbstRaven_Bot::AddTime, COMDAT
; _this$ = ecx

; 175  :   void			AddTime (LARGE_INTEGER delta) { AddTime(delta.QuadPart); }

	push	ebp
	mov	ebp, esp
	push	ecx
	mov	DWORD PTR [ebp-4], -858993460		; ccccccccH
	mov	DWORD PTR _this$[ebp], ecx
	mov	eax, DWORD PTR _delta$[ebp+4]
	push	eax
	mov	ecx, DWORD PTR _delta$[ebp]
	push	ecx
	mov	ecx, DWORD PTR _this$[ebp]
	call	?AddTime@AbstRaven_Bot@@QAEX_J@Z	; AbstRaven_Bot::AddTime
	add	esp, 4
	cmp	ebp, esp
	call	__RTC_CheckEsp
	mov	esp, ebp
	pop	ebp
	ret	8
?AddTime@AbstRaven_Bot@@QAEXT_LARGE_INTEGER@@@Z ENDP	; AbstRaven_Bot::AddTime
; Function compile flags: /Odtp /RTCsu
_TEXT	ENDS
;	COMDAT ?AddTime@AbstRaven_Bot@@QAEX_J@Z
_TEXT	SEGMENT
_this$ = -4						; size = 4
_delta$ = 8						; size = 8
?AddTime@AbstRaven_Bot@@QAEX_J@Z PROC			; AbstRaven_Bot::AddTime, COMDAT
; _this$ = ecx

; 174  :   void			AddTime (LONGLONG delta) { m_time.QuadPart += delta; }

	push	ebp
	mov	ebp, esp
	push	ecx
	mov	DWORD PTR [ebp-4], -858993460		; ccccccccH
	mov	DWORD PTR _this$[ebp], ecx
	mov	eax, DWORD PTR _this$[ebp]
	mov	ecx, DWORD PTR [eax+144]
	add	ecx, DWORD PTR _delta$[ebp]
	mov	edx, DWORD PTR [eax+148]
	adc	edx, DWORD PTR _delta$[ebp+4]
	mov	eax, DWORD PTR _this$[ebp]
	mov	DWORD PTR [eax+144], ecx
	mov	DWORD PTR [eax+148], edx
	mov	esp, ebp
	pop	ebp
	ret	8
?AddTime@AbstRaven_Bot@@QAEX_J@Z ENDP			; AbstRaven_Bot::AddTime
; Function compile flags: /Odtp /RTCsu
; File c:\users\teaja\documents\artificial-fun\labravenprojecttest\raven\navigation\raven_pathplanner.h
_TEXT	ENDS
;	COMDAT ?GetTime@Raven_PathPlanner@@QAE?AT_LARGE_INTEGER@@XZ
_TEXT	SEGMENT
_this$ = -4						; size = 4
___$ReturnUdt$ = 8					; size = 4
?GetTime@Raven_PathPlanner@@QAE?AT_LARGE_INTEGER@@XZ PROC ; Raven_PathPlanner::GetTime, COMDAT
; _this$ = ecx

; 117  :   LARGE_INTEGER		GetTime () { return m_time; }

	push	ebp
	mov	ebp, esp
	push	ecx
	mov	DWORD PTR [ebp-4], -858993460		; ccccccccH
	mov	DWORD PTR _this$[ebp], ecx
	mov	eax, DWORD PTR _this$[ebp]
	mov	ecx, DWORD PTR [eax+32]
	mov	edx, DWORD PTR [eax+36]
	mov	eax, DWORD PTR ___$ReturnUdt$[ebp]
	mov	DWORD PTR [eax], ecx
	mov	DWORD PTR [eax+4], edx
	mov	eax, DWORD PTR ___$ReturnUdt$[ebp]
	mov	esp, ebp
	pop	ebp
	ret	4
?GetTime@Raven_PathPlanner@@QAE?AT_LARGE_INTEGER@@XZ ENDP ; Raven_PathPlanner::GetTime
_TEXT	ENDS
PUBLIC	__real@4000000000000000
PUBLIC	?YellowPen@Cgdi@@QAEXXZ				; Cgdi::YellowPen
PUBLIC	?YellowBrush@Cgdi@@QAEXXZ			; Cgdi::YellowBrush
PUBLIC	__real@4010000000000000
PUBLIC	?RedPen@Cgdi@@QAEXXZ				; Cgdi::RedPen
PUBLIC	?RedBrush@Cgdi@@QAEXXZ				; Cgdi::RedBrush
PUBLIC	?Circle@Cgdi@@QAEXUVector2D@@N@Z		; Cgdi::Circle
PUBLIC	__real@4018000000000000
PUBLIC	?BlueBrush@Cgdi@@QAEXXZ				; Cgdi::BlueBrush
PUBLIC	?BlackPen@Cgdi@@QAEXXZ				; Cgdi::BlackPen
PUBLIC	?Render@?$Goal_Composite@VAbstRaven_Bot@@@@UAEXXZ ; Goal_Composite<AbstRaven_Bot>::Render
PUBLIC	?Render@Goal_MoveToPosition@@UAEXXZ		; Goal_MoveToPosition::Render
EXTRN	?Instance@Cgdi@@SAPAV1@XZ:PROC			; Cgdi::Instance
EXTRN	__fltused:DWORD
;	COMDAT __real@4000000000000000
; File c:\users\teaja\documents\artificial-fun\labravenprojecttest\raven\goals\goal_movetoposition.cpp
CONST	SEGMENT
__real@4000000000000000 DQ 04000000000000000r	; 2
CONST	ENDS
;	COMDAT __real@4010000000000000
CONST	SEGMENT
__real@4010000000000000 DQ 04010000000000000r	; 4
CONST	ENDS
;	COMDAT __real@4018000000000000
CONST	SEGMENT
__real@4018000000000000 DQ 04018000000000000r	; 6
; Function compile flags: /Odtp /RTCsu
CONST	ENDS
_TEXT	SEGMENT
_this$ = -4						; size = 4
?Render@Goal_MoveToPosition@@UAEXXZ PROC		; Goal_MoveToPosition::Render
; _this$ = ecx

; 103  : {

	push	ebp
	mov	ebp, esp
	push	ecx
	mov	DWORD PTR [ebp-4], -858993460		; ccccccccH
	mov	DWORD PTR _this$[ebp], ecx

; 104  :   //forward the request to the subgoals
; 105  :   Goal_Composite<AbstRaven_Bot>::Render();

	mov	ecx, DWORD PTR _this$[ebp]
	call	?Render@?$Goal_Composite@VAbstRaven_Bot@@@@UAEXXZ ; Goal_Composite<AbstRaven_Bot>::Render

; 106  :   
; 107  :   //draw a bullseye
; 108  :   gdi->BlackPen();

	call	?Instance@Cgdi@@SAPAV1@XZ		; Cgdi::Instance
	mov	ecx, eax
	call	?BlackPen@Cgdi@@QAEXXZ			; Cgdi::BlackPen

; 109  :   gdi->BlueBrush();

	call	?Instance@Cgdi@@SAPAV1@XZ		; Cgdi::Instance
	mov	ecx, eax
	call	?BlueBrush@Cgdi@@QAEXXZ			; Cgdi::BlueBrush

; 110  :   gdi->Circle(m_vDestination, 6);

	sub	esp, 8
	fld	QWORD PTR __real@4018000000000000
	fstp	QWORD PTR [esp]
	mov	eax, DWORD PTR _this$[ebp]
	add	eax, 32					; 00000020H
	sub	esp, 16					; 00000010H
	mov	ecx, esp
	mov	edx, DWORD PTR [eax]
	mov	DWORD PTR [ecx], edx
	mov	edx, DWORD PTR [eax+4]
	mov	DWORD PTR [ecx+4], edx
	mov	edx, DWORD PTR [eax+8]
	mov	DWORD PTR [ecx+8], edx
	mov	eax, DWORD PTR [eax+12]
	mov	DWORD PTR [ecx+12], eax
	call	?Instance@Cgdi@@SAPAV1@XZ		; Cgdi::Instance
	mov	ecx, eax
	call	?Circle@Cgdi@@QAEXUVector2D@@N@Z	; Cgdi::Circle

; 111  :   gdi->RedBrush();

	call	?Instance@Cgdi@@SAPAV1@XZ		; Cgdi::Instance
	mov	ecx, eax
	call	?RedBrush@Cgdi@@QAEXXZ			; Cgdi::RedBrush

; 112  :   gdi->RedPen();

	call	?Instance@Cgdi@@SAPAV1@XZ		; Cgdi::Instance
	mov	ecx, eax
	call	?RedPen@Cgdi@@QAEXXZ			; Cgdi::RedPen

; 113  :   gdi->Circle(m_vDestination, 4);

	sub	esp, 8
	fld	QWORD PTR __real@4010000000000000
	fstp	QWORD PTR [esp]
	mov	ecx, DWORD PTR _this$[ebp]
	add	ecx, 32					; 00000020H
	sub	esp, 16					; 00000010H
	mov	edx, esp
	mov	eax, DWORD PTR [ecx]
	mov	DWORD PTR [edx], eax
	mov	eax, DWORD PTR [ecx+4]
	mov	DWORD PTR [edx+4], eax
	mov	eax, DWORD PTR [ecx+8]
	mov	DWORD PTR [edx+8], eax
	mov	ecx, DWORD PTR [ecx+12]
	mov	DWORD PTR [edx+12], ecx
	call	?Instance@Cgdi@@SAPAV1@XZ		; Cgdi::Instance
	mov	ecx, eax
	call	?Circle@Cgdi@@QAEXUVector2D@@N@Z	; Cgdi::Circle

; 114  :   gdi->YellowBrush();

	call	?Instance@Cgdi@@SAPAV1@XZ		; Cgdi::Instance
	mov	ecx, eax
	call	?YellowBrush@Cgdi@@QAEXXZ		; Cgdi::YellowBrush

; 115  :   gdi->YellowPen();

	call	?Instance@Cgdi@@SAPAV1@XZ		; Cgdi::Instance
	mov	ecx, eax
	call	?YellowPen@Cgdi@@QAEXXZ			; Cgdi::YellowPen

; 116  :   gdi->Circle(m_vDestination, 2);

	sub	esp, 8
	fld	QWORD PTR __real@4000000000000000
	fstp	QWORD PTR [esp]
	mov	edx, DWORD PTR _this$[ebp]
	add	edx, 32					; 00000020H
	sub	esp, 16					; 00000010H
	mov	eax, esp
	mov	ecx, DWORD PTR [edx]
	mov	DWORD PTR [eax], ecx
	mov	ecx, DWORD PTR [edx+4]
	mov	DWORD PTR [eax+4], ecx
	mov	ecx, DWORD PTR [edx+8]
	mov	DWORD PTR [eax+8], ecx
	mov	edx, DWORD PTR [edx+12]
	mov	DWORD PTR [eax+12], edx
	call	?Instance@Cgdi@@SAPAV1@XZ		; Cgdi::Instance
	mov	ecx, eax
	call	?Circle@Cgdi@@QAEXUVector2D@@N@Z	; Cgdi::Circle

; 117  : }

	add	esp, 4
	cmp	ebp, esp
	call	__RTC_CheckEsp
	mov	esp, ebp
	pop	ebp
	ret	0
?Render@Goal_MoveToPosition@@UAEXXZ ENDP		; Goal_MoveToPosition::Render
_TEXT	ENDS
EXTRN	__imp__SelectObject@8:PROC
; Function compile flags: /Odtp /RTCsu
; File c:\users\teaja\documents\artificial-fun\labravenprojecttest\common\misc\cgdi.h
;	COMDAT ?BlackPen@Cgdi@@QAEXXZ
_TEXT	SEGMENT
_this$ = -4						; size = 4
?BlackPen@Cgdi@@QAEXXZ PROC				; Cgdi::BlackPen, COMDAT
; _this$ = ecx

; 136  :   void BlackPen(){if(m_hdc){SelectObject(m_hdc, m_BlackPen);}}

	push	ebp
	mov	ebp, esp
	push	ecx
	push	esi
	mov	DWORD PTR [ebp-4], -858993460		; ccccccccH
	mov	DWORD PTR _this$[ebp], ecx
	mov	eax, DWORD PTR _this$[ebp]
	cmp	DWORD PTR [eax+124], 0
	je	SHORT $LN2@BlackPen
	mov	esi, esp
	mov	ecx, DWORD PTR _this$[ebp]
	mov	edx, DWORD PTR [ecx+4]
	push	edx
	mov	eax, DWORD PTR _this$[ebp]
	mov	ecx, DWORD PTR [eax+124]
	push	ecx
	call	DWORD PTR __imp__SelectObject@8
	cmp	esi, esp
	call	__RTC_CheckEsp
$LN2@BlackPen:
	pop	esi
	add	esp, 4
	cmp	ebp, esp
	call	__RTC_CheckEsp
	mov	esp, ebp
	pop	ebp
	ret	0
?BlackPen@Cgdi@@QAEXXZ ENDP				; Cgdi::BlackPen
; Function compile flags: /Odtp /RTCsu
_TEXT	ENDS
;	COMDAT ?RedPen@Cgdi@@QAEXXZ
_TEXT	SEGMENT
_this$ = -4						; size = 4
?RedPen@Cgdi@@QAEXXZ PROC				; Cgdi::RedPen, COMDAT
; _this$ = ecx

; 138  :   void RedPen()  {if(m_hdc){SelectObject(m_hdc, m_RedPen);}}

	push	ebp
	mov	ebp, esp
	push	ecx
	push	esi
	mov	DWORD PTR [ebp-4], -858993460		; ccccccccH
	mov	DWORD PTR _this$[ebp], ecx
	mov	eax, DWORD PTR _this$[ebp]
	cmp	DWORD PTR [eax+124], 0
	je	SHORT $LN2@RedPen
	mov	esi, esp
	mov	ecx, DWORD PTR _this$[ebp]
	mov	edx, DWORD PTR [ecx+12]
	push	edx
	mov	eax, DWORD PTR _this$[ebp]
	mov	ecx, DWORD PTR [eax+124]
	push	ecx
	call	DWORD PTR __imp__SelectObject@8
	cmp	esi, esp
	call	__RTC_CheckEsp
$LN2@RedPen:
	pop	esi
	add	esp, 4
	cmp	ebp, esp
	call	__RTC_CheckEsp
	mov	esp, ebp
	pop	ebp
	ret	0
?RedPen@Cgdi@@QAEXXZ ENDP				; Cgdi::RedPen
; Function compile flags: /Odtp /RTCsu
_TEXT	ENDS
;	COMDAT ?YellowPen@Cgdi@@QAEXXZ
_TEXT	SEGMENT
_this$ = -4						; size = 4
?YellowPen@Cgdi@@QAEXXZ PROC				; Cgdi::YellowPen, COMDAT
; _this$ = ecx

; 143  :   void YellowPen() {if(m_hdc){SelectObject(m_hdc, m_YellowPen);}}

	push	ebp
	mov	ebp, esp
	push	ecx
	push	esi
	mov	DWORD PTR [ebp-4], -858993460		; ccccccccH
	mov	DWORD PTR _this$[ebp], ecx
	mov	eax, DWORD PTR _this$[ebp]
	cmp	DWORD PTR [eax+124], 0
	je	SHORT $LN2@YellowPen
	mov	esi, esp
	mov	ecx, DWORD PTR _this$[ebp]
	mov	edx, DWORD PTR [ecx+36]
	push	edx
	mov	eax, DWORD PTR _this$[ebp]
	mov	ecx, DWORD PTR [eax+124]
	push	ecx
	call	DWORD PTR __imp__SelectObject@8
	cmp	esi, esp
	call	__RTC_CheckEsp
$LN2@YellowPen:
	pop	esi
	add	esp, 4
	cmp	ebp, esp
	call	__RTC_CheckEsp
	mov	esp, ebp
	pop	ebp
	ret	0
?YellowPen@Cgdi@@QAEXXZ ENDP				; Cgdi::YellowPen
; Function compile flags: /Odtp /RTCsu
_TEXT	ENDS
;	COMDAT ?RedBrush@Cgdi@@QAEXXZ
_TEXT	SEGMENT
_this$ = -4						; size = 4
?RedBrush@Cgdi@@QAEXXZ PROC				; Cgdi::RedBrush, COMDAT
; _this$ = ecx

; 163  :   void RedBrush()  {if(m_hdc)SelectObject(m_hdc, m_RedBrush);}

	push	ebp
	mov	ebp, esp
	push	ecx
	push	esi
	mov	DWORD PTR [ebp-4], -858993460		; ccccccccH
	mov	DWORD PTR _this$[ebp], ecx
	mov	eax, DWORD PTR _this$[ebp]
	cmp	DWORD PTR [eax+124], 0
	je	SHORT $LN2@RedBrush
	mov	esi, esp
	mov	ecx, DWORD PTR _this$[ebp]
	mov	edx, DWORD PTR [ecx+88]
	push	edx
	mov	eax, DWORD PTR _this$[ebp]
	mov	ecx, DWORD PTR [eax+124]
	push	ecx
	call	DWORD PTR __imp__SelectObject@8
	cmp	esi, esp
	call	__RTC_CheckEsp
$LN2@RedBrush:
	pop	esi
	add	esp, 4
	cmp	ebp, esp
	call	__RTC_CheckEsp
	mov	esp, ebp
	pop	ebp
	ret	0
?RedBrush@Cgdi@@QAEXXZ ENDP				; Cgdi::RedBrush
; Function compile flags: /Odtp /RTCsu
_TEXT	ENDS
;	COMDAT ?BlueBrush@Cgdi@@QAEXXZ
_TEXT	SEGMENT
_this$ = -4						; size = 4
?BlueBrush@Cgdi@@QAEXXZ PROC				; Cgdi::BlueBrush, COMDAT
; _this$ = ecx

; 164  :   void BlueBrush()  {if(m_hdc)SelectObject(m_hdc, m_BlueBrush);}

	push	ebp
	mov	ebp, esp
	push	ecx
	push	esi
	mov	DWORD PTR [ebp-4], -858993460		; ccccccccH
	mov	DWORD PTR _this$[ebp], ecx
	mov	eax, DWORD PTR _this$[ebp]
	cmp	DWORD PTR [eax+124], 0
	je	SHORT $LN2@BlueBrush
	mov	esi, esp
	mov	ecx, DWORD PTR _this$[ebp]
	mov	edx, DWORD PTR [ecx+96]
	push	edx
	mov	eax, DWORD PTR _this$[ebp]
	mov	ecx, DWORD PTR [eax+124]
	push	ecx
	call	DWORD PTR __imp__SelectObject@8
	cmp	esi, esp
	call	__RTC_CheckEsp
$LN2@BlueBrush:
	pop	esi
	add	esp, 4
	cmp	ebp, esp
	call	__RTC_CheckEsp
	mov	esp, ebp
	pop	ebp
	ret	0
?BlueBrush@Cgdi@@QAEXXZ ENDP				; Cgdi::BlueBrush
; Function compile flags: /Odtp /RTCsu
_TEXT	ENDS
;	COMDAT ?YellowBrush@Cgdi@@QAEXXZ
_TEXT	SEGMENT
_this$ = -4						; size = 4
?YellowBrush@Cgdi@@QAEXXZ PROC				; Cgdi::YellowBrush, COMDAT
; _this$ = ecx

; 167  :   void YellowBrush() {if(m_hdc)SelectObject(m_hdc, m_YellowBrush);}

	push	ebp
	mov	ebp, esp
	push	ecx
	push	esi
	mov	DWORD PTR [ebp-4], -858993460		; ccccccccH
	mov	DWORD PTR _this$[ebp], ecx
	mov	eax, DWORD PTR _this$[ebp]
	cmp	DWORD PTR [eax+124], 0
	je	SHORT $LN2@YellowBrus
	mov	esi, esp
	mov	ecx, DWORD PTR _this$[ebp]
	mov	edx, DWORD PTR [ecx+108]
	push	edx
	mov	eax, DWORD PTR _this$[ebp]
	mov	ecx, DWORD PTR [eax+124]
	push	ecx
	call	DWORD PTR __imp__SelectObject@8
	cmp	esi, esp
	call	__RTC_CheckEsp
$LN2@YellowBrus:
	pop	esi
	add	esp, 4
	cmp	ebp, esp
	call	__RTC_CheckEsp
	mov	esp, ebp
	pop	ebp
	ret	0
?YellowBrush@Cgdi@@QAEXXZ ENDP				; Cgdi::YellowBrush
_TEXT	ENDS
PUBLIC	__real@3ff0000000000000
EXTRN	__imp__Ellipse@20:PROC
EXTRN	__ftol2_sse:PROC
;	COMDAT __real@3ff0000000000000
CONST	SEGMENT
__real@3ff0000000000000 DQ 03ff0000000000000r	; 1
; Function compile flags: /Odtp /RTCsu
CONST	ENDS
;	COMDAT ?Circle@Cgdi@@QAEXUVector2D@@N@Z
_TEXT	SEGMENT
_this$ = -4						; size = 4
_pos$ = 8						; size = 16
_radius$ = 24						; size = 8
?Circle@Cgdi@@QAEXUVector2D@@N@Z PROC			; Cgdi::Circle, COMDAT
; _this$ = ecx

; 338  :   {

	push	ebp
	mov	ebp, esp
	push	ecx
	push	esi
	mov	DWORD PTR [ebp-4], -858993460		; ccccccccH
	mov	DWORD PTR _this$[ebp], ecx

; 339  :     Ellipse(m_hdc,
; 340  :            (int)(pos.x-radius),
; 341  :            (int)(pos.y-radius),
; 342  :            (int)(pos.x+radius+1),
; 343  :            (int)(pos.y+radius+1));

	fld	QWORD PTR _pos$[ebp+8]
	fadd	QWORD PTR _radius$[ebp]
	fadd	QWORD PTR __real@3ff0000000000000
	call	__ftol2_sse
	mov	esi, esp
	push	eax
	fld	QWORD PTR _pos$[ebp]
	fadd	QWORD PTR _radius$[ebp]
	fadd	QWORD PTR __real@3ff0000000000000
	call	__ftol2_sse
	push	eax
	fld	QWORD PTR _pos$[ebp+8]
	fsub	QWORD PTR _radius$[ebp]
	call	__ftol2_sse
	push	eax
	fld	QWORD PTR _pos$[ebp]
	fsub	QWORD PTR _radius$[ebp]
	call	__ftol2_sse
	push	eax
	mov	eax, DWORD PTR _this$[ebp]
	mov	ecx, DWORD PTR [eax+124]
	push	ecx
	call	DWORD PTR __imp__Ellipse@20
	cmp	esi, esp
	call	__RTC_CheckEsp

; 344  :   }

	pop	esi
	add	esp, 4
	cmp	ebp, esp
	call	__RTC_CheckEsp
	mov	esp, ebp
	pop	ebp
	ret	24					; 00000018H
?Circle@Cgdi@@QAEXUVector2D@@N@Z ENDP			; Cgdi::Circle
_TEXT	ENDS
PUBLIC	?isInactive@?$Goal@VAbstRaven_Bot@@@@QBE_NXZ	; Goal<AbstRaven_Bot>::isInactive
; Function compile flags: /Odtp /RTCsu
; File c:\users\teaja\documents\artificial-fun\labravenprojecttest\common\goals\goal.h
;	COMDAT ?ActivateIfInactive@?$Goal@VAbstRaven_Bot@@@@IAEXXZ
_TEXT	SEGMENT
_this$ = -4						; size = 4
?ActivateIfInactive@?$Goal@VAbstRaven_Bot@@@@IAEXXZ PROC ; Goal<AbstRaven_Bot>::ActivateIfInactive, COMDAT
; _this$ = ecx

; 114  : {

	push	ebp
	mov	ebp, esp
	push	ecx
	push	esi
	mov	DWORD PTR [ebp-4], -858993460		; ccccccccH
	mov	DWORD PTR _this$[ebp], ecx

; 115  :   if (isInactive())

	mov	ecx, DWORD PTR _this$[ebp]
	call	?isInactive@?$Goal@VAbstRaven_Bot@@@@QBE_NXZ ; Goal<AbstRaven_Bot>::isInactive
	movzx	eax, al
	test	eax, eax
	je	SHORT $LN2@ActivateIf

; 116  :   {
; 117  :     Activate();   

	mov	ecx, DWORD PTR _this$[ebp]
	mov	edx, DWORD PTR [ecx]
	mov	esi, esp
	mov	ecx, DWORD PTR _this$[ebp]
	mov	eax, DWORD PTR [edx+4]
	call	eax
	cmp	esi, esp
	call	__RTC_CheckEsp
$LN2@ActivateIf:

; 118  :   }
; 119  : }

	pop	esi
	add	esp, 4
	cmp	ebp, esp
	call	__RTC_CheckEsp
	mov	esp, ebp
	pop	ebp
	ret	0
?ActivateIfInactive@?$Goal@VAbstRaven_Bot@@@@IAEXXZ ENDP ; Goal<AbstRaven_Bot>::ActivateIfInactive
_TEXT	ENDS
PUBLIC	?hasFailed@?$Goal@VAbstRaven_Bot@@@@QBE_NXZ	; Goal<AbstRaven_Bot>::hasFailed
; Function compile flags: /Odtp /RTCsu
;	COMDAT ?ReactivateIfFailed@?$Goal@VAbstRaven_Bot@@@@IAEXXZ
_TEXT	SEGMENT
_this$ = -4						; size = 4
?ReactivateIfFailed@?$Goal@VAbstRaven_Bot@@@@IAEXXZ PROC ; Goal<AbstRaven_Bot>::ReactivateIfFailed, COMDAT
; _this$ = ecx

; 104  : {

	push	ebp
	mov	ebp, esp
	push	ecx
	mov	DWORD PTR [ebp-4], -858993460		; ccccccccH
	mov	DWORD PTR _this$[ebp], ecx

; 105  :   if (hasFailed())

	mov	ecx, DWORD PTR _this$[ebp]
	call	?hasFailed@?$Goal@VAbstRaven_Bot@@@@QBE_NXZ ; Goal<AbstRaven_Bot>::hasFailed
	movzx	eax, al
	test	eax, eax
	je	SHORT $LN2@Reactivate

; 106  :   {
; 107  :      m_iStatus = inactive;

	mov	ecx, DWORD PTR _this$[ebp]
	mov	DWORD PTR [ecx+12], 1
$LN2@Reactivate:

; 108  :   }
; 109  : }

	add	esp, 4
	cmp	ebp, esp
	call	__RTC_CheckEsp
	mov	esp, ebp
	pop	ebp
	ret	0
?ReactivateIfFailed@?$Goal@VAbstRaven_Bot@@@@IAEXXZ ENDP ; Goal<AbstRaven_Bot>::ReactivateIfFailed
_TEXT	ENDS
PUBLIC	?size@?$list@PAV?$Goal@VAbstRaven_Bot@@@@V?$allocator@PAV?$Goal@VAbstRaven_Bot@@@@@std@@@std@@QBEIXZ ; std::list<Goal<AbstRaven_Bot> *,std::allocator<Goal<AbstRaven_Bot> *> >::size
PUBLIC	?pop_front@?$list@PAV?$Goal@VAbstRaven_Bot@@@@V?$allocator@PAV?$Goal@VAbstRaven_Bot@@@@@std@@@std@@QAEXXZ ; std::list<Goal<AbstRaven_Bot> *,std::allocator<Goal<AbstRaven_Bot> *> >::pop_front
PUBLIC	?isComplete@?$Goal@VAbstRaven_Bot@@@@QBE_NXZ	; Goal<AbstRaven_Bot>::isComplete
PUBLIC	?front@?$list@PAV?$Goal@VAbstRaven_Bot@@@@V?$allocator@PAV?$Goal@VAbstRaven_Bot@@@@@std@@@std@@QAEAAPAV?$Goal@VAbstRaven_Bot@@@@XZ ; std::list<Goal<AbstRaven_Bot> *,std::allocator<Goal<AbstRaven_Bot> *> >::front
PUBLIC	?empty@?$list@PAV?$Goal@VAbstRaven_Bot@@@@V?$allocator@PAV?$Goal@VAbstRaven_Bot@@@@@std@@@std@@QBE_NXZ ; std::list<Goal<AbstRaven_Bot> *,std::allocator<Goal<AbstRaven_Bot> *> >::empty
; Function compile flags: /Odtp /RTCsu
; File c:\users\teaja\documents\artificial-fun\labravenprojecttest\common\goals\goal_composite.h
;	COMDAT ?ProcessSubgoals@?$Goal_Composite@VAbstRaven_Bot@@@@IAEHXZ
_TEXT	SEGMENT
tv145 = -28						; size = 4
tv132 = -24						; size = 4
tv88 = -20						; size = 4
$T153243 = -16						; size = 4
$T153242 = -12						; size = 4
_StatusOfSubGoals$148224 = -8				; size = 4
_this$ = -4						; size = 4
?ProcessSubgoals@?$Goal_Composite@VAbstRaven_Bot@@@@IAEHXZ PROC ; Goal_Composite<AbstRaven_Bot>::ProcessSubgoals, COMDAT
; _this$ = ecx

; 100  : { 

	push	ebp
	mov	ebp, esp
	sub	esp, 28					; 0000001cH
	push	esi
	mov	eax, -858993460				; ccccccccH
	mov	DWORD PTR [ebp-28], eax
	mov	DWORD PTR [ebp-24], eax
	mov	DWORD PTR [ebp-20], eax
	mov	DWORD PTR [ebp-16], eax
	mov	DWORD PTR [ebp-12], eax
	mov	DWORD PTR [ebp-8], eax
	mov	DWORD PTR [ebp-4], eax
	mov	DWORD PTR _this$[ebp], ecx
$LN6@ProcessSub:

; 101  :   //remove all completed and failed goals from the front of the subgoal list
; 102  :   while (!m_SubGoals.empty() &&
; 103  :          (m_SubGoals.front()->isComplete() || m_SubGoals.front()->hasFailed()))

	mov	ecx, DWORD PTR _this$[ebp]
	add	ecx, 16					; 00000010H
	call	?empty@?$list@PAV?$Goal@VAbstRaven_Bot@@@@V?$allocator@PAV?$Goal@VAbstRaven_Bot@@@@@std@@@std@@QBE_NXZ ; std::list<Goal<AbstRaven_Bot> *,std::allocator<Goal<AbstRaven_Bot> *> >::empty
	movzx	eax, al
	test	eax, eax
	jne	$LN5@ProcessSub
	mov	ecx, DWORD PTR _this$[ebp]
	add	ecx, 16					; 00000010H
	call	?front@?$list@PAV?$Goal@VAbstRaven_Bot@@@@V?$allocator@PAV?$Goal@VAbstRaven_Bot@@@@@std@@@std@@QAEAAPAV?$Goal@VAbstRaven_Bot@@@@XZ ; std::list<Goal<AbstRaven_Bot> *,std::allocator<Goal<AbstRaven_Bot> *> >::front
	mov	ecx, DWORD PTR [eax]
	call	?isComplete@?$Goal@VAbstRaven_Bot@@@@QBE_NXZ ; Goal<AbstRaven_Bot>::isComplete
	movzx	ecx, al
	test	ecx, ecx
	jne	SHORT $LN4@ProcessSub
	mov	ecx, DWORD PTR _this$[ebp]
	add	ecx, 16					; 00000010H
	call	?front@?$list@PAV?$Goal@VAbstRaven_Bot@@@@V?$allocator@PAV?$Goal@VAbstRaven_Bot@@@@@std@@@std@@QAEAAPAV?$Goal@VAbstRaven_Bot@@@@XZ ; std::list<Goal<AbstRaven_Bot> *,std::allocator<Goal<AbstRaven_Bot> *> >::front
	mov	ecx, DWORD PTR [eax]
	call	?hasFailed@?$Goal@VAbstRaven_Bot@@@@QBE_NXZ ; Goal<AbstRaven_Bot>::hasFailed
	movzx	edx, al
	test	edx, edx
	je	SHORT $LN5@ProcessSub
$LN4@ProcessSub:

; 104  :   {    
; 105  :     m_SubGoals.front()->Terminate();

	mov	ecx, DWORD PTR _this$[ebp]
	add	ecx, 16					; 00000010H
	call	?front@?$list@PAV?$Goal@VAbstRaven_Bot@@@@V?$allocator@PAV?$Goal@VAbstRaven_Bot@@@@@std@@@std@@QAEAAPAV?$Goal@VAbstRaven_Bot@@@@XZ ; std::list<Goal<AbstRaven_Bot> *,std::allocator<Goal<AbstRaven_Bot> *> >::front
	mov	eax, DWORD PTR [eax]
	mov	DWORD PTR tv88[ebp], eax
	mov	ecx, DWORD PTR tv88[ebp]
	mov	edx, DWORD PTR [ecx]
	mov	esi, esp
	mov	ecx, DWORD PTR tv88[ebp]
	mov	eax, DWORD PTR [edx+12]
	call	eax
	cmp	esi, esp
	call	__RTC_CheckEsp

; 106  :     delete m_SubGoals.front(); 

	mov	ecx, DWORD PTR _this$[ebp]
	add	ecx, 16					; 00000010H
	call	?front@?$list@PAV?$Goal@VAbstRaven_Bot@@@@V?$allocator@PAV?$Goal@VAbstRaven_Bot@@@@@std@@@std@@QAEAAPAV?$Goal@VAbstRaven_Bot@@@@XZ ; std::list<Goal<AbstRaven_Bot> *,std::allocator<Goal<AbstRaven_Bot> *> >::front
	mov	ecx, DWORD PTR [eax]
	mov	DWORD PTR $T153243[ebp], ecx
	mov	edx, DWORD PTR $T153243[ebp]
	mov	DWORD PTR $T153242[ebp], edx
	cmp	DWORD PTR $T153242[ebp], 0
	je	SHORT $LN9@ProcessSub
	mov	esi, esp
	push	1
	mov	eax, DWORD PTR $T153242[ebp]
	mov	edx, DWORD PTR [eax]
	mov	ecx, DWORD PTR $T153242[ebp]
	mov	eax, DWORD PTR [edx]
	call	eax
	cmp	esi, esp
	call	__RTC_CheckEsp
	mov	DWORD PTR tv132[ebp], eax
	jmp	SHORT $LN10@ProcessSub
$LN9@ProcessSub:
	mov	DWORD PTR tv132[ebp], 0
$LN10@ProcessSub:

; 107  :     m_SubGoals.pop_front();

	mov	ecx, DWORD PTR _this$[ebp]
	add	ecx, 16					; 00000010H
	call	?pop_front@?$list@PAV?$Goal@VAbstRaven_Bot@@@@V?$allocator@PAV?$Goal@VAbstRaven_Bot@@@@@std@@@std@@QAEXXZ ; std::list<Goal<AbstRaven_Bot> *,std::allocator<Goal<AbstRaven_Bot> *> >::pop_front

; 108  :   }

	jmp	$LN6@ProcessSub
$LN5@ProcessSub:

; 109  : 
; 110  :   //if any subgoals remain, process the one at the front of the list
; 111  :   if (!m_SubGoals.empty())

	mov	ecx, DWORD PTR _this$[ebp]
	add	ecx, 16					; 00000010H
	call	?empty@?$list@PAV?$Goal@VAbstRaven_Bot@@@@V?$allocator@PAV?$Goal@VAbstRaven_Bot@@@@@std@@@std@@QBE_NXZ ; std::list<Goal<AbstRaven_Bot> *,std::allocator<Goal<AbstRaven_Bot> *> >::empty
	movzx	ecx, al
	test	ecx, ecx
	jne	SHORT $LN3@ProcessSub

; 112  :   { 
; 113  :     //grab the status of the front-most subgoal
; 114  :     int StatusOfSubGoals = m_SubGoals.front()->Process();

	mov	ecx, DWORD PTR _this$[ebp]
	add	ecx, 16					; 00000010H
	call	?front@?$list@PAV?$Goal@VAbstRaven_Bot@@@@V?$allocator@PAV?$Goal@VAbstRaven_Bot@@@@@std@@@std@@QAEAAPAV?$Goal@VAbstRaven_Bot@@@@XZ ; std::list<Goal<AbstRaven_Bot> *,std::allocator<Goal<AbstRaven_Bot> *> >::front
	mov	edx, DWORD PTR [eax]
	mov	DWORD PTR tv145[ebp], edx
	mov	eax, DWORD PTR tv145[ebp]
	mov	edx, DWORD PTR [eax]
	mov	esi, esp
	mov	ecx, DWORD PTR tv145[ebp]
	mov	eax, DWORD PTR [edx+8]
	call	eax
	cmp	esi, esp
	call	__RTC_CheckEsp
	mov	DWORD PTR _StatusOfSubGoals$148224[ebp], eax

; 115  : 
; 116  :     //we have to test for the special case where the front-most subgoal
; 117  :     //reports 'completed' *and* the subgoal list contains additional goals.When
; 118  :     //this is the case, to ensure the parent keeps processing its subgoal list
; 119  :     //we must return the 'active' status.
; 120  :     if (StatusOfSubGoals == completed && m_SubGoals.size() > 1)

	cmp	DWORD PTR _StatusOfSubGoals$148224[ebp], 2
	jne	SHORT $LN2@ProcessSub
	mov	ecx, DWORD PTR _this$[ebp]
	add	ecx, 16					; 00000010H
	call	?size@?$list@PAV?$Goal@VAbstRaven_Bot@@@@V?$allocator@PAV?$Goal@VAbstRaven_Bot@@@@@std@@@std@@QBEIXZ ; std::list<Goal<AbstRaven_Bot> *,std::allocator<Goal<AbstRaven_Bot> *> >::size
	cmp	eax, 1
	jbe	SHORT $LN2@ProcessSub

; 121  :     {
; 122  :       return active;

	xor	eax, eax
	jmp	SHORT $LN7@ProcessSub
$LN2@ProcessSub:

; 123  :     }
; 124  : 
; 125  :     return StatusOfSubGoals;

	mov	eax, DWORD PTR _StatusOfSubGoals$148224[ebp]
	jmp	SHORT $LN7@ProcessSub

; 126  :   }
; 127  :   
; 128  :   //no more subgoals to process - return 'completed'
; 129  :   else

	jmp	SHORT $LN7@ProcessSub
$LN3@ProcessSub:

; 130  :   {
; 131  :     return completed;

	mov	eax, 2
$LN7@ProcessSub:

; 132  :   }
; 133  : }

	pop	esi
	add	esp, 28					; 0000001cH
	cmp	ebp, esp
	call	__RTC_CheckEsp
	mov	esp, ebp
	pop	ebp
	ret	0
?ProcessSubgoals@?$Goal_Composite@VAbstRaven_Bot@@@@IAEHXZ ENDP ; Goal_Composite<AbstRaven_Bot>::ProcessSubgoals
; Function compile flags: /Odtp /RTCsu
_TEXT	ENDS
;	COMDAT ?ForwardMessageToFrontMostSubgoal@?$Goal_Composite@VAbstRaven_Bot@@@@IAE_NABUTelegram@@@Z
_TEXT	SEGMENT
tv74 = -8						; size = 4
_this$ = -4						; size = 4
_msg$ = 8						; size = 4
?ForwardMessageToFrontMostSubgoal@?$Goal_Composite@VAbstRaven_Bot@@@@IAE_NABUTelegram@@@Z PROC ; Goal_Composite<AbstRaven_Bot>::ForwardMessageToFrontMostSubgoal, COMDAT
; _this$ = ecx

; 151  : {

	push	ebp
	mov	ebp, esp
	sub	esp, 8
	push	esi
	mov	DWORD PTR [ebp-8], -858993460		; ccccccccH
	mov	DWORD PTR [ebp-4], -858993460		; ccccccccH
	mov	DWORD PTR _this$[ebp], ecx

; 152  :   if (!m_SubGoals.empty())

	mov	ecx, DWORD PTR _this$[ebp]
	add	ecx, 16					; 00000010H
	call	?empty@?$list@PAV?$Goal@VAbstRaven_Bot@@@@V?$allocator@PAV?$Goal@VAbstRaven_Bot@@@@@std@@@std@@QBE_NXZ ; std::list<Goal<AbstRaven_Bot> *,std::allocator<Goal<AbstRaven_Bot> *> >::empty
	movzx	eax, al
	test	eax, eax
	jne	SHORT $LN1@ForwardMes

; 153  :   {
; 154  :     return m_SubGoals.front()->HandleMessage(msg);

	mov	ecx, DWORD PTR _this$[ebp]
	add	ecx, 16					; 00000010H
	call	?front@?$list@PAV?$Goal@VAbstRaven_Bot@@@@V?$allocator@PAV?$Goal@VAbstRaven_Bot@@@@@std@@@std@@QAEAAPAV?$Goal@VAbstRaven_Bot@@@@XZ ; std::list<Goal<AbstRaven_Bot> *,std::allocator<Goal<AbstRaven_Bot> *> >::front
	mov	ecx, DWORD PTR [eax]
	mov	DWORD PTR tv74[ebp], ecx
	mov	esi, esp
	mov	edx, DWORD PTR _msg$[ebp]
	push	edx
	mov	eax, DWORD PTR tv74[ebp]
	mov	edx, DWORD PTR [eax]
	mov	ecx, DWORD PTR tv74[ebp]
	mov	eax, DWORD PTR [edx+16]
	call	eax
	cmp	esi, esp
	call	__RTC_CheckEsp
	jmp	SHORT $LN2@ForwardMes
$LN1@ForwardMes:

; 155  :   }
; 156  : 
; 157  :   //return false if the message has not been handled
; 158  :   return false;

	xor	al, al
$LN2@ForwardMes:

; 159  : }

	pop	esi
	add	esp, 8
	cmp	ebp, esp
	call	__RTC_CheckEsp
	mov	esp, ebp
	pop	ebp
	ret	4
?ForwardMessageToFrontMostSubgoal@?$Goal_Composite@VAbstRaven_Bot@@@@IAE_NABUTelegram@@@Z ENDP ; Goal_Composite<AbstRaven_Bot>::ForwardMessageToFrontMostSubgoal
_TEXT	ENDS
PUBLIC	?clear@?$list@PAV?$Goal@VAbstRaven_Bot@@@@V?$allocator@PAV?$Goal@VAbstRaven_Bot@@@@@std@@@std@@QAEXXZ ; std::list<Goal<AbstRaven_Bot> *,std::allocator<Goal<AbstRaven_Bot> *> >::clear
PUBLIC	??D?$_List_iterator@V?$_List_val@PAV?$Goal@VAbstRaven_Bot@@@@V?$allocator@PAV?$Goal@VAbstRaven_Bot@@@@@std@@@std@@@std@@QBEAAPAV?$Goal@VAbstRaven_Bot@@@@XZ ; std::_List_iterator<std::_List_val<Goal<AbstRaven_Bot> *,std::allocator<Goal<AbstRaven_Bot> *> > >::operator*
PUBLIC	??1?$_List_iterator@V?$_List_val@PAV?$Goal@VAbstRaven_Bot@@@@V?$allocator@PAV?$Goal@VAbstRaven_Bot@@@@@std@@@std@@@std@@QAE@XZ ; std::_List_iterator<std::_List_val<Goal<AbstRaven_Bot> *,std::allocator<Goal<AbstRaven_Bot> *> > >::~_List_iterator<std::_List_val<Goal<AbstRaven_Bot> *,std::allocator<Goal<AbstRaven_Bot> *> > >
PUBLIC	??9?$_List_const_iterator@V?$_List_val@PAV?$Goal@VAbstRaven_Bot@@@@V?$allocator@PAV?$Goal@VAbstRaven_Bot@@@@@std@@@std@@@std@@QBE_NABV01@@Z ; std::_List_const_iterator<std::_List_val<Goal<AbstRaven_Bot> *,std::allocator<Goal<AbstRaven_Bot> *> > >::operator!=
PUBLIC	?end@?$list@PAV?$Goal@VAbstRaven_Bot@@@@V?$allocator@PAV?$Goal@VAbstRaven_Bot@@@@@std@@@std@@QAE?AV?$_List_iterator@V?$_List_val@PAV?$Goal@VAbstRaven_Bot@@@@V?$allocator@PAV?$Goal@VAbstRaven_Bot@@@@@std@@@std@@@2@XZ ; std::list<Goal<AbstRaven_Bot> *,std::allocator<Goal<AbstRaven_Bot> *> >::end
PUBLIC	??E?$_List_iterator@V?$_List_val@PAV?$Goal@VAbstRaven_Bot@@@@V?$allocator@PAV?$Goal@VAbstRaven_Bot@@@@@std@@@std@@@std@@QAEAAV01@XZ ; std::_List_iterator<std::_List_val<Goal<AbstRaven_Bot> *,std::allocator<Goal<AbstRaven_Bot> *> > >::operator++
PUBLIC	?begin@?$list@PAV?$Goal@VAbstRaven_Bot@@@@V?$allocator@PAV?$Goal@VAbstRaven_Bot@@@@@std@@@std@@QAE?AV?$_List_iterator@V?$_List_val@PAV?$Goal@VAbstRaven_Bot@@@@V?$allocator@PAV?$Goal@VAbstRaven_Bot@@@@@std@@@std@@@2@XZ ; std::list<Goal<AbstRaven_Bot> *,std::allocator<Goal<AbstRaven_Bot> *> >::begin
;	COMDAT xdata$x
xdata$x	SEGMENT
__unwindtable$?RemoveAllSubgoals@?$Goal_Composite@VAbstRaven_Bot@@@@QAEXXZ DD 0ffffffffH
	DD	FLAT:__unwindfunclet$?RemoveAllSubgoals@?$Goal_Composite@VAbstRaven_Bot@@@@QAEXXZ$0
	DD	00H
	DD	FLAT:__unwindfunclet$?RemoveAllSubgoals@?$Goal_Composite@VAbstRaven_Bot@@@@QAEXXZ$1
__ehfuncinfo$?RemoveAllSubgoals@?$Goal_Composite@VAbstRaven_Bot@@@@QAEXXZ DD 019930522H
	DD	02H
	DD	FLAT:__unwindtable$?RemoveAllSubgoals@?$Goal_Composite@VAbstRaven_Bot@@@@QAEXXZ
	DD	2 DUP(00H)
	DD	2 DUP(00H)
	DD	00H
	DD	01H
; Function compile flags: /Odtp /RTCsu
xdata$x	ENDS
;	COMDAT ?RemoveAllSubgoals@?$Goal_Composite@VAbstRaven_Bot@@@@QAEXXZ
_TEXT	SEGMENT
tv136 = -76						; size = 4
tv93 = -72						; size = 4
tv141 = -68						; size = 4
tv66 = -64						; size = 4
$T153253 = -60						; size = 4
$T153252 = -56						; size = 4
$T153251 = -52						; size = 12
$T153250 = -37						; size = 1
_it$148285 = -32					; size = 12
_this$ = -16						; size = 4
__$EHRec$ = -12						; size = 12
?RemoveAllSubgoals@?$Goal_Composite@VAbstRaven_Bot@@@@QAEXXZ PROC ; Goal_Composite<AbstRaven_Bot>::RemoveAllSubgoals, COMDAT
; _this$ = ecx

; 79   : {

	push	ebp
	mov	ebp, esp
	push	-1
	push	__ehhandler$?RemoveAllSubgoals@?$Goal_Composite@VAbstRaven_Bot@@@@QAEXXZ
	mov	eax, DWORD PTR fs:0
	push	eax
	sub	esp, 64					; 00000040H
	push	esi
	push	edi
	push	ecx
	lea	edi, DWORD PTR [ebp-76]
	mov	ecx, 16					; 00000010H
	mov	eax, -858993460				; ccccccccH
	rep stosd
	pop	ecx
	mov	eax, DWORD PTR ___security_cookie
	xor	eax, ebp
	push	eax
	lea	eax, DWORD PTR __$EHRec$[ebp]
	mov	DWORD PTR fs:0, eax
	mov	DWORD PTR _this$[ebp], ecx

; 80   :   for (SubgoalList::iterator it = m_SubGoals.begin();

	lea	eax, DWORD PTR _it$148285[ebp]
	push	eax
	mov	ecx, DWORD PTR _this$[ebp]
	add	ecx, 16					; 00000010H
	call	?begin@?$list@PAV?$Goal@VAbstRaven_Bot@@@@V?$allocator@PAV?$Goal@VAbstRaven_Bot@@@@@std@@@std@@QAE?AV?$_List_iterator@V?$_List_val@PAV?$Goal@VAbstRaven_Bot@@@@V?$allocator@PAV?$Goal@VAbstRaven_Bot@@@@@std@@@std@@@2@XZ ; std::list<Goal<AbstRaven_Bot> *,std::allocator<Goal<AbstRaven_Bot> *> >::begin
	mov	DWORD PTR __$EHRec$[ebp+8], 0
	jmp	SHORT $LN3@RemoveAllS
$LN2@RemoveAllS:

; 81   :        it != m_SubGoals.end();
; 82   :        ++it)

	lea	ecx, DWORD PTR _it$148285[ebp]
	call	??E?$_List_iterator@V?$_List_val@PAV?$Goal@VAbstRaven_Bot@@@@V?$allocator@PAV?$Goal@VAbstRaven_Bot@@@@@std@@@std@@@std@@QAEAAV01@XZ ; std::_List_iterator<std::_List_val<Goal<AbstRaven_Bot> *,std::allocator<Goal<AbstRaven_Bot> *> > >::operator++
$LN3@RemoveAllS:
	lea	ecx, DWORD PTR $T153251[ebp]
	push	ecx
	mov	ecx, DWORD PTR _this$[ebp]
	add	ecx, 16					; 00000010H
	call	?end@?$list@PAV?$Goal@VAbstRaven_Bot@@@@V?$allocator@PAV?$Goal@VAbstRaven_Bot@@@@@std@@@std@@QAE?AV?$_List_iterator@V?$_List_val@PAV?$Goal@VAbstRaven_Bot@@@@V?$allocator@PAV?$Goal@VAbstRaven_Bot@@@@@std@@@std@@@2@XZ ; std::list<Goal<AbstRaven_Bot> *,std::allocator<Goal<AbstRaven_Bot> *> >::end
	mov	DWORD PTR tv66[ebp], eax
	mov	edx, DWORD PTR tv66[ebp]
	mov	DWORD PTR tv141[ebp], edx
	mov	BYTE PTR __$EHRec$[ebp+8], 1
	mov	eax, DWORD PTR tv141[ebp]
	push	eax
	lea	ecx, DWORD PTR _it$148285[ebp]
	call	??9?$_List_const_iterator@V?$_List_val@PAV?$Goal@VAbstRaven_Bot@@@@V?$allocator@PAV?$Goal@VAbstRaven_Bot@@@@@std@@@std@@@std@@QBE_NABV01@@Z ; std::_List_const_iterator<std::_List_val<Goal<AbstRaven_Bot> *,std::allocator<Goal<AbstRaven_Bot> *> > >::operator!=
	mov	BYTE PTR $T153250[ebp], al
	mov	BYTE PTR __$EHRec$[ebp+8], 0
	lea	ecx, DWORD PTR $T153251[ebp]
	call	??1?$_List_iterator@V?$_List_val@PAV?$Goal@VAbstRaven_Bot@@@@V?$allocator@PAV?$Goal@VAbstRaven_Bot@@@@@std@@@std@@@std@@QAE@XZ
	movzx	ecx, BYTE PTR $T153250[ebp]
	test	ecx, ecx
	je	SHORT $LN1@RemoveAllS

; 83   :   {  
; 84   :     (*it)->Terminate();

	lea	ecx, DWORD PTR _it$148285[ebp]
	call	??D?$_List_iterator@V?$_List_val@PAV?$Goal@VAbstRaven_Bot@@@@V?$allocator@PAV?$Goal@VAbstRaven_Bot@@@@@std@@@std@@@std@@QBEAAPAV?$Goal@VAbstRaven_Bot@@@@XZ ; std::_List_iterator<std::_List_val<Goal<AbstRaven_Bot> *,std::allocator<Goal<AbstRaven_Bot> *> > >::operator*
	mov	edx, DWORD PTR [eax]
	mov	DWORD PTR tv93[ebp], edx
	mov	eax, DWORD PTR tv93[ebp]
	mov	edx, DWORD PTR [eax]
	mov	esi, esp
	mov	ecx, DWORD PTR tv93[ebp]
	mov	eax, DWORD PTR [edx+12]
	call	eax
	cmp	esi, esp
	call	__RTC_CheckEsp

; 85   :     
; 86   :     delete *it;

	lea	ecx, DWORD PTR _it$148285[ebp]
	call	??D?$_List_iterator@V?$_List_val@PAV?$Goal@VAbstRaven_Bot@@@@V?$allocator@PAV?$Goal@VAbstRaven_Bot@@@@@std@@@std@@@std@@QBEAAPAV?$Goal@VAbstRaven_Bot@@@@XZ ; std::_List_iterator<std::_List_val<Goal<AbstRaven_Bot> *,std::allocator<Goal<AbstRaven_Bot> *> > >::operator*
	mov	ecx, DWORD PTR [eax]
	mov	DWORD PTR $T153253[ebp], ecx
	mov	edx, DWORD PTR $T153253[ebp]
	mov	DWORD PTR $T153252[ebp], edx
	cmp	DWORD PTR $T153252[ebp], 0
	je	SHORT $LN6@RemoveAllS
	mov	esi, esp
	push	1
	mov	eax, DWORD PTR $T153252[ebp]
	mov	edx, DWORD PTR [eax]
	mov	ecx, DWORD PTR $T153252[ebp]
	mov	eax, DWORD PTR [edx]
	call	eax
	cmp	esi, esp
	call	__RTC_CheckEsp
	mov	DWORD PTR tv136[ebp], eax
	jmp	SHORT $LN7@RemoveAllS
$LN6@RemoveAllS:
	mov	DWORD PTR tv136[ebp], 0
$LN7@RemoveAllS:

; 87   :   }

	jmp	$LN2@RemoveAllS
$LN1@RemoveAllS:
	mov	DWORD PTR __$EHRec$[ebp+8], -1
	lea	ecx, DWORD PTR _it$148285[ebp]
	call	??1?$_List_iterator@V?$_List_val@PAV?$Goal@VAbstRaven_Bot@@@@V?$allocator@PAV?$Goal@VAbstRaven_Bot@@@@@std@@@std@@@std@@QAE@XZ

; 88   : 
; 89   :   m_SubGoals.clear();

	mov	ecx, DWORD PTR _this$[ebp]
	add	ecx, 16					; 00000010H
	call	?clear@?$list@PAV?$Goal@VAbstRaven_Bot@@@@V?$allocator@PAV?$Goal@VAbstRaven_Bot@@@@@std@@@std@@QAEXXZ ; std::list<Goal<AbstRaven_Bot> *,std::allocator<Goal<AbstRaven_Bot> *> >::clear

; 90   : }

	push	edx
	mov	ecx, ebp
	push	eax
	lea	edx, DWORD PTR $LN13@RemoveAllS
	call	@_RTC_CheckStackVars@8
	pop	eax
	pop	edx
	mov	ecx, DWORD PTR __$EHRec$[ebp]
	mov	DWORD PTR fs:0, ecx
	pop	ecx
	pop	edi
	pop	esi
	add	esp, 76					; 0000004cH
	cmp	ebp, esp
	call	__RTC_CheckEsp
	mov	esp, ebp
	pop	ebp
	ret	0
$LN13@RemoveAllS:
	DD	1
	DD	$LN12@RemoveAllS
$LN12@RemoveAllS:
	DD	-32					; ffffffe0H
	DD	12					; 0000000cH
	DD	$LN10@RemoveAllS
$LN10@RemoveAllS:
	DB	105					; 00000069H
	DB	116					; 00000074H
	DB	0
_TEXT	ENDS
;	COMDAT text$x
text$x	SEGMENT
__unwindfunclet$?RemoveAllSubgoals@?$Goal_Composite@VAbstRaven_Bot@@@@QAEXXZ$0:
	lea	ecx, DWORD PTR _it$148285[ebp]
	jmp	??1?$_List_iterator@V?$_List_val@PAV?$Goal@VAbstRaven_Bot@@@@V?$allocator@PAV?$Goal@VAbstRaven_Bot@@@@@std@@@std@@@std@@QAE@XZ
__unwindfunclet$?RemoveAllSubgoals@?$Goal_Composite@VAbstRaven_Bot@@@@QAEXXZ$1:
	lea	ecx, DWORD PTR $T153251[ebp]
	jmp	??1?$_List_iterator@V?$_List_val@PAV?$Goal@VAbstRaven_Bot@@@@V?$allocator@PAV?$Goal@VAbstRaven_Bot@@@@@std@@@std@@@std@@QAE@XZ
__ehhandler$?RemoveAllSubgoals@?$Goal_Composite@VAbstRaven_Bot@@@@QAEXXZ:
	mov	edx, DWORD PTR [esp+8]
	lea	eax, DWORD PTR [edx+12]
	mov	ecx, DWORD PTR [edx-76]
	xor	ecx, eax
	call	@__security_check_cookie@4
	mov	eax, OFFSET __ehfuncinfo$?RemoveAllSubgoals@?$Goal_Composite@VAbstRaven_Bot@@@@QAEXXZ
	jmp	___CxxFrameHandler3
text$x	ENDS
?RemoveAllSubgoals@?$Goal_Composite@VAbstRaven_Bot@@@@QAEXXZ ENDP ; Goal_Composite<AbstRaven_Bot>::RemoveAllSubgoals
PUBLIC	?deallocate@?$allocator@U_Node@?$_List_nod@PAV?$Goal@VAbstRaven_Bot@@@@V?$allocator@PAV?$Goal@VAbstRaven_Bot@@@@@std@@@std@@@std@@QAEXPAU_Node@?$_List_nod@PAV?$Goal@VAbstRaven_Bot@@@@V?$allocator@PAV?$Goal@VAbstRaven_Bot@@@@@std@@@2@I@Z ; std::allocator<std::_List_nod<Goal<AbstRaven_Bot> *,std::allocator<Goal<AbstRaven_Bot> *> >::_Node>::deallocate
PUBLIC	??$_Dest_val@V?$allocator@U_Node@?$_List_nod@PAV?$Goal@VAbstRaven_Bot@@@@V?$allocator@PAV?$Goal@VAbstRaven_Bot@@@@@std@@@std@@@std@@U_Node@?$_List_nod@PAV?$Goal@VAbstRaven_Bot@@@@V?$allocator@PAV?$Goal@VAbstRaven_Bot@@@@@std@@@2@@std@@YAXAAV?$allocator@U_Node@?$_List_nod@PAV?$Goal@VAbstRaven_Bot@@@@V?$allocator@PAV?$Goal@VAbstRaven_Bot@@@@@std@@@std@@@0@PAU_Node@?$_List_nod@PAV?$Goal@VAbstRaven_Bot@@@@V?$allocator@PAV?$Goal@VAbstRaven_Bot@@@@@std@@@0@@Z ; std::_Dest_val<std::allocator<std::_List_nod<Goal<AbstRaven_Bot> *,std::allocator<Goal<AbstRaven_Bot> *> >::_Node>,std::_List_nod<Goal<AbstRaven_Bot> *,std::allocator<Goal<AbstRaven_Bot> *> >::_Node>
PUBLIC	?_Prevnode@?$_List_val@PAV?$Goal@VAbstRaven_Bot@@@@V?$allocator@PAV?$Goal@VAbstRaven_Bot@@@@@std@@@std@@SAAAPAU_Node@?$_List_nod@PAV?$Goal@VAbstRaven_Bot@@@@V?$allocator@PAV?$Goal@VAbstRaven_Bot@@@@@std@@@2@PAU342@@Z ; std::_List_val<Goal<AbstRaven_Bot> *,std::allocator<Goal<AbstRaven_Bot> *> >::_Prevnode
PUBLIC	?_Nextnode@?$_List_val@PAV?$Goal@VAbstRaven_Bot@@@@V?$allocator@PAV?$Goal@VAbstRaven_Bot@@@@@std@@@std@@SAAAPAU_Node@?$_List_nod@PAV?$Goal@VAbstRaven_Bot@@@@V?$allocator@PAV?$Goal@VAbstRaven_Bot@@@@@std@@@2@PAU342@@Z ; std::_List_val<Goal<AbstRaven_Bot> *,std::allocator<Goal<AbstRaven_Bot> *> >::_Nextnode
PUBLIC	?_Orphan_ptr@?$list@PAV?$Goal@VAbstRaven_Bot@@@@V?$allocator@PAV?$Goal@VAbstRaven_Bot@@@@@std@@@std@@QBEXAAV12@PAU_Node@?$_List_nod@PAV?$Goal@VAbstRaven_Bot@@@@V?$allocator@PAV?$Goal@VAbstRaven_Bot@@@@@std@@@2@@Z ; std::list<Goal<AbstRaven_Bot> *,std::allocator<Goal<AbstRaven_Bot> *> >::_Orphan_ptr
; Function compile flags: /Odtp /RTCsu
; File c:\program files (x86)\microsoft visual studio 10.0\vc\include\list
;	COMDAT ?clear@?$list@PAV?$Goal@VAbstRaven_Bot@@@@V?$allocator@PAV?$Goal@VAbstRaven_Bot@@@@@std@@@std@@QAEXXZ
_TEXT	SEGMENT
__Pnode$ = -12						; size = 4
__Pnext$ = -8						; size = 4
_this$ = -4						; size = 4
?clear@?$list@PAV?$Goal@VAbstRaven_Bot@@@@V?$allocator@PAV?$Goal@VAbstRaven_Bot@@@@@std@@@std@@QAEXXZ PROC ; std::list<Goal<AbstRaven_Bot> *,std::allocator<Goal<AbstRaven_Bot> *> >::clear, COMDAT
; _this$ = ecx

; 1096 : 		{	// erase all

	push	ebp
	mov	ebp, esp
	sub	esp, 12					; 0000000cH
	mov	DWORD PTR [ebp-12], -858993460		; ccccccccH
	mov	DWORD PTR [ebp-8], -858993460		; ccccccccH
	mov	DWORD PTR [ebp-4], -858993460		; ccccccccH
	mov	DWORD PTR _this$[ebp], ecx

; 1097 :  #if _ITERATOR_DEBUG_LEVEL == 2
; 1098 : 		this->_Orphan_ptr(*this, 0);

	push	0
	mov	eax, DWORD PTR _this$[ebp]
	push	eax
	mov	ecx, DWORD PTR _this$[ebp]
	call	?_Orphan_ptr@?$list@PAV?$Goal@VAbstRaven_Bot@@@@V?$allocator@PAV?$Goal@VAbstRaven_Bot@@@@@std@@@std@@QBEXAAV12@PAU_Node@?$_List_nod@PAV?$Goal@VAbstRaven_Bot@@@@V?$allocator@PAV?$Goal@VAbstRaven_Bot@@@@@std@@@2@@Z ; std::list<Goal<AbstRaven_Bot> *,std::allocator<Goal<AbstRaven_Bot> *> >::_Orphan_ptr

; 1099 :  #endif /* _ITERATOR_DEBUG_LEVEL == 2 */
; 1100 : 
; 1101 : 		_Nodeptr _Pnext;
; 1102 : 		_Nodeptr _Pnode = this->_Nextnode(this->_Myhead);

	mov	ecx, DWORD PTR _this$[ebp]
	mov	edx, DWORD PTR [ecx+4]
	push	edx
	call	?_Nextnode@?$_List_val@PAV?$Goal@VAbstRaven_Bot@@@@V?$allocator@PAV?$Goal@VAbstRaven_Bot@@@@@std@@@std@@SAAAPAU_Node@?$_List_nod@PAV?$Goal@VAbstRaven_Bot@@@@V?$allocator@PAV?$Goal@VAbstRaven_Bot@@@@@std@@@2@PAU342@@Z ; std::_List_val<Goal<AbstRaven_Bot> *,std::allocator<Goal<AbstRaven_Bot> *> >::_Nextnode
	add	esp, 4
	mov	eax, DWORD PTR [eax]
	mov	DWORD PTR __Pnode$[ebp], eax

; 1103 : 		this->_Nextnode(this->_Myhead) = this->_Myhead;

	mov	ecx, DWORD PTR _this$[ebp]
	mov	edx, DWORD PTR [ecx+4]
	push	edx
	call	?_Nextnode@?$_List_val@PAV?$Goal@VAbstRaven_Bot@@@@V?$allocator@PAV?$Goal@VAbstRaven_Bot@@@@@std@@@std@@SAAAPAU_Node@?$_List_nod@PAV?$Goal@VAbstRaven_Bot@@@@V?$allocator@PAV?$Goal@VAbstRaven_Bot@@@@@std@@@2@PAU342@@Z ; std::_List_val<Goal<AbstRaven_Bot> *,std::allocator<Goal<AbstRaven_Bot> *> >::_Nextnode
	add	esp, 4
	mov	ecx, DWORD PTR _this$[ebp]
	mov	edx, DWORD PTR [ecx+4]
	mov	DWORD PTR [eax], edx

; 1104 : 		this->_Prevnode(this->_Myhead) = this->_Myhead;

	mov	eax, DWORD PTR _this$[ebp]
	mov	ecx, DWORD PTR [eax+4]
	push	ecx
	call	?_Prevnode@?$_List_val@PAV?$Goal@VAbstRaven_Bot@@@@V?$allocator@PAV?$Goal@VAbstRaven_Bot@@@@@std@@@std@@SAAAPAU_Node@?$_List_nod@PAV?$Goal@VAbstRaven_Bot@@@@V?$allocator@PAV?$Goal@VAbstRaven_Bot@@@@@std@@@2@PAU342@@Z ; std::_List_val<Goal<AbstRaven_Bot> *,std::allocator<Goal<AbstRaven_Bot> *> >::_Prevnode
	add	esp, 4
	mov	edx, DWORD PTR _this$[ebp]
	mov	ecx, DWORD PTR [edx+4]
	mov	DWORD PTR [eax], ecx

; 1105 : 		this->_Mysize = 0;

	mov	edx, DWORD PTR _this$[ebp]
	mov	DWORD PTR [edx+8], 0

; 1106 : 
; 1107 : 		for (; _Pnode != this->_Myhead; _Pnode = _Pnext)

	jmp	SHORT $LN3@clear
$LN2@clear:
	mov	eax, DWORD PTR __Pnext$[ebp]
	mov	DWORD PTR __Pnode$[ebp], eax
$LN3@clear:
	mov	ecx, DWORD PTR _this$[ebp]
	mov	edx, DWORD PTR __Pnode$[ebp]
	cmp	edx, DWORD PTR [ecx+4]
	je	SHORT $LN4@clear

; 1108 : 			{	// delete an element
; 1109 : 			_Pnext = this->_Nextnode(_Pnode);

	mov	eax, DWORD PTR __Pnode$[ebp]
	push	eax
	call	?_Nextnode@?$_List_val@PAV?$Goal@VAbstRaven_Bot@@@@V?$allocator@PAV?$Goal@VAbstRaven_Bot@@@@@std@@@std@@SAAAPAU_Node@?$_List_nod@PAV?$Goal@VAbstRaven_Bot@@@@V?$allocator@PAV?$Goal@VAbstRaven_Bot@@@@@std@@@2@PAU342@@Z ; std::_List_val<Goal<AbstRaven_Bot> *,std::allocator<Goal<AbstRaven_Bot> *> >::_Nextnode
	add	esp, 4
	mov	ecx, DWORD PTR [eax]
	mov	DWORD PTR __Pnext$[ebp], ecx

; 1110 : 
; 1111 : 			_Dest_val(this->_Alnod, _Pnode);

	mov	edx, DWORD PTR __Pnode$[ebp]
	push	edx
	mov	eax, DWORD PTR _this$[ebp]
	add	eax, 12					; 0000000cH
	push	eax
	call	??$_Dest_val@V?$allocator@U_Node@?$_List_nod@PAV?$Goal@VAbstRaven_Bot@@@@V?$allocator@PAV?$Goal@VAbstRaven_Bot@@@@@std@@@std@@@std@@U_Node@?$_List_nod@PAV?$Goal@VAbstRaven_Bot@@@@V?$allocator@PAV?$Goal@VAbstRaven_Bot@@@@@std@@@2@@std@@YAXAAV?$allocator@U_Node@?$_List_nod@PAV?$Goal@VAbstRaven_Bot@@@@V?$allocator@PAV?$Goal@VAbstRaven_Bot@@@@@std@@@std@@@0@PAU_Node@?$_List_nod@PAV?$Goal@VAbstRaven_Bot@@@@V?$allocator@PAV?$Goal@VAbstRaven_Bot@@@@@std@@@0@@Z ; std::_Dest_val<std::allocator<std::_List_nod<Goal<AbstRaven_Bot> *,std::allocator<Goal<AbstRaven_Bot> *> >::_Node>,std::_List_nod<Goal<AbstRaven_Bot> *,std::allocator<Goal<AbstRaven_Bot> *> >::_Node>
	add	esp, 8

; 1112 : 			this->_Alnod.deallocate(_Pnode, 1);

	push	1
	mov	ecx, DWORD PTR __Pnode$[ebp]
	push	ecx
	mov	ecx, DWORD PTR _this$[ebp]
	add	ecx, 12					; 0000000cH
	call	?deallocate@?$allocator@U_Node@?$_List_nod@PAV?$Goal@VAbstRaven_Bot@@@@V?$allocator@PAV?$Goal@VAbstRaven_Bot@@@@@std@@@std@@@std@@QAEXPAU_Node@?$_List_nod@PAV?$Goal@VAbstRaven_Bot@@@@V?$allocator@PAV?$Goal@VAbstRaven_Bot@@@@@std@@@2@I@Z ; std::allocator<std::_List_nod<Goal<AbstRaven_Bot> *,std::allocator<Goal<AbstRaven_Bot> *> >::_Node>::deallocate

; 1113 : 			}

	jmp	SHORT $LN2@clear
$LN4@clear:

; 1114 : 		}

	add	esp, 12					; 0000000cH
	cmp	ebp, esp
	call	__RTC_CheckEsp
	mov	esp, ebp
	pop	ebp
	ret	0
?clear@?$list@PAV?$Goal@VAbstRaven_Bot@@@@V?$allocator@PAV?$Goal@VAbstRaven_Bot@@@@@std@@@std@@QAEXXZ ENDP ; std::list<Goal<AbstRaven_Bot> *,std::allocator<Goal<AbstRaven_Bot> *> >::clear
; Function compile flags: /Odtp /RTCsu
_TEXT	ENDS
;	COMDAT ?_Nextnode@?$_List_val@PAV?$Goal@VAbstRaven_Bot@@@@V?$allocator@PAV?$Goal@VAbstRaven_Bot@@@@@std@@@std@@SAAAPAU_Node@?$_List_nod@PAV?$Goal@VAbstRaven_Bot@@@@V?$allocator@PAV?$Goal@VAbstRaven_Bot@@@@@std@@@2@PAU342@@Z
_TEXT	SEGMENT
__Pnode$ = 8						; size = 4
?_Nextnode@?$_List_val@PAV?$Goal@VAbstRaven_Bot@@@@V?$allocator@PAV?$Goal@VAbstRaven_Bot@@@@@std@@@std@@SAAAPAU_Node@?$_List_nod@PAV?$Goal@VAbstRaven_Bot@@@@V?$allocator@PAV?$Goal@VAbstRaven_Bot@@@@@std@@@2@PAU342@@Z PROC ; std::_List_val<Goal<AbstRaven_Bot> *,std::allocator<Goal<AbstRaven_Bot> *> >::_Nextnode, COMDAT

; 560  : 		{	// return reference to successor pointer in node

	push	ebp
	mov	ebp, esp

; 561  : 		return ((_Nodepref)(*_Pnode)._Next);

	mov	eax, DWORD PTR __Pnode$[ebp]

; 562  : 		}

	pop	ebp
	ret	0
?_Nextnode@?$_List_val@PAV?$Goal@VAbstRaven_Bot@@@@V?$allocator@PAV?$Goal@VAbstRaven_Bot@@@@@std@@@std@@SAAAPAU_Node@?$_List_nod@PAV?$Goal@VAbstRaven_Bot@@@@V?$allocator@PAV?$Goal@VAbstRaven_Bot@@@@@std@@@2@PAU342@@Z ENDP ; std::_List_val<Goal<AbstRaven_Bot> *,std::allocator<Goal<AbstRaven_Bot> *> >::_Nextnode
; Function compile flags: /Odtp /RTCsu
_TEXT	ENDS
;	COMDAT ?_Prevnode@?$_List_val@PAV?$Goal@VAbstRaven_Bot@@@@V?$allocator@PAV?$Goal@VAbstRaven_Bot@@@@@std@@@std@@SAAAPAU_Node@?$_List_nod@PAV?$Goal@VAbstRaven_Bot@@@@V?$allocator@PAV?$Goal@VAbstRaven_Bot@@@@@std@@@2@PAU342@@Z
_TEXT	SEGMENT
__Pnode$ = 8						; size = 4
?_Prevnode@?$_List_val@PAV?$Goal@VAbstRaven_Bot@@@@V?$allocator@PAV?$Goal@VAbstRaven_Bot@@@@@std@@@std@@SAAAPAU_Node@?$_List_nod@PAV?$Goal@VAbstRaven_Bot@@@@V?$allocator@PAV?$Goal@VAbstRaven_Bot@@@@@std@@@2@PAU342@@Z PROC ; std::_List_val<Goal<AbstRaven_Bot> *,std::allocator<Goal<AbstRaven_Bot> *> >::_Prevnode, COMDAT

; 565  : 		{	// return reference to predecessor pointer in node

	push	ebp
	mov	ebp, esp

; 566  : 		return ((_Nodepref)(*_Pnode)._Prev);

	mov	eax, DWORD PTR __Pnode$[ebp]
	add	eax, 4

; 567  : 		}

	pop	ebp
	ret	0
?_Prevnode@?$_List_val@PAV?$Goal@VAbstRaven_Bot@@@@V?$allocator@PAV?$Goal@VAbstRaven_Bot@@@@@std@@@std@@SAAAPAU_Node@?$_List_nod@PAV?$Goal@VAbstRaven_Bot@@@@V?$allocator@PAV?$Goal@VAbstRaven_Bot@@@@@std@@@2@PAU342@@Z ENDP ; std::_List_val<Goal<AbstRaven_Bot> *,std::allocator<Goal<AbstRaven_Bot> *> >::_Prevnode
; Function compile flags: /Odtp /RTCsu
; File c:\program files (x86)\microsoft visual studio 10.0\vc\include\xmemory
_TEXT	ENDS
;	COMDAT ?deallocate@?$allocator@U_Node@?$_List_nod@PAV?$Goal@VAbstRaven_Bot@@@@V?$allocator@PAV?$Goal@VAbstRaven_Bot@@@@@std@@@std@@@std@@QAEXPAU_Node@?$_List_nod@PAV?$Goal@VAbstRaven_Bot@@@@V?$allocator@PAV?$Goal@VAbstRaven_Bot@@@@@std@@@2@I@Z
_TEXT	SEGMENT
_this$ = -4						; size = 4
__Ptr$ = 8						; size = 4
___formal$ = 12						; size = 4
?deallocate@?$allocator@U_Node@?$_List_nod@PAV?$Goal@VAbstRaven_Bot@@@@V?$allocator@PAV?$Goal@VAbstRaven_Bot@@@@@std@@@std@@@std@@QAEXPAU_Node@?$_List_nod@PAV?$Goal@VAbstRaven_Bot@@@@V?$allocator@PAV?$Goal@VAbstRaven_Bot@@@@@std@@@2@I@Z PROC ; std::allocator<std::_List_nod<Goal<AbstRaven_Bot> *,std::allocator<Goal<AbstRaven_Bot> *> >::_Node>::deallocate, COMDAT
; _this$ = ecx

; 181  : 		{	// deallocate object at _Ptr, ignore size

	push	ebp
	mov	ebp, esp
	push	ecx
	mov	DWORD PTR [ebp-4], -858993460		; ccccccccH
	mov	DWORD PTR _this$[ebp], ecx

; 182  : 		::operator delete(_Ptr);

	mov	eax, DWORD PTR __Ptr$[ebp]
	push	eax
	call	??3@YAXPAX@Z				; operator delete
	add	esp, 4

; 183  : 		}

	add	esp, 4
	cmp	ebp, esp
	call	__RTC_CheckEsp
	mov	esp, ebp
	pop	ebp
	ret	8
?deallocate@?$allocator@U_Node@?$_List_nod@PAV?$Goal@VAbstRaven_Bot@@@@V?$allocator@PAV?$Goal@VAbstRaven_Bot@@@@@std@@@std@@@std@@QAEXPAU_Node@?$_List_nod@PAV?$Goal@VAbstRaven_Bot@@@@V?$allocator@PAV?$Goal@VAbstRaven_Bot@@@@@std@@@2@I@Z ENDP ; std::allocator<std::_List_nod<Goal<AbstRaven_Bot> *,std::allocator<Goal<AbstRaven_Bot> *> >::_Node>::deallocate
_TEXT	ENDS
PUBLIC	?_Clrcont@_Iterator_base12@std@@QAEXXZ		; std::_Iterator_base12::_Clrcont
PUBLIC	?_Getpnext@_Iterator_base12@std@@QAEPAPAU12@XZ	; std::_Iterator_base12::_Getpnext
PUBLIC	?_Getpfirst@_Container_base12@std@@QBEPAPAU_Iterator_base12@2@XZ ; std::_Container_base12::_Getpfirst
EXTRN	??1_Lockit@std@@QAE@XZ:PROC			; std::_Lockit::~_Lockit
EXTRN	??0_Lockit@std@@QAE@H@Z:PROC			; std::_Lockit::_Lockit
;	COMDAT xdata$x
; File c:\program files (x86)\microsoft visual studio 10.0\vc\include\list
xdata$x	SEGMENT
__unwindtable$?_Orphan_ptr@?$list@PAV?$Goal@VAbstRaven_Bot@@@@V?$allocator@PAV?$Goal@VAbstRaven_Bot@@@@@std@@@std@@QBEXAAV12@PAU_Node@?$_List_nod@PAV?$Goal@VAbstRaven_Bot@@@@V?$allocator@PAV?$Goal@VAbstRaven_Bot@@@@@std@@@2@@Z DD 0ffffffffH
	DD	FLAT:__unwindfunclet$?_Orphan_ptr@?$list@PAV?$Goal@VAbstRaven_Bot@@@@V?$allocator@PAV?$Goal@VAbstRaven_Bot@@@@@std@@@std@@QBEXAAV12@PAU_Node@?$_List_nod@PAV?$Goal@VAbstRaven_Bot@@@@V?$allocator@PAV?$Goal@VAbstRaven_Bot@@@@@std@@@2@@Z$0
__ehfuncinfo$?_Orphan_ptr@?$list@PAV?$Goal@VAbstRaven_Bot@@@@V?$allocator@PAV?$Goal@VAbstRaven_Bot@@@@@std@@@std@@QBEXAAV12@PAU_Node@?$_List_nod@PAV?$Goal@VAbstRaven_Bot@@@@V?$allocator@PAV?$Goal@VAbstRaven_Bot@@@@@std@@@2@@Z DD 019930522H
	DD	01H
	DD	FLAT:__unwindtable$?_Orphan_ptr@?$list@PAV?$Goal@VAbstRaven_Bot@@@@V?$allocator@PAV?$Goal@VAbstRaven_Bot@@@@@std@@@std@@QBEXAAV12@PAU_Node@?$_List_nod@PAV?$Goal@VAbstRaven_Bot@@@@V?$allocator@PAV?$Goal@VAbstRaven_Bot@@@@@std@@@2@@Z
	DD	2 DUP(00H)
	DD	2 DUP(00H)
	DD	00H
	DD	01H
; Function compile flags: /Odtp /RTCsu
xdata$x	ENDS
;	COMDAT ?_Orphan_ptr@?$list@PAV?$Goal@VAbstRaven_Bot@@@@V?$allocator@PAV?$Goal@VAbstRaven_Bot@@@@@std@@@std@@QBEXAAV12@PAU_Node@?$_List_nod@PAV?$Goal@VAbstRaven_Bot@@@@V?$allocator@PAV?$Goal@VAbstRaven_Bot@@@@@std@@@2@@Z
_TEXT	SEGMENT
__Pnext$ = -32						; size = 4
__Lock$ = -24						; size = 4
_this$ = -16						; size = 4
__$EHRec$ = -12						; size = 12
__Cont$ = 8						; size = 4
__Ptr$ = 12						; size = 4
?_Orphan_ptr@?$list@PAV?$Goal@VAbstRaven_Bot@@@@V?$allocator@PAV?$Goal@VAbstRaven_Bot@@@@@std@@@std@@QBEXAAV12@PAU_Node@?$_List_nod@PAV?$Goal@VAbstRaven_Bot@@@@V?$allocator@PAV?$Goal@VAbstRaven_Bot@@@@@std@@@2@@Z PROC ; std::list<Goal<AbstRaven_Bot> *,std::allocator<Goal<AbstRaven_Bot> *> >::_Orphan_ptr, COMDAT
; _this$ = ecx

; 1527 : 		{	// orphan iterators with specified node pointers

	push	ebp
	mov	ebp, esp
	push	-1
	push	__ehhandler$?_Orphan_ptr@?$list@PAV?$Goal@VAbstRaven_Bot@@@@V?$allocator@PAV?$Goal@VAbstRaven_Bot@@@@@std@@@std@@QBEXAAV12@PAU_Node@?$_List_nod@PAV?$Goal@VAbstRaven_Bot@@@@V?$allocator@PAV?$Goal@VAbstRaven_Bot@@@@@std@@@2@@Z
	mov	eax, DWORD PTR fs:0
	push	eax
	sub	esp, 20					; 00000014H
	mov	eax, -858993460				; ccccccccH
	mov	DWORD PTR [ebp-32], eax
	mov	DWORD PTR [ebp-28], eax
	mov	DWORD PTR [ebp-24], eax
	mov	DWORD PTR [ebp-20], eax
	mov	DWORD PTR [ebp-16], eax
	mov	eax, DWORD PTR ___security_cookie
	xor	eax, ebp
	push	eax
	lea	eax, DWORD PTR __$EHRec$[ebp]
	mov	DWORD PTR fs:0, eax
	mov	DWORD PTR _this$[ebp], ecx

; 1528 : 		_Lockit _Lock(_LOCK_DEBUG);

	push	3
	lea	ecx, DWORD PTR __Lock$[ebp]
	call	??0_Lockit@std@@QAE@H@Z			; std::_Lockit::_Lockit
	mov	DWORD PTR __$EHRec$[ebp+8], 0

; 1529 : 		const_iterator **_Pnext = (const_iterator **)_Cont._Getpfirst();

	mov	ecx, DWORD PTR __Cont$[ebp]
	call	?_Getpfirst@_Container_base12@std@@QBEPAPAU_Iterator_base12@2@XZ ; std::_Container_base12::_Getpfirst
	mov	DWORD PTR __Pnext$[ebp], eax

; 1530 : 		if (_Pnext != 0)

	cmp	DWORD PTR __Pnext$[ebp], 0
	je	SHORT $LN6@Orphan_ptr
$LN5@Orphan_ptr:

; 1531 : 			while (*_Pnext != 0)

	mov	eax, DWORD PTR __Pnext$[ebp]
	cmp	DWORD PTR [eax], 0
	je	SHORT $LN6@Orphan_ptr

; 1532 : 				if ((*_Pnext)->_Ptr == this->_Myhead
; 1533 : 					|| _Ptr != 0 && (*_Pnext)->_Ptr != _Ptr)

	mov	ecx, DWORD PTR __Pnext$[ebp]
	mov	edx, DWORD PTR [ecx]
	mov	eax, DWORD PTR _this$[ebp]
	mov	ecx, DWORD PTR [edx+8]
	cmp	ecx, DWORD PTR [eax+4]
	je	SHORT $LN2@Orphan_ptr
	cmp	DWORD PTR __Ptr$[ebp], 0
	je	SHORT $LN3@Orphan_ptr
	mov	edx, DWORD PTR __Pnext$[ebp]
	mov	eax, DWORD PTR [edx]
	mov	ecx, DWORD PTR [eax+8]
	cmp	ecx, DWORD PTR __Ptr$[ebp]
	je	SHORT $LN3@Orphan_ptr
$LN2@Orphan_ptr:

; 1534 : 					_Pnext = (const_iterator **)(*_Pnext)->_Getpnext();

	mov	edx, DWORD PTR __Pnext$[ebp]
	mov	ecx, DWORD PTR [edx]
	call	?_Getpnext@_Iterator_base12@std@@QAEPAPAU12@XZ ; std::_Iterator_base12::_Getpnext
	mov	DWORD PTR __Pnext$[ebp], eax

; 1535 : 				else

	jmp	SHORT $LN1@Orphan_ptr
$LN3@Orphan_ptr:

; 1536 : 					{	// orphan the iterator
; 1537 : 					(*_Pnext)->_Clrcont();

	mov	eax, DWORD PTR __Pnext$[ebp]
	mov	ecx, DWORD PTR [eax]
	call	?_Clrcont@_Iterator_base12@std@@QAEXXZ	; std::_Iterator_base12::_Clrcont

; 1538 : 					*_Pnext = *(const_iterator **)(*_Pnext)->_Getpnext();

	mov	ecx, DWORD PTR __Pnext$[ebp]
	mov	ecx, DWORD PTR [ecx]
	call	?_Getpnext@_Iterator_base12@std@@QAEPAPAU12@XZ ; std::_Iterator_base12::_Getpnext
	mov	edx, DWORD PTR __Pnext$[ebp]
	mov	eax, DWORD PTR [eax]
	mov	DWORD PTR [edx], eax
$LN1@Orphan_ptr:

; 1539 : 					}

	jmp	SHORT $LN5@Orphan_ptr
$LN6@Orphan_ptr:

; 1540 : 		}

	mov	DWORD PTR __$EHRec$[ebp+8], -1
	lea	ecx, DWORD PTR __Lock$[ebp]
	call	??1_Lockit@std@@QAE@XZ			; std::_Lockit::~_Lockit
	push	edx
	mov	ecx, ebp
	push	eax
	lea	edx, DWORD PTR $LN13@Orphan_ptr
	call	@_RTC_CheckStackVars@8
	pop	eax
	pop	edx
	mov	ecx, DWORD PTR __$EHRec$[ebp]
	mov	DWORD PTR fs:0, ecx
	pop	ecx
	add	esp, 32					; 00000020H
	cmp	ebp, esp
	call	__RTC_CheckEsp
	mov	esp, ebp
	pop	ebp
	ret	8
$LN13@Orphan_ptr:
	DD	1
	DD	$LN12@Orphan_ptr
$LN12@Orphan_ptr:
	DD	-24					; ffffffe8H
	DD	4
	DD	$LN10@Orphan_ptr
$LN10@Orphan_ptr:
	DB	95					; 0000005fH
	DB	76					; 0000004cH
	DB	111					; 0000006fH
	DB	99					; 00000063H
	DB	107					; 0000006bH
	DB	0
_TEXT	ENDS
;	COMDAT text$x
text$x	SEGMENT
__unwindfunclet$?_Orphan_ptr@?$list@PAV?$Goal@VAbstRaven_Bot@@@@V?$allocator@PAV?$Goal@VAbstRaven_Bot@@@@@std@@@std@@QBEXAAV12@PAU_Node@?$_List_nod@PAV?$Goal@VAbstRaven_Bot@@@@V?$allocator@PAV?$Goal@VAbstRaven_Bot@@@@@std@@@2@@Z$0:
	lea	ecx, DWORD PTR __Lock$[ebp]
	jmp	??1_Lockit@std@@QAE@XZ			; std::_Lockit::~_Lockit
__ehhandler$?_Orphan_ptr@?$list@PAV?$Goal@VAbstRaven_Bot@@@@V?$allocator@PAV?$Goal@VAbstRaven_Bot@@@@@std@@@std@@QBEXAAV12@PAU_Node@?$_List_nod@PAV?$Goal@VAbstRaven_Bot@@@@V?$allocator@PAV?$Goal@VAbstRaven_Bot@@@@@std@@@2@@Z:
	mov	edx, DWORD PTR [esp+8]
	lea	eax, DWORD PTR [edx+12]
	mov	ecx, DWORD PTR [edx-24]
	xor	ecx, eax
	call	@__security_check_cookie@4
	mov	eax, OFFSET __ehfuncinfo$?_Orphan_ptr@?$list@PAV?$Goal@VAbstRaven_Bot@@@@V?$allocator@PAV?$Goal@VAbstRaven_Bot@@@@@std@@@std@@QBEXAAV12@PAU_Node@?$_List_nod@PAV?$Goal@VAbstRaven_Bot@@@@V?$allocator@PAV?$Goal@VAbstRaven_Bot@@@@@std@@@2@@Z
	jmp	___CxxFrameHandler3
text$x	ENDS
?_Orphan_ptr@?$list@PAV?$Goal@VAbstRaven_Bot@@@@V?$allocator@PAV?$Goal@VAbstRaven_Bot@@@@@std@@@std@@QBEXAAV12@PAU_Node@?$_List_nod@PAV?$Goal@VAbstRaven_Bot@@@@V?$allocator@PAV?$Goal@VAbstRaven_Bot@@@@@std@@@2@@Z ENDP ; std::list<Goal<AbstRaven_Bot> *,std::allocator<Goal<AbstRaven_Bot> *> >::_Orphan_ptr
; Function compile flags: /Odtp /RTCsu
; File c:\program files (x86)\microsoft visual studio 10.0\vc\include\xutility
;	COMDAT ?_Getpfirst@_Container_base12@std@@QBEPAPAU_Iterator_base12@2@XZ
_TEXT	SEGMENT
tv66 = -8						; size = 4
_this$ = -4						; size = 4
?_Getpfirst@_Container_base12@std@@QBEPAPAU_Iterator_base12@2@XZ PROC ; std::_Container_base12::_Getpfirst, COMDAT
; _this$ = ecx

; 96   : 		{	// get address of iterator chain

	push	ebp
	mov	ebp, esp
	sub	esp, 8
	mov	DWORD PTR [ebp-8], -858993460		; ccccccccH
	mov	DWORD PTR [ebp-4], -858993460		; ccccccccH
	mov	DWORD PTR _this$[ebp], ecx

; 97   : 		return (_Myproxy == 0 ? 0 : &_Myproxy->_Myfirstiter);

	mov	eax, DWORD PTR _this$[ebp]
	cmp	DWORD PTR [eax], 0
	jne	SHORT $LN3@Getpfirst
	mov	DWORD PTR tv66[ebp], 0
	jmp	SHORT $LN4@Getpfirst
$LN3@Getpfirst:
	mov	ecx, DWORD PTR _this$[ebp]
	mov	edx, DWORD PTR [ecx]
	add	edx, 4
	mov	DWORD PTR tv66[ebp], edx
$LN4@Getpfirst:
	mov	eax, DWORD PTR tv66[ebp]

; 98   : 		}

	mov	esp, ebp
	pop	ebp
	ret	0
?_Getpfirst@_Container_base12@std@@QBEPAPAU_Iterator_base12@2@XZ ENDP ; std::_Container_base12::_Getpfirst
; Function compile flags: /Odtp /RTCsu
_TEXT	ENDS
;	COMDAT ?_Clrcont@_Iterator_base12@std@@QAEXXZ
_TEXT	SEGMENT
_this$ = -4						; size = 4
?_Clrcont@_Iterator_base12@std@@QAEXXZ PROC		; std::_Iterator_base12::_Clrcont, COMDAT
; _this$ = ecx

; 169  : 		{	// disown owning container

	push	ebp
	mov	ebp, esp
	push	ecx
	mov	DWORD PTR [ebp-4], -858993460		; ccccccccH
	mov	DWORD PTR _this$[ebp], ecx

; 170  : 		_Myproxy = 0;

	mov	eax, DWORD PTR _this$[ebp]
	mov	DWORD PTR [eax], 0

; 171  : 		}

	mov	esp, ebp
	pop	ebp
	ret	0
?_Clrcont@_Iterator_base12@std@@QAEXXZ ENDP		; std::_Iterator_base12::_Clrcont
; Function compile flags: /Odtp /RTCsu
_TEXT	ENDS
;	COMDAT ?_Getpnext@_Iterator_base12@std@@QAEPAPAU12@XZ
_TEXT	SEGMENT
_this$ = -4						; size = 4
?_Getpnext@_Iterator_base12@std@@QAEPAPAU12@XZ PROC	; std::_Iterator_base12::_Getpnext, COMDAT
; _this$ = ecx

; 179  : 		{	// get address of remaining iterator chain

	push	ebp
	mov	ebp, esp
	push	ecx
	mov	DWORD PTR [ebp-4], -858993460		; ccccccccH
	mov	DWORD PTR _this$[ebp], ecx

; 180  : 		return (&_Mynextiter);

	mov	eax, DWORD PTR _this$[ebp]
	add	eax, 4

; 181  : 		}

	mov	esp, ebp
	pop	ebp
	ret	0
?_Getpnext@_Iterator_base12@std@@QAEPAPAU12@XZ ENDP	; std::_Iterator_base12::_Getpnext
; Function compile flags: /Odtp /RTCsu
; File c:\users\teaja\documents\artificial-fun\labravenprojecttest\common\goals\goal_composite.h
_TEXT	ENDS
;	COMDAT ?Render@?$Goal_Composite@VAbstRaven_Bot@@@@UAEXXZ
_TEXT	SEGMENT
tv74 = -8						; size = 4
_this$ = -4						; size = 4
?Render@?$Goal_Composite@VAbstRaven_Bot@@@@UAEXXZ PROC	; Goal_Composite<AbstRaven_Bot>::Render, COMDAT
; _this$ = ecx

; 182  : {

	push	ebp
	mov	ebp, esp
	sub	esp, 8
	push	esi
	mov	DWORD PTR [ebp-8], -858993460		; ccccccccH
	mov	DWORD PTR [ebp-4], -858993460		; ccccccccH
	mov	DWORD PTR _this$[ebp], ecx

; 183  :   if (!m_SubGoals.empty())

	mov	ecx, DWORD PTR _this$[ebp]
	add	ecx, 16					; 00000010H
	call	?empty@?$list@PAV?$Goal@VAbstRaven_Bot@@@@V?$allocator@PAV?$Goal@VAbstRaven_Bot@@@@@std@@@std@@QBE_NXZ ; std::list<Goal<AbstRaven_Bot> *,std::allocator<Goal<AbstRaven_Bot> *> >::empty
	movzx	eax, al
	test	eax, eax
	jne	SHORT $LN2@Render

; 184  :   {
; 185  :     m_SubGoals.front()->Render();

	mov	ecx, DWORD PTR _this$[ebp]
	add	ecx, 16					; 00000010H
	call	?front@?$list@PAV?$Goal@VAbstRaven_Bot@@@@V?$allocator@PAV?$Goal@VAbstRaven_Bot@@@@@std@@@std@@QAEAAPAV?$Goal@VAbstRaven_Bot@@@@XZ ; std::list<Goal<AbstRaven_Bot> *,std::allocator<Goal<AbstRaven_Bot> *> >::front
	mov	ecx, DWORD PTR [eax]
	mov	DWORD PTR tv74[ebp], ecx
	mov	edx, DWORD PTR tv74[ebp]
	mov	eax, DWORD PTR [edx]
	mov	esi, esp
	mov	ecx, DWORD PTR tv74[ebp]
	mov	edx, DWORD PTR [eax+28]
	call	edx
	cmp	esi, esp
	call	__RTC_CheckEsp
$LN2@Render:

; 186  :   }
; 187  : }

	pop	esi
	add	esp, 8
	cmp	ebp, esp
	call	__RTC_CheckEsp
	mov	esp, ebp
	pop	ebp
	ret	0
?Render@?$Goal_Composite@VAbstRaven_Bot@@@@UAEXXZ ENDP	; Goal_Composite<AbstRaven_Bot>::Render
_TEXT	ENDS
PUBLIC	?destroy@?$allocator@U_Node@?$_List_nod@PAV?$Goal@VAbstRaven_Bot@@@@V?$allocator@PAV?$Goal@VAbstRaven_Bot@@@@@std@@@std@@@std@@QAEXPAU_Node@?$_List_nod@PAV?$Goal@VAbstRaven_Bot@@@@V?$allocator@PAV?$Goal@VAbstRaven_Bot@@@@@std@@@2@@Z ; std::allocator<std::_List_nod<Goal<AbstRaven_Bot> *,std::allocator<Goal<AbstRaven_Bot> *> >::_Node>::destroy
; Function compile flags: /Odtp /RTCsu
; File c:\program files (x86)\microsoft visual studio 10.0\vc\include\xmemory
;	COMDAT ??$_Dest_val@V?$allocator@U_Node@?$_List_nod@PAV?$Goal@VAbstRaven_Bot@@@@V?$allocator@PAV?$Goal@VAbstRaven_Bot@@@@@std@@@std@@@std@@U_Node@?$_List_nod@PAV?$Goal@VAbstRaven_Bot@@@@V?$allocator@PAV?$Goal@VAbstRaven_Bot@@@@@std@@@2@@std@@YAXAAV?$allocator@U_Node@?$_List_nod@PAV?$Goal@VAbstRaven_Bot@@@@V?$allocator@PAV?$Goal@VAbstRaven_Bot@@@@@std@@@std@@@0@PAU_Node@?$_List_nod@PAV?$Goal@VAbstRaven_Bot@@@@V?$allocator@PAV?$Goal@VAbstRaven_Bot@@@@@std@@@0@@Z
_TEXT	SEGMENT
__Alval$ = 8						; size = 4
__Pdest$ = 12						; size = 4
??$_Dest_val@V?$allocator@U_Node@?$_List_nod@PAV?$Goal@VAbstRaven_Bot@@@@V?$allocator@PAV?$Goal@VAbstRaven_Bot@@@@@std@@@std@@@std@@U_Node@?$_List_nod@PAV?$Goal@VAbstRaven_Bot@@@@V?$allocator@PAV?$Goal@VAbstRaven_Bot@@@@@std@@@2@@std@@YAXAAV?$allocator@U_Node@?$_List_nod@PAV?$Goal@VAbstRaven_Bot@@@@V?$allocator@PAV?$Goal@VAbstRaven_Bot@@@@@std@@@std@@@0@PAU_Node@?$_List_nod@PAV?$Goal@VAbstRaven_Bot@@@@V?$allocator@PAV?$Goal@VAbstRaven_Bot@@@@@std@@@0@@Z PROC ; std::_Dest_val<std::allocator<std::_List_nod<Goal<AbstRaven_Bot> *,std::allocator<Goal<AbstRaven_Bot> *> >::_Node>,std::_List_nod<Goal<AbstRaven_Bot> *,std::allocator<Goal<AbstRaven_Bot> *> >::_Node>, COMDAT

; 286  : 	{	// destroy using allocator

	push	ebp
	mov	ebp, esp

; 287  : 	_Alval.destroy(_Pdest);

	mov	eax, DWORD PTR __Pdest$[ebp]
	push	eax
	mov	ecx, DWORD PTR __Alval$[ebp]
	call	?destroy@?$allocator@U_Node@?$_List_nod@PAV?$Goal@VAbstRaven_Bot@@@@V?$allocator@PAV?$Goal@VAbstRaven_Bot@@@@@std@@@std@@@std@@QAEXPAU_Node@?$_List_nod@PAV?$Goal@VAbstRaven_Bot@@@@V?$allocator@PAV?$Goal@VAbstRaven_Bot@@@@@std@@@2@@Z ; std::allocator<std::_List_nod<Goal<AbstRaven_Bot> *,std::allocator<Goal<AbstRaven_Bot> *> >::_Node>::destroy

; 288  : 	}

	cmp	ebp, esp
	call	__RTC_CheckEsp
	pop	ebp
	ret	0
??$_Dest_val@V?$allocator@U_Node@?$_List_nod@PAV?$Goal@VAbstRaven_Bot@@@@V?$allocator@PAV?$Goal@VAbstRaven_Bot@@@@@std@@@std@@@std@@U_Node@?$_List_nod@PAV?$Goal@VAbstRaven_Bot@@@@V?$allocator@PAV?$Goal@VAbstRaven_Bot@@@@@std@@@2@@std@@YAXAAV?$allocator@U_Node@?$_List_nod@PAV?$Goal@VAbstRaven_Bot@@@@V?$allocator@PAV?$Goal@VAbstRaven_Bot@@@@@std@@@std@@@0@PAU_Node@?$_List_nod@PAV?$Goal@VAbstRaven_Bot@@@@V?$allocator@PAV?$Goal@VAbstRaven_Bot@@@@@std@@@0@@Z ENDP ; std::_Dest_val<std::allocator<std::_List_nod<Goal<AbstRaven_Bot> *,std::allocator<Goal<AbstRaven_Bot> *> >::_Node>,std::_List_nod<Goal<AbstRaven_Bot> *,std::allocator<Goal<AbstRaven_Bot> *> >::_Node>
_TEXT	ENDS
PUBLIC	??1?$_List_const_iterator@V?$_List_val@PAV?$Goal@VAbstRaven_Bot@@@@V?$allocator@PAV?$Goal@VAbstRaven_Bot@@@@@std@@@std@@@std@@QAE@XZ ; std::_List_const_iterator<std::_List_val<Goal<AbstRaven_Bot> *,std::allocator<Goal<AbstRaven_Bot> *> > >::~_List_const_iterator<std::_List_val<Goal<AbstRaven_Bot> *,std::allocator<Goal<AbstRaven_Bot> *> > >
; Function compile flags: /Odtp /RTCsu
;	COMDAT ??1?$_List_iterator@V?$_List_val@PAV?$Goal@VAbstRaven_Bot@@@@V?$allocator@PAV?$Goal@VAbstRaven_Bot@@@@@std@@@std@@@std@@QAE@XZ
_TEXT	SEGMENT
_this$ = -4						; size = 4
??1?$_List_iterator@V?$_List_val@PAV?$Goal@VAbstRaven_Bot@@@@V?$allocator@PAV?$Goal@VAbstRaven_Bot@@@@@std@@@std@@@std@@QAE@XZ PROC ; std::_List_iterator<std::_List_val<Goal<AbstRaven_Bot> *,std::allocator<Goal<AbstRaven_Bot> *> > >::~_List_iterator<std::_List_val<Goal<AbstRaven_Bot> *,std::allocator<Goal<AbstRaven_Bot> *> > >, COMDAT
; _this$ = ecx
	push	ebp
	mov	ebp, esp
	push	ecx
	mov	DWORD PTR [ebp-4], -858993460		; ccccccccH
	mov	DWORD PTR _this$[ebp], ecx
	mov	ecx, DWORD PTR _this$[ebp]
	call	??1?$_List_const_iterator@V?$_List_val@PAV?$Goal@VAbstRaven_Bot@@@@V?$allocator@PAV?$Goal@VAbstRaven_Bot@@@@@std@@@std@@@std@@QAE@XZ
	add	esp, 4
	cmp	ebp, esp
	call	__RTC_CheckEsp
	mov	esp, ebp
	pop	ebp
	ret	0
??1?$_List_iterator@V?$_List_val@PAV?$Goal@VAbstRaven_Bot@@@@V?$allocator@PAV?$Goal@VAbstRaven_Bot@@@@@std@@@std@@@std@@QAE@XZ ENDP ; std::_List_iterator<std::_List_val<Goal<AbstRaven_Bot> *,std::allocator<Goal<AbstRaven_Bot> *> > >::~_List_iterator<std::_List_val<Goal<AbstRaven_Bot> *,std::allocator<Goal<AbstRaven_Bot> *> > >
_TEXT	ENDS
PUBLIC	??1?$_List_unchecked_const_iterator@V?$_List_val@PAV?$Goal@VAbstRaven_Bot@@@@V?$allocator@PAV?$Goal@VAbstRaven_Bot@@@@@std@@@std@@U_Iterator_base12@2@@std@@QAE@XZ ; std::_List_unchecked_const_iterator<std::_List_val<Goal<AbstRaven_Bot> *,std::allocator<Goal<AbstRaven_Bot> *> >,std::_Iterator_base12>::~_List_unchecked_const_iterator<std::_List_val<Goal<AbstRaven_Bot> *,std::allocator<Goal<AbstRaven_Bot> *> >,std::_Iterator_base12>
; Function compile flags: /Odtp /RTCsu
;	COMDAT ??1?$_List_const_iterator@V?$_List_val@PAV?$Goal@VAbstRaven_Bot@@@@V?$allocator@PAV?$Goal@VAbstRaven_Bot@@@@@std@@@std@@@std@@QAE@XZ
_TEXT	SEGMENT
_this$ = -4						; size = 4
??1?$_List_const_iterator@V?$_List_val@PAV?$Goal@VAbstRaven_Bot@@@@V?$allocator@PAV?$Goal@VAbstRaven_Bot@@@@@std@@@std@@@std@@QAE@XZ PROC ; std::_List_const_iterator<std::_List_val<Goal<AbstRaven_Bot> *,std::allocator<Goal<AbstRaven_Bot> *> > >::~_List_const_iterator<std::_List_val<Goal<AbstRaven_Bot> *,std::allocator<Goal<AbstRaven_Bot> *> > >, COMDAT
; _this$ = ecx
	push	ebp
	mov	ebp, esp
	push	ecx
	mov	DWORD PTR [ebp-4], -858993460		; ccccccccH
	mov	DWORD PTR _this$[ebp], ecx
	mov	ecx, DWORD PTR _this$[ebp]
	call	??1?$_List_unchecked_const_iterator@V?$_List_val@PAV?$Goal@VAbstRaven_Bot@@@@V?$allocator@PAV?$Goal@VAbstRaven_Bot@@@@@std@@@std@@U_Iterator_base12@2@@std@@QAE@XZ
	add	esp, 4
	cmp	ebp, esp
	call	__RTC_CheckEsp
	mov	esp, ebp
	pop	ebp
	ret	0
??1?$_List_const_iterator@V?$_List_val@PAV?$Goal@VAbstRaven_Bot@@@@V?$allocator@PAV?$Goal@VAbstRaven_Bot@@@@@std@@@std@@@std@@QAE@XZ ENDP ; std::_List_const_iterator<std::_List_val<Goal<AbstRaven_Bot> *,std::allocator<Goal<AbstRaven_Bot> *> > >::~_List_const_iterator<std::_List_val<Goal<AbstRaven_Bot> *,std::allocator<Goal<AbstRaven_Bot> *> > >
_TEXT	ENDS
PUBLIC	??1?$_Iterator012@Ubidirectional_iterator_tag@std@@PAV?$Goal@VAbstRaven_Bot@@@@HPBQAV3@ABQAV3@U_Iterator_base12@2@@std@@QAE@XZ ; std::_Iterator012<std::bidirectional_iterator_tag,Goal<AbstRaven_Bot> *,int,Goal<AbstRaven_Bot> * const *,Goal<AbstRaven_Bot> * const &,std::_Iterator_base12>::~_Iterator012<std::bidirectional_iterator_tag,Goal<AbstRaven_Bot> *,int,Goal<AbstRaven_Bot> * const *,Goal<AbstRaven_Bot> * const &,std::_Iterator_base12>
; Function compile flags: /Odtp /RTCsu
;	COMDAT ??1?$_List_unchecked_const_iterator@V?$_List_val@PAV?$Goal@VAbstRaven_Bot@@@@V?$allocator@PAV?$Goal@VAbstRaven_Bot@@@@@std@@@std@@U_Iterator_base12@2@@std@@QAE@XZ
_TEXT	SEGMENT
_this$ = -4						; size = 4
??1?$_List_unchecked_const_iterator@V?$_List_val@PAV?$Goal@VAbstRaven_Bot@@@@V?$allocator@PAV?$Goal@VAbstRaven_Bot@@@@@std@@@std@@U_Iterator_base12@2@@std@@QAE@XZ PROC ; std::_List_unchecked_const_iterator<std::_List_val<Goal<AbstRaven_Bot> *,std::allocator<Goal<AbstRaven_Bot> *> >,std::_Iterator_base12>::~_List_unchecked_const_iterator<std::_List_val<Goal<AbstRaven_Bot> *,std::allocator<Goal<AbstRaven_Bot> *> >,std::_Iterator_base12>, COMDAT
; _this$ = ecx
	push	ebp
	mov	ebp, esp
	push	ecx
	mov	DWORD PTR [ebp-4], -858993460		; ccccccccH
	mov	DWORD PTR _this$[ebp], ecx
	mov	ecx, DWORD PTR _this$[ebp]
	call	??1?$_Iterator012@Ubidirectional_iterator_tag@std@@PAV?$Goal@VAbstRaven_Bot@@@@HPBQAV3@ABQAV3@U_Iterator_base12@2@@std@@QAE@XZ
	add	esp, 4
	cmp	ebp, esp
	call	__RTC_CheckEsp
	mov	esp, ebp
	pop	ebp
	ret	0
??1?$_List_unchecked_const_iterator@V?$_List_val@PAV?$Goal@VAbstRaven_Bot@@@@V?$allocator@PAV?$Goal@VAbstRaven_Bot@@@@@std@@@std@@U_Iterator_base12@2@@std@@QAE@XZ ENDP ; std::_List_unchecked_const_iterator<std::_List_val<Goal<AbstRaven_Bot> *,std::allocator<Goal<AbstRaven_Bot> *> >,std::_Iterator_base12>::~_List_unchecked_const_iterator<std::_List_val<Goal<AbstRaven_Bot> *,std::allocator<Goal<AbstRaven_Bot> *> >,std::_Iterator_base12>
_TEXT	ENDS
PUBLIC	??1_Iterator_base12@std@@QAE@XZ			; std::_Iterator_base12::~_Iterator_base12
; Function compile flags: /Odtp /RTCsu
;	COMDAT ??1?$_Iterator012@Ubidirectional_iterator_tag@std@@PAV?$Goal@VAbstRaven_Bot@@@@HPBQAV3@ABQAV3@U_Iterator_base12@2@@std@@QAE@XZ
_TEXT	SEGMENT
_this$ = -4						; size = 4
??1?$_Iterator012@Ubidirectional_iterator_tag@std@@PAV?$Goal@VAbstRaven_Bot@@@@HPBQAV3@ABQAV3@U_Iterator_base12@2@@std@@QAE@XZ PROC ; std::_Iterator012<std::bidirectional_iterator_tag,Goal<AbstRaven_Bot> *,int,Goal<AbstRaven_Bot> * const *,Goal<AbstRaven_Bot> * const &,std::_Iterator_base12>::~_Iterator012<std::bidirectional_iterator_tag,Goal<AbstRaven_Bot> *,int,Goal<AbstRaven_Bot> * const *,Goal<AbstRaven_Bot> * const &,std::_Iterator_base12>, COMDAT
; _this$ = ecx
	push	ebp
	mov	ebp, esp
	push	ecx
	mov	DWORD PTR [ebp-4], -858993460		; ccccccccH
	mov	DWORD PTR _this$[ebp], ecx
	mov	ecx, DWORD PTR _this$[ebp]
	call	??1_Iterator_base12@std@@QAE@XZ		; std::_Iterator_base12::~_Iterator_base12
	add	esp, 4
	cmp	ebp, esp
	call	__RTC_CheckEsp
	mov	esp, ebp
	pop	ebp
	ret	0
??1?$_Iterator012@Ubidirectional_iterator_tag@std@@PAV?$Goal@VAbstRaven_Bot@@@@HPBQAV3@ABQAV3@U_Iterator_base12@2@@std@@QAE@XZ ENDP ; std::_Iterator012<std::bidirectional_iterator_tag,Goal<AbstRaven_Bot> *,int,Goal<AbstRaven_Bot> * const *,Goal<AbstRaven_Bot> * const &,std::_Iterator_base12>::~_Iterator012<std::bidirectional_iterator_tag,Goal<AbstRaven_Bot> *,int,Goal<AbstRaven_Bot> * const *,Goal<AbstRaven_Bot> * const &,std::_Iterator_base12>
_TEXT	ENDS
PUBLIC	?_Orphan_me@_Iterator_base12@std@@QAEXXZ	; std::_Iterator_base12::_Orphan_me
;	COMDAT xdata$x
; File c:\program files (x86)\microsoft visual studio 10.0\vc\include\xutility
xdata$x	SEGMENT
__unwindtable$??1_Iterator_base12@std@@QAE@XZ DD 0ffffffffH
	DD	FLAT:__unwindfunclet$??1_Iterator_base12@std@@QAE@XZ$0
__ehfuncinfo$??1_Iterator_base12@std@@QAE@XZ DD 019930522H
	DD	01H
	DD	FLAT:__unwindtable$??1_Iterator_base12@std@@QAE@XZ
	DD	2 DUP(00H)
	DD	2 DUP(00H)
	DD	00H
	DD	01H
; Function compile flags: /Odtp /RTCsu
xdata$x	ENDS
;	COMDAT ??1_Iterator_base12@std@@QAE@XZ
_TEXT	SEGMENT
__Lock$ = -24						; size = 4
_this$ = -16						; size = 4
__$EHRec$ = -12						; size = 12
??1_Iterator_base12@std@@QAE@XZ PROC			; std::_Iterator_base12::~_Iterator_base12, COMDAT
; _this$ = ecx

; 135  : 		{	// destroy the iterator

	push	ebp
	mov	ebp, esp
	push	-1
	push	__ehhandler$??1_Iterator_base12@std@@QAE@XZ
	mov	eax, DWORD PTR fs:0
	push	eax
	sub	esp, 16					; 00000010H
	mov	eax, -858993460				; ccccccccH
	mov	DWORD PTR [ebp-28], eax
	mov	DWORD PTR [ebp-24], eax
	mov	DWORD PTR [ebp-20], eax
	mov	DWORD PTR [ebp-16], eax
	mov	eax, DWORD PTR ___security_cookie
	xor	eax, ebp
	push	eax
	lea	eax, DWORD PTR __$EHRec$[ebp]
	mov	DWORD PTR fs:0, eax
	mov	DWORD PTR _this$[ebp], ecx

; 136  :  #if _ITERATOR_DEBUG_LEVEL == 2
; 137  : 		_Lockit _Lock(_LOCK_DEBUG);

	push	3
	lea	ecx, DWORD PTR __Lock$[ebp]
	call	??0_Lockit@std@@QAE@H@Z			; std::_Lockit::_Lockit
	mov	DWORD PTR __$EHRec$[ebp+8], 0

; 138  : 		_Orphan_me();

	mov	ecx, DWORD PTR _this$[ebp]
	call	?_Orphan_me@_Iterator_base12@std@@QAEXXZ ; std::_Iterator_base12::_Orphan_me

; 139  :  #endif /* _ITERATOR_DEBUG_LEVEL == 2 */
; 140  : 		}

	mov	DWORD PTR __$EHRec$[ebp+8], -1
	lea	ecx, DWORD PTR __Lock$[ebp]
	call	??1_Lockit@std@@QAE@XZ			; std::_Lockit::~_Lockit
	push	edx
	mov	ecx, ebp
	push	eax
	lea	edx, DWORD PTR $LN7@Iterator_b
	call	@_RTC_CheckStackVars@8
	pop	eax
	pop	edx
	mov	ecx, DWORD PTR __$EHRec$[ebp]
	mov	DWORD PTR fs:0, ecx
	pop	ecx
	add	esp, 28					; 0000001cH
	cmp	ebp, esp
	call	__RTC_CheckEsp
	mov	esp, ebp
	pop	ebp
	ret	0
	npad	1
$LN7@Iterator_b:
	DD	1
	DD	$LN6@Iterator_b
$LN6@Iterator_b:
	DD	-24					; ffffffe8H
	DD	4
	DD	$LN4@Iterator_b
$LN4@Iterator_b:
	DB	95					; 0000005fH
	DB	76					; 0000004cH
	DB	111					; 0000006fH
	DB	99					; 00000063H
	DB	107					; 0000006bH
	DB	0
_TEXT	ENDS
;	COMDAT text$x
text$x	SEGMENT
__unwindfunclet$??1_Iterator_base12@std@@QAE@XZ$0:
	lea	ecx, DWORD PTR __Lock$[ebp]
	jmp	??1_Lockit@std@@QAE@XZ			; std::_Lockit::~_Lockit
__ehhandler$??1_Iterator_base12@std@@QAE@XZ:
	mov	edx, DWORD PTR [esp+8]
	lea	eax, DWORD PTR [edx+12]
	mov	ecx, DWORD PTR [edx-20]
	xor	ecx, eax
	call	@__security_check_cookie@4
	mov	eax, OFFSET __ehfuncinfo$??1_Iterator_base12@std@@QAE@XZ
	jmp	___CxxFrameHandler3
text$x	ENDS
??1_Iterator_base12@std@@QAE@XZ ENDP			; std::_Iterator_base12::~_Iterator_base12
PUBLIC	??_C@_1DC@POOIKBAO@?$AAI?$AAT?$AAE?$AAR?$AAA?$AAT?$AAO?$AAR?$AA?5?$AAL?$AAI?$AAS?$AAT?$AA?5?$AAC?$AAO?$AAR?$AAR?$AAU?$AAP?$AAT?$AAE?$AAD?$AA?$CB?$AA?$AA@ ; `string'
PUBLIC	??_C@_1JA@HCKHPKJH@?$AAc?$AA?3?$AA?2?$AAP?$AAr?$AAo?$AAg?$AAr?$AAa?$AAm?$AA?5?$AAF?$AAi?$AAl?$AAe?$AAs?$AA?5?$AA?$CI?$AAx?$AA8?$AA6?$AA?$CJ?$AA?2?$AAM?$AAi?$AAc?$AAr?$AAo?$AAs?$AAo?$AAf?$AAt@ ; `string'
EXTRN	?_Debug_message@std@@YAXPB_W0I@Z:PROC		; std::_Debug_message
;	COMDAT ??_C@_1DC@POOIKBAO@?$AAI?$AAT?$AAE?$AAR?$AAA?$AAT?$AAO?$AAR?$AA?5?$AAL?$AAI?$AAS?$AAT?$AA?5?$AAC?$AAO?$AAR?$AAR?$AAU?$AAP?$AAT?$AAE?$AAD?$AA?$CB?$AA?$AA@
CONST	SEGMENT
??_C@_1DC@POOIKBAO@?$AAI?$AAT?$AAE?$AAR?$AAA?$AAT?$AAO?$AAR?$AA?5?$AAL?$AAI?$AAS?$AAT?$AA?5?$AAC?$AAO?$AAR?$AAR?$AAU?$AAP?$AAT?$AAE?$AAD?$AA?$CB?$AA?$AA@ DB 'I'
	DB	00H, 'T', 00H, 'E', 00H, 'R', 00H, 'A', 00H, 'T', 00H, 'O', 00H
	DB	'R', 00H, ' ', 00H, 'L', 00H, 'I', 00H, 'S', 00H, 'T', 00H, ' '
	DB	00H, 'C', 00H, 'O', 00H, 'R', 00H, 'R', 00H, 'U', 00H, 'P', 00H
	DB	'T', 00H, 'E', 00H, 'D', 00H, '!', 00H, 00H, 00H ; `string'
CONST	ENDS
;	COMDAT ??_C@_1JA@HCKHPKJH@?$AAc?$AA?3?$AA?2?$AAP?$AAr?$AAo?$AAg?$AAr?$AAa?$AAm?$AA?5?$AAF?$AAi?$AAl?$AAe?$AAs?$AA?5?$AA?$CI?$AAx?$AA8?$AA6?$AA?$CJ?$AA?2?$AAM?$AAi?$AAc?$AAr?$AAo?$AAs?$AAo?$AAf?$AAt@
CONST	SEGMENT
??_C@_1JA@HCKHPKJH@?$AAc?$AA?3?$AA?2?$AAP?$AAr?$AAo?$AAg?$AAr?$AAa?$AAm?$AA?5?$AAF?$AAi?$AAl?$AAe?$AAs?$AA?5?$AA?$CI?$AAx?$AA8?$AA6?$AA?$CJ?$AA?2?$AAM?$AAi?$AAc?$AAr?$AAo?$AAs?$AAo?$AAf?$AAt@ DB 'c'
	DB	00H, ':', 00H, '\', 00H, 'P', 00H, 'r', 00H, 'o', 00H, 'g', 00H
	DB	'r', 00H, 'a', 00H, 'm', 00H, ' ', 00H, 'F', 00H, 'i', 00H, 'l'
	DB	00H, 'e', 00H, 's', 00H, ' ', 00H, '(', 00H, 'x', 00H, '8', 00H
	DB	'6', 00H, ')', 00H, '\', 00H, 'M', 00H, 'i', 00H, 'c', 00H, 'r'
	DB	00H, 'o', 00H, 's', 00H, 'o', 00H, 'f', 00H, 't', 00H, ' ', 00H
	DB	'V', 00H, 'i', 00H, 's', 00H, 'u', 00H, 'a', 00H, 'l', 00H, ' '
	DB	00H, 'S', 00H, 't', 00H, 'u', 00H, 'd', 00H, 'i', 00H, 'o', 00H
	DB	' ', 00H, '1', 00H, '0', 00H, '.', 00H, '0', 00H, '\', 00H, 'V'
	DB	00H, 'C', 00H, '\', 00H, 'i', 00H, 'n', 00H, 'c', 00H, 'l', 00H
	DB	'u', 00H, 'd', 00H, 'e', 00H, '\', 00H, 'x', 00H, 'u', 00H, 't'
	DB	00H, 'i', 00H, 'l', 00H, 'i', 00H, 't', 00H, 'y', 00H, 00H, 00H ; `string'
; Function compile flags: /Odtp /RTCsu
CONST	ENDS
;	COMDAT ?_Orphan_me@_Iterator_base12@std@@QAEXXZ
_TEXT	SEGMENT
__Pnext$15175 = -8					; size = 4
_this$ = -4						; size = 4
?_Orphan_me@_Iterator_base12@std@@QAEXXZ PROC		; std::_Iterator_base12::_Orphan_me, COMDAT
; _this$ = ecx

; 184  : 		{	// cut ties with parent

	push	ebp
	mov	ebp, esp
	sub	esp, 8
	mov	DWORD PTR [ebp-8], -858993460		; ccccccccH
	mov	DWORD PTR [ebp-4], -858993460		; ccccccccH
	mov	DWORD PTR _this$[ebp], ecx

; 185  :  #if _ITERATOR_DEBUG_LEVEL == 2
; 186  : 		if (_Myproxy != 0)

	mov	eax, DWORD PTR _this$[ebp]
	cmp	DWORD PTR [eax], 0
	je	SHORT $LN5@Orphan_me

; 187  : 			{	// adopted, remove self from list
; 188  : 			_Iterator_base12 **_Pnext = &_Myproxy->_Myfirstiter;

	mov	ecx, DWORD PTR _this$[ebp]
	mov	edx, DWORD PTR [ecx]
	add	edx, 4
	mov	DWORD PTR __Pnext$15175[ebp], edx
$LN3@Orphan_me:

; 189  : 			while (*_Pnext != 0 && *_Pnext != this)

	mov	eax, DWORD PTR __Pnext$15175[ebp]
	cmp	DWORD PTR [eax], 0
	je	SHORT $LN2@Orphan_me
	mov	ecx, DWORD PTR __Pnext$15175[ebp]
	mov	edx, DWORD PTR [ecx]
	cmp	edx, DWORD PTR _this$[ebp]
	je	SHORT $LN2@Orphan_me

; 190  : 				_Pnext = &(*_Pnext)->_Mynextiter;

	mov	eax, DWORD PTR __Pnext$15175[ebp]
	mov	ecx, DWORD PTR [eax]
	add	ecx, 4
	mov	DWORD PTR __Pnext$15175[ebp], ecx
	jmp	SHORT $LN3@Orphan_me
$LN2@Orphan_me:

; 191  : 
; 192  : 			if (*_Pnext == 0)

	mov	edx, DWORD PTR __Pnext$15175[ebp]
	cmp	DWORD PTR [edx], 0
	jne	SHORT $LN1@Orphan_me

; 193  : 				_DEBUG_ERROR("ITERATOR LIST CORRUPTED!");

	push	193					; 000000c1H
	push	OFFSET ??_C@_1JA@HCKHPKJH@?$AAc?$AA?3?$AA?2?$AAP?$AAr?$AAo?$AAg?$AAr?$AAa?$AAm?$AA?5?$AAF?$AAi?$AAl?$AAe?$AAs?$AA?5?$AA?$CI?$AAx?$AA8?$AA6?$AA?$CJ?$AA?2?$AAM?$AAi?$AAc?$AAr?$AAo?$AAs?$AAo?$AAf?$AAt@
	push	OFFSET ??_C@_1DC@POOIKBAO@?$AAI?$AAT?$AAE?$AAR?$AAA?$AAT?$AAO?$AAR?$AA?5?$AAL?$AAI?$AAS?$AAT?$AA?5?$AAC?$AAO?$AAR?$AAR?$AAU?$AAP?$AAT?$AAE?$AAD?$AA?$CB?$AA?$AA@
	call	?_Debug_message@std@@YAXPB_W0I@Z	; std::_Debug_message
	add	esp, 12					; 0000000cH
$LN1@Orphan_me:

; 194  : 			*_Pnext = _Mynextiter;

	mov	eax, DWORD PTR __Pnext$15175[ebp]
	mov	ecx, DWORD PTR _this$[ebp]
	mov	edx, DWORD PTR [ecx+4]
	mov	DWORD PTR [eax], edx

; 195  : 			_Myproxy = 0;

	mov	eax, DWORD PTR _this$[ebp]
	mov	DWORD PTR [eax], 0
$LN5@Orphan_me:

; 196  : 			}
; 197  :  #endif /* _ITERATOR_DEBUG_LEVEL == 2 */
; 198  : 		}

	add	esp, 8
	cmp	ebp, esp
	call	__RTC_CheckEsp
	mov	esp, ebp
	pop	ebp
	ret	0
?_Orphan_me@_Iterator_base12@std@@QAEXXZ ENDP		; std::_Iterator_base12::_Orphan_me
; Function compile flags: /Odtp /RTCsu
; File c:\users\teaja\documents\artificial-fun\labravenprojecttest\common\goals\goal.h
_TEXT	ENDS
;	COMDAT ?isComplete@?$Goal@VAbstRaven_Bot@@@@QBE_NXZ
_TEXT	SEGMENT
_this$ = -4						; size = 4
?isComplete@?$Goal@VAbstRaven_Bot@@@@QBE_NXZ PROC	; Goal<AbstRaven_Bot>::isComplete, COMDAT
; _this$ = ecx

; 80   :   bool         isComplete()const{return m_iStatus == completed;} 

	push	ebp
	mov	ebp, esp
	push	ecx
	mov	DWORD PTR [ebp-4], -858993460		; ccccccccH
	mov	DWORD PTR _this$[ebp], ecx
	mov	eax, DWORD PTR _this$[ebp]
	xor	ecx, ecx
	cmp	DWORD PTR [eax+12], 2
	sete	cl
	mov	al, cl
	mov	esp, ebp
	pop	ebp
	ret	0
?isComplete@?$Goal@VAbstRaven_Bot@@@@QBE_NXZ ENDP	; Goal<AbstRaven_Bot>::isComplete
; Function compile flags: /Odtp /RTCsu
_TEXT	ENDS
;	COMDAT ?isInactive@?$Goal@VAbstRaven_Bot@@@@QBE_NXZ
_TEXT	SEGMENT
_this$ = -4						; size = 4
?isInactive@?$Goal@VAbstRaven_Bot@@@@QBE_NXZ PROC	; Goal<AbstRaven_Bot>::isInactive, COMDAT
; _this$ = ecx

; 82   :   bool         isInactive()const{return m_iStatus == inactive;}

	push	ebp
	mov	ebp, esp
	push	ecx
	mov	DWORD PTR [ebp-4], -858993460		; ccccccccH
	mov	DWORD PTR _this$[ebp], ecx
	mov	eax, DWORD PTR _this$[ebp]
	xor	ecx, ecx
	cmp	DWORD PTR [eax+12], 1
	sete	cl
	mov	al, cl
	mov	esp, ebp
	pop	ebp
	ret	0
?isInactive@?$Goal@VAbstRaven_Bot@@@@QBE_NXZ ENDP	; Goal<AbstRaven_Bot>::isInactive
; Function compile flags: /Odtp /RTCsu
_TEXT	ENDS
;	COMDAT ?hasFailed@?$Goal@VAbstRaven_Bot@@@@QBE_NXZ
_TEXT	SEGMENT
_this$ = -4						; size = 4
?hasFailed@?$Goal@VAbstRaven_Bot@@@@QBE_NXZ PROC	; Goal<AbstRaven_Bot>::hasFailed, COMDAT
; _this$ = ecx

; 83   :   bool         hasFailed()const{return m_iStatus == failed;}

	push	ebp
	mov	ebp, esp
	push	ecx
	mov	DWORD PTR [ebp-4], -858993460		; ccccccccH
	mov	DWORD PTR _this$[ebp], ecx
	mov	eax, DWORD PTR _this$[ebp]
	xor	ecx, ecx
	cmp	DWORD PTR [eax+12], 3
	sete	cl
	mov	al, cl
	mov	esp, ebp
	pop	ebp
	ret	0
?hasFailed@?$Goal@VAbstRaven_Bot@@@@QBE_NXZ ENDP	; Goal<AbstRaven_Bot>::hasFailed
_TEXT	ENDS
PUBLIC	??0?$_List_iterator@V?$_List_val@PAV?$Goal@VAbstRaven_Bot@@@@V?$allocator@PAV?$Goal@VAbstRaven_Bot@@@@@std@@@std@@@std@@QAE@PAU_Node@?$_List_nod@PAV?$Goal@VAbstRaven_Bot@@@@V?$allocator@PAV?$Goal@VAbstRaven_Bot@@@@@std@@@1@PBV?$_List_val@PAV?$Goal@VAbstRaven_Bot@@@@V?$allocator@PAV?$Goal@VAbstRaven_Bot@@@@@std@@@1@@Z ; std::_List_iterator<std::_List_val<Goal<AbstRaven_Bot> *,std::allocator<Goal<AbstRaven_Bot> *> > >::_List_iterator<std::_List_val<Goal<AbstRaven_Bot> *,std::allocator<Goal<AbstRaven_Bot> *> > >
; Function compile flags: /Odtp /RTCsu
; File c:\program files (x86)\microsoft visual studio 10.0\vc\include\list
;	COMDAT ?begin@?$list@PAV?$Goal@VAbstRaven_Bot@@@@V?$allocator@PAV?$Goal@VAbstRaven_Bot@@@@@std@@@std@@QAE?AV?$_List_iterator@V?$_List_val@PAV?$Goal@VAbstRaven_Bot@@@@V?$allocator@PAV?$Goal@VAbstRaven_Bot@@@@@std@@@std@@@2@XZ
_TEXT	SEGMENT
$T153334 = -8						; size = 4
_this$ = -4						; size = 4
___$ReturnUdt$ = 8					; size = 4
?begin@?$list@PAV?$Goal@VAbstRaven_Bot@@@@V?$allocator@PAV?$Goal@VAbstRaven_Bot@@@@@std@@@std@@QAE?AV?$_List_iterator@V?$_List_val@PAV?$Goal@VAbstRaven_Bot@@@@V?$allocator@PAV?$Goal@VAbstRaven_Bot@@@@@std@@@std@@@2@XZ PROC ; std::list<Goal<AbstRaven_Bot> *,std::allocator<Goal<AbstRaven_Bot> *> >::begin, COMDAT
; _this$ = ecx

; 781  : 		{	// return iterator for beginning of mutable sequence

	push	ebp
	mov	ebp, esp
	sub	esp, 8
	mov	DWORD PTR [ebp-8], -858993460		; ccccccccH
	mov	DWORD PTR [ebp-4], -858993460		; ccccccccH
	mov	DWORD PTR _this$[ebp], ecx
	mov	DWORD PTR $T153334[ebp], 0

; 782  : 		return (iterator(this->_Nextnode(this->_Myhead), this));

	mov	eax, DWORD PTR _this$[ebp]
	push	eax
	mov	ecx, DWORD PTR _this$[ebp]
	mov	edx, DWORD PTR [ecx+4]
	push	edx
	call	?_Nextnode@?$_List_val@PAV?$Goal@VAbstRaven_Bot@@@@V?$allocator@PAV?$Goal@VAbstRaven_Bot@@@@@std@@@std@@SAAAPAU_Node@?$_List_nod@PAV?$Goal@VAbstRaven_Bot@@@@V?$allocator@PAV?$Goal@VAbstRaven_Bot@@@@@std@@@2@PAU342@@Z ; std::_List_val<Goal<AbstRaven_Bot> *,std::allocator<Goal<AbstRaven_Bot> *> >::_Nextnode
	add	esp, 4
	mov	eax, DWORD PTR [eax]
	push	eax
	mov	ecx, DWORD PTR ___$ReturnUdt$[ebp]
	call	??0?$_List_iterator@V?$_List_val@PAV?$Goal@VAbstRaven_Bot@@@@V?$allocator@PAV?$Goal@VAbstRaven_Bot@@@@@std@@@std@@@std@@QAE@PAU_Node@?$_List_nod@PAV?$Goal@VAbstRaven_Bot@@@@V?$allocator@PAV?$Goal@VAbstRaven_Bot@@@@@std@@@1@PBV?$_List_val@PAV?$Goal@VAbstRaven_Bot@@@@V?$allocator@PAV?$Goal@VAbstRaven_Bot@@@@@std@@@1@@Z ; std::_List_iterator<std::_List_val<Goal<AbstRaven_Bot> *,std::allocator<Goal<AbstRaven_Bot> *> > >::_List_iterator<std::_List_val<Goal<AbstRaven_Bot> *,std::allocator<Goal<AbstRaven_Bot> *> > >
	mov	ecx, DWORD PTR $T153334[ebp]
	or	ecx, 1
	mov	DWORD PTR $T153334[ebp], ecx
	mov	eax, DWORD PTR ___$ReturnUdt$[ebp]

; 783  : 		}

	add	esp, 8
	cmp	ebp, esp
	call	__RTC_CheckEsp
	mov	esp, ebp
	pop	ebp
	ret	4
?begin@?$list@PAV?$Goal@VAbstRaven_Bot@@@@V?$allocator@PAV?$Goal@VAbstRaven_Bot@@@@@std@@@std@@QAE?AV?$_List_iterator@V?$_List_val@PAV?$Goal@VAbstRaven_Bot@@@@V?$allocator@PAV?$Goal@VAbstRaven_Bot@@@@@std@@@std@@@2@XZ ENDP ; std::list<Goal<AbstRaven_Bot> *,std::allocator<Goal<AbstRaven_Bot> *> >::begin
; Function compile flags: /Odtp /RTCsu
_TEXT	ENDS
;	COMDAT ?end@?$list@PAV?$Goal@VAbstRaven_Bot@@@@V?$allocator@PAV?$Goal@VAbstRaven_Bot@@@@@std@@@std@@QAE?AV?$_List_iterator@V?$_List_val@PAV?$Goal@VAbstRaven_Bot@@@@V?$allocator@PAV?$Goal@VAbstRaven_Bot@@@@@std@@@std@@@2@XZ
_TEXT	SEGMENT
$T153339 = -8						; size = 4
_this$ = -4						; size = 4
___$ReturnUdt$ = 8					; size = 4
?end@?$list@PAV?$Goal@VAbstRaven_Bot@@@@V?$allocator@PAV?$Goal@VAbstRaven_Bot@@@@@std@@@std@@QAE?AV?$_List_iterator@V?$_List_val@PAV?$Goal@VAbstRaven_Bot@@@@V?$allocator@PAV?$Goal@VAbstRaven_Bot@@@@@std@@@std@@@2@XZ PROC ; std::list<Goal<AbstRaven_Bot> *,std::allocator<Goal<AbstRaven_Bot> *> >::end, COMDAT
; _this$ = ecx

; 791  : 		{	// return iterator for end of mutable sequence

	push	ebp
	mov	ebp, esp
	sub	esp, 8
	mov	DWORD PTR [ebp-8], -858993460		; ccccccccH
	mov	DWORD PTR [ebp-4], -858993460		; ccccccccH
	mov	DWORD PTR _this$[ebp], ecx
	mov	DWORD PTR $T153339[ebp], 0

; 792  : 		return (iterator(this->_Myhead, this));

	mov	eax, DWORD PTR _this$[ebp]
	push	eax
	mov	ecx, DWORD PTR _this$[ebp]
	mov	edx, DWORD PTR [ecx+4]
	push	edx
	mov	ecx, DWORD PTR ___$ReturnUdt$[ebp]
	call	??0?$_List_iterator@V?$_List_val@PAV?$Goal@VAbstRaven_Bot@@@@V?$allocator@PAV?$Goal@VAbstRaven_Bot@@@@@std@@@std@@@std@@QAE@PAU_Node@?$_List_nod@PAV?$Goal@VAbstRaven_Bot@@@@V?$allocator@PAV?$Goal@VAbstRaven_Bot@@@@@std@@@1@PBV?$_List_val@PAV?$Goal@VAbstRaven_Bot@@@@V?$allocator@PAV?$Goal@VAbstRaven_Bot@@@@@std@@@1@@Z ; std::_List_iterator<std::_List_val<Goal<AbstRaven_Bot> *,std::allocator<Goal<AbstRaven_Bot> *> > >::_List_iterator<std::_List_val<Goal<AbstRaven_Bot> *,std::allocator<Goal<AbstRaven_Bot> *> > >
	mov	eax, DWORD PTR $T153339[ebp]
	or	eax, 1
	mov	DWORD PTR $T153339[ebp], eax
	mov	eax, DWORD PTR ___$ReturnUdt$[ebp]

; 793  : 		}

	add	esp, 8
	cmp	ebp, esp
	call	__RTC_CheckEsp
	mov	esp, ebp
	pop	ebp
	ret	4
?end@?$list@PAV?$Goal@VAbstRaven_Bot@@@@V?$allocator@PAV?$Goal@VAbstRaven_Bot@@@@@std@@@std@@QAE?AV?$_List_iterator@V?$_List_val@PAV?$Goal@VAbstRaven_Bot@@@@V?$allocator@PAV?$Goal@VAbstRaven_Bot@@@@@std@@@std@@@2@XZ ENDP ; std::list<Goal<AbstRaven_Bot> *,std::allocator<Goal<AbstRaven_Bot> *> >::end
; Function compile flags: /Odtp /RTCsu
_TEXT	ENDS
;	COMDAT ?size@?$list@PAV?$Goal@VAbstRaven_Bot@@@@V?$allocator@PAV?$Goal@VAbstRaven_Bot@@@@@std@@@std@@QBEIXZ
_TEXT	SEGMENT
_this$ = -4						; size = 4
?size@?$list@PAV?$Goal@VAbstRaven_Bot@@@@V?$allocator@PAV?$Goal@VAbstRaven_Bot@@@@@std@@@std@@QBEIXZ PROC ; std::list<Goal<AbstRaven_Bot> *,std::allocator<Goal<AbstRaven_Bot> *> >::size, COMDAT
; _this$ = ecx

; 876  : 		{	// return length of sequence

	push	ebp
	mov	ebp, esp
	push	ecx
	mov	DWORD PTR [ebp-4], -858993460		; ccccccccH
	mov	DWORD PTR _this$[ebp], ecx

; 877  : 		return (this->_Mysize);

	mov	eax, DWORD PTR _this$[ebp]
	mov	eax, DWORD PTR [eax+8]

; 878  : 		}

	mov	esp, ebp
	pop	ebp
	ret	0
?size@?$list@PAV?$Goal@VAbstRaven_Bot@@@@V?$allocator@PAV?$Goal@VAbstRaven_Bot@@@@@std@@@std@@QBEIXZ ENDP ; std::list<Goal<AbstRaven_Bot> *,std::allocator<Goal<AbstRaven_Bot> *> >::size
; Function compile flags: /Odtp /RTCsu
_TEXT	ENDS
;	COMDAT ?empty@?$list@PAV?$Goal@VAbstRaven_Bot@@@@V?$allocator@PAV?$Goal@VAbstRaven_Bot@@@@@std@@@std@@QBE_NXZ
_TEXT	SEGMENT
_this$ = -4						; size = 4
?empty@?$list@PAV?$Goal@VAbstRaven_Bot@@@@V?$allocator@PAV?$Goal@VAbstRaven_Bot@@@@@std@@@std@@QBE_NXZ PROC ; std::list<Goal<AbstRaven_Bot> *,std::allocator<Goal<AbstRaven_Bot> *> >::empty, COMDAT
; _this$ = ecx

; 886  : 		{	// test if sequence is empty

	push	ebp
	mov	ebp, esp
	push	ecx
	mov	DWORD PTR [ebp-4], -858993460		; ccccccccH
	mov	DWORD PTR _this$[ebp], ecx

; 887  : 		return (this->_Mysize == 0);

	mov	eax, DWORD PTR _this$[ebp]
	xor	ecx, ecx
	cmp	DWORD PTR [eax+8], 0
	sete	cl
	mov	al, cl

; 888  : 		}

	mov	esp, ebp
	pop	ebp
	ret	0
?empty@?$list@PAV?$Goal@VAbstRaven_Bot@@@@V?$allocator@PAV?$Goal@VAbstRaven_Bot@@@@@std@@@std@@QBE_NXZ ENDP ; std::list<Goal<AbstRaven_Bot> *,std::allocator<Goal<AbstRaven_Bot> *> >::empty
_TEXT	ENDS
;	COMDAT xdata$x
xdata$x	SEGMENT
__unwindtable$?front@?$list@PAV?$Goal@VAbstRaven_Bot@@@@V?$allocator@PAV?$Goal@VAbstRaven_Bot@@@@@std@@@std@@QAEAAPAV?$Goal@VAbstRaven_Bot@@@@XZ DD 0ffffffffH
	DD	FLAT:__unwindfunclet$?front@?$list@PAV?$Goal@VAbstRaven_Bot@@@@V?$allocator@PAV?$Goal@VAbstRaven_Bot@@@@@std@@@std@@QAEAAPAV?$Goal@VAbstRaven_Bot@@@@XZ$0
__ehfuncinfo$?front@?$list@PAV?$Goal@VAbstRaven_Bot@@@@V?$allocator@PAV?$Goal@VAbstRaven_Bot@@@@@std@@@std@@QAEAAPAV?$Goal@VAbstRaven_Bot@@@@XZ DD 019930522H
	DD	01H
	DD	FLAT:__unwindtable$?front@?$list@PAV?$Goal@VAbstRaven_Bot@@@@V?$allocator@PAV?$Goal@VAbstRaven_Bot@@@@@std@@@std@@QAEAAPAV?$Goal@VAbstRaven_Bot@@@@XZ
	DD	2 DUP(00H)
	DD	2 DUP(00H)
	DD	00H
	DD	01H
; Function compile flags: /Odtp /RTCsu
xdata$x	ENDS
;	COMDAT ?front@?$list@PAV?$Goal@VAbstRaven_Bot@@@@V?$allocator@PAV?$Goal@VAbstRaven_Bot@@@@@std@@@std@@QAEAAPAV?$Goal@VAbstRaven_Bot@@@@XZ
_TEXT	SEGMENT
tv72 = -40						; size = 4
tv73 = -36						; size = 4
$T153348 = -32						; size = 12
$T153347 = -20						; size = 4
_this$ = -16						; size = 4
__$EHRec$ = -12						; size = 12
?front@?$list@PAV?$Goal@VAbstRaven_Bot@@@@V?$allocator@PAV?$Goal@VAbstRaven_Bot@@@@@std@@@std@@QAEAAPAV?$Goal@VAbstRaven_Bot@@@@XZ PROC ; std::list<Goal<AbstRaven_Bot> *,std::allocator<Goal<AbstRaven_Bot> *> >::front, COMDAT
; _this$ = ecx

; 896  : 		{	// return first element of mutable sequence

	push	ebp
	mov	ebp, esp
	push	-1
	push	__ehhandler$?front@?$list@PAV?$Goal@VAbstRaven_Bot@@@@V?$allocator@PAV?$Goal@VAbstRaven_Bot@@@@@std@@@std@@QAEAAPAV?$Goal@VAbstRaven_Bot@@@@XZ
	mov	eax, DWORD PTR fs:0
	push	eax
	sub	esp, 28					; 0000001cH
	mov	eax, -858993460				; ccccccccH
	mov	DWORD PTR [ebp-40], eax
	mov	DWORD PTR [ebp-36], eax
	mov	DWORD PTR [ebp-32], eax
	mov	DWORD PTR [ebp-28], eax
	mov	DWORD PTR [ebp-24], eax
	mov	DWORD PTR [ebp-20], eax
	mov	DWORD PTR [ebp-16], eax
	mov	eax, DWORD PTR ___security_cookie
	xor	eax, ebp
	push	eax
	lea	eax, DWORD PTR __$EHRec$[ebp]
	mov	DWORD PTR fs:0, eax
	mov	DWORD PTR _this$[ebp], ecx

; 897  : 		return (*begin());

	lea	eax, DWORD PTR $T153348[ebp]
	push	eax
	mov	ecx, DWORD PTR _this$[ebp]
	call	?begin@?$list@PAV?$Goal@VAbstRaven_Bot@@@@V?$allocator@PAV?$Goal@VAbstRaven_Bot@@@@@std@@@std@@QAE?AV?$_List_iterator@V?$_List_val@PAV?$Goal@VAbstRaven_Bot@@@@V?$allocator@PAV?$Goal@VAbstRaven_Bot@@@@@std@@@std@@@2@XZ ; std::list<Goal<AbstRaven_Bot> *,std::allocator<Goal<AbstRaven_Bot> *> >::begin
	mov	DWORD PTR tv73[ebp], eax
	mov	ecx, DWORD PTR tv73[ebp]
	mov	DWORD PTR tv72[ebp], ecx
	mov	DWORD PTR __$EHRec$[ebp+8], 0
	mov	ecx, DWORD PTR tv72[ebp]
	call	??D?$_List_iterator@V?$_List_val@PAV?$Goal@VAbstRaven_Bot@@@@V?$allocator@PAV?$Goal@VAbstRaven_Bot@@@@@std@@@std@@@std@@QBEAAPAV?$Goal@VAbstRaven_Bot@@@@XZ ; std::_List_iterator<std::_List_val<Goal<AbstRaven_Bot> *,std::allocator<Goal<AbstRaven_Bot> *> > >::operator*
	mov	DWORD PTR $T153347[ebp], eax
	mov	DWORD PTR __$EHRec$[ebp+8], -1
	lea	ecx, DWORD PTR $T153348[ebp]
	call	??1?$_List_iterator@V?$_List_val@PAV?$Goal@VAbstRaven_Bot@@@@V?$allocator@PAV?$Goal@VAbstRaven_Bot@@@@@std@@@std@@@std@@QAE@XZ
	mov	eax, DWORD PTR $T153347[ebp]

; 898  : 		}

	mov	ecx, DWORD PTR __$EHRec$[ebp]
	mov	DWORD PTR fs:0, ecx
	pop	ecx
	add	esp, 40					; 00000028H
	cmp	ebp, esp
	call	__RTC_CheckEsp
	mov	esp, ebp
	pop	ebp
	ret	0
_TEXT	ENDS
;	COMDAT text$x
text$x	SEGMENT
__unwindfunclet$?front@?$list@PAV?$Goal@VAbstRaven_Bot@@@@V?$allocator@PAV?$Goal@VAbstRaven_Bot@@@@@std@@@std@@QAEAAPAV?$Goal@VAbstRaven_Bot@@@@XZ$0:
	lea	ecx, DWORD PTR $T153348[ebp]
	jmp	??1?$_List_iterator@V?$_List_val@PAV?$Goal@VAbstRaven_Bot@@@@V?$allocator@PAV?$Goal@VAbstRaven_Bot@@@@@std@@@std@@@std@@QAE@XZ
__ehhandler$?front@?$list@PAV?$Goal@VAbstRaven_Bot@@@@V?$allocator@PAV?$Goal@VAbstRaven_Bot@@@@@std@@@std@@QAEAAPAV?$Goal@VAbstRaven_Bot@@@@XZ:
	mov	edx, DWORD PTR [esp+8]
	lea	eax, DWORD PTR [edx+12]
	mov	ecx, DWORD PTR [edx-32]
	xor	ecx, eax
	call	@__security_check_cookie@4
	mov	eax, OFFSET __ehfuncinfo$?front@?$list@PAV?$Goal@VAbstRaven_Bot@@@@V?$allocator@PAV?$Goal@VAbstRaven_Bot@@@@@std@@@std@@QAEAAPAV?$Goal@VAbstRaven_Bot@@@@XZ
	jmp	___CxxFrameHandler3
text$x	ENDS
?front@?$list@PAV?$Goal@VAbstRaven_Bot@@@@V?$allocator@PAV?$Goal@VAbstRaven_Bot@@@@@std@@@std@@QAEAAPAV?$Goal@VAbstRaven_Bot@@@@XZ ENDP ; std::list<Goal<AbstRaven_Bot> *,std::allocator<Goal<AbstRaven_Bot> *> >::front
PUBLIC	?erase@?$list@PAV?$Goal@VAbstRaven_Bot@@@@V?$allocator@PAV?$Goal@VAbstRaven_Bot@@@@@std@@@std@@QAE?AV?$_List_iterator@V?$_List_val@PAV?$Goal@VAbstRaven_Bot@@@@V?$allocator@PAV?$Goal@VAbstRaven_Bot@@@@@std@@@std@@@2@V?$_List_const_iterator@V?$_List_val@PAV?$Goal@VAbstRaven_Bot@@@@V?$allocator@PAV?$Goal@VAbstRaven_Bot@@@@@std@@@std@@@2@@Z ; std::list<Goal<AbstRaven_Bot> *,std::allocator<Goal<AbstRaven_Bot> *> >::erase
PUBLIC	??0?$_List_const_iterator@V?$_List_val@PAV?$Goal@VAbstRaven_Bot@@@@V?$allocator@PAV?$Goal@VAbstRaven_Bot@@@@@std@@@std@@@std@@QAE@ABV01@@Z ; std::_List_const_iterator<std::_List_val<Goal<AbstRaven_Bot> *,std::allocator<Goal<AbstRaven_Bot> *> > >::_List_const_iterator<std::_List_val<Goal<AbstRaven_Bot> *,std::allocator<Goal<AbstRaven_Bot> *> > >
;	COMDAT xdata$x
xdata$x	SEGMENT
__unwindtable$?pop_front@?$list@PAV?$Goal@VAbstRaven_Bot@@@@V?$allocator@PAV?$Goal@VAbstRaven_Bot@@@@@std@@@std@@QAEXXZ DD 0ffffffffH
	DD	FLAT:__unwindfunclet$?pop_front@?$list@PAV?$Goal@VAbstRaven_Bot@@@@V?$allocator@PAV?$Goal@VAbstRaven_Bot@@@@@std@@@std@@QAEXXZ$0
__ehfuncinfo$?pop_front@?$list@PAV?$Goal@VAbstRaven_Bot@@@@V?$allocator@PAV?$Goal@VAbstRaven_Bot@@@@@std@@@std@@QAEXXZ DD 019930522H
	DD	01H
	DD	FLAT:__unwindtable$?pop_front@?$list@PAV?$Goal@VAbstRaven_Bot@@@@V?$allocator@PAV?$Goal@VAbstRaven_Bot@@@@@std@@@std@@QAEXXZ
	DD	2 DUP(00H)
	DD	2 DUP(00H)
	DD	00H
	DD	01H
; Function compile flags: /Odtp /RTCsu
xdata$x	ENDS
;	COMDAT ?pop_front@?$list@PAV?$Goal@VAbstRaven_Bot@@@@V?$allocator@PAV?$Goal@VAbstRaven_Bot@@@@@std@@@std@@QAEXXZ
_TEXT	SEGMENT
tv95 = -60						; size = 4
tv94 = -56						; size = 4
tv92 = -52						; size = 4
tv129 = -48						; size = 4
$T153360 = -44						; size = 12
$T153359 = -32						; size = 12
$T153358 = -20						; size = 4
_this$ = -16						; size = 4
__$EHRec$ = -12						; size = 12
?pop_front@?$list@PAV?$Goal@VAbstRaven_Bot@@@@V?$allocator@PAV?$Goal@VAbstRaven_Bot@@@@@std@@@std@@QAEXXZ PROC ; std::list<Goal<AbstRaven_Bot> *,std::allocator<Goal<AbstRaven_Bot> *> >::pop_front, COMDAT
; _this$ = ecx

; 921  : 		{	// erase element at beginning

	push	ebp
	mov	ebp, esp
	push	-1
	push	__ehhandler$?pop_front@?$list@PAV?$Goal@VAbstRaven_Bot@@@@V?$allocator@PAV?$Goal@VAbstRaven_Bot@@@@@std@@@std@@QAEXXZ
	mov	eax, DWORD PTR fs:0
	push	eax
	sub	esp, 48					; 00000030H
	push	edi
	push	ecx
	lea	edi, DWORD PTR [ebp-60]
	mov	ecx, 12					; 0000000cH
	mov	eax, -858993460				; ccccccccH
	rep stosd
	pop	ecx
	mov	eax, DWORD PTR ___security_cookie
	xor	eax, ebp
	push	eax
	lea	eax, DWORD PTR __$EHRec$[ebp]
	mov	DWORD PTR fs:0, eax
	mov	DWORD PTR _this$[ebp], ecx

; 922  : 		erase(begin());

	lea	eax, DWORD PTR $T153359[ebp]
	push	eax
	mov	ecx, DWORD PTR _this$[ebp]
	call	?begin@?$list@PAV?$Goal@VAbstRaven_Bot@@@@V?$allocator@PAV?$Goal@VAbstRaven_Bot@@@@@std@@@std@@QAE?AV?$_List_iterator@V?$_List_val@PAV?$Goal@VAbstRaven_Bot@@@@V?$allocator@PAV?$Goal@VAbstRaven_Bot@@@@@std@@@std@@@2@XZ ; std::list<Goal<AbstRaven_Bot> *,std::allocator<Goal<AbstRaven_Bot> *> >::begin
	mov	DWORD PTR tv129[ebp], eax
	mov	ecx, DWORD PTR tv129[ebp]
	mov	DWORD PTR tv92[ebp], ecx
	mov	DWORD PTR __$EHRec$[ebp+8], 0
	sub	esp, 12					; 0000000cH
	mov	ecx, esp
	mov	DWORD PTR $T153358[ebp], esp
	mov	edx, DWORD PTR tv92[ebp]
	push	edx
	call	??0?$_List_const_iterator@V?$_List_val@PAV?$Goal@VAbstRaven_Bot@@@@V?$allocator@PAV?$Goal@VAbstRaven_Bot@@@@@std@@@std@@@std@@QAE@ABV01@@Z
	mov	DWORD PTR tv94[ebp], eax
	lea	eax, DWORD PTR $T153360[ebp]
	push	eax
	mov	ecx, DWORD PTR _this$[ebp]
	call	?erase@?$list@PAV?$Goal@VAbstRaven_Bot@@@@V?$allocator@PAV?$Goal@VAbstRaven_Bot@@@@@std@@@std@@QAE?AV?$_List_iterator@V?$_List_val@PAV?$Goal@VAbstRaven_Bot@@@@V?$allocator@PAV?$Goal@VAbstRaven_Bot@@@@@std@@@std@@@2@V?$_List_const_iterator@V?$_List_val@PAV?$Goal@VAbstRaven_Bot@@@@V?$allocator@PAV?$Goal@VAbstRaven_Bot@@@@@std@@@std@@@2@@Z ; std::list<Goal<AbstRaven_Bot> *,std::allocator<Goal<AbstRaven_Bot> *> >::erase
	mov	DWORD PTR tv95[ebp], eax
	lea	ecx, DWORD PTR $T153360[ebp]
	call	??1?$_List_iterator@V?$_List_val@PAV?$Goal@VAbstRaven_Bot@@@@V?$allocator@PAV?$Goal@VAbstRaven_Bot@@@@@std@@@std@@@std@@QAE@XZ
	mov	DWORD PTR __$EHRec$[ebp+8], -1
	lea	ecx, DWORD PTR $T153359[ebp]
	call	??1?$_List_iterator@V?$_List_val@PAV?$Goal@VAbstRaven_Bot@@@@V?$allocator@PAV?$Goal@VAbstRaven_Bot@@@@@std@@@std@@@std@@QAE@XZ

; 923  : 		}

	mov	ecx, DWORD PTR __$EHRec$[ebp]
	mov	DWORD PTR fs:0, ecx
	pop	ecx
	pop	edi
	add	esp, 60					; 0000003cH
	cmp	ebp, esp
	call	__RTC_CheckEsp
	mov	esp, ebp
	pop	ebp
	ret	0
_TEXT	ENDS
;	COMDAT text$x
text$x	SEGMENT
__unwindfunclet$?pop_front@?$list@PAV?$Goal@VAbstRaven_Bot@@@@V?$allocator@PAV?$Goal@VAbstRaven_Bot@@@@@std@@@std@@QAEXXZ$0:
	lea	ecx, DWORD PTR $T153359[ebp]
	jmp	??1?$_List_iterator@V?$_List_val@PAV?$Goal@VAbstRaven_Bot@@@@V?$allocator@PAV?$Goal@VAbstRaven_Bot@@@@@std@@@std@@@std@@QAE@XZ
__ehhandler$?pop_front@?$list@PAV?$Goal@VAbstRaven_Bot@@@@V?$allocator@PAV?$Goal@VAbstRaven_Bot@@@@@std@@@std@@QAEXXZ:
	mov	edx, DWORD PTR [esp+8]
	lea	eax, DWORD PTR [edx+12]
	mov	ecx, DWORD PTR [edx-56]
	xor	ecx, eax
	call	@__security_check_cookie@4
	mov	eax, OFFSET __ehfuncinfo$?pop_front@?$list@PAV?$Goal@VAbstRaven_Bot@@@@V?$allocator@PAV?$Goal@VAbstRaven_Bot@@@@@std@@@std@@QAEXXZ
	jmp	___CxxFrameHandler3
text$x	ENDS
?pop_front@?$list@PAV?$Goal@VAbstRaven_Bot@@@@V?$allocator@PAV?$Goal@VAbstRaven_Bot@@@@@std@@@std@@QAEXXZ ENDP ; std::list<Goal<AbstRaven_Bot> *,std::allocator<Goal<AbstRaven_Bot> *> >::pop_front
PUBLIC	??$_Destroy@U_Node@?$_List_nod@PAV?$Goal@VAbstRaven_Bot@@@@V?$allocator@PAV?$Goal@VAbstRaven_Bot@@@@@std@@@std@@@std@@YAXPAU_Node@?$_List_nod@PAV?$Goal@VAbstRaven_Bot@@@@V?$allocator@PAV?$Goal@VAbstRaven_Bot@@@@@std@@@0@@Z ; std::_Destroy<std::_List_nod<Goal<AbstRaven_Bot> *,std::allocator<Goal<AbstRaven_Bot> *> >::_Node>
; Function compile flags: /Odtp /RTCsu
; File c:\program files (x86)\microsoft visual studio 10.0\vc\include\xmemory
;	COMDAT ?destroy@?$allocator@U_Node@?$_List_nod@PAV?$Goal@VAbstRaven_Bot@@@@V?$allocator@PAV?$Goal@VAbstRaven_Bot@@@@@std@@@std@@@std@@QAEXPAU_Node@?$_List_nod@PAV?$Goal@VAbstRaven_Bot@@@@V?$allocator@PAV?$Goal@VAbstRaven_Bot@@@@@std@@@2@@Z
_TEXT	SEGMENT
_this$ = -4						; size = 4
__Ptr$ = 8						; size = 4
?destroy@?$allocator@U_Node@?$_List_nod@PAV?$Goal@VAbstRaven_Bot@@@@V?$allocator@PAV?$Goal@VAbstRaven_Bot@@@@@std@@@std@@@std@@QAEXPAU_Node@?$_List_nod@PAV?$Goal@VAbstRaven_Bot@@@@V?$allocator@PAV?$Goal@VAbstRaven_Bot@@@@@std@@@2@@Z PROC ; std::allocator<std::_List_nod<Goal<AbstRaven_Bot> *,std::allocator<Goal<AbstRaven_Bot> *> >::_Node>::destroy, COMDAT
; _this$ = ecx

; 212  : 		{	// destroy object at _Ptr

	push	ebp
	mov	ebp, esp
	push	ecx
	mov	DWORD PTR [ebp-4], -858993460		; ccccccccH
	mov	DWORD PTR _this$[ebp], ecx

; 213  : 		_Destroy(_Ptr);

	mov	eax, DWORD PTR __Ptr$[ebp]
	push	eax
	call	??$_Destroy@U_Node@?$_List_nod@PAV?$Goal@VAbstRaven_Bot@@@@V?$allocator@PAV?$Goal@VAbstRaven_Bot@@@@@std@@@std@@@std@@YAXPAU_Node@?$_List_nod@PAV?$Goal@VAbstRaven_Bot@@@@V?$allocator@PAV?$Goal@VAbstRaven_Bot@@@@@std@@@0@@Z ; std::_Destroy<std::_List_nod<Goal<AbstRaven_Bot> *,std::allocator<Goal<AbstRaven_Bot> *> >::_Node>
	add	esp, 4

; 214  : 		}

	add	esp, 4
	cmp	ebp, esp
	call	__RTC_CheckEsp
	mov	esp, ebp
	pop	ebp
	ret	4
?destroy@?$allocator@U_Node@?$_List_nod@PAV?$Goal@VAbstRaven_Bot@@@@V?$allocator@PAV?$Goal@VAbstRaven_Bot@@@@@std@@@std@@@std@@QAEXPAU_Node@?$_List_nod@PAV?$Goal@VAbstRaven_Bot@@@@V?$allocator@PAV?$Goal@VAbstRaven_Bot@@@@@std@@@2@@Z ENDP ; std::allocator<std::_List_nod<Goal<AbstRaven_Bot> *,std::allocator<Goal<AbstRaven_Bot> *> >::_Node>::destroy
_TEXT	ENDS
PUBLIC	??8?$_List_const_iterator@V?$_List_val@PAV?$Goal@VAbstRaven_Bot@@@@V?$allocator@PAV?$Goal@VAbstRaven_Bot@@@@@std@@@std@@@std@@QBE_NABV01@@Z ; std::_List_const_iterator<std::_List_val<Goal<AbstRaven_Bot> *,std::allocator<Goal<AbstRaven_Bot> *> > >::operator==
; Function compile flags: /Odtp /RTCsu
; File c:\program files (x86)\microsoft visual studio 10.0\vc\include\list
;	COMDAT ??9?$_List_const_iterator@V?$_List_val@PAV?$Goal@VAbstRaven_Bot@@@@V?$allocator@PAV?$Goal@VAbstRaven_Bot@@@@@std@@@std@@@std@@QBE_NABV01@@Z
_TEXT	SEGMENT
_this$ = -4						; size = 4
__Right$ = 8						; size = 4
??9?$_List_const_iterator@V?$_List_val@PAV?$Goal@VAbstRaven_Bot@@@@V?$allocator@PAV?$Goal@VAbstRaven_Bot@@@@@std@@@std@@@std@@QBE_NABV01@@Z PROC ; std::_List_const_iterator<std::_List_val<Goal<AbstRaven_Bot> *,std::allocator<Goal<AbstRaven_Bot> *> > >::operator!=, COMDAT
; _this$ = ecx

; 299  : 		{	// test for iterator inequality

	push	ebp
	mov	ebp, esp
	push	ecx
	mov	DWORD PTR [ebp-4], -858993460		; ccccccccH
	mov	DWORD PTR _this$[ebp], ecx

; 300  : 		return (!(*this == _Right));

	mov	eax, DWORD PTR __Right$[ebp]
	push	eax
	mov	ecx, DWORD PTR _this$[ebp]
	call	??8?$_List_const_iterator@V?$_List_val@PAV?$Goal@VAbstRaven_Bot@@@@V?$allocator@PAV?$Goal@VAbstRaven_Bot@@@@@std@@@std@@@std@@QBE_NABV01@@Z ; std::_List_const_iterator<std::_List_val<Goal<AbstRaven_Bot> *,std::allocator<Goal<AbstRaven_Bot> *> > >::operator==
	movzx	eax, al
	neg	eax
	sbb	eax, eax
	add	eax, 1

; 301  : 		}

	add	esp, 4
	cmp	ebp, esp
	call	__RTC_CheckEsp
	mov	esp, ebp
	pop	ebp
	ret	4
??9?$_List_const_iterator@V?$_List_val@PAV?$Goal@VAbstRaven_Bot@@@@V?$allocator@PAV?$Goal@VAbstRaven_Bot@@@@@std@@@std@@@std@@QBE_NABV01@@Z ENDP ; std::_List_const_iterator<std::_List_val<Goal<AbstRaven_Bot> *,std::allocator<Goal<AbstRaven_Bot> *> > >::operator!=
_TEXT	ENDS
PUBLIC	??D?$_List_const_iterator@V?$_List_val@PAV?$Goal@VAbstRaven_Bot@@@@V?$allocator@PAV?$Goal@VAbstRaven_Bot@@@@@std@@@std@@@std@@QBEABQAV?$Goal@VAbstRaven_Bot@@@@XZ ; std::_List_const_iterator<std::_List_val<Goal<AbstRaven_Bot> *,std::allocator<Goal<AbstRaven_Bot> *> > >::operator*
; Function compile flags: /Odtp /RTCsu
;	COMDAT ??D?$_List_iterator@V?$_List_val@PAV?$Goal@VAbstRaven_Bot@@@@V?$allocator@PAV?$Goal@VAbstRaven_Bot@@@@@std@@@std@@@std@@QBEAAPAV?$Goal@VAbstRaven_Bot@@@@XZ
_TEXT	SEGMENT
_this$ = -4						; size = 4
??D?$_List_iterator@V?$_List_val@PAV?$Goal@VAbstRaven_Bot@@@@V?$allocator@PAV?$Goal@VAbstRaven_Bot@@@@@std@@@std@@@std@@QBEAAPAV?$Goal@VAbstRaven_Bot@@@@XZ PROC ; std::_List_iterator<std::_List_val<Goal<AbstRaven_Bot> *,std::allocator<Goal<AbstRaven_Bot> *> > >::operator*, COMDAT
; _this$ = ecx

; 359  : 		{	// return designated value

	push	ebp
	mov	ebp, esp
	push	ecx
	mov	DWORD PTR [ebp-4], -858993460		; ccccccccH
	mov	DWORD PTR _this$[ebp], ecx

; 360  : 		return ((reference)**(_Mybase *)this);

	mov	ecx, DWORD PTR _this$[ebp]
	call	??D?$_List_const_iterator@V?$_List_val@PAV?$Goal@VAbstRaven_Bot@@@@V?$allocator@PAV?$Goal@VAbstRaven_Bot@@@@@std@@@std@@@std@@QBEABQAV?$Goal@VAbstRaven_Bot@@@@XZ ; std::_List_const_iterator<std::_List_val<Goal<AbstRaven_Bot> *,std::allocator<Goal<AbstRaven_Bot> *> > >::operator*

; 361  : 		}

	add	esp, 4
	cmp	ebp, esp
	call	__RTC_CheckEsp
	mov	esp, ebp
	pop	ebp
	ret	0
??D?$_List_iterator@V?$_List_val@PAV?$Goal@VAbstRaven_Bot@@@@V?$allocator@PAV?$Goal@VAbstRaven_Bot@@@@@std@@@std@@@std@@QBEAAPAV?$Goal@VAbstRaven_Bot@@@@XZ ENDP ; std::_List_iterator<std::_List_val<Goal<AbstRaven_Bot> *,std::allocator<Goal<AbstRaven_Bot> *> > >::operator*
_TEXT	ENDS
PUBLIC	??E?$_List_const_iterator@V?$_List_val@PAV?$Goal@VAbstRaven_Bot@@@@V?$allocator@PAV?$Goal@VAbstRaven_Bot@@@@@std@@@std@@@std@@QAEAAV01@XZ ; std::_List_const_iterator<std::_List_val<Goal<AbstRaven_Bot> *,std::allocator<Goal<AbstRaven_Bot> *> > >::operator++
; Function compile flags: /Odtp /RTCsu
;	COMDAT ??E?$_List_iterator@V?$_List_val@PAV?$Goal@VAbstRaven_Bot@@@@V?$allocator@PAV?$Goal@VAbstRaven_Bot@@@@@std@@@std@@@std@@QAEAAV01@XZ
_TEXT	SEGMENT
_this$ = -4						; size = 4
??E?$_List_iterator@V?$_List_val@PAV?$Goal@VAbstRaven_Bot@@@@V?$allocator@PAV?$Goal@VAbstRaven_Bot@@@@@std@@@std@@@std@@QAEAAV01@XZ PROC ; std::_List_iterator<std::_List_val<Goal<AbstRaven_Bot> *,std::allocator<Goal<AbstRaven_Bot> *> > >::operator++, COMDAT
; _this$ = ecx

; 369  : 		{	// preincrement

	push	ebp
	mov	ebp, esp
	push	ecx
	mov	DWORD PTR [ebp-4], -858993460		; ccccccccH
	mov	DWORD PTR _this$[ebp], ecx

; 370  : 		++(*(_Mybase *)this);

	mov	ecx, DWORD PTR _this$[ebp]
	call	??E?$_List_const_iterator@V?$_List_val@PAV?$Goal@VAbstRaven_Bot@@@@V?$allocator@PAV?$Goal@VAbstRaven_Bot@@@@@std@@@std@@@std@@QAEAAV01@XZ ; std::_List_const_iterator<std::_List_val<Goal<AbstRaven_Bot> *,std::allocator<Goal<AbstRaven_Bot> *> > >::operator++

; 371  : 		return (*this);

	mov	eax, DWORD PTR _this$[ebp]

; 372  : 		}

	add	esp, 4
	cmp	ebp, esp
	call	__RTC_CheckEsp
	mov	esp, ebp
	pop	ebp
	ret	0
??E?$_List_iterator@V?$_List_val@PAV?$Goal@VAbstRaven_Bot@@@@V?$allocator@PAV?$Goal@VAbstRaven_Bot@@@@@std@@@std@@@std@@QAEAAV01@XZ ENDP ; std::_List_iterator<std::_List_val<Goal<AbstRaven_Bot> *,std::allocator<Goal<AbstRaven_Bot> *> > >::operator++
_TEXT	ENDS
PUBLIC	??0?$_List_unchecked_const_iterator@V?$_List_val@PAV?$Goal@VAbstRaven_Bot@@@@V?$allocator@PAV?$Goal@VAbstRaven_Bot@@@@@std@@@std@@U_Iterator_base12@2@@std@@QAE@ABV01@@Z ; std::_List_unchecked_const_iterator<std::_List_val<Goal<AbstRaven_Bot> *,std::allocator<Goal<AbstRaven_Bot> *> >,std::_Iterator_base12>::_List_unchecked_const_iterator<std::_List_val<Goal<AbstRaven_Bot> *,std::allocator<Goal<AbstRaven_Bot> *> >,std::_Iterator_base12>
; Function compile flags: /Odtp /RTCsu
;	COMDAT ??0?$_List_const_iterator@V?$_List_val@PAV?$Goal@VAbstRaven_Bot@@@@V?$allocator@PAV?$Goal@VAbstRaven_Bot@@@@@std@@@std@@@std@@QAE@ABV01@@Z
_TEXT	SEGMENT
_this$ = -4						; size = 4
___that$ = 8						; size = 4
??0?$_List_const_iterator@V?$_List_val@PAV?$Goal@VAbstRaven_Bot@@@@V?$allocator@PAV?$Goal@VAbstRaven_Bot@@@@@std@@@std@@@std@@QAE@ABV01@@Z PROC ; std::_List_const_iterator<std::_List_val<Goal<AbstRaven_Bot> *,std::allocator<Goal<AbstRaven_Bot> *> > >::_List_const_iterator<std::_List_val<Goal<AbstRaven_Bot> *,std::allocator<Goal<AbstRaven_Bot> *> > >, COMDAT
; _this$ = ecx
	push	ebp
	mov	ebp, esp
	push	ecx
	mov	DWORD PTR [ebp-4], -858993460		; ccccccccH
	mov	DWORD PTR _this$[ebp], ecx
	mov	eax, DWORD PTR ___that$[ebp]
	push	eax
	mov	ecx, DWORD PTR _this$[ebp]
	call	??0?$_List_unchecked_const_iterator@V?$_List_val@PAV?$Goal@VAbstRaven_Bot@@@@V?$allocator@PAV?$Goal@VAbstRaven_Bot@@@@@std@@@std@@U_Iterator_base12@2@@std@@QAE@ABV01@@Z
	mov	eax, DWORD PTR _this$[ebp]
	add	esp, 4
	cmp	ebp, esp
	call	__RTC_CheckEsp
	mov	esp, ebp
	pop	ebp
	ret	4
??0?$_List_const_iterator@V?$_List_val@PAV?$Goal@VAbstRaven_Bot@@@@V?$allocator@PAV?$Goal@VAbstRaven_Bot@@@@@std@@@std@@@std@@QAE@ABV01@@Z ENDP ; std::_List_const_iterator<std::_List_val<Goal<AbstRaven_Bot> *,std::allocator<Goal<AbstRaven_Bot> *> > >::_List_const_iterator<std::_List_val<Goal<AbstRaven_Bot> *,std::allocator<Goal<AbstRaven_Bot> *> > >
_TEXT	ENDS
PUBLIC	??0?$_Iterator012@Ubidirectional_iterator_tag@std@@PAV?$Goal@VAbstRaven_Bot@@@@HPBQAV3@ABQAV3@U_Iterator_base12@2@@std@@QAE@ABU01@@Z ; std::_Iterator012<std::bidirectional_iterator_tag,Goal<AbstRaven_Bot> *,int,Goal<AbstRaven_Bot> * const *,Goal<AbstRaven_Bot> * const &,std::_Iterator_base12>::_Iterator012<std::bidirectional_iterator_tag,Goal<AbstRaven_Bot> *,int,Goal<AbstRaven_Bot> * const *,Goal<AbstRaven_Bot> * const &,std::_Iterator_base12>
; Function compile flags: /Odtp /RTCsu
;	COMDAT ??0?$_List_unchecked_const_iterator@V?$_List_val@PAV?$Goal@VAbstRaven_Bot@@@@V?$allocator@PAV?$Goal@VAbstRaven_Bot@@@@@std@@@std@@U_Iterator_base12@2@@std@@QAE@ABV01@@Z
_TEXT	SEGMENT
_this$ = -4						; size = 4
___that$ = 8						; size = 4
??0?$_List_unchecked_const_iterator@V?$_List_val@PAV?$Goal@VAbstRaven_Bot@@@@V?$allocator@PAV?$Goal@VAbstRaven_Bot@@@@@std@@@std@@U_Iterator_base12@2@@std@@QAE@ABV01@@Z PROC ; std::_List_unchecked_const_iterator<std::_List_val<Goal<AbstRaven_Bot> *,std::allocator<Goal<AbstRaven_Bot> *> >,std::_Iterator_base12>::_List_unchecked_const_iterator<std::_List_val<Goal<AbstRaven_Bot> *,std::allocator<Goal<AbstRaven_Bot> *> >,std::_Iterator_base12>, COMDAT
; _this$ = ecx
	push	ebp
	mov	ebp, esp
	push	ecx
	mov	DWORD PTR [ebp-4], -858993460		; ccccccccH
	mov	DWORD PTR _this$[ebp], ecx
	mov	eax, DWORD PTR ___that$[ebp]
	push	eax
	mov	ecx, DWORD PTR _this$[ebp]
	call	??0?$_Iterator012@Ubidirectional_iterator_tag@std@@PAV?$Goal@VAbstRaven_Bot@@@@HPBQAV3@ABQAV3@U_Iterator_base12@2@@std@@QAE@ABU01@@Z
	mov	ecx, DWORD PTR _this$[ebp]
	mov	edx, DWORD PTR ___that$[ebp]
	mov	eax, DWORD PTR [edx+8]
	mov	DWORD PTR [ecx+8], eax
	mov	eax, DWORD PTR _this$[ebp]
	add	esp, 4
	cmp	ebp, esp
	call	__RTC_CheckEsp
	mov	esp, ebp
	pop	ebp
	ret	4
??0?$_List_unchecked_const_iterator@V?$_List_val@PAV?$Goal@VAbstRaven_Bot@@@@V?$allocator@PAV?$Goal@VAbstRaven_Bot@@@@@std@@@std@@U_Iterator_base12@2@@std@@QAE@ABV01@@Z ENDP ; std::_List_unchecked_const_iterator<std::_List_val<Goal<AbstRaven_Bot> *,std::allocator<Goal<AbstRaven_Bot> *> >,std::_Iterator_base12>::_List_unchecked_const_iterator<std::_List_val<Goal<AbstRaven_Bot> *,std::allocator<Goal<AbstRaven_Bot> *> >,std::_Iterator_base12>
_TEXT	ENDS
PUBLIC	??0_Iterator_base12@std@@QAE@ABU01@@Z		; std::_Iterator_base12::_Iterator_base12
; Function compile flags: /Odtp /RTCsu
;	COMDAT ??0?$_Iterator012@Ubidirectional_iterator_tag@std@@PAV?$Goal@VAbstRaven_Bot@@@@HPBQAV3@ABQAV3@U_Iterator_base12@2@@std@@QAE@ABU01@@Z
_TEXT	SEGMENT
_this$ = -4						; size = 4
___that$ = 8						; size = 4
??0?$_Iterator012@Ubidirectional_iterator_tag@std@@PAV?$Goal@VAbstRaven_Bot@@@@HPBQAV3@ABQAV3@U_Iterator_base12@2@@std@@QAE@ABU01@@Z PROC ; std::_Iterator012<std::bidirectional_iterator_tag,Goal<AbstRaven_Bot> *,int,Goal<AbstRaven_Bot> * const *,Goal<AbstRaven_Bot> * const &,std::_Iterator_base12>::_Iterator012<std::bidirectional_iterator_tag,Goal<AbstRaven_Bot> *,int,Goal<AbstRaven_Bot> * const *,Goal<AbstRaven_Bot> * const &,std::_Iterator_base12>, COMDAT
; _this$ = ecx
	push	ebp
	mov	ebp, esp
	push	ecx
	mov	DWORD PTR [ebp-4], -858993460		; ccccccccH
	mov	DWORD PTR _this$[ebp], ecx
	mov	eax, DWORD PTR ___that$[ebp]
	push	eax
	mov	ecx, DWORD PTR _this$[ebp]
	call	??0_Iterator_base12@std@@QAE@ABU01@@Z	; std::_Iterator_base12::_Iterator_base12
	mov	eax, DWORD PTR _this$[ebp]
	add	esp, 4
	cmp	ebp, esp
	call	__RTC_CheckEsp
	mov	esp, ebp
	pop	ebp
	ret	4
??0?$_Iterator012@Ubidirectional_iterator_tag@std@@PAV?$Goal@VAbstRaven_Bot@@@@HPBQAV3@ABQAV3@U_Iterator_base12@2@@std@@QAE@ABU01@@Z ENDP ; std::_Iterator012<std::bidirectional_iterator_tag,Goal<AbstRaven_Bot> *,int,Goal<AbstRaven_Bot> * const *,Goal<AbstRaven_Bot> * const &,std::_Iterator_base12>::_Iterator012<std::bidirectional_iterator_tag,Goal<AbstRaven_Bot> *,int,Goal<AbstRaven_Bot> * const *,Goal<AbstRaven_Bot> * const &,std::_Iterator_base12>
_TEXT	ENDS
PUBLIC	??4_Iterator_base12@std@@QAEAAU01@ABU01@@Z	; std::_Iterator_base12::operator=
; Function compile flags: /Odtp /RTCsu
; File c:\program files (x86)\microsoft visual studio 10.0\vc\include\xutility
;	COMDAT ??0_Iterator_base12@std@@QAE@ABU01@@Z
_TEXT	SEGMENT
_this$ = -4						; size = 4
__Right$ = 8						; size = 4
??0_Iterator_base12@std@@QAE@ABU01@@Z PROC		; std::_Iterator_base12::_Iterator_base12, COMDAT
; _this$ = ecx

; 116  : 		{	// copy an iterator

	push	ebp
	mov	ebp, esp
	push	ecx
	mov	DWORD PTR [ebp-4], -858993460		; ccccccccH
	mov	DWORD PTR _this$[ebp], ecx
	mov	eax, DWORD PTR _this$[ebp]
	mov	DWORD PTR [eax], 0
	mov	ecx, DWORD PTR _this$[ebp]
	mov	DWORD PTR [ecx+4], 0

; 117  : 		*this = _Right;

	mov	edx, DWORD PTR __Right$[ebp]
	push	edx
	mov	ecx, DWORD PTR _this$[ebp]
	call	??4_Iterator_base12@std@@QAEAAU01@ABU01@@Z ; std::_Iterator_base12::operator=

; 118  : 		}

	mov	eax, DWORD PTR _this$[ebp]
	add	esp, 4
	cmp	ebp, esp
	call	__RTC_CheckEsp
	mov	esp, ebp
	pop	ebp
	ret	4
??0_Iterator_base12@std@@QAE@ABU01@@Z ENDP		; std::_Iterator_base12::_Iterator_base12
_TEXT	ENDS
PUBLIC	?_Adopt@_Iterator_base12@std@@QAEXPBU_Container_base12@2@@Z ; std::_Iterator_base12::_Adopt
;	COMDAT xdata$x
xdata$x	SEGMENT
__unwindtable$??4_Iterator_base12@std@@QAEAAU01@ABU01@@Z DD 0ffffffffH
	DD	FLAT:__unwindfunclet$??4_Iterator_base12@std@@QAEAAU01@ABU01@@Z$0
__ehfuncinfo$??4_Iterator_base12@std@@QAEAAU01@ABU01@@Z DD 019930522H
	DD	01H
	DD	FLAT:__unwindtable$??4_Iterator_base12@std@@QAEAAU01@ABU01@@Z
	DD	2 DUP(00H)
	DD	2 DUP(00H)
	DD	00H
	DD	01H
; Function compile flags: /Odtp /RTCsu
xdata$x	ENDS
;	COMDAT ??4_Iterator_base12@std@@QAEAAU01@ABU01@@Z
_TEXT	SEGMENT
__Lock$15154 = -24					; size = 4
_this$ = -16						; size = 4
__$EHRec$ = -12						; size = 12
__Right$ = 8						; size = 4
??4_Iterator_base12@std@@QAEAAU01@ABU01@@Z PROC		; std::_Iterator_base12::operator=, COMDAT
; _this$ = ecx

; 121  : 		{	// assign an iterator

	push	ebp
	mov	ebp, esp
	push	-1
	push	__ehhandler$??4_Iterator_base12@std@@QAEAAU01@ABU01@@Z
	mov	eax, DWORD PTR fs:0
	push	eax
	sub	esp, 16					; 00000010H
	mov	eax, -858993460				; ccccccccH
	mov	DWORD PTR [ebp-28], eax
	mov	DWORD PTR [ebp-24], eax
	mov	DWORD PTR [ebp-20], eax
	mov	DWORD PTR [ebp-16], eax
	mov	eax, DWORD PTR ___security_cookie
	xor	eax, ebp
	push	eax
	lea	eax, DWORD PTR __$EHRec$[ebp]
	mov	DWORD PTR fs:0, eax
	mov	DWORD PTR _this$[ebp], ecx

; 122  : 		if (_Myproxy == _Right._Myproxy)

	mov	eax, DWORD PTR _this$[ebp]
	mov	ecx, DWORD PTR __Right$[ebp]
	mov	edx, DWORD PTR [eax]
	cmp	edx, DWORD PTR [ecx]
	jne	SHORT $LN4@operator
	jmp	SHORT $LN3@operator
$LN4@operator:

; 123  : 			;
; 124  : 		else if (_Right._Myproxy != 0)

	mov	eax, DWORD PTR __Right$[ebp]
	cmp	DWORD PTR [eax], 0
	je	SHORT $LN2@operator

; 125  : 			_Adopt(_Right._Myproxy->_Mycont);

	mov	ecx, DWORD PTR __Right$[ebp]
	mov	edx, DWORD PTR [ecx]
	mov	eax, DWORD PTR [edx]
	push	eax
	mov	ecx, DWORD PTR _this$[ebp]
	call	?_Adopt@_Iterator_base12@std@@QAEXPBU_Container_base12@2@@Z ; std::_Iterator_base12::_Adopt

; 126  : 		else

	jmp	SHORT $LN3@operator
$LN2@operator:

; 127  : 			{	// becoming invalid, disown current parent
; 128  : 			_Lockit _Lock(_LOCK_DEBUG);

	push	3
	lea	ecx, DWORD PTR __Lock$15154[ebp]
	call	??0_Lockit@std@@QAE@H@Z			; std::_Lockit::_Lockit
	mov	DWORD PTR __$EHRec$[ebp+8], 0

; 129  : 			_Orphan_me();

	mov	ecx, DWORD PTR _this$[ebp]
	call	?_Orphan_me@_Iterator_base12@std@@QAEXXZ ; std::_Iterator_base12::_Orphan_me

; 130  : 			}

	mov	DWORD PTR __$EHRec$[ebp+8], -1
	lea	ecx, DWORD PTR __Lock$15154[ebp]
	call	??1_Lockit@std@@QAE@XZ			; std::_Lockit::~_Lockit
$LN3@operator:

; 131  : 		return (*this);

	mov	eax, DWORD PTR _this$[ebp]

; 132  : 		}

	push	edx
	mov	ecx, ebp
	push	eax
	lea	edx, DWORD PTR $LN11@operator
	call	@_RTC_CheckStackVars@8
	pop	eax
	pop	edx
	mov	ecx, DWORD PTR __$EHRec$[ebp]
	mov	DWORD PTR fs:0, ecx
	pop	ecx
	add	esp, 28					; 0000001cH
	cmp	ebp, esp
	call	__RTC_CheckEsp
	mov	esp, ebp
	pop	ebp
	ret	4
$LN11@operator:
	DD	1
	DD	$LN10@operator
$LN10@operator:
	DD	-24					; ffffffe8H
	DD	4
	DD	$LN8@operator
$LN8@operator:
	DB	95					; 0000005fH
	DB	76					; 0000004cH
	DB	111					; 0000006fH
	DB	99					; 00000063H
	DB	107					; 0000006bH
	DB	0
_TEXT	ENDS
;	COMDAT text$x
text$x	SEGMENT
__unwindfunclet$??4_Iterator_base12@std@@QAEAAU01@ABU01@@Z$0:
	lea	ecx, DWORD PTR __Lock$15154[ebp]
	jmp	??1_Lockit@std@@QAE@XZ			; std::_Lockit::~_Lockit
__ehhandler$??4_Iterator_base12@std@@QAEAAU01@ABU01@@Z:
	mov	edx, DWORD PTR [esp+8]
	lea	eax, DWORD PTR [edx+12]
	mov	ecx, DWORD PTR [edx-20]
	xor	ecx, eax
	call	@__security_check_cookie@4
	mov	eax, OFFSET __ehfuncinfo$??4_Iterator_base12@std@@QAEAAU01@ABU01@@Z
	jmp	___CxxFrameHandler3
text$x	ENDS
??4_Iterator_base12@std@@QAEAAU01@ABU01@@Z ENDP		; std::_Iterator_base12::operator=
;	COMDAT xdata$x
xdata$x	SEGMENT
__unwindtable$?_Adopt@_Iterator_base12@std@@QAEXPBU_Container_base12@2@@Z DD 0ffffffffH
	DD	FLAT:__unwindfunclet$?_Adopt@_Iterator_base12@std@@QAEXPBU_Container_base12@2@@Z$0
	DD	0ffffffffH
	DD	FLAT:__unwindfunclet$?_Adopt@_Iterator_base12@std@@QAEXPBU_Container_base12@2@@Z$1
__ehfuncinfo$?_Adopt@_Iterator_base12@std@@QAEXPBU_Container_base12@2@@Z DD 019930522H
	DD	02H
	DD	FLAT:__unwindtable$?_Adopt@_Iterator_base12@std@@QAEXPBU_Container_base12@2@@Z
	DD	2 DUP(00H)
	DD	2 DUP(00H)
	DD	00H
	DD	01H
; Function compile flags: /Odtp /RTCsu
xdata$x	ENDS
;	COMDAT ?_Adopt@_Iterator_base12@std@@QAEXPBU_Container_base12@2@@Z
_TEXT	SEGMENT
__Lock$15165 = -40					; size = 4
__Parent_proxy$15163 = -32				; size = 4
__Lock$15161 = -24					; size = 4
_this$ = -16						; size = 4
__$EHRec$ = -12						; size = 12
__Parent$ = 8						; size = 4
?_Adopt@_Iterator_base12@std@@QAEXPBU_Container_base12@2@@Z PROC ; std::_Iterator_base12::_Adopt, COMDAT
; _this$ = ecx

; 143  : 		{	// adopt this iterator by parent

	push	ebp
	mov	ebp, esp
	push	-1
	push	__ehhandler$?_Adopt@_Iterator_base12@std@@QAEXPBU_Container_base12@2@@Z
	mov	eax, DWORD PTR fs:0
	push	eax
	sub	esp, 32					; 00000020H
	mov	eax, -858993460				; ccccccccH
	mov	DWORD PTR [ebp-44], eax
	mov	DWORD PTR [ebp-40], eax
	mov	DWORD PTR [ebp-36], eax
	mov	DWORD PTR [ebp-32], eax
	mov	DWORD PTR [ebp-28], eax
	mov	DWORD PTR [ebp-24], eax
	mov	DWORD PTR [ebp-20], eax
	mov	DWORD PTR [ebp-16], eax
	mov	eax, DWORD PTR ___security_cookie
	xor	eax, ebp
	push	eax
	lea	eax, DWORD PTR __$EHRec$[ebp]
	mov	DWORD PTR fs:0, eax
	mov	DWORD PTR _this$[ebp], ecx

; 144  : 		if (_Parent == 0)

	cmp	DWORD PTR __Parent$[ebp], 0
	jne	SHORT $LN3@Adopt

; 145  : 			{	// no future parent, just disown current parent
; 146  : 			_Lockit _Lock(_LOCK_DEBUG);

	push	3
	lea	ecx, DWORD PTR __Lock$15161[ebp]
	call	??0_Lockit@std@@QAE@H@Z			; std::_Lockit::_Lockit
	mov	DWORD PTR __$EHRec$[ebp+8], 0

; 147  : 			_Orphan_me();

	mov	ecx, DWORD PTR _this$[ebp]
	call	?_Orphan_me@_Iterator_base12@std@@QAEXXZ ; std::_Iterator_base12::_Orphan_me

; 148  : 			}

	mov	DWORD PTR __$EHRec$[ebp+8], -1
	lea	ecx, DWORD PTR __Lock$15161[ebp]
	call	??1_Lockit@std@@QAE@XZ			; std::_Lockit::~_Lockit

; 149  : 		else

	jmp	SHORT $LN4@Adopt
$LN3@Adopt:

; 150  : 			{	// have a parent, do adoption
; 151  : 			_Container_proxy *_Parent_proxy = _Parent->_Myproxy;

	mov	eax, DWORD PTR __Parent$[ebp]
	mov	ecx, DWORD PTR [eax]
	mov	DWORD PTR __Parent_proxy$15163[ebp], ecx

; 152  : 
; 153  :  #if _ITERATOR_DEBUG_LEVEL == 2
; 154  : 			if (_Myproxy != _Parent_proxy)

	mov	edx, DWORD PTR _this$[ebp]
	mov	eax, DWORD PTR [edx]
	cmp	eax, DWORD PTR __Parent_proxy$15163[ebp]
	je	SHORT $LN4@Adopt

; 155  : 				{	// change parentage
; 156  : 				_Lockit _Lock(_LOCK_DEBUG);

	push	3
	lea	ecx, DWORD PTR __Lock$15165[ebp]
	call	??0_Lockit@std@@QAE@H@Z			; std::_Lockit::_Lockit
	mov	DWORD PTR __$EHRec$[ebp+8], 1

; 157  : 				_Orphan_me();

	mov	ecx, DWORD PTR _this$[ebp]
	call	?_Orphan_me@_Iterator_base12@std@@QAEXXZ ; std::_Iterator_base12::_Orphan_me

; 158  : 				_Mynextiter = _Parent_proxy->_Myfirstiter;

	mov	ecx, DWORD PTR _this$[ebp]
	mov	edx, DWORD PTR __Parent_proxy$15163[ebp]
	mov	eax, DWORD PTR [edx+4]
	mov	DWORD PTR [ecx+4], eax

; 159  : 				_Parent_proxy->_Myfirstiter = this;

	mov	ecx, DWORD PTR __Parent_proxy$15163[ebp]
	mov	edx, DWORD PTR _this$[ebp]
	mov	DWORD PTR [ecx+4], edx

; 160  : 				_Myproxy = _Parent_proxy;

	mov	eax, DWORD PTR _this$[ebp]
	mov	ecx, DWORD PTR __Parent_proxy$15163[ebp]
	mov	DWORD PTR [eax], ecx

; 161  : 				}

	mov	DWORD PTR __$EHRec$[ebp+8], -1
	lea	ecx, DWORD PTR __Lock$15165[ebp]
	call	??1_Lockit@std@@QAE@XZ			; std::_Lockit::~_Lockit
$LN4@Adopt:

; 162  :  #else /* _ITERATOR_DEBUG_LEVEL == 2 */
; 163  : 			_Myproxy = _Parent_proxy;
; 164  :  #endif /* _ITERATOR_DEBUG_LEVEL == 2 */
; 165  : 			}
; 166  : 		}

	push	edx
	mov	ecx, ebp
	push	eax
	lea	edx, DWORD PTR $LN12@Adopt
	call	@_RTC_CheckStackVars@8
	pop	eax
	pop	edx
	mov	ecx, DWORD PTR __$EHRec$[ebp]
	mov	DWORD PTR fs:0, ecx
	pop	ecx
	add	esp, 44					; 0000002cH
	cmp	ebp, esp
	call	__RTC_CheckEsp
	mov	esp, ebp
	pop	ebp
	ret	4
$LN12@Adopt:
	DD	2
	DD	$LN11@Adopt
$LN11@Adopt:
	DD	-24					; ffffffe8H
	DD	4
	DD	$LN8@Adopt
	DD	-40					; ffffffd8H
	DD	4
	DD	$LN9@Adopt
$LN9@Adopt:
	DB	95					; 0000005fH
	DB	76					; 0000004cH
	DB	111					; 0000006fH
	DB	99					; 00000063H
	DB	107					; 0000006bH
	DB	0
$LN8@Adopt:
	DB	95					; 0000005fH
	DB	76					; 0000004cH
	DB	111					; 0000006fH
	DB	99					; 00000063H
	DB	107					; 0000006bH
	DB	0
_TEXT	ENDS
;	COMDAT text$x
text$x	SEGMENT
__unwindfunclet$?_Adopt@_Iterator_base12@std@@QAEXPBU_Container_base12@2@@Z$0:
	lea	ecx, DWORD PTR __Lock$15161[ebp]
	jmp	??1_Lockit@std@@QAE@XZ			; std::_Lockit::~_Lockit
__unwindfunclet$?_Adopt@_Iterator_base12@std@@QAEXPBU_Container_base12@2@@Z$1:
	lea	ecx, DWORD PTR __Lock$15165[ebp]
	jmp	??1_Lockit@std@@QAE@XZ			; std::_Lockit::~_Lockit
__ehhandler$?_Adopt@_Iterator_base12@std@@QAEXPBU_Container_base12@2@@Z:
	mov	edx, DWORD PTR [esp+8]
	lea	eax, DWORD PTR [edx+12]
	mov	ecx, DWORD PTR [edx-36]
	xor	ecx, eax
	call	@__security_check_cookie@4
	mov	eax, OFFSET __ehfuncinfo$?_Adopt@_Iterator_base12@std@@QAEXPBU_Container_base12@2@@Z
	jmp	___CxxFrameHandler3
text$x	ENDS
?_Adopt@_Iterator_base12@std@@QAEXPBU_Container_base12@2@@Z ENDP ; std::_Iterator_base12::_Adopt
PUBLIC	?_Make_iter@?$list@PAV?$Goal@VAbstRaven_Bot@@@@V?$allocator@PAV?$Goal@VAbstRaven_Bot@@@@@std@@@std@@QBE?AV?$_List_iterator@V?$_List_val@PAV?$Goal@VAbstRaven_Bot@@@@V?$allocator@PAV?$Goal@VAbstRaven_Bot@@@@@std@@@std@@@2@V?$_List_const_iterator@V?$_List_val@PAV?$Goal@VAbstRaven_Bot@@@@V?$allocator@PAV?$Goal@VAbstRaven_Bot@@@@@std@@@std@@@2@@Z ; std::list<Goal<AbstRaven_Bot> *,std::allocator<Goal<AbstRaven_Bot> *> >::_Make_iter
PUBLIC	?_Mynode@?$_List_unchecked_const_iterator@V?$_List_val@PAV?$Goal@VAbstRaven_Bot@@@@V?$allocator@PAV?$Goal@VAbstRaven_Bot@@@@@std@@@std@@U_Iterator_base12@2@@std@@QBEPAU_Node@?$_List_nod@PAV?$Goal@VAbstRaven_Bot@@@@V?$allocator@PAV?$Goal@VAbstRaven_Bot@@@@@std@@@2@XZ ; std::_List_unchecked_const_iterator<std::_List_val<Goal<AbstRaven_Bot> *,std::allocator<Goal<AbstRaven_Bot> *> >,std::_Iterator_base12>::_Mynode
PUBLIC	??E?$_List_const_iterator@V?$_List_val@PAV?$Goal@VAbstRaven_Bot@@@@V?$allocator@PAV?$Goal@VAbstRaven_Bot@@@@@std@@@std@@@std@@QAE?AV01@H@Z ; std::_List_const_iterator<std::_List_val<Goal<AbstRaven_Bot> *,std::allocator<Goal<AbstRaven_Bot> *> > >::operator++
PUBLIC	??_C@_1EE@BBMFLDOC@?$AAl?$AAi?$AAs?$AAt?$AA?5?$AAe?$AAr?$AAa?$AAs?$AAe?$AA?5?$AAi?$AAt?$AAe?$AAr?$AAa?$AAt?$AAo?$AAr?$AA?5?$AAo?$AAu?$AAt?$AAs?$AAi?$AAd?$AAe?$AA?5?$AAr?$AAa?$AAn?$AAg@ ; `string'
PUBLIC	??_C@_1II@KCMIDAEO@?$AAc?$AA?3?$AA?2?$AAP?$AAr?$AAo?$AAg?$AAr?$AAa?$AAm?$AA?5?$AAF?$AAi?$AAl?$AAe?$AAs?$AA?5?$AA?$CI?$AAx?$AA8?$AA6?$AA?$CJ?$AA?2?$AAM?$AAi?$AAc?$AAr?$AAo?$AAs?$AAo?$AAf?$AAt@ ; `string'
PUBLIC	?_Getcont@_Iterator_base12@std@@QBEPBU_Container_base12@2@XZ ; std::_Iterator_base12::_Getcont
;	COMDAT ??_C@_1EE@BBMFLDOC@?$AAl?$AAi?$AAs?$AAt?$AA?5?$AAe?$AAr?$AAa?$AAs?$AAe?$AA?5?$AAi?$AAt?$AAe?$AAr?$AAa?$AAt?$AAo?$AAr?$AA?5?$AAo?$AAu?$AAt?$AAs?$AAi?$AAd?$AAe?$AA?5?$AAr?$AAa?$AAn?$AAg@
; File c:\program files (x86)\microsoft visual studio 10.0\vc\include\list
CONST	SEGMENT
??_C@_1EE@BBMFLDOC@?$AAl?$AAi?$AAs?$AAt?$AA?5?$AAe?$AAr?$AAa?$AAs?$AAe?$AA?5?$AAi?$AAt?$AAe?$AAr?$AAa?$AAt?$AAo?$AAr?$AA?5?$AAo?$AAu?$AAt?$AAs?$AAi?$AAd?$AAe?$AA?5?$AAr?$AAa?$AAn?$AAg@ DB 'l'
	DB	00H, 'i', 00H, 's', 00H, 't', 00H, ' ', 00H, 'e', 00H, 'r', 00H
	DB	'a', 00H, 's', 00H, 'e', 00H, ' ', 00H, 'i', 00H, 't', 00H, 'e'
	DB	00H, 'r', 00H, 'a', 00H, 't', 00H, 'o', 00H, 'r', 00H, ' ', 00H
	DB	'o', 00H, 'u', 00H, 't', 00H, 's', 00H, 'i', 00H, 'd', 00H, 'e'
	DB	00H, ' ', 00H, 'r', 00H, 'a', 00H, 'n', 00H, 'g', 00H, 'e', 00H
	DB	00H, 00H					; `string'
CONST	ENDS
;	COMDAT ??_C@_1II@KCMIDAEO@?$AAc?$AA?3?$AA?2?$AAP?$AAr?$AAo?$AAg?$AAr?$AAa?$AAm?$AA?5?$AAF?$AAi?$AAl?$AAe?$AAs?$AA?5?$AA?$CI?$AAx?$AA8?$AA6?$AA?$CJ?$AA?2?$AAM?$AAi?$AAc?$AAr?$AAo?$AAs?$AAo?$AAf?$AAt@
CONST	SEGMENT
??_C@_1II@KCMIDAEO@?$AAc?$AA?3?$AA?2?$AAP?$AAr?$AAo?$AAg?$AAr?$AAa?$AAm?$AA?5?$AAF?$AAi?$AAl?$AAe?$AAs?$AA?5?$AA?$CI?$AAx?$AA8?$AA6?$AA?$CJ?$AA?2?$AAM?$AAi?$AAc?$AAr?$AAo?$AAs?$AAo?$AAf?$AAt@ DB 'c'
	DB	00H, ':', 00H, '\', 00H, 'P', 00H, 'r', 00H, 'o', 00H, 'g', 00H
	DB	'r', 00H, 'a', 00H, 'm', 00H, ' ', 00H, 'F', 00H, 'i', 00H, 'l'
	DB	00H, 'e', 00H, 's', 00H, ' ', 00H, '(', 00H, 'x', 00H, '8', 00H
	DB	'6', 00H, ')', 00H, '\', 00H, 'M', 00H, 'i', 00H, 'c', 00H, 'r'
	DB	00H, 'o', 00H, 's', 00H, 'o', 00H, 'f', 00H, 't', 00H, ' ', 00H
	DB	'V', 00H, 'i', 00H, 's', 00H, 'u', 00H, 'a', 00H, 'l', 00H, ' '
	DB	00H, 'S', 00H, 't', 00H, 'u', 00H, 'd', 00H, 'i', 00H, 'o', 00H
	DB	' ', 00H, '1', 00H, '0', 00H, '.', 00H, '0', 00H, '\', 00H, 'V'
	DB	00H, 'C', 00H, '\', 00H, 'i', 00H, 'n', 00H, 'c', 00H, 'l', 00H
	DB	'u', 00H, 'd', 00H, 'e', 00H, '\', 00H, 'l', 00H, 'i', 00H, 's'
	DB	00H, 't', 00H, 00H, 00H			; `string'
CONST	ENDS
;	COMDAT xdata$x
xdata$x	SEGMENT
__unwindtable$?erase@?$list@PAV?$Goal@VAbstRaven_Bot@@@@V?$allocator@PAV?$Goal@VAbstRaven_Bot@@@@@std@@@std@@QAE?AV?$_List_iterator@V?$_List_val@PAV?$Goal@VAbstRaven_Bot@@@@V?$allocator@PAV?$Goal@VAbstRaven_Bot@@@@@std@@@std@@@2@V?$_List_const_iterator@V?$_List_val@PAV?$Goal@VAbstRaven_Bot@@@@V?$allocator@PAV?$Goal@VAbstRaven_Bot@@@@@std@@@std@@@2@@Z DD 0ffffffffH
	DD	FLAT:__unwindfunclet$?erase@?$list@PAV?$Goal@VAbstRaven_Bot@@@@V?$allocator@PAV?$Goal@VAbstRaven_Bot@@@@@std@@@std@@QAE?AV?$_List_iterator@V?$_List_val@PAV?$Goal@VAbstRaven_Bot@@@@V?$allocator@PAV?$Goal@VAbstRaven_Bot@@@@@std@@@std@@@2@V?$_List_const_iterator@V?$_List_val@PAV?$Goal@VAbstRaven_Bot@@@@V?$allocator@PAV?$Goal@VAbstRaven_Bot@@@@@std@@@std@@@2@@Z$3
	DD	00H
	DD	FLAT:__unwindfunclet$?erase@?$list@PAV?$Goal@VAbstRaven_Bot@@@@V?$allocator@PAV?$Goal@VAbstRaven_Bot@@@@@std@@@std@@QAE?AV?$_List_iterator@V?$_List_val@PAV?$Goal@VAbstRaven_Bot@@@@V?$allocator@PAV?$Goal@VAbstRaven_Bot@@@@@std@@@std@@@2@V?$_List_const_iterator@V?$_List_val@PAV?$Goal@VAbstRaven_Bot@@@@V?$allocator@PAV?$Goal@VAbstRaven_Bot@@@@@std@@@std@@@2@@Z$0
	DD	01H
	DD	FLAT:__unwindfunclet$?erase@?$list@PAV?$Goal@VAbstRaven_Bot@@@@V?$allocator@PAV?$Goal@VAbstRaven_Bot@@@@@std@@@std@@QAE?AV?$_List_iterator@V?$_List_val@PAV?$Goal@VAbstRaven_Bot@@@@V?$allocator@PAV?$Goal@VAbstRaven_Bot@@@@@std@@@std@@@2@V?$_List_const_iterator@V?$_List_val@PAV?$Goal@VAbstRaven_Bot@@@@V?$allocator@PAV?$Goal@VAbstRaven_Bot@@@@@std@@@std@@@2@@Z$1
__ehfuncinfo$?erase@?$list@PAV?$Goal@VAbstRaven_Bot@@@@V?$allocator@PAV?$Goal@VAbstRaven_Bot@@@@@std@@@std@@QAE?AV?$_List_iterator@V?$_List_val@PAV?$Goal@VAbstRaven_Bot@@@@V?$allocator@PAV?$Goal@VAbstRaven_Bot@@@@@std@@@std@@@2@V?$_List_const_iterator@V?$_List_val@PAV?$Goal@VAbstRaven_Bot@@@@V?$allocator@PAV?$Goal@VAbstRaven_Bot@@@@@std@@@std@@@2@@Z DD 019930522H
	DD	03H
	DD	FLAT:__unwindtable$?erase@?$list@PAV?$Goal@VAbstRaven_Bot@@@@V?$allocator@PAV?$Goal@VAbstRaven_Bot@@@@@std@@@std@@QAE?AV?$_List_iterator@V?$_List_val@PAV?$Goal@VAbstRaven_Bot@@@@V?$allocator@PAV?$Goal@VAbstRaven_Bot@@@@@std@@@std@@@2@V?$_List_const_iterator@V?$_List_val@PAV?$Goal@VAbstRaven_Bot@@@@V?$allocator@PAV?$Goal@VAbstRaven_Bot@@@@@std@@@std@@@2@@Z
	DD	2 DUP(00H)
	DD	2 DUP(00H)
	DD	00H
	DD	01H
; Function compile flags: /Odtp /RTCsu
xdata$x	ENDS
;	COMDAT ?erase@?$list@PAV?$Goal@VAbstRaven_Bot@@@@V?$allocator@PAV?$Goal@VAbstRaven_Bot@@@@@std@@@std@@QAE?AV?$_List_iterator@V?$_List_val@PAV?$Goal@VAbstRaven_Bot@@@@V?$allocator@PAV?$Goal@VAbstRaven_Bot@@@@@std@@@std@@@2@V?$_List_const_iterator@V?$_List_val@PAV?$Goal@VAbstRaven_Bot@@@@V?$allocator@PAV?$Goal@VAbstRaven_Bot@@@@@std@@@std@@@2@@Z
_TEXT	SEGMENT
tv200 = -56						; size = 4
tv199 = -52						; size = 4
tv197 = -48						; size = 4
tv206 = -44						; size = 4
$T153423 = -40						; size = 4
$T153418 = -36						; size = 4
$T153417 = -32						; size = 12
__Pnode$ = -20						; size = 4
_this$ = -16						; size = 4
__$EHRec$ = -12						; size = 12
___$ReturnUdt$ = 8					; size = 4
__Where$ = 12						; size = 12
?erase@?$list@PAV?$Goal@VAbstRaven_Bot@@@@V?$allocator@PAV?$Goal@VAbstRaven_Bot@@@@@std@@@std@@QAE?AV?$_List_iterator@V?$_List_val@PAV?$Goal@VAbstRaven_Bot@@@@V?$allocator@PAV?$Goal@VAbstRaven_Bot@@@@@std@@@std@@@2@V?$_List_const_iterator@V?$_List_val@PAV?$Goal@VAbstRaven_Bot@@@@V?$allocator@PAV?$Goal@VAbstRaven_Bot@@@@@std@@@std@@@2@@Z PROC ; std::list<Goal<AbstRaven_Bot> *,std::allocator<Goal<AbstRaven_Bot> *> >::erase, COMDAT
; _this$ = ecx

; 1054 : 		{	// erase element at _Where

	push	ebp
	mov	ebp, esp
	push	-1
	push	__ehhandler$?erase@?$list@PAV?$Goal@VAbstRaven_Bot@@@@V?$allocator@PAV?$Goal@VAbstRaven_Bot@@@@@std@@@std@@QAE?AV?$_List_iterator@V?$_List_val@PAV?$Goal@VAbstRaven_Bot@@@@V?$allocator@PAV?$Goal@VAbstRaven_Bot@@@@@std@@@std@@@2@V?$_List_const_iterator@V?$_List_val@PAV?$Goal@VAbstRaven_Bot@@@@V?$allocator@PAV?$Goal@VAbstRaven_Bot@@@@@std@@@std@@@2@@Z
	mov	eax, DWORD PTR fs:0
	push	eax
	sub	esp, 44					; 0000002cH
	push	esi
	push	edi
	push	ecx
	lea	edi, DWORD PTR [ebp-56]
	mov	ecx, 11					; 0000000bH
	mov	eax, -858993460				; ccccccccH
	rep stosd
	pop	ecx
	mov	eax, DWORD PTR ___security_cookie
	xor	eax, ebp
	push	eax
	lea	eax, DWORD PTR __$EHRec$[ebp]
	mov	DWORD PTR fs:0, eax
	mov	DWORD PTR _this$[ebp], ecx
	mov	DWORD PTR $T153423[ebp], 0
	mov	DWORD PTR __$EHRec$[ebp+8], 1

; 1055 :  #if _ITERATOR_DEBUG_LEVEL == 2
; 1056 : 		if (_Where._Getcont() != this || _Where._Ptr == this->_Myhead)

	lea	ecx, DWORD PTR __Where$[ebp]
	call	?_Getcont@_Iterator_base12@std@@QBEPBU_Container_base12@2@XZ ; std::_Iterator_base12::_Getcont
	cmp	eax, DWORD PTR _this$[ebp]
	jne	SHORT $LN2@erase
	mov	eax, DWORD PTR _this$[ebp]
	mov	ecx, DWORD PTR __Where$[ebp+8]
	cmp	ecx, DWORD PTR [eax+4]
	jne	SHORT $LN3@erase
$LN2@erase:

; 1057 : 			_DEBUG_ERROR("list erase iterator outside range");

	push	1057					; 00000421H
	push	OFFSET ??_C@_1II@KCMIDAEO@?$AAc?$AA?3?$AA?2?$AAP?$AAr?$AAo?$AAg?$AAr?$AAa?$AAm?$AA?5?$AAF?$AAi?$AAl?$AAe?$AAs?$AA?5?$AA?$CI?$AAx?$AA8?$AA6?$AA?$CJ?$AA?2?$AAM?$AAi?$AAc?$AAr?$AAo?$AAs?$AAo?$AAf?$AAt@
	push	OFFSET ??_C@_1EE@BBMFLDOC@?$AAl?$AAi?$AAs?$AAt?$AA?5?$AAe?$AAr?$AAa?$AAs?$AAe?$AA?5?$AAi?$AAt?$AAe?$AAr?$AAa?$AAt?$AAo?$AAr?$AA?5?$AAo?$AAu?$AAt?$AAs?$AAi?$AAd?$AAe?$AA?5?$AAr?$AAa?$AAn?$AAg@
	call	?_Debug_message@std@@YAXPB_W0I@Z	; std::_Debug_message
	add	esp, 12					; 0000000cH
$LN3@erase:

; 1058 : 		_Nodeptr _Pnode = (_Where++)._Mynode();

	push	0
	lea	edx, DWORD PTR $T153417[ebp]
	push	edx
	lea	ecx, DWORD PTR __Where$[ebp]
	call	??E?$_List_const_iterator@V?$_List_val@PAV?$Goal@VAbstRaven_Bot@@@@V?$allocator@PAV?$Goal@VAbstRaven_Bot@@@@@std@@@std@@@std@@QAE?AV01@H@Z ; std::_List_const_iterator<std::_List_val<Goal<AbstRaven_Bot> *,std::allocator<Goal<AbstRaven_Bot> *> > >::operator++
	mov	DWORD PTR tv206[ebp], eax
	mov	eax, DWORD PTR tv206[ebp]
	mov	DWORD PTR tv197[ebp], eax
	mov	BYTE PTR __$EHRec$[ebp+8], 2
	mov	ecx, DWORD PTR tv197[ebp]
	call	?_Mynode@?$_List_unchecked_const_iterator@V?$_List_val@PAV?$Goal@VAbstRaven_Bot@@@@V?$allocator@PAV?$Goal@VAbstRaven_Bot@@@@@std@@@std@@U_Iterator_base12@2@@std@@QBEPAU_Node@?$_List_nod@PAV?$Goal@VAbstRaven_Bot@@@@V?$allocator@PAV?$Goal@VAbstRaven_Bot@@@@@std@@@2@XZ ; std::_List_unchecked_const_iterator<std::_List_val<Goal<AbstRaven_Bot> *,std::allocator<Goal<AbstRaven_Bot> *> >,std::_Iterator_base12>::_Mynode
	mov	DWORD PTR __Pnode$[ebp], eax
	mov	BYTE PTR __$EHRec$[ebp+8], 1
	lea	ecx, DWORD PTR $T153417[ebp]
	call	??1?$_List_const_iterator@V?$_List_val@PAV?$Goal@VAbstRaven_Bot@@@@V?$allocator@PAV?$Goal@VAbstRaven_Bot@@@@@std@@@std@@@std@@QAE@XZ

; 1059 : 		_Orphan_ptr(*this, _Pnode);

	mov	ecx, DWORD PTR __Pnode$[ebp]
	push	ecx
	mov	edx, DWORD PTR _this$[ebp]
	push	edx
	mov	ecx, DWORD PTR _this$[ebp]
	call	?_Orphan_ptr@?$list@PAV?$Goal@VAbstRaven_Bot@@@@V?$allocator@PAV?$Goal@VAbstRaven_Bot@@@@@std@@@std@@QBEXAAV12@PAU_Node@?$_List_nod@PAV?$Goal@VAbstRaven_Bot@@@@V?$allocator@PAV?$Goal@VAbstRaven_Bot@@@@@std@@@2@@Z ; std::list<Goal<AbstRaven_Bot> *,std::allocator<Goal<AbstRaven_Bot> *> >::_Orphan_ptr

; 1060 : 
; 1061 :  #else /* _ITERATOR_DEBUG_LEVEL == 2 */
; 1062 : 		_Nodeptr _Pnode = (_Where++)._Mynode();
; 1063 :  #endif /* _ITERATOR_DEBUG_LEVEL == 2 */
; 1064 : 
; 1065 : 		if (_Pnode != this->_Myhead)

	mov	eax, DWORD PTR _this$[ebp]
	mov	ecx, DWORD PTR __Pnode$[ebp]
	cmp	ecx, DWORD PTR [eax+4]
	je	$LN1@erase

; 1066 : 			{	// not list head, safe to erase
; 1067 : 			this->_Nextnode(this->_Prevnode(_Pnode)) =
; 1068 : 				this->_Nextnode(_Pnode);

	mov	edx, DWORD PTR __Pnode$[ebp]
	push	edx
	call	?_Nextnode@?$_List_val@PAV?$Goal@VAbstRaven_Bot@@@@V?$allocator@PAV?$Goal@VAbstRaven_Bot@@@@@std@@@std@@SAAAPAU_Node@?$_List_nod@PAV?$Goal@VAbstRaven_Bot@@@@V?$allocator@PAV?$Goal@VAbstRaven_Bot@@@@@std@@@2@PAU342@@Z ; std::_List_val<Goal<AbstRaven_Bot> *,std::allocator<Goal<AbstRaven_Bot> *> >::_Nextnode
	add	esp, 4
	mov	esi, eax
	mov	eax, DWORD PTR __Pnode$[ebp]
	push	eax
	call	?_Prevnode@?$_List_val@PAV?$Goal@VAbstRaven_Bot@@@@V?$allocator@PAV?$Goal@VAbstRaven_Bot@@@@@std@@@std@@SAAAPAU_Node@?$_List_nod@PAV?$Goal@VAbstRaven_Bot@@@@V?$allocator@PAV?$Goal@VAbstRaven_Bot@@@@@std@@@2@PAU342@@Z ; std::_List_val<Goal<AbstRaven_Bot> *,std::allocator<Goal<AbstRaven_Bot> *> >::_Prevnode
	add	esp, 4
	mov	ecx, DWORD PTR [eax]
	push	ecx
	call	?_Nextnode@?$_List_val@PAV?$Goal@VAbstRaven_Bot@@@@V?$allocator@PAV?$Goal@VAbstRaven_Bot@@@@@std@@@std@@SAAAPAU_Node@?$_List_nod@PAV?$Goal@VAbstRaven_Bot@@@@V?$allocator@PAV?$Goal@VAbstRaven_Bot@@@@@std@@@2@PAU342@@Z ; std::_List_val<Goal<AbstRaven_Bot> *,std::allocator<Goal<AbstRaven_Bot> *> >::_Nextnode
	add	esp, 4
	mov	edx, DWORD PTR [esi]
	mov	DWORD PTR [eax], edx

; 1069 : 			this->_Prevnode(this->_Nextnode(_Pnode)) =
; 1070 : 				this->_Prevnode(_Pnode);

	mov	eax, DWORD PTR __Pnode$[ebp]
	push	eax
	call	?_Prevnode@?$_List_val@PAV?$Goal@VAbstRaven_Bot@@@@V?$allocator@PAV?$Goal@VAbstRaven_Bot@@@@@std@@@std@@SAAAPAU_Node@?$_List_nod@PAV?$Goal@VAbstRaven_Bot@@@@V?$allocator@PAV?$Goal@VAbstRaven_Bot@@@@@std@@@2@PAU342@@Z ; std::_List_val<Goal<AbstRaven_Bot> *,std::allocator<Goal<AbstRaven_Bot> *> >::_Prevnode
	add	esp, 4
	mov	esi, eax
	mov	ecx, DWORD PTR __Pnode$[ebp]
	push	ecx
	call	?_Nextnode@?$_List_val@PAV?$Goal@VAbstRaven_Bot@@@@V?$allocator@PAV?$Goal@VAbstRaven_Bot@@@@@std@@@std@@SAAAPAU_Node@?$_List_nod@PAV?$Goal@VAbstRaven_Bot@@@@V?$allocator@PAV?$Goal@VAbstRaven_Bot@@@@@std@@@2@PAU342@@Z ; std::_List_val<Goal<AbstRaven_Bot> *,std::allocator<Goal<AbstRaven_Bot> *> >::_Nextnode
	add	esp, 4
	mov	edx, DWORD PTR [eax]
	push	edx
	call	?_Prevnode@?$_List_val@PAV?$Goal@VAbstRaven_Bot@@@@V?$allocator@PAV?$Goal@VAbstRaven_Bot@@@@@std@@@std@@SAAAPAU_Node@?$_List_nod@PAV?$Goal@VAbstRaven_Bot@@@@V?$allocator@PAV?$Goal@VAbstRaven_Bot@@@@@std@@@2@PAU342@@Z ; std::_List_val<Goal<AbstRaven_Bot> *,std::allocator<Goal<AbstRaven_Bot> *> >::_Prevnode
	add	esp, 4
	mov	ecx, DWORD PTR [esi]
	mov	DWORD PTR [eax], ecx

; 1071 : 
; 1072 : 			_Dest_val(this->_Alnod, _Pnode);

	mov	edx, DWORD PTR __Pnode$[ebp]
	push	edx
	mov	eax, DWORD PTR _this$[ebp]
	add	eax, 12					; 0000000cH
	push	eax
	call	??$_Dest_val@V?$allocator@U_Node@?$_List_nod@PAV?$Goal@VAbstRaven_Bot@@@@V?$allocator@PAV?$Goal@VAbstRaven_Bot@@@@@std@@@std@@@std@@U_Node@?$_List_nod@PAV?$Goal@VAbstRaven_Bot@@@@V?$allocator@PAV?$Goal@VAbstRaven_Bot@@@@@std@@@2@@std@@YAXAAV?$allocator@U_Node@?$_List_nod@PAV?$Goal@VAbstRaven_Bot@@@@V?$allocator@PAV?$Goal@VAbstRaven_Bot@@@@@std@@@std@@@0@PAU_Node@?$_List_nod@PAV?$Goal@VAbstRaven_Bot@@@@V?$allocator@PAV?$Goal@VAbstRaven_Bot@@@@@std@@@0@@Z ; std::_Dest_val<std::allocator<std::_List_nod<Goal<AbstRaven_Bot> *,std::allocator<Goal<AbstRaven_Bot> *> >::_Node>,std::_List_nod<Goal<AbstRaven_Bot> *,std::allocator<Goal<AbstRaven_Bot> *> >::_Node>
	add	esp, 8

; 1073 : 			this->_Alnod.deallocate(_Pnode, 1);

	push	1
	mov	ecx, DWORD PTR __Pnode$[ebp]
	push	ecx
	mov	ecx, DWORD PTR _this$[ebp]
	add	ecx, 12					; 0000000cH
	call	?deallocate@?$allocator@U_Node@?$_List_nod@PAV?$Goal@VAbstRaven_Bot@@@@V?$allocator@PAV?$Goal@VAbstRaven_Bot@@@@@std@@@std@@@std@@QAEXPAU_Node@?$_List_nod@PAV?$Goal@VAbstRaven_Bot@@@@V?$allocator@PAV?$Goal@VAbstRaven_Bot@@@@@std@@@2@I@Z ; std::allocator<std::_List_nod<Goal<AbstRaven_Bot> *,std::allocator<Goal<AbstRaven_Bot> *> >::_Node>::deallocate

; 1074 : 
; 1075 : 			--this->_Mysize;

	mov	edx, DWORD PTR _this$[ebp]
	mov	eax, DWORD PTR [edx+8]
	sub	eax, 1
	mov	ecx, DWORD PTR _this$[ebp]
	mov	DWORD PTR [ecx+8], eax
$LN1@erase:

; 1076 : 			}
; 1077 : 		return (_Make_iter(_Where));

	sub	esp, 12					; 0000000cH
	mov	ecx, esp
	mov	DWORD PTR $T153418[ebp], esp
	lea	edx, DWORD PTR __Where$[ebp]
	push	edx
	call	??0?$_List_const_iterator@V?$_List_val@PAV?$Goal@VAbstRaven_Bot@@@@V?$allocator@PAV?$Goal@VAbstRaven_Bot@@@@@std@@@std@@@std@@QAE@ABV01@@Z
	mov	DWORD PTR tv199[ebp], eax
	mov	eax, DWORD PTR ___$ReturnUdt$[ebp]
	push	eax
	mov	ecx, DWORD PTR _this$[ebp]
	call	?_Make_iter@?$list@PAV?$Goal@VAbstRaven_Bot@@@@V?$allocator@PAV?$Goal@VAbstRaven_Bot@@@@@std@@@std@@QBE?AV?$_List_iterator@V?$_List_val@PAV?$Goal@VAbstRaven_Bot@@@@V?$allocator@PAV?$Goal@VAbstRaven_Bot@@@@@std@@@std@@@2@V?$_List_const_iterator@V?$_List_val@PAV?$Goal@VAbstRaven_Bot@@@@V?$allocator@PAV?$Goal@VAbstRaven_Bot@@@@@std@@@std@@@2@@Z ; std::list<Goal<AbstRaven_Bot> *,std::allocator<Goal<AbstRaven_Bot> *> >::_Make_iter
	mov	DWORD PTR tv200[ebp], eax
	mov	ecx, DWORD PTR $T153423[ebp]
	or	ecx, 1
	mov	DWORD PTR $T153423[ebp], ecx
	mov	BYTE PTR __$EHRec$[ebp+8], 0
	lea	ecx, DWORD PTR __Where$[ebp]
	call	??1?$_List_const_iterator@V?$_List_val@PAV?$Goal@VAbstRaven_Bot@@@@V?$allocator@PAV?$Goal@VAbstRaven_Bot@@@@@std@@@std@@@std@@QAE@XZ
	mov	eax, DWORD PTR ___$ReturnUdt$[ebp]

; 1078 : 		}

	mov	ecx, DWORD PTR __$EHRec$[ebp]
	mov	DWORD PTR fs:0, ecx
	pop	ecx
	pop	edi
	pop	esi
	add	esp, 56					; 00000038H
	cmp	ebp, esp
	call	__RTC_CheckEsp
	mov	esp, ebp
	pop	ebp
	ret	16					; 00000010H
_TEXT	ENDS
;	COMDAT text$x
text$x	SEGMENT
__unwindfunclet$?erase@?$list@PAV?$Goal@VAbstRaven_Bot@@@@V?$allocator@PAV?$Goal@VAbstRaven_Bot@@@@@std@@@std@@QAE?AV?$_List_iterator@V?$_List_val@PAV?$Goal@VAbstRaven_Bot@@@@V?$allocator@PAV?$Goal@VAbstRaven_Bot@@@@@std@@@std@@@2@V?$_List_const_iterator@V?$_List_val@PAV?$Goal@VAbstRaven_Bot@@@@V?$allocator@PAV?$Goal@VAbstRaven_Bot@@@@@std@@@std@@@2@@Z$0:
	lea	ecx, DWORD PTR __Where$[ebp]
	jmp	??1?$_List_const_iterator@V?$_List_val@PAV?$Goal@VAbstRaven_Bot@@@@V?$allocator@PAV?$Goal@VAbstRaven_Bot@@@@@std@@@std@@@std@@QAE@XZ
__unwindfunclet$?erase@?$list@PAV?$Goal@VAbstRaven_Bot@@@@V?$allocator@PAV?$Goal@VAbstRaven_Bot@@@@@std@@@std@@QAE?AV?$_List_iterator@V?$_List_val@PAV?$Goal@VAbstRaven_Bot@@@@V?$allocator@PAV?$Goal@VAbstRaven_Bot@@@@@std@@@std@@@2@V?$_List_const_iterator@V?$_List_val@PAV?$Goal@VAbstRaven_Bot@@@@V?$allocator@PAV?$Goal@VAbstRaven_Bot@@@@@std@@@std@@@2@@Z$1:
	lea	ecx, DWORD PTR $T153417[ebp]
	jmp	??1?$_List_const_iterator@V?$_List_val@PAV?$Goal@VAbstRaven_Bot@@@@V?$allocator@PAV?$Goal@VAbstRaven_Bot@@@@@std@@@std@@@std@@QAE@XZ
__unwindfunclet$?erase@?$list@PAV?$Goal@VAbstRaven_Bot@@@@V?$allocator@PAV?$Goal@VAbstRaven_Bot@@@@@std@@@std@@QAE?AV?$_List_iterator@V?$_List_val@PAV?$Goal@VAbstRaven_Bot@@@@V?$allocator@PAV?$Goal@VAbstRaven_Bot@@@@@std@@@std@@@2@V?$_List_const_iterator@V?$_List_val@PAV?$Goal@VAbstRaven_Bot@@@@V?$allocator@PAV?$Goal@VAbstRaven_Bot@@@@@std@@@std@@@2@@Z$3:
	mov	eax, DWORD PTR $T153423[ebp]
	and	eax, 1
	je	$LN10@erase
	and	DWORD PTR $T153423[ebp], -2		; fffffffeH
	mov	ecx, DWORD PTR ___$ReturnUdt$[ebp]
	jmp	??1?$_List_iterator@V?$_List_val@PAV?$Goal@VAbstRaven_Bot@@@@V?$allocator@PAV?$Goal@VAbstRaven_Bot@@@@@std@@@std@@@std@@QAE@XZ
$LN10@erase:
	ret	0
__ehhandler$?erase@?$list@PAV?$Goal@VAbstRaven_Bot@@@@V?$allocator@PAV?$Goal@VAbstRaven_Bot@@@@@std@@@std@@QAE?AV?$_List_iterator@V?$_List_val@PAV?$Goal@VAbstRaven_Bot@@@@V?$allocator@PAV?$Goal@VAbstRaven_Bot@@@@@std@@@std@@@2@V?$_List_const_iterator@V?$_List_val@PAV?$Goal@VAbstRaven_Bot@@@@V?$allocator@PAV?$Goal@VAbstRaven_Bot@@@@@std@@@std@@@2@@Z:
	mov	edx, DWORD PTR [esp+8]
	lea	eax, DWORD PTR [edx+12]
	mov	ecx, DWORD PTR [edx-56]
	xor	ecx, eax
	call	@__security_check_cookie@4
	mov	eax, OFFSET __ehfuncinfo$?erase@?$list@PAV?$Goal@VAbstRaven_Bot@@@@V?$allocator@PAV?$Goal@VAbstRaven_Bot@@@@@std@@@std@@QAE?AV?$_List_iterator@V?$_List_val@PAV?$Goal@VAbstRaven_Bot@@@@V?$allocator@PAV?$Goal@VAbstRaven_Bot@@@@@std@@@std@@@2@V?$_List_const_iterator@V?$_List_val@PAV?$Goal@VAbstRaven_Bot@@@@V?$allocator@PAV?$Goal@VAbstRaven_Bot@@@@@std@@@std@@@2@@Z
	jmp	___CxxFrameHandler3
text$x	ENDS
?erase@?$list@PAV?$Goal@VAbstRaven_Bot@@@@V?$allocator@PAV?$Goal@VAbstRaven_Bot@@@@@std@@@std@@QAE?AV?$_List_iterator@V?$_List_val@PAV?$Goal@VAbstRaven_Bot@@@@V?$allocator@PAV?$Goal@VAbstRaven_Bot@@@@@std@@@std@@@2@V?$_List_const_iterator@V?$_List_val@PAV?$Goal@VAbstRaven_Bot@@@@V?$allocator@PAV?$Goal@VAbstRaven_Bot@@@@@std@@@std@@@2@@Z ENDP ; std::list<Goal<AbstRaven_Bot> *,std::allocator<Goal<AbstRaven_Bot> *> >::erase
; Function compile flags: /Odtp /RTCsu
; File c:\program files (x86)\microsoft visual studio 10.0\vc\include\xutility
;	COMDAT ?_Getcont@_Iterator_base12@std@@QBEPBU_Container_base12@2@XZ
_TEXT	SEGMENT
tv66 = -8						; size = 4
_this$ = -4						; size = 4
?_Getcont@_Iterator_base12@std@@QBEPBU_Container_base12@2@XZ PROC ; std::_Iterator_base12::_Getcont, COMDAT
; _this$ = ecx

; 174  : 		{	// get owning container

	push	ebp
	mov	ebp, esp
	sub	esp, 8
	mov	DWORD PTR [ebp-8], -858993460		; ccccccccH
	mov	DWORD PTR [ebp-4], -858993460		; ccccccccH
	mov	DWORD PTR _this$[ebp], ecx

; 175  : 		return (_Myproxy == 0 ? 0 : _Myproxy->_Mycont);

	mov	eax, DWORD PTR _this$[ebp]
	cmp	DWORD PTR [eax], 0
	jne	SHORT $LN3@Getcont
	mov	DWORD PTR tv66[ebp], 0
	jmp	SHORT $LN4@Getcont
$LN3@Getcont:
	mov	ecx, DWORD PTR _this$[ebp]
	mov	edx, DWORD PTR [ecx]
	mov	eax, DWORD PTR [edx]
	mov	DWORD PTR tv66[ebp], eax
$LN4@Getcont:
	mov	eax, DWORD PTR tv66[ebp]

; 176  : 		}

	mov	esp, ebp
	pop	ebp
	ret	0
?_Getcont@_Iterator_base12@std@@QBEPBU_Container_base12@2@XZ ENDP ; std::_Iterator_base12::_Getcont
_TEXT	ENDS
PUBLIC	?_Myval@?$_List_val@PAV?$Goal@VAbstRaven_Bot@@@@V?$allocator@PAV?$Goal@VAbstRaven_Bot@@@@@std@@@std@@SAAAPAV?$Goal@VAbstRaven_Bot@@@@PAU_Node@?$_List_nod@PAV?$Goal@VAbstRaven_Bot@@@@V?$allocator@PAV?$Goal@VAbstRaven_Bot@@@@@std@@@2@@Z ; std::_List_val<Goal<AbstRaven_Bot> *,std::allocator<Goal<AbstRaven_Bot> *> >::_Myval
PUBLIC	??_C@_1BO@MEPPHOO@?$AA?$CC?$AAo?$AAu?$AAt?$AA?5?$AAo?$AAf?$AA?5?$AAr?$AAa?$AAn?$AAg?$AAe?$AA?$CC?$AA?$AA@ ; `string'
PUBLIC	??_C@_1BDC@BCBLFNGO@?$AAs?$AAt?$AAd?$AA?3?$AA?3?$AA_?$AAL?$AAi?$AAs?$AAt?$AA_?$AAc?$AAo?$AAn?$AAs?$AAt?$AA_?$AAi?$AAt?$AAe?$AAr?$AAa?$AAt?$AAo?$AAr?$AA?$DM?$AAc?$AAl?$AAa?$AAs?$AAs?$AA?5@ ; `string'
PUBLIC	??_C@_1FG@IBPIFFN@?$AA?$CC?$AAS?$AAt?$AAa?$AAn?$AAd?$AAa?$AAr?$AAd?$AA?5?$AAC?$AA?$CL?$AA?$CL?$AA?5?$AAL?$AAi?$AAb?$AAr?$AAa?$AAr?$AAi?$AAe?$AAs?$AA?5?$AAO?$AAu?$AAt?$AA?5?$AAo?$AAf?$AA?5?$AAR@ ; `string'
PUBLIC	??_C@_0CE@OFMIGAMM@Standard?5C?$CL?$CL?5Libraries?5Out?5of?5Ra@ ; `string'
PUBLIC	??_C@_1EC@HILJLMMC@?$AAl?$AAi?$AAs?$AAt?$AA?5?$AAi?$AAt?$AAe?$AAr?$AAa?$AAt?$AAo?$AAr?$AA?5?$AAn?$AAo?$AAt?$AA?5?$AAd?$AAe?$AAr?$AAe?$AAf?$AAe?$AAr?$AAe?$AAn?$AAc?$AAa?$AAb?$AAl?$AAe@ ; `string'
EXTRN	__invalid_parameter:PROC
EXTRN	__CrtDbgReportW:PROC
;	COMDAT ??_C@_1BO@MEPPHOO@?$AA?$CC?$AAo?$AAu?$AAt?$AA?5?$AAo?$AAf?$AA?5?$AAr?$AAa?$AAn?$AAg?$AAe?$AA?$CC?$AA?$AA@
; File c:\program files (x86)\microsoft visual studio 10.0\vc\include\list
CONST	SEGMENT
??_C@_1BO@MEPPHOO@?$AA?$CC?$AAo?$AAu?$AAt?$AA?5?$AAo?$AAf?$AA?5?$AAr?$AAa?$AAn?$AAg?$AAe?$AA?$CC?$AA?$AA@ DB '"'
	DB	00H, 'o', 00H, 'u', 00H, 't', 00H, ' ', 00H, 'o', 00H, 'f', 00H
	DB	' ', 00H, 'r', 00H, 'a', 00H, 'n', 00H, 'g', 00H, 'e', 00H, '"'
	DB	00H, 00H, 00H				; `string'
CONST	ENDS
;	COMDAT ??_C@_1BDC@BCBLFNGO@?$AAs?$AAt?$AAd?$AA?3?$AA?3?$AA_?$AAL?$AAi?$AAs?$AAt?$AA_?$AAc?$AAo?$AAn?$AAs?$AAt?$AA_?$AAi?$AAt?$AAe?$AAr?$AAa?$AAt?$AAo?$AAr?$AA?$DM?$AAc?$AAl?$AAa?$AAs?$AAs?$AA?5@
CONST	SEGMENT
??_C@_1BDC@BCBLFNGO@?$AAs?$AAt?$AAd?$AA?3?$AA?3?$AA_?$AAL?$AAi?$AAs?$AAt?$AA_?$AAc?$AAo?$AAn?$AAs?$AAt?$AA_?$AAi?$AAt?$AAe?$AAr?$AAa?$AAt?$AAo?$AAr?$AA?$DM?$AAc?$AAl?$AAa?$AAs?$AAs?$AA?5@ DB 's'
	DB	00H, 't', 00H, 'd', 00H, ':', 00H, ':', 00H, '_', 00H, 'L', 00H
	DB	'i', 00H, 's', 00H, 't', 00H, '_', 00H, 'c', 00H, 'o', 00H, 'n'
	DB	00H, 's', 00H, 't', 00H, '_', 00H, 'i', 00H, 't', 00H, 'e', 00H
	DB	'r', 00H, 'a', 00H, 't', 00H, 'o', 00H, 'r', 00H, '<', 00H, 'c'
	DB	00H, 'l', 00H, 'a', 00H, 's', 00H, 's', 00H, ' ', 00H, 's', 00H
	DB	't', 00H, 'd', 00H, ':', 00H, ':', 00H, '_', 00H, 'L', 00H, 'i'
	DB	00H, 's', 00H, 't', 00H, '_', 00H, 'v', 00H, 'a', 00H, 'l', 00H
	DB	'<', 00H, 'c', 00H, 'l', 00H, 'a', 00H, 's', 00H, 's', 00H, ' '
	DB	00H, 'G', 00H, 'o', 00H, 'a', 00H, 'l', 00H, '<', 00H, 'c', 00H
	DB	'l', 00H, 'a', 00H, 's', 00H, 's', 00H, ' ', 00H, 'A', 00H, 'b'
	DB	00H, 's', 00H, 't', 00H, 'R', 00H, 'a', 00H, 'v', 00H, 'e', 00H
	DB	'n', 00H, '_', 00H, 'B', 00H, 'o', 00H, 't', 00H, '>', 00H, ' '
	DB	00H, '*', 00H, ',', 00H, 'c', 00H, 'l', 00H, 'a', 00H, 's', 00H
	DB	's', 00H, ' ', 00H, 's', 00H, 't', 00H, 'd', 00H, ':', 00H, ':'
	DB	00H, 'a', 00H, 'l', 00H, 'l', 00H, 'o', 00H, 'c', 00H, 'a', 00H
	DB	't', 00H, 'o', 00H, 'r', 00H, '<', 00H, 'c', 00H, 'l', 00H, 'a'
	DB	00H, 's', 00H, 's', 00H, ' ', 00H, 'G', 00H, 'o', 00H, 'a', 00H
	DB	'l', 00H, '<', 00H, 'c', 00H, 'l', 00H, 'a', 00H, 's', 00H, 's'
	DB	00H, ' ', 00H, 'A', 00H, 'b', 00H, 's', 00H, 't', 00H, 'R', 00H
	DB	'a', 00H, 'v', 00H, 'e', 00H, 'n', 00H, '_', 00H, 'B', 00H, 'o'
	DB	00H, 't', 00H, '>', 00H, ' ', 00H, '*', 00H, '>', 00H, ' ', 00H
	DB	'>', 00H, ' ', 00H, '>', 00H, ':', 00H, ':', 00H, 'o', 00H, 'p'
	DB	00H, 'e', 00H, 'r', 00H, 'a', 00H, 't', 00H, 'o', 00H, 'r', 00H
	DB	' ', 00H, '*', 00H, 00H, 00H			; `string'
CONST	ENDS
;	COMDAT ??_C@_1FG@IBPIFFN@?$AA?$CC?$AAS?$AAt?$AAa?$AAn?$AAd?$AAa?$AAr?$AAd?$AA?5?$AAC?$AA?$CL?$AA?$CL?$AA?5?$AAL?$AAi?$AAb?$AAr?$AAa?$AAr?$AAi?$AAe?$AAs?$AA?5?$AAO?$AAu?$AAt?$AA?5?$AAo?$AAf?$AA?5?$AAR@
CONST	SEGMENT
??_C@_1FG@IBPIFFN@?$AA?$CC?$AAS?$AAt?$AAa?$AAn?$AAd?$AAa?$AAr?$AAd?$AA?5?$AAC?$AA?$CL?$AA?$CL?$AA?5?$AAL?$AAi?$AAb?$AAr?$AAa?$AAr?$AAi?$AAe?$AAs?$AA?5?$AAO?$AAu?$AAt?$AA?5?$AAo?$AAf?$AA?5?$AAR@ DB '"'
	DB	00H, 'S', 00H, 't', 00H, 'a', 00H, 'n', 00H, 'd', 00H, 'a', 00H
	DB	'r', 00H, 'd', 00H, ' ', 00H, 'C', 00H, '+', 00H, '+', 00H, ' '
	DB	00H, 'L', 00H, 'i', 00H, 'b', 00H, 'r', 00H, 'a', 00H, 'r', 00H
	DB	'i', 00H, 'e', 00H, 's', 00H, ' ', 00H, 'O', 00H, 'u', 00H, 't'
	DB	00H, ' ', 00H, 'o', 00H, 'f', 00H, ' ', 00H, 'R', 00H, 'a', 00H
	DB	'n', 00H, 'g', 00H, 'e', 00H, '"', 00H, ' ', 00H, '&', 00H, '&'
	DB	00H, ' ', 00H, '0', 00H, 00H, 00H		; `string'
CONST	ENDS
;	COMDAT ??_C@_0CE@OFMIGAMM@Standard?5C?$CL?$CL?5Libraries?5Out?5of?5Ra@
CONST	SEGMENT
??_C@_0CE@OFMIGAMM@Standard?5C?$CL?$CL?5Libraries?5Out?5of?5Ra@ DB 'Stand'
	DB	'ard C++ Libraries Out of Range', 00H	; `string'
CONST	ENDS
;	COMDAT ??_C@_1EC@HILJLMMC@?$AAl?$AAi?$AAs?$AAt?$AA?5?$AAi?$AAt?$AAe?$AAr?$AAa?$AAt?$AAo?$AAr?$AA?5?$AAn?$AAo?$AAt?$AA?5?$AAd?$AAe?$AAr?$AAe?$AAf?$AAe?$AAr?$AAe?$AAn?$AAc?$AAa?$AAb?$AAl?$AAe@
CONST	SEGMENT
??_C@_1EC@HILJLMMC@?$AAl?$AAi?$AAs?$AAt?$AA?5?$AAi?$AAt?$AAe?$AAr?$AAa?$AAt?$AAo?$AAr?$AA?5?$AAn?$AAo?$AAt?$AA?5?$AAd?$AAe?$AAr?$AAe?$AAf?$AAe?$AAr?$AAe?$AAn?$AAc?$AAa?$AAb?$AAl?$AAe@ DB 'l'
	DB	00H, 'i', 00H, 's', 00H, 't', 00H, ' ', 00H, 'i', 00H, 't', 00H
	DB	'e', 00H, 'r', 00H, 'a', 00H, 't', 00H, 'o', 00H, 'r', 00H, ' '
	DB	00H, 'n', 00H, 'o', 00H, 't', 00H, ' ', 00H, 'd', 00H, 'e', 00H
	DB	'r', 00H, 'e', 00H, 'f', 00H, 'e', 00H, 'r', 00H, 'e', 00H, 'n'
	DB	00H, 'c', 00H, 'a', 00H, 'b', 00H, 'l', 00H, 'e', 00H, 00H, 00H ; `string'
; Function compile flags: /Odtp /RTCsu
CONST	ENDS
;	COMDAT ??D?$_List_const_iterator@V?$_List_val@PAV?$Goal@VAbstRaven_Bot@@@@V?$allocator@PAV?$Goal@VAbstRaven_Bot@@@@@std@@@std@@@std@@QBEABQAV?$Goal@VAbstRaven_Bot@@@@XZ
_TEXT	SEGMENT
_this$ = -4						; size = 4
??D?$_List_const_iterator@V?$_List_val@PAV?$Goal@VAbstRaven_Bot@@@@V?$allocator@PAV?$Goal@VAbstRaven_Bot@@@@@std@@@std@@@std@@QBEABQAV?$Goal@VAbstRaven_Bot@@@@XZ PROC ; std::_List_const_iterator<std::_List_val<Goal<AbstRaven_Bot> *,std::allocator<Goal<AbstRaven_Bot> *> > >::operator*, COMDAT
; _this$ = ecx

; 201  : 		{	// return designated value

	push	ebp
	mov	ebp, esp
	push	ecx
	mov	DWORD PTR [ebp-4], -858993460		; ccccccccH
	mov	DWORD PTR _this$[ebp], ecx

; 202  :  #if _ITERATOR_DEBUG_LEVEL == 2
; 203  : 		if (this->_Getcont() == 0
; 204  : 			|| this->_Ptr == 0
; 205  : 			|| this->_Ptr == ((_Mylist *)this->_Getcont())->_Myhead)

	mov	ecx, DWORD PTR _this$[ebp]
	call	?_Getcont@_Iterator_base12@std@@QBEPBU_Container_base12@2@XZ ; std::_Iterator_base12::_Getcont
	test	eax, eax
	je	SHORT $LN1@operator@2
	mov	eax, DWORD PTR _this$[ebp]
	cmp	DWORD PTR [eax+8], 0
	je	SHORT $LN1@operator@2
	mov	ecx, DWORD PTR _this$[ebp]
	call	?_Getcont@_Iterator_base12@std@@QBEPBU_Container_base12@2@XZ ; std::_Iterator_base12::_Getcont
	mov	ecx, DWORD PTR _this$[ebp]
	mov	edx, DWORD PTR [ecx+8]
	cmp	edx, DWORD PTR [eax+4]
	jne	SHORT $LN2@operator@2
$LN1@operator@2:

; 206  : 			{	// report error
; 207  : 			_DEBUG_ERROR("list iterator not dereferencable");

	push	207					; 000000cfH
	push	OFFSET ??_C@_1II@KCMIDAEO@?$AAc?$AA?3?$AA?2?$AAP?$AAr?$AAo?$AAg?$AAr?$AAa?$AAm?$AA?5?$AAF?$AAi?$AAl?$AAe?$AAs?$AA?5?$AA?$CI?$AAx?$AA8?$AA6?$AA?$CJ?$AA?2?$AAM?$AAi?$AAc?$AAr?$AAo?$AAs?$AAo?$AAf?$AAt@
	push	OFFSET ??_C@_1EC@HILJLMMC@?$AAl?$AAi?$AAs?$AAt?$AA?5?$AAi?$AAt?$AAe?$AAr?$AAa?$AAt?$AAo?$AAr?$AA?5?$AAn?$AAo?$AAt?$AA?5?$AAd?$AAe?$AAr?$AAe?$AAf?$AAe?$AAr?$AAe?$AAn?$AAc?$AAa?$AAb?$AAl?$AAe@
	call	?_Debug_message@std@@YAXPB_W0I@Z	; std::_Debug_message
	add	esp, 12					; 0000000cH

; 208  : 			_SCL_SECURE_OUT_OF_RANGE;

	mov	eax, OFFSET ??_C@_0CE@OFMIGAMM@Standard?5C?$CL?$CL?5Libraries?5Out?5of?5Ra@
	test	eax, eax
	je	SHORT $LN5@operator@2
	xor	ecx, ecx
	jne	SHORT $LN6@operator@2
$LN5@operator@2:
	push	OFFSET ??_C@_1FG@IBPIFFN@?$AA?$CC?$AAS?$AAt?$AAa?$AAn?$AAd?$AAa?$AAr?$AAd?$AA?5?$AAC?$AA?$CL?$AA?$CL?$AA?5?$AAL?$AAi?$AAb?$AAr?$AAa?$AAr?$AAi?$AAe?$AAs?$AA?5?$AAO?$AAu?$AAt?$AA?5?$AAo?$AAf?$AA?5?$AAR@
	push	0
	push	208					; 000000d0H
	push	OFFSET ??_C@_1II@KCMIDAEO@?$AAc?$AA?3?$AA?2?$AAP?$AAr?$AAo?$AAg?$AAr?$AAa?$AAm?$AA?5?$AAF?$AAi?$AAl?$AAe?$AAs?$AA?5?$AA?$CI?$AAx?$AA8?$AA6?$AA?$CJ?$AA?2?$AAM?$AAi?$AAc?$AAr?$AAo?$AAs?$AAo?$AAf?$AAt@
	push	2
	call	__CrtDbgReportW
	add	esp, 20					; 00000014H
	cmp	eax, 1
	jne	SHORT $LN6@operator@2
	int	3
$LN6@operator@2:
	push	0
	push	208					; 000000d0H
	push	OFFSET ??_C@_1II@KCMIDAEO@?$AAc?$AA?3?$AA?2?$AAP?$AAr?$AAo?$AAg?$AAr?$AAa?$AAm?$AA?5?$AAF?$AAi?$AAl?$AAe?$AAs?$AA?5?$AA?$CI?$AAx?$AA8?$AA6?$AA?$CJ?$AA?2?$AAM?$AAi?$AAc?$AAr?$AAo?$AAs?$AAo?$AAf?$AAt@
	push	OFFSET ??_C@_1BDC@BCBLFNGO@?$AAs?$AAt?$AAd?$AA?3?$AA?3?$AA_?$AAL?$AAi?$AAs?$AAt?$AA_?$AAc?$AAo?$AAn?$AAs?$AAt?$AA_?$AAi?$AAt?$AAe?$AAr?$AAa?$AAt?$AAo?$AAr?$AA?$DM?$AAc?$AAl?$AAa?$AAs?$AAs?$AA?5@
	push	OFFSET ??_C@_1BO@MEPPHOO@?$AA?$CC?$AAo?$AAu?$AAt?$AA?5?$AAo?$AAf?$AA?5?$AAr?$AAa?$AAn?$AAg?$AAe?$AA?$CC?$AA?$AA@
	call	__invalid_parameter
	add	esp, 20					; 00000014H
$LN2@operator@2:

; 209  : 			}
; 210  : 
; 211  :  #elif _ITERATOR_DEBUG_LEVEL == 1
; 212  : 		_SCL_SECURE_VALIDATE(this->_Getcont() != 0 && this->_Ptr != 0);
; 213  : 		_SCL_SECURE_VALIDATE_RANGE(this->_Ptr !=
; 214  : 			((_Mylist *)this->_Getcont())->_Myhead);
; 215  :  #endif /* _ITERATOR_DEBUG_LEVEL */
; 216  : 
; 217  : 		return (_Mylist::_Myval(this->_Ptr));

	mov	eax, DWORD PTR _this$[ebp]
	mov	ecx, DWORD PTR [eax+8]
	push	ecx
	call	?_Myval@?$_List_val@PAV?$Goal@VAbstRaven_Bot@@@@V?$allocator@PAV?$Goal@VAbstRaven_Bot@@@@@std@@@std@@SAAAPAV?$Goal@VAbstRaven_Bot@@@@PAU_Node@?$_List_nod@PAV?$Goal@VAbstRaven_Bot@@@@V?$allocator@PAV?$Goal@VAbstRaven_Bot@@@@@std@@@2@@Z ; std::_List_val<Goal<AbstRaven_Bot> *,std::allocator<Goal<AbstRaven_Bot> *> >::_Myval
	add	esp, 4

; 218  : 		}

	add	esp, 4
	cmp	ebp, esp
	call	__RTC_CheckEsp
	mov	esp, ebp
	pop	ebp
	ret	0
??D?$_List_const_iterator@V?$_List_val@PAV?$Goal@VAbstRaven_Bot@@@@V?$allocator@PAV?$Goal@VAbstRaven_Bot@@@@@std@@@std@@@std@@QBEABQAV?$Goal@VAbstRaven_Bot@@@@XZ ENDP ; std::_List_const_iterator<std::_List_val<Goal<AbstRaven_Bot> *,std::allocator<Goal<AbstRaven_Bot> *> > >::operator*
_TEXT	ENDS
PUBLIC	??_C@_1BDE@FCMLICOB@?$AAs?$AAt?$AAd?$AA?3?$AA?3?$AA_?$AAL?$AAi?$AAs?$AAt?$AA_?$AAc?$AAo?$AAn?$AAs?$AAt?$AA_?$AAi?$AAt?$AAe?$AAr?$AAa?$AAt?$AAo?$AAr?$AA?$DM?$AAc?$AAl?$AAa?$AAs?$AAs?$AA?5@ ; `string'
PUBLIC	??_C@_1EA@DOGAGKDH@?$AAl?$AAi?$AAs?$AAt?$AA?5?$AAi?$AAt?$AAe?$AAr?$AAa?$AAt?$AAo?$AAr?$AA?5?$AAn?$AAo?$AAt?$AA?5?$AAi?$AAn?$AAc?$AAr?$AAe?$AAm?$AAe?$AAn?$AAt?$AAa?$AAb?$AAl?$AAe?$AA?$AA@ ; `string'
;	COMDAT ??_C@_1BDE@FCMLICOB@?$AAs?$AAt?$AAd?$AA?3?$AA?3?$AA_?$AAL?$AAi?$AAs?$AAt?$AA_?$AAc?$AAo?$AAn?$AAs?$AAt?$AA_?$AAi?$AAt?$AAe?$AAr?$AAa?$AAt?$AAo?$AAr?$AA?$DM?$AAc?$AAl?$AAa?$AAs?$AAs?$AA?5@
CONST	SEGMENT
??_C@_1BDE@FCMLICOB@?$AAs?$AAt?$AAd?$AA?3?$AA?3?$AA_?$AAL?$AAi?$AAs?$AAt?$AA_?$AAc?$AAo?$AAn?$AAs?$AAt?$AA_?$AAi?$AAt?$AAe?$AAr?$AAa?$AAt?$AAo?$AAr?$AA?$DM?$AAc?$AAl?$AAa?$AAs?$AAs?$AA?5@ DB 's'
	DB	00H, 't', 00H, 'd', 00H, ':', 00H, ':', 00H, '_', 00H, 'L', 00H
	DB	'i', 00H, 's', 00H, 't', 00H, '_', 00H, 'c', 00H, 'o', 00H, 'n'
	DB	00H, 's', 00H, 't', 00H, '_', 00H, 'i', 00H, 't', 00H, 'e', 00H
	DB	'r', 00H, 'a', 00H, 't', 00H, 'o', 00H, 'r', 00H, '<', 00H, 'c'
	DB	00H, 'l', 00H, 'a', 00H, 's', 00H, 's', 00H, ' ', 00H, 's', 00H
	DB	't', 00H, 'd', 00H, ':', 00H, ':', 00H, '_', 00H, 'L', 00H, 'i'
	DB	00H, 's', 00H, 't', 00H, '_', 00H, 'v', 00H, 'a', 00H, 'l', 00H
	DB	'<', 00H, 'c', 00H, 'l', 00H, 'a', 00H, 's', 00H, 's', 00H, ' '
	DB	00H, 'G', 00H, 'o', 00H, 'a', 00H, 'l', 00H, '<', 00H, 'c', 00H
	DB	'l', 00H, 'a', 00H, 's', 00H, 's', 00H, ' ', 00H, 'A', 00H, 'b'
	DB	00H, 's', 00H, 't', 00H, 'R', 00H, 'a', 00H, 'v', 00H, 'e', 00H
	DB	'n', 00H, '_', 00H, 'B', 00H, 'o', 00H, 't', 00H, '>', 00H, ' '
	DB	00H, '*', 00H, ',', 00H, 'c', 00H, 'l', 00H, 'a', 00H, 's', 00H
	DB	's', 00H, ' ', 00H, 's', 00H, 't', 00H, 'd', 00H, ':', 00H, ':'
	DB	00H, 'a', 00H, 'l', 00H, 'l', 00H, 'o', 00H, 'c', 00H, 'a', 00H
	DB	't', 00H, 'o', 00H, 'r', 00H, '<', 00H, 'c', 00H, 'l', 00H, 'a'
	DB	00H, 's', 00H, 's', 00H, ' ', 00H, 'G', 00H, 'o', 00H, 'a', 00H
	DB	'l', 00H, '<', 00H, 'c', 00H, 'l', 00H, 'a', 00H, 's', 00H, 's'
	DB	00H, ' ', 00H, 'A', 00H, 'b', 00H, 's', 00H, 't', 00H, 'R', 00H
	DB	'a', 00H, 'v', 00H, 'e', 00H, 'n', 00H, '_', 00H, 'B', 00H, 'o'
	DB	00H, 't', 00H, '>', 00H, ' ', 00H, '*', 00H, '>', 00H, ' ', 00H
	DB	'>', 00H, ' ', 00H, '>', 00H, ':', 00H, ':', 00H, 'o', 00H, 'p'
	DB	00H, 'e', 00H, 'r', 00H, 'a', 00H, 't', 00H, 'o', 00H, 'r', 00H
	DB	' ', 00H, '+', 00H, '+', 00H, 00H, 00H	; `string'
CONST	ENDS
;	COMDAT ??_C@_1EA@DOGAGKDH@?$AAl?$AAi?$AAs?$AAt?$AA?5?$AAi?$AAt?$AAe?$AAr?$AAa?$AAt?$AAo?$AAr?$AA?5?$AAn?$AAo?$AAt?$AA?5?$AAi?$AAn?$AAc?$AAr?$AAe?$AAm?$AAe?$AAn?$AAt?$AAa?$AAb?$AAl?$AAe?$AA?$AA@
CONST	SEGMENT
??_C@_1EA@DOGAGKDH@?$AAl?$AAi?$AAs?$AAt?$AA?5?$AAi?$AAt?$AAe?$AAr?$AAa?$AAt?$AAo?$AAr?$AA?5?$AAn?$AAo?$AAt?$AA?5?$AAi?$AAn?$AAc?$AAr?$AAe?$AAm?$AAe?$AAn?$AAt?$AAa?$AAb?$AAl?$AAe?$AA?$AA@ DB 'l'
	DB	00H, 'i', 00H, 's', 00H, 't', 00H, ' ', 00H, 'i', 00H, 't', 00H
	DB	'e', 00H, 'r', 00H, 'a', 00H, 't', 00H, 'o', 00H, 'r', 00H, ' '
	DB	00H, 'n', 00H, 'o', 00H, 't', 00H, ' ', 00H, 'i', 00H, 'n', 00H
	DB	'c', 00H, 'r', 00H, 'e', 00H, 'm', 00H, 'e', 00H, 'n', 00H, 't'
	DB	00H, 'a', 00H, 'b', 00H, 'l', 00H, 'e', 00H, 00H, 00H ; `string'
; Function compile flags: /Odtp /RTCsu
CONST	ENDS
;	COMDAT ??E?$_List_const_iterator@V?$_List_val@PAV?$Goal@VAbstRaven_Bot@@@@V?$allocator@PAV?$Goal@VAbstRaven_Bot@@@@@std@@@std@@@std@@QAEAAV01@XZ
_TEXT	SEGMENT
_this$ = -4						; size = 4
??E?$_List_const_iterator@V?$_List_val@PAV?$Goal@VAbstRaven_Bot@@@@V?$allocator@PAV?$Goal@VAbstRaven_Bot@@@@@std@@@std@@@std@@QAEAAV01@XZ PROC ; std::_List_const_iterator<std::_List_val<Goal<AbstRaven_Bot> *,std::allocator<Goal<AbstRaven_Bot> *> > >::operator++, COMDAT
; _this$ = ecx

; 221  : 		{	// preincrement

	push	ebp
	mov	ebp, esp
	push	ecx
	mov	DWORD PTR [ebp-4], -858993460		; ccccccccH
	mov	DWORD PTR _this$[ebp], ecx

; 222  :  #if _ITERATOR_DEBUG_LEVEL == 2
; 223  : 		if (this->_Getcont() == 0
; 224  : 			|| this->_Ptr == 0
; 225  : 			|| this->_Ptr == ((_Mylist *)this->_Getcont())->_Myhead)

	mov	ecx, DWORD PTR _this$[ebp]
	call	?_Getcont@_Iterator_base12@std@@QBEPBU_Container_base12@2@XZ ; std::_Iterator_base12::_Getcont
	test	eax, eax
	je	SHORT $LN1@operator@3
	mov	eax, DWORD PTR _this$[ebp]
	cmp	DWORD PTR [eax+8], 0
	je	SHORT $LN1@operator@3
	mov	ecx, DWORD PTR _this$[ebp]
	call	?_Getcont@_Iterator_base12@std@@QBEPBU_Container_base12@2@XZ ; std::_Iterator_base12::_Getcont
	mov	ecx, DWORD PTR _this$[ebp]
	mov	edx, DWORD PTR [ecx+8]
	cmp	edx, DWORD PTR [eax+4]
	jne	SHORT $LN2@operator@3
$LN1@operator@3:

; 226  : 			{	// report error
; 227  : 			_DEBUG_ERROR("list iterator not incrementable");

	push	227					; 000000e3H
	push	OFFSET ??_C@_1II@KCMIDAEO@?$AAc?$AA?3?$AA?2?$AAP?$AAr?$AAo?$AAg?$AAr?$AAa?$AAm?$AA?5?$AAF?$AAi?$AAl?$AAe?$AAs?$AA?5?$AA?$CI?$AAx?$AA8?$AA6?$AA?$CJ?$AA?2?$AAM?$AAi?$AAc?$AAr?$AAo?$AAs?$AAo?$AAf?$AAt@
	push	OFFSET ??_C@_1EA@DOGAGKDH@?$AAl?$AAi?$AAs?$AAt?$AA?5?$AAi?$AAt?$AAe?$AAr?$AAa?$AAt?$AAo?$AAr?$AA?5?$AAn?$AAo?$AAt?$AA?5?$AAi?$AAn?$AAc?$AAr?$AAe?$AAm?$AAe?$AAn?$AAt?$AAa?$AAb?$AAl?$AAe?$AA?$AA@
	call	?_Debug_message@std@@YAXPB_W0I@Z	; std::_Debug_message
	add	esp, 12					; 0000000cH

; 228  : 			_SCL_SECURE_OUT_OF_RANGE;

	mov	eax, OFFSET ??_C@_0CE@OFMIGAMM@Standard?5C?$CL?$CL?5Libraries?5Out?5of?5Ra@
	test	eax, eax
	je	SHORT $LN5@operator@3
	xor	ecx, ecx
	jne	SHORT $LN6@operator@3
$LN5@operator@3:
	push	OFFSET ??_C@_1FG@IBPIFFN@?$AA?$CC?$AAS?$AAt?$AAa?$AAn?$AAd?$AAa?$AAr?$AAd?$AA?5?$AAC?$AA?$CL?$AA?$CL?$AA?5?$AAL?$AAi?$AAb?$AAr?$AAa?$AAr?$AAi?$AAe?$AAs?$AA?5?$AAO?$AAu?$AAt?$AA?5?$AAo?$AAf?$AA?5?$AAR@
	push	0
	push	228					; 000000e4H
	push	OFFSET ??_C@_1II@KCMIDAEO@?$AAc?$AA?3?$AA?2?$AAP?$AAr?$AAo?$AAg?$AAr?$AAa?$AAm?$AA?5?$AAF?$AAi?$AAl?$AAe?$AAs?$AA?5?$AA?$CI?$AAx?$AA8?$AA6?$AA?$CJ?$AA?2?$AAM?$AAi?$AAc?$AAr?$AAo?$AAs?$AAo?$AAf?$AAt@
	push	2
	call	__CrtDbgReportW
	add	esp, 20					; 00000014H
	cmp	eax, 1
	jne	SHORT $LN6@operator@3
	int	3
$LN6@operator@3:
	push	0
	push	228					; 000000e4H
	push	OFFSET ??_C@_1II@KCMIDAEO@?$AAc?$AA?3?$AA?2?$AAP?$AAr?$AAo?$AAg?$AAr?$AAa?$AAm?$AA?5?$AAF?$AAi?$AAl?$AAe?$AAs?$AA?5?$AA?$CI?$AAx?$AA8?$AA6?$AA?$CJ?$AA?2?$AAM?$AAi?$AAc?$AAr?$AAo?$AAs?$AAo?$AAf?$AAt@
	push	OFFSET ??_C@_1BDE@FCMLICOB@?$AAs?$AAt?$AAd?$AA?3?$AA?3?$AA_?$AAL?$AAi?$AAs?$AAt?$AA_?$AAc?$AAo?$AAn?$AAs?$AAt?$AA_?$AAi?$AAt?$AAe?$AAr?$AAa?$AAt?$AAo?$AAr?$AA?$DM?$AAc?$AAl?$AAa?$AAs?$AAs?$AA?5@
	push	OFFSET ??_C@_1BO@MEPPHOO@?$AA?$CC?$AAo?$AAu?$AAt?$AA?5?$AAo?$AAf?$AA?5?$AAr?$AAa?$AAn?$AAg?$AAe?$AA?$CC?$AA?$AA@
	call	__invalid_parameter
	add	esp, 20					; 00000014H
$LN2@operator@3:

; 229  : 			}
; 230  : 
; 231  :  #elif _ITERATOR_DEBUG_LEVEL == 1
; 232  : 		_SCL_SECURE_VALIDATE(this->_Getcont() != 0 && this->_Ptr != 0);
; 233  : 		_SCL_SECURE_VALIDATE_RANGE(this->_Ptr !=
; 234  : 			((_Mylist *)this->_Getcont())->_Myhead);
; 235  :  #endif /* _ITERATOR_DEBUG_LEVEL */
; 236  : 
; 237  : 		this->_Ptr = _Mylist::_Nextnode(this->_Ptr);

	mov	eax, DWORD PTR _this$[ebp]
	mov	ecx, DWORD PTR [eax+8]
	push	ecx
	call	?_Nextnode@?$_List_val@PAV?$Goal@VAbstRaven_Bot@@@@V?$allocator@PAV?$Goal@VAbstRaven_Bot@@@@@std@@@std@@SAAAPAU_Node@?$_List_nod@PAV?$Goal@VAbstRaven_Bot@@@@V?$allocator@PAV?$Goal@VAbstRaven_Bot@@@@@std@@@2@PAU342@@Z ; std::_List_val<Goal<AbstRaven_Bot> *,std::allocator<Goal<AbstRaven_Bot> *> >::_Nextnode
	add	esp, 4
	mov	edx, DWORD PTR _this$[ebp]
	mov	eax, DWORD PTR [eax]
	mov	DWORD PTR [edx+8], eax

; 238  : 		return (*this);

	mov	eax, DWORD PTR _this$[ebp]

; 239  : 		}

	add	esp, 4
	cmp	ebp, esp
	call	__RTC_CheckEsp
	mov	esp, ebp
	pop	ebp
	ret	0
??E?$_List_const_iterator@V?$_List_val@PAV?$Goal@VAbstRaven_Bot@@@@V?$allocator@PAV?$Goal@VAbstRaven_Bot@@@@@std@@@std@@@std@@QAEAAV01@XZ ENDP ; std::_List_const_iterator<std::_List_val<Goal<AbstRaven_Bot> *,std::allocator<Goal<AbstRaven_Bot> *> > >::operator++
_TEXT	ENDS
PUBLIC	??_C@_1CG@JNLFBNGN@?$AA?$CC?$AAi?$AAn?$AAv?$AAa?$AAl?$AAi?$AAd?$AA?5?$AAa?$AAr?$AAg?$AAu?$AAm?$AAe?$AAn?$AAt?$AA?$CC?$AA?$AA@ ; `string'
PUBLIC	??_C@_1BDE@PCDGGLCE@?$AAs?$AAt?$AAd?$AA?3?$AA?3?$AA_?$AAL?$AAi?$AAs?$AAt?$AA_?$AAc?$AAo?$AAn?$AAs?$AAt?$AA_?$AAi?$AAt?$AAe?$AAr?$AAa?$AAt?$AAo?$AAr?$AA?$DM?$AAc?$AAl?$AAa?$AAs?$AAs?$AA?5@ ; `string'
PUBLIC	??_C@_1FO@GJIHNDLM@?$AA?$CC?$AAS?$AAt?$AAa?$AAn?$AAd?$AAa?$AAr?$AAd?$AA?5?$AAC?$AA?$CL?$AA?$CL?$AA?5?$AAL?$AAi?$AAb?$AAr?$AAa?$AAr?$AAi?$AAe?$AAs?$AA?5?$AAI?$AAn?$AAv?$AAa?$AAl?$AAi?$AAd?$AA?5@ ; `string'
PUBLIC	??_C@_0CI@FNPHFCCM@Standard?5C?$CL?$CL?5Libraries?5Invalid?5A@ ; `string'
PUBLIC	??_C@_1DI@MDELDGPI@?$AAl?$AAi?$AAs?$AAt?$AA?5?$AAi?$AAt?$AAe?$AAr?$AAa?$AAt?$AAo?$AAr?$AAs?$AA?5?$AAi?$AAn?$AAc?$AAo?$AAm?$AAp?$AAa?$AAt?$AAi?$AAb?$AAl?$AAe?$AA?$AA@ ; `string'
;	COMDAT ??_C@_1CG@JNLFBNGN@?$AA?$CC?$AAi?$AAn?$AAv?$AAa?$AAl?$AAi?$AAd?$AA?5?$AAa?$AAr?$AAg?$AAu?$AAm?$AAe?$AAn?$AAt?$AA?$CC?$AA?$AA@
CONST	SEGMENT
??_C@_1CG@JNLFBNGN@?$AA?$CC?$AAi?$AAn?$AAv?$AAa?$AAl?$AAi?$AAd?$AA?5?$AAa?$AAr?$AAg?$AAu?$AAm?$AAe?$AAn?$AAt?$AA?$CC?$AA?$AA@ DB '"'
	DB	00H, 'i', 00H, 'n', 00H, 'v', 00H, 'a', 00H, 'l', 00H, 'i', 00H
	DB	'd', 00H, ' ', 00H, 'a', 00H, 'r', 00H, 'g', 00H, 'u', 00H, 'm'
	DB	00H, 'e', 00H, 'n', 00H, 't', 00H, '"', 00H, 00H, 00H ; `string'
CONST	ENDS
;	COMDAT ??_C@_1BDE@PCDGGLCE@?$AAs?$AAt?$AAd?$AA?3?$AA?3?$AA_?$AAL?$AAi?$AAs?$AAt?$AA_?$AAc?$AAo?$AAn?$AAs?$AAt?$AA_?$AAi?$AAt?$AAe?$AAr?$AAa?$AAt?$AAo?$AAr?$AA?$DM?$AAc?$AAl?$AAa?$AAs?$AAs?$AA?5@
CONST	SEGMENT
??_C@_1BDE@PCDGGLCE@?$AAs?$AAt?$AAd?$AA?3?$AA?3?$AA_?$AAL?$AAi?$AAs?$AAt?$AA_?$AAc?$AAo?$AAn?$AAs?$AAt?$AA_?$AAi?$AAt?$AAe?$AAr?$AAa?$AAt?$AAo?$AAr?$AA?$DM?$AAc?$AAl?$AAa?$AAs?$AAs?$AA?5@ DB 's'
	DB	00H, 't', 00H, 'd', 00H, ':', 00H, ':', 00H, '_', 00H, 'L', 00H
	DB	'i', 00H, 's', 00H, 't', 00H, '_', 00H, 'c', 00H, 'o', 00H, 'n'
	DB	00H, 's', 00H, 't', 00H, '_', 00H, 'i', 00H, 't', 00H, 'e', 00H
	DB	'r', 00H, 'a', 00H, 't', 00H, 'o', 00H, 'r', 00H, '<', 00H, 'c'
	DB	00H, 'l', 00H, 'a', 00H, 's', 00H, 's', 00H, ' ', 00H, 's', 00H
	DB	't', 00H, 'd', 00H, ':', 00H, ':', 00H, '_', 00H, 'L', 00H, 'i'
	DB	00H, 's', 00H, 't', 00H, '_', 00H, 'v', 00H, 'a', 00H, 'l', 00H
	DB	'<', 00H, 'c', 00H, 'l', 00H, 'a', 00H, 's', 00H, 's', 00H, ' '
	DB	00H, 'G', 00H, 'o', 00H, 'a', 00H, 'l', 00H, '<', 00H, 'c', 00H
	DB	'l', 00H, 'a', 00H, 's', 00H, 's', 00H, ' ', 00H, 'A', 00H, 'b'
	DB	00H, 's', 00H, 't', 00H, 'R', 00H, 'a', 00H, 'v', 00H, 'e', 00H
	DB	'n', 00H, '_', 00H, 'B', 00H, 'o', 00H, 't', 00H, '>', 00H, ' '
	DB	00H, '*', 00H, ',', 00H, 'c', 00H, 'l', 00H, 'a', 00H, 's', 00H
	DB	's', 00H, ' ', 00H, 's', 00H, 't', 00H, 'd', 00H, ':', 00H, ':'
	DB	00H, 'a', 00H, 'l', 00H, 'l', 00H, 'o', 00H, 'c', 00H, 'a', 00H
	DB	't', 00H, 'o', 00H, 'r', 00H, '<', 00H, 'c', 00H, 'l', 00H, 'a'
	DB	00H, 's', 00H, 's', 00H, ' ', 00H, 'G', 00H, 'o', 00H, 'a', 00H
	DB	'l', 00H, '<', 00H, 'c', 00H, 'l', 00H, 'a', 00H, 's', 00H, 's'
	DB	00H, ' ', 00H, 'A', 00H, 'b', 00H, 's', 00H, 't', 00H, 'R', 00H
	DB	'a', 00H, 'v', 00H, 'e', 00H, 'n', 00H, '_', 00H, 'B', 00H, 'o'
	DB	00H, 't', 00H, '>', 00H, ' ', 00H, '*', 00H, '>', 00H, ' ', 00H
	DB	'>', 00H, ' ', 00H, '>', 00H, ':', 00H, ':', 00H, 'o', 00H, 'p'
	DB	00H, 'e', 00H, 'r', 00H, 'a', 00H, 't', 00H, 'o', 00H, 'r', 00H
	DB	' ', 00H, '=', 00H, '=', 00H, 00H, 00H	; `string'
CONST	ENDS
;	COMDAT ??_C@_1FO@GJIHNDLM@?$AA?$CC?$AAS?$AAt?$AAa?$AAn?$AAd?$AAa?$AAr?$AAd?$AA?5?$AAC?$AA?$CL?$AA?$CL?$AA?5?$AAL?$AAi?$AAb?$AAr?$AAa?$AAr?$AAi?$AAe?$AAs?$AA?5?$AAI?$AAn?$AAv?$AAa?$AAl?$AAi?$AAd?$AA?5@
CONST	SEGMENT
??_C@_1FO@GJIHNDLM@?$AA?$CC?$AAS?$AAt?$AAa?$AAn?$AAd?$AAa?$AAr?$AAd?$AA?5?$AAC?$AA?$CL?$AA?$CL?$AA?5?$AAL?$AAi?$AAb?$AAr?$AAa?$AAr?$AAi?$AAe?$AAs?$AA?5?$AAI?$AAn?$AAv?$AAa?$AAl?$AAi?$AAd?$AA?5@ DB '"'
	DB	00H, 'S', 00H, 't', 00H, 'a', 00H, 'n', 00H, 'd', 00H, 'a', 00H
	DB	'r', 00H, 'd', 00H, ' ', 00H, 'C', 00H, '+', 00H, '+', 00H, ' '
	DB	00H, 'L', 00H, 'i', 00H, 'b', 00H, 'r', 00H, 'a', 00H, 'r', 00H
	DB	'i', 00H, 'e', 00H, 's', 00H, ' ', 00H, 'I', 00H, 'n', 00H, 'v'
	DB	00H, 'a', 00H, 'l', 00H, 'i', 00H, 'd', 00H, ' ', 00H, 'A', 00H
	DB	'r', 00H, 'g', 00H, 'u', 00H, 'm', 00H, 'e', 00H, 'n', 00H, 't'
	DB	00H, '"', 00H, ' ', 00H, '&', 00H, '&', 00H, ' ', 00H, '0', 00H
	DB	00H, 00H					; `string'
CONST	ENDS
;	COMDAT ??_C@_0CI@FNPHFCCM@Standard?5C?$CL?$CL?5Libraries?5Invalid?5A@
CONST	SEGMENT
??_C@_0CI@FNPHFCCM@Standard?5C?$CL?$CL?5Libraries?5Invalid?5A@ DB 'Standa'
	DB	'rd C++ Libraries Invalid Argument', 00H	; `string'
CONST	ENDS
;	COMDAT ??_C@_1DI@MDELDGPI@?$AAl?$AAi?$AAs?$AAt?$AA?5?$AAi?$AAt?$AAe?$AAr?$AAa?$AAt?$AAo?$AAr?$AAs?$AA?5?$AAi?$AAn?$AAc?$AAo?$AAm?$AAp?$AAa?$AAt?$AAi?$AAb?$AAl?$AAe?$AA?$AA@
CONST	SEGMENT
??_C@_1DI@MDELDGPI@?$AAl?$AAi?$AAs?$AAt?$AA?5?$AAi?$AAt?$AAe?$AAr?$AAa?$AAt?$AAo?$AAr?$AAs?$AA?5?$AAi?$AAn?$AAc?$AAo?$AAm?$AAp?$AAa?$AAt?$AAi?$AAb?$AAl?$AAe?$AA?$AA@ DB 'l'
	DB	00H, 'i', 00H, 's', 00H, 't', 00H, ' ', 00H, 'i', 00H, 't', 00H
	DB	'e', 00H, 'r', 00H, 'a', 00H, 't', 00H, 'o', 00H, 'r', 00H, 's'
	DB	00H, ' ', 00H, 'i', 00H, 'n', 00H, 'c', 00H, 'o', 00H, 'm', 00H
	DB	'p', 00H, 'a', 00H, 't', 00H, 'i', 00H, 'b', 00H, 'l', 00H, 'e'
	DB	00H, 00H, 00H				; `string'
; Function compile flags: /Odtp /RTCsu
CONST	ENDS
;	COMDAT ??8?$_List_const_iterator@V?$_List_val@PAV?$Goal@VAbstRaven_Bot@@@@V?$allocator@PAV?$Goal@VAbstRaven_Bot@@@@@std@@@std@@@std@@QBE_NABV01@@Z
_TEXT	SEGMENT
_this$ = -4						; size = 4
__Right$ = 8						; size = 4
??8?$_List_const_iterator@V?$_List_val@PAV?$Goal@VAbstRaven_Bot@@@@V?$allocator@PAV?$Goal@VAbstRaven_Bot@@@@@std@@@std@@@std@@QBE_NABV01@@Z PROC ; std::_List_const_iterator<std::_List_val<Goal<AbstRaven_Bot> *,std::allocator<Goal<AbstRaven_Bot> *> > >::operator==, COMDAT
; _this$ = ecx

; 281  : 		{	// test for iterator equality

	push	ebp
	mov	ebp, esp
	push	ecx
	push	esi
	mov	DWORD PTR [ebp-4], -858993460		; ccccccccH
	mov	DWORD PTR _this$[ebp], ecx

; 282  :  #if _ITERATOR_DEBUG_LEVEL == 2
; 283  : 		if (this->_Getcont() == 0
; 284  : 			|| this->_Getcont() != _Right._Getcont())

	mov	ecx, DWORD PTR _this$[ebp]
	call	?_Getcont@_Iterator_base12@std@@QBEPBU_Container_base12@2@XZ ; std::_Iterator_base12::_Getcont
	test	eax, eax
	je	SHORT $LN1@operator@4
	mov	ecx, DWORD PTR _this$[ebp]
	call	?_Getcont@_Iterator_base12@std@@QBEPBU_Container_base12@2@XZ ; std::_Iterator_base12::_Getcont
	mov	esi, eax
	mov	ecx, DWORD PTR __Right$[ebp]
	call	?_Getcont@_Iterator_base12@std@@QBEPBU_Container_base12@2@XZ ; std::_Iterator_base12::_Getcont
	cmp	esi, eax
	je	SHORT $LN2@operator@4
$LN1@operator@4:

; 285  : 			{	// report error
; 286  : 			_DEBUG_ERROR("list iterators incompatible");

	push	286					; 0000011eH
	push	OFFSET ??_C@_1II@KCMIDAEO@?$AAc?$AA?3?$AA?2?$AAP?$AAr?$AAo?$AAg?$AAr?$AAa?$AAm?$AA?5?$AAF?$AAi?$AAl?$AAe?$AAs?$AA?5?$AA?$CI?$AAx?$AA8?$AA6?$AA?$CJ?$AA?2?$AAM?$AAi?$AAc?$AAr?$AAo?$AAs?$AAo?$AAf?$AAt@
	push	OFFSET ??_C@_1DI@MDELDGPI@?$AAl?$AAi?$AAs?$AAt?$AA?5?$AAi?$AAt?$AAe?$AAr?$AAa?$AAt?$AAo?$AAr?$AAs?$AA?5?$AAi?$AAn?$AAc?$AAo?$AAm?$AAp?$AAa?$AAt?$AAi?$AAb?$AAl?$AAe?$AA?$AA@
	call	?_Debug_message@std@@YAXPB_W0I@Z	; std::_Debug_message
	add	esp, 12					; 0000000cH

; 287  : 			_SCL_SECURE_INVALID_ARGUMENT;

	mov	eax, OFFSET ??_C@_0CI@FNPHFCCM@Standard?5C?$CL?$CL?5Libraries?5Invalid?5A@
	test	eax, eax
	je	SHORT $LN5@operator@4
	xor	ecx, ecx
	jne	SHORT $LN6@operator@4
$LN5@operator@4:
	push	OFFSET ??_C@_1FO@GJIHNDLM@?$AA?$CC?$AAS?$AAt?$AAa?$AAn?$AAd?$AAa?$AAr?$AAd?$AA?5?$AAC?$AA?$CL?$AA?$CL?$AA?5?$AAL?$AAi?$AAb?$AAr?$AAa?$AAr?$AAi?$AAe?$AAs?$AA?5?$AAI?$AAn?$AAv?$AAa?$AAl?$AAi?$AAd?$AA?5@
	push	0
	push	287					; 0000011fH
	push	OFFSET ??_C@_1II@KCMIDAEO@?$AAc?$AA?3?$AA?2?$AAP?$AAr?$AAo?$AAg?$AAr?$AAa?$AAm?$AA?5?$AAF?$AAi?$AAl?$AAe?$AAs?$AA?5?$AA?$CI?$AAx?$AA8?$AA6?$AA?$CJ?$AA?2?$AAM?$AAi?$AAc?$AAr?$AAo?$AAs?$AAo?$AAf?$AAt@
	push	2
	call	__CrtDbgReportW
	add	esp, 20					; 00000014H
	cmp	eax, 1
	jne	SHORT $LN6@operator@4
	int	3
$LN6@operator@4:
	push	0
	push	287					; 0000011fH
	push	OFFSET ??_C@_1II@KCMIDAEO@?$AAc?$AA?3?$AA?2?$AAP?$AAr?$AAo?$AAg?$AAr?$AAa?$AAm?$AA?5?$AAF?$AAi?$AAl?$AAe?$AAs?$AA?5?$AA?$CI?$AAx?$AA8?$AA6?$AA?$CJ?$AA?2?$AAM?$AAi?$AAc?$AAr?$AAo?$AAs?$AAo?$AAf?$AAt@
	push	OFFSET ??_C@_1BDE@PCDGGLCE@?$AAs?$AAt?$AAd?$AA?3?$AA?3?$AA_?$AAL?$AAi?$AAs?$AAt?$AA_?$AAc?$AAo?$AAn?$AAs?$AAt?$AA_?$AAi?$AAt?$AAe?$AAr?$AAa?$AAt?$AAo?$AAr?$AA?$DM?$AAc?$AAl?$AAa?$AAs?$AAs?$AA?5@
	push	OFFSET ??_C@_1CG@JNLFBNGN@?$AA?$CC?$AAi?$AAn?$AAv?$AAa?$AAl?$AAi?$AAd?$AA?5?$AAa?$AAr?$AAg?$AAu?$AAm?$AAe?$AAn?$AAt?$AA?$CC?$AA?$AA@
	call	__invalid_parameter
	add	esp, 20					; 00000014H
$LN2@operator@4:

; 288  : 			}
; 289  : 
; 290  :  #elif _ITERATOR_DEBUG_LEVEL == 1
; 291  : 		_SCL_SECURE_VALIDATE(this->_Getcont() != 0
; 292  : 			&& this->_Getcont() == _Right._Getcont());
; 293  :  #endif /* _ITERATOR_DEBUG_LEVEL */
; 294  : 
; 295  : 		return (this->_Ptr == _Right._Ptr);

	mov	eax, DWORD PTR _this$[ebp]
	mov	ecx, DWORD PTR __Right$[ebp]
	mov	edx, DWORD PTR [eax+8]
	xor	eax, eax
	cmp	edx, DWORD PTR [ecx+8]
	sete	al

; 296  : 		}

	pop	esi
	add	esp, 4
	cmp	ebp, esp
	call	__RTC_CheckEsp
	mov	esp, ebp
	pop	ebp
	ret	4
??8?$_List_const_iterator@V?$_List_val@PAV?$Goal@VAbstRaven_Bot@@@@V?$allocator@PAV?$Goal@VAbstRaven_Bot@@@@@std@@@std@@@std@@QBE_NABV01@@Z ENDP ; std::_List_const_iterator<std::_List_val<Goal<AbstRaven_Bot> *,std::allocator<Goal<AbstRaven_Bot> *> > >::operator==
_TEXT	ENDS
PUBLIC	??0?$_List_const_iterator@V?$_List_val@PAV?$Goal@VAbstRaven_Bot@@@@V?$allocator@PAV?$Goal@VAbstRaven_Bot@@@@@std@@@std@@@std@@QAE@PAU_Node@?$_List_nod@PAV?$Goal@VAbstRaven_Bot@@@@V?$allocator@PAV?$Goal@VAbstRaven_Bot@@@@@std@@@1@PBV?$_List_val@PAV?$Goal@VAbstRaven_Bot@@@@V?$allocator@PAV?$Goal@VAbstRaven_Bot@@@@@std@@@1@@Z ; std::_List_const_iterator<std::_List_val<Goal<AbstRaven_Bot> *,std::allocator<Goal<AbstRaven_Bot> *> > >::_List_const_iterator<std::_List_val<Goal<AbstRaven_Bot> *,std::allocator<Goal<AbstRaven_Bot> *> > >
; Function compile flags: /Odtp /RTCsu
;	COMDAT ??0?$_List_iterator@V?$_List_val@PAV?$Goal@VAbstRaven_Bot@@@@V?$allocator@PAV?$Goal@VAbstRaven_Bot@@@@@std@@@std@@@std@@QAE@PAU_Node@?$_List_nod@PAV?$Goal@VAbstRaven_Bot@@@@V?$allocator@PAV?$Goal@VAbstRaven_Bot@@@@@std@@@1@PBV?$_List_val@PAV?$Goal@VAbstRaven_Bot@@@@V?$allocator@PAV?$Goal@VAbstRaven_Bot@@@@@std@@@1@@Z
_TEXT	SEGMENT
_this$ = -4						; size = 4
__Pnode$ = 8						; size = 4
__Plist$ = 12						; size = 4
??0?$_List_iterator@V?$_List_val@PAV?$Goal@VAbstRaven_Bot@@@@V?$allocator@PAV?$Goal@VAbstRaven_Bot@@@@@std@@@std@@@std@@QAE@PAU_Node@?$_List_nod@PAV?$Goal@VAbstRaven_Bot@@@@V?$allocator@PAV?$Goal@VAbstRaven_Bot@@@@@std@@@1@PBV?$_List_val@PAV?$Goal@VAbstRaven_Bot@@@@V?$allocator@PAV?$Goal@VAbstRaven_Bot@@@@@std@@@1@@Z PROC ; std::_List_iterator<std::_List_val<Goal<AbstRaven_Bot> *,std::allocator<Goal<AbstRaven_Bot> *> > >::_List_iterator<std::_List_val<Goal<AbstRaven_Bot> *,std::allocator<Goal<AbstRaven_Bot> *> > >, COMDAT
; _this$ = ecx

; 342  : 		{	// construct with node pointer _Pnode

	push	ebp
	mov	ebp, esp
	push	ecx
	mov	DWORD PTR [ebp-4], -858993460		; ccccccccH
	mov	DWORD PTR _this$[ebp], ecx
	mov	eax, DWORD PTR __Plist$[ebp]
	push	eax
	mov	ecx, DWORD PTR __Pnode$[ebp]
	push	ecx
	mov	ecx, DWORD PTR _this$[ebp]
	call	??0?$_List_const_iterator@V?$_List_val@PAV?$Goal@VAbstRaven_Bot@@@@V?$allocator@PAV?$Goal@VAbstRaven_Bot@@@@@std@@@std@@@std@@QAE@PAU_Node@?$_List_nod@PAV?$Goal@VAbstRaven_Bot@@@@V?$allocator@PAV?$Goal@VAbstRaven_Bot@@@@@std@@@1@PBV?$_List_val@PAV?$Goal@VAbstRaven_Bot@@@@V?$allocator@PAV?$Goal@VAbstRaven_Bot@@@@@std@@@1@@Z ; std::_List_const_iterator<std::_List_val<Goal<AbstRaven_Bot> *,std::allocator<Goal<AbstRaven_Bot> *> > >::_List_const_iterator<std::_List_val<Goal<AbstRaven_Bot> *,std::allocator<Goal<AbstRaven_Bot> *> > >

; 343  : 		}

	mov	eax, DWORD PTR _this$[ebp]
	add	esp, 4
	cmp	ebp, esp
	call	__RTC_CheckEsp
	mov	esp, ebp
	pop	ebp
	ret	8
??0?$_List_iterator@V?$_List_val@PAV?$Goal@VAbstRaven_Bot@@@@V?$allocator@PAV?$Goal@VAbstRaven_Bot@@@@@std@@@std@@@std@@QAE@PAU_Node@?$_List_nod@PAV?$Goal@VAbstRaven_Bot@@@@V?$allocator@PAV?$Goal@VAbstRaven_Bot@@@@@std@@@1@PBV?$_List_val@PAV?$Goal@VAbstRaven_Bot@@@@V?$allocator@PAV?$Goal@VAbstRaven_Bot@@@@@std@@@1@@Z ENDP ; std::_List_iterator<std::_List_val<Goal<AbstRaven_Bot> *,std::allocator<Goal<AbstRaven_Bot> *> > >::_List_iterator<std::_List_val<Goal<AbstRaven_Bot> *,std::allocator<Goal<AbstRaven_Bot> *> > >
_TEXT	ENDS
;	COMDAT xdata$x
xdata$x	SEGMENT
__unwindtable$?_Make_iter@?$list@PAV?$Goal@VAbstRaven_Bot@@@@V?$allocator@PAV?$Goal@VAbstRaven_Bot@@@@@std@@@std@@QBE?AV?$_List_iterator@V?$_List_val@PAV?$Goal@VAbstRaven_Bot@@@@V?$allocator@PAV?$Goal@VAbstRaven_Bot@@@@@std@@@std@@@2@V?$_List_const_iterator@V?$_List_val@PAV?$Goal@VAbstRaven_Bot@@@@V?$allocator@PAV?$Goal@VAbstRaven_Bot@@@@@std@@@std@@@2@@Z DD 0ffffffffH
	DD	FLAT:__unwindfunclet$?_Make_iter@?$list@PAV?$Goal@VAbstRaven_Bot@@@@V?$allocator@PAV?$Goal@VAbstRaven_Bot@@@@@std@@@std@@QBE?AV?$_List_iterator@V?$_List_val@PAV?$Goal@VAbstRaven_Bot@@@@V?$allocator@PAV?$Goal@VAbstRaven_Bot@@@@@std@@@std@@@2@V?$_List_const_iterator@V?$_List_val@PAV?$Goal@VAbstRaven_Bot@@@@V?$allocator@PAV?$Goal@VAbstRaven_Bot@@@@@std@@@std@@@2@@Z$1
	DD	00H
	DD	FLAT:__unwindfunclet$?_Make_iter@?$list@PAV?$Goal@VAbstRaven_Bot@@@@V?$allocator@PAV?$Goal@VAbstRaven_Bot@@@@@std@@@std@@QBE?AV?$_List_iterator@V?$_List_val@PAV?$Goal@VAbstRaven_Bot@@@@V?$allocator@PAV?$Goal@VAbstRaven_Bot@@@@@std@@@std@@@2@V?$_List_const_iterator@V?$_List_val@PAV?$Goal@VAbstRaven_Bot@@@@V?$allocator@PAV?$Goal@VAbstRaven_Bot@@@@@std@@@std@@@2@@Z$0
__ehfuncinfo$?_Make_iter@?$list@PAV?$Goal@VAbstRaven_Bot@@@@V?$allocator@PAV?$Goal@VAbstRaven_Bot@@@@@std@@@std@@QBE?AV?$_List_iterator@V?$_List_val@PAV?$Goal@VAbstRaven_Bot@@@@V?$allocator@PAV?$Goal@VAbstRaven_Bot@@@@@std@@@std@@@2@V?$_List_const_iterator@V?$_List_val@PAV?$Goal@VAbstRaven_Bot@@@@V?$allocator@PAV?$Goal@VAbstRaven_Bot@@@@@std@@@std@@@2@@Z DD 019930522H
	DD	02H
	DD	FLAT:__unwindtable$?_Make_iter@?$list@PAV?$Goal@VAbstRaven_Bot@@@@V?$allocator@PAV?$Goal@VAbstRaven_Bot@@@@@std@@@std@@QBE?AV?$_List_iterator@V?$_List_val@PAV?$Goal@VAbstRaven_Bot@@@@V?$allocator@PAV?$Goal@VAbstRaven_Bot@@@@@std@@@std@@@2@V?$_List_const_iterator@V?$_List_val@PAV?$Goal@VAbstRaven_Bot@@@@V?$allocator@PAV?$Goal@VAbstRaven_Bot@@@@@std@@@std@@@2@@Z
	DD	2 DUP(00H)
	DD	2 DUP(00H)
	DD	00H
	DD	01H
; Function compile flags: /Odtp /RTCsu
xdata$x	ENDS
;	COMDAT ?_Make_iter@?$list@PAV?$Goal@VAbstRaven_Bot@@@@V?$allocator@PAV?$Goal@VAbstRaven_Bot@@@@@std@@@std@@QBE?AV?$_List_iterator@V?$_List_val@PAV?$Goal@VAbstRaven_Bot@@@@V?$allocator@PAV?$Goal@VAbstRaven_Bot@@@@@std@@@std@@@2@V?$_List_const_iterator@V?$_List_val@PAV?$Goal@VAbstRaven_Bot@@@@V?$allocator@PAV?$Goal@VAbstRaven_Bot@@@@@std@@@std@@@2@@Z
_TEXT	SEGMENT
$T153454 = -20						; size = 4
_this$ = -16						; size = 4
__$EHRec$ = -12						; size = 12
___$ReturnUdt$ = 8					; size = 4
__Where$ = 12						; size = 12
?_Make_iter@?$list@PAV?$Goal@VAbstRaven_Bot@@@@V?$allocator@PAV?$Goal@VAbstRaven_Bot@@@@@std@@@std@@QBE?AV?$_List_iterator@V?$_List_val@PAV?$Goal@VAbstRaven_Bot@@@@V?$allocator@PAV?$Goal@VAbstRaven_Bot@@@@@std@@@std@@@2@V?$_List_const_iterator@V?$_List_val@PAV?$Goal@VAbstRaven_Bot@@@@V?$allocator@PAV?$Goal@VAbstRaven_Bot@@@@@std@@@std@@@2@@Z PROC ; std::list<Goal<AbstRaven_Bot> *,std::allocator<Goal<AbstRaven_Bot> *> >::_Make_iter, COMDAT
; _this$ = ecx

; 801  : 		{	// make iterator from const_iterator

	push	ebp
	mov	ebp, esp
	push	-1
	push	__ehhandler$?_Make_iter@?$list@PAV?$Goal@VAbstRaven_Bot@@@@V?$allocator@PAV?$Goal@VAbstRaven_Bot@@@@@std@@@std@@QBE?AV?$_List_iterator@V?$_List_val@PAV?$Goal@VAbstRaven_Bot@@@@V?$allocator@PAV?$Goal@VAbstRaven_Bot@@@@@std@@@std@@@2@V?$_List_const_iterator@V?$_List_val@PAV?$Goal@VAbstRaven_Bot@@@@V?$allocator@PAV?$Goal@VAbstRaven_Bot@@@@@std@@@std@@@2@@Z
	mov	eax, DWORD PTR fs:0
	push	eax
	sub	esp, 8
	mov	DWORD PTR [ebp-20], -858993460		; ccccccccH
	mov	DWORD PTR [ebp-16], -858993460		; ccccccccH
	mov	eax, DWORD PTR ___security_cookie
	xor	eax, ebp
	push	eax
	lea	eax, DWORD PTR __$EHRec$[ebp]
	mov	DWORD PTR fs:0, eax
	mov	DWORD PTR _this$[ebp], ecx
	mov	DWORD PTR $T153454[ebp], 0
	mov	DWORD PTR __$EHRec$[ebp+8], 1

; 802  : 		return (iterator(_Where._Ptr, this));

	mov	eax, DWORD PTR _this$[ebp]
	push	eax
	mov	ecx, DWORD PTR __Where$[ebp+8]
	push	ecx
	mov	ecx, DWORD PTR ___$ReturnUdt$[ebp]
	call	??0?$_List_iterator@V?$_List_val@PAV?$Goal@VAbstRaven_Bot@@@@V?$allocator@PAV?$Goal@VAbstRaven_Bot@@@@@std@@@std@@@std@@QAE@PAU_Node@?$_List_nod@PAV?$Goal@VAbstRaven_Bot@@@@V?$allocator@PAV?$Goal@VAbstRaven_Bot@@@@@std@@@1@PBV?$_List_val@PAV?$Goal@VAbstRaven_Bot@@@@V?$allocator@PAV?$Goal@VAbstRaven_Bot@@@@@std@@@1@@Z ; std::_List_iterator<std::_List_val<Goal<AbstRaven_Bot> *,std::allocator<Goal<AbstRaven_Bot> *> > >::_List_iterator<std::_List_val<Goal<AbstRaven_Bot> *,std::allocator<Goal<AbstRaven_Bot> *> > >
	mov	edx, DWORD PTR $T153454[ebp]
	or	edx, 1
	mov	DWORD PTR $T153454[ebp], edx
	mov	BYTE PTR __$EHRec$[ebp+8], 0
	lea	ecx, DWORD PTR __Where$[ebp]
	call	??1?$_List_const_iterator@V?$_List_val@PAV?$Goal@VAbstRaven_Bot@@@@V?$allocator@PAV?$Goal@VAbstRaven_Bot@@@@@std@@@std@@@std@@QAE@XZ
	mov	eax, DWORD PTR ___$ReturnUdt$[ebp]

; 803  : 		}

	mov	ecx, DWORD PTR __$EHRec$[ebp]
	mov	DWORD PTR fs:0, ecx
	pop	ecx
	add	esp, 20					; 00000014H
	cmp	ebp, esp
	call	__RTC_CheckEsp
	mov	esp, ebp
	pop	ebp
	ret	16					; 00000010H
_TEXT	ENDS
;	COMDAT text$x
text$x	SEGMENT
__unwindfunclet$?_Make_iter@?$list@PAV?$Goal@VAbstRaven_Bot@@@@V?$allocator@PAV?$Goal@VAbstRaven_Bot@@@@@std@@@std@@QBE?AV?$_List_iterator@V?$_List_val@PAV?$Goal@VAbstRaven_Bot@@@@V?$allocator@PAV?$Goal@VAbstRaven_Bot@@@@@std@@@std@@@2@V?$_List_const_iterator@V?$_List_val@PAV?$Goal@VAbstRaven_Bot@@@@V?$allocator@PAV?$Goal@VAbstRaven_Bot@@@@@std@@@std@@@2@@Z$0:
	lea	ecx, DWORD PTR __Where$[ebp]
	jmp	??1?$_List_const_iterator@V?$_List_val@PAV?$Goal@VAbstRaven_Bot@@@@V?$allocator@PAV?$Goal@VAbstRaven_Bot@@@@@std@@@std@@@std@@QAE@XZ
__unwindfunclet$?_Make_iter@?$list@PAV?$Goal@VAbstRaven_Bot@@@@V?$allocator@PAV?$Goal@VAbstRaven_Bot@@@@@std@@@std@@QBE?AV?$_List_iterator@V?$_List_val@PAV?$Goal@VAbstRaven_Bot@@@@V?$allocator@PAV?$Goal@VAbstRaven_Bot@@@@@std@@@std@@@2@V?$_List_const_iterator@V?$_List_val@PAV?$Goal@VAbstRaven_Bot@@@@V?$allocator@PAV?$Goal@VAbstRaven_Bot@@@@@std@@@std@@@2@@Z$1:
	mov	eax, DWORD PTR $T153454[ebp]
	and	eax, 1
	je	$LN5@Make_iter
	and	DWORD PTR $T153454[ebp], -2		; fffffffeH
	mov	ecx, DWORD PTR ___$ReturnUdt$[ebp]
	jmp	??1?$_List_iterator@V?$_List_val@PAV?$Goal@VAbstRaven_Bot@@@@V?$allocator@PAV?$Goal@VAbstRaven_Bot@@@@@std@@@std@@@std@@QAE@XZ
$LN5@Make_iter:
	ret	0
__ehhandler$?_Make_iter@?$list@PAV?$Goal@VAbstRaven_Bot@@@@V?$allocator@PAV?$Goal@VAbstRaven_Bot@@@@@std@@@std@@QBE?AV?$_List_iterator@V?$_List_val@PAV?$Goal@VAbstRaven_Bot@@@@V?$allocator@PAV?$Goal@VAbstRaven_Bot@@@@@std@@@std@@@2@V?$_List_const_iterator@V?$_List_val@PAV?$Goal@VAbstRaven_Bot@@@@V?$allocator@PAV?$Goal@VAbstRaven_Bot@@@@@std@@@std@@@2@@Z:
	mov	edx, DWORD PTR [esp+8]
	lea	eax, DWORD PTR [edx+12]
	mov	ecx, DWORD PTR [edx-12]
	xor	ecx, eax
	call	@__security_check_cookie@4
	mov	eax, OFFSET __ehfuncinfo$?_Make_iter@?$list@PAV?$Goal@VAbstRaven_Bot@@@@V?$allocator@PAV?$Goal@VAbstRaven_Bot@@@@@std@@@std@@QBE?AV?$_List_iterator@V?$_List_val@PAV?$Goal@VAbstRaven_Bot@@@@V?$allocator@PAV?$Goal@VAbstRaven_Bot@@@@@std@@@std@@@2@V?$_List_const_iterator@V?$_List_val@PAV?$Goal@VAbstRaven_Bot@@@@V?$allocator@PAV?$Goal@VAbstRaven_Bot@@@@@std@@@std@@@2@@Z
	jmp	___CxxFrameHandler3
text$x	ENDS
?_Make_iter@?$list@PAV?$Goal@VAbstRaven_Bot@@@@V?$allocator@PAV?$Goal@VAbstRaven_Bot@@@@@std@@@std@@QBE?AV?$_List_iterator@V?$_List_val@PAV?$Goal@VAbstRaven_Bot@@@@V?$allocator@PAV?$Goal@VAbstRaven_Bot@@@@@std@@@std@@@2@V?$_List_const_iterator@V?$_List_val@PAV?$Goal@VAbstRaven_Bot@@@@V?$allocator@PAV?$Goal@VAbstRaven_Bot@@@@@std@@@std@@@2@@Z ENDP ; std::list<Goal<AbstRaven_Bot> *,std::allocator<Goal<AbstRaven_Bot> *> >::_Make_iter
; Function compile flags: /Odtp /RTCsu
;	COMDAT ?_Myval@?$_List_val@PAV?$Goal@VAbstRaven_Bot@@@@V?$allocator@PAV?$Goal@VAbstRaven_Bot@@@@@std@@@std@@SAAAPAV?$Goal@VAbstRaven_Bot@@@@PAU_Node@?$_List_nod@PAV?$Goal@VAbstRaven_Bot@@@@V?$allocator@PAV?$Goal@VAbstRaven_Bot@@@@@std@@@2@@Z
_TEXT	SEGMENT
__Pnode$ = 8						; size = 4
?_Myval@?$_List_val@PAV?$Goal@VAbstRaven_Bot@@@@V?$allocator@PAV?$Goal@VAbstRaven_Bot@@@@@std@@@std@@SAAAPAV?$Goal@VAbstRaven_Bot@@@@PAU_Node@?$_List_nod@PAV?$Goal@VAbstRaven_Bot@@@@V?$allocator@PAV?$Goal@VAbstRaven_Bot@@@@@std@@@2@@Z PROC ; std::_List_val<Goal<AbstRaven_Bot> *,std::allocator<Goal<AbstRaven_Bot> *> >::_Myval, COMDAT

; 570  : 		{	// return reference to value in node

	push	ebp
	mov	ebp, esp

; 571  : 		return ((reference)(*_Pnode)._Myval);

	mov	eax, DWORD PTR __Pnode$[ebp]
	add	eax, 8

; 572  : 		}

	pop	ebp
	ret	0
?_Myval@?$_List_val@PAV?$Goal@VAbstRaven_Bot@@@@V?$allocator@PAV?$Goal@VAbstRaven_Bot@@@@@std@@@std@@SAAAPAV?$Goal@VAbstRaven_Bot@@@@PAU_Node@?$_List_nod@PAV?$Goal@VAbstRaven_Bot@@@@V?$allocator@PAV?$Goal@VAbstRaven_Bot@@@@@std@@@2@@Z ENDP ; std::_List_val<Goal<AbstRaven_Bot> *,std::allocator<Goal<AbstRaven_Bot> *> >::_Myval
_TEXT	ENDS
PUBLIC	??0?$_List_unchecked_const_iterator@V?$_List_val@PAV?$Goal@VAbstRaven_Bot@@@@V?$allocator@PAV?$Goal@VAbstRaven_Bot@@@@@std@@@std@@U_Iterator_base12@2@@std@@QAE@PAU_Node@?$_List_nod@PAV?$Goal@VAbstRaven_Bot@@@@V?$allocator@PAV?$Goal@VAbstRaven_Bot@@@@@std@@@1@PBV?$_List_val@PAV?$Goal@VAbstRaven_Bot@@@@V?$allocator@PAV?$Goal@VAbstRaven_Bot@@@@@std@@@1@@Z ; std::_List_unchecked_const_iterator<std::_List_val<Goal<AbstRaven_Bot> *,std::allocator<Goal<AbstRaven_Bot> *> >,std::_Iterator_base12>::_List_unchecked_const_iterator<std::_List_val<Goal<AbstRaven_Bot> *,std::allocator<Goal<AbstRaven_Bot> *> >,std::_Iterator_base12>
; Function compile flags: /Odtp /RTCsu
;	COMDAT ??0?$_List_const_iterator@V?$_List_val@PAV?$Goal@VAbstRaven_Bot@@@@V?$allocator@PAV?$Goal@VAbstRaven_Bot@@@@@std@@@std@@@std@@QAE@PAU_Node@?$_List_nod@PAV?$Goal@VAbstRaven_Bot@@@@V?$allocator@PAV?$Goal@VAbstRaven_Bot@@@@@std@@@1@PBV?$_List_val@PAV?$Goal@VAbstRaven_Bot@@@@V?$allocator@PAV?$Goal@VAbstRaven_Bot@@@@@std@@@1@@Z
_TEXT	SEGMENT
_this$ = -4						; size = 4
__Pnode$ = 8						; size = 4
__Plist$ = 12						; size = 4
??0?$_List_const_iterator@V?$_List_val@PAV?$Goal@VAbstRaven_Bot@@@@V?$allocator@PAV?$Goal@VAbstRaven_Bot@@@@@std@@@std@@@std@@QAE@PAU_Node@?$_List_nod@PAV?$Goal@VAbstRaven_Bot@@@@V?$allocator@PAV?$Goal@VAbstRaven_Bot@@@@@std@@@1@PBV?$_List_val@PAV?$Goal@VAbstRaven_Bot@@@@V?$allocator@PAV?$Goal@VAbstRaven_Bot@@@@@std@@@1@@Z PROC ; std::_List_const_iterator<std::_List_val<Goal<AbstRaven_Bot> *,std::allocator<Goal<AbstRaven_Bot> *> > >::_List_const_iterator<std::_List_val<Goal<AbstRaven_Bot> *,std::allocator<Goal<AbstRaven_Bot> *> > >, COMDAT
; _this$ = ecx

; 184  : 		{	// construct with node pointer _Pnode

	push	ebp
	mov	ebp, esp
	push	ecx
	mov	DWORD PTR [ebp-4], -858993460		; ccccccccH
	mov	DWORD PTR _this$[ebp], ecx
	mov	eax, DWORD PTR __Plist$[ebp]
	push	eax
	mov	ecx, DWORD PTR __Pnode$[ebp]
	push	ecx
	mov	ecx, DWORD PTR _this$[ebp]
	call	??0?$_List_unchecked_const_iterator@V?$_List_val@PAV?$Goal@VAbstRaven_Bot@@@@V?$allocator@PAV?$Goal@VAbstRaven_Bot@@@@@std@@@std@@U_Iterator_base12@2@@std@@QAE@PAU_Node@?$_List_nod@PAV?$Goal@VAbstRaven_Bot@@@@V?$allocator@PAV?$Goal@VAbstRaven_Bot@@@@@std@@@1@PBV?$_List_val@PAV?$Goal@VAbstRaven_Bot@@@@V?$allocator@PAV?$Goal@VAbstRaven_Bot@@@@@std@@@1@@Z ; std::_List_unchecked_const_iterator<std::_List_val<Goal<AbstRaven_Bot> *,std::allocator<Goal<AbstRaven_Bot> *> >,std::_Iterator_base12>::_List_unchecked_const_iterator<std::_List_val<Goal<AbstRaven_Bot> *,std::allocator<Goal<AbstRaven_Bot> *> >,std::_Iterator_base12>

; 185  : 		}

	mov	eax, DWORD PTR _this$[ebp]
	add	esp, 4
	cmp	ebp, esp
	call	__RTC_CheckEsp
	mov	esp, ebp
	pop	ebp
	ret	8
??0?$_List_const_iterator@V?$_List_val@PAV?$Goal@VAbstRaven_Bot@@@@V?$allocator@PAV?$Goal@VAbstRaven_Bot@@@@@std@@@std@@@std@@QAE@PAU_Node@?$_List_nod@PAV?$Goal@VAbstRaven_Bot@@@@V?$allocator@PAV?$Goal@VAbstRaven_Bot@@@@@std@@@1@PBV?$_List_val@PAV?$Goal@VAbstRaven_Bot@@@@V?$allocator@PAV?$Goal@VAbstRaven_Bot@@@@@std@@@1@@Z ENDP ; std::_List_const_iterator<std::_List_val<Goal<AbstRaven_Bot> *,std::allocator<Goal<AbstRaven_Bot> *> > >::_List_const_iterator<std::_List_val<Goal<AbstRaven_Bot> *,std::allocator<Goal<AbstRaven_Bot> *> > >
_TEXT	ENDS
;	COMDAT xdata$x
xdata$x	SEGMENT
__unwindtable$??E?$_List_const_iterator@V?$_List_val@PAV?$Goal@VAbstRaven_Bot@@@@V?$allocator@PAV?$Goal@VAbstRaven_Bot@@@@@std@@@std@@@std@@QAE?AV01@H@Z DD 0ffffffffH
	DD	FLAT:__unwindfunclet$??E?$_List_const_iterator@V?$_List_val@PAV?$Goal@VAbstRaven_Bot@@@@V?$allocator@PAV?$Goal@VAbstRaven_Bot@@@@@std@@@std@@@std@@QAE?AV01@H@Z$1
	DD	00H
	DD	FLAT:__unwindfunclet$??E?$_List_const_iterator@V?$_List_val@PAV?$Goal@VAbstRaven_Bot@@@@V?$allocator@PAV?$Goal@VAbstRaven_Bot@@@@@std@@@std@@@std@@QAE?AV01@H@Z$0
__ehfuncinfo$??E?$_List_const_iterator@V?$_List_val@PAV?$Goal@VAbstRaven_Bot@@@@V?$allocator@PAV?$Goal@VAbstRaven_Bot@@@@@std@@@std@@@std@@QAE?AV01@H@Z DD 019930522H
	DD	02H
	DD	FLAT:__unwindtable$??E?$_List_const_iterator@V?$_List_val@PAV?$Goal@VAbstRaven_Bot@@@@V?$allocator@PAV?$Goal@VAbstRaven_Bot@@@@@std@@@std@@@std@@QAE?AV01@H@Z
	DD	2 DUP(00H)
	DD	2 DUP(00H)
	DD	00H
	DD	01H
; Function compile flags: /Odtp /RTCsu
xdata$x	ENDS
;	COMDAT ??E?$_List_const_iterator@V?$_List_val@PAV?$Goal@VAbstRaven_Bot@@@@V?$allocator@PAV?$Goal@VAbstRaven_Bot@@@@@std@@@std@@@std@@QAE?AV01@H@Z
_TEXT	SEGMENT
$T153471 = -40						; size = 4
__Tmp$ = -32						; size = 12
_this$ = -16						; size = 4
__$EHRec$ = -12						; size = 12
___$ReturnUdt$ = 8					; size = 4
___formal$ = 12						; size = 4
??E?$_List_const_iterator@V?$_List_val@PAV?$Goal@VAbstRaven_Bot@@@@V?$allocator@PAV?$Goal@VAbstRaven_Bot@@@@@std@@@std@@@std@@QAE?AV01@H@Z PROC ; std::_List_const_iterator<std::_List_val<Goal<AbstRaven_Bot> *,std::allocator<Goal<AbstRaven_Bot> *> > >::operator++, COMDAT
; _this$ = ecx

; 242  : 		{	// postincrement

	push	ebp
	mov	ebp, esp
	push	-1
	push	__ehhandler$??E?$_List_const_iterator@V?$_List_val@PAV?$Goal@VAbstRaven_Bot@@@@V?$allocator@PAV?$Goal@VAbstRaven_Bot@@@@@std@@@std@@@std@@QAE?AV01@H@Z
	mov	eax, DWORD PTR fs:0
	push	eax
	sub	esp, 28					; 0000001cH
	mov	eax, -858993460				; ccccccccH
	mov	DWORD PTR [ebp-40], eax
	mov	DWORD PTR [ebp-36], eax
	mov	DWORD PTR [ebp-32], eax
	mov	DWORD PTR [ebp-28], eax
	mov	DWORD PTR [ebp-24], eax
	mov	DWORD PTR [ebp-20], eax
	mov	DWORD PTR [ebp-16], eax
	mov	eax, DWORD PTR ___security_cookie
	xor	eax, ebp
	push	eax
	lea	eax, DWORD PTR __$EHRec$[ebp]
	mov	DWORD PTR fs:0, eax
	mov	DWORD PTR _this$[ebp], ecx
	mov	DWORD PTR $T153471[ebp], 0

; 243  : 		_Myiter _Tmp = *this;

	mov	eax, DWORD PTR _this$[ebp]
	push	eax
	lea	ecx, DWORD PTR __Tmp$[ebp]
	call	??0?$_List_const_iterator@V?$_List_val@PAV?$Goal@VAbstRaven_Bot@@@@V?$allocator@PAV?$Goal@VAbstRaven_Bot@@@@@std@@@std@@@std@@QAE@ABV01@@Z
	mov	DWORD PTR __$EHRec$[ebp+8], 1

; 244  : 		++*this;

	mov	ecx, DWORD PTR _this$[ebp]
	call	??E?$_List_const_iterator@V?$_List_val@PAV?$Goal@VAbstRaven_Bot@@@@V?$allocator@PAV?$Goal@VAbstRaven_Bot@@@@@std@@@std@@@std@@QAEAAV01@XZ ; std::_List_const_iterator<std::_List_val<Goal<AbstRaven_Bot> *,std::allocator<Goal<AbstRaven_Bot> *> > >::operator++

; 245  : 		return (_Tmp);

	lea	ecx, DWORD PTR __Tmp$[ebp]
	push	ecx
	mov	ecx, DWORD PTR ___$ReturnUdt$[ebp]
	call	??0?$_List_const_iterator@V?$_List_val@PAV?$Goal@VAbstRaven_Bot@@@@V?$allocator@PAV?$Goal@VAbstRaven_Bot@@@@@std@@@std@@@std@@QAE@ABV01@@Z
	mov	edx, DWORD PTR $T153471[ebp]
	or	edx, 1
	mov	DWORD PTR $T153471[ebp], edx
	mov	BYTE PTR __$EHRec$[ebp+8], 0
	lea	ecx, DWORD PTR __Tmp$[ebp]
	call	??1?$_List_const_iterator@V?$_List_val@PAV?$Goal@VAbstRaven_Bot@@@@V?$allocator@PAV?$Goal@VAbstRaven_Bot@@@@@std@@@std@@@std@@QAE@XZ
	mov	eax, DWORD PTR ___$ReturnUdt$[ebp]

; 246  : 		}

	push	edx
	mov	ecx, ebp
	push	eax
	lea	edx, DWORD PTR $LN9@operator@5
	call	@_RTC_CheckStackVars@8
	pop	eax
	pop	edx
	mov	ecx, DWORD PTR __$EHRec$[ebp]
	mov	DWORD PTR fs:0, ecx
	pop	ecx
	add	esp, 40					; 00000028H
	cmp	ebp, esp
	call	__RTC_CheckEsp
	mov	esp, ebp
	pop	ebp
	ret	8
$LN9@operator@5:
	DD	1
	DD	$LN8@operator@5
$LN8@operator@5:
	DD	-32					; ffffffe0H
	DD	12					; 0000000cH
	DD	$LN6@operator@5
$LN6@operator@5:
	DB	95					; 0000005fH
	DB	84					; 00000054H
	DB	109					; 0000006dH
	DB	112					; 00000070H
	DB	0
_TEXT	ENDS
;	COMDAT text$x
text$x	SEGMENT
__unwindfunclet$??E?$_List_const_iterator@V?$_List_val@PAV?$Goal@VAbstRaven_Bot@@@@V?$allocator@PAV?$Goal@VAbstRaven_Bot@@@@@std@@@std@@@std@@QAE?AV01@H@Z$0:
	lea	ecx, DWORD PTR __Tmp$[ebp]
	jmp	??1?$_List_const_iterator@V?$_List_val@PAV?$Goal@VAbstRaven_Bot@@@@V?$allocator@PAV?$Goal@VAbstRaven_Bot@@@@@std@@@std@@@std@@QAE@XZ
__unwindfunclet$??E?$_List_const_iterator@V?$_List_val@PAV?$Goal@VAbstRaven_Bot@@@@V?$allocator@PAV?$Goal@VAbstRaven_Bot@@@@@std@@@std@@@std@@QAE?AV01@H@Z$1:
	mov	eax, DWORD PTR $T153471[ebp]
	and	eax, 1
	je	$LN5@operator@5
	and	DWORD PTR $T153471[ebp], -2		; fffffffeH
	mov	ecx, DWORD PTR ___$ReturnUdt$[ebp]
	jmp	??1?$_List_const_iterator@V?$_List_val@PAV?$Goal@VAbstRaven_Bot@@@@V?$allocator@PAV?$Goal@VAbstRaven_Bot@@@@@std@@@std@@@std@@QAE@XZ
$LN5@operator@5:
	ret	0
__ehhandler$??E?$_List_const_iterator@V?$_List_val@PAV?$Goal@VAbstRaven_Bot@@@@V?$allocator@PAV?$Goal@VAbstRaven_Bot@@@@@std@@@std@@@std@@QAE?AV01@H@Z:
	mov	edx, DWORD PTR [esp+8]
	lea	eax, DWORD PTR [edx+12]
	mov	ecx, DWORD PTR [edx-32]
	xor	ecx, eax
	call	@__security_check_cookie@4
	mov	eax, OFFSET __ehfuncinfo$??E?$_List_const_iterator@V?$_List_val@PAV?$Goal@VAbstRaven_Bot@@@@V?$allocator@PAV?$Goal@VAbstRaven_Bot@@@@@std@@@std@@@std@@QAE?AV01@H@Z
	jmp	___CxxFrameHandler3
text$x	ENDS
??E?$_List_const_iterator@V?$_List_val@PAV?$Goal@VAbstRaven_Bot@@@@V?$allocator@PAV?$Goal@VAbstRaven_Bot@@@@@std@@@std@@@std@@QAE?AV01@H@Z ENDP ; std::_List_const_iterator<std::_List_val<Goal<AbstRaven_Bot> *,std::allocator<Goal<AbstRaven_Bot> *> > >::operator++
; Function compile flags: /Odtp /RTCsu
;	COMDAT ?_Mynode@?$_List_unchecked_const_iterator@V?$_List_val@PAV?$Goal@VAbstRaven_Bot@@@@V?$allocator@PAV?$Goal@VAbstRaven_Bot@@@@@std@@@std@@U_Iterator_base12@2@@std@@QBEPAU_Node@?$_List_nod@PAV?$Goal@VAbstRaven_Bot@@@@V?$allocator@PAV?$Goal@VAbstRaven_Bot@@@@@std@@@2@XZ
_TEXT	SEGMENT
_this$ = -4						; size = 4
?_Mynode@?$_List_unchecked_const_iterator@V?$_List_val@PAV?$Goal@VAbstRaven_Bot@@@@V?$allocator@PAV?$Goal@VAbstRaven_Bot@@@@@std@@@std@@U_Iterator_base12@2@@std@@QBEPAU_Node@?$_List_nod@PAV?$Goal@VAbstRaven_Bot@@@@V?$allocator@PAV?$Goal@VAbstRaven_Bot@@@@@std@@@2@XZ PROC ; std::_List_unchecked_const_iterator<std::_List_val<Goal<AbstRaven_Bot> *,std::allocator<Goal<AbstRaven_Bot> *> >,std::_Iterator_base12>::_Mynode, COMDAT
; _this$ = ecx

; 92   : 		{	// return node pointer

	push	ebp
	mov	ebp, esp
	push	ecx
	mov	DWORD PTR [ebp-4], -858993460		; ccccccccH
	mov	DWORD PTR _this$[ebp], ecx

; 93   : 		return (_Ptr);

	mov	eax, DWORD PTR _this$[ebp]
	mov	eax, DWORD PTR [eax+8]

; 94   : 		}

	mov	esp, ebp
	pop	ebp
	ret	0
?_Mynode@?$_List_unchecked_const_iterator@V?$_List_val@PAV?$Goal@VAbstRaven_Bot@@@@V?$allocator@PAV?$Goal@VAbstRaven_Bot@@@@@std@@@std@@U_Iterator_base12@2@@std@@QBEPAU_Node@?$_List_nod@PAV?$Goal@VAbstRaven_Bot@@@@V?$allocator@PAV?$Goal@VAbstRaven_Bot@@@@@std@@@2@XZ ENDP ; std::_List_unchecked_const_iterator<std::_List_val<Goal<AbstRaven_Bot> *,std::allocator<Goal<AbstRaven_Bot> *> >,std::_Iterator_base12>::_Mynode
_TEXT	ENDS
PUBLIC	??0?$_Iterator012@Ubidirectional_iterator_tag@std@@PAV?$Goal@VAbstRaven_Bot@@@@HPBQAV3@ABQAV3@U_Iterator_base12@2@@std@@QAE@XZ ; std::_Iterator012<std::bidirectional_iterator_tag,Goal<AbstRaven_Bot> *,int,Goal<AbstRaven_Bot> * const *,Goal<AbstRaven_Bot> * const &,std::_Iterator_base12>::_Iterator012<std::bidirectional_iterator_tag,Goal<AbstRaven_Bot> *,int,Goal<AbstRaven_Bot> * const *,Goal<AbstRaven_Bot> * const &,std::_Iterator_base12>
;	COMDAT xdata$x
xdata$x	SEGMENT
__unwindtable$??0?$_List_unchecked_const_iterator@V?$_List_val@PAV?$Goal@VAbstRaven_Bot@@@@V?$allocator@PAV?$Goal@VAbstRaven_Bot@@@@@std@@@std@@U_Iterator_base12@2@@std@@QAE@PAU_Node@?$_List_nod@PAV?$Goal@VAbstRaven_Bot@@@@V?$allocator@PAV?$Goal@VAbstRaven_Bot@@@@@std@@@1@PBV?$_List_val@PAV?$Goal@VAbstRaven_Bot@@@@V?$allocator@PAV?$Goal@VAbstRaven_Bot@@@@@std@@@1@@Z DD 0ffffffffH
