; Listing generated by Microsoft (R) Optimizing Compiler Version 16.00.40219.01 

	TITLE	C:\Users\Teaja\Documents\Artificial-Fun\LabRavenProjectTest\Raven\goals\Goal_Think.cpp
	.686P
	.XMM
	include listing.inc
	.model	flat

INCLUDELIB LIBCMTD
INCLUDELIB OLDNAMES

PUBLIC	?has_denorm@_Num_base@std@@2W4float_denorm_style@2@B ; std::_Num_base::has_denorm
PUBLIC	?has_denorm_loss@_Num_base@std@@2_NB		; std::_Num_base::has_denorm_loss
PUBLIC	?has_infinity@_Num_base@std@@2_NB		; std::_Num_base::has_infinity
PUBLIC	?has_quiet_NaN@_Num_base@std@@2_NB		; std::_Num_base::has_quiet_NaN
PUBLIC	?has_signaling_NaN@_Num_base@std@@2_NB		; std::_Num_base::has_signaling_NaN
PUBLIC	?is_bounded@_Num_base@std@@2_NB			; std::_Num_base::is_bounded
PUBLIC	?is_exact@_Num_base@std@@2_NB			; std::_Num_base::is_exact
PUBLIC	?is_iec559@_Num_base@std@@2_NB			; std::_Num_base::is_iec559
PUBLIC	?is_integer@_Num_base@std@@2_NB			; std::_Num_base::is_integer
PUBLIC	?is_modulo@_Num_base@std@@2_NB			; std::_Num_base::is_modulo
PUBLIC	?is_signed@_Num_base@std@@2_NB			; std::_Num_base::is_signed
PUBLIC	?is_specialized@_Num_base@std@@2_NB		; std::_Num_base::is_specialized
PUBLIC	?tinyness_before@_Num_base@std@@2_NB		; std::_Num_base::tinyness_before
PUBLIC	?traps@_Num_base@std@@2_NB			; std::_Num_base::traps
PUBLIC	?round_style@_Num_base@std@@2W4float_round_style@2@B ; std::_Num_base::round_style
PUBLIC	?digits@_Num_base@std@@2HB			; std::_Num_base::digits
PUBLIC	?digits10@_Num_base@std@@2HB			; std::_Num_base::digits10
PUBLIC	?max_digits10@_Num_base@std@@2HB		; std::_Num_base::max_digits10
PUBLIC	?max_exponent@_Num_base@std@@2HB		; std::_Num_base::max_exponent
PUBLIC	?max_exponent10@_Num_base@std@@2HB		; std::_Num_base::max_exponent10
PUBLIC	?min_exponent@_Num_base@std@@2HB		; std::_Num_base::min_exponent
PUBLIC	?min_exponent10@_Num_base@std@@2HB		; std::_Num_base::min_exponent10
PUBLIC	?radix@_Num_base@std@@2HB			; std::_Num_base::radix
PUBLIC	?is_bounded@_Num_int_base@std@@2_NB		; std::_Num_int_base::is_bounded
PUBLIC	?is_exact@_Num_int_base@std@@2_NB		; std::_Num_int_base::is_exact
PUBLIC	?is_integer@_Num_int_base@std@@2_NB		; std::_Num_int_base::is_integer
PUBLIC	?is_modulo@_Num_int_base@std@@2_NB		; std::_Num_int_base::is_modulo
PUBLIC	?is_specialized@_Num_int_base@std@@2_NB		; std::_Num_int_base::is_specialized
PUBLIC	?radix@_Num_int_base@std@@2HB			; std::_Num_int_base::radix
PUBLIC	?has_denorm@_Num_float_base@std@@2W4float_denorm_style@2@B ; std::_Num_float_base::has_denorm
PUBLIC	?has_denorm_loss@_Num_float_base@std@@2_NB	; std::_Num_float_base::has_denorm_loss
PUBLIC	?has_infinity@_Num_float_base@std@@2_NB		; std::_Num_float_base::has_infinity
PUBLIC	?has_quiet_NaN@_Num_float_base@std@@2_NB	; std::_Num_float_base::has_quiet_NaN
PUBLIC	?has_signaling_NaN@_Num_float_base@std@@2_NB	; std::_Num_float_base::has_signaling_NaN
PUBLIC	?is_bounded@_Num_float_base@std@@2_NB		; std::_Num_float_base::is_bounded
PUBLIC	?is_exact@_Num_float_base@std@@2_NB		; std::_Num_float_base::is_exact
PUBLIC	?is_iec559@_Num_float_base@std@@2_NB		; std::_Num_float_base::is_iec559
PUBLIC	?is_integer@_Num_float_base@std@@2_NB		; std::_Num_float_base::is_integer
PUBLIC	?is_modulo@_Num_float_base@std@@2_NB		; std::_Num_float_base::is_modulo
PUBLIC	?is_signed@_Num_float_base@std@@2_NB		; std::_Num_float_base::is_signed
PUBLIC	?is_specialized@_Num_float_base@std@@2_NB	; std::_Num_float_base::is_specialized
PUBLIC	?tinyness_before@_Num_float_base@std@@2_NB	; std::_Num_float_base::tinyness_before
PUBLIC	?traps@_Num_float_base@std@@2_NB		; std::_Num_float_base::traps
PUBLIC	?round_style@_Num_float_base@std@@2W4float_round_style@2@B ; std::_Num_float_base::round_style
PUBLIC	?radix@_Num_float_base@std@@2HB			; std::_Num_float_base::radix
PUBLIC	?is_signed@?$numeric_limits@D@std@@2_NB		; std::numeric_limits<char>::is_signed
PUBLIC	?digits@?$numeric_limits@D@std@@2HB		; std::numeric_limits<char>::digits
PUBLIC	?digits10@?$numeric_limits@D@std@@2HB		; std::numeric_limits<char>::digits10
PUBLIC	?max_digits10@?$numeric_limits@D@std@@2HB	; std::numeric_limits<char>::max_digits10
PUBLIC	?is_signed@?$numeric_limits@_W@std@@2_NB	; std::numeric_limits<wchar_t>::is_signed
PUBLIC	?digits@?$numeric_limits@_W@std@@2HB		; std::numeric_limits<wchar_t>::digits
PUBLIC	?digits10@?$numeric_limits@_W@std@@2HB		; std::numeric_limits<wchar_t>::digits10
PUBLIC	?max_digits10@?$numeric_limits@_W@std@@2HB	; std::numeric_limits<wchar_t>::max_digits10
PUBLIC	?is_modulo@?$numeric_limits@_N@std@@2_NB	; std::numeric_limits<bool>::is_modulo
PUBLIC	?is_signed@?$numeric_limits@_N@std@@2_NB	; std::numeric_limits<bool>::is_signed
PUBLIC	?digits@?$numeric_limits@_N@std@@2HB		; std::numeric_limits<bool>::digits
PUBLIC	?digits10@?$numeric_limits@_N@std@@2HB		; std::numeric_limits<bool>::digits10
PUBLIC	?max_digits10@?$numeric_limits@_N@std@@2HB	; std::numeric_limits<bool>::max_digits10
PUBLIC	?is_signed@?$numeric_limits@C@std@@2_NB		; std::numeric_limits<signed char>::is_signed
PUBLIC	?digits@?$numeric_limits@C@std@@2HB		; std::numeric_limits<signed char>::digits
PUBLIC	?digits10@?$numeric_limits@C@std@@2HB		; std::numeric_limits<signed char>::digits10
PUBLIC	?max_digits10@?$numeric_limits@C@std@@2HB	; std::numeric_limits<signed char>::max_digits10
PUBLIC	?is_signed@?$numeric_limits@E@std@@2_NB		; std::numeric_limits<unsigned char>::is_signed
PUBLIC	?digits@?$numeric_limits@E@std@@2HB		; std::numeric_limits<unsigned char>::digits
PUBLIC	?digits10@?$numeric_limits@E@std@@2HB		; std::numeric_limits<unsigned char>::digits10
PUBLIC	?max_digits10@?$numeric_limits@E@std@@2HB	; std::numeric_limits<unsigned char>::max_digits10
PUBLIC	?is_signed@?$numeric_limits@F@std@@2_NB		; std::numeric_limits<short>::is_signed
PUBLIC	?digits@?$numeric_limits@F@std@@2HB		; std::numeric_limits<short>::digits
PUBLIC	?digits10@?$numeric_limits@F@std@@2HB		; std::numeric_limits<short>::digits10
PUBLIC	?max_digits10@?$numeric_limits@F@std@@2HB	; std::numeric_limits<short>::max_digits10
PUBLIC	?is_signed@?$numeric_limits@G@std@@2_NB		; std::numeric_limits<unsigned short>::is_signed
PUBLIC	?digits@?$numeric_limits@G@std@@2HB		; std::numeric_limits<unsigned short>::digits
PUBLIC	?digits10@?$numeric_limits@G@std@@2HB		; std::numeric_limits<unsigned short>::digits10
PUBLIC	?max_digits10@?$numeric_limits@G@std@@2HB	; std::numeric_limits<unsigned short>::max_digits10
PUBLIC	?is_signed@?$numeric_limits@H@std@@2_NB		; std::numeric_limits<int>::is_signed
PUBLIC	?digits@?$numeric_limits@H@std@@2HB		; std::numeric_limits<int>::digits
PUBLIC	?digits10@?$numeric_limits@H@std@@2HB		; std::numeric_limits<int>::digits10
PUBLIC	?max_digits10@?$numeric_limits@H@std@@2HB	; std::numeric_limits<int>::max_digits10
PUBLIC	?is_signed@?$numeric_limits@I@std@@2_NB		; std::numeric_limits<unsigned int>::is_signed
PUBLIC	?digits@?$numeric_limits@I@std@@2HB		; std::numeric_limits<unsigned int>::digits
PUBLIC	?digits10@?$numeric_limits@I@std@@2HB		; std::numeric_limits<unsigned int>::digits10
PUBLIC	?max_digits10@?$numeric_limits@I@std@@2HB	; std::numeric_limits<unsigned int>::max_digits10
PUBLIC	?is_signed@?$numeric_limits@J@std@@2_NB		; std::numeric_limits<long>::is_signed
PUBLIC	?digits@?$numeric_limits@J@std@@2HB		; std::numeric_limits<long>::digits
PUBLIC	?digits10@?$numeric_limits@J@std@@2HB		; std::numeric_limits<long>::digits10
PUBLIC	?max_digits10@?$numeric_limits@J@std@@2HB	; std::numeric_limits<long>::max_digits10
PUBLIC	?is_signed@?$numeric_limits@K@std@@2_NB		; std::numeric_limits<unsigned long>::is_signed
PUBLIC	?digits@?$numeric_limits@K@std@@2HB		; std::numeric_limits<unsigned long>::digits
PUBLIC	?digits10@?$numeric_limits@K@std@@2HB		; std::numeric_limits<unsigned long>::digits10
PUBLIC	?max_digits10@?$numeric_limits@K@std@@2HB	; std::numeric_limits<unsigned long>::max_digits10
PUBLIC	?is_signed@?$numeric_limits@_J@std@@2_NB	; std::numeric_limits<__int64>::is_signed
PUBLIC	?digits@?$numeric_limits@_J@std@@2HB		; std::numeric_limits<__int64>::digits
PUBLIC	?digits10@?$numeric_limits@_J@std@@2HB		; std::numeric_limits<__int64>::digits10
PUBLIC	?max_digits10@?$numeric_limits@_J@std@@2HB	; std::numeric_limits<__int64>::max_digits10
PUBLIC	?is_signed@?$numeric_limits@_K@std@@2_NB	; std::numeric_limits<unsigned __int64>::is_signed
PUBLIC	?digits@?$numeric_limits@_K@std@@2HB		; std::numeric_limits<unsigned __int64>::digits
PUBLIC	?digits10@?$numeric_limits@_K@std@@2HB		; std::numeric_limits<unsigned __int64>::digits10
PUBLIC	?max_digits10@?$numeric_limits@_K@std@@2HB	; std::numeric_limits<unsigned __int64>::max_digits10
PUBLIC	?digits@?$numeric_limits@M@std@@2HB		; std::numeric_limits<float>::digits
PUBLIC	?digits10@?$numeric_limits@M@std@@2HB		; std::numeric_limits<float>::digits10
PUBLIC	?max_digits10@?$numeric_limits@M@std@@2HB	; std::numeric_limits<float>::max_digits10
PUBLIC	?max_exponent@?$numeric_limits@M@std@@2HB	; std::numeric_limits<float>::max_exponent
PUBLIC	?max_exponent10@?$numeric_limits@M@std@@2HB	; std::numeric_limits<float>::max_exponent10
PUBLIC	?min_exponent@?$numeric_limits@M@std@@2HB	; std::numeric_limits<float>::min_exponent
PUBLIC	?min_exponent10@?$numeric_limits@M@std@@2HB	; std::numeric_limits<float>::min_exponent10
PUBLIC	?digits@?$numeric_limits@N@std@@2HB		; std::numeric_limits<double>::digits
PUBLIC	?digits10@?$numeric_limits@N@std@@2HB		; std::numeric_limits<double>::digits10
PUBLIC	?max_digits10@?$numeric_limits@N@std@@2HB	; std::numeric_limits<double>::max_digits10
PUBLIC	?max_exponent@?$numeric_limits@N@std@@2HB	; std::numeric_limits<double>::max_exponent
PUBLIC	?max_exponent10@?$numeric_limits@N@std@@2HB	; std::numeric_limits<double>::max_exponent10
PUBLIC	?min_exponent@?$numeric_limits@N@std@@2HB	; std::numeric_limits<double>::min_exponent
PUBLIC	?min_exponent10@?$numeric_limits@N@std@@2HB	; std::numeric_limits<double>::min_exponent10
PUBLIC	?digits@?$numeric_limits@O@std@@2HB		; std::numeric_limits<long double>::digits
PUBLIC	?digits10@?$numeric_limits@O@std@@2HB		; std::numeric_limits<long double>::digits10
PUBLIC	?max_digits10@?$numeric_limits@O@std@@2HB	; std::numeric_limits<long double>::max_digits10
PUBLIC	?max_exponent@?$numeric_limits@O@std@@2HB	; std::numeric_limits<long double>::max_exponent
PUBLIC	?max_exponent10@?$numeric_limits@O@std@@2HB	; std::numeric_limits<long double>::max_exponent10
PUBLIC	?min_exponent@?$numeric_limits@O@std@@2HB	; std::numeric_limits<long double>::min_exponent
PUBLIC	?min_exponent10@?$numeric_limits@O@std@@2HB	; std::numeric_limits<long double>::min_exponent10
PUBLIC	?value@?$integral_constant@_N$0A@@tr1@std@@2_NB	; std::tr1::integral_constant<bool,0>::value
PUBLIC	?value@?$integral_constant@_N$00@tr1@std@@2_NB	; std::tr1::integral_constant<bool,1>::value
PUBLIC	?value@?$integral_constant@I$0A@@tr1@std@@2IB	; std::tr1::integral_constant<unsigned int,0>::value
PUBLIC	?_Rank@?$_Arithmetic_traits@_N@std@@2HB		; std::_Arithmetic_traits<bool>::_Rank
PUBLIC	?_Rank@?$_Arithmetic_traits@D@std@@2HB		; std::_Arithmetic_traits<char>::_Rank
PUBLIC	?_Rank@?$_Arithmetic_traits@C@std@@2HB		; std::_Arithmetic_traits<signed char>::_Rank
PUBLIC	?_Rank@?$_Arithmetic_traits@E@std@@2HB		; std::_Arithmetic_traits<unsigned char>::_Rank
PUBLIC	?_Rank@?$_Arithmetic_traits@F@std@@2HB		; std::_Arithmetic_traits<short>::_Rank
PUBLIC	?_Rank@?$_Arithmetic_traits@G@std@@2HB		; std::_Arithmetic_traits<unsigned short>::_Rank
PUBLIC	?_Rank@?$_Arithmetic_traits@H@std@@2HB		; std::_Arithmetic_traits<int>::_Rank
PUBLIC	?_Rank@?$_Arithmetic_traits@I@std@@2HB		; std::_Arithmetic_traits<unsigned int>::_Rank
PUBLIC	?_Rank@?$_Arithmetic_traits@J@std@@2HB		; std::_Arithmetic_traits<long>::_Rank
PUBLIC	?_Rank@?$_Arithmetic_traits@K@std@@2HB		; std::_Arithmetic_traits<unsigned long>::_Rank
PUBLIC	?_Rank@?$_Arithmetic_traits@_J@std@@2HB		; std::_Arithmetic_traits<__int64>::_Rank
PUBLIC	?_Rank@?$_Arithmetic_traits@_K@std@@2HB		; std::_Arithmetic_traits<unsigned __int64>::_Rank
PUBLIC	?_Rank@?$_Arithmetic_traits@M@std@@2HB		; std::_Arithmetic_traits<float>::_Rank
PUBLIC	?_Rank@?$_Arithmetic_traits@N@std@@2HB		; std::_Arithmetic_traits<double>::_Rank
PUBLIC	?_Rank@?$_Arithmetic_traits@O@std@@2HB		; std::_Arithmetic_traits<long double>::_Rank
PUBLIC	?collate@?$_Locbase@H@std@@2HB			; std::_Locbase<int>::collate
PUBLIC	?ctype@?$_Locbase@H@std@@2HB			; std::_Locbase<int>::ctype
PUBLIC	?monetary@?$_Locbase@H@std@@2HB			; std::_Locbase<int>::monetary
PUBLIC	?numeric@?$_Locbase@H@std@@2HB			; std::_Locbase<int>::numeric
PUBLIC	?time@?$_Locbase@H@std@@2HB			; std::_Locbase<int>::time
PUBLIC	?messages@?$_Locbase@H@std@@2HB			; std::_Locbase<int>::messages
PUBLIC	?all@?$_Locbase@H@std@@2HB			; std::_Locbase<int>::all
PUBLIC	?none@?$_Locbase@H@std@@2HB			; std::_Locbase<int>::none
PUBLIC	?table_size@?$ctype@D@std@@2IB			; std::ctype<char>::table_size
PUBLIC	?skipws@?$_Iosb@H@std@@2W4_Fmtflags@12@B	; std::_Iosb<int>::skipws
PUBLIC	?unitbuf@?$_Iosb@H@std@@2W4_Fmtflags@12@B	; std::_Iosb<int>::unitbuf
PUBLIC	?uppercase@?$_Iosb@H@std@@2W4_Fmtflags@12@B	; std::_Iosb<int>::uppercase
PUBLIC	?showbase@?$_Iosb@H@std@@2W4_Fmtflags@12@B	; std::_Iosb<int>::showbase
PUBLIC	?showpoint@?$_Iosb@H@std@@2W4_Fmtflags@12@B	; std::_Iosb<int>::showpoint
PUBLIC	?showpos@?$_Iosb@H@std@@2W4_Fmtflags@12@B	; std::_Iosb<int>::showpos
PUBLIC	?left@?$_Iosb@H@std@@2W4_Fmtflags@12@B		; std::_Iosb<int>::left
PUBLIC	?right@?$_Iosb@H@std@@2W4_Fmtflags@12@B		; std::_Iosb<int>::right
PUBLIC	?internal@?$_Iosb@H@std@@2W4_Fmtflags@12@B	; std::_Iosb<int>::internal
PUBLIC	?dec@?$_Iosb@H@std@@2W4_Fmtflags@12@B		; std::_Iosb<int>::dec
PUBLIC	?oct@?$_Iosb@H@std@@2W4_Fmtflags@12@B		; std::_Iosb<int>::oct
PUBLIC	?hex@?$_Iosb@H@std@@2W4_Fmtflags@12@B		; std::_Iosb<int>::hex
PUBLIC	?scientific@?$_Iosb@H@std@@2W4_Fmtflags@12@B	; std::_Iosb<int>::scientific
PUBLIC	?fixed@?$_Iosb@H@std@@2W4_Fmtflags@12@B		; std::_Iosb<int>::fixed
PUBLIC	?hexfloat@?$_Iosb@H@std@@2W4_Fmtflags@12@B	; std::_Iosb<int>::hexfloat
PUBLIC	?boolalpha@?$_Iosb@H@std@@2W4_Fmtflags@12@B	; std::_Iosb<int>::boolalpha
PUBLIC	?_Stdio@?$_Iosb@H@std@@2W4_Fmtflags@12@B	; std::_Iosb<int>::_Stdio
PUBLIC	?adjustfield@?$_Iosb@H@std@@2W4_Fmtflags@12@B	; std::_Iosb<int>::adjustfield
PUBLIC	?basefield@?$_Iosb@H@std@@2W4_Fmtflags@12@B	; std::_Iosb<int>::basefield
PUBLIC	?floatfield@?$_Iosb@H@std@@2W4_Fmtflags@12@B	; std::_Iosb<int>::floatfield
PUBLIC	?goodbit@?$_Iosb@H@std@@2W4_Iostate@12@B	; std::_Iosb<int>::goodbit
PUBLIC	?eofbit@?$_Iosb@H@std@@2W4_Iostate@12@B		; std::_Iosb<int>::eofbit
PUBLIC	?failbit@?$_Iosb@H@std@@2W4_Iostate@12@B	; std::_Iosb<int>::failbit
PUBLIC	?badbit@?$_Iosb@H@std@@2W4_Iostate@12@B		; std::_Iosb<int>::badbit
PUBLIC	?_Hardfail@?$_Iosb@H@std@@2W4_Iostate@12@B	; std::_Iosb<int>::_Hardfail
PUBLIC	?in@?$_Iosb@H@std@@2W4_Openmode@12@B		; std::_Iosb<int>::in
PUBLIC	?out@?$_Iosb@H@std@@2W4_Openmode@12@B		; std::_Iosb<int>::out
PUBLIC	?ate@?$_Iosb@H@std@@2W4_Openmode@12@B		; std::_Iosb<int>::ate
PUBLIC	?app@?$_Iosb@H@std@@2W4_Openmode@12@B		; std::_Iosb<int>::app
PUBLIC	?trunc@?$_Iosb@H@std@@2W4_Openmode@12@B		; std::_Iosb<int>::trunc
PUBLIC	?_Nocreate@?$_Iosb@H@std@@2W4_Openmode@12@B	; std::_Iosb<int>::_Nocreate
PUBLIC	?_Noreplace@?$_Iosb@H@std@@2W4_Openmode@12@B	; std::_Iosb<int>::_Noreplace
PUBLIC	?binary@?$_Iosb@H@std@@2W4_Openmode@12@B	; std::_Iosb<int>::binary
PUBLIC	?beg@?$_Iosb@H@std@@2W4_Seekdir@12@B		; std::_Iosb<int>::beg
PUBLIC	?cur@?$_Iosb@H@std@@2W4_Seekdir@12@B		; std::_Iosb<int>::cur
PUBLIC	?end@?$_Iosb@H@std@@2W4_Seekdir@12@B		; std::_Iosb<int>::end
CONST	SEGMENT
_Pi	DQ	0400921f9f01b866er		; 3.14159
_colors	DD	0ffH
	DD	0ff0000H
	DD	0ff00H
	DD	00H
	DD	0c8c8ffH
	DD	0c8c8c8H
	DD	0ffffH
	DD	0aaffH
	DD	0aa00ffH
	DD	05a85H
	DD	0ffffffH
	DD	06400H
	DD	0ffff00H
	DD	0c8c8c8H
	DD	0e6e6ffH
$SG132993 DB	'g', 00H, 'o', 00H, 'a', 00H, 'l', 00H, 's', 00H, '\', 00H
	DB	'G', 00H, 'o', 00H, 'a', 00H, 'l', 00H, '_', 00H, 'T', 00H, 'h'
	DB	00H, 'i', 00H, 'n', 00H, 'k', 00H, '.', 00H, 'c', 00H, 'p', 00H
	DB	'p', 00H, 00H, 00H
	ORG $+2
_pi	DQ	0400921f9f01b866er		; 3.14159
$SG132992 DB	'<Goal_Think::Arbitrate>: no evaluator selected', 00H
	ORG $+1
$SG132994 DB	'M', 00H, 'o', 00H, 's', 00H, 't', 00H, 'D', 00H, 'e', 00H
	DB	's', 00H, 'i', 00H, 'r', 00H, 'a', 00H, 'b', 00H, 'l', 00H, 'e'
	DB	00H, ' ', 00H, '&', 00H, '&', 00H, ' ', 00H, '"', 00H, '<', 00H
	DB	'G', 00H, 'o', 00H, 'a', 00H, 'l', 00H, '_', 00H, 'T', 00H, 'h'
	DB	00H, 'i', 00H, 'n', 00H, 'k', 00H, ':', 00H, ':', 00H, 'A', 00H
	DB	'r', 00H, 'b', 00H, 'i', 00H, 't', 00H, 'r', 00H, 'a', 00H, 't'
	DB	00H, 'e', 00H, '>', 00H, ':', 00H, ' ', 00H, 'n', 00H, 'o', 00H
	DB	' ', 00H, 'e', 00H, 'v', 00H, 'a', 00H, 'l', 00H, 'u', 00H, 'a'
	DB	00H, 't', 00H, 'o', 00H, 'r', 00H, ' ', 00H, 's', 00H, 'e', 00H
	DB	'l', 00H, 'e', 00H, 'c', 00H, 't', 00H, 'e', 00H, 'd', 00H, '"'
	DB	00H, 00H, 00H
CONST	ENDS
;	COMDAT ?end@?$_Iosb@H@std@@2W4_Seekdir@12@B
CONST	SEGMENT
?end@?$_Iosb@H@std@@2W4_Seekdir@12@B DD 02H		; std::_Iosb<int>::end
CONST	ENDS
;	COMDAT ?cur@?$_Iosb@H@std@@2W4_Seekdir@12@B
CONST	SEGMENT
?cur@?$_Iosb@H@std@@2W4_Seekdir@12@B DD 01H		; std::_Iosb<int>::cur
CONST	ENDS
;	COMDAT ?beg@?$_Iosb@H@std@@2W4_Seekdir@12@B
CONST	SEGMENT
?beg@?$_Iosb@H@std@@2W4_Seekdir@12@B DD 00H		; std::_Iosb<int>::beg
CONST	ENDS
;	COMDAT ?binary@?$_Iosb@H@std@@2W4_Openmode@12@B
CONST	SEGMENT
?binary@?$_Iosb@H@std@@2W4_Openmode@12@B DD 020H	; std::_Iosb<int>::binary
CONST	ENDS
;	COMDAT ?_Noreplace@?$_Iosb@H@std@@2W4_Openmode@12@B
CONST	SEGMENT
?_Noreplace@?$_Iosb@H@std@@2W4_Openmode@12@B DD 080H	; std::_Iosb<int>::_Noreplace
CONST	ENDS
;	COMDAT ?_Nocreate@?$_Iosb@H@std@@2W4_Openmode@12@B
CONST	SEGMENT
?_Nocreate@?$_Iosb@H@std@@2W4_Openmode@12@B DD 040H	; std::_Iosb<int>::_Nocreate
CONST	ENDS
;	COMDAT ?trunc@?$_Iosb@H@std@@2W4_Openmode@12@B
CONST	SEGMENT
?trunc@?$_Iosb@H@std@@2W4_Openmode@12@B DD 010H		; std::_Iosb<int>::trunc
CONST	ENDS
;	COMDAT ?app@?$_Iosb@H@std@@2W4_Openmode@12@B
CONST	SEGMENT
?app@?$_Iosb@H@std@@2W4_Openmode@12@B DD 08H		; std::_Iosb<int>::app
CONST	ENDS
;	COMDAT ?ate@?$_Iosb@H@std@@2W4_Openmode@12@B
CONST	SEGMENT
?ate@?$_Iosb@H@std@@2W4_Openmode@12@B DD 04H		; std::_Iosb<int>::ate
CONST	ENDS
;	COMDAT ?out@?$_Iosb@H@std@@2W4_Openmode@12@B
CONST	SEGMENT
?out@?$_Iosb@H@std@@2W4_Openmode@12@B DD 02H		; std::_Iosb<int>::out
CONST	ENDS
;	COMDAT ?in@?$_Iosb@H@std@@2W4_Openmode@12@B
CONST	SEGMENT
?in@?$_Iosb@H@std@@2W4_Openmode@12@B DD 01H		; std::_Iosb<int>::in
CONST	ENDS
;	COMDAT ?_Hardfail@?$_Iosb@H@std@@2W4_Iostate@12@B
CONST	SEGMENT
?_Hardfail@?$_Iosb@H@std@@2W4_Iostate@12@B DD 010H	; std::_Iosb<int>::_Hardfail
CONST	ENDS
;	COMDAT ?badbit@?$_Iosb@H@std@@2W4_Iostate@12@B
CONST	SEGMENT
?badbit@?$_Iosb@H@std@@2W4_Iostate@12@B DD 04H		; std::_Iosb<int>::badbit
CONST	ENDS
;	COMDAT ?failbit@?$_Iosb@H@std@@2W4_Iostate@12@B
CONST	SEGMENT
?failbit@?$_Iosb@H@std@@2W4_Iostate@12@B DD 02H		; std::_Iosb<int>::failbit
CONST	ENDS
;	COMDAT ?eofbit@?$_Iosb@H@std@@2W4_Iostate@12@B
CONST	SEGMENT
?eofbit@?$_Iosb@H@std@@2W4_Iostate@12@B DD 01H		; std::_Iosb<int>::eofbit
CONST	ENDS
;	COMDAT ?goodbit@?$_Iosb@H@std@@2W4_Iostate@12@B
CONST	SEGMENT
?goodbit@?$_Iosb@H@std@@2W4_Iostate@12@B DD 00H		; std::_Iosb<int>::goodbit
CONST	ENDS
;	COMDAT ?floatfield@?$_Iosb@H@std@@2W4_Fmtflags@12@B
CONST	SEGMENT
?floatfield@?$_Iosb@H@std@@2W4_Fmtflags@12@B DD 03000H	; std::_Iosb<int>::floatfield
CONST	ENDS
;	COMDAT ?basefield@?$_Iosb@H@std@@2W4_Fmtflags@12@B
CONST	SEGMENT
?basefield@?$_Iosb@H@std@@2W4_Fmtflags@12@B DD 0e00H	; std::_Iosb<int>::basefield
CONST	ENDS
;	COMDAT ?adjustfield@?$_Iosb@H@std@@2W4_Fmtflags@12@B
CONST	SEGMENT
?adjustfield@?$_Iosb@H@std@@2W4_Fmtflags@12@B DD 01c0H	; std::_Iosb<int>::adjustfield
CONST	ENDS
;	COMDAT ?_Stdio@?$_Iosb@H@std@@2W4_Fmtflags@12@B
CONST	SEGMENT
?_Stdio@?$_Iosb@H@std@@2W4_Fmtflags@12@B DD 08000H	; std::_Iosb<int>::_Stdio
CONST	ENDS
;	COMDAT ?boolalpha@?$_Iosb@H@std@@2W4_Fmtflags@12@B
CONST	SEGMENT
?boolalpha@?$_Iosb@H@std@@2W4_Fmtflags@12@B DD 04000H	; std::_Iosb<int>::boolalpha
CONST	ENDS
;	COMDAT ?hexfloat@?$_Iosb@H@std@@2W4_Fmtflags@12@B
CONST	SEGMENT
?hexfloat@?$_Iosb@H@std@@2W4_Fmtflags@12@B DD 03000H	; std::_Iosb<int>::hexfloat
CONST	ENDS
;	COMDAT ?fixed@?$_Iosb@H@std@@2W4_Fmtflags@12@B
CONST	SEGMENT
?fixed@?$_Iosb@H@std@@2W4_Fmtflags@12@B DD 02000H	; std::_Iosb<int>::fixed
CONST	ENDS
;	COMDAT ?scientific@?$_Iosb@H@std@@2W4_Fmtflags@12@B
CONST	SEGMENT
?scientific@?$_Iosb@H@std@@2W4_Fmtflags@12@B DD 01000H	; std::_Iosb<int>::scientific
CONST	ENDS
;	COMDAT ?hex@?$_Iosb@H@std@@2W4_Fmtflags@12@B
CONST	SEGMENT
?hex@?$_Iosb@H@std@@2W4_Fmtflags@12@B DD 0800H		; std::_Iosb<int>::hex
CONST	ENDS
;	COMDAT ?oct@?$_Iosb@H@std@@2W4_Fmtflags@12@B
CONST	SEGMENT
?oct@?$_Iosb@H@std@@2W4_Fmtflags@12@B DD 0400H		; std::_Iosb<int>::oct
CONST	ENDS
;	COMDAT ?dec@?$_Iosb@H@std@@2W4_Fmtflags@12@B
CONST	SEGMENT
?dec@?$_Iosb@H@std@@2W4_Fmtflags@12@B DD 0200H		; std::_Iosb<int>::dec
CONST	ENDS
;	COMDAT ?internal@?$_Iosb@H@std@@2W4_Fmtflags@12@B
CONST	SEGMENT
?internal@?$_Iosb@H@std@@2W4_Fmtflags@12@B DD 0100H	; std::_Iosb<int>::internal
CONST	ENDS
;	COMDAT ?right@?$_Iosb@H@std@@2W4_Fmtflags@12@B
CONST	SEGMENT
?right@?$_Iosb@H@std@@2W4_Fmtflags@12@B DD 080H		; std::_Iosb<int>::right
CONST	ENDS
;	COMDAT ?left@?$_Iosb@H@std@@2W4_Fmtflags@12@B
CONST	SEGMENT
?left@?$_Iosb@H@std@@2W4_Fmtflags@12@B DD 040H		; std::_Iosb<int>::left
CONST	ENDS
;	COMDAT ?showpos@?$_Iosb@H@std@@2W4_Fmtflags@12@B
CONST	SEGMENT
?showpos@?$_Iosb@H@std@@2W4_Fmtflags@12@B DD 020H	; std::_Iosb<int>::showpos
CONST	ENDS
;	COMDAT ?showpoint@?$_Iosb@H@std@@2W4_Fmtflags@12@B
CONST	SEGMENT
?showpoint@?$_Iosb@H@std@@2W4_Fmtflags@12@B DD 010H	; std::_Iosb<int>::showpoint
CONST	ENDS
;	COMDAT ?showbase@?$_Iosb@H@std@@2W4_Fmtflags@12@B
CONST	SEGMENT
?showbase@?$_Iosb@H@std@@2W4_Fmtflags@12@B DD 08H	; std::_Iosb<int>::showbase
CONST	ENDS
;	COMDAT ?uppercase@?$_Iosb@H@std@@2W4_Fmtflags@12@B
CONST	SEGMENT
?uppercase@?$_Iosb@H@std@@2W4_Fmtflags@12@B DD 04H	; std::_Iosb<int>::uppercase
CONST	ENDS
;	COMDAT ?unitbuf@?$_Iosb@H@std@@2W4_Fmtflags@12@B
CONST	SEGMENT
?unitbuf@?$_Iosb@H@std@@2W4_Fmtflags@12@B DD 02H	; std::_Iosb<int>::unitbuf
CONST	ENDS
;	COMDAT ?skipws@?$_Iosb@H@std@@2W4_Fmtflags@12@B
CONST	SEGMENT
?skipws@?$_Iosb@H@std@@2W4_Fmtflags@12@B DD 01H		; std::_Iosb<int>::skipws
CONST	ENDS
;	COMDAT ?table_size@?$ctype@D@std@@2IB
CONST	SEGMENT
?table_size@?$ctype@D@std@@2IB DD 0100H			; std::ctype<char>::table_size
CONST	ENDS
;	COMDAT ?none@?$_Locbase@H@std@@2HB
CONST	SEGMENT
?none@?$_Locbase@H@std@@2HB DD 00H			; std::_Locbase<int>::none
CONST	ENDS
;	COMDAT ?all@?$_Locbase@H@std@@2HB
CONST	SEGMENT
?all@?$_Locbase@H@std@@2HB DD 03fH			; std::_Locbase<int>::all
CONST	ENDS
;	COMDAT ?messages@?$_Locbase@H@std@@2HB
CONST	SEGMENT
?messages@?$_Locbase@H@std@@2HB DD 020H			; std::_Locbase<int>::messages
CONST	ENDS
;	COMDAT ?time@?$_Locbase@H@std@@2HB
CONST	SEGMENT
?time@?$_Locbase@H@std@@2HB DD 010H			; std::_Locbase<int>::time
CONST	ENDS
;	COMDAT ?numeric@?$_Locbase@H@std@@2HB
CONST	SEGMENT
?numeric@?$_Locbase@H@std@@2HB DD 08H			; std::_Locbase<int>::numeric
CONST	ENDS
;	COMDAT ?monetary@?$_Locbase@H@std@@2HB
CONST	SEGMENT
?monetary@?$_Locbase@H@std@@2HB DD 04H			; std::_Locbase<int>::monetary
CONST	ENDS
;	COMDAT ?ctype@?$_Locbase@H@std@@2HB
CONST	SEGMENT
?ctype@?$_Locbase@H@std@@2HB DD 02H			; std::_Locbase<int>::ctype
CONST	ENDS
;	COMDAT ?collate@?$_Locbase@H@std@@2HB
CONST	SEGMENT
?collate@?$_Locbase@H@std@@2HB DD 01H			; std::_Locbase<int>::collate
CONST	ENDS
;	COMDAT ?_Rank@?$_Arithmetic_traits@O@std@@2HB
CONST	SEGMENT
?_Rank@?$_Arithmetic_traits@O@std@@2HB DD 09H		; std::_Arithmetic_traits<long double>::_Rank
CONST	ENDS
;	COMDAT ?_Rank@?$_Arithmetic_traits@N@std@@2HB
CONST	SEGMENT
?_Rank@?$_Arithmetic_traits@N@std@@2HB DD 08H		; std::_Arithmetic_traits<double>::_Rank
CONST	ENDS
;	COMDAT ?_Rank@?$_Arithmetic_traits@M@std@@2HB
CONST	SEGMENT
?_Rank@?$_Arithmetic_traits@M@std@@2HB DD 07H		; std::_Arithmetic_traits<float>::_Rank
CONST	ENDS
;	COMDAT ?_Rank@?$_Arithmetic_traits@_K@std@@2HB
CONST	SEGMENT
?_Rank@?$_Arithmetic_traits@_K@std@@2HB DD 06H		; std::_Arithmetic_traits<unsigned __int64>::_Rank
CONST	ENDS
;	COMDAT ?_Rank@?$_Arithmetic_traits@_J@std@@2HB
CONST	SEGMENT
?_Rank@?$_Arithmetic_traits@_J@std@@2HB DD 06H		; std::_Arithmetic_traits<__int64>::_Rank
CONST	ENDS
;	COMDAT ?_Rank@?$_Arithmetic_traits@K@std@@2HB
CONST	SEGMENT
?_Rank@?$_Arithmetic_traits@K@std@@2HB DD 05H		; std::_Arithmetic_traits<unsigned long>::_Rank
CONST	ENDS
;	COMDAT ?_Rank@?$_Arithmetic_traits@J@std@@2HB
CONST	SEGMENT
?_Rank@?$_Arithmetic_traits@J@std@@2HB DD 05H		; std::_Arithmetic_traits<long>::_Rank
CONST	ENDS
;	COMDAT ?_Rank@?$_Arithmetic_traits@I@std@@2HB
CONST	SEGMENT
?_Rank@?$_Arithmetic_traits@I@std@@2HB DD 04H		; std::_Arithmetic_traits<unsigned int>::_Rank
CONST	ENDS
;	COMDAT ?_Rank@?$_Arithmetic_traits@H@std@@2HB
CONST	SEGMENT
?_Rank@?$_Arithmetic_traits@H@std@@2HB DD 04H		; std::_Arithmetic_traits<int>::_Rank
CONST	ENDS
;	COMDAT ?_Rank@?$_Arithmetic_traits@G@std@@2HB
CONST	SEGMENT
?_Rank@?$_Arithmetic_traits@G@std@@2HB DD 03H		; std::_Arithmetic_traits<unsigned short>::_Rank
CONST	ENDS
;	COMDAT ?_Rank@?$_Arithmetic_traits@F@std@@2HB
CONST	SEGMENT
?_Rank@?$_Arithmetic_traits@F@std@@2HB DD 03H		; std::_Arithmetic_traits<short>::_Rank
CONST	ENDS
;	COMDAT ?_Rank@?$_Arithmetic_traits@E@std@@2HB
CONST	SEGMENT
?_Rank@?$_Arithmetic_traits@E@std@@2HB DD 02H		; std::_Arithmetic_traits<unsigned char>::_Rank
CONST	ENDS
;	COMDAT ?_Rank@?$_Arithmetic_traits@C@std@@2HB
CONST	SEGMENT
?_Rank@?$_Arithmetic_traits@C@std@@2HB DD 02H		; std::_Arithmetic_traits<signed char>::_Rank
CONST	ENDS
;	COMDAT ?_Rank@?$_Arithmetic_traits@D@std@@2HB
CONST	SEGMENT
?_Rank@?$_Arithmetic_traits@D@std@@2HB DD 02H		; std::_Arithmetic_traits<char>::_Rank
CONST	ENDS
;	COMDAT ?_Rank@?$_Arithmetic_traits@_N@std@@2HB
CONST	SEGMENT
?_Rank@?$_Arithmetic_traits@_N@std@@2HB DD 01H		; std::_Arithmetic_traits<bool>::_Rank
CONST	ENDS
;	COMDAT ?value@?$integral_constant@I$0A@@tr1@std@@2IB
CONST	SEGMENT
?value@?$integral_constant@I$0A@@tr1@std@@2IB DD 00H	; std::tr1::integral_constant<unsigned int,0>::value
CONST	ENDS
;	COMDAT ?value@?$integral_constant@_N$00@tr1@std@@2_NB
CONST	SEGMENT
?value@?$integral_constant@_N$00@tr1@std@@2_NB DB 01H	; std::tr1::integral_constant<bool,1>::value
CONST	ENDS
;	COMDAT ?value@?$integral_constant@_N$0A@@tr1@std@@2_NB
CONST	SEGMENT
?value@?$integral_constant@_N$0A@@tr1@std@@2_NB DB 00H	; std::tr1::integral_constant<bool,0>::value
CONST	ENDS
;	COMDAT ?min_exponent10@?$numeric_limits@O@std@@2HB
CONST	SEGMENT
?min_exponent10@?$numeric_limits@O@std@@2HB DD 0fffffecdH ; std::numeric_limits<long double>::min_exponent10
CONST	ENDS
;	COMDAT ?min_exponent@?$numeric_limits@O@std@@2HB
CONST	SEGMENT
?min_exponent@?$numeric_limits@O@std@@2HB DD 0fffffc03H	; std::numeric_limits<long double>::min_exponent
CONST	ENDS
;	COMDAT ?max_exponent10@?$numeric_limits@O@std@@2HB
CONST	SEGMENT
?max_exponent10@?$numeric_limits@O@std@@2HB DD 0134H	; std::numeric_limits<long double>::max_exponent10
CONST	ENDS
;	COMDAT ?max_exponent@?$numeric_limits@O@std@@2HB
CONST	SEGMENT
?max_exponent@?$numeric_limits@O@std@@2HB DD 0400H	; std::numeric_limits<long double>::max_exponent
CONST	ENDS
;	COMDAT ?max_digits10@?$numeric_limits@O@std@@2HB
CONST	SEGMENT
?max_digits10@?$numeric_limits@O@std@@2HB DD 011H	; std::numeric_limits<long double>::max_digits10
CONST	ENDS
;	COMDAT ?digits10@?$numeric_limits@O@std@@2HB
CONST	SEGMENT
?digits10@?$numeric_limits@O@std@@2HB DD 0fH		; std::numeric_limits<long double>::digits10
CONST	ENDS
;	COMDAT ?digits@?$numeric_limits@O@std@@2HB
CONST	SEGMENT
?digits@?$numeric_limits@O@std@@2HB DD 035H		; std::numeric_limits<long double>::digits
CONST	ENDS
;	COMDAT ?min_exponent10@?$numeric_limits@N@std@@2HB
CONST	SEGMENT
?min_exponent10@?$numeric_limits@N@std@@2HB DD 0fffffecdH ; std::numeric_limits<double>::min_exponent10
CONST	ENDS
;	COMDAT ?min_exponent@?$numeric_limits@N@std@@2HB
CONST	SEGMENT
?min_exponent@?$numeric_limits@N@std@@2HB DD 0fffffc03H	; std::numeric_limits<double>::min_exponent
CONST	ENDS
;	COMDAT ?max_exponent10@?$numeric_limits@N@std@@2HB
CONST	SEGMENT
?max_exponent10@?$numeric_limits@N@std@@2HB DD 0134H	; std::numeric_limits<double>::max_exponent10
CONST	ENDS
;	COMDAT ?max_exponent@?$numeric_limits@N@std@@2HB
CONST	SEGMENT
?max_exponent@?$numeric_limits@N@std@@2HB DD 0400H	; std::numeric_limits<double>::max_exponent
CONST	ENDS
;	COMDAT ?max_digits10@?$numeric_limits@N@std@@2HB
CONST	SEGMENT
?max_digits10@?$numeric_limits@N@std@@2HB DD 011H	; std::numeric_limits<double>::max_digits10
CONST	ENDS
;	COMDAT ?digits10@?$numeric_limits@N@std@@2HB
CONST	SEGMENT
?digits10@?$numeric_limits@N@std@@2HB DD 0fH		; std::numeric_limits<double>::digits10
CONST	ENDS
;	COMDAT ?digits@?$numeric_limits@N@std@@2HB
CONST	SEGMENT
?digits@?$numeric_limits@N@std@@2HB DD 035H		; std::numeric_limits<double>::digits
CONST	ENDS
;	COMDAT ?min_exponent10@?$numeric_limits@M@std@@2HB
CONST	SEGMENT
?min_exponent10@?$numeric_limits@M@std@@2HB DD 0ffffffdbH ; std::numeric_limits<float>::min_exponent10
CONST	ENDS
;	COMDAT ?min_exponent@?$numeric_limits@M@std@@2HB
CONST	SEGMENT
?min_exponent@?$numeric_limits@M@std@@2HB DD 0ffffff83H	; std::numeric_limits<float>::min_exponent
CONST	ENDS
;	COMDAT ?max_exponent10@?$numeric_limits@M@std@@2HB
CONST	SEGMENT
?max_exponent10@?$numeric_limits@M@std@@2HB DD 026H	; std::numeric_limits<float>::max_exponent10
CONST	ENDS
;	COMDAT ?max_exponent@?$numeric_limits@M@std@@2HB
CONST	SEGMENT
?max_exponent@?$numeric_limits@M@std@@2HB DD 080H	; std::numeric_limits<float>::max_exponent
CONST	ENDS
;	COMDAT ?max_digits10@?$numeric_limits@M@std@@2HB
CONST	SEGMENT
?max_digits10@?$numeric_limits@M@std@@2HB DD 08H	; std::numeric_limits<float>::max_digits10
CONST	ENDS
;	COMDAT ?digits10@?$numeric_limits@M@std@@2HB
CONST	SEGMENT
?digits10@?$numeric_limits@M@std@@2HB DD 06H		; std::numeric_limits<float>::digits10
CONST	ENDS
;	COMDAT ?digits@?$numeric_limits@M@std@@2HB
CONST	SEGMENT
?digits@?$numeric_limits@M@std@@2HB DD 018H		; std::numeric_limits<float>::digits
CONST	ENDS
;	COMDAT ?max_digits10@?$numeric_limits@_K@std@@2HB
CONST	SEGMENT
?max_digits10@?$numeric_limits@_K@std@@2HB DD 015H	; std::numeric_limits<unsigned __int64>::max_digits10
CONST	ENDS
;	COMDAT ?digits10@?$numeric_limits@_K@std@@2HB
CONST	SEGMENT
?digits10@?$numeric_limits@_K@std@@2HB DD 013H		; std::numeric_limits<unsigned __int64>::digits10
CONST	ENDS
;	COMDAT ?digits@?$numeric_limits@_K@std@@2HB
CONST	SEGMENT
?digits@?$numeric_limits@_K@std@@2HB DD 040H		; std::numeric_limits<unsigned __int64>::digits
CONST	ENDS
;	COMDAT ?is_signed@?$numeric_limits@_K@std@@2_NB
CONST	SEGMENT
?is_signed@?$numeric_limits@_K@std@@2_NB DB 00H		; std::numeric_limits<unsigned __int64>::is_signed
CONST	ENDS
;	COMDAT ?max_digits10@?$numeric_limits@_J@std@@2HB
CONST	SEGMENT
?max_digits10@?$numeric_limits@_J@std@@2HB DD 014H	; std::numeric_limits<__int64>::max_digits10
CONST	ENDS
;	COMDAT ?digits10@?$numeric_limits@_J@std@@2HB
CONST	SEGMENT
?digits10@?$numeric_limits@_J@std@@2HB DD 012H		; std::numeric_limits<__int64>::digits10
CONST	ENDS
;	COMDAT ?digits@?$numeric_limits@_J@std@@2HB
CONST	SEGMENT
?digits@?$numeric_limits@_J@std@@2HB DD 03fH		; std::numeric_limits<__int64>::digits
CONST	ENDS
;	COMDAT ?is_signed@?$numeric_limits@_J@std@@2_NB
CONST	SEGMENT
?is_signed@?$numeric_limits@_J@std@@2_NB DB 01H		; std::numeric_limits<__int64>::is_signed
CONST	ENDS
;	COMDAT ?max_digits10@?$numeric_limits@K@std@@2HB
CONST	SEGMENT
?max_digits10@?$numeric_limits@K@std@@2HB DD 0bH	; std::numeric_limits<unsigned long>::max_digits10
CONST	ENDS
;	COMDAT ?digits10@?$numeric_limits@K@std@@2HB
CONST	SEGMENT
?digits10@?$numeric_limits@K@std@@2HB DD 09H		; std::numeric_limits<unsigned long>::digits10
CONST	ENDS
;	COMDAT ?digits@?$numeric_limits@K@std@@2HB
CONST	SEGMENT
?digits@?$numeric_limits@K@std@@2HB DD 020H		; std::numeric_limits<unsigned long>::digits
CONST	ENDS
;	COMDAT ?is_signed@?$numeric_limits@K@std@@2_NB
CONST	SEGMENT
?is_signed@?$numeric_limits@K@std@@2_NB DB 00H		; std::numeric_limits<unsigned long>::is_signed
CONST	ENDS
;	COMDAT ?max_digits10@?$numeric_limits@J@std@@2HB
CONST	SEGMENT
?max_digits10@?$numeric_limits@J@std@@2HB DD 0bH	; std::numeric_limits<long>::max_digits10
CONST	ENDS
;	COMDAT ?digits10@?$numeric_limits@J@std@@2HB
CONST	SEGMENT
?digits10@?$numeric_limits@J@std@@2HB DD 09H		; std::numeric_limits<long>::digits10
CONST	ENDS
;	COMDAT ?digits@?$numeric_limits@J@std@@2HB
CONST	SEGMENT
?digits@?$numeric_limits@J@std@@2HB DD 01fH		; std::numeric_limits<long>::digits
CONST	ENDS
;	COMDAT ?is_signed@?$numeric_limits@J@std@@2_NB
CONST	SEGMENT
?is_signed@?$numeric_limits@J@std@@2_NB DB 01H		; std::numeric_limits<long>::is_signed
CONST	ENDS
;	COMDAT ?max_digits10@?$numeric_limits@I@std@@2HB
CONST	SEGMENT
?max_digits10@?$numeric_limits@I@std@@2HB DD 0bH	; std::numeric_limits<unsigned int>::max_digits10
CONST	ENDS
;	COMDAT ?digits10@?$numeric_limits@I@std@@2HB
CONST	SEGMENT
?digits10@?$numeric_limits@I@std@@2HB DD 09H		; std::numeric_limits<unsigned int>::digits10
CONST	ENDS
;	COMDAT ?digits@?$numeric_limits@I@std@@2HB
CONST	SEGMENT
?digits@?$numeric_limits@I@std@@2HB DD 020H		; std::numeric_limits<unsigned int>::digits
CONST	ENDS
;	COMDAT ?is_signed@?$numeric_limits@I@std@@2_NB
CONST	SEGMENT
?is_signed@?$numeric_limits@I@std@@2_NB DB 00H		; std::numeric_limits<unsigned int>::is_signed
CONST	ENDS
;	COMDAT ?max_digits10@?$numeric_limits@H@std@@2HB
CONST	SEGMENT
?max_digits10@?$numeric_limits@H@std@@2HB DD 0bH	; std::numeric_limits<int>::max_digits10
CONST	ENDS
;	COMDAT ?digits10@?$numeric_limits@H@std@@2HB
CONST	SEGMENT
?digits10@?$numeric_limits@H@std@@2HB DD 09H		; std::numeric_limits<int>::digits10
CONST	ENDS
;	COMDAT ?digits@?$numeric_limits@H@std@@2HB
CONST	SEGMENT
?digits@?$numeric_limits@H@std@@2HB DD 01fH		; std::numeric_limits<int>::digits
CONST	ENDS
;	COMDAT ?is_signed@?$numeric_limits@H@std@@2_NB
CONST	SEGMENT
?is_signed@?$numeric_limits@H@std@@2_NB DB 01H		; std::numeric_limits<int>::is_signed
CONST	ENDS
;	COMDAT ?max_digits10@?$numeric_limits@G@std@@2HB
CONST	SEGMENT
?max_digits10@?$numeric_limits@G@std@@2HB DD 06H	; std::numeric_limits<unsigned short>::max_digits10
CONST	ENDS
;	COMDAT ?digits10@?$numeric_limits@G@std@@2HB
CONST	SEGMENT
?digits10@?$numeric_limits@G@std@@2HB DD 04H		; std::numeric_limits<unsigned short>::digits10
CONST	ENDS
;	COMDAT ?digits@?$numeric_limits@G@std@@2HB
CONST	SEGMENT
?digits@?$numeric_limits@G@std@@2HB DD 010H		; std::numeric_limits<unsigned short>::digits
CONST	ENDS
;	COMDAT ?is_signed@?$numeric_limits@G@std@@2_NB
CONST	SEGMENT
?is_signed@?$numeric_limits@G@std@@2_NB DB 00H		; std::numeric_limits<unsigned short>::is_signed
CONST	ENDS
;	COMDAT ?max_digits10@?$numeric_limits@F@std@@2HB
CONST	SEGMENT
?max_digits10@?$numeric_limits@F@std@@2HB DD 06H	; std::numeric_limits<short>::max_digits10
CONST	ENDS
;	COMDAT ?digits10@?$numeric_limits@F@std@@2HB
CONST	SEGMENT
?digits10@?$numeric_limits@F@std@@2HB DD 04H		; std::numeric_limits<short>::digits10
CONST	ENDS
;	COMDAT ?digits@?$numeric_limits@F@std@@2HB
CONST	SEGMENT
?digits@?$numeric_limits@F@std@@2HB DD 0fH		; std::numeric_limits<short>::digits
CONST	ENDS
;	COMDAT ?is_signed@?$numeric_limits@F@std@@2_NB
CONST	SEGMENT
?is_signed@?$numeric_limits@F@std@@2_NB DB 01H		; std::numeric_limits<short>::is_signed
CONST	ENDS
;	COMDAT ?max_digits10@?$numeric_limits@E@std@@2HB
CONST	SEGMENT
?max_digits10@?$numeric_limits@E@std@@2HB DD 04H	; std::numeric_limits<unsigned char>::max_digits10
CONST	ENDS
;	COMDAT ?digits10@?$numeric_limits@E@std@@2HB
CONST	SEGMENT
?digits10@?$numeric_limits@E@std@@2HB DD 02H		; std::numeric_limits<unsigned char>::digits10
CONST	ENDS
;	COMDAT ?digits@?$numeric_limits@E@std@@2HB
CONST	SEGMENT
?digits@?$numeric_limits@E@std@@2HB DD 08H		; std::numeric_limits<unsigned char>::digits
CONST	ENDS
;	COMDAT ?is_signed@?$numeric_limits@E@std@@2_NB
CONST	SEGMENT
?is_signed@?$numeric_limits@E@std@@2_NB DB 00H		; std::numeric_limits<unsigned char>::is_signed
CONST	ENDS
;	COMDAT ?max_digits10@?$numeric_limits@C@std@@2HB
CONST	SEGMENT
?max_digits10@?$numeric_limits@C@std@@2HB DD 04H	; std::numeric_limits<signed char>::max_digits10
CONST	ENDS
;	COMDAT ?digits10@?$numeric_limits@C@std@@2HB
CONST	SEGMENT
?digits10@?$numeric_limits@C@std@@2HB DD 02H		; std::numeric_limits<signed char>::digits10
CONST	ENDS
;	COMDAT ?digits@?$numeric_limits@C@std@@2HB
CONST	SEGMENT
?digits@?$numeric_limits@C@std@@2HB DD 07H		; std::numeric_limits<signed char>::digits
CONST	ENDS
;	COMDAT ?is_signed@?$numeric_limits@C@std@@2_NB
CONST	SEGMENT
?is_signed@?$numeric_limits@C@std@@2_NB DB 01H		; std::numeric_limits<signed char>::is_signed
CONST	ENDS
;	COMDAT ?max_digits10@?$numeric_limits@_N@std@@2HB
CONST	SEGMENT
?max_digits10@?$numeric_limits@_N@std@@2HB DD 00H	; std::numeric_limits<bool>::max_digits10
CONST	ENDS
;	COMDAT ?digits10@?$numeric_limits@_N@std@@2HB
CONST	SEGMENT
?digits10@?$numeric_limits@_N@std@@2HB DD 00H		; std::numeric_limits<bool>::digits10
CONST	ENDS
;	COMDAT ?digits@?$numeric_limits@_N@std@@2HB
CONST	SEGMENT
?digits@?$numeric_limits@_N@std@@2HB DD 01H		; std::numeric_limits<bool>::digits
CONST	ENDS
;	COMDAT ?is_signed@?$numeric_limits@_N@std@@2_NB
CONST	SEGMENT
?is_signed@?$numeric_limits@_N@std@@2_NB DB 00H		; std::numeric_limits<bool>::is_signed
CONST	ENDS
;	COMDAT ?is_modulo@?$numeric_limits@_N@std@@2_NB
CONST	SEGMENT
?is_modulo@?$numeric_limits@_N@std@@2_NB DB 00H		; std::numeric_limits<bool>::is_modulo
CONST	ENDS
;	COMDAT ?max_digits10@?$numeric_limits@_W@std@@2HB
CONST	SEGMENT
?max_digits10@?$numeric_limits@_W@std@@2HB DD 06H	; std::numeric_limits<wchar_t>::max_digits10
CONST	ENDS
;	COMDAT ?digits10@?$numeric_limits@_W@std@@2HB
CONST	SEGMENT
?digits10@?$numeric_limits@_W@std@@2HB DD 04H		; std::numeric_limits<wchar_t>::digits10
CONST	ENDS
;	COMDAT ?digits@?$numeric_limits@_W@std@@2HB
CONST	SEGMENT
?digits@?$numeric_limits@_W@std@@2HB DD 010H		; std::numeric_limits<wchar_t>::digits
CONST	ENDS
;	COMDAT ?is_signed@?$numeric_limits@_W@std@@2_NB
CONST	SEGMENT
?is_signed@?$numeric_limits@_W@std@@2_NB DB 00H		; std::numeric_limits<wchar_t>::is_signed
CONST	ENDS
;	COMDAT ?max_digits10@?$numeric_limits@D@std@@2HB
CONST	SEGMENT
?max_digits10@?$numeric_limits@D@std@@2HB DD 04H	; std::numeric_limits<char>::max_digits10
CONST	ENDS
;	COMDAT ?digits10@?$numeric_limits@D@std@@2HB
CONST	SEGMENT
?digits10@?$numeric_limits@D@std@@2HB DD 02H		; std::numeric_limits<char>::digits10
CONST	ENDS
;	COMDAT ?digits@?$numeric_limits@D@std@@2HB
CONST	SEGMENT
?digits@?$numeric_limits@D@std@@2HB DD 07H		; std::numeric_limits<char>::digits
CONST	ENDS
;	COMDAT ?is_signed@?$numeric_limits@D@std@@2_NB
CONST	SEGMENT
?is_signed@?$numeric_limits@D@std@@2_NB DB 01H		; std::numeric_limits<char>::is_signed
CONST	ENDS
;	COMDAT ?radix@_Num_float_base@std@@2HB
CONST	SEGMENT
?radix@_Num_float_base@std@@2HB DD 02H			; std::_Num_float_base::radix
CONST	ENDS
;	COMDAT ?round_style@_Num_float_base@std@@2W4float_round_style@2@B
CONST	SEGMENT
?round_style@_Num_float_base@std@@2W4float_round_style@2@B DD 01H ; std::_Num_float_base::round_style
CONST	ENDS
;	COMDAT ?traps@_Num_float_base@std@@2_NB
CONST	SEGMENT
?traps@_Num_float_base@std@@2_NB DB 01H			; std::_Num_float_base::traps
CONST	ENDS
;	COMDAT ?tinyness_before@_Num_float_base@std@@2_NB
CONST	SEGMENT
?tinyness_before@_Num_float_base@std@@2_NB DB 01H	; std::_Num_float_base::tinyness_before
CONST	ENDS
;	COMDAT ?is_specialized@_Num_float_base@std@@2_NB
CONST	SEGMENT
?is_specialized@_Num_float_base@std@@2_NB DB 01H	; std::_Num_float_base::is_specialized
CONST	ENDS
;	COMDAT ?is_signed@_Num_float_base@std@@2_NB
CONST	SEGMENT
?is_signed@_Num_float_base@std@@2_NB DB 01H		; std::_Num_float_base::is_signed
CONST	ENDS
;	COMDAT ?is_modulo@_Num_float_base@std@@2_NB
CONST	SEGMENT
?is_modulo@_Num_float_base@std@@2_NB DB 00H		; std::_Num_float_base::is_modulo
CONST	ENDS
;	COMDAT ?is_integer@_Num_float_base@std@@2_NB
CONST	SEGMENT
?is_integer@_Num_float_base@std@@2_NB DB 00H		; std::_Num_float_base::is_integer
CONST	ENDS
;	COMDAT ?is_iec559@_Num_float_base@std@@2_NB
CONST	SEGMENT
?is_iec559@_Num_float_base@std@@2_NB DB 01H		; std::_Num_float_base::is_iec559
CONST	ENDS
;	COMDAT ?is_exact@_Num_float_base@std@@2_NB
CONST	SEGMENT
?is_exact@_Num_float_base@std@@2_NB DB 00H		; std::_Num_float_base::is_exact
CONST	ENDS
;	COMDAT ?is_bounded@_Num_float_base@std@@2_NB
CONST	SEGMENT
?is_bounded@_Num_float_base@std@@2_NB DB 01H		; std::_Num_float_base::is_bounded
CONST	ENDS
;	COMDAT ?has_signaling_NaN@_Num_float_base@std@@2_NB
CONST	SEGMENT
?has_signaling_NaN@_Num_float_base@std@@2_NB DB 01H	; std::_Num_float_base::has_signaling_NaN
CONST	ENDS
;	COMDAT ?has_quiet_NaN@_Num_float_base@std@@2_NB
CONST	SEGMENT
?has_quiet_NaN@_Num_float_base@std@@2_NB DB 01H		; std::_Num_float_base::has_quiet_NaN
CONST	ENDS
;	COMDAT ?has_infinity@_Num_float_base@std@@2_NB
CONST	SEGMENT
?has_infinity@_Num_float_base@std@@2_NB DB 01H		; std::_Num_float_base::has_infinity
CONST	ENDS
;	COMDAT ?has_denorm_loss@_Num_float_base@std@@2_NB
CONST	SEGMENT
?has_denorm_loss@_Num_float_base@std@@2_NB DB 01H	; std::_Num_float_base::has_denorm_loss
CONST	ENDS
;	COMDAT ?has_denorm@_Num_float_base@std@@2W4float_denorm_style@2@B
CONST	SEGMENT
?has_denorm@_Num_float_base@std@@2W4float_denorm_style@2@B DD 01H ; std::_Num_float_base::has_denorm
CONST	ENDS
;	COMDAT ?radix@_Num_int_base@std@@2HB
CONST	SEGMENT
?radix@_Num_int_base@std@@2HB DD 02H			; std::_Num_int_base::radix
CONST	ENDS
;	COMDAT ?is_specialized@_Num_int_base@std@@2_NB
CONST	SEGMENT
?is_specialized@_Num_int_base@std@@2_NB DB 01H		; std::_Num_int_base::is_specialized
CONST	ENDS
;	COMDAT ?is_modulo@_Num_int_base@std@@2_NB
CONST	SEGMENT
?is_modulo@_Num_int_base@std@@2_NB DB 01H		; std::_Num_int_base::is_modulo
CONST	ENDS
;	COMDAT ?is_integer@_Num_int_base@std@@2_NB
CONST	SEGMENT
?is_integer@_Num_int_base@std@@2_NB DB 01H		; std::_Num_int_base::is_integer
CONST	ENDS
;	COMDAT ?is_exact@_Num_int_base@std@@2_NB
CONST	SEGMENT
?is_exact@_Num_int_base@std@@2_NB DB 01H		; std::_Num_int_base::is_exact
CONST	ENDS
;	COMDAT ?is_bounded@_Num_int_base@std@@2_NB
CONST	SEGMENT
?is_bounded@_Num_int_base@std@@2_NB DB 01H		; std::_Num_int_base::is_bounded
CONST	ENDS
;	COMDAT ?radix@_Num_base@std@@2HB
CONST	SEGMENT
?radix@_Num_base@std@@2HB DD 00H			; std::_Num_base::radix
CONST	ENDS
;	COMDAT ?min_exponent10@_Num_base@std@@2HB
CONST	SEGMENT
?min_exponent10@_Num_base@std@@2HB DD 00H		; std::_Num_base::min_exponent10
CONST	ENDS
;	COMDAT ?min_exponent@_Num_base@std@@2HB
CONST	SEGMENT
?min_exponent@_Num_base@std@@2HB DD 00H			; std::_Num_base::min_exponent
CONST	ENDS
;	COMDAT ?max_exponent10@_Num_base@std@@2HB
CONST	SEGMENT
?max_exponent10@_Num_base@std@@2HB DD 00H		; std::_Num_base::max_exponent10
CONST	ENDS
;	COMDAT ?max_exponent@_Num_base@std@@2HB
CONST	SEGMENT
?max_exponent@_Num_base@std@@2HB DD 00H			; std::_Num_base::max_exponent
CONST	ENDS
;	COMDAT ?max_digits10@_Num_base@std@@2HB
CONST	SEGMENT
?max_digits10@_Num_base@std@@2HB DD 00H			; std::_Num_base::max_digits10
CONST	ENDS
;	COMDAT ?digits10@_Num_base@std@@2HB
CONST	SEGMENT
?digits10@_Num_base@std@@2HB DD 00H			; std::_Num_base::digits10
CONST	ENDS
;	COMDAT ?digits@_Num_base@std@@2HB
CONST	SEGMENT
?digits@_Num_base@std@@2HB DD 00H			; std::_Num_base::digits
CONST	ENDS
;	COMDAT ?round_style@_Num_base@std@@2W4float_round_style@2@B
CONST	SEGMENT
?round_style@_Num_base@std@@2W4float_round_style@2@B DD 00H ; std::_Num_base::round_style
CONST	ENDS
;	COMDAT ?traps@_Num_base@std@@2_NB
CONST	SEGMENT
?traps@_Num_base@std@@2_NB DB 00H			; std::_Num_base::traps
CONST	ENDS
;	COMDAT ?tinyness_before@_Num_base@std@@2_NB
CONST	SEGMENT
?tinyness_before@_Num_base@std@@2_NB DB 00H		; std::_Num_base::tinyness_before
CONST	ENDS
;	COMDAT ?is_specialized@_Num_base@std@@2_NB
CONST	SEGMENT
?is_specialized@_Num_base@std@@2_NB DB 00H		; std::_Num_base::is_specialized
CONST	ENDS
;	COMDAT ?is_signed@_Num_base@std@@2_NB
CONST	SEGMENT
?is_signed@_Num_base@std@@2_NB DB 00H			; std::_Num_base::is_signed
CONST	ENDS
;	COMDAT ?is_modulo@_Num_base@std@@2_NB
CONST	SEGMENT
?is_modulo@_Num_base@std@@2_NB DB 00H			; std::_Num_base::is_modulo
CONST	ENDS
;	COMDAT ?is_integer@_Num_base@std@@2_NB
CONST	SEGMENT
?is_integer@_Num_base@std@@2_NB DB 00H			; std::_Num_base::is_integer
CONST	ENDS
;	COMDAT ?is_iec559@_Num_base@std@@2_NB
CONST	SEGMENT
?is_iec559@_Num_base@std@@2_NB DB 00H			; std::_Num_base::is_iec559
CONST	ENDS
;	COMDAT ?is_exact@_Num_base@std@@2_NB
CONST	SEGMENT
?is_exact@_Num_base@std@@2_NB DB 00H			; std::_Num_base::is_exact
CONST	ENDS
;	COMDAT ?is_bounded@_Num_base@std@@2_NB
CONST	SEGMENT
?is_bounded@_Num_base@std@@2_NB DB 00H			; std::_Num_base::is_bounded
CONST	ENDS
;	COMDAT ?has_signaling_NaN@_Num_base@std@@2_NB
CONST	SEGMENT
?has_signaling_NaN@_Num_base@std@@2_NB DB 00H		; std::_Num_base::has_signaling_NaN
CONST	ENDS
;	COMDAT ?has_quiet_NaN@_Num_base@std@@2_NB
CONST	SEGMENT
?has_quiet_NaN@_Num_base@std@@2_NB DB 00H		; std::_Num_base::has_quiet_NaN
CONST	ENDS
;	COMDAT ?has_infinity@_Num_base@std@@2_NB
CONST	SEGMENT
?has_infinity@_Num_base@std@@2_NB DB 00H		; std::_Num_base::has_infinity
CONST	ENDS
;	COMDAT ?has_denorm_loss@_Num_base@std@@2_NB
CONST	SEGMENT
?has_denorm_loss@_Num_base@std@@2_NB DB 00H		; std::_Num_base::has_denorm_loss
CONST	ENDS
;	COMDAT ?has_denorm@_Num_base@std@@2W4float_denorm_style@2@B
CONST	SEGMENT
?has_denorm@_Num_base@std@@2W4float_denorm_style@2@B DD 00H ; std::_Num_base::has_denorm
CONST	ENDS
PUBLIC	??1?$vector@PAVGoal_Evaluator@@V?$allocator@PAVGoal_Evaluator@@@std@@@std@@QAE@XZ ; std::vector<Goal_Evaluator *,std::allocator<Goal_Evaluator *> >::~vector<Goal_Evaluator *,std::allocator<Goal_Evaluator *> >
PUBLIC	??1?$Goal_Composite@VAbstRaven_Bot@@@@UAE@XZ	; Goal_Composite<AbstRaven_Bot>::~Goal_Composite<AbstRaven_Bot>
PUBLIC	??0GetWeaponGoal_Evaluator@@QAE@NH@Z		; GetWeaponGoal_Evaluator::GetWeaponGoal_Evaluator
PUBLIC	??0AttackTargetGoal_Evaluator@@QAE@N@Z		; AttackTargetGoal_Evaluator::AttackTargetGoal_Evaluator
PUBLIC	??0ExploreGoal_Evaluator@@QAE@N@Z		; ExploreGoal_Evaluator::ExploreGoal_Evaluator
PUBLIC	?push_back@?$vector@PAVGoal_Evaluator@@V?$allocator@PAVGoal_Evaluator@@@std@@@std@@QAEX$$QAPAVGoal_Evaluator@@@Z ; std::vector<Goal_Evaluator *,std::allocator<Goal_Evaluator *> >::push_back
PUBLIC	??0GetHealthGoal_Evaluator@@QAE@N@Z		; GetHealthGoal_Evaluator::GetHealthGoal_Evaluator
PUBLIC	?RandInRange@@YANNN@Z				; RandInRange
PUBLIC	__real@3ff8000000000000
PUBLIC	__real@3fe0000000000000
PUBLIC	??0?$vector@PAVGoal_Evaluator@@V?$allocator@PAVGoal_Evaluator@@@std@@@std@@QAE@XZ ; std::vector<Goal_Evaluator *,std::allocator<Goal_Evaluator *> >::vector<Goal_Evaluator *,std::allocator<Goal_Evaluator *> >
PUBLIC	??_7Goal_Think@@6B@				; Goal_Think::`vftable'
PUBLIC	??0?$Goal_Composite@VAbstRaven_Bot@@@@QAE@PAVAbstRaven_Bot@@H@Z ; Goal_Composite<AbstRaven_Bot>::Goal_Composite<AbstRaven_Bot>
PUBLIC	??0Goal_Think@@QAE@PAVAbstRaven_Bot@@@Z		; Goal_Think::Goal_Think
PUBLIC	??_R4Goal_Think@@6B@				; Goal_Think::`RTTI Complete Object Locator'
PUBLIC	??_R0?AVGoal_Think@@@8				; Goal_Think `RTTI Type Descriptor'
PUBLIC	??_R3Goal_Think@@8				; Goal_Think::`RTTI Class Hierarchy Descriptor'
PUBLIC	??_R2Goal_Think@@8				; Goal_Think::`RTTI Base Class Array'
PUBLIC	??_R1A@?0A@EA@Goal_Think@@8			; Goal_Think::`RTTI Base Class Descriptor at (0,-1,0,64)'
PUBLIC	??_R1A@?0A@EA@?$Goal_Composite@VAbstRaven_Bot@@@@8 ; Goal_Composite<AbstRaven_Bot>::`RTTI Base Class Descriptor at (0,-1,0,64)'
PUBLIC	??_R0?AV?$Goal_Composite@VAbstRaven_Bot@@@@@8	; Goal_Composite<AbstRaven_Bot> `RTTI Type Descriptor'
PUBLIC	??_R3?$Goal_Composite@VAbstRaven_Bot@@@@8	; Goal_Composite<AbstRaven_Bot>::`RTTI Class Hierarchy Descriptor'
PUBLIC	??_R2?$Goal_Composite@VAbstRaven_Bot@@@@8	; Goal_Composite<AbstRaven_Bot>::`RTTI Base Class Array'
PUBLIC	??_R1A@?0A@EA@?$Goal@VAbstRaven_Bot@@@@8	; Goal<AbstRaven_Bot>::`RTTI Base Class Descriptor at (0,-1,0,64)'
PUBLIC	??_R0?AV?$Goal@VAbstRaven_Bot@@@@@8		; Goal<AbstRaven_Bot> `RTTI Type Descriptor'
PUBLIC	??_R3?$Goal@VAbstRaven_Bot@@@@8			; Goal<AbstRaven_Bot>::`RTTI Class Hierarchy Descriptor'
PUBLIC	??_R2?$Goal@VAbstRaven_Bot@@@@8			; Goal<AbstRaven_Bot>::`RTTI Base Class Array'
PUBLIC	?Activate@Goal_Think@@UAEXXZ			; Goal_Think::Activate
PUBLIC	?Process@Goal_Think@@UAEHXZ			; Goal_Think::Process
PUBLIC	?Terminate@Goal_Think@@UAEXXZ			; Goal_Think::Terminate
PUBLIC	?HandleMessage@?$Goal_Composite@VAbstRaven_Bot@@@@UAE_NABUTelegram@@@Z ; Goal_Composite<AbstRaven_Bot>::HandleMessage
PUBLIC	?AddSubgoal@?$Goal_Composite@VAbstRaven_Bot@@@@UAEXPAV?$Goal@VAbstRaven_Bot@@@@@Z ; Goal_Composite<AbstRaven_Bot>::AddSubgoal
PUBLIC	?RenderAtPos@?$Goal_Composite@VAbstRaven_Bot@@@@UBEXAAUVector2D@@PAVTypeToString@@@Z ; Goal_Composite<AbstRaven_Bot>::RenderAtPos
PUBLIC	?Render@Goal_Think@@UAEXXZ			; Goal_Think::Render
PUBLIC	?Arbitrate@Goal_Think@@UAEXXZ			; Goal_Think::Arbitrate
PUBLIC	?AddGoal_MoveToPosition@Goal_Think@@UAEXUVector2D@@@Z ; Goal_Think::AddGoal_MoveToPosition
PUBLIC	?AddGoal_GetItem@Goal_Think@@UAEXI@Z		; Goal_Think::AddGoal_GetItem
PUBLIC	?AddGoal_Explore@Goal_Think@@UAEXXZ		; Goal_Think::AddGoal_Explore
PUBLIC	?AddGoal_AttackTarget@Goal_Think@@UAEXXZ	; Goal_Think::AddGoal_AttackTarget
PUBLIC	?QueueGoal_MoveToPosition@Goal_Think@@UAEXUVector2D@@@Z ; Goal_Think::QueueGoal_MoveToPosition
EXTRN	??3@YAXPAX@Z:PROC				; operator delete
EXTRN	??2@YAPAXI@Z:PROC				; operator new
EXTRN	___security_cookie:DWORD
EXTRN	___CxxFrameHandler3:PROC
EXTRN	@__security_check_cookie@4:PROC
EXTRN	__fltused:DWORD
EXTRN	__RTC_CheckEsp:PROC
EXTRN	__RTC_Shutdown:PROC
EXTRN	__RTC_InitBase:PROC
EXTRN	??_7type_info@@6B@:QWORD			; type_info::`vftable'
EXTRN	??_EGoal_Think@@UAEPAXI@Z:PROC			; Goal_Think::`vector deleting destructor'
;	COMDAT ??_R2?$Goal@VAbstRaven_Bot@@@@8
; File c:\users\teaja\documents\artificial-fun\labravenprojecttest\raven\goals\goal_think.cpp
rdata$r	SEGMENT
??_R2?$Goal@VAbstRaven_Bot@@@@8 DD FLAT:??_R1A@?0A@EA@?$Goal@VAbstRaven_Bot@@@@8 ; Goal<AbstRaven_Bot>::`RTTI Base Class Array'
rdata$r	ENDS
;	COMDAT ??_R3?$Goal@VAbstRaven_Bot@@@@8
rdata$r	SEGMENT
??_R3?$Goal@VAbstRaven_Bot@@@@8 DD 00H			; Goal<AbstRaven_Bot>::`RTTI Class Hierarchy Descriptor'
	DD	00H
	DD	01H
	DD	FLAT:??_R2?$Goal@VAbstRaven_Bot@@@@8
rdata$r	ENDS
;	COMDAT ??_R0?AV?$Goal@VAbstRaven_Bot@@@@@8
_DATA	SEGMENT
??_R0?AV?$Goal@VAbstRaven_Bot@@@@@8 DD FLAT:??_7type_info@@6B@ ; Goal<AbstRaven_Bot> `RTTI Type Descriptor'
	DD	00H
	DB	'.?AV?$Goal@VAbstRaven_Bot@@@@', 00H
_DATA	ENDS
;	COMDAT ??_R1A@?0A@EA@?$Goal@VAbstRaven_Bot@@@@8
rdata$r	SEGMENT
??_R1A@?0A@EA@?$Goal@VAbstRaven_Bot@@@@8 DD FLAT:??_R0?AV?$Goal@VAbstRaven_Bot@@@@@8 ; Goal<AbstRaven_Bot>::`RTTI Base Class Descriptor at (0,-1,0,64)'
	DD	00H
	DD	00H
	DD	0ffffffffH
	DD	00H
	DD	040H
	DD	FLAT:??_R3?$Goal@VAbstRaven_Bot@@@@8
rdata$r	ENDS
;	COMDAT ??_R2?$Goal_Composite@VAbstRaven_Bot@@@@8
rdata$r	SEGMENT
??_R2?$Goal_Composite@VAbstRaven_Bot@@@@8 DD FLAT:??_R1A@?0A@EA@?$Goal_Composite@VAbstRaven_Bot@@@@8 ; Goal_Composite<AbstRaven_Bot>::`RTTI Base Class Array'
	DD	FLAT:??_R1A@?0A@EA@?$Goal@VAbstRaven_Bot@@@@8
rdata$r	ENDS
;	COMDAT ??_R3?$Goal_Composite@VAbstRaven_Bot@@@@8
rdata$r	SEGMENT
??_R3?$Goal_Composite@VAbstRaven_Bot@@@@8 DD 00H	; Goal_Composite<AbstRaven_Bot>::`RTTI Class Hierarchy Descriptor'
	DD	00H
	DD	02H
	DD	FLAT:??_R2?$Goal_Composite@VAbstRaven_Bot@@@@8
rdata$r	ENDS
;	COMDAT ??_R0?AV?$Goal_Composite@VAbstRaven_Bot@@@@@8
_DATA	SEGMENT
??_R0?AV?$Goal_Composite@VAbstRaven_Bot@@@@@8 DD FLAT:??_7type_info@@6B@ ; Goal_Composite<AbstRaven_Bot> `RTTI Type Descriptor'
	DD	00H
	DB	'.?AV?$Goal_Composite@VAbstRaven_Bot@@@@', 00H
_DATA	ENDS
;	COMDAT ??_R1A@?0A@EA@?$Goal_Composite@VAbstRaven_Bot@@@@8
rdata$r	SEGMENT
??_R1A@?0A@EA@?$Goal_Composite@VAbstRaven_Bot@@@@8 DD FLAT:??_R0?AV?$Goal_Composite@VAbstRaven_Bot@@@@@8 ; Goal_Composite<AbstRaven_Bot>::`RTTI Base Class Descriptor at (0,-1,0,64)'
	DD	01H
	DD	00H
	DD	0ffffffffH
	DD	00H
	DD	040H
	DD	FLAT:??_R3?$Goal_Composite@VAbstRaven_Bot@@@@8
rdata$r	ENDS
;	COMDAT ??_R1A@?0A@EA@Goal_Think@@8
rdata$r	SEGMENT
??_R1A@?0A@EA@Goal_Think@@8 DD FLAT:??_R0?AVGoal_Think@@@8 ; Goal_Think::`RTTI Base Class Descriptor at (0,-1,0,64)'
	DD	02H
	DD	00H
	DD	0ffffffffH
	DD	00H
	DD	040H
	DD	FLAT:??_R3Goal_Think@@8
rdata$r	ENDS
;	COMDAT ??_R2Goal_Think@@8
rdata$r	SEGMENT
??_R2Goal_Think@@8 DD FLAT:??_R1A@?0A@EA@Goal_Think@@8	; Goal_Think::`RTTI Base Class Array'
	DD	FLAT:??_R1A@?0A@EA@?$Goal_Composite@VAbstRaven_Bot@@@@8
	DD	FLAT:??_R1A@?0A@EA@?$Goal@VAbstRaven_Bot@@@@8
rdata$r	ENDS
;	COMDAT ??_R3Goal_Think@@8
rdata$r	SEGMENT
??_R3Goal_Think@@8 DD 00H				; Goal_Think::`RTTI Class Hierarchy Descriptor'
	DD	00H
	DD	03H
	DD	FLAT:??_R2Goal_Think@@8
rdata$r	ENDS
;	COMDAT ??_R0?AVGoal_Think@@@8
_DATA	SEGMENT
??_R0?AVGoal_Think@@@8 DD FLAT:??_7type_info@@6B@	; Goal_Think `RTTI Type Descriptor'
	DD	00H
	DB	'.?AVGoal_Think@@', 00H
_DATA	ENDS
;	COMDAT ??_R4Goal_Think@@6B@
rdata$r	SEGMENT
??_R4Goal_Think@@6B@ DD 00H				; Goal_Think::`RTTI Complete Object Locator'
	DD	00H
	DD	00H
	DD	FLAT:??_R0?AVGoal_Think@@@8
	DD	FLAT:??_R3Goal_Think@@8
rdata$r	ENDS
;	COMDAT __real@3ff8000000000000
CONST	SEGMENT
__real@3ff8000000000000 DQ 03ff8000000000000r	; 1.5
CONST	ENDS
;	COMDAT __real@3fe0000000000000
CONST	SEGMENT
__real@3fe0000000000000 DQ 03fe0000000000000r	; 0.5
CONST	ENDS
;	COMDAT ??_7Goal_Think@@6B@
CONST	SEGMENT
??_7Goal_Think@@6B@ DD FLAT:??_R4Goal_Think@@6B@	; Goal_Think::`vftable'
	DD	FLAT:??_EGoal_Think@@UAEPAXI@Z
	DD	FLAT:?Activate@Goal_Think@@UAEXXZ
	DD	FLAT:?Process@Goal_Think@@UAEHXZ
	DD	FLAT:?Terminate@Goal_Think@@UAEXXZ
	DD	FLAT:?HandleMessage@?$Goal_Composite@VAbstRaven_Bot@@@@UAE_NABUTelegram@@@Z
	DD	FLAT:?AddSubgoal@?$Goal_Composite@VAbstRaven_Bot@@@@UAEXPAV?$Goal@VAbstRaven_Bot@@@@@Z
	DD	FLAT:?RenderAtPos@?$Goal_Composite@VAbstRaven_Bot@@@@UBEXAAUVector2D@@PAVTypeToString@@@Z
	DD	FLAT:?Render@Goal_Think@@UAEXXZ
	DD	FLAT:?Arbitrate@Goal_Think@@UAEXXZ
	DD	FLAT:?AddGoal_MoveToPosition@Goal_Think@@UAEXUVector2D@@@Z
	DD	FLAT:?AddGoal_GetItem@Goal_Think@@UAEXI@Z
	DD	FLAT:?AddGoal_Explore@Goal_Think@@UAEXXZ
	DD	FLAT:?AddGoal_AttackTarget@Goal_Think@@UAEXXZ
	DD	FLAT:?QueueGoal_MoveToPosition@Goal_Think@@UAEXUVector2D@@@Z
CONST	ENDS
xdata$x	SEGMENT
__ehfuncinfo$??0Goal_Think@@QAE@PAVAbstRaven_Bot@@@Z DD 019930522H
	DD	08H
	DD	FLAT:__unwindtable$??0Goal_Think@@QAE@PAVAbstRaven_Bot@@@Z
	DD	2 DUP(00H)
	DD	2 DUP(00H)
	DD	00H
	DD	01H
__unwindtable$??0Goal_Think@@QAE@PAVAbstRaven_Bot@@@Z DD 0ffffffffH
	DD	FLAT:__unwindfunclet$??0Goal_Think@@QAE@PAVAbstRaven_Bot@@@Z$0
	DD	00H
	DD	FLAT:__unwindfunclet$??0Goal_Think@@QAE@PAVAbstRaven_Bot@@@Z$1
	DD	01H
	DD	FLAT:__unwindfunclet$??0Goal_Think@@QAE@PAVAbstRaven_Bot@@@Z$2
	DD	01H
	DD	FLAT:__unwindfunclet$??0Goal_Think@@QAE@PAVAbstRaven_Bot@@@Z$3
	DD	01H
	DD	FLAT:__unwindfunclet$??0Goal_Think@@QAE@PAVAbstRaven_Bot@@@Z$4
	DD	01H
	DD	FLAT:__unwindfunclet$??0Goal_Think@@QAE@PAVAbstRaven_Bot@@@Z$5
	DD	01H
	DD	FLAT:__unwindfunclet$??0Goal_Think@@QAE@PAVAbstRaven_Bot@@@Z$6
	DD	01H
	DD	FLAT:__unwindfunclet$??0Goal_Think@@QAE@PAVAbstRaven_Bot@@@Z$7
xdata$x	ENDS
;	COMDAT rtc$TMZ
rtc$TMZ	SEGMENT
__RTC_Shutdown.rtc$TMZ DD FLAT:__RTC_Shutdown
rtc$TMZ	ENDS
;	COMDAT rtc$IMZ
rtc$IMZ	SEGMENT
__RTC_InitBase.rtc$IMZ DD FLAT:__RTC_InitBase
; Function compile flags: /Odtp /RTCsu
rtc$IMZ	ENDS
_TEXT	SEGMENT
tv228 = -176						; size = 4
tv212 = -172						; size = 4
tv196 = -168						; size = 4
tv180 = -164						; size = 4
tv165 = -160						; size = 4
tv150 = -156						; size = 4
$T141900 = -152						; size = 4
$T141899 = -148						; size = 4
$T141898 = -144						; size = 4
$T141895 = -140						; size = 4
$T141894 = -136						; size = 4
$T141893 = -132						; size = 4
$T141890 = -128						; size = 4
$T141889 = -124						; size = 4
$T141888 = -120						; size = 4
$T141885 = -116						; size = 4
$T141884 = -112						; size = 4
$T141883 = -108						; size = 4
$T141880 = -104						; size = 4
$T141879 = -100						; size = 4
$T141878 = -96						; size = 4
$T141875 = -92						; size = 4
$T141874 = -88						; size = 4
$T141873 = -84						; size = 4
_AttackBias$ = -80					; size = 8
_ExploreBias$ = -72					; size = 8
_RailgunBias$ = -64					; size = 8
_RocketLauncherBias$ = -56				; size = 8
_ShotgunBias$ = -48					; size = 8
_HealthBias$ = -40					; size = 8
_HighRangeOfBias$ = -32					; size = 8
_LowRangeOfBias$ = -24					; size = 8
_this$ = -16						; size = 4
__$EHRec$ = -12						; size = 12
_pBot$ = 8						; size = 4
??0Goal_Think@@QAE@PAVAbstRaven_Bot@@@Z PROC		; Goal_Think::Goal_Think
; _this$ = ecx

; 23   : {

	push	ebp
	mov	ebp, esp
	push	-1
	push	__ehhandler$??0Goal_Think@@QAE@PAVAbstRaven_Bot@@@Z
	mov	eax, DWORD PTR fs:0
	push	eax
	sub	esp, 164				; 000000a4H
	push	edi
	push	ecx
	lea	edi, DWORD PTR [ebp-176]
	mov	ecx, 41					; 00000029H
	mov	eax, -858993460				; ccccccccH
	rep stosd
	pop	ecx
	mov	eax, DWORD PTR ___security_cookie
	xor	eax, ebp
	push	eax
	lea	eax, DWORD PTR __$EHRec$[ebp]
	mov	DWORD PTR fs:0, eax
	mov	DWORD PTR _this$[ebp], ecx
	push	0
	mov	eax, DWORD PTR _pBot$[ebp]
	push	eax
	mov	ecx, DWORD PTR _this$[ebp]
	call	??0?$Goal_Composite@VAbstRaven_Bot@@@@QAE@PAVAbstRaven_Bot@@H@Z ; Goal_Composite<AbstRaven_Bot>::Goal_Composite<AbstRaven_Bot>
	mov	DWORD PTR __$EHRec$[ebp+8], 0
	mov	ecx, DWORD PTR _this$[ebp]
	mov	DWORD PTR [ecx], OFFSET ??_7Goal_Think@@6B@
	mov	ecx, DWORD PTR _this$[ebp]
	add	ecx, 32					; 00000020H
	call	??0?$vector@PAVGoal_Evaluator@@V?$allocator@PAVGoal_Evaluator@@@std@@@std@@QAE@XZ ; std::vector<Goal_Evaluator *,std::allocator<Goal_Evaluator *> >::vector<Goal_Evaluator *,std::allocator<Goal_Evaluator *> >
	mov	BYTE PTR __$EHRec$[ebp+8], 1

; 24   :   
; 25   :   //these biases could be loaded in from a script on a per bot basis
; 26   :   //but for now we'll just give them some random values
; 27   :   const double LowRangeOfBias = 0.5;

	fld	QWORD PTR __real@3fe0000000000000
	fstp	QWORD PTR _LowRangeOfBias$[ebp]

; 28   :   const double HighRangeOfBias = 1.5;

	fld	QWORD PTR __real@3ff8000000000000
	fstp	QWORD PTR _HighRangeOfBias$[ebp]

; 29   : 
; 30   :   double HealthBias = RandInRange(LowRangeOfBias, HighRangeOfBias);

	sub	esp, 8
	fld	QWORD PTR _HighRangeOfBias$[ebp]
	fstp	QWORD PTR [esp]
	sub	esp, 8
	fld	QWORD PTR _LowRangeOfBias$[ebp]
	fstp	QWORD PTR [esp]
	call	?RandInRange@@YANNN@Z			; RandInRange
	add	esp, 16					; 00000010H
	fstp	QWORD PTR _HealthBias$[ebp]

; 31   :   double ShotgunBias = RandInRange(LowRangeOfBias, HighRangeOfBias);

	sub	esp, 8
	fld	QWORD PTR _HighRangeOfBias$[ebp]
	fstp	QWORD PTR [esp]
	sub	esp, 8
	fld	QWORD PTR _LowRangeOfBias$[ebp]
	fstp	QWORD PTR [esp]
	call	?RandInRange@@YANNN@Z			; RandInRange
	add	esp, 16					; 00000010H
	fstp	QWORD PTR _ShotgunBias$[ebp]

; 32   :   double RocketLauncherBias = RandInRange(LowRangeOfBias, HighRangeOfBias);

	sub	esp, 8
	fld	QWORD PTR _HighRangeOfBias$[ebp]
	fstp	QWORD PTR [esp]
	sub	esp, 8
	fld	QWORD PTR _LowRangeOfBias$[ebp]
	fstp	QWORD PTR [esp]
	call	?RandInRange@@YANNN@Z			; RandInRange
	add	esp, 16					; 00000010H
	fstp	QWORD PTR _RocketLauncherBias$[ebp]

; 33   :   double RailgunBias = RandInRange(LowRangeOfBias, HighRangeOfBias);

	sub	esp, 8
	fld	QWORD PTR _HighRangeOfBias$[ebp]
	fstp	QWORD PTR [esp]
	sub	esp, 8
	fld	QWORD PTR _LowRangeOfBias$[ebp]
	fstp	QWORD PTR [esp]
	call	?RandInRange@@YANNN@Z			; RandInRange
	add	esp, 16					; 00000010H
	fstp	QWORD PTR _RailgunBias$[ebp]

; 34   :   double ExploreBias = RandInRange(LowRangeOfBias, HighRangeOfBias);

	sub	esp, 8
	fld	QWORD PTR _HighRangeOfBias$[ebp]
	fstp	QWORD PTR [esp]
	sub	esp, 8
	fld	QWORD PTR _LowRangeOfBias$[ebp]
	fstp	QWORD PTR [esp]
	call	?RandInRange@@YANNN@Z			; RandInRange
	add	esp, 16					; 00000010H
	fstp	QWORD PTR _ExploreBias$[ebp]

; 35   :   double AttackBias = RandInRange(LowRangeOfBias, HighRangeOfBias);

	sub	esp, 8
	fld	QWORD PTR _HighRangeOfBias$[ebp]
	fstp	QWORD PTR [esp]
	sub	esp, 8
	fld	QWORD PTR _LowRangeOfBias$[ebp]
	fstp	QWORD PTR [esp]
	call	?RandInRange@@YANNN@Z			; RandInRange
	add	esp, 16					; 00000010H
	fstp	QWORD PTR _AttackBias$[ebp]

; 36   : 
; 37   :   //create the evaluator objects
; 38   :   m_Evaluators.push_back(new GetHealthGoal_Evaluator(HealthBias));

	push	16					; 00000010H
	call	??2@YAPAXI@Z				; operator new
	add	esp, 4
	mov	DWORD PTR $T141875[ebp], eax
	mov	BYTE PTR __$EHRec$[ebp+8], 2
	cmp	DWORD PTR $T141875[ebp], 0
	je	SHORT $LN3@Goal_Think
	sub	esp, 8
	fld	QWORD PTR _HealthBias$[ebp]
	fstp	QWORD PTR [esp]
	mov	ecx, DWORD PTR $T141875[ebp]
	call	??0GetHealthGoal_Evaluator@@QAE@N@Z	; GetHealthGoal_Evaluator::GetHealthGoal_Evaluator
	mov	DWORD PTR tv150[ebp], eax
	jmp	SHORT $LN4@Goal_Think
$LN3@Goal_Think:
	mov	DWORD PTR tv150[ebp], 0
$LN4@Goal_Think:
	mov	edx, DWORD PTR tv150[ebp]
	mov	DWORD PTR $T141874[ebp], edx
	mov	BYTE PTR __$EHRec$[ebp+8], 1
	mov	eax, DWORD PTR $T141874[ebp]
	mov	DWORD PTR $T141873[ebp], eax
	lea	ecx, DWORD PTR $T141873[ebp]
	push	ecx
	mov	ecx, DWORD PTR _this$[ebp]
	add	ecx, 32					; 00000020H
	call	?push_back@?$vector@PAVGoal_Evaluator@@V?$allocator@PAVGoal_Evaluator@@@std@@@std@@QAEX$$QAPAVGoal_Evaluator@@@Z ; std::vector<Goal_Evaluator *,std::allocator<Goal_Evaluator *> >::push_back

; 39   :   m_Evaluators.push_back(new ExploreGoal_Evaluator(ExploreBias));

	push	16					; 00000010H
	call	??2@YAPAXI@Z				; operator new
	add	esp, 4
	mov	DWORD PTR $T141880[ebp], eax
	mov	BYTE PTR __$EHRec$[ebp+8], 3
	cmp	DWORD PTR $T141880[ebp], 0
	je	SHORT $LN5@Goal_Think
	sub	esp, 8
	fld	QWORD PTR _ExploreBias$[ebp]
	fstp	QWORD PTR [esp]
	mov	ecx, DWORD PTR $T141880[ebp]
	call	??0ExploreGoal_Evaluator@@QAE@N@Z	; ExploreGoal_Evaluator::ExploreGoal_Evaluator
	mov	DWORD PTR tv165[ebp], eax
	jmp	SHORT $LN6@Goal_Think
$LN5@Goal_Think:
	mov	DWORD PTR tv165[ebp], 0
$LN6@Goal_Think:
	mov	edx, DWORD PTR tv165[ebp]
	mov	DWORD PTR $T141879[ebp], edx
	mov	BYTE PTR __$EHRec$[ebp+8], 1
	mov	eax, DWORD PTR $T141879[ebp]
	mov	DWORD PTR $T141878[ebp], eax
	lea	ecx, DWORD PTR $T141878[ebp]
	push	ecx
	mov	ecx, DWORD PTR _this$[ebp]
	add	ecx, 32					; 00000020H
	call	?push_back@?$vector@PAVGoal_Evaluator@@V?$allocator@PAVGoal_Evaluator@@@std@@@std@@QAEX$$QAPAVGoal_Evaluator@@@Z ; std::vector<Goal_Evaluator *,std::allocator<Goal_Evaluator *> >::push_back

; 40   :   m_Evaluators.push_back(new AttackTargetGoal_Evaluator(AttackBias));

	push	16					; 00000010H
	call	??2@YAPAXI@Z				; operator new
	add	esp, 4
	mov	DWORD PTR $T141885[ebp], eax
	mov	BYTE PTR __$EHRec$[ebp+8], 4
	cmp	DWORD PTR $T141885[ebp], 0
	je	SHORT $LN7@Goal_Think
	sub	esp, 8
	fld	QWORD PTR _AttackBias$[ebp]
	fstp	QWORD PTR [esp]
	mov	ecx, DWORD PTR $T141885[ebp]
	call	??0AttackTargetGoal_Evaluator@@QAE@N@Z	; AttackTargetGoal_Evaluator::AttackTargetGoal_Evaluator
	mov	DWORD PTR tv180[ebp], eax
	jmp	SHORT $LN8@Goal_Think
$LN7@Goal_Think:
	mov	DWORD PTR tv180[ebp], 0
$LN8@Goal_Think:
	mov	edx, DWORD PTR tv180[ebp]
	mov	DWORD PTR $T141884[ebp], edx
	mov	BYTE PTR __$EHRec$[ebp+8], 1
	mov	eax, DWORD PTR $T141884[ebp]
	mov	DWORD PTR $T141883[ebp], eax
	lea	ecx, DWORD PTR $T141883[ebp]
	push	ecx
	mov	ecx, DWORD PTR _this$[ebp]
	add	ecx, 32					; 00000020H
	call	?push_back@?$vector@PAVGoal_Evaluator@@V?$allocator@PAVGoal_Evaluator@@@std@@@std@@QAEX$$QAPAVGoal_Evaluator@@@Z ; std::vector<Goal_Evaluator *,std::allocator<Goal_Evaluator *> >::push_back

; 41   :   m_Evaluators.push_back(new GetWeaponGoal_Evaluator(ShotgunBias,
; 42   :                                                      type_shotgun));

	push	24					; 00000018H
	call	??2@YAPAXI@Z				; operator new
	add	esp, 4
	mov	DWORD PTR $T141890[ebp], eax
	mov	BYTE PTR __$EHRec$[ebp+8], 5
	cmp	DWORD PTR $T141890[ebp], 0
	je	SHORT $LN9@Goal_Think
	push	8
	sub	esp, 8
	fld	QWORD PTR _ShotgunBias$[ebp]
	fstp	QWORD PTR [esp]
	mov	ecx, DWORD PTR $T141890[ebp]
	call	??0GetWeaponGoal_Evaluator@@QAE@NH@Z	; GetWeaponGoal_Evaluator::GetWeaponGoal_Evaluator
	mov	DWORD PTR tv196[ebp], eax
	jmp	SHORT $LN10@Goal_Think
$LN9@Goal_Think:
	mov	DWORD PTR tv196[ebp], 0
$LN10@Goal_Think:
	mov	edx, DWORD PTR tv196[ebp]
	mov	DWORD PTR $T141889[ebp], edx
	mov	BYTE PTR __$EHRec$[ebp+8], 1
	mov	eax, DWORD PTR $T141889[ebp]
	mov	DWORD PTR $T141888[ebp], eax
	lea	ecx, DWORD PTR $T141888[ebp]
	push	ecx
	mov	ecx, DWORD PTR _this$[ebp]
	add	ecx, 32					; 00000020H
	call	?push_back@?$vector@PAVGoal_Evaluator@@V?$allocator@PAVGoal_Evaluator@@@std@@@std@@QAEX$$QAPAVGoal_Evaluator@@@Z ; std::vector<Goal_Evaluator *,std::allocator<Goal_Evaluator *> >::push_back

; 43   :   m_Evaluators.push_back(new GetWeaponGoal_Evaluator(RailgunBias,
; 44   :                                                      type_rail_gun));

	push	24					; 00000018H
	call	??2@YAPAXI@Z				; operator new
	add	esp, 4
	mov	DWORD PTR $T141895[ebp], eax
	mov	BYTE PTR __$EHRec$[ebp+8], 6
	cmp	DWORD PTR $T141895[ebp], 0
	je	SHORT $LN11@Goal_Think
	push	6
	sub	esp, 8
	fld	QWORD PTR _RailgunBias$[ebp]
	fstp	QWORD PTR [esp]
	mov	ecx, DWORD PTR $T141895[ebp]
	call	??0GetWeaponGoal_Evaluator@@QAE@NH@Z	; GetWeaponGoal_Evaluator::GetWeaponGoal_Evaluator
	mov	DWORD PTR tv212[ebp], eax
	jmp	SHORT $LN12@Goal_Think
$LN11@Goal_Think:
	mov	DWORD PTR tv212[ebp], 0
$LN12@Goal_Think:
	mov	edx, DWORD PTR tv212[ebp]
	mov	DWORD PTR $T141894[ebp], edx
	mov	BYTE PTR __$EHRec$[ebp+8], 1
	mov	eax, DWORD PTR $T141894[ebp]
	mov	DWORD PTR $T141893[ebp], eax
	lea	ecx, DWORD PTR $T141893[ebp]
	push	ecx
	mov	ecx, DWORD PTR _this$[ebp]
	add	ecx, 32					; 00000020H
	call	?push_back@?$vector@PAVGoal_Evaluator@@V?$allocator@PAVGoal_Evaluator@@@std@@@std@@QAEX$$QAPAVGoal_Evaluator@@@Z ; std::vector<Goal_Evaluator *,std::allocator<Goal_Evaluator *> >::push_back

; 45   :   m_Evaluators.push_back(new GetWeaponGoal_Evaluator(RocketLauncherBias,
; 46   :                                                      type_rocket_launcher));

	push	24					; 00000018H
	call	??2@YAPAXI@Z				; operator new
	add	esp, 4
	mov	DWORD PTR $T141900[ebp], eax
	mov	BYTE PTR __$EHRec$[ebp+8], 7
	cmp	DWORD PTR $T141900[ebp], 0
	je	SHORT $LN13@Goal_Think
	push	7
	sub	esp, 8
	fld	QWORD PTR _RocketLauncherBias$[ebp]
	fstp	QWORD PTR [esp]
	mov	ecx, DWORD PTR $T141900[ebp]
	call	??0GetWeaponGoal_Evaluator@@QAE@NH@Z	; GetWeaponGoal_Evaluator::GetWeaponGoal_Evaluator
	mov	DWORD PTR tv228[ebp], eax
	jmp	SHORT $LN14@Goal_Think
$LN13@Goal_Think:
	mov	DWORD PTR tv228[ebp], 0
$LN14@Goal_Think:
	mov	edx, DWORD PTR tv228[ebp]
	mov	DWORD PTR $T141899[ebp], edx
	mov	BYTE PTR __$EHRec$[ebp+8], 1
	mov	eax, DWORD PTR $T141899[ebp]
	mov	DWORD PTR $T141898[ebp], eax
	lea	ecx, DWORD PTR $T141898[ebp]
	push	ecx
	mov	ecx, DWORD PTR _this$[ebp]
	add	ecx, 32					; 00000020H
	call	?push_back@?$vector@PAVGoal_Evaluator@@V?$allocator@PAVGoal_Evaluator@@@std@@@std@@QAEX$$QAPAVGoal_Evaluator@@@Z ; std::vector<Goal_Evaluator *,std::allocator<Goal_Evaluator *> >::push_back

; 47   : }

	mov	DWORD PTR __$EHRec$[ebp+8], -1
	mov	eax, DWORD PTR _this$[ebp]
	mov	ecx, DWORD PTR __$EHRec$[ebp]
	mov	DWORD PTR fs:0, ecx
	pop	ecx
	pop	edi
	add	esp, 176				; 000000b0H
	cmp	ebp, esp
	call	__RTC_CheckEsp
	mov	esp, ebp
	pop	ebp
	ret	4
_TEXT	ENDS
text$x	SEGMENT
__unwindfunclet$??0Goal_Think@@QAE@PAVAbstRaven_Bot@@@Z$0:
	mov	ecx, DWORD PTR _this$[ebp]
	jmp	??1?$Goal_Composite@VAbstRaven_Bot@@@@UAE@XZ ; Goal_Composite<AbstRaven_Bot>::~Goal_Composite<AbstRaven_Bot>
__unwindfunclet$??0Goal_Think@@QAE@PAVAbstRaven_Bot@@@Z$1:
	mov	ecx, DWORD PTR _this$[ebp]
	add	ecx, 32					; 00000020H
	jmp	??1?$vector@PAVGoal_Evaluator@@V?$allocator@PAVGoal_Evaluator@@@std@@@std@@QAE@XZ ; std::vector<Goal_Evaluator *,std::allocator<Goal_Evaluator *> >::~vector<Goal_Evaluator *,std::allocator<Goal_Evaluator *> >
__unwindfunclet$??0Goal_Think@@QAE@PAVAbstRaven_Bot@@@Z$2:
	mov	eax, DWORD PTR $T141875[ebp]
	push	eax
	call	??3@YAXPAX@Z				; operator delete
	pop	ecx
	ret	0
__unwindfunclet$??0Goal_Think@@QAE@PAVAbstRaven_Bot@@@Z$3:
	mov	eax, DWORD PTR $T141880[ebp]
	push	eax
	call	??3@YAXPAX@Z				; operator delete
	pop	ecx
	ret	0
__unwindfunclet$??0Goal_Think@@QAE@PAVAbstRaven_Bot@@@Z$4:
	mov	eax, DWORD PTR $T141885[ebp]
	push	eax
	call	??3@YAXPAX@Z				; operator delete
	pop	ecx
	ret	0
__unwindfunclet$??0Goal_Think@@QAE@PAVAbstRaven_Bot@@@Z$5:
	mov	eax, DWORD PTR $T141890[ebp]
	push	eax
	call	??3@YAXPAX@Z				; operator delete
	pop	ecx
	ret	0
__unwindfunclet$??0Goal_Think@@QAE@PAVAbstRaven_Bot@@@Z$6:
	mov	eax, DWORD PTR $T141895[ebp]
	push	eax
	call	??3@YAXPAX@Z				; operator delete
	pop	ecx
	ret	0
__unwindfunclet$??0Goal_Think@@QAE@PAVAbstRaven_Bot@@@Z$7:
	mov	eax, DWORD PTR $T141900[ebp]
	push	eax
	call	??3@YAXPAX@Z				; operator delete
	pop	ecx
	ret	0
__ehhandler$??0Goal_Think@@QAE@PAVAbstRaven_Bot@@@Z:
	mov	edx, DWORD PTR [esp+8]
	lea	eax, DWORD PTR [edx+12]
	mov	ecx, DWORD PTR [edx-172]
	xor	ecx, eax
	call	@__security_check_cookie@4
	mov	eax, OFFSET __ehfuncinfo$??0Goal_Think@@QAE@PAVAbstRaven_Bot@@@Z
	jmp	___CxxFrameHandler3
text$x	ENDS
??0Goal_Think@@QAE@PAVAbstRaven_Bot@@@Z ENDP		; Goal_Think::Goal_Think
PUBLIC	?RandFloat@@YANXZ				; RandFloat
; Function compile flags: /Odtp /RTCsu
; File c:\users\teaja\documents\artificial-fun\labravenprojecttest\common\misc\utils.h
;	COMDAT ?RandInRange@@YANNN@Z
_TEXT	SEGMENT
_x$ = 8							; size = 8
_y$ = 16						; size = 8
?RandInRange@@YANNN@Z PROC				; RandInRange, COMDAT

; 90   : {

	push	ebp
	mov	ebp, esp

; 91   :   return x + RandFloat()*(y-x);

	call	?RandFloat@@YANXZ			; RandFloat
	fld	QWORD PTR _y$[ebp]
	fsub	QWORD PTR _x$[ebp]
	fmulp	ST(1), ST(0)
	fadd	QWORD PTR _x$[ebp]

; 92   : }

	cmp	ebp, esp
	call	__RTC_CheckEsp
	pop	ebp
	ret	0
?RandInRange@@YANNN@Z ENDP				; RandInRange
_TEXT	ENDS
PUBLIC	__real@40e0000000000000
EXTRN	_rand:PROC
;	COMDAT __real@40e0000000000000
CONST	SEGMENT
__real@40e0000000000000 DQ 040e0000000000000r	; 32768
; Function compile flags: /Odtp /RTCsu
CONST	ENDS
;	COMDAT ?RandFloat@@YANXZ
_TEXT	SEGMENT
tv69 = -4						; size = 4
?RandFloat@@YANXZ PROC					; RandFloat, COMDAT

; 87   : inline double RandFloat()      {return ((rand())/(RAND_MAX+1.0));}

	push	ebp
	mov	ebp, esp
	push	ecx
	mov	DWORD PTR [ebp-4], -858993460		; ccccccccH
	call	_rand
	mov	DWORD PTR tv69[ebp], eax
	fild	DWORD PTR tv69[ebp]
	fdiv	QWORD PTR __real@40e0000000000000
	add	esp, 4
	cmp	ebp, esp
	call	__RTC_CheckEsp
	mov	esp, ebp
	pop	ebp
	ret	0
?RandFloat@@YANXZ ENDP					; RandFloat
; Function compile flags: /Odtp /RTCsu
; File c:\users\teaja\documents\artificial-fun\labravenprojecttest\raven\goals\goal_think.h
_TEXT	ENDS
;	COMDAT ?Terminate@Goal_Think@@UAEXXZ
_TEXT	SEGMENT
_this$ = -4						; size = 4
?Terminate@Goal_Think@@UAEXXZ PROC			; Goal_Think::Terminate, COMDAT
; _this$ = ecx

; 45   :   virtual void Terminate(){}

	push	ebp
	mov	ebp, esp
	push	ecx
	mov	DWORD PTR [ebp-4], -858993460		; ccccccccH
	mov	DWORD PTR _this$[ebp], ecx
	mov	esp, ebp
	pop	ebp
	ret	0
?Terminate@Goal_Think@@UAEXXZ ENDP			; Goal_Think::Terminate
_TEXT	ENDS
PUBLIC	??_7GetWeaponGoal_Evaluator@@6B@		; GetWeaponGoal_Evaluator::`vftable'
PUBLIC	??0Goal_Evaluator@@QAE@N@Z			; Goal_Evaluator::Goal_Evaluator
PUBLIC	??_R4GetWeaponGoal_Evaluator@@6B@		; GetWeaponGoal_Evaluator::`RTTI Complete Object Locator'
PUBLIC	??_R0?AVGetWeaponGoal_Evaluator@@@8		; GetWeaponGoal_Evaluator `RTTI Type Descriptor'
PUBLIC	??_R3GetWeaponGoal_Evaluator@@8			; GetWeaponGoal_Evaluator::`RTTI Class Hierarchy Descriptor'
PUBLIC	??_R2GetWeaponGoal_Evaluator@@8			; GetWeaponGoal_Evaluator::`RTTI Base Class Array'
PUBLIC	??_R1A@?0A@EA@GetWeaponGoal_Evaluator@@8	; GetWeaponGoal_Evaluator::`RTTI Base Class Descriptor at (0,-1,0,64)'
PUBLIC	??_R1A@?0A@EA@Goal_Evaluator@@8			; Goal_Evaluator::`RTTI Base Class Descriptor at (0,-1,0,64)'
PUBLIC	??_R0?AVGoal_Evaluator@@@8			; Goal_Evaluator `RTTI Type Descriptor'
PUBLIC	??_R3Goal_Evaluator@@8				; Goal_Evaluator::`RTTI Class Hierarchy Descriptor'
PUBLIC	??_R2Goal_Evaluator@@8				; Goal_Evaluator::`RTTI Base Class Array'
EXTRN	??_EGetWeaponGoal_Evaluator@@UAEPAXI@Z:PROC	; GetWeaponGoal_Evaluator::`vector deleting destructor'
EXTRN	?CalculateDesirability@GetWeaponGoal_Evaluator@@UAENPAVAbstRaven_Bot@@@Z:PROC ; GetWeaponGoal_Evaluator::CalculateDesirability
EXTRN	?SetGoal@GetWeaponGoal_Evaluator@@UAEXPAVAbstRaven_Bot@@@Z:PROC ; GetWeaponGoal_Evaluator::SetGoal
EXTRN	?RenderInfo@GetWeaponGoal_Evaluator@@UAEXUVector2D@@PAVAbstRaven_Bot@@@Z:PROC ; GetWeaponGoal_Evaluator::RenderInfo
;	COMDAT ??_R2Goal_Evaluator@@8
; File c:\users\teaja\documents\artificial-fun\labravenprojecttest\raven\goals\getweapongoal_evaluator.h
rdata$r	SEGMENT
??_R2Goal_Evaluator@@8 DD FLAT:??_R1A@?0A@EA@Goal_Evaluator@@8 ; Goal_Evaluator::`RTTI Base Class Array'
rdata$r	ENDS
;	COMDAT ??_R3Goal_Evaluator@@8
rdata$r	SEGMENT
??_R3Goal_Evaluator@@8 DD 00H				; Goal_Evaluator::`RTTI Class Hierarchy Descriptor'
	DD	00H
	DD	01H
	DD	FLAT:??_R2Goal_Evaluator@@8
rdata$r	ENDS
;	COMDAT ??_R0?AVGoal_Evaluator@@@8
_DATA	SEGMENT
??_R0?AVGoal_Evaluator@@@8 DD FLAT:??_7type_info@@6B@	; Goal_Evaluator `RTTI Type Descriptor'
	DD	00H
	DB	'.?AVGoal_Evaluator@@', 00H
_DATA	ENDS
;	COMDAT ??_R1A@?0A@EA@Goal_Evaluator@@8
rdata$r	SEGMENT
??_R1A@?0A@EA@Goal_Evaluator@@8 DD FLAT:??_R0?AVGoal_Evaluator@@@8 ; Goal_Evaluator::`RTTI Base Class Descriptor at (0,-1,0,64)'
	DD	00H
	DD	00H
	DD	0ffffffffH
	DD	00H
	DD	040H
	DD	FLAT:??_R3Goal_Evaluator@@8
rdata$r	ENDS
;	COMDAT ??_R1A@?0A@EA@GetWeaponGoal_Evaluator@@8
rdata$r	SEGMENT
??_R1A@?0A@EA@GetWeaponGoal_Evaluator@@8 DD FLAT:??_R0?AVGetWeaponGoal_Evaluator@@@8 ; GetWeaponGoal_Evaluator::`RTTI Base Class Descriptor at (0,-1,0,64)'
	DD	01H
	DD	00H
	DD	0ffffffffH
	DD	00H
	DD	040H
	DD	FLAT:??_R3GetWeaponGoal_Evaluator@@8
rdata$r	ENDS
;	COMDAT ??_R2GetWeaponGoal_Evaluator@@8
rdata$r	SEGMENT
??_R2GetWeaponGoal_Evaluator@@8 DD FLAT:??_R1A@?0A@EA@GetWeaponGoal_Evaluator@@8 ; GetWeaponGoal_Evaluator::`RTTI Base Class Array'
	DD	FLAT:??_R1A@?0A@EA@Goal_Evaluator@@8
rdata$r	ENDS
;	COMDAT ??_R3GetWeaponGoal_Evaluator@@8
rdata$r	SEGMENT
??_R3GetWeaponGoal_Evaluator@@8 DD 00H			; GetWeaponGoal_Evaluator::`RTTI Class Hierarchy Descriptor'
	DD	00H
	DD	02H
	DD	FLAT:??_R2GetWeaponGoal_Evaluator@@8
rdata$r	ENDS
;	COMDAT ??_R0?AVGetWeaponGoal_Evaluator@@@8
_DATA	SEGMENT
??_R0?AVGetWeaponGoal_Evaluator@@@8 DD FLAT:??_7type_info@@6B@ ; GetWeaponGoal_Evaluator `RTTI Type Descriptor'
	DD	00H
	DB	'.?AVGetWeaponGoal_Evaluator@@', 00H
_DATA	ENDS
;	COMDAT ??_R4GetWeaponGoal_Evaluator@@6B@
rdata$r	SEGMENT
??_R4GetWeaponGoal_Evaluator@@6B@ DD 00H		; GetWeaponGoal_Evaluator::`RTTI Complete Object Locator'
	DD	00H
	DD	00H
	DD	FLAT:??_R0?AVGetWeaponGoal_Evaluator@@@8
	DD	FLAT:??_R3GetWeaponGoal_Evaluator@@8
rdata$r	ENDS
;	COMDAT ??_7GetWeaponGoal_Evaluator@@6B@
CONST	SEGMENT
??_7GetWeaponGoal_Evaluator@@6B@ DD FLAT:??_R4GetWeaponGoal_Evaluator@@6B@ ; GetWeaponGoal_Evaluator::`vftable'
	DD	FLAT:??_EGetWeaponGoal_Evaluator@@UAEPAXI@Z
	DD	FLAT:?CalculateDesirability@GetWeaponGoal_Evaluator@@UAENPAVAbstRaven_Bot@@@Z
	DD	FLAT:?SetGoal@GetWeaponGoal_Evaluator@@UAEXPAVAbstRaven_Bot@@@Z
	DD	FLAT:?RenderInfo@GetWeaponGoal_Evaluator@@UAEXUVector2D@@PAVAbstRaven_Bot@@@Z
; Function compile flags: /Odtp /RTCsu
CONST	ENDS
;	COMDAT ??0GetWeaponGoal_Evaluator@@QAE@NH@Z
_TEXT	SEGMENT
_this$ = -4						; size = 4
_bias$ = 8						; size = 8
_WeaponType$ = 16					; size = 4
??0GetWeaponGoal_Evaluator@@QAE@NH@Z PROC		; GetWeaponGoal_Evaluator::GetWeaponGoal_Evaluator, COMDAT
; _this$ = ecx

; 27   :   {}

	push	ebp
	mov	ebp, esp
	push	ecx
	mov	DWORD PTR [ebp-4], -858993460		; ccccccccH
	mov	DWORD PTR _this$[ebp], ecx
	sub	esp, 8
	fld	QWORD PTR _bias$[ebp]
	fstp	QWORD PTR [esp]
	mov	ecx, DWORD PTR _this$[ebp]
	call	??0Goal_Evaluator@@QAE@N@Z		; Goal_Evaluator::Goal_Evaluator
	mov	eax, DWORD PTR _this$[ebp]
	mov	DWORD PTR [eax], OFFSET ??_7GetWeaponGoal_Evaluator@@6B@
	mov	ecx, DWORD PTR _this$[ebp]
	mov	edx, DWORD PTR _WeaponType$[ebp]
	mov	DWORD PTR [ecx+16], edx
	mov	eax, DWORD PTR _this$[ebp]
	add	esp, 4
	cmp	ebp, esp
	call	__RTC_CheckEsp
	mov	esp, ebp
	pop	ebp
	ret	12					; 0000000cH
??0GetWeaponGoal_Evaluator@@QAE@NH@Z ENDP		; GetWeaponGoal_Evaluator::GetWeaponGoal_Evaluator
_TEXT	ENDS
PUBLIC	??_7Goal_Evaluator@@6B@				; Goal_Evaluator::`vftable'
PUBLIC	??_R4Goal_Evaluator@@6B@			; Goal_Evaluator::`RTTI Complete Object Locator'
EXTRN	??_EGoal_Evaluator@@UAEPAXI@Z:PROC		; Goal_Evaluator::`vector deleting destructor'
EXTRN	__purecall:PROC
;	COMDAT ??_R4Goal_Evaluator@@6B@
; File c:\users\teaja\documents\artificial-fun\labravenprojecttest\raven\goals\goal_evaluator.h
rdata$r	SEGMENT
??_R4Goal_Evaluator@@6B@ DD 00H				; Goal_Evaluator::`RTTI Complete Object Locator'
	DD	00H
	DD	00H
	DD	FLAT:??_R0?AVGoal_Evaluator@@@8
	DD	FLAT:??_R3Goal_Evaluator@@8
rdata$r	ENDS
;	COMDAT ??_7Goal_Evaluator@@6B@
CONST	SEGMENT
??_7Goal_Evaluator@@6B@ DD FLAT:??_R4Goal_Evaluator@@6B@ ; Goal_Evaluator::`vftable'
	DD	FLAT:??_EGoal_Evaluator@@UAEPAXI@Z
	DD	FLAT:__purecall
	DD	FLAT:__purecall
	DD	FLAT:__purecall
; Function compile flags: /Odtp /RTCsu
CONST	ENDS
;	COMDAT ??0Goal_Evaluator@@QAE@N@Z
_TEXT	SEGMENT
_this$ = -4						; size = 4
_CharacterBias$ = 8					; size = 8
??0Goal_Evaluator@@QAE@N@Z PROC				; Goal_Evaluator::Goal_Evaluator, COMDAT
; _this$ = ecx

; 28   :   Goal_Evaluator(double CharacterBias):m_dCharacterBias(CharacterBias){}

	push	ebp
	mov	ebp, esp
	push	ecx
	mov	DWORD PTR [ebp-4], -858993460		; ccccccccH
	mov	DWORD PTR _this$[ebp], ecx
	mov	eax, DWORD PTR _this$[ebp]
	mov	DWORD PTR [eax], OFFSET ??_7Goal_Evaluator@@6B@
	mov	ecx, DWORD PTR _this$[ebp]
	fld	QWORD PTR _CharacterBias$[ebp]
	fstp	QWORD PTR [ecx+8]
	mov	eax, DWORD PTR _this$[ebp]
	mov	esp, ebp
	pop	ebp
	ret	8
??0Goal_Evaluator@@QAE@N@Z ENDP				; Goal_Evaluator::Goal_Evaluator
_TEXT	ENDS
PUBLIC	??1Goal_Evaluator@@UAE@XZ			; Goal_Evaluator::~Goal_Evaluator
; Function compile flags: /Odtp /RTCsu
;	COMDAT ??_GGoal_Evaluator@@UAEPAXI@Z
_TEXT	SEGMENT
_this$ = -4						; size = 4
___flags$ = 8						; size = 4
??_GGoal_Evaluator@@UAEPAXI@Z PROC			; Goal_Evaluator::`scalar deleting destructor', COMDAT
; _this$ = ecx
	push	ebp
	mov	ebp, esp
	push	ecx
	mov	DWORD PTR [ebp-4], -858993460		; ccccccccH
	mov	DWORD PTR _this$[ebp], ecx
	mov	ecx, DWORD PTR _this$[ebp]
	call	??1Goal_Evaluator@@UAE@XZ		; Goal_Evaluator::~Goal_Evaluator
	mov	eax, DWORD PTR ___flags$[ebp]
	and	eax, 1
	je	SHORT $LN1@scalar
	mov	ecx, DWORD PTR _this$[ebp]
	push	ecx
	call	??3@YAXPAX@Z				; operator delete
	add	esp, 4
$LN1@scalar:
	mov	eax, DWORD PTR _this$[ebp]
	add	esp, 4
	cmp	ebp, esp
	call	__RTC_CheckEsp
	mov	esp, ebp
	pop	ebp
	ret	4
??_GGoal_Evaluator@@UAEPAXI@Z ENDP			; Goal_Evaluator::`scalar deleting destructor'
; Function compile flags: /Odtp /RTCsu
_TEXT	ENDS
;	COMDAT ??1Goal_Evaluator@@UAE@XZ
_TEXT	SEGMENT
_this$ = -4						; size = 4
??1Goal_Evaluator@@UAE@XZ PROC				; Goal_Evaluator::~Goal_Evaluator, COMDAT
; _this$ = ecx

; 30   :   virtual ~Goal_Evaluator(){}

	push	ebp
	mov	ebp, esp
	push	ecx
	mov	DWORD PTR [ebp-4], -858993460		; ccccccccH
	mov	DWORD PTR _this$[ebp], ecx
	mov	eax, DWORD PTR _this$[ebp]
	mov	DWORD PTR [eax], OFFSET ??_7Goal_Evaluator@@6B@
	mov	esp, ebp
	pop	ebp
	ret	0
??1Goal_Evaluator@@UAE@XZ ENDP				; Goal_Evaluator::~Goal_Evaluator
_TEXT	ENDS
PUBLIC	??1GetWeaponGoal_Evaluator@@UAE@XZ		; GetWeaponGoal_Evaluator::~GetWeaponGoal_Evaluator
; Function compile flags: /Odtp /RTCsu
;	COMDAT ??_GGetWeaponGoal_Evaluator@@UAEPAXI@Z
_TEXT	SEGMENT
_this$ = -4						; size = 4
___flags$ = 8						; size = 4
??_GGetWeaponGoal_Evaluator@@UAEPAXI@Z PROC		; GetWeaponGoal_Evaluator::`scalar deleting destructor', COMDAT
; _this$ = ecx
	push	ebp
	mov	ebp, esp
	push	ecx
	mov	DWORD PTR [ebp-4], -858993460		; ccccccccH
	mov	DWORD PTR _this$[ebp], ecx
	mov	ecx, DWORD PTR _this$[ebp]
	call	??1GetWeaponGoal_Evaluator@@UAE@XZ
	mov	eax, DWORD PTR ___flags$[ebp]
	and	eax, 1
	je	SHORT $LN1@scalar@2
	mov	ecx, DWORD PTR _this$[ebp]
	push	ecx
	call	??3@YAXPAX@Z				; operator delete
	add	esp, 4
$LN1@scalar@2:
	mov	eax, DWORD PTR _this$[ebp]
	add	esp, 4
	cmp	ebp, esp
	call	__RTC_CheckEsp
	mov	esp, ebp
	pop	ebp
	ret	4
??_GGetWeaponGoal_Evaluator@@UAEPAXI@Z ENDP		; GetWeaponGoal_Evaluator::`scalar deleting destructor'
; Function compile flags: /Odtp /RTCsu
_TEXT	ENDS
;	COMDAT ??1GetWeaponGoal_Evaluator@@UAE@XZ
_TEXT	SEGMENT
_this$ = -4						; size = 4
??1GetWeaponGoal_Evaluator@@UAE@XZ PROC			; GetWeaponGoal_Evaluator::~GetWeaponGoal_Evaluator, COMDAT
; _this$ = ecx
	push	ebp
	mov	ebp, esp
	push	ecx
	mov	DWORD PTR [ebp-4], -858993460		; ccccccccH
	mov	DWORD PTR _this$[ebp], ecx
	mov	ecx, DWORD PTR _this$[ebp]
	call	??1Goal_Evaluator@@UAE@XZ		; Goal_Evaluator::~Goal_Evaluator
	add	esp, 4
	cmp	ebp, esp
	call	__RTC_CheckEsp
	mov	esp, ebp
	pop	ebp
	ret	0
??1GetWeaponGoal_Evaluator@@UAE@XZ ENDP			; GetWeaponGoal_Evaluator::~GetWeaponGoal_Evaluator
_TEXT	ENDS
PUBLIC	??_7GetHealthGoal_Evaluator@@6B@		; GetHealthGoal_Evaluator::`vftable'
PUBLIC	??_R4GetHealthGoal_Evaluator@@6B@		; GetHealthGoal_Evaluator::`RTTI Complete Object Locator'
PUBLIC	??_R0?AVGetHealthGoal_Evaluator@@@8		; GetHealthGoal_Evaluator `RTTI Type Descriptor'
PUBLIC	??_R3GetHealthGoal_Evaluator@@8			; GetHealthGoal_Evaluator::`RTTI Class Hierarchy Descriptor'
PUBLIC	??_R2GetHealthGoal_Evaluator@@8			; GetHealthGoal_Evaluator::`RTTI Base Class Array'
PUBLIC	??_R1A@?0A@EA@GetHealthGoal_Evaluator@@8	; GetHealthGoal_Evaluator::`RTTI Base Class Descriptor at (0,-1,0,64)'
EXTRN	??_EGetHealthGoal_Evaluator@@UAEPAXI@Z:PROC	; GetHealthGoal_Evaluator::`vector deleting destructor'
EXTRN	?CalculateDesirability@GetHealthGoal_Evaluator@@UAENPAVAbstRaven_Bot@@@Z:PROC ; GetHealthGoal_Evaluator::CalculateDesirability
EXTRN	?SetGoal@GetHealthGoal_Evaluator@@UAEXPAVAbstRaven_Bot@@@Z:PROC ; GetHealthGoal_Evaluator::SetGoal
EXTRN	?RenderInfo@GetHealthGoal_Evaluator@@UAEXUVector2D@@PAVAbstRaven_Bot@@@Z:PROC ; GetHealthGoal_Evaluator::RenderInfo
;	COMDAT ??_R1A@?0A@EA@GetHealthGoal_Evaluator@@8
; File c:\users\teaja\documents\artificial-fun\labravenprojecttest\raven\goals\gethealthgoal_evaluator.h
rdata$r	SEGMENT
??_R1A@?0A@EA@GetHealthGoal_Evaluator@@8 DD FLAT:??_R0?AVGetHealthGoal_Evaluator@@@8 ; GetHealthGoal_Evaluator::`RTTI Base Class Descriptor at (0,-1,0,64)'
	DD	01H
	DD	00H
	DD	0ffffffffH
	DD	00H
	DD	040H
	DD	FLAT:??_R3GetHealthGoal_Evaluator@@8
rdata$r	ENDS
;	COMDAT ??_R2GetHealthGoal_Evaluator@@8
rdata$r	SEGMENT
??_R2GetHealthGoal_Evaluator@@8 DD FLAT:??_R1A@?0A@EA@GetHealthGoal_Evaluator@@8 ; GetHealthGoal_Evaluator::`RTTI Base Class Array'
	DD	FLAT:??_R1A@?0A@EA@Goal_Evaluator@@8
rdata$r	ENDS
;	COMDAT ??_R3GetHealthGoal_Evaluator@@8
rdata$r	SEGMENT
??_R3GetHealthGoal_Evaluator@@8 DD 00H			; GetHealthGoal_Evaluator::`RTTI Class Hierarchy Descriptor'
	DD	00H
	DD	02H
	DD	FLAT:??_R2GetHealthGoal_Evaluator@@8
rdata$r	ENDS
;	COMDAT ??_R0?AVGetHealthGoal_Evaluator@@@8
_DATA	SEGMENT
??_R0?AVGetHealthGoal_Evaluator@@@8 DD FLAT:??_7type_info@@6B@ ; GetHealthGoal_Evaluator `RTTI Type Descriptor'
	DD	00H
	DB	'.?AVGetHealthGoal_Evaluator@@', 00H
_DATA	ENDS
;	COMDAT ??_R4GetHealthGoal_Evaluator@@6B@
rdata$r	SEGMENT
??_R4GetHealthGoal_Evaluator@@6B@ DD 00H		; GetHealthGoal_Evaluator::`RTTI Complete Object Locator'
	DD	00H
	DD	00H
	DD	FLAT:??_R0?AVGetHealthGoal_Evaluator@@@8
	DD	FLAT:??_R3GetHealthGoal_Evaluator@@8
rdata$r	ENDS
;	COMDAT ??_7GetHealthGoal_Evaluator@@6B@
CONST	SEGMENT
??_7GetHealthGoal_Evaluator@@6B@ DD FLAT:??_R4GetHealthGoal_Evaluator@@6B@ ; GetHealthGoal_Evaluator::`vftable'
	DD	FLAT:??_EGetHealthGoal_Evaluator@@UAEPAXI@Z
	DD	FLAT:?CalculateDesirability@GetHealthGoal_Evaluator@@UAENPAVAbstRaven_Bot@@@Z
	DD	FLAT:?SetGoal@GetHealthGoal_Evaluator@@UAEXPAVAbstRaven_Bot@@@Z
	DD	FLAT:?RenderInfo@GetHealthGoal_Evaluator@@UAEXUVector2D@@PAVAbstRaven_Bot@@@Z
; Function compile flags: /Odtp /RTCsu
CONST	ENDS
;	COMDAT ??0GetHealthGoal_Evaluator@@QAE@N@Z
_TEXT	SEGMENT
_this$ = -4						; size = 4
_bias$ = 8						; size = 8
??0GetHealthGoal_Evaluator@@QAE@N@Z PROC		; GetHealthGoal_Evaluator::GetHealthGoal_Evaluator, COMDAT
; _this$ = ecx

; 21   :   GetHealthGoal_Evaluator(double bias):Goal_Evaluator(bias){}

	push	ebp
	mov	ebp, esp
	push	ecx
	mov	DWORD PTR [ebp-4], -858993460		; ccccccccH
	mov	DWORD PTR _this$[ebp], ecx
	sub	esp, 8
	fld	QWORD PTR _bias$[ebp]
	fstp	QWORD PTR [esp]
	mov	ecx, DWORD PTR _this$[ebp]
	call	??0Goal_Evaluator@@QAE@N@Z		; Goal_Evaluator::Goal_Evaluator
	mov	eax, DWORD PTR _this$[ebp]
	mov	DWORD PTR [eax], OFFSET ??_7GetHealthGoal_Evaluator@@6B@
	mov	eax, DWORD PTR _this$[ebp]
	add	esp, 4
	cmp	ebp, esp
	call	__RTC_CheckEsp
	mov	esp, ebp
	pop	ebp
	ret	8
??0GetHealthGoal_Evaluator@@QAE@N@Z ENDP		; GetHealthGoal_Evaluator::GetHealthGoal_Evaluator
_TEXT	ENDS
PUBLIC	??1GetHealthGoal_Evaluator@@UAE@XZ		; GetHealthGoal_Evaluator::~GetHealthGoal_Evaluator
; Function compile flags: /Odtp /RTCsu
;	COMDAT ??_GGetHealthGoal_Evaluator@@UAEPAXI@Z
_TEXT	SEGMENT
_this$ = -4						; size = 4
___flags$ = 8						; size = 4
??_GGetHealthGoal_Evaluator@@UAEPAXI@Z PROC		; GetHealthGoal_Evaluator::`scalar deleting destructor', COMDAT
; _this$ = ecx
	push	ebp
	mov	ebp, esp
	push	ecx
	mov	DWORD PTR [ebp-4], -858993460		; ccccccccH
	mov	DWORD PTR _this$[ebp], ecx
	mov	ecx, DWORD PTR _this$[ebp]
	call	??1GetHealthGoal_Evaluator@@UAE@XZ
	mov	eax, DWORD PTR ___flags$[ebp]
	and	eax, 1
	je	SHORT $LN1@scalar@3
	mov	ecx, DWORD PTR _this$[ebp]
	push	ecx
	call	??3@YAXPAX@Z				; operator delete
	add	esp, 4
$LN1@scalar@3:
	mov	eax, DWORD PTR _this$[ebp]
	add	esp, 4
	cmp	ebp, esp
	call	__RTC_CheckEsp
	mov	esp, ebp
	pop	ebp
	ret	4
??_GGetHealthGoal_Evaluator@@UAEPAXI@Z ENDP		; GetHealthGoal_Evaluator::`scalar deleting destructor'
; Function compile flags: /Odtp /RTCsu
_TEXT	ENDS
;	COMDAT ??1GetHealthGoal_Evaluator@@UAE@XZ
_TEXT	SEGMENT
_this$ = -4						; size = 4
??1GetHealthGoal_Evaluator@@UAE@XZ PROC			; GetHealthGoal_Evaluator::~GetHealthGoal_Evaluator, COMDAT
; _this$ = ecx
	push	ebp
	mov	ebp, esp
	push	ecx
	mov	DWORD PTR [ebp-4], -858993460		; ccccccccH
	mov	DWORD PTR _this$[ebp], ecx
	mov	ecx, DWORD PTR _this$[ebp]
	call	??1Goal_Evaluator@@UAE@XZ		; Goal_Evaluator::~Goal_Evaluator
	add	esp, 4
	cmp	ebp, esp
	call	__RTC_CheckEsp
	mov	esp, ebp
	pop	ebp
	ret	0
??1GetHealthGoal_Evaluator@@UAE@XZ ENDP			; GetHealthGoal_Evaluator::~GetHealthGoal_Evaluator
_TEXT	ENDS
PUBLIC	??_7ExploreGoal_Evaluator@@6B@			; ExploreGoal_Evaluator::`vftable'
PUBLIC	??_R4ExploreGoal_Evaluator@@6B@			; ExploreGoal_Evaluator::`RTTI Complete Object Locator'
PUBLIC	??_R0?AVExploreGoal_Evaluator@@@8		; ExploreGoal_Evaluator `RTTI Type Descriptor'
PUBLIC	??_R3ExploreGoal_Evaluator@@8			; ExploreGoal_Evaluator::`RTTI Class Hierarchy Descriptor'
PUBLIC	??_R2ExploreGoal_Evaluator@@8			; ExploreGoal_Evaluator::`RTTI Base Class Array'
PUBLIC	??_R1A@?0A@EA@ExploreGoal_Evaluator@@8		; ExploreGoal_Evaluator::`RTTI Base Class Descriptor at (0,-1,0,64)'
EXTRN	??_EExploreGoal_Evaluator@@UAEPAXI@Z:PROC	; ExploreGoal_Evaluator::`vector deleting destructor'
EXTRN	?CalculateDesirability@ExploreGoal_Evaluator@@UAENPAVAbstRaven_Bot@@@Z:PROC ; ExploreGoal_Evaluator::CalculateDesirability
EXTRN	?SetGoal@ExploreGoal_Evaluator@@UAEXPAVAbstRaven_Bot@@@Z:PROC ; ExploreGoal_Evaluator::SetGoal
EXTRN	?RenderInfo@ExploreGoal_Evaluator@@UAEXUVector2D@@PAVAbstRaven_Bot@@@Z:PROC ; ExploreGoal_Evaluator::RenderInfo
;	COMDAT ??_R1A@?0A@EA@ExploreGoal_Evaluator@@8
; File c:\users\teaja\documents\artificial-fun\labravenprojecttest\raven\goals\exploregoal_evaluator.h
rdata$r	SEGMENT
??_R1A@?0A@EA@ExploreGoal_Evaluator@@8 DD FLAT:??_R0?AVExploreGoal_Evaluator@@@8 ; ExploreGoal_Evaluator::`RTTI Base Class Descriptor at (0,-1,0,64)'
	DD	01H
	DD	00H
	DD	0ffffffffH
	DD	00H
	DD	040H
	DD	FLAT:??_R3ExploreGoal_Evaluator@@8
rdata$r	ENDS
;	COMDAT ??_R2ExploreGoal_Evaluator@@8
rdata$r	SEGMENT
??_R2ExploreGoal_Evaluator@@8 DD FLAT:??_R1A@?0A@EA@ExploreGoal_Evaluator@@8 ; ExploreGoal_Evaluator::`RTTI Base Class Array'
	DD	FLAT:??_R1A@?0A@EA@Goal_Evaluator@@8
rdata$r	ENDS
;	COMDAT ??_R3ExploreGoal_Evaluator@@8
rdata$r	SEGMENT
??_R3ExploreGoal_Evaluator@@8 DD 00H			; ExploreGoal_Evaluator::`RTTI Class Hierarchy Descriptor'
	DD	00H
	DD	02H
	DD	FLAT:??_R2ExploreGoal_Evaluator@@8
rdata$r	ENDS
;	COMDAT ??_R0?AVExploreGoal_Evaluator@@@8
_DATA	SEGMENT
??_R0?AVExploreGoal_Evaluator@@@8 DD FLAT:??_7type_info@@6B@ ; ExploreGoal_Evaluator `RTTI Type Descriptor'
	DD	00H
	DB	'.?AVExploreGoal_Evaluator@@', 00H
_DATA	ENDS
;	COMDAT ??_R4ExploreGoal_Evaluator@@6B@
rdata$r	SEGMENT
??_R4ExploreGoal_Evaluator@@6B@ DD 00H			; ExploreGoal_Evaluator::`RTTI Complete Object Locator'
	DD	00H
	DD	00H
	DD	FLAT:??_R0?AVExploreGoal_Evaluator@@@8
	DD	FLAT:??_R3ExploreGoal_Evaluator@@8
rdata$r	ENDS
;	COMDAT ??_7ExploreGoal_Evaluator@@6B@
CONST	SEGMENT
??_7ExploreGoal_Evaluator@@6B@ DD FLAT:??_R4ExploreGoal_Evaluator@@6B@ ; ExploreGoal_Evaluator::`vftable'
	DD	FLAT:??_EExploreGoal_Evaluator@@UAEPAXI@Z
	DD	FLAT:?CalculateDesirability@ExploreGoal_Evaluator@@UAENPAVAbstRaven_Bot@@@Z
	DD	FLAT:?SetGoal@ExploreGoal_Evaluator@@UAEXPAVAbstRaven_Bot@@@Z
	DD	FLAT:?RenderInfo@ExploreGoal_Evaluator@@UAEXUVector2D@@PAVAbstRaven_Bot@@@Z
; Function compile flags: /Odtp /RTCsu
CONST	ENDS
;	COMDAT ??0ExploreGoal_Evaluator@@QAE@N@Z
_TEXT	SEGMENT
_this$ = -4						; size = 4
_bias$ = 8						; size = 8
??0ExploreGoal_Evaluator@@QAE@N@Z PROC			; ExploreGoal_Evaluator::ExploreGoal_Evaluator, COMDAT
; _this$ = ecx

; 21   :   ExploreGoal_Evaluator(double bias):Goal_Evaluator(bias){}

	push	ebp
	mov	ebp, esp
	push	ecx
	mov	DWORD PTR [ebp-4], -858993460		; ccccccccH
	mov	DWORD PTR _this$[ebp], ecx
	sub	esp, 8
	fld	QWORD PTR _bias$[ebp]
	fstp	QWORD PTR [esp]
	mov	ecx, DWORD PTR _this$[ebp]
	call	??0Goal_Evaluator@@QAE@N@Z		; Goal_Evaluator::Goal_Evaluator
	mov	eax, DWORD PTR _this$[ebp]
	mov	DWORD PTR [eax], OFFSET ??_7ExploreGoal_Evaluator@@6B@
	mov	eax, DWORD PTR _this$[ebp]
	add	esp, 4
	cmp	ebp, esp
	call	__RTC_CheckEsp
	mov	esp, ebp
	pop	ebp
	ret	8
??0ExploreGoal_Evaluator@@QAE@N@Z ENDP			; ExploreGoal_Evaluator::ExploreGoal_Evaluator
_TEXT	ENDS
PUBLIC	??1ExploreGoal_Evaluator@@UAE@XZ		; ExploreGoal_Evaluator::~ExploreGoal_Evaluator
; Function compile flags: /Odtp /RTCsu
;	COMDAT ??_GExploreGoal_Evaluator@@UAEPAXI@Z
_TEXT	SEGMENT
_this$ = -4						; size = 4
___flags$ = 8						; size = 4
??_GExploreGoal_Evaluator@@UAEPAXI@Z PROC		; ExploreGoal_Evaluator::`scalar deleting destructor', COMDAT
; _this$ = ecx
	push	ebp
	mov	ebp, esp
	push	ecx
	mov	DWORD PTR [ebp-4], -858993460		; ccccccccH
	mov	DWORD PTR _this$[ebp], ecx
	mov	ecx, DWORD PTR _this$[ebp]
	call	??1ExploreGoal_Evaluator@@UAE@XZ
	mov	eax, DWORD PTR ___flags$[ebp]
	and	eax, 1
	je	SHORT $LN1@scalar@4
	mov	ecx, DWORD PTR _this$[ebp]
	push	ecx
	call	??3@YAXPAX@Z				; operator delete
	add	esp, 4
$LN1@scalar@4:
	mov	eax, DWORD PTR _this$[ebp]
	add	esp, 4
	cmp	ebp, esp
	call	__RTC_CheckEsp
	mov	esp, ebp
	pop	ebp
	ret	4
??_GExploreGoal_Evaluator@@UAEPAXI@Z ENDP		; ExploreGoal_Evaluator::`scalar deleting destructor'
; Function compile flags: /Odtp /RTCsu
_TEXT	ENDS
;	COMDAT ??1ExploreGoal_Evaluator@@UAE@XZ
_TEXT	SEGMENT
_this$ = -4						; size = 4
??1ExploreGoal_Evaluator@@UAE@XZ PROC			; ExploreGoal_Evaluator::~ExploreGoal_Evaluator, COMDAT
; _this$ = ecx
	push	ebp
	mov	ebp, esp
	push	ecx
	mov	DWORD PTR [ebp-4], -858993460		; ccccccccH
	mov	DWORD PTR _this$[ebp], ecx
	mov	ecx, DWORD PTR _this$[ebp]
	call	??1Goal_Evaluator@@UAE@XZ		; Goal_Evaluator::~Goal_Evaluator
	add	esp, 4
	cmp	ebp, esp
	call	__RTC_CheckEsp
	mov	esp, ebp
	pop	ebp
	ret	0
??1ExploreGoal_Evaluator@@UAE@XZ ENDP			; ExploreGoal_Evaluator::~ExploreGoal_Evaluator
_TEXT	ENDS
PUBLIC	??_7AttackTargetGoal_Evaluator@@6B@		; AttackTargetGoal_Evaluator::`vftable'
PUBLIC	??_R4AttackTargetGoal_Evaluator@@6B@		; AttackTargetGoal_Evaluator::`RTTI Complete Object Locator'
PUBLIC	??_R0?AVAttackTargetGoal_Evaluator@@@8		; AttackTargetGoal_Evaluator `RTTI Type Descriptor'
PUBLIC	??_R3AttackTargetGoal_Evaluator@@8		; AttackTargetGoal_Evaluator::`RTTI Class Hierarchy Descriptor'
PUBLIC	??_R2AttackTargetGoal_Evaluator@@8		; AttackTargetGoal_Evaluator::`RTTI Base Class Array'
PUBLIC	??_R1A@?0A@EA@AttackTargetGoal_Evaluator@@8	; AttackTargetGoal_Evaluator::`RTTI Base Class Descriptor at (0,-1,0,64)'
EXTRN	??_EAttackTargetGoal_Evaluator@@UAEPAXI@Z:PROC	; AttackTargetGoal_Evaluator::`vector deleting destructor'
EXTRN	?CalculateDesirability@AttackTargetGoal_Evaluator@@UAENPAVAbstRaven_Bot@@@Z:PROC ; AttackTargetGoal_Evaluator::CalculateDesirability
EXTRN	?SetGoal@AttackTargetGoal_Evaluator@@UAEXPAVAbstRaven_Bot@@@Z:PROC ; AttackTargetGoal_Evaluator::SetGoal
EXTRN	?RenderInfo@AttackTargetGoal_Evaluator@@UAEXUVector2D@@PAVAbstRaven_Bot@@@Z:PROC ; AttackTargetGoal_Evaluator::RenderInfo
;	COMDAT ??_R1A@?0A@EA@AttackTargetGoal_Evaluator@@8
; File c:\users\teaja\documents\artificial-fun\labravenprojecttest\raven\goals\attacktargetgoal_evaluator.h
rdata$r	SEGMENT
??_R1A@?0A@EA@AttackTargetGoal_Evaluator@@8 DD FLAT:??_R0?AVAttackTargetGoal_Evaluator@@@8 ; AttackTargetGoal_Evaluator::`RTTI Base Class Descriptor at (0,-1,0,64)'
	DD	01H
	DD	00H
	DD	0ffffffffH
	DD	00H
	DD	040H
	DD	FLAT:??_R3AttackTargetGoal_Evaluator@@8
rdata$r	ENDS
;	COMDAT ??_R2AttackTargetGoal_Evaluator@@8
rdata$r	SEGMENT
??_R2AttackTargetGoal_Evaluator@@8 DD FLAT:??_R1A@?0A@EA@AttackTargetGoal_Evaluator@@8 ; AttackTargetGoal_Evaluator::`RTTI Base Class Array'
	DD	FLAT:??_R1A@?0A@EA@Goal_Evaluator@@8
rdata$r	ENDS
;	COMDAT ??_R3AttackTargetGoal_Evaluator@@8
rdata$r	SEGMENT
??_R3AttackTargetGoal_Evaluator@@8 DD 00H		; AttackTargetGoal_Evaluator::`RTTI Class Hierarchy Descriptor'
	DD	00H
	DD	02H
	DD	FLAT:??_R2AttackTargetGoal_Evaluator@@8
rdata$r	ENDS
;	COMDAT ??_R0?AVAttackTargetGoal_Evaluator@@@8
_DATA	SEGMENT
??_R0?AVAttackTargetGoal_Evaluator@@@8 DD FLAT:??_7type_info@@6B@ ; AttackTargetGoal_Evaluator `RTTI Type Descriptor'
	DD	00H
	DB	'.?AVAttackTargetGoal_Evaluator@@', 00H
_DATA	ENDS
;	COMDAT ??_R4AttackTargetGoal_Evaluator@@6B@
rdata$r	SEGMENT
??_R4AttackTargetGoal_Evaluator@@6B@ DD 00H		; AttackTargetGoal_Evaluator::`RTTI Complete Object Locator'
	DD	00H
	DD	00H
	DD	FLAT:??_R0?AVAttackTargetGoal_Evaluator@@@8
	DD	FLAT:??_R3AttackTargetGoal_Evaluator@@8
rdata$r	ENDS
;	COMDAT ??_7AttackTargetGoal_Evaluator@@6B@
CONST	SEGMENT
??_7AttackTargetGoal_Evaluator@@6B@ DD FLAT:??_R4AttackTargetGoal_Evaluator@@6B@ ; AttackTargetGoal_Evaluator::`vftable'
	DD	FLAT:??_EAttackTargetGoal_Evaluator@@UAEPAXI@Z
	DD	FLAT:?CalculateDesirability@AttackTargetGoal_Evaluator@@UAENPAVAbstRaven_Bot@@@Z
	DD	FLAT:?SetGoal@AttackTargetGoal_Evaluator@@UAEXPAVAbstRaven_Bot@@@Z
	DD	FLAT:?RenderInfo@AttackTargetGoal_Evaluator@@UAEXUVector2D@@PAVAbstRaven_Bot@@@Z
; Function compile flags: /Odtp /RTCsu
CONST	ENDS
;	COMDAT ??0AttackTargetGoal_Evaluator@@QAE@N@Z
_TEXT	SEGMENT
_this$ = -4						; size = 4
_bias$ = 8						; size = 8
??0AttackTargetGoal_Evaluator@@QAE@N@Z PROC		; AttackTargetGoal_Evaluator::AttackTargetGoal_Evaluator, COMDAT
; _this$ = ecx

; 22   :   AttackTargetGoal_Evaluator(double bias):Goal_Evaluator(bias){}

	push	ebp
	mov	ebp, esp
	push	ecx
	mov	DWORD PTR [ebp-4], -858993460		; ccccccccH
	mov	DWORD PTR _this$[ebp], ecx
	sub	esp, 8
	fld	QWORD PTR _bias$[ebp]
	fstp	QWORD PTR [esp]
	mov	ecx, DWORD PTR _this$[ebp]
	call	??0Goal_Evaluator@@QAE@N@Z		; Goal_Evaluator::Goal_Evaluator
	mov	eax, DWORD PTR _this$[ebp]
	mov	DWORD PTR [eax], OFFSET ??_7AttackTargetGoal_Evaluator@@6B@
	mov	eax, DWORD PTR _this$[ebp]
	add	esp, 4
	cmp	ebp, esp
	call	__RTC_CheckEsp
	mov	esp, ebp
	pop	ebp
	ret	8
??0AttackTargetGoal_Evaluator@@QAE@N@Z ENDP		; AttackTargetGoal_Evaluator::AttackTargetGoal_Evaluator
_TEXT	ENDS
PUBLIC	??1AttackTargetGoal_Evaluator@@UAE@XZ		; AttackTargetGoal_Evaluator::~AttackTargetGoal_Evaluator
; Function compile flags: /Odtp /RTCsu
;	COMDAT ??_GAttackTargetGoal_Evaluator@@UAEPAXI@Z
_TEXT	SEGMENT
_this$ = -4						; size = 4
___flags$ = 8						; size = 4
??_GAttackTargetGoal_Evaluator@@UAEPAXI@Z PROC		; AttackTargetGoal_Evaluator::`scalar deleting destructor', COMDAT
; _this$ = ecx
	push	ebp
	mov	ebp, esp
	push	ecx
	mov	DWORD PTR [ebp-4], -858993460		; ccccccccH
	mov	DWORD PTR _this$[ebp], ecx
	mov	ecx, DWORD PTR _this$[ebp]
	call	??1AttackTargetGoal_Evaluator@@UAE@XZ
	mov	eax, DWORD PTR ___flags$[ebp]
	and	eax, 1
	je	SHORT $LN1@scalar@5
	mov	ecx, DWORD PTR _this$[ebp]
	push	ecx
	call	??3@YAXPAX@Z				; operator delete
	add	esp, 4
$LN1@scalar@5:
	mov	eax, DWORD PTR _this$[ebp]
	add	esp, 4
	cmp	ebp, esp
	call	__RTC_CheckEsp
	mov	esp, ebp
	pop	ebp
	ret	4
??_GAttackTargetGoal_Evaluator@@UAEPAXI@Z ENDP		; AttackTargetGoal_Evaluator::`scalar deleting destructor'
; Function compile flags: /Odtp /RTCsu
_TEXT	ENDS
;	COMDAT ??1AttackTargetGoal_Evaluator@@UAE@XZ
_TEXT	SEGMENT
_this$ = -4						; size = 4
??1AttackTargetGoal_Evaluator@@UAE@XZ PROC		; AttackTargetGoal_Evaluator::~AttackTargetGoal_Evaluator, COMDAT
; _this$ = ecx
	push	ebp
	mov	ebp, esp
	push	ecx
	mov	DWORD PTR [ebp-4], -858993460		; ccccccccH
	mov	DWORD PTR _this$[ebp], ecx
	mov	ecx, DWORD PTR _this$[ebp]
	call	??1Goal_Evaluator@@UAE@XZ		; Goal_Evaluator::~Goal_Evaluator
	add	esp, 4
	cmp	ebp, esp
	call	__RTC_CheckEsp
	mov	esp, ebp
	pop	ebp
	ret	0
??1AttackTargetGoal_Evaluator@@UAE@XZ ENDP		; AttackTargetGoal_Evaluator::~AttackTargetGoal_Evaluator
_TEXT	ENDS
PUBLIC	??1Goal_Think@@UAE@XZ				; Goal_Think::~Goal_Think
; Function compile flags: /Odtp /RTCsu
;	COMDAT ??_GGoal_Think@@UAEPAXI@Z
_TEXT	SEGMENT
_this$ = -4						; size = 4
___flags$ = 8						; size = 4
??_GGoal_Think@@UAEPAXI@Z PROC				; Goal_Think::`scalar deleting destructor', COMDAT
; _this$ = ecx
	push	ebp
	mov	ebp, esp
	push	ecx
	mov	DWORD PTR [ebp-4], -858993460		; ccccccccH
	mov	DWORD PTR _this$[ebp], ecx
	mov	ecx, DWORD PTR _this$[ebp]
	call	??1Goal_Think@@UAE@XZ			; Goal_Think::~Goal_Think
	mov	eax, DWORD PTR ___flags$[ebp]
	and	eax, 1
	je	SHORT $LN1@scalar@6
	mov	ecx, DWORD PTR _this$[ebp]
	push	ecx
	call	??3@YAXPAX@Z				; operator delete
	add	esp, 4
$LN1@scalar@6:
	mov	eax, DWORD PTR _this$[ebp]
	add	esp, 4
	cmp	ebp, esp
	call	__RTC_CheckEsp
	mov	esp, ebp
	pop	ebp
	ret	4
??_GGoal_Think@@UAEPAXI@Z ENDP				; Goal_Think::`scalar deleting destructor'
_TEXT	ENDS
PUBLIC	??D?$_Vector_iterator@V?$_Vector_val@PAVGoal_Evaluator@@V?$allocator@PAVGoal_Evaluator@@@std@@@std@@@std@@QBEAAPAVGoal_Evaluator@@XZ ; std::_Vector_iterator<std::_Vector_val<Goal_Evaluator *,std::allocator<Goal_Evaluator *> > >::operator*
PUBLIC	??1?$_Vector_iterator@V?$_Vector_val@PAVGoal_Evaluator@@V?$allocator@PAVGoal_Evaluator@@@std@@@std@@@std@@QAE@XZ ; std::_Vector_iterator<std::_Vector_val<Goal_Evaluator *,std::allocator<Goal_Evaluator *> > >::~_Vector_iterator<std::_Vector_val<Goal_Evaluator *,std::allocator<Goal_Evaluator *> > >
PUBLIC	??9?$_Vector_const_iterator@V?$_Vector_val@PAVGoal_Evaluator@@V?$allocator@PAVGoal_Evaluator@@@std@@@std@@@std@@QBE_NABV01@@Z ; std::_Vector_const_iterator<std::_Vector_val<Goal_Evaluator *,std::allocator<Goal_Evaluator *> > >::operator!=
PUBLIC	?end@?$vector@PAVGoal_Evaluator@@V?$allocator@PAVGoal_Evaluator@@@std@@@std@@QAE?AV?$_Vector_iterator@V?$_Vector_val@PAVGoal_Evaluator@@V?$allocator@PAVGoal_Evaluator@@@std@@@std@@@2@XZ ; std::vector<Goal_Evaluator *,std::allocator<Goal_Evaluator *> >::end
PUBLIC	??E?$_Vector_iterator@V?$_Vector_val@PAVGoal_Evaluator@@V?$allocator@PAVGoal_Evaluator@@@std@@@std@@@std@@QAEAAV01@XZ ; std::_Vector_iterator<std::_Vector_val<Goal_Evaluator *,std::allocator<Goal_Evaluator *> > >::operator++
PUBLIC	?begin@?$vector@PAVGoal_Evaluator@@V?$allocator@PAVGoal_Evaluator@@@std@@@std@@QAE?AV?$_Vector_iterator@V?$_Vector_val@PAVGoal_Evaluator@@V?$allocator@PAVGoal_Evaluator@@@std@@@std@@@2@XZ ; std::vector<Goal_Evaluator *,std::allocator<Goal_Evaluator *> >::begin
EXTRN	@_RTC_CheckStackVars@8:PROC
xdata$x	SEGMENT
__unwindtable$??1Goal_Think@@UAE@XZ DD 0ffffffffH
	DD	FLAT:__unwindfunclet$??1Goal_Think@@UAE@XZ$0
	DD	00H
	DD	FLAT:__unwindfunclet$??1Goal_Think@@UAE@XZ$1
	DD	01H
	DD	FLAT:__unwindfunclet$??1Goal_Think@@UAE@XZ$2
	DD	02H
	DD	FLAT:__unwindfunclet$??1Goal_Think@@UAE@XZ$3
__ehfuncinfo$??1Goal_Think@@UAE@XZ DD 019930522H
	DD	04H
	DD	FLAT:__unwindtable$??1Goal_Think@@UAE@XZ
	DD	2 DUP(00H)
	DD	2 DUP(00H)
	DD	00H
	DD	01H
; Function compile flags: /Odtp /RTCsu
; File c:\users\teaja\documents\artificial-fun\labravenprojecttest\raven\goals\goal_think.cpp
xdata$x	ENDS
_TEXT	SEGMENT
tv141 = -72						; size = 4
tv147 = -68						; size = 4
tv78 = -64						; size = 4
$T141984 = -60						; size = 4
$T141983 = -56						; size = 4
$T141982 = -52						; size = 12
$T141981 = -37						; size = 1
_curDes$ = -32						; size = 12
_this$ = -16						; size = 4
__$EHRec$ = -12						; size = 12
??1Goal_Think@@UAE@XZ PROC				; Goal_Think::~Goal_Think
; _this$ = ecx

; 52   : {

	push	ebp
	mov	ebp, esp
	push	-1
	push	__ehhandler$??1Goal_Think@@UAE@XZ
	mov	eax, DWORD PTR fs:0
	push	eax
	sub	esp, 60					; 0000003cH
	push	esi
	push	edi
	push	ecx
	lea	edi, DWORD PTR [ebp-72]
	mov	ecx, 15					; 0000000fH
	mov	eax, -858993460				; ccccccccH
	rep stosd
	pop	ecx
	mov	eax, DWORD PTR ___security_cookie
	xor	eax, ebp
	push	eax
	lea	eax, DWORD PTR __$EHRec$[ebp]
	mov	DWORD PTR fs:0, eax
	mov	DWORD PTR _this$[ebp], ecx
	mov	eax, DWORD PTR _this$[ebp]
	mov	DWORD PTR [eax], OFFSET ??_7Goal_Think@@6B@
	mov	DWORD PTR __$EHRec$[ebp+8], 1

; 53   :   GoalEvaluators::iterator curDes = m_Evaluators.begin();

	lea	ecx, DWORD PTR _curDes$[ebp]
	push	ecx
	mov	ecx, DWORD PTR _this$[ebp]
	add	ecx, 32					; 00000020H
	call	?begin@?$vector@PAVGoal_Evaluator@@V?$allocator@PAVGoal_Evaluator@@@std@@@std@@QAE?AV?$_Vector_iterator@V?$_Vector_val@PAVGoal_Evaluator@@V?$allocator@PAVGoal_Evaluator@@@std@@@std@@@2@XZ ; std::vector<Goal_Evaluator *,std::allocator<Goal_Evaluator *> >::begin
	mov	BYTE PTR __$EHRec$[ebp+8], 2
	jmp	SHORT $LN3@Goal_Think@2
$LN2@Goal_Think@2:

; 54   :   for (curDes; curDes != m_Evaluators.end(); ++curDes)

	lea	ecx, DWORD PTR _curDes$[ebp]
	call	??E?$_Vector_iterator@V?$_Vector_val@PAVGoal_Evaluator@@V?$allocator@PAVGoal_Evaluator@@@std@@@std@@@std@@QAEAAV01@XZ ; std::_Vector_iterator<std::_Vector_val<Goal_Evaluator *,std::allocator<Goal_Evaluator *> > >::operator++
$LN3@Goal_Think@2:
	lea	edx, DWORD PTR $T141982[ebp]
	push	edx
	mov	ecx, DWORD PTR _this$[ebp]
	add	ecx, 32					; 00000020H
	call	?end@?$vector@PAVGoal_Evaluator@@V?$allocator@PAVGoal_Evaluator@@@std@@@std@@QAE?AV?$_Vector_iterator@V?$_Vector_val@PAVGoal_Evaluator@@V?$allocator@PAVGoal_Evaluator@@@std@@@std@@@2@XZ ; std::vector<Goal_Evaluator *,std::allocator<Goal_Evaluator *> >::end
	mov	DWORD PTR tv78[ebp], eax
	mov	eax, DWORD PTR tv78[ebp]
	mov	DWORD PTR tv147[ebp], eax
	mov	BYTE PTR __$EHRec$[ebp+8], 3
	mov	ecx, DWORD PTR tv147[ebp]
	push	ecx
	lea	ecx, DWORD PTR _curDes$[ebp]
	call	??9?$_Vector_const_iterator@V?$_Vector_val@PAVGoal_Evaluator@@V?$allocator@PAVGoal_Evaluator@@@std@@@std@@@std@@QBE_NABV01@@Z ; std::_Vector_const_iterator<std::_Vector_val<Goal_Evaluator *,std::allocator<Goal_Evaluator *> > >::operator!=
	mov	BYTE PTR $T141981[ebp], al
	mov	BYTE PTR __$EHRec$[ebp+8], 2
	lea	ecx, DWORD PTR $T141982[ebp]
	call	??1?$_Vector_iterator@V?$_Vector_val@PAVGoal_Evaluator@@V?$allocator@PAVGoal_Evaluator@@@std@@@std@@@std@@QAE@XZ
	movzx	edx, BYTE PTR $T141981[ebp]
	test	edx, edx
	je	SHORT $LN1@Goal_Think@2

; 55   :   {
; 56   :     delete *curDes;

	lea	ecx, DWORD PTR _curDes$[ebp]
	call	??D?$_Vector_iterator@V?$_Vector_val@PAVGoal_Evaluator@@V?$allocator@PAVGoal_Evaluator@@@std@@@std@@@std@@QBEAAPAVGoal_Evaluator@@XZ ; std::_Vector_iterator<std::_Vector_val<Goal_Evaluator *,std::allocator<Goal_Evaluator *> > >::operator*
	mov	eax, DWORD PTR [eax]
	mov	DWORD PTR $T141984[ebp], eax
	mov	ecx, DWORD PTR $T141984[ebp]
	mov	DWORD PTR $T141983[ebp], ecx
	cmp	DWORD PTR $T141983[ebp], 0
	je	SHORT $LN6@Goal_Think@2
	mov	esi, esp
	push	1
	mov	edx, DWORD PTR $T141983[ebp]
	mov	eax, DWORD PTR [edx]
	mov	ecx, DWORD PTR $T141983[ebp]
	mov	edx, DWORD PTR [eax]
	call	edx
	cmp	esi, esp
	call	__RTC_CheckEsp
	mov	DWORD PTR tv141[ebp], eax
	jmp	SHORT $LN7@Goal_Think@2
$LN6@Goal_Think@2:
	mov	DWORD PTR tv141[ebp], 0
$LN7@Goal_Think@2:

; 57   :   }

	jmp	$LN2@Goal_Think@2
$LN1@Goal_Think@2:

; 58   : }

	mov	BYTE PTR __$EHRec$[ebp+8], 1
	lea	ecx, DWORD PTR _curDes$[ebp]
	call	??1?$_Vector_iterator@V?$_Vector_val@PAVGoal_Evaluator@@V?$allocator@PAVGoal_Evaluator@@@std@@@std@@@std@@QAE@XZ
	mov	BYTE PTR __$EHRec$[ebp+8], 0
	mov	ecx, DWORD PTR _this$[ebp]
	add	ecx, 32					; 00000020H
	call	??1?$vector@PAVGoal_Evaluator@@V?$allocator@PAVGoal_Evaluator@@@std@@@std@@QAE@XZ ; std::vector<Goal_Evaluator *,std::allocator<Goal_Evaluator *> >::~vector<Goal_Evaluator *,std::allocator<Goal_Evaluator *> >
	mov	DWORD PTR __$EHRec$[ebp+8], -1
	mov	ecx, DWORD PTR _this$[ebp]
	call	??1?$Goal_Composite@VAbstRaven_Bot@@@@UAE@XZ ; Goal_Composite<AbstRaven_Bot>::~Goal_Composite<AbstRaven_Bot>
	push	edx
	mov	ecx, ebp
	push	eax
	lea	edx, DWORD PTR $LN15@Goal_Think@2
	call	@_RTC_CheckStackVars@8
	pop	eax
	pop	edx
	mov	ecx, DWORD PTR __$EHRec$[ebp]
	mov	DWORD PTR fs:0, ecx
	pop	ecx
	pop	edi
	pop	esi
	add	esp, 72					; 00000048H
	cmp	ebp, esp
	call	__RTC_CheckEsp
	mov	esp, ebp
	pop	ebp
	ret	0
	npad	2
$LN15@Goal_Think@2:
	DD	1
	DD	$LN14@Goal_Think@2
$LN14@Goal_Think@2:
	DD	-32					; ffffffe0H
	DD	12					; 0000000cH
	DD	$LN12@Goal_Think@2
$LN12@Goal_Think@2:
	DB	99					; 00000063H
	DB	117					; 00000075H
	DB	114					; 00000072H
	DB	68					; 00000044H
	DB	101					; 00000065H
	DB	115					; 00000073H
	DB	0
_TEXT	ENDS
text$x	SEGMENT
__unwindfunclet$??1Goal_Think@@UAE@XZ$0:
	mov	ecx, DWORD PTR _this$[ebp]
	jmp	??1?$Goal_Composite@VAbstRaven_Bot@@@@UAE@XZ ; Goal_Composite<AbstRaven_Bot>::~Goal_Composite<AbstRaven_Bot>
__unwindfunclet$??1Goal_Think@@UAE@XZ$1:
	mov	ecx, DWORD PTR _this$[ebp]
	add	ecx, 32					; 00000020H
	jmp	??1?$vector@PAVGoal_Evaluator@@V?$allocator@PAVGoal_Evaluator@@@std@@@std@@QAE@XZ ; std::vector<Goal_Evaluator *,std::allocator<Goal_Evaluator *> >::~vector<Goal_Evaluator *,std::allocator<Goal_Evaluator *> >
__unwindfunclet$??1Goal_Think@@UAE@XZ$2:
	lea	ecx, DWORD PTR _curDes$[ebp]
	jmp	??1?$_Vector_iterator@V?$_Vector_val@PAVGoal_Evaluator@@V?$allocator@PAVGoal_Evaluator@@@std@@@std@@@std@@QAE@XZ
__unwindfunclet$??1Goal_Think@@UAE@XZ$3:
	lea	ecx, DWORD PTR $T141982[ebp]
	jmp	??1?$_Vector_iterator@V?$_Vector_val@PAVGoal_Evaluator@@V?$allocator@PAVGoal_Evaluator@@@std@@@std@@@std@@QAE@XZ
__ehhandler$??1Goal_Think@@UAE@XZ:
	mov	edx, DWORD PTR [esp+8]
	lea	eax, DWORD PTR [edx+12]
	mov	ecx, DWORD PTR [edx-72]
	xor	ecx, eax
	call	@__security_check_cookie@4
	mov	eax, OFFSET __ehfuncinfo$??1Goal_Think@@UAE@XZ
	jmp	___CxxFrameHandler3
text$x	ENDS
??1Goal_Think@@UAE@XZ ENDP				; Goal_Think::~Goal_Think
PUBLIC	??1?$_Vector_const_iterator@V?$_Vector_val@PAVGoal_Evaluator@@V?$allocator@PAVGoal_Evaluator@@@std@@@std@@@std@@QAE@XZ ; std::_Vector_const_iterator<std::_Vector_val<Goal_Evaluator *,std::allocator<Goal_Evaluator *> > >::~_Vector_const_iterator<std::_Vector_val<Goal_Evaluator *,std::allocator<Goal_Evaluator *> > >
; Function compile flags: /Odtp /RTCsu
;	COMDAT ??1?$_Vector_iterator@V?$_Vector_val@PAVGoal_Evaluator@@V?$allocator@PAVGoal_Evaluator@@@std@@@std@@@std@@QAE@XZ
_TEXT	SEGMENT
_this$ = -4						; size = 4
??1?$_Vector_iterator@V?$_Vector_val@PAVGoal_Evaluator@@V?$allocator@PAVGoal_Evaluator@@@std@@@std@@@std@@QAE@XZ PROC ; std::_Vector_iterator<std::_Vector_val<Goal_Evaluator *,std::allocator<Goal_Evaluator *> > >::~_Vector_iterator<std::_Vector_val<Goal_Evaluator *,std::allocator<Goal_Evaluator *> > >, COMDAT
; _this$ = ecx
	push	ebp
	mov	ebp, esp
	push	ecx
	mov	DWORD PTR [ebp-4], -858993460		; ccccccccH
	mov	DWORD PTR _this$[ebp], ecx
	mov	ecx, DWORD PTR _this$[ebp]
	call	??1?$_Vector_const_iterator@V?$_Vector_val@PAVGoal_Evaluator@@V?$allocator@PAVGoal_Evaluator@@@std@@@std@@@std@@QAE@XZ
	add	esp, 4
	cmp	ebp, esp
	call	__RTC_CheckEsp
	mov	esp, ebp
	pop	ebp
	ret	0
??1?$_Vector_iterator@V?$_Vector_val@PAVGoal_Evaluator@@V?$allocator@PAVGoal_Evaluator@@@std@@@std@@@std@@QAE@XZ ENDP ; std::_Vector_iterator<std::_Vector_val<Goal_Evaluator *,std::allocator<Goal_Evaluator *> > >::~_Vector_iterator<std::_Vector_val<Goal_Evaluator *,std::allocator<Goal_Evaluator *> > >
_TEXT	ENDS
PUBLIC	??1?$_Iterator012@Urandom_access_iterator_tag@std@@PAVGoal_Evaluator@@HPBQAV3@ABQAV3@U_Iterator_base12@2@@std@@QAE@XZ ; std::_Iterator012<std::random_access_iterator_tag,Goal_Evaluator *,int,Goal_Evaluator * const *,Goal_Evaluator * const &,std::_Iterator_base12>::~_Iterator012<std::random_access_iterator_tag,Goal_Evaluator *,int,Goal_Evaluator * const *,Goal_Evaluator * const &,std::_Iterator_base12>
; Function compile flags: /Odtp /RTCsu
;	COMDAT ??1?$_Vector_const_iterator@V?$_Vector_val@PAVGoal_Evaluator@@V?$allocator@PAVGoal_Evaluator@@@std@@@std@@@std@@QAE@XZ
_TEXT	SEGMENT
_this$ = -4						; size = 4
??1?$_Vector_const_iterator@V?$_Vector_val@PAVGoal_Evaluator@@V?$allocator@PAVGoal_Evaluator@@@std@@@std@@@std@@QAE@XZ PROC ; std::_Vector_const_iterator<std::_Vector_val<Goal_Evaluator *,std::allocator<Goal_Evaluator *> > >::~_Vector_const_iterator<std::_Vector_val<Goal_Evaluator *,std::allocator<Goal_Evaluator *> > >, COMDAT
; _this$ = ecx
	push	ebp
	mov	ebp, esp
	push	ecx
	mov	DWORD PTR [ebp-4], -858993460		; ccccccccH
	mov	DWORD PTR _this$[ebp], ecx
	mov	ecx, DWORD PTR _this$[ebp]
	call	??1?$_Iterator012@Urandom_access_iterator_tag@std@@PAVGoal_Evaluator@@HPBQAV3@ABQAV3@U_Iterator_base12@2@@std@@QAE@XZ
	add	esp, 4
	cmp	ebp, esp
	call	__RTC_CheckEsp
	mov	esp, ebp
	pop	ebp
	ret	0
??1?$_Vector_const_iterator@V?$_Vector_val@PAVGoal_Evaluator@@V?$allocator@PAVGoal_Evaluator@@@std@@@std@@@std@@QAE@XZ ENDP ; std::_Vector_const_iterator<std::_Vector_val<Goal_Evaluator *,std::allocator<Goal_Evaluator *> > >::~_Vector_const_iterator<std::_Vector_val<Goal_Evaluator *,std::allocator<Goal_Evaluator *> > >
_TEXT	ENDS
PUBLIC	??1_Iterator_base12@std@@QAE@XZ			; std::_Iterator_base12::~_Iterator_base12
; Function compile flags: /Odtp /RTCsu
;	COMDAT ??1?$_Iterator012@Urandom_access_iterator_tag@std@@PAVGoal_Evaluator@@HPBQAV3@ABQAV3@U_Iterator_base12@2@@std@@QAE@XZ
_TEXT	SEGMENT
_this$ = -4						; size = 4
??1?$_Iterator012@Urandom_access_iterator_tag@std@@PAVGoal_Evaluator@@HPBQAV3@ABQAV3@U_Iterator_base12@2@@std@@QAE@XZ PROC ; std::_Iterator012<std::random_access_iterator_tag,Goal_Evaluator *,int,Goal_Evaluator * const *,Goal_Evaluator * const &,std::_Iterator_base12>::~_Iterator012<std::random_access_iterator_tag,Goal_Evaluator *,int,Goal_Evaluator * const *,Goal_Evaluator * const &,std::_Iterator_base12>, COMDAT
; _this$ = ecx
	push	ebp
	mov	ebp, esp
	push	ecx
	mov	DWORD PTR [ebp-4], -858993460		; ccccccccH
	mov	DWORD PTR _this$[ebp], ecx
	mov	ecx, DWORD PTR _this$[ebp]
	call	??1_Iterator_base12@std@@QAE@XZ		; std::_Iterator_base12::~_Iterator_base12
	add	esp, 4
	cmp	ebp, esp
	call	__RTC_CheckEsp
	mov	esp, ebp
	pop	ebp
	ret	0
??1?$_Iterator012@Urandom_access_iterator_tag@std@@PAVGoal_Evaluator@@HPBQAV3@ABQAV3@U_Iterator_base12@2@@std@@QAE@XZ ENDP ; std::_Iterator012<std::random_access_iterator_tag,Goal_Evaluator *,int,Goal_Evaluator * const *,Goal_Evaluator * const &,std::_Iterator_base12>::~_Iterator012<std::random_access_iterator_tag,Goal_Evaluator *,int,Goal_Evaluator * const *,Goal_Evaluator * const &,std::_Iterator_base12>
_TEXT	ENDS
PUBLIC	?_Orphan_me@_Iterator_base12@std@@QAEXXZ	; std::_Iterator_base12::_Orphan_me
EXTRN	??1_Lockit@std@@QAE@XZ:PROC			; std::_Lockit::~_Lockit
EXTRN	??0_Lockit@std@@QAE@H@Z:PROC			; std::_Lockit::_Lockit
;	COMDAT xdata$x
; File c:\program files (x86)\microsoft visual studio 10.0\vc\include\xutility
xdata$x	SEGMENT
__unwindtable$??1_Iterator_base12@std@@QAE@XZ DD 0ffffffffH
	DD	FLAT:__unwindfunclet$??1_Iterator_base12@std@@QAE@XZ$0
__ehfuncinfo$??1_Iterator_base12@std@@QAE@XZ DD 019930522H
	DD	01H
	DD	FLAT:__unwindtable$??1_Iterator_base12@std@@QAE@XZ
	DD	2 DUP(00H)
	DD	2 DUP(00H)
	DD	00H
	DD	01H
; Function compile flags: /Odtp /RTCsu
xdata$x	ENDS
;	COMDAT ??1_Iterator_base12@std@@QAE@XZ
_TEXT	SEGMENT
__Lock$ = -24						; size = 4
_this$ = -16						; size = 4
__$EHRec$ = -12						; size = 12
??1_Iterator_base12@std@@QAE@XZ PROC			; std::_Iterator_base12::~_Iterator_base12, COMDAT
; _this$ = ecx

; 135  : 		{	// destroy the iterator

	push	ebp
	mov	ebp, esp
	push	-1
	push	__ehhandler$??1_Iterator_base12@std@@QAE@XZ
	mov	eax, DWORD PTR fs:0
	push	eax
	sub	esp, 16					; 00000010H
	mov	eax, -858993460				; ccccccccH
	mov	DWORD PTR [ebp-28], eax
	mov	DWORD PTR [ebp-24], eax
	mov	DWORD PTR [ebp-20], eax
	mov	DWORD PTR [ebp-16], eax
	mov	eax, DWORD PTR ___security_cookie
	xor	eax, ebp
	push	eax
	lea	eax, DWORD PTR __$EHRec$[ebp]
	mov	DWORD PTR fs:0, eax
	mov	DWORD PTR _this$[ebp], ecx

; 136  :  #if _ITERATOR_DEBUG_LEVEL == 2
; 137  : 		_Lockit _Lock(_LOCK_DEBUG);

	push	3
	lea	ecx, DWORD PTR __Lock$[ebp]
	call	??0_Lockit@std@@QAE@H@Z			; std::_Lockit::_Lockit
	mov	DWORD PTR __$EHRec$[ebp+8], 0

; 138  : 		_Orphan_me();

	mov	ecx, DWORD PTR _this$[ebp]
	call	?_Orphan_me@_Iterator_base12@std@@QAEXXZ ; std::_Iterator_base12::_Orphan_me

; 139  :  #endif /* _ITERATOR_DEBUG_LEVEL == 2 */
; 140  : 		}

	mov	DWORD PTR __$EHRec$[ebp+8], -1
	lea	ecx, DWORD PTR __Lock$[ebp]
	call	??1_Lockit@std@@QAE@XZ			; std::_Lockit::~_Lockit
	push	edx
	mov	ecx, ebp
	push	eax
	lea	edx, DWORD PTR $LN7@Iterator_b
	call	@_RTC_CheckStackVars@8
	pop	eax
	pop	edx
	mov	ecx, DWORD PTR __$EHRec$[ebp]
	mov	DWORD PTR fs:0, ecx
	pop	ecx
	add	esp, 28					; 0000001cH
	cmp	ebp, esp
	call	__RTC_CheckEsp
	mov	esp, ebp
	pop	ebp
	ret	0
	npad	1
$LN7@Iterator_b:
	DD	1
	DD	$LN6@Iterator_b
$LN6@Iterator_b:
	DD	-24					; ffffffe8H
	DD	4
	DD	$LN4@Iterator_b
$LN4@Iterator_b:
	DB	95					; 0000005fH
	DB	76					; 0000004cH
	DB	111					; 0000006fH
	DB	99					; 00000063H
	DB	107					; 0000006bH
	DB	0
_TEXT	ENDS
;	COMDAT text$x
text$x	SEGMENT
__unwindfunclet$??1_Iterator_base12@std@@QAE@XZ$0:
	lea	ecx, DWORD PTR __Lock$[ebp]
	jmp	??1_Lockit@std@@QAE@XZ			; std::_Lockit::~_Lockit
__ehhandler$??1_Iterator_base12@std@@QAE@XZ:
	mov	edx, DWORD PTR [esp+8]
	lea	eax, DWORD PTR [edx+12]
	mov	ecx, DWORD PTR [edx-20]
	xor	ecx, eax
	call	@__security_check_cookie@4
	mov	eax, OFFSET __ehfuncinfo$??1_Iterator_base12@std@@QAE@XZ
	jmp	___CxxFrameHandler3
text$x	ENDS
??1_Iterator_base12@std@@QAE@XZ ENDP			; std::_Iterator_base12::~_Iterator_base12
PUBLIC	??_C@_1DC@POOIKBAO@?$AAI?$AAT?$AAE?$AAR?$AAA?$AAT?$AAO?$AAR?$AA?5?$AAL?$AAI?$AAS?$AAT?$AA?5?$AAC?$AAO?$AAR?$AAR?$AAU?$AAP?$AAT?$AAE?$AAD?$AA?$CB?$AA?$AA@ ; `string'
PUBLIC	??_C@_1JA@HCKHPKJH@?$AAc?$AA?3?$AA?2?$AAP?$AAr?$AAo?$AAg?$AAr?$AAa?$AAm?$AA?5?$AAF?$AAi?$AAl?$AAe?$AAs?$AA?5?$AA?$CI?$AAx?$AA8?$AA6?$AA?$CJ?$AA?2?$AAM?$AAi?$AAc?$AAr?$AAo?$AAs?$AAo?$AAf?$AAt@ ; `string'
EXTRN	?_Debug_message@std@@YAXPB_W0I@Z:PROC		; std::_Debug_message
;	COMDAT ??_C@_1DC@POOIKBAO@?$AAI?$AAT?$AAE?$AAR?$AAA?$AAT?$AAO?$AAR?$AA?5?$AAL?$AAI?$AAS?$AAT?$AA?5?$AAC?$AAO?$AAR?$AAR?$AAU?$AAP?$AAT?$AAE?$AAD?$AA?$CB?$AA?$AA@
CONST	SEGMENT
??_C@_1DC@POOIKBAO@?$AAI?$AAT?$AAE?$AAR?$AAA?$AAT?$AAO?$AAR?$AA?5?$AAL?$AAI?$AAS?$AAT?$AA?5?$AAC?$AAO?$AAR?$AAR?$AAU?$AAP?$AAT?$AAE?$AAD?$AA?$CB?$AA?$AA@ DB 'I'
	DB	00H, 'T', 00H, 'E', 00H, 'R', 00H, 'A', 00H, 'T', 00H, 'O', 00H
	DB	'R', 00H, ' ', 00H, 'L', 00H, 'I', 00H, 'S', 00H, 'T', 00H, ' '
	DB	00H, 'C', 00H, 'O', 00H, 'R', 00H, 'R', 00H, 'U', 00H, 'P', 00H
	DB	'T', 00H, 'E', 00H, 'D', 00H, '!', 00H, 00H, 00H ; `string'
CONST	ENDS
;	COMDAT ??_C@_1JA@HCKHPKJH@?$AAc?$AA?3?$AA?2?$AAP?$AAr?$AAo?$AAg?$AAr?$AAa?$AAm?$AA?5?$AAF?$AAi?$AAl?$AAe?$AAs?$AA?5?$AA?$CI?$AAx?$AA8?$AA6?$AA?$CJ?$AA?2?$AAM?$AAi?$AAc?$AAr?$AAo?$AAs?$AAo?$AAf?$AAt@
CONST	SEGMENT
??_C@_1JA@HCKHPKJH@?$AAc?$AA?3?$AA?2?$AAP?$AAr?$AAo?$AAg?$AAr?$AAa?$AAm?$AA?5?$AAF?$AAi?$AAl?$AAe?$AAs?$AA?5?$AA?$CI?$AAx?$AA8?$AA6?$AA?$CJ?$AA?2?$AAM?$AAi?$AAc?$AAr?$AAo?$AAs?$AAo?$AAf?$AAt@ DB 'c'
	DB	00H, ':', 00H, '\', 00H, 'P', 00H, 'r', 00H, 'o', 00H, 'g', 00H
	DB	'r', 00H, 'a', 00H, 'm', 00H, ' ', 00H, 'F', 00H, 'i', 00H, 'l'
	DB	00H, 'e', 00H, 's', 00H, ' ', 00H, '(', 00H, 'x', 00H, '8', 00H
	DB	'6', 00H, ')', 00H, '\', 00H, 'M', 00H, 'i', 00H, 'c', 00H, 'r'
	DB	00H, 'o', 00H, 's', 00H, 'o', 00H, 'f', 00H, 't', 00H, ' ', 00H
	DB	'V', 00H, 'i', 00H, 's', 00H, 'u', 00H, 'a', 00H, 'l', 00H, ' '
	DB	00H, 'S', 00H, 't', 00H, 'u', 00H, 'd', 00H, 'i', 00H, 'o', 00H
	DB	' ', 00H, '1', 00H, '0', 00H, '.', 00H, '0', 00H, '\', 00H, 'V'
	DB	00H, 'C', 00H, '\', 00H, 'i', 00H, 'n', 00H, 'c', 00H, 'l', 00H
	DB	'u', 00H, 'd', 00H, 'e', 00H, '\', 00H, 'x', 00H, 'u', 00H, 't'
	DB	00H, 'i', 00H, 'l', 00H, 'i', 00H, 't', 00H, 'y', 00H, 00H, 00H ; `string'
; Function compile flags: /Odtp /RTCsu
CONST	ENDS
;	COMDAT ?_Orphan_me@_Iterator_base12@std@@QAEXXZ
_TEXT	SEGMENT
__Pnext$15155 = -8					; size = 4
_this$ = -4						; size = 4
?_Orphan_me@_Iterator_base12@std@@QAEXXZ PROC		; std::_Iterator_base12::_Orphan_me, COMDAT
; _this$ = ecx

; 184  : 		{	// cut ties with parent

	push	ebp
	mov	ebp, esp
	sub	esp, 8
	mov	DWORD PTR [ebp-8], -858993460		; ccccccccH
	mov	DWORD PTR [ebp-4], -858993460		; ccccccccH
	mov	DWORD PTR _this$[ebp], ecx

; 185  :  #if _ITERATOR_DEBUG_LEVEL == 2
; 186  : 		if (_Myproxy != 0)

	mov	eax, DWORD PTR _this$[ebp]
	cmp	DWORD PTR [eax], 0
	je	SHORT $LN5@Orphan_me

; 187  : 			{	// adopted, remove self from list
; 188  : 			_Iterator_base12 **_Pnext = &_Myproxy->_Myfirstiter;

	mov	ecx, DWORD PTR _this$[ebp]
	mov	edx, DWORD PTR [ecx]
	add	edx, 4
	mov	DWORD PTR __Pnext$15155[ebp], edx
$LN3@Orphan_me:

; 189  : 			while (*_Pnext != 0 && *_Pnext != this)

	mov	eax, DWORD PTR __Pnext$15155[ebp]
	cmp	DWORD PTR [eax], 0
	je	SHORT $LN2@Orphan_me
	mov	ecx, DWORD PTR __Pnext$15155[ebp]
	mov	edx, DWORD PTR [ecx]
	cmp	edx, DWORD PTR _this$[ebp]
	je	SHORT $LN2@Orphan_me

; 190  : 				_Pnext = &(*_Pnext)->_Mynextiter;

	mov	eax, DWORD PTR __Pnext$15155[ebp]
	mov	ecx, DWORD PTR [eax]
	add	ecx, 4
	mov	DWORD PTR __Pnext$15155[ebp], ecx
	jmp	SHORT $LN3@Orphan_me
$LN2@Orphan_me:

; 191  : 
; 192  : 			if (*_Pnext == 0)

	mov	edx, DWORD PTR __Pnext$15155[ebp]
	cmp	DWORD PTR [edx], 0
	jne	SHORT $LN1@Orphan_me

; 193  : 				_DEBUG_ERROR("ITERATOR LIST CORRUPTED!");

	push	193					; 000000c1H
	push	OFFSET ??_C@_1JA@HCKHPKJH@?$AAc?$AA?3?$AA?2?$AAP?$AAr?$AAo?$AAg?$AAr?$AAa?$AAm?$AA?5?$AAF?$AAi?$AAl?$AAe?$AAs?$AA?5?$AA?$CI?$AAx?$AA8?$AA6?$AA?$CJ?$AA?2?$AAM?$AAi?$AAc?$AAr?$AAo?$AAs?$AAo?$AAf?$AAt@
	push	OFFSET ??_C@_1DC@POOIKBAO@?$AAI?$AAT?$AAE?$AAR?$AAA?$AAT?$AAO?$AAR?$AA?5?$AAL?$AAI?$AAS?$AAT?$AA?5?$AAC?$AAO?$AAR?$AAR?$AAU?$AAP?$AAT?$AAE?$AAD?$AA?$CB?$AA?$AA@
	call	?_Debug_message@std@@YAXPB_W0I@Z	; std::_Debug_message
	add	esp, 12					; 0000000cH
$LN1@Orphan_me:

; 194  : 			*_Pnext = _Mynextiter;

	mov	eax, DWORD PTR __Pnext$15155[ebp]
	mov	ecx, DWORD PTR _this$[ebp]
	mov	edx, DWORD PTR [ecx+4]
	mov	DWORD PTR [eax], edx

; 195  : 			_Myproxy = 0;

	mov	eax, DWORD PTR _this$[ebp]
	mov	DWORD PTR [eax], 0
$LN5@Orphan_me:

; 196  : 			}
; 197  :  #endif /* _ITERATOR_DEBUG_LEVEL == 2 */
; 198  : 		}

	add	esp, 8
	cmp	ebp, esp
	call	__RTC_CheckEsp
	mov	esp, ebp
	pop	ebp
	ret	0
?_Orphan_me@_Iterator_base12@std@@QAEXXZ ENDP		; std::_Iterator_base12::_Orphan_me
_TEXT	ENDS
PUBLIC	?isPossessed@AbstRaven_Bot@@QBE_NXZ		; AbstRaven_Bot::isPossessed
; Function compile flags: /Odtp /RTCsu
; File c:\users\teaja\documents\artificial-fun\labravenprojecttest\raven\goals\goal_think.cpp
_TEXT	SEGMENT
_this$ = -4						; size = 4
?Activate@Goal_Think@@UAEXXZ PROC			; Goal_Think::Activate
; _this$ = ecx

; 63   : {

	push	ebp
	mov	ebp, esp
	push	ecx
	push	esi
	mov	DWORD PTR [ebp-4], -858993460		; ccccccccH
	mov	DWORD PTR _this$[ebp], ecx

; 64   :   if (!m_pOwner->isPossessed())

	mov	eax, DWORD PTR _this$[ebp]
	mov	ecx, DWORD PTR [eax+8]
	call	?isPossessed@AbstRaven_Bot@@QBE_NXZ	; AbstRaven_Bot::isPossessed
	movzx	ecx, al
	test	ecx, ecx
	jne	SHORT $LN1@Activate

; 65   :   {
; 66   :     Arbitrate();

	mov	edx, DWORD PTR _this$[ebp]
	mov	eax, DWORD PTR [edx]
	mov	esi, esp
	mov	ecx, DWORD PTR _this$[ebp]
	mov	edx, DWORD PTR [eax+32]
	call	edx
	cmp	esi, esp
	call	__RTC_CheckEsp
$LN1@Activate:

; 67   :   }
; 68   : 
; 69   :   m_iStatus = active;

	mov	eax, DWORD PTR _this$[ebp]
	mov	DWORD PTR [eax+12], 0

; 70   : }

	pop	esi
	add	esp, 4
	cmp	ebp, esp
	call	__RTC_CheckEsp
	mov	esp, ebp
	pop	ebp
	ret	0
?Activate@Goal_Think@@UAEXXZ ENDP			; Goal_Think::Activate
; Function compile flags: /Odtp /RTCsu
; File c:\users\teaja\documents\artificial-fun\labravenprojecttest\raven\abstraven_bot.h
_TEXT	ENDS
;	COMDAT ?isPossessed@AbstRaven_Bot@@QBE_NXZ
_TEXT	SEGMENT
_this$ = -4						; size = 4
?isPossessed@AbstRaven_Bot@@QBE_NXZ PROC		; AbstRaven_Bot::isPossessed, COMDAT
; _this$ = ecx

; 164  :   bool          isPossessed()const{return m_bPossessed;}

	push	ebp
	mov	ebp, esp
	push	ecx
	mov	DWORD PTR [ebp-4], -858993460		; ccccccccH
	mov	DWORD PTR _this$[ebp], ecx
	mov	eax, DWORD PTR _this$[ebp]
	mov	al, BYTE PTR [eax+253]
	mov	esp, ebp
	pop	ebp
	ret	0
?isPossessed@AbstRaven_Bot@@QBE_NXZ ENDP		; AbstRaven_Bot::isPossessed
_TEXT	ENDS
PUBLIC	?ProcessSubgoals@?$Goal_Composite@VAbstRaven_Bot@@@@IAEHXZ ; Goal_Composite<AbstRaven_Bot>::ProcessSubgoals
PUBLIC	?ActivateIfInactive@?$Goal@VAbstRaven_Bot@@@@IAEXXZ ; Goal<AbstRaven_Bot>::ActivateIfInactive
; Function compile flags: /Odtp /RTCsu
; File c:\users\teaja\documents\artificial-fun\labravenprojecttest\raven\goals\goal_think.cpp
_TEXT	SEGMENT
_SubgoalStatus$ = -8					; size = 4
_this$ = -4						; size = 4
?Process@Goal_Think@@UAEHXZ PROC			; Goal_Think::Process
; _this$ = ecx

; 77   : {

	push	ebp
	mov	ebp, esp
	sub	esp, 8
	mov	DWORD PTR [ebp-8], -858993460		; ccccccccH
	mov	DWORD PTR [ebp-4], -858993460		; ccccccccH
	mov	DWORD PTR _this$[ebp], ecx

; 78   :   ActivateIfInactive();

	mov	ecx, DWORD PTR _this$[ebp]
	call	?ActivateIfInactive@?$Goal@VAbstRaven_Bot@@@@IAEXXZ ; Goal<AbstRaven_Bot>::ActivateIfInactive

; 79   :   
; 80   :   int SubgoalStatus = ProcessSubgoals();

	mov	ecx, DWORD PTR _this$[ebp]
	call	?ProcessSubgoals@?$Goal_Composite@VAbstRaven_Bot@@@@IAEHXZ ; Goal_Composite<AbstRaven_Bot>::ProcessSubgoals
	mov	DWORD PTR _SubgoalStatus$[ebp], eax

; 81   : 
; 82   :   if (SubgoalStatus == completed || SubgoalStatus == failed)

	cmp	DWORD PTR _SubgoalStatus$[ebp], 2
	je	SHORT $LN2@Process
	cmp	DWORD PTR _SubgoalStatus$[ebp], 3
	jne	SHORT $LN3@Process
$LN2@Process:

; 83   :   {
; 84   :     if (!m_pOwner->isPossessed())

	mov	eax, DWORD PTR _this$[ebp]
	mov	ecx, DWORD PTR [eax+8]
	call	?isPossessed@AbstRaven_Bot@@QBE_NXZ	; AbstRaven_Bot::isPossessed
	movzx	ecx, al
	test	ecx, ecx
	jne	SHORT $LN3@Process

; 85   :     {
; 86   :       m_iStatus = inactive;

	mov	edx, DWORD PTR _this$[ebp]
	mov	DWORD PTR [edx+12], 1
$LN3@Process:

; 87   :     }
; 88   :   }
; 89   : 
; 90   :   return m_iStatus;

	mov	eax, DWORD PTR _this$[ebp]
	mov	eax, DWORD PTR [eax+12]

; 91   : }

	add	esp, 8
	cmp	ebp, esp
	call	__RTC_CheckEsp
	mov	esp, ebp
	pop	ebp
	ret	0
?Process@Goal_Think@@UAEHXZ ENDP			; Goal_Think::Process
_TEXT	ENDS
PUBLIC	__real@0000000000000000
EXTRN	__wassert:PROC
;	COMDAT __real@0000000000000000
CONST	SEGMENT
__real@0000000000000000 DQ 00000000000000000r	; 0
CONST	ENDS
xdata$x	SEGMENT
__unwindtable$?Arbitrate@Goal_Think@@UAEXXZ DD 0ffffffffH
	DD	FLAT:__unwindfunclet$?Arbitrate@Goal_Think@@UAEXXZ$0
	DD	00H
	DD	FLAT:__unwindfunclet$?Arbitrate@Goal_Think@@UAEXXZ$1
__ehfuncinfo$?Arbitrate@Goal_Think@@UAEXXZ DD 019930522H
	DD	02H
	DD	FLAT:__unwindtable$?Arbitrate@Goal_Think@@UAEXXZ
	DD	2 DUP(00H)
	DD	2 DUP(00H)
	DD	00H
	DD	01H
; Function compile flags: /Odtp /RTCsu
xdata$x	ENDS
_TEXT	SEGMENT
tv93 = -84						; size = 4
tv155 = -80						; size = 4
tv66 = -76						; size = 4
$T142028 = -72						; size = 12
$T142027 = -57						; size = 1
_desirabilty$132989 = -56				; size = 8
_curDes$ = -44						; size = 12
_MostDesirable$ = -28					; size = 4
_best$ = -24						; size = 8
_this$ = -16						; size = 4
__$EHRec$ = -12						; size = 12
?Arbitrate@Goal_Think@@UAEXXZ PROC			; Goal_Think::Arbitrate
; _this$ = ecx

; 99   : {

	push	ebp
	mov	ebp, esp
	push	-1
	push	__ehhandler$?Arbitrate@Goal_Think@@UAEXXZ
	mov	eax, DWORD PTR fs:0
	push	eax
	sub	esp, 72					; 00000048H
	push	esi
	push	edi
	push	ecx
	lea	edi, DWORD PTR [ebp-84]
	mov	ecx, 18					; 00000012H
	mov	eax, -858993460				; ccccccccH
	rep stosd
	pop	ecx
	mov	eax, DWORD PTR ___security_cookie
	xor	eax, ebp
	push	eax
	lea	eax, DWORD PTR __$EHRec$[ebp]
	mov	DWORD PTR fs:0, eax
	mov	DWORD PTR _this$[ebp], ecx

; 100  :   double best = 0;

	fldz
	fstp	QWORD PTR _best$[ebp]

; 101  :   Goal_Evaluator* MostDesirable = 0;

	mov	DWORD PTR _MostDesirable$[ebp], 0

; 102  : 
; 103  :   //iterate through all the evaluators to see which produces the highest score
; 104  :   GoalEvaluators::iterator curDes = m_Evaluators.begin();

	lea	eax, DWORD PTR _curDes$[ebp]
	push	eax
	mov	ecx, DWORD PTR _this$[ebp]
	add	ecx, 32					; 00000020H
	call	?begin@?$vector@PAVGoal_Evaluator@@V?$allocator@PAVGoal_Evaluator@@@std@@@std@@QAE?AV?$_Vector_iterator@V?$_Vector_val@PAVGoal_Evaluator@@V?$allocator@PAVGoal_Evaluator@@@std@@@std@@@2@XZ ; std::vector<Goal_Evaluator *,std::allocator<Goal_Evaluator *> >::begin
	mov	DWORD PTR __$EHRec$[ebp+8], 0
	jmp	SHORT $LN4@Arbitrate
$LN3@Arbitrate:

; 105  :   for (curDes; curDes != m_Evaluators.end(); ++curDes)

	lea	ecx, DWORD PTR _curDes$[ebp]
	call	??E?$_Vector_iterator@V?$_Vector_val@PAVGoal_Evaluator@@V?$allocator@PAVGoal_Evaluator@@@std@@@std@@@std@@QAEAAV01@XZ ; std::_Vector_iterator<std::_Vector_val<Goal_Evaluator *,std::allocator<Goal_Evaluator *> > >::operator++
$LN4@Arbitrate:
	lea	ecx, DWORD PTR $T142028[ebp]
	push	ecx
	mov	ecx, DWORD PTR _this$[ebp]
	add	ecx, 32					; 00000020H
	call	?end@?$vector@PAVGoal_Evaluator@@V?$allocator@PAVGoal_Evaluator@@@std@@@std@@QAE?AV?$_Vector_iterator@V?$_Vector_val@PAVGoal_Evaluator@@V?$allocator@PAVGoal_Evaluator@@@std@@@std@@@2@XZ ; std::vector<Goal_Evaluator *,std::allocator<Goal_Evaluator *> >::end
	mov	DWORD PTR tv66[ebp], eax
	mov	edx, DWORD PTR tv66[ebp]
	mov	DWORD PTR tv155[ebp], edx
	mov	BYTE PTR __$EHRec$[ebp+8], 1
	mov	eax, DWORD PTR tv155[ebp]
	push	eax
	lea	ecx, DWORD PTR _curDes$[ebp]
	call	??9?$_Vector_const_iterator@V?$_Vector_val@PAVGoal_Evaluator@@V?$allocator@PAVGoal_Evaluator@@@std@@@std@@@std@@QBE_NABV01@@Z ; std::_Vector_const_iterator<std::_Vector_val<Goal_Evaluator *,std::allocator<Goal_Evaluator *> > >::operator!=
	mov	BYTE PTR $T142027[ebp], al
	mov	BYTE PTR __$EHRec$[ebp+8], 0
	lea	ecx, DWORD PTR $T142028[ebp]
	call	??1?$_Vector_iterator@V?$_Vector_val@PAVGoal_Evaluator@@V?$allocator@PAVGoal_Evaluator@@@std@@@std@@@std@@QAE@XZ
	movzx	ecx, BYTE PTR $T142027[ebp]
	test	ecx, ecx
	je	SHORT $LN2@Arbitrate

; 106  :   {
; 107  :     double desirabilty = (*curDes)->CalculateDesirability(m_pOwner);

	lea	ecx, DWORD PTR _curDes$[ebp]
	call	??D?$_Vector_iterator@V?$_Vector_val@PAVGoal_Evaluator@@V?$allocator@PAVGoal_Evaluator@@@std@@@std@@@std@@QBEAAPAVGoal_Evaluator@@XZ ; std::_Vector_iterator<std::_Vector_val<Goal_Evaluator *,std::allocator<Goal_Evaluator *> > >::operator*
	mov	edx, DWORD PTR [eax]
	mov	DWORD PTR tv93[ebp], edx
	mov	esi, esp
	mov	eax, DWORD PTR _this$[ebp]
	mov	ecx, DWORD PTR [eax+8]
	push	ecx
	mov	edx, DWORD PTR tv93[ebp]
	mov	eax, DWORD PTR [edx]
	mov	ecx, DWORD PTR tv93[ebp]
	mov	edx, DWORD PTR [eax+4]
	call	edx
	cmp	esi, esp
	call	__RTC_CheckEsp
	fstp	QWORD PTR _desirabilty$132989[ebp]

; 108  : 
; 109  :     if (desirabilty >= best)

	fld	QWORD PTR _best$[ebp]
	fcomp	QWORD PTR _desirabilty$132989[ebp]
	fnstsw	ax
	test	ah, 65					; 00000041H
	jp	SHORT $LN1@Arbitrate

; 110  :     {
; 111  :       best = desirabilty;

	fld	QWORD PTR _desirabilty$132989[ebp]
	fstp	QWORD PTR _best$[ebp]

; 112  :       MostDesirable = *curDes;

	lea	ecx, DWORD PTR _curDes$[ebp]
	call	??D?$_Vector_iterator@V?$_Vector_val@PAVGoal_Evaluator@@V?$allocator@PAVGoal_Evaluator@@@std@@@std@@@std@@QBEAAPAVGoal_Evaluator@@XZ ; std::_Vector_iterator<std::_Vector_val<Goal_Evaluator *,std::allocator<Goal_Evaluator *> > >::operator*
	mov	eax, DWORD PTR [eax]
	mov	DWORD PTR _MostDesirable$[ebp], eax
$LN1@Arbitrate:

; 113  :     }
; 114  :   }

	jmp	$LN3@Arbitrate
$LN2@Arbitrate:

; 115  : 
; 116  :   assert(MostDesirable && "<Goal_Think::Arbitrate>: no evaluator selected");

	cmp	DWORD PTR _MostDesirable$[ebp], 0
	je	SHORT $LN7@Arbitrate
	mov	ecx, OFFSET $SG132992
	test	ecx, ecx
	jne	SHORT $LN8@Arbitrate
$LN7@Arbitrate:
	push	116					; 00000074H
	push	OFFSET $SG132993
	push	OFFSET $SG132994
	call	__wassert
	add	esp, 12					; 0000000cH
$LN8@Arbitrate:

; 117  : 
; 118  :   MostDesirable->SetGoal(m_pOwner);

	mov	esi, esp
	mov	eax, DWORD PTR _this$[ebp]
	mov	ecx, DWORD PTR [eax+8]
	push	ecx
	mov	edx, DWORD PTR _MostDesirable$[ebp]
	mov	eax, DWORD PTR [edx]
	mov	ecx, DWORD PTR _MostDesirable$[ebp]
	mov	edx, DWORD PTR [eax+8]
	call	edx
	cmp	esi, esp
	call	__RTC_CheckEsp

; 119  : }

	mov	DWORD PTR __$EHRec$[ebp+8], -1
	lea	ecx, DWORD PTR _curDes$[ebp]
	call	??1?$_Vector_iterator@V?$_Vector_val@PAVGoal_Evaluator@@V?$allocator@PAVGoal_Evaluator@@@std@@@std@@@std@@QAE@XZ
	push	edx
	mov	ecx, ebp
	push	eax
	lea	edx, DWORD PTR $LN14@Arbitrate
	call	@_RTC_CheckStackVars@8
	pop	eax
	pop	edx
	mov	ecx, DWORD PTR __$EHRec$[ebp]
	mov	DWORD PTR fs:0, ecx
	pop	ecx
	pop	edi
	pop	esi
	add	esp, 84					; 00000054H
	cmp	ebp, esp
	call	__RTC_CheckEsp
	mov	esp, ebp
	pop	ebp
	ret	0
	npad	1
$LN14@Arbitrate:
	DD	1
	DD	$LN13@Arbitrate
$LN13@Arbitrate:
	DD	-44					; ffffffd4H
	DD	12					; 0000000cH
	DD	$LN11@Arbitrate
$LN11@Arbitrate:
	DB	99					; 00000063H
	DB	117					; 00000075H
	DB	114					; 00000072H
	DB	68					; 00000044H
	DB	101					; 00000065H
	DB	115					; 00000073H
	DB	0
_TEXT	ENDS
text$x	SEGMENT
__unwindfunclet$?Arbitrate@Goal_Think@@UAEXXZ$0:
	lea	ecx, DWORD PTR _curDes$[ebp]
	jmp	??1?$_Vector_iterator@V?$_Vector_val@PAVGoal_Evaluator@@V?$allocator@PAVGoal_Evaluator@@@std@@@std@@@std@@QAE@XZ
__unwindfunclet$?Arbitrate@Goal_Think@@UAEXXZ$1:
	lea	ecx, DWORD PTR $T142028[ebp]
	jmp	??1?$_Vector_iterator@V?$_Vector_val@PAVGoal_Evaluator@@V?$allocator@PAVGoal_Evaluator@@@std@@@std@@@std@@QAE@XZ
__ehhandler$?Arbitrate@Goal_Think@@UAEXXZ:
	mov	edx, DWORD PTR [esp+8]
	lea	eax, DWORD PTR [edx+12]
	mov	ecx, DWORD PTR [edx-84]
	xor	ecx, eax
	call	@__security_check_cookie@4
	mov	eax, OFFSET __ehfuncinfo$?Arbitrate@Goal_Think@@UAEXXZ
	jmp	___CxxFrameHandler3
text$x	ENDS
?Arbitrate@Goal_Think@@UAEXXZ ENDP			; Goal_Think::Arbitrate
PUBLIC	?GetType@?$Goal@VAbstRaven_Bot@@@@QBEHXZ	; Goal<AbstRaven_Bot>::GetType
PUBLIC	?front@?$list@PAV?$Goal@VAbstRaven_Bot@@@@V?$allocator@PAV?$Goal@VAbstRaven_Bot@@@@@std@@@std@@QBEABQAV?$Goal@VAbstRaven_Bot@@@@XZ ; std::list<Goal<AbstRaven_Bot> *,std::allocator<Goal<AbstRaven_Bot> *> >::front
PUBLIC	?empty@?$list@PAV?$Goal@VAbstRaven_Bot@@@@V?$allocator@PAV?$Goal@VAbstRaven_Bot@@@@@std@@@std@@QBE_NXZ ; std::list<Goal<AbstRaven_Bot> *,std::allocator<Goal<AbstRaven_Bot> *> >::empty
PUBLIC	?notPresent@Goal_Think@@QBE_NI@Z		; Goal_Think::notPresent
; Function compile flags: /Odtp /RTCsu
_TEXT	SEGMENT
_this$ = -4						; size = 4
_GoalType$ = 8						; size = 4
?notPresent@Goal_Think@@QBE_NI@Z PROC			; Goal_Think::notPresent
; _this$ = ecx

; 128  : {

	push	ebp
	mov	ebp, esp
	push	ecx
	mov	DWORD PTR [ebp-4], -858993460		; ccccccccH
	mov	DWORD PTR _this$[ebp], ecx

; 129  :   if (!m_SubGoals.empty())

	mov	ecx, DWORD PTR _this$[ebp]
	add	ecx, 16					; 00000010H
	call	?empty@?$list@PAV?$Goal@VAbstRaven_Bot@@@@V?$allocator@PAV?$Goal@VAbstRaven_Bot@@@@@std@@@std@@QBE_NXZ ; std::list<Goal<AbstRaven_Bot> *,std::allocator<Goal<AbstRaven_Bot> *> >::empty
	movzx	eax, al
	test	eax, eax
	jne	SHORT $LN1@notPresent

; 130  :   {
; 131  :     return m_SubGoals.front()->GetType() != GoalType;

	mov	ecx, DWORD PTR _this$[ebp]
	add	ecx, 16					; 00000010H
	call	?front@?$list@PAV?$Goal@VAbstRaven_Bot@@@@V?$allocator@PAV?$Goal@VAbstRaven_Bot@@@@@std@@@std@@QBEABQAV?$Goal@VAbstRaven_Bot@@@@XZ ; std::list<Goal<AbstRaven_Bot> *,std::allocator<Goal<AbstRaven_Bot> *> >::front
	mov	ecx, DWORD PTR [eax]
	call	?GetType@?$Goal@VAbstRaven_Bot@@@@QBEHXZ ; Goal<AbstRaven_Bot>::GetType
	xor	ecx, ecx
	cmp	eax, DWORD PTR _GoalType$[ebp]
	setne	cl
	mov	al, cl
	jmp	SHORT $LN2@notPresent
$LN1@notPresent:

; 132  :   }
; 133  : 
; 134  :   return true;

	mov	al, 1
$LN2@notPresent:

; 135  : }

	add	esp, 4
	cmp	ebp, esp
	call	__RTC_CheckEsp
	mov	esp, ebp
	pop	ebp
	ret	4
?notPresent@Goal_Think@@QBE_NI@Z ENDP			; Goal_Think::notPresent
_TEXT	ENDS
PUBLIC	??0Goal_MoveToPosition@@QAE@PAVAbstRaven_Bot@@UVector2D@@@Z ; Goal_MoveToPosition::Goal_MoveToPosition
xdata$x	SEGMENT
__unwindtable$?AddGoal_MoveToPosition@Goal_Think@@UAEXUVector2D@@@Z DD 0ffffffffH
	DD	FLAT:__unwindfunclet$?AddGoal_MoveToPosition@Goal_Think@@UAEXUVector2D@@@Z$0
__ehfuncinfo$?AddGoal_MoveToPosition@Goal_Think@@UAEXUVector2D@@@Z DD 019930522H
	DD	01H
	DD	FLAT:__unwindtable$?AddGoal_MoveToPosition@Goal_Think@@UAEXUVector2D@@@Z
	DD	2 DUP(00H)
	DD	2 DUP(00H)
	DD	00H
	DD	01H
; Function compile flags: /Odtp /RTCsu
xdata$x	ENDS
_TEXT	SEGMENT
tv88 = -28						; size = 4
$T142045 = -24						; size = 4
$T142044 = -20						; size = 4
_this$ = -16						; size = 4
__$EHRec$ = -12						; size = 12
_pos$ = 8						; size = 16
?AddGoal_MoveToPosition@Goal_Think@@UAEXUVector2D@@@Z PROC ; Goal_Think::AddGoal_MoveToPosition
; _this$ = ecx

; 138  : {

	push	ebp
	mov	ebp, esp
	push	-1
	push	__ehhandler$?AddGoal_MoveToPosition@Goal_Think@@UAEXUVector2D@@@Z
	mov	eax, DWORD PTR fs:0
	push	eax
	sub	esp, 16					; 00000010H
	push	esi
	mov	eax, -858993460				; ccccccccH
	mov	DWORD PTR [ebp-28], eax
	mov	DWORD PTR [ebp-24], eax
	mov	DWORD PTR [ebp-20], eax
	mov	DWORD PTR [ebp-16], eax
	mov	eax, DWORD PTR ___security_cookie
	xor	eax, ebp
	push	eax
	lea	eax, DWORD PTR __$EHRec$[ebp]
	mov	DWORD PTR fs:0, eax
	mov	DWORD PTR _this$[ebp], ecx

; 139  :   AddSubgoal( new Goal_MoveToPosition(m_pOwner, pos));

	push	48					; 00000030H
	call	??2@YAPAXI@Z				; operator new
	add	esp, 4
	mov	DWORD PTR $T142045[ebp], eax
	mov	DWORD PTR __$EHRec$[ebp+8], 0
	cmp	DWORD PTR $T142045[ebp], 0
	je	SHORT $LN3@AddGoal_Mo
	sub	esp, 16					; 00000010H
	mov	eax, esp
	mov	ecx, DWORD PTR _pos$[ebp]
	mov	DWORD PTR [eax], ecx
	mov	edx, DWORD PTR _pos$[ebp+4]
	mov	DWORD PTR [eax+4], edx
	mov	ecx, DWORD PTR _pos$[ebp+8]
	mov	DWORD PTR [eax+8], ecx
	mov	edx, DWORD PTR _pos$[ebp+12]
	mov	DWORD PTR [eax+12], edx
	mov	eax, DWORD PTR _this$[ebp]
	mov	ecx, DWORD PTR [eax+8]
	push	ecx
	mov	ecx, DWORD PTR $T142045[ebp]
	call	??0Goal_MoveToPosition@@QAE@PAVAbstRaven_Bot@@UVector2D@@@Z ; Goal_MoveToPosition::Goal_MoveToPosition
	mov	DWORD PTR tv88[ebp], eax
	jmp	SHORT $LN4@AddGoal_Mo
$LN3@AddGoal_Mo:
	mov	DWORD PTR tv88[ebp], 0
$LN4@AddGoal_Mo:
	mov	edx, DWORD PTR tv88[ebp]
	mov	DWORD PTR $T142044[ebp], edx
	mov	DWORD PTR __$EHRec$[ebp+8], -1
	mov	esi, esp
	mov	eax, DWORD PTR $T142044[ebp]
	push	eax
	mov	ecx, DWORD PTR _this$[ebp]
	mov	edx, DWORD PTR [ecx]
	mov	ecx, DWORD PTR _this$[ebp]
	mov	eax, DWORD PTR [edx+20]
	call	eax
	cmp	esi, esp
	call	__RTC_CheckEsp

; 140  : }

	mov	ecx, DWORD PTR __$EHRec$[ebp]
	mov	DWORD PTR fs:0, ecx
	pop	ecx
	pop	esi
	add	esp, 28					; 0000001cH
	cmp	ebp, esp
	call	__RTC_CheckEsp
	mov	esp, ebp
	pop	ebp
	ret	16					; 00000010H
_TEXT	ENDS
text$x	SEGMENT
__unwindfunclet$?AddGoal_MoveToPosition@Goal_Think@@UAEXUVector2D@@@Z$0:
	mov	eax, DWORD PTR $T142045[ebp]
	push	eax
	call	??3@YAXPAX@Z				; operator delete
	pop	ecx
	ret	0
__ehhandler$?AddGoal_MoveToPosition@Goal_Think@@UAEXUVector2D@@@Z:
	mov	edx, DWORD PTR [esp+8]
	lea	eax, DWORD PTR [edx+12]
	mov	ecx, DWORD PTR [edx-24]
	xor	ecx, eax
	call	@__security_check_cookie@4
	mov	eax, OFFSET __ehfuncinfo$?AddGoal_MoveToPosition@Goal_Think@@UAEXUVector2D@@@Z
	jmp	___CxxFrameHandler3
text$x	ENDS
?AddGoal_MoveToPosition@Goal_Think@@UAEXUVector2D@@@Z ENDP ; Goal_Think::AddGoal_MoveToPosition
PUBLIC	??_7Goal_MoveToPosition@@6B@			; Goal_MoveToPosition::`vftable'
PUBLIC	??_R4Goal_MoveToPosition@@6B@			; Goal_MoveToPosition::`RTTI Complete Object Locator'
PUBLIC	??_R0?AVGoal_MoveToPosition@@@8			; Goal_MoveToPosition `RTTI Type Descriptor'
PUBLIC	??_R3Goal_MoveToPosition@@8			; Goal_MoveToPosition::`RTTI Class Hierarchy Descriptor'
PUBLIC	??_R2Goal_MoveToPosition@@8			; Goal_MoveToPosition::`RTTI Base Class Array'
PUBLIC	??_R1A@?0A@EA@Goal_MoveToPosition@@8		; Goal_MoveToPosition::`RTTI Base Class Descriptor at (0,-1,0,64)'
PUBLIC	?Terminate@Goal_MoveToPosition@@UAEXXZ		; Goal_MoveToPosition::Terminate
EXTRN	??_EGoal_MoveToPosition@@UAEPAXI@Z:PROC		; Goal_MoveToPosition::`vector deleting destructor'
EXTRN	?Activate@Goal_MoveToPosition@@UAEXXZ:PROC	; Goal_MoveToPosition::Activate
EXTRN	?Process@Goal_MoveToPosition@@UAEHXZ:PROC	; Goal_MoveToPosition::Process
EXTRN	?HandleMessage@Goal_MoveToPosition@@UAE_NABUTelegram@@@Z:PROC ; Goal_MoveToPosition::HandleMessage
EXTRN	?Render@Goal_MoveToPosition@@UAEXXZ:PROC	; Goal_MoveToPosition::Render
;	COMDAT ??_R1A@?0A@EA@Goal_MoveToPosition@@8
; File c:\users\teaja\documents\artificial-fun\labravenprojecttest\raven\goals\goal_movetoposition.h
rdata$r	SEGMENT
??_R1A@?0A@EA@Goal_MoveToPosition@@8 DD FLAT:??_R0?AVGoal_MoveToPosition@@@8 ; Goal_MoveToPosition::`RTTI Base Class Descriptor at (0,-1,0,64)'
	DD	02H
	DD	00H
	DD	0ffffffffH
	DD	00H
	DD	040H
	DD	FLAT:??_R3Goal_MoveToPosition@@8
rdata$r	ENDS
;	COMDAT ??_R2Goal_MoveToPosition@@8
rdata$r	SEGMENT
??_R2Goal_MoveToPosition@@8 DD FLAT:??_R1A@?0A@EA@Goal_MoveToPosition@@8 ; Goal_MoveToPosition::`RTTI Base Class Array'
	DD	FLAT:??_R1A@?0A@EA@?$Goal_Composite@VAbstRaven_Bot@@@@8
	DD	FLAT:??_R1A@?0A@EA@?$Goal@VAbstRaven_Bot@@@@8
rdata$r	ENDS
;	COMDAT ??_R3Goal_MoveToPosition@@8
rdata$r	SEGMENT
??_R3Goal_MoveToPosition@@8 DD 00H			; Goal_MoveToPosition::`RTTI Class Hierarchy Descriptor'
	DD	00H
	DD	03H
	DD	FLAT:??_R2Goal_MoveToPosition@@8
rdata$r	ENDS
;	COMDAT ??_R0?AVGoal_MoveToPosition@@@8
_DATA	SEGMENT
??_R0?AVGoal_MoveToPosition@@@8 DD FLAT:??_7type_info@@6B@ ; Goal_MoveToPosition `RTTI Type Descriptor'
	DD	00H
	DB	'.?AVGoal_MoveToPosition@@', 00H
_DATA	ENDS
;	COMDAT ??_R4Goal_MoveToPosition@@6B@
rdata$r	SEGMENT
??_R4Goal_MoveToPosition@@6B@ DD 00H			; Goal_MoveToPosition::`RTTI Complete Object Locator'
	DD	00H
	DD	00H
	DD	FLAT:??_R0?AVGoal_MoveToPosition@@@8
	DD	FLAT:??_R3Goal_MoveToPosition@@8
rdata$r	ENDS
;	COMDAT ??_7Goal_MoveToPosition@@6B@
CONST	SEGMENT
??_7Goal_MoveToPosition@@6B@ DD FLAT:??_R4Goal_MoveToPosition@@6B@ ; Goal_MoveToPosition::`vftable'
	DD	FLAT:??_EGoal_MoveToPosition@@UAEPAXI@Z
	DD	FLAT:?Activate@Goal_MoveToPosition@@UAEXXZ
	DD	FLAT:?Process@Goal_MoveToPosition@@UAEHXZ
	DD	FLAT:?Terminate@Goal_MoveToPosition@@UAEXXZ
	DD	FLAT:?HandleMessage@Goal_MoveToPosition@@UAE_NABUTelegram@@@Z
	DD	FLAT:?AddSubgoal@?$Goal_Composite@VAbstRaven_Bot@@@@UAEXPAV?$Goal@VAbstRaven_Bot@@@@@Z
	DD	FLAT:?RenderAtPos@?$Goal_Composite@VAbstRaven_Bot@@@@UBEXAAUVector2D@@PAVTypeToString@@@Z
	DD	FLAT:?Render@Goal_MoveToPosition@@UAEXXZ
; Function compile flags: /Odtp /RTCsu
CONST	ENDS
;	COMDAT ??0Goal_MoveToPosition@@QAE@PAVAbstRaven_Bot@@UVector2D@@@Z
_TEXT	SEGMENT
_this$ = -4						; size = 4
_pBot$ = 8						; size = 4
_pos$ = 12						; size = 16
??0Goal_MoveToPosition@@QAE@PAVAbstRaven_Bot@@UVector2D@@@Z PROC ; Goal_MoveToPosition::Goal_MoveToPosition, COMDAT
; _this$ = ecx

; 28   :   {}

	push	ebp
	mov	ebp, esp
	push	ecx
	mov	DWORD PTR [ebp-4], -858993460		; ccccccccH
	mov	DWORD PTR _this$[ebp], ecx
	push	6
	mov	eax, DWORD PTR _pBot$[ebp]
	push	eax
	mov	ecx, DWORD PTR _this$[ebp]
	call	??0?$Goal_Composite@VAbstRaven_Bot@@@@QAE@PAVAbstRaven_Bot@@H@Z ; Goal_Composite<AbstRaven_Bot>::Goal_Composite<AbstRaven_Bot>
	mov	ecx, DWORD PTR _this$[ebp]
	mov	DWORD PTR [ecx], OFFSET ??_7Goal_MoveToPosition@@6B@
	mov	edx, DWORD PTR _this$[ebp]
	add	edx, 32					; 00000020H
	mov	eax, DWORD PTR _pos$[ebp]
	mov	DWORD PTR [edx], eax
	mov	ecx, DWORD PTR _pos$[ebp+4]
	mov	DWORD PTR [edx+4], ecx
	mov	eax, DWORD PTR _pos$[ebp+8]
	mov	DWORD PTR [edx+8], eax
	mov	ecx, DWORD PTR _pos$[ebp+12]
	mov	DWORD PTR [edx+12], ecx
	mov	eax, DWORD PTR _this$[ebp]
	add	esp, 4
	cmp	ebp, esp
	call	__RTC_CheckEsp
	mov	esp, ebp
	pop	ebp
	ret	20					; 00000014H
??0Goal_MoveToPosition@@QAE@PAVAbstRaven_Bot@@UVector2D@@@Z ENDP ; Goal_MoveToPosition::Goal_MoveToPosition
; Function compile flags: /Odtp /RTCsu
_TEXT	ENDS
;	COMDAT ?Terminate@Goal_MoveToPosition@@UAEXXZ
_TEXT	SEGMENT
_this$ = -4						; size = 4
?Terminate@Goal_MoveToPosition@@UAEXXZ PROC		; Goal_MoveToPosition::Terminate, COMDAT
; _this$ = ecx

; 33   :   void Terminate(){}

	push	ebp
	mov	ebp, esp
	push	ecx
	mov	DWORD PTR [ebp-4], -858993460		; ccccccccH
	mov	DWORD PTR _this$[ebp], ecx
	mov	esp, ebp
	pop	ebp
	ret	0
?Terminate@Goal_MoveToPosition@@UAEXXZ ENDP		; Goal_MoveToPosition::Terminate
_TEXT	ENDS
PUBLIC	??1Goal_MoveToPosition@@UAE@XZ			; Goal_MoveToPosition::~Goal_MoveToPosition
; Function compile flags: /Odtp /RTCsu
;	COMDAT ??_GGoal_MoveToPosition@@UAEPAXI@Z
_TEXT	SEGMENT
_this$ = -4						; size = 4
___flags$ = 8						; size = 4
??_GGoal_MoveToPosition@@UAEPAXI@Z PROC			; Goal_MoveToPosition::`scalar deleting destructor', COMDAT
; _this$ = ecx
	push	ebp
	mov	ebp, esp
	push	ecx
	mov	DWORD PTR [ebp-4], -858993460		; ccccccccH
	mov	DWORD PTR _this$[ebp], ecx
	mov	ecx, DWORD PTR _this$[ebp]
	call	??1Goal_MoveToPosition@@UAE@XZ
	mov	eax, DWORD PTR ___flags$[ebp]
	and	eax, 1
	je	SHORT $LN1@scalar@7
	mov	ecx, DWORD PTR _this$[ebp]
	push	ecx
	call	??3@YAXPAX@Z				; operator delete
	add	esp, 4
$LN1@scalar@7:
	mov	eax, DWORD PTR _this$[ebp]
	add	esp, 4
	cmp	ebp, esp
	call	__RTC_CheckEsp
	mov	esp, ebp
	pop	ebp
	ret	4
??_GGoal_MoveToPosition@@UAEPAXI@Z ENDP			; Goal_MoveToPosition::`scalar deleting destructor'
; Function compile flags: /Odtp /RTCsu
_TEXT	ENDS
;	COMDAT ??1Goal_MoveToPosition@@UAE@XZ
_TEXT	SEGMENT
_this$ = -4						; size = 4
??1Goal_MoveToPosition@@UAE@XZ PROC			; Goal_MoveToPosition::~Goal_MoveToPosition, COMDAT
; _this$ = ecx
	push	ebp
	mov	ebp, esp
	push	ecx
	mov	DWORD PTR [ebp-4], -858993460		; ccccccccH
	mov	DWORD PTR _this$[ebp], ecx
	mov	ecx, DWORD PTR _this$[ebp]
	call	??1?$Goal_Composite@VAbstRaven_Bot@@@@UAE@XZ ; Goal_Composite<AbstRaven_Bot>::~Goal_Composite<AbstRaven_Bot>
	add	esp, 4
	cmp	ebp, esp
	call	__RTC_CheckEsp
	mov	esp, ebp
	pop	ebp
	ret	0
??1Goal_MoveToPosition@@UAE@XZ ENDP			; Goal_MoveToPosition::~Goal_MoveToPosition
_TEXT	ENDS
PUBLIC	??0Goal_Explore@@QAE@PAVAbstRaven_Bot@@@Z	; Goal_Explore::Goal_Explore
PUBLIC	?RemoveAllSubgoals@?$Goal_Composite@VAbstRaven_Bot@@@@QAEXXZ ; Goal_Composite<AbstRaven_Bot>::RemoveAllSubgoals
xdata$x	SEGMENT
__unwindtable$?AddGoal_Explore@Goal_Think@@UAEXXZ DD 0ffffffffH
	DD	FLAT:__unwindfunclet$?AddGoal_Explore@Goal_Think@@UAEXXZ$0
__ehfuncinfo$?AddGoal_Explore@Goal_Think@@UAEXXZ DD 019930522H
	DD	01H
	DD	FLAT:__unwindtable$?AddGoal_Explore@Goal_Think@@UAEXXZ
	DD	2 DUP(00H)
	DD	2 DUP(00H)
	DD	00H
	DD	01H
; Function compile flags: /Odtp /RTCsu
; File c:\users\teaja\documents\artificial-fun\labravenprojecttest\raven\goals\goal_think.cpp
xdata$x	ENDS
_TEXT	SEGMENT
tv129 = -28						; size = 4
$T142065 = -24						; size = 4
$T142064 = -20						; size = 4
_this$ = -16						; size = 4
__$EHRec$ = -12						; size = 12
?AddGoal_Explore@Goal_Think@@UAEXXZ PROC		; Goal_Think::AddGoal_Explore
; _this$ = ecx

; 143  : {

	push	ebp
	mov	ebp, esp
	push	-1
	push	__ehhandler$?AddGoal_Explore@Goal_Think@@UAEXXZ
	mov	eax, DWORD PTR fs:0
	push	eax
	sub	esp, 16					; 00000010H
	push	esi
	mov	eax, -858993460				; ccccccccH
	mov	DWORD PTR [ebp-28], eax
	mov	DWORD PTR [ebp-24], eax
	mov	DWORD PTR [ebp-20], eax
	mov	DWORD PTR [ebp-16], eax
	mov	eax, DWORD PTR ___security_cookie
	xor	eax, ebp
	push	eax
	lea	eax, DWORD PTR __$EHRec$[ebp]
	mov	DWORD PTR fs:0, eax
	mov	DWORD PTR _this$[ebp], ecx

; 144  :   if (notPresent(goal_explore))

	push	1
	mov	ecx, DWORD PTR _this$[ebp]
	call	?notPresent@Goal_Think@@QBE_NI@Z	; Goal_Think::notPresent
	movzx	eax, al
	test	eax, eax
	je	SHORT $LN2@AddGoal_Ex

; 145  :   {
; 146  :     RemoveAllSubgoals();

	mov	ecx, DWORD PTR _this$[ebp]
	call	?RemoveAllSubgoals@?$Goal_Composite@VAbstRaven_Bot@@@@QAEXXZ ; Goal_Composite<AbstRaven_Bot>::RemoveAllSubgoals

; 147  :     AddSubgoal( new Goal_Explore(m_pOwner));

	push	56					; 00000038H
	call	??2@YAPAXI@Z				; operator new
	add	esp, 4
	mov	DWORD PTR $T142065[ebp], eax
	mov	DWORD PTR __$EHRec$[ebp+8], 0
	cmp	DWORD PTR $T142065[ebp], 0
	je	SHORT $LN4@AddGoal_Ex
	mov	ecx, DWORD PTR _this$[ebp]
	mov	edx, DWORD PTR [ecx+8]
	push	edx
	mov	ecx, DWORD PTR $T142065[ebp]
	call	??0Goal_Explore@@QAE@PAVAbstRaven_Bot@@@Z ; Goal_Explore::Goal_Explore
	mov	DWORD PTR tv129[ebp], eax
	jmp	SHORT $LN5@AddGoal_Ex
$LN4@AddGoal_Ex:
	mov	DWORD PTR tv129[ebp], 0
$LN5@AddGoal_Ex:
	mov	eax, DWORD PTR tv129[ebp]
	mov	DWORD PTR $T142064[ebp], eax
	mov	DWORD PTR __$EHRec$[ebp+8], -1
	mov	esi, esp
	mov	ecx, DWORD PTR $T142064[ebp]
	push	ecx
	mov	edx, DWORD PTR _this$[ebp]
	mov	eax, DWORD PTR [edx]
	mov	ecx, DWORD PTR _this$[ebp]
	mov	edx, DWORD PTR [eax+20]
	call	edx
	cmp	esi, esp
	call	__RTC_CheckEsp
$LN2@AddGoal_Ex:

; 148  :   }
; 149  : }

	mov	ecx, DWORD PTR __$EHRec$[ebp]
	mov	DWORD PTR fs:0, ecx
	pop	ecx
	pop	esi
	add	esp, 28					; 0000001cH
	cmp	ebp, esp
	call	__RTC_CheckEsp
	mov	esp, ebp
	pop	ebp
	ret	0
_TEXT	ENDS
text$x	SEGMENT
__unwindfunclet$?AddGoal_Explore@Goal_Think@@UAEXXZ$0:
	mov	eax, DWORD PTR $T142065[ebp]
	push	eax
	call	??3@YAXPAX@Z				; operator delete
	pop	ecx
	ret	0
__ehhandler$?AddGoal_Explore@Goal_Think@@UAEXXZ:
	mov	edx, DWORD PTR [esp+8]
	lea	eax, DWORD PTR [edx+12]
	mov	ecx, DWORD PTR [edx-24]
	xor	ecx, eax
	call	@__security_check_cookie@4
	mov	eax, OFFSET __ehfuncinfo$?AddGoal_Explore@Goal_Think@@UAEXXZ
	jmp	___CxxFrameHandler3
text$x	ENDS
?AddGoal_Explore@Goal_Think@@UAEXXZ ENDP		; Goal_Think::AddGoal_Explore
PUBLIC	??0Vector2D@@QAE@XZ				; Vector2D::Vector2D
PUBLIC	??_7Goal_Explore@@6B@				; Goal_Explore::`vftable'
PUBLIC	??_R4Goal_Explore@@6B@				; Goal_Explore::`RTTI Complete Object Locator'
PUBLIC	??_R0?AVGoal_Explore@@@8			; Goal_Explore `RTTI Type Descriptor'
PUBLIC	??_R3Goal_Explore@@8				; Goal_Explore::`RTTI Class Hierarchy Descriptor'
PUBLIC	??_R2Goal_Explore@@8				; Goal_Explore::`RTTI Base Class Array'
PUBLIC	??_R1A@?0A@EA@Goal_Explore@@8			; Goal_Explore::`RTTI Base Class Descriptor at (0,-1,0,64)'
PUBLIC	?Terminate@Goal_Explore@@UAEXXZ			; Goal_Explore::Terminate
PUBLIC	?Render@?$Goal_Composite@VAbstRaven_Bot@@@@UAEXXZ ; Goal_Composite<AbstRaven_Bot>::Render
EXTRN	??_EGoal_Explore@@UAEPAXI@Z:PROC		; Goal_Explore::`vector deleting destructor'
EXTRN	?Activate@Goal_Explore@@UAEXXZ:PROC		; Goal_Explore::Activate
EXTRN	?Process@Goal_Explore@@UAEHXZ:PROC		; Goal_Explore::Process
EXTRN	?HandleMessage@Goal_Explore@@UAE_NABUTelegram@@@Z:PROC ; Goal_Explore::HandleMessage
;	COMDAT ??_R1A@?0A@EA@Goal_Explore@@8
; File c:\users\teaja\documents\artificial-fun\labravenprojecttest\raven\goals\goal_explore.h
rdata$r	SEGMENT
??_R1A@?0A@EA@Goal_Explore@@8 DD FLAT:??_R0?AVGoal_Explore@@@8 ; Goal_Explore::`RTTI Base Class Descriptor at (0,-1,0,64)'
	DD	02H
	DD	00H
	DD	0ffffffffH
	DD	00H
	DD	040H
	DD	FLAT:??_R3Goal_Explore@@8
rdata$r	ENDS
;	COMDAT ??_R2Goal_Explore@@8
rdata$r	SEGMENT
??_R2Goal_Explore@@8 DD FLAT:??_R1A@?0A@EA@Goal_Explore@@8 ; Goal_Explore::`RTTI Base Class Array'
	DD	FLAT:??_R1A@?0A@EA@?$Goal_Composite@VAbstRaven_Bot@@@@8
	DD	FLAT:??_R1A@?0A@EA@?$Goal@VAbstRaven_Bot@@@@8
rdata$r	ENDS
;	COMDAT ??_R3Goal_Explore@@8
rdata$r	SEGMENT
??_R3Goal_Explore@@8 DD 00H				; Goal_Explore::`RTTI Class Hierarchy Descriptor'
	DD	00H
	DD	03H
	DD	FLAT:??_R2Goal_Explore@@8
rdata$r	ENDS
;	COMDAT ??_R0?AVGoal_Explore@@@8
_DATA	SEGMENT
??_R0?AVGoal_Explore@@@8 DD FLAT:??_7type_info@@6B@	; Goal_Explore `RTTI Type Descriptor'
	DD	00H
	DB	'.?AVGoal_Explore@@', 00H
_DATA	ENDS
;	COMDAT ??_R4Goal_Explore@@6B@
rdata$r	SEGMENT
??_R4Goal_Explore@@6B@ DD 00H				; Goal_Explore::`RTTI Complete Object Locator'
	DD	00H
	DD	00H
	DD	FLAT:??_R0?AVGoal_Explore@@@8
	DD	FLAT:??_R3Goal_Explore@@8
rdata$r	ENDS
;	COMDAT ??_7Goal_Explore@@6B@
CONST	SEGMENT
??_7Goal_Explore@@6B@ DD FLAT:??_R4Goal_Explore@@6B@	; Goal_Explore::`vftable'
	DD	FLAT:??_EGoal_Explore@@UAEPAXI@Z
	DD	FLAT:?Activate@Goal_Explore@@UAEXXZ
	DD	FLAT:?Process@Goal_Explore@@UAEHXZ
	DD	FLAT:?Terminate@Goal_Explore@@UAEXXZ
	DD	FLAT:?HandleMessage@Goal_Explore@@UAE_NABUTelegram@@@Z
	DD	FLAT:?AddSubgoal@?$Goal_Composite@VAbstRaven_Bot@@@@UAEXPAV?$Goal@VAbstRaven_Bot@@@@@Z
	DD	FLAT:?RenderAtPos@?$Goal_Composite@VAbstRaven_Bot@@@@UBEXAAUVector2D@@PAVTypeToString@@@Z
	DD	FLAT:?Render@?$Goal_Composite@VAbstRaven_Bot@@@@UAEXXZ
CONST	ENDS
;	COMDAT xdata$x
xdata$x	SEGMENT
__unwindtable$??0Goal_Explore@@QAE@PAVAbstRaven_Bot@@@Z DD 0ffffffffH
	DD	FLAT:__unwindfunclet$??0Goal_Explore@@QAE@PAVAbstRaven_Bot@@@Z$0
__ehfuncinfo$??0Goal_Explore@@QAE@PAVAbstRaven_Bot@@@Z DD 019930522H
	DD	01H
	DD	FLAT:__unwindtable$??0Goal_Explore@@QAE@PAVAbstRaven_Bot@@@Z
	DD	2 DUP(00H)
	DD	2 DUP(00H)
	DD	00H
	DD	01H
; Function compile flags: /Odtp /RTCsu
xdata$x	ENDS
;	COMDAT ??0Goal_Explore@@QAE@PAVAbstRaven_Bot@@@Z
_TEXT	SEGMENT
_this$ = -16						; size = 4
__$EHRec$ = -12						; size = 12
_pOwner$ = 8						; size = 4
??0Goal_Explore@@QAE@PAVAbstRaven_Bot@@@Z PROC		; Goal_Explore::Goal_Explore, COMDAT
; _this$ = ecx

; 26   :   {}

	push	ebp
	mov	ebp, esp
	push	-1
	push	__ehhandler$??0Goal_Explore@@QAE@PAVAbstRaven_Bot@@@Z
	mov	eax, DWORD PTR fs:0
	push	eax
	push	ecx
	mov	DWORD PTR [ebp-16], -858993460		; ccccccccH
	mov	eax, DWORD PTR ___security_cookie
	xor	eax, ebp
	push	eax
	lea	eax, DWORD PTR __$EHRec$[ebp]
	mov	DWORD PTR fs:0, eax
	mov	DWORD PTR _this$[ebp], ecx
	push	1
	mov	eax, DWORD PTR _pOwner$[ebp]
	push	eax
	mov	ecx, DWORD PTR _this$[ebp]
	call	??0?$Goal_Composite@VAbstRaven_Bot@@@@QAE@PAVAbstRaven_Bot@@H@Z ; Goal_Composite<AbstRaven_Bot>::Goal_Composite<AbstRaven_Bot>
	mov	DWORD PTR __$EHRec$[ebp+8], 0
	mov	ecx, DWORD PTR _this$[ebp]
	mov	DWORD PTR [ecx], OFFSET ??_7Goal_Explore@@6B@
	mov	ecx, DWORD PTR _this$[ebp]
	add	ecx, 32					; 00000020H
	call	??0Vector2D@@QAE@XZ			; Vector2D::Vector2D
	mov	edx, DWORD PTR _this$[ebp]
	mov	BYTE PTR [edx+48], 0
	mov	DWORD PTR __$EHRec$[ebp+8], -1
	mov	eax, DWORD PTR _this$[ebp]
	mov	ecx, DWORD PTR __$EHRec$[ebp]
	mov	DWORD PTR fs:0, ecx
	pop	ecx
	add	esp, 16					; 00000010H
	cmp	ebp, esp
	call	__RTC_CheckEsp
	mov	esp, ebp
	pop	ebp
	ret	4
_TEXT	ENDS
;	COMDAT text$x
text$x	SEGMENT
__unwindfunclet$??0Goal_Explore@@QAE@PAVAbstRaven_Bot@@@Z$0:
	mov	ecx, DWORD PTR _this$[ebp]
	jmp	??1?$Goal_Composite@VAbstRaven_Bot@@@@UAE@XZ ; Goal_Composite<AbstRaven_Bot>::~Goal_Composite<AbstRaven_Bot>
__ehhandler$??0Goal_Explore@@QAE@PAVAbstRaven_Bot@@@Z:
	mov	edx, DWORD PTR [esp+8]
	lea	eax, DWORD PTR [edx+12]
	mov	ecx, DWORD PTR [edx-8]
	xor	ecx, eax
	call	@__security_check_cookie@4
	mov	eax, OFFSET __ehfuncinfo$??0Goal_Explore@@QAE@PAVAbstRaven_Bot@@@Z
	jmp	___CxxFrameHandler3
text$x	ENDS
??0Goal_Explore@@QAE@PAVAbstRaven_Bot@@@Z ENDP		; Goal_Explore::Goal_Explore
; Function compile flags: /Odtp /RTCsu
; File c:\users\teaja\documents\artificial-fun\labravenprojecttest\common\2d\vector2d.h
;	COMDAT ??0Vector2D@@QAE@XZ
_TEXT	SEGMENT
_this$ = -4						; size = 4
??0Vector2D@@QAE@XZ PROC				; Vector2D::Vector2D, COMDAT
; _this$ = ecx

; 24   :   Vector2D():x(0.0),y(0.0){}

	push	ebp
	mov	ebp, esp
	push	ecx
	mov	DWORD PTR [ebp-4], -858993460		; ccccccccH
	mov	DWORD PTR _this$[ebp], ecx
	mov	eax, DWORD PTR _this$[ebp]
	fldz
	fstp	QWORD PTR [eax]
	mov	ecx, DWORD PTR _this$[ebp]
	fldz
	fstp	QWORD PTR [ecx+8]
	mov	eax, DWORD PTR _this$[ebp]
	mov	esp, ebp
	pop	ebp
	ret	0
??0Vector2D@@QAE@XZ ENDP				; Vector2D::Vector2D
; Function compile flags: /Odtp /RTCsu
; File c:\users\teaja\documents\artificial-fun\labravenprojecttest\raven\goals\goal_explore.h
_TEXT	ENDS
;	COMDAT ?Terminate@Goal_Explore@@UAEXXZ
_TEXT	SEGMENT
_this$ = -4						; size = 4
?Terminate@Goal_Explore@@UAEXXZ PROC			; Goal_Explore::Terminate, COMDAT
; _this$ = ecx

; 33   :   void Terminate(){}

	push	ebp
	mov	ebp, esp
	push	ecx
	mov	DWORD PTR [ebp-4], -858993460		; ccccccccH
	mov	DWORD PTR _this$[ebp], ecx
	mov	esp, ebp
	pop	ebp
	ret	0
?Terminate@Goal_Explore@@UAEXXZ ENDP			; Goal_Explore::Terminate
_TEXT	ENDS
PUBLIC	??1Goal_Explore@@UAE@XZ				; Goal_Explore::~Goal_Explore
; Function compile flags: /Odtp /RTCsu
;	COMDAT ??_GGoal_Explore@@UAEPAXI@Z
_TEXT	SEGMENT
_this$ = -4						; size = 4
___flags$ = 8						; size = 4
??_GGoal_Explore@@UAEPAXI@Z PROC			; Goal_Explore::`scalar deleting destructor', COMDAT
; _this$ = ecx
	push	ebp
	mov	ebp, esp
	push	ecx
	mov	DWORD PTR [ebp-4], -858993460		; ccccccccH
	mov	DWORD PTR _this$[ebp], ecx
	mov	ecx, DWORD PTR _this$[ebp]
	call	??1Goal_Explore@@UAE@XZ
	mov	eax, DWORD PTR ___flags$[ebp]
	and	eax, 1
	je	SHORT $LN1@scalar@8
	mov	ecx, DWORD PTR _this$[ebp]
	push	ecx
	call	??3@YAXPAX@Z				; operator delete
	add	esp, 4
$LN1@scalar@8:
	mov	eax, DWORD PTR _this$[ebp]
	add	esp, 4
	cmp	ebp, esp
	call	__RTC_CheckEsp
	mov	esp, ebp
	pop	ebp
	ret	4
??_GGoal_Explore@@UAEPAXI@Z ENDP			; Goal_Explore::`scalar deleting destructor'
; Function compile flags: /Odtp /RTCsu
_TEXT	ENDS
;	COMDAT ??1Goal_Explore@@UAE@XZ
_TEXT	SEGMENT
_this$ = -4						; size = 4
??1Goal_Explore@@UAE@XZ PROC				; Goal_Explore::~Goal_Explore, COMDAT
; _this$ = ecx
	push	ebp
	mov	ebp, esp
	push	ecx
	mov	DWORD PTR [ebp-4], -858993460		; ccccccccH
	mov	DWORD PTR _this$[ebp], ecx
	mov	ecx, DWORD PTR _this$[ebp]
	call	??1?$Goal_Composite@VAbstRaven_Bot@@@@UAE@XZ ; Goal_Composite<AbstRaven_Bot>::~Goal_Composite<AbstRaven_Bot>
	add	esp, 4
	cmp	ebp, esp
	call	__RTC_CheckEsp
	mov	esp, ebp
	pop	ebp
	ret	0
??1Goal_Explore@@UAE@XZ ENDP				; Goal_Explore::~Goal_Explore
_TEXT	ENDS
PUBLIC	??0Goal_GetItem@@QAE@PAVAbstRaven_Bot@@H@Z	; Goal_GetItem::Goal_GetItem
EXTRN	?ItemTypeToGoalType@@YAHH@Z:PROC		; ItemTypeToGoalType
xdata$x	SEGMENT
__unwindtable$?AddGoal_GetItem@Goal_Think@@UAEXI@Z DD 0ffffffffH
	DD	FLAT:__unwindfunclet$?AddGoal_GetItem@Goal_Think@@UAEXI@Z$0
__ehfuncinfo$?AddGoal_GetItem@Goal_Think@@UAEXI@Z DD 019930522H
	DD	01H
	DD	FLAT:__unwindtable$?AddGoal_GetItem@Goal_Think@@UAEXI@Z
	DD	2 DUP(00H)
	DD	2 DUP(00H)
	DD	00H
	DD	01H
; Function compile flags: /Odtp /RTCsu
; File c:\users\teaja\documents\artificial-fun\labravenprojecttest\raven\goals\goal_think.cpp
xdata$x	ENDS
_TEXT	SEGMENT
tv132 = -28						; size = 4
$T142093 = -24						; size = 4
$T142092 = -20						; size = 4
_this$ = -16						; size = 4
__$EHRec$ = -12						; size = 12
_ItemType$ = 8						; size = 4
?AddGoal_GetItem@Goal_Think@@UAEXI@Z PROC		; Goal_Think::AddGoal_GetItem
; _this$ = ecx

; 152  : {

	push	ebp
	mov	ebp, esp
	push	-1
	push	__ehhandler$?AddGoal_GetItem@Goal_Think@@UAEXI@Z
	mov	eax, DWORD PTR fs:0
	push	eax
	sub	esp, 16					; 00000010H
	push	esi
	mov	eax, -858993460				; ccccccccH
	mov	DWORD PTR [ebp-28], eax
	mov	DWORD PTR [ebp-24], eax
	mov	DWORD PTR [ebp-20], eax
	mov	DWORD PTR [ebp-16], eax
	mov	eax, DWORD PTR ___security_cookie
	xor	eax, ebp
	push	eax
	lea	eax, DWORD PTR __$EHRec$[ebp]
	mov	DWORD PTR fs:0, eax
	mov	DWORD PTR _this$[ebp], ecx

; 153  :   if (notPresent(ItemTypeToGoalType(ItemType)))

	mov	eax, DWORD PTR _ItemType$[ebp]
	push	eax
	call	?ItemTypeToGoalType@@YAHH@Z		; ItemTypeToGoalType
	add	esp, 4
	push	eax
	mov	ecx, DWORD PTR _this$[ebp]
	call	?notPresent@Goal_Think@@QBE_NI@Z	; Goal_Think::notPresent
	movzx	ecx, al
	test	ecx, ecx
	je	SHORT $LN2@AddGoal_Ge

; 154  :   {
; 155  :     RemoveAllSubgoals();

	mov	ecx, DWORD PTR _this$[ebp]
	call	?RemoveAllSubgoals@?$Goal_Composite@VAbstRaven_Bot@@@@QAEXXZ ; Goal_Composite<AbstRaven_Bot>::RemoveAllSubgoals

; 156  :     AddSubgoal( new Goal_GetItem(m_pOwner, ItemType));

	push	44					; 0000002cH
	call	??2@YAPAXI@Z				; operator new
	add	esp, 4
	mov	DWORD PTR $T142093[ebp], eax
	mov	DWORD PTR __$EHRec$[ebp+8], 0
	cmp	DWORD PTR $T142093[ebp], 0
	je	SHORT $LN4@AddGoal_Ge
	mov	edx, DWORD PTR _ItemType$[ebp]
	push	edx
	mov	eax, DWORD PTR _this$[ebp]
	mov	ecx, DWORD PTR [eax+8]
	push	ecx
	mov	ecx, DWORD PTR $T142093[ebp]
	call	??0Goal_GetItem@@QAE@PAVAbstRaven_Bot@@H@Z ; Goal_GetItem::Goal_GetItem
	mov	DWORD PTR tv132[ebp], eax
	jmp	SHORT $LN5@AddGoal_Ge
$LN4@AddGoal_Ge:
	mov	DWORD PTR tv132[ebp], 0
$LN5@AddGoal_Ge:
	mov	edx, DWORD PTR tv132[ebp]
	mov	DWORD PTR $T142092[ebp], edx
	mov	DWORD PTR __$EHRec$[ebp+8], -1
	mov	esi, esp
	mov	eax, DWORD PTR $T142092[ebp]
	push	eax
	mov	ecx, DWORD PTR _this$[ebp]
	mov	edx, DWORD PTR [ecx]
	mov	ecx, DWORD PTR _this$[ebp]
	mov	eax, DWORD PTR [edx+20]
	call	eax
	cmp	esi, esp
	call	__RTC_CheckEsp
$LN2@AddGoal_Ge:

; 157  :   }
; 158  : }

	mov	ecx, DWORD PTR __$EHRec$[ebp]
	mov	DWORD PTR fs:0, ecx
	pop	ecx
	pop	esi
	add	esp, 28					; 0000001cH
	cmp	ebp, esp
	call	__RTC_CheckEsp
	mov	esp, ebp
	pop	ebp
	ret	4
_TEXT	ENDS
text$x	SEGMENT
__unwindfunclet$?AddGoal_GetItem@Goal_Think@@UAEXI@Z$0:
	mov	eax, DWORD PTR $T142093[ebp]
	push	eax
	call	??3@YAXPAX@Z				; operator delete
	pop	ecx
	ret	0
__ehhandler$?AddGoal_GetItem@Goal_Think@@UAEXI@Z:
	mov	edx, DWORD PTR [esp+8]
	lea	eax, DWORD PTR [edx+12]
	mov	ecx, DWORD PTR [edx-24]
	xor	ecx, eax
	call	@__security_check_cookie@4
	mov	eax, OFFSET __ehfuncinfo$?AddGoal_GetItem@Goal_Think@@UAEXI@Z
	jmp	___CxxFrameHandler3
text$x	ENDS
?AddGoal_GetItem@Goal_Think@@UAEXI@Z ENDP		; Goal_Think::AddGoal_GetItem
PUBLIC	??_7Goal_GetItem@@6B@				; Goal_GetItem::`vftable'
PUBLIC	??_R4Goal_GetItem@@6B@				; Goal_GetItem::`RTTI Complete Object Locator'
PUBLIC	??_R0?AVGoal_GetItem@@@8			; Goal_GetItem `RTTI Type Descriptor'
PUBLIC	??_R3Goal_GetItem@@8				; Goal_GetItem::`RTTI Class Hierarchy Descriptor'
PUBLIC	??_R2Goal_GetItem@@8				; Goal_GetItem::`RTTI Base Class Array'
PUBLIC	??_R1A@?0A@EA@Goal_GetItem@@8			; Goal_GetItem::`RTTI Base Class Descriptor at (0,-1,0,64)'
PUBLIC	?Terminate@Goal_GetItem@@UAEXXZ			; Goal_GetItem::Terminate
EXTRN	??_EGoal_GetItem@@UAEPAXI@Z:PROC		; Goal_GetItem::`vector deleting destructor'
EXTRN	?Activate@Goal_GetItem@@UAEXXZ:PROC		; Goal_GetItem::Activate
EXTRN	?Process@Goal_GetItem@@UAEHXZ:PROC		; Goal_GetItem::Process
EXTRN	?HandleMessage@Goal_GetItem@@UAE_NABUTelegram@@@Z:PROC ; Goal_GetItem::HandleMessage
;	COMDAT ??_R1A@?0A@EA@Goal_GetItem@@8
; File c:\users\teaja\documents\artificial-fun\labravenprojecttest\raven\goals\goal_getitem.h
rdata$r	SEGMENT
??_R1A@?0A@EA@Goal_GetItem@@8 DD FLAT:??_R0?AVGoal_GetItem@@@8 ; Goal_GetItem::`RTTI Base Class Descriptor at (0,-1,0,64)'
	DD	02H
	DD	00H
	DD	0ffffffffH
	DD	00H
	DD	040H
	DD	FLAT:??_R3Goal_GetItem@@8
rdata$r	ENDS
;	COMDAT ??_R2Goal_GetItem@@8
rdata$r	SEGMENT
??_R2Goal_GetItem@@8 DD FLAT:??_R1A@?0A@EA@Goal_GetItem@@8 ; Goal_GetItem::`RTTI Base Class Array'
	DD	FLAT:??_R1A@?0A@EA@?$Goal_Composite@VAbstRaven_Bot@@@@8
	DD	FLAT:??_R1A@?0A@EA@?$Goal@VAbstRaven_Bot@@@@8
rdata$r	ENDS
;	COMDAT ??_R3Goal_GetItem@@8
rdata$r	SEGMENT
??_R3Goal_GetItem@@8 DD 00H				; Goal_GetItem::`RTTI Class Hierarchy Descriptor'
	DD	00H
	DD	03H
	DD	FLAT:??_R2Goal_GetItem@@8
rdata$r	ENDS
;	COMDAT ??_R0?AVGoal_GetItem@@@8
_DATA	SEGMENT
??_R0?AVGoal_GetItem@@@8 DD FLAT:??_7type_info@@6B@	; Goal_GetItem `RTTI Type Descriptor'
	DD	00H
	DB	'.?AVGoal_GetItem@@', 00H
_DATA	ENDS
;	COMDAT ??_R4Goal_GetItem@@6B@
rdata$r	SEGMENT
??_R4Goal_GetItem@@6B@ DD 00H				; Goal_GetItem::`RTTI Complete Object Locator'
	DD	00H
	DD	00H
	DD	FLAT:??_R0?AVGoal_GetItem@@@8
	DD	FLAT:??_R3Goal_GetItem@@8
rdata$r	ENDS
;	COMDAT ??_7Goal_GetItem@@6B@
CONST	SEGMENT
??_7Goal_GetItem@@6B@ DD FLAT:??_R4Goal_GetItem@@6B@	; Goal_GetItem::`vftable'
	DD	FLAT:??_EGoal_GetItem@@UAEPAXI@Z
	DD	FLAT:?Activate@Goal_GetItem@@UAEXXZ
	DD	FLAT:?Process@Goal_GetItem@@UAEHXZ
	DD	FLAT:?Terminate@Goal_GetItem@@UAEXXZ
	DD	FLAT:?HandleMessage@Goal_GetItem@@UAE_NABUTelegram@@@Z
	DD	FLAT:?AddSubgoal@?$Goal_Composite@VAbstRaven_Bot@@@@UAEXPAV?$Goal@VAbstRaven_Bot@@@@@Z
	DD	FLAT:?RenderAtPos@?$Goal_Composite@VAbstRaven_Bot@@@@UBEXAAUVector2D@@PAVTypeToString@@@Z
	DD	FLAT:?Render@?$Goal_Composite@VAbstRaven_Bot@@@@UAEXXZ
; Function compile flags: /Odtp /RTCsu
CONST	ENDS
;	COMDAT ??0Goal_GetItem@@QAE@PAVAbstRaven_Bot@@H@Z
_TEXT	SEGMENT
_this$ = -4						; size = 4
_pBot$ = 8						; size = 4
_item$ = 12						; size = 4
??0Goal_GetItem@@QAE@PAVAbstRaven_Bot@@H@Z PROC		; Goal_GetItem::Goal_GetItem, COMDAT
; _this$ = ecx

; 38   :   {}

	push	ebp
	mov	ebp, esp
	push	ecx
	mov	DWORD PTR [ebp-4], -858993460		; ccccccccH
	mov	DWORD PTR _this$[ebp], ecx
	mov	eax, DWORD PTR _item$[ebp]
	push	eax
	call	?ItemTypeToGoalType@@YAHH@Z		; ItemTypeToGoalType
	add	esp, 4
	push	eax
	mov	ecx, DWORD PTR _pBot$[ebp]
	push	ecx
	mov	ecx, DWORD PTR _this$[ebp]
	call	??0?$Goal_Composite@VAbstRaven_Bot@@@@QAE@PAVAbstRaven_Bot@@H@Z ; Goal_Composite<AbstRaven_Bot>::Goal_Composite<AbstRaven_Bot>
	mov	edx, DWORD PTR _this$[ebp]
	mov	DWORD PTR [edx], OFFSET ??_7Goal_GetItem@@6B@
	mov	eax, DWORD PTR _this$[ebp]
	mov	ecx, DWORD PTR _item$[ebp]
	mov	DWORD PTR [eax+32], ecx
	mov	edx, DWORD PTR _this$[ebp]
	mov	DWORD PTR [edx+36], 0
	mov	eax, DWORD PTR _this$[ebp]
	mov	BYTE PTR [eax+40], 0
	mov	eax, DWORD PTR _this$[ebp]
	add	esp, 4
	cmp	ebp, esp
	call	__RTC_CheckEsp
	mov	esp, ebp
	pop	ebp
	ret	8
??0Goal_GetItem@@QAE@PAVAbstRaven_Bot@@H@Z ENDP		; Goal_GetItem::Goal_GetItem
; Function compile flags: /Odtp /RTCsu
_TEXT	ENDS
;	COMDAT ?Terminate@Goal_GetItem@@UAEXXZ
_TEXT	SEGMENT
_this$ = -4						; size = 4
?Terminate@Goal_GetItem@@UAEXXZ PROC			; Goal_GetItem::Terminate, COMDAT
; _this$ = ecx

; 47   :   void Terminate(){m_iStatus = completed;}

	push	ebp
	mov	ebp, esp
	push	ecx
	mov	DWORD PTR [ebp-4], -858993460		; ccccccccH
	mov	DWORD PTR _this$[ebp], ecx
	mov	eax, DWORD PTR _this$[ebp]
	mov	DWORD PTR [eax+12], 2
	mov	esp, ebp
	pop	ebp
	ret	0
?Terminate@Goal_GetItem@@UAEXXZ ENDP			; Goal_GetItem::Terminate
_TEXT	ENDS
PUBLIC	??1Goal_GetItem@@UAE@XZ				; Goal_GetItem::~Goal_GetItem
; Function compile flags: /Odtp /RTCsu
;	COMDAT ??_GGoal_GetItem@@UAEPAXI@Z
_TEXT	SEGMENT
_this$ = -4						; size = 4
___flags$ = 8						; size = 4
??_GGoal_GetItem@@UAEPAXI@Z PROC			; Goal_GetItem::`scalar deleting destructor', COMDAT
; _this$ = ecx
	push	ebp
	mov	ebp, esp
	push	ecx
	mov	DWORD PTR [ebp-4], -858993460		; ccccccccH
	mov	DWORD PTR _this$[ebp], ecx
	mov	ecx, DWORD PTR _this$[ebp]
	call	??1Goal_GetItem@@UAE@XZ
	mov	eax, DWORD PTR ___flags$[ebp]
	and	eax, 1
	je	SHORT $LN1@scalar@9
	mov	ecx, DWORD PTR _this$[ebp]
	push	ecx
	call	??3@YAXPAX@Z				; operator delete
	add	esp, 4
$LN1@scalar@9:
	mov	eax, DWORD PTR _this$[ebp]
	add	esp, 4
	cmp	ebp, esp
	call	__RTC_CheckEsp
	mov	esp, ebp
	pop	ebp
	ret	4
??_GGoal_GetItem@@UAEPAXI@Z ENDP			; Goal_GetItem::`scalar deleting destructor'
; Function compile flags: /Odtp /RTCsu
_TEXT	ENDS
;	COMDAT ??1Goal_GetItem@@UAE@XZ
_TEXT	SEGMENT
_this$ = -4						; size = 4
??1Goal_GetItem@@UAE@XZ PROC				; Goal_GetItem::~Goal_GetItem, COMDAT
; _this$ = ecx
	push	ebp
	mov	ebp, esp
	push	ecx
	mov	DWORD PTR [ebp-4], -858993460		; ccccccccH
	mov	DWORD PTR _this$[ebp], ecx
	mov	ecx, DWORD PTR _this$[ebp]
	call	??1?$Goal_Composite@VAbstRaven_Bot@@@@UAE@XZ ; Goal_Composite<AbstRaven_Bot>::~Goal_Composite<AbstRaven_Bot>
	add	esp, 4
	cmp	ebp, esp
	call	__RTC_CheckEsp
	mov	esp, ebp
	pop	ebp
	ret	0
??1Goal_GetItem@@UAE@XZ ENDP				; Goal_GetItem::~Goal_GetItem
_TEXT	ENDS
PUBLIC	??0Goal_AttackTarget@@QAE@PAVAbstRaven_Bot@@@Z	; Goal_AttackTarget::Goal_AttackTarget
xdata$x	SEGMENT
__unwindtable$?AddGoal_AttackTarget@Goal_Think@@UAEXXZ DD 0ffffffffH
	DD	FLAT:__unwindfunclet$?AddGoal_AttackTarget@Goal_Think@@UAEXXZ$0
__ehfuncinfo$?AddGoal_AttackTarget@Goal_Think@@UAEXXZ DD 019930522H
	DD	01H
	DD	FLAT:__unwindtable$?AddGoal_AttackTarget@Goal_Think@@UAEXXZ
	DD	2 DUP(00H)
	DD	2 DUP(00H)
	DD	00H
	DD	01H
; Function compile flags: /Odtp /RTCsu
; File c:\users\teaja\documents\artificial-fun\labravenprojecttest\raven\goals\goal_think.cpp
xdata$x	ENDS
_TEXT	SEGMENT
tv129 = -28						; size = 4
$T142113 = -24						; size = 4
$T142112 = -20						; size = 4
_this$ = -16						; size = 4
__$EHRec$ = -12						; size = 12
?AddGoal_AttackTarget@Goal_Think@@UAEXXZ PROC		; Goal_Think::AddGoal_AttackTarget
; _this$ = ecx

; 161  : {

	push	ebp
	mov	ebp, esp
	push	-1
	push	__ehhandler$?AddGoal_AttackTarget@Goal_Think@@UAEXXZ
	mov	eax, DWORD PTR fs:0
	push	eax
	sub	esp, 16					; 00000010H
	push	esi
	mov	eax, -858993460				; ccccccccH
	mov	DWORD PTR [ebp-28], eax
	mov	DWORD PTR [ebp-24], eax
	mov	DWORD PTR [ebp-20], eax
	mov	DWORD PTR [ebp-16], eax
	mov	eax, DWORD PTR ___security_cookie
	xor	eax, ebp
	push	eax
	lea	eax, DWORD PTR __$EHRec$[ebp]
	mov	DWORD PTR fs:0, eax
	mov	DWORD PTR _this$[ebp], ecx

; 162  :   if (notPresent(goal_attack_target))

	push	13					; 0000000dH
	mov	ecx, DWORD PTR _this$[ebp]
	call	?notPresent@Goal_Think@@QBE_NI@Z	; Goal_Think::notPresent
	movzx	eax, al
	test	eax, eax
	je	SHORT $LN2@AddGoal_At

; 163  :   {
; 164  :     RemoveAllSubgoals();

	mov	ecx, DWORD PTR _this$[ebp]
	call	?RemoveAllSubgoals@?$Goal_Composite@VAbstRaven_Bot@@@@QAEXXZ ; Goal_Composite<AbstRaven_Bot>::RemoveAllSubgoals

; 165  :     AddSubgoal( new Goal_AttackTarget(m_pOwner));

	push	32					; 00000020H
	call	??2@YAPAXI@Z				; operator new
	add	esp, 4
	mov	DWORD PTR $T142113[ebp], eax
	mov	DWORD PTR __$EHRec$[ebp+8], 0
	cmp	DWORD PTR $T142113[ebp], 0
	je	SHORT $LN4@AddGoal_At
	mov	ecx, DWORD PTR _this$[ebp]
	mov	edx, DWORD PTR [ecx+8]
	push	edx
	mov	ecx, DWORD PTR $T142113[ebp]
	call	??0Goal_AttackTarget@@QAE@PAVAbstRaven_Bot@@@Z ; Goal_AttackTarget::Goal_AttackTarget
	mov	DWORD PTR tv129[ebp], eax
	jmp	SHORT $LN5@AddGoal_At
$LN4@AddGoal_At:
	mov	DWORD PTR tv129[ebp], 0
$LN5@AddGoal_At:
	mov	eax, DWORD PTR tv129[ebp]
	mov	DWORD PTR $T142112[ebp], eax
	mov	DWORD PTR __$EHRec$[ebp+8], -1
	mov	esi, esp
	mov	ecx, DWORD PTR $T142112[ebp]
	push	ecx
	mov	edx, DWORD PTR _this$[ebp]
	mov	eax, DWORD PTR [edx]
	mov	ecx, DWORD PTR _this$[ebp]
	mov	edx, DWORD PTR [eax+20]
	call	edx
	cmp	esi, esp
	call	__RTC_CheckEsp
$LN2@AddGoal_At:

; 166  :   }
; 167  : }

	mov	ecx, DWORD PTR __$EHRec$[ebp]
	mov	DWORD PTR fs:0, ecx
	pop	ecx
	pop	esi
	add	esp, 28					; 0000001cH
	cmp	ebp, esp
	call	__RTC_CheckEsp
	mov	esp, ebp
	pop	ebp
	ret	0
_TEXT	ENDS
text$x	SEGMENT
__unwindfunclet$?AddGoal_AttackTarget@Goal_Think@@UAEXXZ$0:
	mov	eax, DWORD PTR $T142113[ebp]
	push	eax
	call	??3@YAXPAX@Z				; operator delete
	pop	ecx
	ret	0
__ehhandler$?AddGoal_AttackTarget@Goal_Think@@UAEXXZ:
	mov	edx, DWORD PTR [esp+8]
	lea	eax, DWORD PTR [edx+12]
	mov	ecx, DWORD PTR [edx-24]
	xor	ecx, eax
	call	@__security_check_cookie@4
	mov	eax, OFFSET __ehfuncinfo$?AddGoal_AttackTarget@Goal_Think@@UAEXXZ
	jmp	___CxxFrameHandler3
text$x	ENDS
?AddGoal_AttackTarget@Goal_Think@@UAEXXZ ENDP		; Goal_Think::AddGoal_AttackTarget
PUBLIC	??_7Goal_AttackTarget@@6B@			; Goal_AttackTarget::`vftable'
PUBLIC	??_R4Goal_AttackTarget@@6B@			; Goal_AttackTarget::`RTTI Complete Object Locator'
PUBLIC	??_R0?AVGoal_AttackTarget@@@8			; Goal_AttackTarget `RTTI Type Descriptor'
PUBLIC	??_R3Goal_AttackTarget@@8			; Goal_AttackTarget::`RTTI Class Hierarchy Descriptor'
PUBLIC	??_R2Goal_AttackTarget@@8			; Goal_AttackTarget::`RTTI Base Class Array'
PUBLIC	??_R1A@?0A@EA@Goal_AttackTarget@@8		; Goal_AttackTarget::`RTTI Base Class Descriptor at (0,-1,0,64)'
PUBLIC	?Terminate@Goal_AttackTarget@@UAEXXZ		; Goal_AttackTarget::Terminate
EXTRN	??_EGoal_AttackTarget@@UAEPAXI@Z:PROC		; Goal_AttackTarget::`vector deleting destructor'
EXTRN	?Activate@Goal_AttackTarget@@UAEXXZ:PROC	; Goal_AttackTarget::Activate
EXTRN	?Process@Goal_AttackTarget@@UAEHXZ:PROC		; Goal_AttackTarget::Process
;	COMDAT ??_R1A@?0A@EA@Goal_AttackTarget@@8
; File c:\users\teaja\documents\artificial-fun\labravenprojecttest\raven\goals\goal_attacktarget.h
rdata$r	SEGMENT
??_R1A@?0A@EA@Goal_AttackTarget@@8 DD FLAT:??_R0?AVGoal_AttackTarget@@@8 ; Goal_AttackTarget::`RTTI Base Class Descriptor at (0,-1,0,64)'
	DD	02H
	DD	00H
	DD	0ffffffffH
	DD	00H
	DD	040H
	DD	FLAT:??_R3Goal_AttackTarget@@8
rdata$r	ENDS
;	COMDAT ??_R2Goal_AttackTarget@@8
rdata$r	SEGMENT
??_R2Goal_AttackTarget@@8 DD FLAT:??_R1A@?0A@EA@Goal_AttackTarget@@8 ; Goal_AttackTarget::`RTTI Base Class Array'
	DD	FLAT:??_R1A@?0A@EA@?$Goal_Composite@VAbstRaven_Bot@@@@8
	DD	FLAT:??_R1A@?0A@EA@?$Goal@VAbstRaven_Bot@@@@8
rdata$r	ENDS
;	COMDAT ??_R3Goal_AttackTarget@@8
rdata$r	SEGMENT
??_R3Goal_AttackTarget@@8 DD 00H			; Goal_AttackTarget::`RTTI Class Hierarchy Descriptor'
	DD	00H
	DD	03H
	DD	FLAT:??_R2Goal_AttackTarget@@8
rdata$r	ENDS
;	COMDAT ??_R0?AVGoal_AttackTarget@@@8
_DATA	SEGMENT
??_R0?AVGoal_AttackTarget@@@8 DD FLAT:??_7type_info@@6B@ ; Goal_AttackTarget `RTTI Type Descriptor'
	DD	00H
	DB	'.?AVGoal_AttackTarget@@', 00H
_DATA	ENDS
;	COMDAT ??_R4Goal_AttackTarget@@6B@
rdata$r	SEGMENT
??_R4Goal_AttackTarget@@6B@ DD 00H			; Goal_AttackTarget::`RTTI Complete Object Locator'
	DD	00H
	DD	00H
	DD	FLAT:??_R0?AVGoal_AttackTarget@@@8
	DD	FLAT:??_R3Goal_AttackTarget@@8
rdata$r	ENDS
;	COMDAT ??_7Goal_AttackTarget@@6B@
CONST	SEGMENT
??_7Goal_AttackTarget@@6B@ DD FLAT:??_R4Goal_AttackTarget@@6B@ ; Goal_AttackTarget::`vftable'
	DD	FLAT:??_EGoal_AttackTarget@@UAEPAXI@Z
	DD	FLAT:?Activate@Goal_AttackTarget@@UAEXXZ
	DD	FLAT:?Process@Goal_AttackTarget@@UAEHXZ
	DD	FLAT:?Terminate@Goal_AttackTarget@@UAEXXZ
	DD	FLAT:?HandleMessage@?$Goal_Composite@VAbstRaven_Bot@@@@UAE_NABUTelegram@@@Z
	DD	FLAT:?AddSubgoal@?$Goal_Composite@VAbstRaven_Bot@@@@UAEXPAV?$Goal@VAbstRaven_Bot@@@@@Z
	DD	FLAT:?RenderAtPos@?$Goal_Composite@VAbstRaven_Bot@@@@UBEXAAUVector2D@@PAVTypeToString@@@Z
	DD	FLAT:?Render@?$Goal_Composite@VAbstRaven_Bot@@@@UAEXXZ
; Function compile flags: /Odtp /RTCsu
CONST	ENDS
;	COMDAT ??0Goal_AttackTarget@@QAE@PAVAbstRaven_Bot@@@Z
_TEXT	SEGMENT
_this$ = -4						; size = 4
_pOwner$ = 8						; size = 4
??0Goal_AttackTarget@@QAE@PAVAbstRaven_Bot@@@Z PROC	; Goal_AttackTarget::Goal_AttackTarget, COMDAT
; _this$ = ecx

; 26   :   {}

	push	ebp
	mov	ebp, esp
	push	ecx
	mov	DWORD PTR [ebp-4], -858993460		; ccccccccH
	mov	DWORD PTR _this$[ebp], ecx
	push	13					; 0000000dH
	mov	eax, DWORD PTR _pOwner$[ebp]
	push	eax
	mov	ecx, DWORD PTR _this$[ebp]
	call	??0?$Goal_Composite@VAbstRaven_Bot@@@@QAE@PAVAbstRaven_Bot@@H@Z ; Goal_Composite<AbstRaven_Bot>::Goal_Composite<AbstRaven_Bot>
	mov	ecx, DWORD PTR _this$[ebp]
	mov	DWORD PTR [ecx], OFFSET ??_7Goal_AttackTarget@@6B@
	mov	eax, DWORD PTR _this$[ebp]
	add	esp, 4
	cmp	ebp, esp
	call	__RTC_CheckEsp
	mov	esp, ebp
	pop	ebp
	ret	4
??0Goal_AttackTarget@@QAE@PAVAbstRaven_Bot@@@Z ENDP	; Goal_AttackTarget::Goal_AttackTarget
; Function compile flags: /Odtp /RTCsu
_TEXT	ENDS
;	COMDAT ?Terminate@Goal_AttackTarget@@UAEXXZ
_TEXT	SEGMENT
_this$ = -4						; size = 4
?Terminate@Goal_AttackTarget@@UAEXXZ PROC		; Goal_AttackTarget::Terminate, COMDAT
; _this$ = ecx

; 32   :   void Terminate(){m_iStatus = completed;}

	push	ebp
	mov	ebp, esp
	push	ecx
	mov	DWORD PTR [ebp-4], -858993460		; ccccccccH
	mov	DWORD PTR _this$[ebp], ecx
	mov	eax, DWORD PTR _this$[ebp]
	mov	DWORD PTR [eax+12], 2
	mov	esp, ebp
	pop	ebp
	ret	0
?Terminate@Goal_AttackTarget@@UAEXXZ ENDP		; Goal_AttackTarget::Terminate
_TEXT	ENDS
PUBLIC	??1Goal_AttackTarget@@UAE@XZ			; Goal_AttackTarget::~Goal_AttackTarget
; Function compile flags: /Odtp /RTCsu
;	COMDAT ??_GGoal_AttackTarget@@UAEPAXI@Z
_TEXT	SEGMENT
_this$ = -4						; size = 4
___flags$ = 8						; size = 4
??_GGoal_AttackTarget@@UAEPAXI@Z PROC			; Goal_AttackTarget::`scalar deleting destructor', COMDAT
; _this$ = ecx
	push	ebp
	mov	ebp, esp
	push	ecx
	mov	DWORD PTR [ebp-4], -858993460		; ccccccccH
	mov	DWORD PTR _this$[ebp], ecx
	mov	ecx, DWORD PTR _this$[ebp]
	call	??1Goal_AttackTarget@@UAE@XZ
	mov	eax, DWORD PTR ___flags$[ebp]
	and	eax, 1
	je	SHORT $LN1@scalar@10
	mov	ecx, DWORD PTR _this$[ebp]
	push	ecx
	call	??3@YAXPAX@Z				; operator delete
	add	esp, 4
$LN1@scalar@10:
	mov	eax, DWORD PTR _this$[ebp]
	add	esp, 4
	cmp	ebp, esp
	call	__RTC_CheckEsp
	mov	esp, ebp
	pop	ebp
	ret	4
??_GGoal_AttackTarget@@UAEPAXI@Z ENDP			; Goal_AttackTarget::`scalar deleting destructor'
; Function compile flags: /Odtp /RTCsu
_TEXT	ENDS
;	COMDAT ??1Goal_AttackTarget@@UAE@XZ
_TEXT	SEGMENT
_this$ = -4						; size = 4
??1Goal_AttackTarget@@UAE@XZ PROC			; Goal_AttackTarget::~Goal_AttackTarget, COMDAT
; _this$ = ecx
	push	ebp
	mov	ebp, esp
	push	ecx
	mov	DWORD PTR [ebp-4], -858993460		; ccccccccH
	mov	DWORD PTR _this$[ebp], ecx
	mov	ecx, DWORD PTR _this$[ebp]
	call	??1?$Goal_Composite@VAbstRaven_Bot@@@@UAE@XZ ; Goal_Composite<AbstRaven_Bot>::~Goal_Composite<AbstRaven_Bot>
	add	esp, 4
	cmp	ebp, esp
	call	__RTC_CheckEsp
	mov	esp, ebp
	pop	ebp
	ret	0
??1Goal_AttackTarget@@UAE@XZ ENDP			; Goal_AttackTarget::~Goal_AttackTarget
_TEXT	ENDS
PUBLIC	?push_back@?$list@PAV?$Goal@VAbstRaven_Bot@@@@V?$allocator@PAV?$Goal@VAbstRaven_Bot@@@@@std@@@std@@QAEX$$QAPAV?$Goal@VAbstRaven_Bot@@@@@Z ; std::list<Goal<AbstRaven_Bot> *,std::allocator<Goal<AbstRaven_Bot> *> >::push_back
xdata$x	SEGMENT
__unwindtable$?QueueGoal_MoveToPosition@Goal_Think@@UAEXUVector2D@@@Z DD 0ffffffffH
	DD	FLAT:__unwindfunclet$?QueueGoal_MoveToPosition@Goal_Think@@UAEXUVector2D@@@Z$0
__ehfuncinfo$?QueueGoal_MoveToPosition@Goal_Think@@UAEXUVector2D@@@Z DD 019930522H
	DD	01H
	DD	FLAT:__unwindtable$?QueueGoal_MoveToPosition@Goal_Think@@UAEXUVector2D@@@Z
	DD	2 DUP(00H)
	DD	2 DUP(00H)
	DD	00H
	DD	01H
; Function compile flags: /Odtp /RTCsu
; File c:\users\teaja\documents\artificial-fun\labravenprojecttest\raven\goals\goal_think.cpp
xdata$x	ENDS
_TEXT	SEGMENT
tv87 = -32						; size = 4
$T142134 = -28						; size = 4
$T142133 = -24						; size = 4
$T142132 = -20						; size = 4
_this$ = -16						; size = 4
__$EHRec$ = -12						; size = 12
_pos$ = 8						; size = 16
?QueueGoal_MoveToPosition@Goal_Think@@UAEXUVector2D@@@Z PROC ; Goal_Think::QueueGoal_MoveToPosition
; _this$ = ecx

; 172  : {

	push	ebp
	mov	ebp, esp
	push	-1
	push	__ehhandler$?QueueGoal_MoveToPosition@Goal_Think@@UAEXUVector2D@@@Z
	mov	eax, DWORD PTR fs:0
	push	eax
	sub	esp, 20					; 00000014H
	mov	eax, -858993460				; ccccccccH
	mov	DWORD PTR [ebp-32], eax
	mov	DWORD PTR [ebp-28], eax
	mov	DWORD PTR [ebp-24], eax
	mov	DWORD PTR [ebp-20], eax
	mov	DWORD PTR [ebp-16], eax
	mov	eax, DWORD PTR ___security_cookie
	xor	eax, ebp
	push	eax
	lea	eax, DWORD PTR __$EHRec$[ebp]
	mov	DWORD PTR fs:0, eax
	mov	DWORD PTR _this$[ebp], ecx

; 173  :    m_SubGoals.push_back(new Goal_MoveToPosition(m_pOwner, pos));

	push	48					; 00000030H
	call	??2@YAPAXI@Z				; operator new
	add	esp, 4
	mov	DWORD PTR $T142134[ebp], eax
	mov	DWORD PTR __$EHRec$[ebp+8], 0
	cmp	DWORD PTR $T142134[ebp], 0
	je	SHORT $LN3@QueueGoal_
	sub	esp, 16					; 00000010H
	mov	eax, esp
	mov	ecx, DWORD PTR _pos$[ebp]
	mov	DWORD PTR [eax], ecx
	mov	edx, DWORD PTR _pos$[ebp+4]
	mov	DWORD PTR [eax+4], edx
	mov	ecx, DWORD PTR _pos$[ebp+8]
	mov	DWORD PTR [eax+8], ecx
	mov	edx, DWORD PTR _pos$[ebp+12]
	mov	DWORD PTR [eax+12], edx
	mov	eax, DWORD PTR _this$[ebp]
	mov	ecx, DWORD PTR [eax+8]
	push	ecx
	mov	ecx, DWORD PTR $T142134[ebp]
	call	??0Goal_MoveToPosition@@QAE@PAVAbstRaven_Bot@@UVector2D@@@Z ; Goal_MoveToPosition::Goal_MoveToPosition
	mov	DWORD PTR tv87[ebp], eax
	jmp	SHORT $LN4@QueueGoal_
$LN3@QueueGoal_:
	mov	DWORD PTR tv87[ebp], 0
$LN4@QueueGoal_:
	mov	edx, DWORD PTR tv87[ebp]
	mov	DWORD PTR $T142133[ebp], edx
	mov	DWORD PTR __$EHRec$[ebp+8], -1
	mov	eax, DWORD PTR $T142133[ebp]
	mov	DWORD PTR $T142132[ebp], eax
	lea	ecx, DWORD PTR $T142132[ebp]
	push	ecx
	mov	ecx, DWORD PTR _this$[ebp]
	add	ecx, 16					; 00000010H
	call	?push_back@?$list@PAV?$Goal@VAbstRaven_Bot@@@@V?$allocator@PAV?$Goal@VAbstRaven_Bot@@@@@std@@@std@@QAEX$$QAPAV?$Goal@VAbstRaven_Bot@@@@@Z ; std::list<Goal<AbstRaven_Bot> *,std::allocator<Goal<AbstRaven_Bot> *> >::push_back

; 174  : }

	mov	ecx, DWORD PTR __$EHRec$[ebp]
	mov	DWORD PTR fs:0, ecx
	pop	ecx
	add	esp, 32					; 00000020H
	cmp	ebp, esp
	call	__RTC_CheckEsp
	mov	esp, ebp
	pop	ebp
	ret	16					; 00000010H
_TEXT	ENDS
text$x	SEGMENT
__unwindfunclet$?QueueGoal_MoveToPosition@Goal_Think@@UAEXUVector2D@@@Z$0:
	mov	eax, DWORD PTR $T142134[ebp]
	push	eax
	call	??3@YAXPAX@Z				; operator delete
	pop	ecx
	ret	0
__ehhandler$?QueueGoal_MoveToPosition@Goal_Think@@UAEXUVector2D@@@Z:
	mov	edx, DWORD PTR [esp+8]
	lea	eax, DWORD PTR [edx+12]
	mov	ecx, DWORD PTR [edx-24]
	xor	ecx, eax
	call	@__security_check_cookie@4
	mov	eax, OFFSET __ehfuncinfo$?QueueGoal_MoveToPosition@Goal_Think@@UAEXUVector2D@@@Z
	jmp	___CxxFrameHandler3
text$x	ENDS
?QueueGoal_MoveToPosition@Goal_Think@@UAEXUVector2D@@@Z ENDP ; Goal_Think::QueueGoal_MoveToPosition
PUBLIC	??0Vector2D@@QAE@NN@Z				; Vector2D::Vector2D
PUBLIC	??D?$_Vector_const_iterator@V?$_Vector_val@PAVGoal_Evaluator@@V?$allocator@PAVGoal_Evaluator@@@std@@@std@@@std@@QBEABQAVGoal_Evaluator@@XZ ; std::_Vector_const_iterator<std::_Vector_val<Goal_Evaluator *,std::allocator<Goal_Evaluator *> > >::operator*
PUBLIC	?end@?$vector@PAVGoal_Evaluator@@V?$allocator@PAVGoal_Evaluator@@@std@@@std@@QBE?AV?$_Vector_const_iterator@V?$_Vector_val@PAVGoal_Evaluator@@V?$allocator@PAVGoal_Evaluator@@@std@@@std@@@2@XZ ; std::vector<Goal_Evaluator *,std::allocator<Goal_Evaluator *> >::end
PUBLIC	??E?$_Vector_const_iterator@V?$_Vector_val@PAVGoal_Evaluator@@V?$allocator@PAVGoal_Evaluator@@@std@@@std@@@std@@QAEAAV01@XZ ; std::_Vector_const_iterator<std::_Vector_val<Goal_Evaluator *,std::allocator<Goal_Evaluator *> > >::operator++
PUBLIC	?begin@?$vector@PAVGoal_Evaluator@@V?$allocator@PAVGoal_Evaluator@@@std@@@std@@QBE?AV?$_Vector_const_iterator@V?$_Vector_val@PAVGoal_Evaluator@@V?$allocator@PAVGoal_Evaluator@@@std@@@std@@@2@XZ ; std::vector<Goal_Evaluator *,std::allocator<Goal_Evaluator *> >::begin
PUBLIC	?TextColor@Cgdi@@QAEXH@Z			; Cgdi::TextColor
PUBLIC	?RenderEvaluations@Goal_Think@@QBEXHH@Z		; Goal_Think::RenderEvaluations
EXTRN	?Instance@Cgdi@@SAPAV1@XZ:PROC			; Cgdi::Instance
xdata$x	SEGMENT
__unwindtable$?RenderEvaluations@Goal_Think@@QBEXHH@Z DD 0ffffffffH
	DD	FLAT:__unwindfunclet$?RenderEvaluations@Goal_Think@@QBEXHH@Z$0
	DD	00H
	DD	FLAT:__unwindfunclet$?RenderEvaluations@Goal_Think@@QBEXHH@Z$1
__ehfuncinfo$?RenderEvaluations@Goal_Think@@QBEXHH@Z DD 019930522H
	DD	02H
	DD	FLAT:__unwindtable$?RenderEvaluations@Goal_Think@@QBEXHH@Z
	DD	2 DUP(00H)
	DD	2 DUP(00H)
	DD	00H
	DD	01H
; Function compile flags: /Odtp /RTCsu
xdata$x	ENDS
_TEXT	SEGMENT
tv88 = -80						; size = 4
tv139 = -76						; size = 4
tv69 = -72						; size = 4
$T142145 = -68						; size = 16
$T142144 = -52						; size = 12
$T142143 = -37						; size = 1
_curDes$ = -32						; size = 12
_this$ = -16						; size = 4
__$EHRec$ = -12						; size = 12
_left$ = 8						; size = 4
_top$ = 12						; size = 4
?RenderEvaluations@Goal_Think@@QBEXHH@Z PROC		; Goal_Think::RenderEvaluations
; _this$ = ecx

; 181  : {

	push	ebp
	mov	ebp, esp
	push	-1
	push	__ehhandler$?RenderEvaluations@Goal_Think@@QBEXHH@Z
	mov	eax, DWORD PTR fs:0
	push	eax
	sub	esp, 68					; 00000044H
	push	esi
	push	edi
	push	ecx
	lea	edi, DWORD PTR [ebp-80]
	mov	ecx, 17					; 00000011H
	mov	eax, -858993460				; ccccccccH
	rep stosd
	pop	ecx
	mov	eax, DWORD PTR ___security_cookie
	xor	eax, ebp
	push	eax
	lea	eax, DWORD PTR __$EHRec$[ebp]
	mov	DWORD PTR fs:0, eax
	mov	DWORD PTR _this$[ebp], ecx

; 182  :   gdi->TextColor(Cgdi::black);

	push	3
	call	?Instance@Cgdi@@SAPAV1@XZ		; Cgdi::Instance
	mov	ecx, eax
	call	?TextColor@Cgdi@@QAEXH@Z		; Cgdi::TextColor

; 183  :   
; 184  :   std::vector<Goal_Evaluator*>::const_iterator curDes = m_Evaluators.begin();

	lea	eax, DWORD PTR _curDes$[ebp]
	push	eax
	mov	ecx, DWORD PTR _this$[ebp]
	add	ecx, 32					; 00000020H
	call	?begin@?$vector@PAVGoal_Evaluator@@V?$allocator@PAVGoal_Evaluator@@@std@@@std@@QBE?AV?$_Vector_const_iterator@V?$_Vector_val@PAVGoal_Evaluator@@V?$allocator@PAVGoal_Evaluator@@@std@@@std@@@2@XZ ; std::vector<Goal_Evaluator *,std::allocator<Goal_Evaluator *> >::begin
	mov	DWORD PTR __$EHRec$[ebp+8], 0
	jmp	SHORT $LN3@RenderEval
$LN2@RenderEval:

; 185  :   for (curDes; curDes != m_Evaluators.end(); ++curDes)

	lea	ecx, DWORD PTR _curDes$[ebp]
	call	??E?$_Vector_const_iterator@V?$_Vector_val@PAVGoal_Evaluator@@V?$allocator@PAVGoal_Evaluator@@@std@@@std@@@std@@QAEAAV01@XZ ; std::_Vector_const_iterator<std::_Vector_val<Goal_Evaluator *,std::allocator<Goal_Evaluator *> > >::operator++
$LN3@RenderEval:
	lea	ecx, DWORD PTR $T142144[ebp]
	push	ecx
	mov	ecx, DWORD PTR _this$[ebp]
	add	ecx, 32					; 00000020H
	call	?end@?$vector@PAVGoal_Evaluator@@V?$allocator@PAVGoal_Evaluator@@@std@@@std@@QBE?AV?$_Vector_const_iterator@V?$_Vector_val@PAVGoal_Evaluator@@V?$allocator@PAVGoal_Evaluator@@@std@@@std@@@2@XZ ; std::vector<Goal_Evaluator *,std::allocator<Goal_Evaluator *> >::end
	mov	DWORD PTR tv69[ebp], eax
	mov	edx, DWORD PTR tv69[ebp]
	mov	DWORD PTR tv139[ebp], edx
	mov	BYTE PTR __$EHRec$[ebp+8], 1
	mov	eax, DWORD PTR tv139[ebp]
	push	eax
	lea	ecx, DWORD PTR _curDes$[ebp]
	call	??9?$_Vector_const_iterator@V?$_Vector_val@PAVGoal_Evaluator@@V?$allocator@PAVGoal_Evaluator@@@std@@@std@@@std@@QBE_NABV01@@Z ; std::_Vector_const_iterator<std::_Vector_val<Goal_Evaluator *,std::allocator<Goal_Evaluator *> > >::operator!=
	mov	BYTE PTR $T142143[ebp], al
	mov	BYTE PTR __$EHRec$[ebp+8], 0
	lea	ecx, DWORD PTR $T142144[ebp]
	call	??1?$_Vector_const_iterator@V?$_Vector_val@PAVGoal_Evaluator@@V?$allocator@PAVGoal_Evaluator@@@std@@@std@@@std@@QAE@XZ
	movzx	ecx, BYTE PTR $T142143[ebp]
	test	ecx, ecx
	je	SHORT $LN1@RenderEval

; 186  :   {
; 187  :     (*curDes)->RenderInfo(Vector2D(left, top), m_pOwner);

	lea	ecx, DWORD PTR _curDes$[ebp]
	call	??D?$_Vector_const_iterator@V?$_Vector_val@PAVGoal_Evaluator@@V?$allocator@PAVGoal_Evaluator@@@std@@@std@@@std@@QBEABQAVGoal_Evaluator@@XZ ; std::_Vector_const_iterator<std::_Vector_val<Goal_Evaluator *,std::allocator<Goal_Evaluator *> > >::operator*
	mov	edx, DWORD PTR [eax]
	mov	DWORD PTR tv88[ebp], edx
	mov	esi, esp
	mov	eax, DWORD PTR _this$[ebp]
	mov	ecx, DWORD PTR [eax+8]
	push	ecx
	fild	DWORD PTR _top$[ebp]
	sub	esp, 8
	fstp	QWORD PTR [esp]
	fild	DWORD PTR _left$[ebp]
	sub	esp, 8
	fstp	QWORD PTR [esp]
	lea	ecx, DWORD PTR $T142145[ebp]
	call	??0Vector2D@@QAE@NN@Z			; Vector2D::Vector2D
	sub	esp, 16					; 00000010H
	mov	edx, esp
	mov	ecx, DWORD PTR [eax]
	mov	DWORD PTR [edx], ecx
	mov	ecx, DWORD PTR [eax+4]
	mov	DWORD PTR [edx+4], ecx
	mov	ecx, DWORD PTR [eax+8]
	mov	DWORD PTR [edx+8], ecx
	mov	eax, DWORD PTR [eax+12]
	mov	DWORD PTR [edx+12], eax
	mov	ecx, DWORD PTR tv88[ebp]
	mov	edx, DWORD PTR [ecx]
	mov	ecx, DWORD PTR tv88[ebp]
	mov	eax, DWORD PTR [edx+12]
	call	eax
	cmp	esi, esp
	call	__RTC_CheckEsp

; 188  : 
; 189  :     left += 75;

	mov	ecx, DWORD PTR _left$[ebp]
	add	ecx, 75					; 0000004bH
	mov	DWORD PTR _left$[ebp], ecx

; 190  :   }

	jmp	$LN2@RenderEval
$LN1@RenderEval:

; 191  : }

	mov	DWORD PTR __$EHRec$[ebp+8], -1
	lea	ecx, DWORD PTR _curDes$[ebp]
	call	??1?$_Vector_const_iterator@V?$_Vector_val@PAVGoal_Evaluator@@V?$allocator@PAVGoal_Evaluator@@@std@@@std@@@std@@QAE@XZ
	push	edx
	mov	ecx, ebp
	push	eax
	lea	edx, DWORD PTR $LN11@RenderEval
	call	@_RTC_CheckStackVars@8
	pop	eax
	pop	edx
	mov	ecx, DWORD PTR __$EHRec$[ebp]
	mov	DWORD PTR fs:0, ecx
	pop	ecx
	pop	edi
	pop	esi
	add	esp, 80					; 00000050H
	cmp	ebp, esp
	call	__RTC_CheckEsp
	mov	esp, ebp
	pop	ebp
	ret	8
	npad	2
$LN11@RenderEval:
	DD	1
	DD	$LN10@RenderEval
$LN10@RenderEval:
	DD	-32					; ffffffe0H
	DD	12					; 0000000cH
	DD	$LN8@RenderEval
$LN8@RenderEval:
	DB	99					; 00000063H
	DB	117					; 00000075H
	DB	114					; 00000072H
	DB	68					; 00000044H
	DB	101					; 00000065H
	DB	115					; 00000073H
	DB	0
_TEXT	ENDS
text$x	SEGMENT
__unwindfunclet$?RenderEvaluations@Goal_Think@@QBEXHH@Z$0:
	lea	ecx, DWORD PTR _curDes$[ebp]
	jmp	??1?$_Vector_const_iterator@V?$_Vector_val@PAVGoal_Evaluator@@V?$allocator@PAVGoal_Evaluator@@@std@@@std@@@std@@QAE@XZ
__unwindfunclet$?RenderEvaluations@Goal_Think@@QBEXHH@Z$1:
	lea	ecx, DWORD PTR $T142144[ebp]
	jmp	??1?$_Vector_const_iterator@V?$_Vector_val@PAVGoal_Evaluator@@V?$allocator@PAVGoal_Evaluator@@@std@@@std@@@std@@QAE@XZ
__ehhandler$?RenderEvaluations@Goal_Think@@QBEXHH@Z:
	mov	edx, DWORD PTR [esp+8]
	lea	eax, DWORD PTR [edx+12]
	mov	ecx, DWORD PTR [edx-80]
	xor	ecx, eax
	call	@__security_check_cookie@4
	mov	eax, OFFSET __ehfuncinfo$?RenderEvaluations@Goal_Think@@QBEXHH@Z
	jmp	___CxxFrameHandler3
text$x	ENDS
?RenderEvaluations@Goal_Think@@QBEXHH@Z ENDP		; Goal_Think::RenderEvaluations
; Function compile flags: /Odtp /RTCsu
; File c:\users\teaja\documents\artificial-fun\labravenprojecttest\common\2d\vector2d.h
;	COMDAT ??0Vector2D@@QAE@NN@Z
_TEXT	SEGMENT
_this$ = -4						; size = 4
_a$ = 8							; size = 8
_b$ = 16						; size = 8
??0Vector2D@@QAE@NN@Z PROC				; Vector2D::Vector2D, COMDAT
; _this$ = ecx

; 25   :   Vector2D(double a, double b):x(a),y(b){}

	push	ebp
	mov	ebp, esp
	push	ecx
	mov	DWORD PTR [ebp-4], -858993460		; ccccccccH
	mov	DWORD PTR _this$[ebp], ecx
	mov	eax, DWORD PTR _this$[ebp]
	fld	QWORD PTR _a$[ebp]
	fstp	QWORD PTR [eax]
	mov	ecx, DWORD PTR _this$[ebp]
	fld	QWORD PTR _b$[ebp]
	fstp	QWORD PTR [ecx+8]
	mov	eax, DWORD PTR _this$[ebp]
	mov	esp, ebp
	pop	ebp
	ret	16					; 00000010H
??0Vector2D@@QAE@NN@Z ENDP				; Vector2D::Vector2D
_TEXT	ENDS
PUBLIC	??_C@_1CE@HKBOKGMG@?$AAc?$AAo?$AAl?$AAo?$AAr?$AA?5?$AA?$DM?$AA?5?$AAN?$AAu?$AAm?$AAC?$AAo?$AAl?$AAo?$AAr?$AAs?$AA?$AA@ ; `string'
PUBLIC	??_C@_1JO@HJMKJFAD@?$AAC?$AA?3?$AA?2?$AAU?$AAs?$AAe?$AAr?$AAs?$AA?2?$AAT?$AAe?$AAa?$AAj?$AAa?$AA?2?$AAD?$AAo?$AAc?$AAu?$AAm?$AAe?$AAn?$AAt?$AAs?$AA?2?$AAA?$AAr?$AAt?$AAi?$AAf?$AAi?$AAc@ ; `string'
EXTRN	__imp__SetTextColor@8:PROC
;	COMDAT ??_C@_1CE@HKBOKGMG@?$AAc?$AAo?$AAl?$AAo?$AAr?$AA?5?$AA?$DM?$AA?5?$AAN?$AAu?$AAm?$AAC?$AAo?$AAl?$AAo?$AAr?$AAs?$AA?$AA@
; File c:\users\teaja\documents\artificial-fun\labravenprojecttest\common\misc\cgdi.h
CONST	SEGMENT
??_C@_1CE@HKBOKGMG@?$AAc?$AAo?$AAl?$AAo?$AAr?$AA?5?$AA?$DM?$AA?5?$AAN?$AAu?$AAm?$AAC?$AAo?$AAl?$AAo?$AAr?$AAs?$AA?$AA@ DB 'c'
	DB	00H, 'o', 00H, 'l', 00H, 'o', 00H, 'r', 00H, ' ', 00H, '<', 00H
	DB	' ', 00H, 'N', 00H, 'u', 00H, 'm', 00H, 'C', 00H, 'o', 00H, 'l'
	DB	00H, 'o', 00H, 'r', 00H, 's', 00H, 00H, 00H	; `string'
CONST	ENDS
;	COMDAT ??_C@_1JO@HJMKJFAD@?$AAC?$AA?3?$AA?2?$AAU?$AAs?$AAe?$AAr?$AAs?$AA?2?$AAT?$AAe?$AAa?$AAj?$AAa?$AA?2?$AAD?$AAo?$AAc?$AAu?$AAm?$AAe?$AAn?$AAt?$AAs?$AA?2?$AAA?$AAr?$AAt?$AAi?$AAf?$AAi?$AAc@
CONST	SEGMENT
??_C@_1JO@HJMKJFAD@?$AAC?$AA?3?$AA?2?$AAU?$AAs?$AAe?$AAr?$AAs?$AA?2?$AAT?$AAe?$AAa?$AAj?$AAa?$AA?2?$AAD?$AAo?$AAc?$AAu?$AAm?$AAe?$AAn?$AAt?$AAs?$AA?2?$AAA?$AAr?$AAt?$AAi?$AAf?$AAi?$AAc@ DB 'C'
	DB	00H, ':', 00H, '\', 00H, 'U', 00H, 's', 00H, 'e', 00H, 'r', 00H
	DB	's', 00H, '\', 00H, 'T', 00H, 'e', 00H, 'a', 00H, 'j', 00H, 'a'
	DB	00H, '\', 00H, 'D', 00H, 'o', 00H, 'c', 00H, 'u', 00H, 'm', 00H
	DB	'e', 00H, 'n', 00H, 't', 00H, 's', 00H, '\', 00H, 'A', 00H, 'r'
	DB	00H, 't', 00H, 'i', 00H, 'f', 00H, 'i', 00H, 'c', 00H, 'i', 00H
	DB	'a', 00H, 'l', 00H, '-', 00H, 'F', 00H, 'u', 00H, 'n', 00H, '\'
	DB	00H, 'L', 00H, 'a', 00H, 'b', 00H, 'R', 00H, 'a', 00H, 'v', 00H
	DB	'e', 00H, 'n', 00H, 'P', 00H, 'r', 00H, 'o', 00H, 'j', 00H, 'e'
	DB	00H, 'c', 00H, 't', 00H, 'T', 00H, 'e', 00H, 's', 00H, 't', 00H
	DB	'\', 00H, 'C', 00H, 'o', 00H, 'm', 00H, 'm', 00H, 'o', 00H, 'n'
	DB	00H, '\', 00H, 'm', 00H, 'i', 00H, 's', 00H, 'c', 00H, '/', 00H
	DB	'c', 00H, 'g', 00H, 'd', 00H, 'i', 00H, '.', 00H, 'h', 00H, 00H
	DB	00H						; `string'
; Function compile flags: /Odtp /RTCsu
CONST	ENDS
;	COMDAT ?TextColor@Cgdi@@QAEXH@Z
_TEXT	SEGMENT
_this$ = -4						; size = 4
_color$ = 8						; size = 4
?TextColor@Cgdi@@QAEXH@Z PROC				; Cgdi::TextColor, COMDAT
; _this$ = ecx

; 226  :   void TextColor(int color){assert(color < NumColors); SetTextColor(m_hdc, colors[color]);}

	push	ebp
	mov	ebp, esp
	push	ecx
	push	esi
	mov	DWORD PTR [ebp-4], -858993460		; ccccccccH
	mov	DWORD PTR _this$[ebp], ecx
	cmp	DWORD PTR _color$[ebp], 15		; 0000000fH
	jl	SHORT $LN3@TextColor
	push	226					; 000000e2H
	push	OFFSET ??_C@_1JO@HJMKJFAD@?$AAC?$AA?3?$AA?2?$AAU?$AAs?$AAe?$AAr?$AAs?$AA?2?$AAT?$AAe?$AAa?$AAj?$AAa?$AA?2?$AAD?$AAo?$AAc?$AAu?$AAm?$AAe?$AAn?$AAt?$AAs?$AA?2?$AAA?$AAr?$AAt?$AAi?$AAf?$AAi?$AAc@
	push	OFFSET ??_C@_1CE@HKBOKGMG@?$AAc?$AAo?$AAl?$AAo?$AAr?$AA?5?$AA?$DM?$AA?5?$AAN?$AAu?$AAm?$AAC?$AAo?$AAl?$AAo?$AAr?$AAs?$AA?$AA@
	call	__wassert
	add	esp, 12					; 0000000cH
$LN3@TextColor:
	mov	esi, esp
	mov	ecx, DWORD PTR _color$[ebp]
	mov	edx, DWORD PTR _colors[ecx*4]
	push	edx
	mov	eax, DWORD PTR _this$[ebp]
	mov	ecx, DWORD PTR [eax+124]
	push	ecx
	call	DWORD PTR __imp__SetTextColor@8
	cmp	esi, esp
	call	__RTC_CheckEsp
	pop	esi
	add	esp, 4
	cmp	ebp, esp
	call	__RTC_CheckEsp
	mov	esp, ebp
	pop	ebp
	ret	4
?TextColor@Cgdi@@QAEXH@Z ENDP				; Cgdi::TextColor
_TEXT	ENDS
PUBLIC	??D?$_List_iterator@V?$_List_val@PAV?$Goal@VAbstRaven_Bot@@@@V?$allocator@PAV?$Goal@VAbstRaven_Bot@@@@@std@@@std@@@std@@QBEAAPAV?$Goal@VAbstRaven_Bot@@@@XZ ; std::_List_iterator<std::_List_val<Goal<AbstRaven_Bot> *,std::allocator<Goal<AbstRaven_Bot> *> > >::operator*
PUBLIC	??9?$_List_const_iterator@V?$_List_val@PAV?$Goal@VAbstRaven_Bot@@@@V?$allocator@PAV?$Goal@VAbstRaven_Bot@@@@@std@@@std@@@std@@QBE_NABV01@@Z ; std::_List_const_iterator<std::_List_val<Goal<AbstRaven_Bot> *,std::allocator<Goal<AbstRaven_Bot> *> > >::operator!=
PUBLIC	?end@?$list@PAV?$Goal@VAbstRaven_Bot@@@@V?$allocator@PAV?$Goal@VAbstRaven_Bot@@@@@std@@@std@@QAE?AV?$_List_iterator@V?$_List_val@PAV?$Goal@VAbstRaven_Bot@@@@V?$allocator@PAV?$Goal@VAbstRaven_Bot@@@@@std@@@std@@@2@XZ ; std::list<Goal<AbstRaven_Bot> *,std::allocator<Goal<AbstRaven_Bot> *> >::end
PUBLIC	??E?$_List_iterator@V?$_List_val@PAV?$Goal@VAbstRaven_Bot@@@@V?$allocator@PAV?$Goal@VAbstRaven_Bot@@@@@std@@@std@@@std@@QAEAAV01@XZ ; std::_List_iterator<std::_List_val<Goal<AbstRaven_Bot> *,std::allocator<Goal<AbstRaven_Bot> *> > >::operator++
PUBLIC	??1?$_List_iterator@V?$_List_val@PAV?$Goal@VAbstRaven_Bot@@@@V?$allocator@PAV?$Goal@VAbstRaven_Bot@@@@@std@@@std@@@std@@QAE@XZ ; std::_List_iterator<std::_List_val<Goal<AbstRaven_Bot> *,std::allocator<Goal<AbstRaven_Bot> *> > >::~_List_iterator<std::_List_val<Goal<AbstRaven_Bot> *,std::allocator<Goal<AbstRaven_Bot> *> > >
PUBLIC	??4?$_List_iterator@V?$_List_val@PAV?$Goal@VAbstRaven_Bot@@@@V?$allocator@PAV?$Goal@VAbstRaven_Bot@@@@@std@@@std@@@std@@QAEAAV01@ABV01@@Z ; std::_List_iterator<std::_List_val<Goal<AbstRaven_Bot> *,std::allocator<Goal<AbstRaven_Bot> *> > >::operator=
PUBLIC	?begin@?$list@PAV?$Goal@VAbstRaven_Bot@@@@V?$allocator@PAV?$Goal@VAbstRaven_Bot@@@@@std@@@std@@QAE?AV?$_List_iterator@V?$_List_val@PAV?$Goal@VAbstRaven_Bot@@@@V?$allocator@PAV?$Goal@VAbstRaven_Bot@@@@@std@@@std@@@2@XZ ; std::list<Goal<AbstRaven_Bot> *,std::allocator<Goal<AbstRaven_Bot> *> >::begin
PUBLIC	??0?$_List_iterator@V?$_List_val@PAV?$Goal@VAbstRaven_Bot@@@@V?$allocator@PAV?$Goal@VAbstRaven_Bot@@@@@std@@@std@@@std@@QAE@XZ ; std::_List_iterator<std::_List_val<Goal<AbstRaven_Bot> *,std::allocator<Goal<AbstRaven_Bot> *> > >::_List_iterator<std::_List_val<Goal<AbstRaven_Bot> *,std::allocator<Goal<AbstRaven_Bot> *> > >
xdata$x	SEGMENT
__unwindtable$?Render@Goal_Think@@UAEXXZ DD 0ffffffffH
	DD	FLAT:__unwindfunclet$?Render@Goal_Think@@UAEXXZ$0
	DD	00H
	DD	FLAT:__unwindfunclet$?Render@Goal_Think@@UAEXXZ$1
	DD	00H
	DD	FLAT:__unwindfunclet$?Render@Goal_Think@@UAEXXZ$2
__ehfuncinfo$?Render@Goal_Think@@UAEXXZ DD 019930522H
	DD	03H
	DD	FLAT:__unwindtable$?Render@Goal_Think@@UAEXXZ
	DD	2 DUP(00H)
	DD	2 DUP(00H)
	DD	00H
	DD	01H
; Function compile flags: /Odtp /RTCsu
; File c:\users\teaja\documents\artificial-fun\labravenprojecttest\raven\goals\goal_think.cpp
xdata$x	ENDS
_TEXT	SEGMENT
tv139 = -84						; size = 4
tv146 = -80						; size = 4
tv147 = -76						; size = 4
tv144 = -72						; size = 4
tv65 = -68						; size = 4
$T142163 = -64						; size = 12
$T142162 = -49						; size = 1
$T142161 = -48						; size = 12
_curG$ = -32						; size = 12
_this$ = -16						; size = 4
__$EHRec$ = -12						; size = 12
?Render@Goal_Think@@UAEXXZ PROC				; Goal_Think::Render
; _this$ = ecx

; 194  : {

	push	ebp
	mov	ebp, esp
	push	-1
	push	__ehhandler$?Render@Goal_Think@@UAEXXZ
	mov	eax, DWORD PTR fs:0
	push	eax
	sub	esp, 72					; 00000048H
	push	esi
	push	edi
	push	ecx
	lea	edi, DWORD PTR [ebp-84]
	mov	ecx, 18					; 00000012H
	mov	eax, -858993460				; ccccccccH
	rep stosd
	pop	ecx
	mov	eax, DWORD PTR ___security_cookie
	xor	eax, ebp
	push	eax
	lea	eax, DWORD PTR __$EHRec$[ebp]
	mov	DWORD PTR fs:0, eax
	mov	DWORD PTR _this$[ebp], ecx

; 195  :   std::list<Goal<AbstRaven_Bot>*>::iterator curG;

	lea	ecx, DWORD PTR _curG$[ebp]
	call	??0?$_List_iterator@V?$_List_val@PAV?$Goal@VAbstRaven_Bot@@@@V?$allocator@PAV?$Goal@VAbstRaven_Bot@@@@@std@@@std@@@std@@QAE@XZ ; std::_List_iterator<std::_List_val<Goal<AbstRaven_Bot> *,std::allocator<Goal<AbstRaven_Bot> *> > >::_List_iterator<std::_List_val<Goal<AbstRaven_Bot> *,std::allocator<Goal<AbstRaven_Bot> *> > >
	mov	DWORD PTR __$EHRec$[ebp+8], 0

; 196  :   for (curG=m_SubGoals.begin(); curG != m_SubGoals.end(); ++curG)

	lea	eax, DWORD PTR $T142161[ebp]
	push	eax
	mov	ecx, DWORD PTR _this$[ebp]
	add	ecx, 16					; 00000010H
	call	?begin@?$list@PAV?$Goal@VAbstRaven_Bot@@@@V?$allocator@PAV?$Goal@VAbstRaven_Bot@@@@@std@@@std@@QAE?AV?$_List_iterator@V?$_List_val@PAV?$Goal@VAbstRaven_Bot@@@@V?$allocator@PAV?$Goal@VAbstRaven_Bot@@@@@std@@@std@@@2@XZ ; std::list<Goal<AbstRaven_Bot> *,std::allocator<Goal<AbstRaven_Bot> *> >::begin
	mov	DWORD PTR tv65[ebp], eax
	mov	ecx, DWORD PTR tv65[ebp]
	mov	DWORD PTR tv144[ebp], ecx
	mov	BYTE PTR __$EHRec$[ebp+8], 1
	mov	edx, DWORD PTR tv144[ebp]
	push	edx
	lea	ecx, DWORD PTR _curG$[ebp]
	call	??4?$_List_iterator@V?$_List_val@PAV?$Goal@VAbstRaven_Bot@@@@V?$allocator@PAV?$Goal@VAbstRaven_Bot@@@@@std@@@std@@@std@@QAEAAV01@ABV01@@Z
	mov	BYTE PTR __$EHRec$[ebp+8], 0
	lea	ecx, DWORD PTR $T142161[ebp]
	call	??1?$_List_iterator@V?$_List_val@PAV?$Goal@VAbstRaven_Bot@@@@V?$allocator@PAV?$Goal@VAbstRaven_Bot@@@@@std@@@std@@@std@@QAE@XZ
	jmp	SHORT $LN3@Render
$LN2@Render:
	lea	ecx, DWORD PTR _curG$[ebp]
	call	??E?$_List_iterator@V?$_List_val@PAV?$Goal@VAbstRaven_Bot@@@@V?$allocator@PAV?$Goal@VAbstRaven_Bot@@@@@std@@@std@@@std@@QAEAAV01@XZ ; std::_List_iterator<std::_List_val<Goal<AbstRaven_Bot> *,std::allocator<Goal<AbstRaven_Bot> *> > >::operator++
$LN3@Render:
	lea	eax, DWORD PTR $T142163[ebp]
	push	eax
	mov	ecx, DWORD PTR _this$[ebp]
	add	ecx, 16					; 00000010H
	call	?end@?$list@PAV?$Goal@VAbstRaven_Bot@@@@V?$allocator@PAV?$Goal@VAbstRaven_Bot@@@@@std@@@std@@QAE?AV?$_List_iterator@V?$_List_val@PAV?$Goal@VAbstRaven_Bot@@@@V?$allocator@PAV?$Goal@VAbstRaven_Bot@@@@@std@@@std@@@2@XZ ; std::list<Goal<AbstRaven_Bot> *,std::allocator<Goal<AbstRaven_Bot> *> >::end
	mov	DWORD PTR tv147[ebp], eax
	mov	ecx, DWORD PTR tv147[ebp]
	mov	DWORD PTR tv146[ebp], ecx
	mov	BYTE PTR __$EHRec$[ebp+8], 2
	mov	edx, DWORD PTR tv146[ebp]
	push	edx
	lea	ecx, DWORD PTR _curG$[ebp]
	call	??9?$_List_const_iterator@V?$_List_val@PAV?$Goal@VAbstRaven_Bot@@@@V?$allocator@PAV?$Goal@VAbstRaven_Bot@@@@@std@@@std@@@std@@QBE_NABV01@@Z ; std::_List_const_iterator<std::_List_val<Goal<AbstRaven_Bot> *,std::allocator<Goal<AbstRaven_Bot> *> > >::operator!=
	mov	BYTE PTR $T142162[ebp], al
	mov	BYTE PTR __$EHRec$[ebp+8], 0
	lea	ecx, DWORD PTR $T142163[ebp]
	call	??1?$_List_iterator@V?$_List_val@PAV?$Goal@VAbstRaven_Bot@@@@V?$allocator@PAV?$Goal@VAbstRaven_Bot@@@@@std@@@std@@@std@@QAE@XZ
	movzx	eax, BYTE PTR $T142162[ebp]
	test	eax, eax
	je	SHORT $LN1@Render

; 197  :   {
; 198  :     (*curG)->Render();

	lea	ecx, DWORD PTR _curG$[ebp]
	call	??D?$_List_iterator@V?$_List_val@PAV?$Goal@VAbstRaven_Bot@@@@V?$allocator@PAV?$Goal@VAbstRaven_Bot@@@@@std@@@std@@@std@@QBEAAPAV?$Goal@VAbstRaven_Bot@@@@XZ ; std::_List_iterator<std::_List_val<Goal<AbstRaven_Bot> *,std::allocator<Goal<AbstRaven_Bot> *> > >::operator*
	mov	ecx, DWORD PTR [eax]
	mov	DWORD PTR tv139[ebp], ecx
	mov	edx, DWORD PTR tv139[ebp]
	mov	eax, DWORD PTR [edx]
	mov	esi, esp
	mov	ecx, DWORD PTR tv139[ebp]
	mov	edx, DWORD PTR [eax+28]
	call	edx
	cmp	esi, esp
	call	__RTC_CheckEsp

; 199  :   }

	jmp	SHORT $LN2@Render
$LN1@Render:

; 200  : }

	mov	DWORD PTR __$EHRec$[ebp+8], -1
	lea	ecx, DWORD PTR _curG$[ebp]
	call	??1?$_List_iterator@V?$_List_val@PAV?$Goal@VAbstRaven_Bot@@@@V?$allocator@PAV?$Goal@VAbstRaven_Bot@@@@@std@@@std@@@std@@QAE@XZ
	push	edx
	mov	ecx, ebp
	push	eax
	lea	edx, DWORD PTR $LN12@Render
	call	@_RTC_CheckStackVars@8
	pop	eax
	pop	edx
	mov	ecx, DWORD PTR __$EHRec$[ebp]
	mov	DWORD PTR fs:0, ecx
	pop	ecx
	pop	edi
	pop	esi
	add	esp, 84					; 00000054H
	cmp	ebp, esp
	call	__RTC_CheckEsp
	mov	esp, ebp
	pop	ebp
	ret	0
	npad	1
$LN12@Render:
	DD	1
	DD	$LN11@Render
$LN11@Render:
	DD	-32					; ffffffe0H
	DD	12					; 0000000cH
	DD	$LN9@Render
$LN9@Render:
	DB	99					; 00000063H
	DB	117					; 00000075H
	DB	114					; 00000072H
	DB	71					; 00000047H
	DB	0
_TEXT	ENDS
text$x	SEGMENT
__unwindfunclet$?Render@Goal_Think@@UAEXXZ$0:
	lea	ecx, DWORD PTR _curG$[ebp]
	jmp	??1?$_List_iterator@V?$_List_val@PAV?$Goal@VAbstRaven_Bot@@@@V?$allocator@PAV?$Goal@VAbstRaven_Bot@@@@@std@@@std@@@std@@QAE@XZ
__unwindfunclet$?Render@Goal_Think@@UAEXXZ$1:
	lea	ecx, DWORD PTR $T142161[ebp]
	jmp	??1?$_List_iterator@V?$_List_val@PAV?$Goal@VAbstRaven_Bot@@@@V?$allocator@PAV?$Goal@VAbstRaven_Bot@@@@@std@@@std@@@std@@QAE@XZ
__unwindfunclet$?Render@Goal_Think@@UAEXXZ$2:
	lea	ecx, DWORD PTR $T142163[ebp]
	jmp	??1?$_List_iterator@V?$_List_val@PAV?$Goal@VAbstRaven_Bot@@@@V?$allocator@PAV?$Goal@VAbstRaven_Bot@@@@@std@@@std@@@std@@QAE@XZ
__ehhandler$?Render@Goal_Think@@UAEXXZ:
	mov	edx, DWORD PTR [esp+8]
	lea	eax, DWORD PTR [edx+12]
	mov	ecx, DWORD PTR [edx-84]
	xor	ecx, eax
	call	@__security_check_cookie@4
	mov	eax, OFFSET __ehfuncinfo$?Render@Goal_Think@@UAEXXZ
	jmp	___CxxFrameHandler3
text$x	ENDS
?Render@Goal_Think@@UAEXXZ ENDP				; Goal_Think::Render
PUBLIC	??1?$_List_const_iterator@V?$_List_val@PAV?$Goal@VAbstRaven_Bot@@@@V?$allocator@PAV?$Goal@VAbstRaven_Bot@@@@@std@@@std@@@std@@QAE@XZ ; std::_List_const_iterator<std::_List_val<Goal<AbstRaven_Bot> *,std::allocator<Goal<AbstRaven_Bot> *> > >::~_List_const_iterator<std::_List_val<Goal<AbstRaven_Bot> *,std::allocator<Goal<AbstRaven_Bot> *> > >
; Function compile flags: /Odtp /RTCsu
;	COMDAT ??1?$_List_iterator@V?$_List_val@PAV?$Goal@VAbstRaven_Bot@@@@V?$allocator@PAV?$Goal@VAbstRaven_Bot@@@@@std@@@std@@@std@@QAE@XZ
_TEXT	SEGMENT
_this$ = -4						; size = 4
??1?$_List_iterator@V?$_List_val@PAV?$Goal@VAbstRaven_Bot@@@@V?$allocator@PAV?$Goal@VAbstRaven_Bot@@@@@std@@@std@@@std@@QAE@XZ PROC ; std::_List_iterator<std::_List_val<Goal<AbstRaven_Bot> *,std::allocator<Goal<AbstRaven_Bot> *> > >::~_List_iterator<std::_List_val<Goal<AbstRaven_Bot> *,std::allocator<Goal<AbstRaven_Bot> *> > >, COMDAT
; _this$ = ecx
	push	ebp
	mov	ebp, esp
	push	ecx
	mov	DWORD PTR [ebp-4], -858993460		; ccccccccH
	mov	DWORD PTR _this$[ebp], ecx
	mov	ecx, DWORD PTR _this$[ebp]
	call	??1?$_List_const_iterator@V?$_List_val@PAV?$Goal@VAbstRaven_Bot@@@@V?$allocator@PAV?$Goal@VAbstRaven_Bot@@@@@std@@@std@@@std@@QAE@XZ
	add	esp, 4
	cmp	ebp, esp
	call	__RTC_CheckEsp
	mov	esp, ebp
	pop	ebp
	ret	0
??1?$_List_iterator@V?$_List_val@PAV?$Goal@VAbstRaven_Bot@@@@V?$allocator@PAV?$Goal@VAbstRaven_Bot@@@@@std@@@std@@@std@@QAE@XZ ENDP ; std::_List_iterator<std::_List_val<Goal<AbstRaven_Bot> *,std::allocator<Goal<AbstRaven_Bot> *> > >::~_List_iterator<std::_List_val<Goal<AbstRaven_Bot> *,std::allocator<Goal<AbstRaven_Bot> *> > >
_TEXT	ENDS
PUBLIC	??4?$_List_const_iterator@V?$_List_val@PAV?$Goal@VAbstRaven_Bot@@@@V?$allocator@PAV?$Goal@VAbstRaven_Bot@@@@@std@@@std@@@std@@QAEAAV01@ABV01@@Z ; std::_List_const_iterator<std::_List_val<Goal<AbstRaven_Bot> *,std::allocator<Goal<AbstRaven_Bot> *> > >::operator=
; Function compile flags: /Odtp /RTCsu
;	COMDAT ??4?$_List_iterator@V?$_List_val@PAV?$Goal@VAbstRaven_Bot@@@@V?$allocator@PAV?$Goal@VAbstRaven_Bot@@@@@std@@@std@@@std@@QAEAAV01@ABV01@@Z
_TEXT	SEGMENT
_this$ = -4						; size = 4
___that$ = 8						; size = 4
??4?$_List_iterator@V?$_List_val@PAV?$Goal@VAbstRaven_Bot@@@@V?$allocator@PAV?$Goal@VAbstRaven_Bot@@@@@std@@@std@@@std@@QAEAAV01@ABV01@@Z PROC ; std::_List_iterator<std::_List_val<Goal<AbstRaven_Bot> *,std::allocator<Goal<AbstRaven_Bot> *> > >::operator=, COMDAT
; _this$ = ecx
	push	ebp
	mov	ebp, esp
	push	ecx
	mov	DWORD PTR [ebp-4], -858993460		; ccccccccH
	mov	DWORD PTR _this$[ebp], ecx
	mov	eax, DWORD PTR ___that$[ebp]
	push	eax
	mov	ecx, DWORD PTR _this$[ebp]
	call	??4?$_List_const_iterator@V?$_List_val@PAV?$Goal@VAbstRaven_Bot@@@@V?$allocator@PAV?$Goal@VAbstRaven_Bot@@@@@std@@@std@@@std@@QAEAAV01@ABV01@@Z
	mov	eax, DWORD PTR _this$[ebp]
	add	esp, 4
	cmp	ebp, esp
	call	__RTC_CheckEsp
	mov	esp, ebp
	pop	ebp
	ret	4
??4?$_List_iterator@V?$_List_val@PAV?$Goal@VAbstRaven_Bot@@@@V?$allocator@PAV?$Goal@VAbstRaven_Bot@@@@@std@@@std@@@std@@QAEAAV01@ABV01@@Z ENDP ; std::_List_iterator<std::_List_val<Goal<AbstRaven_Bot> *,std::allocator<Goal<AbstRaven_Bot> *> > >::operator=
_TEXT	ENDS
PUBLIC	??1?$_List_unchecked_const_iterator@V?$_List_val@PAV?$Goal@VAbstRaven_Bot@@@@V?$allocator@PAV?$Goal@VAbstRaven_Bot@@@@@std@@@std@@U_Iterator_base12@2@@std@@QAE@XZ ; std::_List_unchecked_const_iterator<std::_List_val<Goal<AbstRaven_Bot> *,std::allocator<Goal<AbstRaven_Bot> *> >,std::_Iterator_base12>::~_List_unchecked_const_iterator<std::_List_val<Goal<AbstRaven_Bot> *,std::allocator<Goal<AbstRaven_Bot> *> >,std::_Iterator_base12>
; Function compile flags: /Odtp /RTCsu
;	COMDAT ??1?$_List_const_iterator@V?$_List_val@PAV?$Goal@VAbstRaven_Bot@@@@V?$allocator@PAV?$Goal@VAbstRaven_Bot@@@@@std@@@std@@@std@@QAE@XZ
_TEXT	SEGMENT
_this$ = -4						; size = 4
??1?$_List_const_iterator@V?$_List_val@PAV?$Goal@VAbstRaven_Bot@@@@V?$allocator@PAV?$Goal@VAbstRaven_Bot@@@@@std@@@std@@@std@@QAE@XZ PROC ; std::_List_const_iterator<std::_List_val<Goal<AbstRaven_Bot> *,std::allocator<Goal<AbstRaven_Bot> *> > >::~_List_const_iterator<std::_List_val<Goal<AbstRaven_Bot> *,std::allocator<Goal<AbstRaven_Bot> *> > >, COMDAT
; _this$ = ecx
	push	ebp
	mov	ebp, esp
	push	ecx
	mov	DWORD PTR [ebp-4], -858993460		; ccccccccH
	mov	DWORD PTR _this$[ebp], ecx
	mov	ecx, DWORD PTR _this$[ebp]
	call	??1?$_List_unchecked_const_iterator@V?$_List_val@PAV?$Goal@VAbstRaven_Bot@@@@V?$allocator@PAV?$Goal@VAbstRaven_Bot@@@@@std@@@std@@U_Iterator_base12@2@@std@@QAE@XZ
	add	esp, 4
	cmp	ebp, esp
	call	__RTC_CheckEsp
	mov	esp, ebp
	pop	ebp
	ret	0
??1?$_List_const_iterator@V?$_List_val@PAV?$Goal@VAbstRaven_Bot@@@@V?$allocator@PAV?$Goal@VAbstRaven_Bot@@@@@std@@@std@@@std@@QAE@XZ ENDP ; std::_List_const_iterator<std::_List_val<Goal<AbstRaven_Bot> *,std::allocator<Goal<AbstRaven_Bot> *> > >::~_List_const_iterator<std::_List_val<Goal<AbstRaven_Bot> *,std::allocator<Goal<AbstRaven_Bot> *> > >
_TEXT	ENDS
PUBLIC	??4?$_List_unchecked_const_iterator@V?$_List_val@PAV?$Goal@VAbstRaven_Bot@@@@V?$allocator@PAV?$Goal@VAbstRaven_Bot@@@@@std@@@std@@U_Iterator_base12@2@@std@@QAEAAV01@ABV01@@Z ; std::_List_unchecked_const_iterator<std::_List_val<Goal<AbstRaven_Bot> *,std::allocator<Goal<AbstRaven_Bot> *> >,std::_Iterator_base12>::operator=
; Function compile flags: /Odtp /RTCsu
;	COMDAT ??4?$_List_const_iterator@V?$_List_val@PAV?$Goal@VAbstRaven_Bot@@@@V?$allocator@PAV?$Goal@VAbstRaven_Bot@@@@@std@@@std@@@std@@QAEAAV01@ABV01@@Z
_TEXT	SEGMENT
_this$ = -4						; size = 4
___that$ = 8						; size = 4
??4?$_List_const_iterator@V?$_List_val@PAV?$Goal@VAbstRaven_Bot@@@@V?$allocator@PAV?$Goal@VAbstRaven_Bot@@@@@std@@@std@@@std@@QAEAAV01@ABV01@@Z PROC ; std::_List_const_iterator<std::_List_val<Goal<AbstRaven_Bot> *,std::allocator<Goal<AbstRaven_Bot> *> > >::operator=, COMDAT
; _this$ = ecx
	push	ebp
	mov	ebp, esp
	push	ecx
	mov	DWORD PTR [ebp-4], -858993460		; ccccccccH
	mov	DWORD PTR _this$[ebp], ecx
	mov	eax, DWORD PTR ___that$[ebp]
	push	eax
	mov	ecx, DWORD PTR _this$[ebp]
	call	??4?$_List_unchecked_const_iterator@V?$_List_val@PAV?$Goal@VAbstRaven_Bot@@@@V?$allocator@PAV?$Goal@VAbstRaven_Bot@@@@@std@@@std@@U_Iterator_base12@2@@std@@QAEAAV01@ABV01@@Z
	mov	eax, DWORD PTR _this$[ebp]
	add	esp, 4
	cmp	ebp, esp
	call	__RTC_CheckEsp
	mov	esp, ebp
	pop	ebp
	ret	4
??4?$_List_const_iterator@V?$_List_val@PAV?$Goal@VAbstRaven_Bot@@@@V?$allocator@PAV?$Goal@VAbstRaven_Bot@@@@@std@@@std@@@std@@QAEAAV01@ABV01@@Z ENDP ; std::_List_const_iterator<std::_List_val<Goal<AbstRaven_Bot> *,std::allocator<Goal<AbstRaven_Bot> *> > >::operator=
_TEXT	ENDS
PUBLIC	??1?$_Iterator012@Ubidirectional_iterator_tag@std@@PAV?$Goal@VAbstRaven_Bot@@@@HPBQAV3@ABQAV3@U_Iterator_base12@2@@std@@QAE@XZ ; std::_Iterator012<std::bidirectional_iterator_tag,Goal<AbstRaven_Bot> *,int,Goal<AbstRaven_Bot> * const *,Goal<AbstRaven_Bot> * const &,std::_Iterator_base12>::~_Iterator012<std::bidirectional_iterator_tag,Goal<AbstRaven_Bot> *,int,Goal<AbstRaven_Bot> * const *,Goal<AbstRaven_Bot> * const &,std::_Iterator_base12>
; Function compile flags: /Odtp /RTCsu
;	COMDAT ??1?$_List_unchecked_const_iterator@V?$_List_val@PAV?$Goal@VAbstRaven_Bot@@@@V?$allocator@PAV?$Goal@VAbstRaven_Bot@@@@@std@@@std@@U_Iterator_base12@2@@std@@QAE@XZ
_TEXT	SEGMENT
_this$ = -4						; size = 4
??1?$_List_unchecked_const_iterator@V?$_List_val@PAV?$Goal@VAbstRaven_Bot@@@@V?$allocator@PAV?$Goal@VAbstRaven_Bot@@@@@std@@@std@@U_Iterator_base12@2@@std@@QAE@XZ PROC ; std::_List_unchecked_const_iterator<std::_List_val<Goal<AbstRaven_Bot> *,std::allocator<Goal<AbstRaven_Bot> *> >,std::_Iterator_base12>::~_List_unchecked_const_iterator<std::_List_val<Goal<AbstRaven_Bot> *,std::allocator<Goal<AbstRaven_Bot> *> >,std::_Iterator_base12>, COMDAT
; _this$ = ecx
	push	ebp
	mov	ebp, esp
	push	ecx
	mov	DWORD PTR [ebp-4], -858993460		; ccccccccH
	mov	DWORD PTR _this$[ebp], ecx
	mov	ecx, DWORD PTR _this$[ebp]
	call	??1?$_Iterator012@Ubidirectional_iterator_tag@std@@PAV?$Goal@VAbstRaven_Bot@@@@HPBQAV3@ABQAV3@U_Iterator_base12@2@@std@@QAE@XZ
	add	esp, 4
	cmp	ebp, esp
	call	__RTC_CheckEsp
	mov	esp, ebp
	pop	ebp
	ret	0
??1?$_List_unchecked_const_iterator@V?$_List_val@PAV?$Goal@VAbstRaven_Bot@@@@V?$allocator@PAV?$Goal@VAbstRaven_Bot@@@@@std@@@std@@U_Iterator_base12@2@@std@@QAE@XZ ENDP ; std::_List_unchecked_const_iterator<std::_List_val<Goal<AbstRaven_Bot> *,std::allocator<Goal<AbstRaven_Bot> *> >,std::_Iterator_base12>::~_List_unchecked_const_iterator<std::_List_val<Goal<AbstRaven_Bot> *,std::allocator<Goal<AbstRaven_Bot> *> >,std::_Iterator_base12>
_TEXT	ENDS
PUBLIC	??4?$_Iterator012@Ubidirectional_iterator_tag@std@@PAV?$Goal@VAbstRaven_Bot@@@@HPBQAV3@ABQAV3@U_Iterator_base12@2@@std@@QAEAAU01@ABU01@@Z ; std::_Iterator012<std::bidirectional_iterator_tag,Goal<AbstRaven_Bot> *,int,Goal<AbstRaven_Bot> * const *,Goal<AbstRaven_Bot> * const &,std::_Iterator_base12>::operator=
; Function compile flags: /Odtp /RTCsu
;	COMDAT ??4?$_List_unchecked_const_iterator@V?$_List_val@PAV?$Goal@VAbstRaven_Bot@@@@V?$allocator@PAV?$Goal@VAbstRaven_Bot@@@@@std@@@std@@U_Iterator_base12@2@@std@@QAEAAV01@ABV01@@Z
_TEXT	SEGMENT
_this$ = -4						; size = 4
___that$ = 8						; size = 4
??4?$_List_unchecked_const_iterator@V?$_List_val@PAV?$Goal@VAbstRaven_Bot@@@@V?$allocator@PAV?$Goal@VAbstRaven_Bot@@@@@std@@@std@@U_Iterator_base12@2@@std@@QAEAAV01@ABV01@@Z PROC ; std::_List_unchecked_const_iterator<std::_List_val<Goal<AbstRaven_Bot> *,std::allocator<Goal<AbstRaven_Bot> *> >,std::_Iterator_base12>::operator=, COMDAT
; _this$ = ecx
	push	ebp
	mov	ebp, esp
	push	ecx
	mov	DWORD PTR [ebp-4], -858993460		; ccccccccH
	mov	DWORD PTR _this$[ebp], ecx
	mov	eax, DWORD PTR ___that$[ebp]
	push	eax
	mov	ecx, DWORD PTR _this$[ebp]
	call	??4?$_Iterator012@Ubidirectional_iterator_tag@std@@PAV?$Goal@VAbstRaven_Bot@@@@HPBQAV3@ABQAV3@U_Iterator_base12@2@@std@@QAEAAU01@ABU01@@Z
	mov	ecx, DWORD PTR _this$[ebp]
	mov	edx, DWORD PTR ___that$[ebp]
	mov	eax, DWORD PTR [edx+8]
	mov	DWORD PTR [ecx+8], eax
	mov	eax, DWORD PTR _this$[ebp]
	add	esp, 4
	cmp	ebp, esp
	call	__RTC_CheckEsp
	mov	esp, ebp
	pop	ebp
	ret	4
??4?$_List_unchecked_const_iterator@V?$_List_val@PAV?$Goal@VAbstRaven_Bot@@@@V?$allocator@PAV?$Goal@VAbstRaven_Bot@@@@@std@@@std@@U_Iterator_base12@2@@std@@QAEAAV01@ABV01@@Z ENDP ; std::_List_unchecked_const_iterator<std::_List_val<Goal<AbstRaven_Bot> *,std::allocator<Goal<AbstRaven_Bot> *> >,std::_Iterator_base12>::operator=
; Function compile flags: /Odtp /RTCsu
_TEXT	ENDS
;	COMDAT ??1?$_Iterator012@Ubidirectional_iterator_tag@std@@PAV?$Goal@VAbstRaven_Bot@@@@HPBQAV3@ABQAV3@U_Iterator_base12@2@@std@@QAE@XZ
_TEXT	SEGMENT
_this$ = -4						; size = 4
??1?$_Iterator012@Ubidirectional_iterator_tag@std@@PAV?$Goal@VAbstRaven_Bot@@@@HPBQAV3@ABQAV3@U_Iterator_base12@2@@std@@QAE@XZ PROC ; std::_Iterator012<std::bidirectional_iterator_tag,Goal<AbstRaven_Bot> *,int,Goal<AbstRaven_Bot> * const *,Goal<AbstRaven_Bot> * const &,std::_Iterator_base12>::~_Iterator012<std::bidirectional_iterator_tag,Goal<AbstRaven_Bot> *,int,Goal<AbstRaven_Bot> * const *,Goal<AbstRaven_Bot> * const &,std::_Iterator_base12>, COMDAT
; _this$ = ecx
	push	ebp
	mov	ebp, esp
	push	ecx
	mov	DWORD PTR [ebp-4], -858993460		; ccccccccH
	mov	DWORD PTR _this$[ebp], ecx
	mov	ecx, DWORD PTR _this$[ebp]
	call	??1_Iterator_base12@std@@QAE@XZ		; std::_Iterator_base12::~_Iterator_base12
	add	esp, 4
	cmp	ebp, esp
	call	__RTC_CheckEsp
	mov	esp, ebp
	pop	ebp
	ret	0
??1?$_Iterator012@Ubidirectional_iterator_tag@std@@PAV?$Goal@VAbstRaven_Bot@@@@HPBQAV3@ABQAV3@U_Iterator_base12@2@@std@@QAE@XZ ENDP ; std::_Iterator012<std::bidirectional_iterator_tag,Goal<AbstRaven_Bot> *,int,Goal<AbstRaven_Bot> * const *,Goal<AbstRaven_Bot> * const &,std::_Iterator_base12>::~_Iterator012<std::bidirectional_iterator_tag,Goal<AbstRaven_Bot> *,int,Goal<AbstRaven_Bot> * const *,Goal<AbstRaven_Bot> * const &,std::_Iterator_base12>
_TEXT	ENDS
PUBLIC	??4_Iterator_base12@std@@QAEAAU01@ABU01@@Z	; std::_Iterator_base12::operator=
; Function compile flags: /Odtp /RTCsu
;	COMDAT ??4?$_Iterator012@Ubidirectional_iterator_tag@std@@PAV?$Goal@VAbstRaven_Bot@@@@HPBQAV3@ABQAV3@U_Iterator_base12@2@@std@@QAEAAU01@ABU01@@Z
_TEXT	SEGMENT
_this$ = -4						; size = 4
___that$ = 8						; size = 4
??4?$_Iterator012@Ubidirectional_iterator_tag@std@@PAV?$Goal@VAbstRaven_Bot@@@@HPBQAV3@ABQAV3@U_Iterator_base12@2@@std@@QAEAAU01@ABU01@@Z PROC ; std::_Iterator012<std::bidirectional_iterator_tag,Goal<AbstRaven_Bot> *,int,Goal<AbstRaven_Bot> * const *,Goal<AbstRaven_Bot> * const &,std::_Iterator_base12>::operator=, COMDAT
; _this$ = ecx
	push	ebp
	mov	ebp, esp
	push	ecx
	mov	DWORD PTR [ebp-4], -858993460		; ccccccccH
	mov	DWORD PTR _this$[ebp], ecx
	mov	eax, DWORD PTR ___that$[ebp]
	push	eax
	mov	ecx, DWORD PTR _this$[ebp]
	call	??4_Iterator_base12@std@@QAEAAU01@ABU01@@Z ; std::_Iterator_base12::operator=
	mov	eax, DWORD PTR _this$[ebp]
	add	esp, 4
	cmp	ebp, esp
	call	__RTC_CheckEsp
	mov	esp, ebp
	pop	ebp
	ret	4
??4?$_Iterator012@Ubidirectional_iterator_tag@std@@PAV?$Goal@VAbstRaven_Bot@@@@HPBQAV3@ABQAV3@U_Iterator_base12@2@@std@@QAEAAU01@ABU01@@Z ENDP ; std::_Iterator012<std::bidirectional_iterator_tag,Goal<AbstRaven_Bot> *,int,Goal<AbstRaven_Bot> * const *,Goal<AbstRaven_Bot> * const &,std::_Iterator_base12>::operator=
_TEXT	ENDS
PUBLIC	?_Adopt@_Iterator_base12@std@@QAEXPBU_Container_base12@2@@Z ; std::_Iterator_base12::_Adopt
;	COMDAT xdata$x
; File c:\program files (x86)\microsoft visual studio 10.0\vc\include\xutility
xdata$x	SEGMENT
__unwindtable$??4_Iterator_base12@std@@QAEAAU01@ABU01@@Z DD 0ffffffffH
	DD	FLAT:__unwindfunclet$??4_Iterator_base12@std@@QAEAAU01@ABU01@@Z$0
__ehfuncinfo$??4_Iterator_base12@std@@QAEAAU01@ABU01@@Z DD 019930522H
	DD	01H
	DD	FLAT:__unwindtable$??4_Iterator_base12@std@@QAEAAU01@ABU01@@Z
	DD	2 DUP(00H)
	DD	2 DUP(00H)
	DD	00H
	DD	01H
; Function compile flags: /Odtp /RTCsu
xdata$x	ENDS
;	COMDAT ??4_Iterator_base12@std@@QAEAAU01@ABU01@@Z
_TEXT	SEGMENT
__Lock$15134 = -24					; size = 4
_this$ = -16						; size = 4
__$EHRec$ = -12						; size = 12
__Right$ = 8						; size = 4
??4_Iterator_base12@std@@QAEAAU01@ABU01@@Z PROC		; std::_Iterator_base12::operator=, COMDAT
; _this$ = ecx

; 121  : 		{	// assign an iterator

	push	ebp
	mov	ebp, esp
	push	-1
	push	__ehhandler$??4_Iterator_base12@std@@QAEAAU01@ABU01@@Z
	mov	eax, DWORD PTR fs:0
	push	eax
	sub	esp, 16					; 00000010H
	mov	eax, -858993460				; ccccccccH
	mov	DWORD PTR [ebp-28], eax
	mov	DWORD PTR [ebp-24], eax
	mov	DWORD PTR [ebp-20], eax
	mov	DWORD PTR [ebp-16], eax
	mov	eax, DWORD PTR ___security_cookie
	xor	eax, ebp
	push	eax
	lea	eax, DWORD PTR __$EHRec$[ebp]
	mov	DWORD PTR fs:0, eax
	mov	DWORD PTR _this$[ebp], ecx

; 122  : 		if (_Myproxy == _Right._Myproxy)

	mov	eax, DWORD PTR _this$[ebp]
	mov	ecx, DWORD PTR __Right$[ebp]
	mov	edx, DWORD PTR [eax]
	cmp	edx, DWORD PTR [ecx]
	jne	SHORT $LN4@operator
	jmp	SHORT $LN3@operator
$LN4@operator:

; 123  : 			;
; 124  : 		else if (_Right._Myproxy != 0)

	mov	eax, DWORD PTR __Right$[ebp]
	cmp	DWORD PTR [eax], 0
	je	SHORT $LN2@operator

; 125  : 			_Adopt(_Right._Myproxy->_Mycont);

	mov	ecx, DWORD PTR __Right$[ebp]
	mov	edx, DWORD PTR [ecx]
	mov	eax, DWORD PTR [edx]
	push	eax
	mov	ecx, DWORD PTR _this$[ebp]
	call	?_Adopt@_Iterator_base12@std@@QAEXPBU_Container_base12@2@@Z ; std::_Iterator_base12::_Adopt

; 126  : 		else

	jmp	SHORT $LN3@operator
$LN2@operator:

; 127  : 			{	// becoming invalid, disown current parent
; 128  : 			_Lockit _Lock(_LOCK_DEBUG);

	push	3
	lea	ecx, DWORD PTR __Lock$15134[ebp]
	call	??0_Lockit@std@@QAE@H@Z			; std::_Lockit::_Lockit
	mov	DWORD PTR __$EHRec$[ebp+8], 0

; 129  : 			_Orphan_me();

	mov	ecx, DWORD PTR _this$[ebp]
	call	?_Orphan_me@_Iterator_base12@std@@QAEXXZ ; std::_Iterator_base12::_Orphan_me

; 130  : 			}

	mov	DWORD PTR __$EHRec$[ebp+8], -1
	lea	ecx, DWORD PTR __Lock$15134[ebp]
	call	??1_Lockit@std@@QAE@XZ			; std::_Lockit::~_Lockit
$LN3@operator:

; 131  : 		return (*this);

	mov	eax, DWORD PTR _this$[ebp]

; 132  : 		}

	push	edx
	mov	ecx, ebp
	push	eax
	lea	edx, DWORD PTR $LN11@operator
	call	@_RTC_CheckStackVars@8
	pop	eax
	pop	edx
	mov	ecx, DWORD PTR __$EHRec$[ebp]
	mov	DWORD PTR fs:0, ecx
	pop	ecx
	add	esp, 28					; 0000001cH
	cmp	ebp, esp
	call	__RTC_CheckEsp
	mov	esp, ebp
	pop	ebp
	ret	4
$LN11@operator:
	DD	1
	DD	$LN10@operator
$LN10@operator:
	DD	-24					; ffffffe8H
	DD	4
	DD	$LN8@operator
$LN8@operator:
	DB	95					; 0000005fH
	DB	76					; 0000004cH
	DB	111					; 0000006fH
	DB	99					; 00000063H
	DB	107					; 0000006bH
	DB	0
_TEXT	ENDS
;	COMDAT text$x
text$x	SEGMENT
__unwindfunclet$??4_Iterator_base12@std@@QAEAAU01@ABU01@@Z$0:
	lea	ecx, DWORD PTR __Lock$15134[ebp]
	jmp	??1_Lockit@std@@QAE@XZ			; std::_Lockit::~_Lockit
__ehhandler$??4_Iterator_base12@std@@QAEAAU01@ABU01@@Z:
	mov	edx, DWORD PTR [esp+8]
	lea	eax, DWORD PTR [edx+12]
	mov	ecx, DWORD PTR [edx-20]
	xor	ecx, eax
	call	@__security_check_cookie@4
	mov	eax, OFFSET __ehfuncinfo$??4_Iterator_base12@std@@QAEAAU01@ABU01@@Z
	jmp	___CxxFrameHandler3
text$x	ENDS
??4_Iterator_base12@std@@QAEAAU01@ABU01@@Z ENDP		; std::_Iterator_base12::operator=
;	COMDAT xdata$x
xdata$x	SEGMENT
__unwindtable$?_Adopt@_Iterator_base12@std@@QAEXPBU_Container_base12@2@@Z DD 0ffffffffH
	DD	FLAT:__unwindfunclet$?_Adopt@_Iterator_base12@std@@QAEXPBU_Container_base12@2@@Z$0
	DD	0ffffffffH
	DD	FLAT:__unwindfunclet$?_Adopt@_Iterator_base12@std@@QAEXPBU_Container_base12@2@@Z$1
__ehfuncinfo$?_Adopt@_Iterator_base12@std@@QAEXPBU_Container_base12@2@@Z DD 019930522H
	DD	02H
	DD	FLAT:__unwindtable$?_Adopt@_Iterator_base12@std@@QAEXPBU_Container_base12@2@@Z
	DD	2 DUP(00H)
	DD	2 DUP(00H)
	DD	00H
	DD	01H
; Function compile flags: /Odtp /RTCsu
xdata$x	ENDS
;	COMDAT ?_Adopt@_Iterator_base12@std@@QAEXPBU_Container_base12@2@@Z
_TEXT	SEGMENT
__Lock$15145 = -40					; size = 4
__Parent_proxy$15143 = -32				; size = 4
__Lock$15141 = -24					; size = 4
_this$ = -16						; size = 4
__$EHRec$ = -12						; size = 12
__Parent$ = 8						; size = 4
?_Adopt@_Iterator_base12@std@@QAEXPBU_Container_base12@2@@Z PROC ; std::_Iterator_base12::_Adopt, COMDAT
; _this$ = ecx

; 143  : 		{	// adopt this iterator by parent

	push	ebp
	mov	ebp, esp
	push	-1
	push	__ehhandler$?_Adopt@_Iterator_base12@std@@QAEXPBU_Container_base12@2@@Z
	mov	eax, DWORD PTR fs:0
	push	eax
	sub	esp, 32					; 00000020H
	mov	eax, -858993460				; ccccccccH
	mov	DWORD PTR [ebp-44], eax
	mov	DWORD PTR [ebp-40], eax
	mov	DWORD PTR [ebp-36], eax
	mov	DWORD PTR [ebp-32], eax
	mov	DWORD PTR [ebp-28], eax
	mov	DWORD PTR [ebp-24], eax
	mov	DWORD PTR [ebp-20], eax
	mov	DWORD PTR [ebp-16], eax
	mov	eax, DWORD PTR ___security_cookie
	xor	eax, ebp
	push	eax
	lea	eax, DWORD PTR __$EHRec$[ebp]
	mov	DWORD PTR fs:0, eax
	mov	DWORD PTR _this$[ebp], ecx

; 144  : 		if (_Parent == 0)

	cmp	DWORD PTR __Parent$[ebp], 0
	jne	SHORT $LN3@Adopt

; 145  : 			{	// no future parent, just disown current parent
; 146  : 			_Lockit _Lock(_LOCK_DEBUG);

	push	3
	lea	ecx, DWORD PTR __Lock$15141[ebp]
	call	??0_Lockit@std@@QAE@H@Z			; std::_Lockit::_Lockit
	mov	DWORD PTR __$EHRec$[ebp+8], 0

; 147  : 			_Orphan_me();

	mov	ecx, DWORD PTR _this$[ebp]
	call	?_Orphan_me@_Iterator_base12@std@@QAEXXZ ; std::_Iterator_base12::_Orphan_me

; 148  : 			}

	mov	DWORD PTR __$EHRec$[ebp+8], -1
	lea	ecx, DWORD PTR __Lock$15141[ebp]
	call	??1_Lockit@std@@QAE@XZ			; std::_Lockit::~_Lockit

; 149  : 		else

	jmp	SHORT $LN4@Adopt
$LN3@Adopt:

; 150  : 			{	// have a parent, do adoption
; 151  : 			_Container_proxy *_Parent_proxy = _Parent->_Myproxy;

	mov	eax, DWORD PTR __Parent$[ebp]
	mov	ecx, DWORD PTR [eax]
	mov	DWORD PTR __Parent_proxy$15143[ebp], ecx

; 152  : 
; 153  :  #if _ITERATOR_DEBUG_LEVEL == 2
; 154  : 			if (_Myproxy != _Parent_proxy)

	mov	edx, DWORD PTR _this$[ebp]
	mov	eax, DWORD PTR [edx]
	cmp	eax, DWORD PTR __Parent_proxy$15143[ebp]
	je	SHORT $LN4@Adopt

; 155  : 				{	// change parentage
; 156  : 				_Lockit _Lock(_LOCK_DEBUG);

	push	3
	lea	ecx, DWORD PTR __Lock$15145[ebp]
	call	??0_Lockit@std@@QAE@H@Z			; std::_Lockit::_Lockit
	mov	DWORD PTR __$EHRec$[ebp+8], 1

; 157  : 				_Orphan_me();

	mov	ecx, DWORD PTR _this$[ebp]
	call	?_Orphan_me@_Iterator_base12@std@@QAEXXZ ; std::_Iterator_base12::_Orphan_me

; 158  : 				_Mynextiter = _Parent_proxy->_Myfirstiter;

	mov	ecx, DWORD PTR _this$[ebp]
	mov	edx, DWORD PTR __Parent_proxy$15143[ebp]
	mov	eax, DWORD PTR [edx+4]
	mov	DWORD PTR [ecx+4], eax

; 159  : 				_Parent_proxy->_Myfirstiter = this;

	mov	ecx, DWORD PTR __Parent_proxy$15143[ebp]
	mov	edx, DWORD PTR _this$[ebp]
	mov	DWORD PTR [ecx+4], edx

; 160  : 				_Myproxy = _Parent_proxy;

	mov	eax, DWORD PTR _this$[ebp]
	mov	ecx, DWORD PTR __Parent_proxy$15143[ebp]
	mov	DWORD PTR [eax], ecx

; 161  : 				}

	mov	DWORD PTR __$EHRec$[ebp+8], -1
	lea	ecx, DWORD PTR __Lock$15145[ebp]
	call	??1_Lockit@std@@QAE@XZ			; std::_Lockit::~_Lockit
$LN4@Adopt:

; 162  :  #else /* _ITERATOR_DEBUG_LEVEL == 2 */
; 163  : 			_Myproxy = _Parent_proxy;
; 164  :  #endif /* _ITERATOR_DEBUG_LEVEL == 2 */
; 165  : 			}
; 166  : 		}

	push	edx
	mov	ecx, ebp
	push	eax
	lea	edx, DWORD PTR $LN12@Adopt
	call	@_RTC_CheckStackVars@8
	pop	eax
	pop	edx
	mov	ecx, DWORD PTR __$EHRec$[ebp]
	mov	DWORD PTR fs:0, ecx
	pop	ecx
	add	esp, 44					; 0000002cH
	cmp	ebp, esp
	call	__RTC_CheckEsp
	mov	esp, ebp
	pop	ebp
	ret	4
$LN12@Adopt:
	DD	2
	DD	$LN11@Adopt
$LN11@Adopt:
	DD	-24					; ffffffe8H
	DD	4
	DD	$LN8@Adopt
	DD	-40					; ffffffd8H
	DD	4
	DD	$LN9@Adopt
$LN9@Adopt:
	DB	95					; 0000005fH
	DB	76					; 0000004cH
	DB	111					; 0000006fH
	DB	99					; 00000063H
	DB	107					; 0000006bH
	DB	0
$LN8@Adopt:
	DB	95					; 0000005fH
	DB	76					; 0000004cH
	DB	111					; 0000006fH
	DB	99					; 00000063H
	DB	107					; 0000006bH
	DB	0
_TEXT	ENDS
;	COMDAT text$x
text$x	SEGMENT
__unwindfunclet$?_Adopt@_Iterator_base12@std@@QAEXPBU_Container_base12@2@@Z$0:
	lea	ecx, DWORD PTR __Lock$15141[ebp]
	jmp	??1_Lockit@std@@QAE@XZ			; std::_Lockit::~_Lockit
__unwindfunclet$?_Adopt@_Iterator_base12@std@@QAEXPBU_Container_base12@2@@Z$1:
	lea	ecx, DWORD PTR __Lock$15145[ebp]
	jmp	??1_Lockit@std@@QAE@XZ			; std::_Lockit::~_Lockit
__ehhandler$?_Adopt@_Iterator_base12@std@@QAEXPBU_Container_base12@2@@Z:
	mov	edx, DWORD PTR [esp+8]
	lea	eax, DWORD PTR [edx+12]
	mov	ecx, DWORD PTR [edx-36]
	xor	ecx, eax
	call	@__security_check_cookie@4
	mov	eax, OFFSET __ehfuncinfo$?_Adopt@_Iterator_base12@std@@QAEXPBU_Container_base12@2@@Z
	jmp	___CxxFrameHandler3
text$x	ENDS
?_Adopt@_Iterator_base12@std@@QAEXPBU_Container_base12@2@@Z ENDP ; std::_Iterator_base12::_Adopt
PUBLIC	??1?$Goal@VAbstRaven_Bot@@@@UAE@XZ		; Goal<AbstRaven_Bot>::~Goal<AbstRaven_Bot>
PUBLIC	??0?$list@PAV?$Goal@VAbstRaven_Bot@@@@V?$allocator@PAV?$Goal@VAbstRaven_Bot@@@@@std@@@std@@QAE@XZ ; std::list<Goal<AbstRaven_Bot> *,std::allocator<Goal<AbstRaven_Bot> *> >::list<Goal<AbstRaven_Bot> *,std::allocator<Goal<AbstRaven_Bot> *> >
PUBLIC	??_7?$Goal_Composite@VAbstRaven_Bot@@@@6B@	; Goal_Composite<AbstRaven_Bot>::`vftable'
PUBLIC	??0?$Goal@VAbstRaven_Bot@@@@QAE@PAVAbstRaven_Bot@@H@Z ; Goal<AbstRaven_Bot>::Goal<AbstRaven_Bot>
PUBLIC	??_R4?$Goal_Composite@VAbstRaven_Bot@@@@6B@	; Goal_Composite<AbstRaven_Bot>::`RTTI Complete Object Locator'
EXTRN	??_E?$Goal_Composite@VAbstRaven_Bot@@@@UAEPAXI@Z:PROC ; Goal_Composite<AbstRaven_Bot>::`vector deleting destructor'
;	COMDAT ??_R4?$Goal_Composite@VAbstRaven_Bot@@@@6B@
; File c:\users\teaja\documents\artificial-fun\labravenprojecttest\common\goals\goal_composite.h
rdata$r	SEGMENT
??_R4?$Goal_Composite@VAbstRaven_Bot@@@@6B@ DD 00H	; Goal_Composite<AbstRaven_Bot>::`RTTI Complete Object Locator'
	DD	00H
	DD	00H
	DD	FLAT:??_R0?AV?$Goal_Composite@VAbstRaven_Bot@@@@@8
	DD	FLAT:??_R3?$Goal_Composite@VAbstRaven_Bot@@@@8
rdata$r	ENDS
;	COMDAT ??_7?$Goal_Composite@VAbstRaven_Bot@@@@6B@
CONST	SEGMENT
??_7?$Goal_Composite@VAbstRaven_Bot@@@@6B@ DD FLAT:??_R4?$Goal_Composite@VAbstRaven_Bot@@@@6B@ ; Goal_Composite<AbstRaven_Bot>::`vftable'
	DD	FLAT:??_E?$Goal_Composite@VAbstRaven_Bot@@@@UAEPAXI@Z
	DD	FLAT:__purecall
	DD	FLAT:__purecall
	DD	FLAT:__purecall
	DD	FLAT:?HandleMessage@?$Goal_Composite@VAbstRaven_Bot@@@@UAE_NABUTelegram@@@Z
	DD	FLAT:?AddSubgoal@?$Goal_Composite@VAbstRaven_Bot@@@@UAEXPAV?$Goal@VAbstRaven_Bot@@@@@Z
	DD	FLAT:?RenderAtPos@?$Goal_Composite@VAbstRaven_Bot@@@@UBEXAAUVector2D@@PAVTypeToString@@@Z
	DD	FLAT:?Render@?$Goal_Composite@VAbstRaven_Bot@@@@UAEXXZ
CONST	ENDS
;	COMDAT xdata$x
xdata$x	SEGMENT
__unwindtable$??0?$Goal_Composite@VAbstRaven_Bot@@@@QAE@PAVAbstRaven_Bot@@H@Z DD 0ffffffffH
	DD	FLAT:__unwindfunclet$??0?$Goal_Composite@VAbstRaven_Bot@@@@QAE@PAVAbstRaven_Bot@@H@Z$0
__ehfuncinfo$??0?$Goal_Composite@VAbstRaven_Bot@@@@QAE@PAVAbstRaven_Bot@@H@Z DD 019930522H
	DD	01H
	DD	FLAT:__unwindtable$??0?$Goal_Composite@VAbstRaven_Bot@@@@QAE@PAVAbstRaven_Bot@@H@Z
	DD	2 DUP(00H)
	DD	2 DUP(00H)
	DD	00H
	DD	01H
; Function compile flags: /Odtp /RTCsu
xdata$x	ENDS
;	COMDAT ??0?$Goal_Composite@VAbstRaven_Bot@@@@QAE@PAVAbstRaven_Bot@@H@Z
_TEXT	SEGMENT
_this$ = -16						; size = 4
__$EHRec$ = -12						; size = 12
_pE$ = 8						; size = 4
_type$ = 12						; size = 4
??0?$Goal_Composite@VAbstRaven_Bot@@@@QAE@PAVAbstRaven_Bot@@H@Z PROC ; Goal_Composite<AbstRaven_Bot>::Goal_Composite<AbstRaven_Bot>, COMDAT
; _this$ = ecx

; 37   :   Goal_Composite(entity_type* pE, int type):Goal<entity_type>(pE,type){}

	push	ebp
	mov	ebp, esp
	push	-1
	push	__ehhandler$??0?$Goal_Composite@VAbstRaven_Bot@@@@QAE@PAVAbstRaven_Bot@@H@Z
	mov	eax, DWORD PTR fs:0
	push	eax
	push	ecx
	mov	DWORD PTR [ebp-16], -858993460		; ccccccccH
	mov	eax, DWORD PTR ___security_cookie
	xor	eax, ebp
	push	eax
	lea	eax, DWORD PTR __$EHRec$[ebp]
	mov	DWORD PTR fs:0, eax
	mov	DWORD PTR _this$[ebp], ecx
	mov	eax, DWORD PTR _type$[ebp]
	push	eax
	mov	ecx, DWORD PTR _pE$[ebp]
	push	ecx
	mov	ecx, DWORD PTR _this$[ebp]
	call	??0?$Goal@VAbstRaven_Bot@@@@QAE@PAVAbstRaven_Bot@@H@Z ; Goal<AbstRaven_Bot>::Goal<AbstRaven_Bot>
	mov	DWORD PTR __$EHRec$[ebp+8], 0
	mov	edx, DWORD PTR _this$[ebp]
	mov	DWORD PTR [edx], OFFSET ??_7?$Goal_Composite@VAbstRaven_Bot@@@@6B@
	mov	ecx, DWORD PTR _this$[ebp]
	add	ecx, 16					; 00000010H
	call	??0?$list@PAV?$Goal@VAbstRaven_Bot@@@@V?$allocator@PAV?$Goal@VAbstRaven_Bot@@@@@std@@@std@@QAE@XZ ; std::list<Goal<AbstRaven_Bot> *,std::allocator<Goal<AbstRaven_Bot> *> >::list<Goal<AbstRaven_Bot> *,std::allocator<Goal<AbstRaven_Bot> *> >
	mov	DWORD PTR __$EHRec$[ebp+8], -1
	mov	eax, DWORD PTR _this$[ebp]
	mov	ecx, DWORD PTR __$EHRec$[ebp]
	mov	DWORD PTR fs:0, ecx
	pop	ecx
	add	esp, 16					; 00000010H
	cmp	ebp, esp
	call	__RTC_CheckEsp
	mov	esp, ebp
	pop	ebp
	ret	8
_TEXT	ENDS
;	COMDAT text$x
text$x	SEGMENT
__unwindfunclet$??0?$Goal_Composite@VAbstRaven_Bot@@@@QAE@PAVAbstRaven_Bot@@H@Z$0:
	mov	ecx, DWORD PTR _this$[ebp]
	jmp	??1?$Goal@VAbstRaven_Bot@@@@UAE@XZ	; Goal<AbstRaven_Bot>::~Goal<AbstRaven_Bot>
__ehhandler$??0?$Goal_Composite@VAbstRaven_Bot@@@@QAE@PAVAbstRaven_Bot@@H@Z:
	mov	edx, DWORD PTR [esp+8]
	lea	eax, DWORD PTR [edx+12]
	mov	ecx, DWORD PTR [edx-8]
	xor	ecx, eax
	call	@__security_check_cookie@4
	mov	eax, OFFSET __ehfuncinfo$??0?$Goal_Composite@VAbstRaven_Bot@@@@QAE@PAVAbstRaven_Bot@@H@Z
	jmp	___CxxFrameHandler3
text$x	ENDS
??0?$Goal_Composite@VAbstRaven_Bot@@@@QAE@PAVAbstRaven_Bot@@H@Z ENDP ; Goal_Composite<AbstRaven_Bot>::Goal_Composite<AbstRaven_Bot>
PUBLIC	??1?$list@PAV?$Goal@VAbstRaven_Bot@@@@V?$allocator@PAV?$Goal@VAbstRaven_Bot@@@@@std@@@std@@QAE@XZ ; std::list<Goal<AbstRaven_Bot> *,std::allocator<Goal<AbstRaven_Bot> *> >::~list<Goal<AbstRaven_Bot> *,std::allocator<Goal<AbstRaven_Bot> *> >
;	COMDAT xdata$x
xdata$x	SEGMENT
__unwindtable$??1?$Goal_Composite@VAbstRaven_Bot@@@@UAE@XZ DD 0ffffffffH
	DD	FLAT:__unwindfunclet$??1?$Goal_Composite@VAbstRaven_Bot@@@@UAE@XZ$0
	DD	00H
	DD	FLAT:__unwindfunclet$??1?$Goal_Composite@VAbstRaven_Bot@@@@UAE@XZ$1
__ehfuncinfo$??1?$Goal_Composite@VAbstRaven_Bot@@@@UAE@XZ DD 019930522H
	DD	02H
	DD	FLAT:__unwindtable$??1?$Goal_Composite@VAbstRaven_Bot@@@@UAE@XZ
	DD	2 DUP(00H)
	DD	2 DUP(00H)
	DD	00H
	DD	01H
; Function compile flags: /Odtp /RTCsu
xdata$x	ENDS
;	COMDAT ??1?$Goal_Composite@VAbstRaven_Bot@@@@UAE@XZ
_TEXT	SEGMENT
_this$ = -16						; size = 4
__$EHRec$ = -12						; size = 12
??1?$Goal_Composite@VAbstRaven_Bot@@@@UAE@XZ PROC	; Goal_Composite<AbstRaven_Bot>::~Goal_Composite<AbstRaven_Bot>, COMDAT
; _this$ = ecx

; 41   :   virtual ~Goal_Composite(){RemoveAllSubgoals();}

	push	ebp
	mov	ebp, esp
	push	-1
	push	__ehhandler$??1?$Goal_Composite@VAbstRaven_Bot@@@@UAE@XZ
	mov	eax, DWORD PTR fs:0
	push	eax
	push	ecx
	mov	DWORD PTR [ebp-16], -858993460		; ccccccccH
	mov	eax, DWORD PTR ___security_cookie
	xor	eax, ebp
	push	eax
	lea	eax, DWORD PTR __$EHRec$[ebp]
	mov	DWORD PTR fs:0, eax
	mov	DWORD PTR _this$[ebp], ecx
	mov	eax, DWORD PTR _this$[ebp]
	mov	DWORD PTR [eax], OFFSET ??_7?$Goal_Composite@VAbstRaven_Bot@@@@6B@
	mov	DWORD PTR __$EHRec$[ebp+8], 1
	mov	ecx, DWORD PTR _this$[ebp]
	call	?RemoveAllSubgoals@?$Goal_Composite@VAbstRaven_Bot@@@@QAEXXZ ; Goal_Composite<AbstRaven_Bot>::RemoveAllSubgoals
	mov	BYTE PTR __$EHRec$[ebp+8], 0
	mov	ecx, DWORD PTR _this$[ebp]
	add	ecx, 16					; 00000010H
	call	??1?$list@PAV?$Goal@VAbstRaven_Bot@@@@V?$allocator@PAV?$Goal@VAbstRaven_Bot@@@@@std@@@std@@QAE@XZ ; std::list<Goal<AbstRaven_Bot> *,std::allocator<Goal<AbstRaven_Bot> *> >::~list<Goal<AbstRaven_Bot> *,std::allocator<Goal<AbstRaven_Bot> *> >
	mov	DWORD PTR __$EHRec$[ebp+8], -1
	mov	ecx, DWORD PTR _this$[ebp]
	call	??1?$Goal@VAbstRaven_Bot@@@@UAE@XZ	; Goal<AbstRaven_Bot>::~Goal<AbstRaven_Bot>
	mov	ecx, DWORD PTR __$EHRec$[ebp]
	mov	DWORD PTR fs:0, ecx
	pop	ecx
	add	esp, 16					; 00000010H
	cmp	ebp, esp
	call	__RTC_CheckEsp
	mov	esp, ebp
	pop	ebp
	ret	0
_TEXT	ENDS
;	COMDAT text$x
text$x	SEGMENT
__unwindfunclet$??1?$Goal_Composite@VAbstRaven_Bot@@@@UAE@XZ$0:
	mov	ecx, DWORD PTR _this$[ebp]
	jmp	??1?$Goal@VAbstRaven_Bot@@@@UAE@XZ	; Goal<AbstRaven_Bot>::~Goal<AbstRaven_Bot>
__unwindfunclet$??1?$Goal_Composite@VAbstRaven_Bot@@@@UAE@XZ$1:
	mov	ecx, DWORD PTR _this$[ebp]
	add	ecx, 16					; 00000010H
	jmp	??1?$list@PAV?$Goal@VAbstRaven_Bot@@@@V?$allocator@PAV?$Goal@VAbstRaven_Bot@@@@@std@@@std@@QAE@XZ ; std::list<Goal<AbstRaven_Bot> *,std::allocator<Goal<AbstRaven_Bot> *> >::~list<Goal<AbstRaven_Bot> *,std::allocator<Goal<AbstRaven_Bot> *> >
__ehhandler$??1?$Goal_Composite@VAbstRaven_Bot@@@@UAE@XZ:
	mov	edx, DWORD PTR [esp+8]
	lea	eax, DWORD PTR [edx+12]
	mov	ecx, DWORD PTR [edx-8]
	xor	ecx, eax
	call	@__security_check_cookie@4
	mov	eax, OFFSET __ehfuncinfo$??1?$Goal_Composite@VAbstRaven_Bot@@@@UAE@XZ
	jmp	___CxxFrameHandler3
text$x	ENDS
??1?$Goal_Composite@VAbstRaven_Bot@@@@UAE@XZ ENDP	; Goal_Composite<AbstRaven_Bot>::~Goal_Composite<AbstRaven_Bot>
PUBLIC	?ForwardMessageToFrontMostSubgoal@?$Goal_Composite@VAbstRaven_Bot@@@@IAE_NABUTelegram@@@Z ; Goal_Composite<AbstRaven_Bot>::ForwardMessageToFrontMostSubgoal
; Function compile flags: /Odtp /RTCsu
;	COMDAT ?HandleMessage@?$Goal_Composite@VAbstRaven_Bot@@@@UAE_NABUTelegram@@@Z
_TEXT	SEGMENT
_this$ = -4						; size = 4
_msg$ = 8						; size = 4
?HandleMessage@?$Goal_Composite@VAbstRaven_Bot@@@@UAE_NABUTelegram@@@Z PROC ; Goal_Composite<AbstRaven_Bot>::HandleMessage, COMDAT
; _this$ = ecx

; 56   :   { return ForwardMessageToFrontMostSubgoal(msg);}

	push	ebp
	mov	ebp, esp
	push	ecx
	mov	DWORD PTR [ebp-4], -858993460		; ccccccccH
	mov	DWORD PTR _this$[ebp], ecx
	mov	eax, DWORD PTR _msg$[ebp]
	push	eax
	mov	ecx, DWORD PTR _this$[ebp]
	call	?ForwardMessageToFrontMostSubgoal@?$Goal_Composite@VAbstRaven_Bot@@@@IAE_NABUTelegram@@@Z ; Goal_Composite<AbstRaven_Bot>::ForwardMessageToFrontMostSubgoal
	add	esp, 4
	cmp	ebp, esp
	call	__RTC_CheckEsp
	mov	esp, ebp
	pop	ebp
	ret	4
?HandleMessage@?$Goal_Composite@VAbstRaven_Bot@@@@UAE_NABUTelegram@@@Z ENDP ; Goal_Composite<AbstRaven_Bot>::HandleMessage
_TEXT	ENDS
PUBLIC	??_7?$Goal@VAbstRaven_Bot@@@@6B@		; Goal<AbstRaven_Bot>::`vftable'
PUBLIC	??_R4?$Goal@VAbstRaven_Bot@@@@6B@		; Goal<AbstRaven_Bot>::`RTTI Complete Object Locator'
PUBLIC	?HandleMessage@?$Goal@VAbstRaven_Bot@@@@UAE_NABUTelegram@@@Z ; Goal<AbstRaven_Bot>::HandleMessage
PUBLIC	?AddSubgoal@?$Goal@VAbstRaven_Bot@@@@UAEXPAV1@@Z ; Goal<AbstRaven_Bot>::AddSubgoal
PUBLIC	?RenderAtPos@?$Goal@VAbstRaven_Bot@@@@UBEXAAUVector2D@@PAVTypeToString@@@Z ; Goal<AbstRaven_Bot>::RenderAtPos
PUBLIC	?Render@?$Goal@VAbstRaven_Bot@@@@UAEXXZ		; Goal<AbstRaven_Bot>::Render
EXTRN	??_E?$Goal@VAbstRaven_Bot@@@@UAEPAXI@Z:PROC	; Goal<AbstRaven_Bot>::`vector deleting destructor'
;	COMDAT ??_R4?$Goal@VAbstRaven_Bot@@@@6B@
; File c:\users\teaja\documents\artificial-fun\labravenprojecttest\common\goals\goal.h
rdata$r	SEGMENT
??_R4?$Goal@VAbstRaven_Bot@@@@6B@ DD 00H		; Goal<AbstRaven_Bot>::`RTTI Complete Object Locator'
	DD	00H
	DD	00H
	DD	FLAT:??_R0?AV?$Goal@VAbstRaven_Bot@@@@@8
	DD	FLAT:??_R3?$Goal@VAbstRaven_Bot@@@@8
rdata$r	ENDS
;	COMDAT ??_7?$Goal@VAbstRaven_Bot@@@@6B@
CONST	SEGMENT
??_7?$Goal@VAbstRaven_Bot@@@@6B@ DD FLAT:??_R4?$Goal@VAbstRaven_Bot@@@@6B@ ; Goal<AbstRaven_Bot>::`vftable'
	DD	FLAT:??_E?$Goal@VAbstRaven_Bot@@@@UAEPAXI@Z
	DD	FLAT:__purecall
	DD	FLAT:__purecall
	DD	FLAT:__purecall
	DD	FLAT:?HandleMessage@?$Goal@VAbstRaven_Bot@@@@UAE_NABUTelegram@@@Z
	DD	FLAT:?AddSubgoal@?$Goal@VAbstRaven_Bot@@@@UAEXPAV1@@Z
	DD	FLAT:?RenderAtPos@?$Goal@VAbstRaven_Bot@@@@UBEXAAUVector2D@@PAVTypeToString@@@Z
	DD	FLAT:?Render@?$Goal@VAbstRaven_Bot@@@@UAEXXZ
; Function compile flags: /Odtp /RTCsu
CONST	ENDS
;	COMDAT ??0?$Goal@VAbstRaven_Bot@@@@QAE@PAVAbstRaven_Bot@@H@Z
_TEXT	SEGMENT
_this$ = -4						; size = 4
_pE$ = 8						; size = 4
_type$ = 12						; size = 4
??0?$Goal@VAbstRaven_Bot@@@@QAE@PAVAbstRaven_Bot@@H@Z PROC ; Goal<AbstRaven_Bot>::Goal<AbstRaven_Bot>, COMDAT
; _this$ = ecx

; 54   :   {}

	push	ebp
	mov	ebp, esp
	push	ecx
	mov	DWORD PTR [ebp-4], -858993460		; ccccccccH
	mov	DWORD PTR _this$[ebp], ecx
	mov	eax, DWORD PTR _this$[ebp]
	mov	DWORD PTR [eax], OFFSET ??_7?$Goal@VAbstRaven_Bot@@@@6B@
	mov	ecx, DWORD PTR _this$[ebp]
	mov	edx, DWORD PTR _type$[ebp]
	mov	DWORD PTR [ecx+4], edx
	mov	eax, DWORD PTR _this$[ebp]
	mov	ecx, DWORD PTR _pE$[ebp]
	mov	DWORD PTR [eax+8], ecx
	mov	edx, DWORD PTR _this$[ebp]
	mov	DWORD PTR [edx+12], 1
	mov	eax, DWORD PTR _this$[ebp]
	mov	esp, ebp
	pop	ebp
	ret	8
??0?$Goal@VAbstRaven_Bot@@@@QAE@PAVAbstRaven_Bot@@H@Z ENDP ; Goal<AbstRaven_Bot>::Goal<AbstRaven_Bot>
; Function compile flags: /Odtp /RTCsu
_TEXT	ENDS
;	COMDAT ??1?$Goal@VAbstRaven_Bot@@@@UAE@XZ
_TEXT	SEGMENT
_this$ = -4						; size = 4
??1?$Goal@VAbstRaven_Bot@@@@UAE@XZ PROC			; Goal<AbstRaven_Bot>::~Goal<AbstRaven_Bot>, COMDAT
; _this$ = ecx

; 56   :   virtual ~Goal(){}

	push	ebp
	mov	ebp, esp
	push	ecx
	mov	DWORD PTR [ebp-4], -858993460		; ccccccccH
	mov	DWORD PTR _this$[ebp], ecx
	mov	eax, DWORD PTR _this$[ebp]
	mov	DWORD PTR [eax], OFFSET ??_7?$Goal@VAbstRaven_Bot@@@@6B@
	mov	esp, ebp
	pop	ebp
	ret	0
??1?$Goal@VAbstRaven_Bot@@@@UAE@XZ ENDP			; Goal<AbstRaven_Bot>::~Goal<AbstRaven_Bot>
; Function compile flags: /Odtp /RTCsu
_TEXT	ENDS
;	COMDAT ?HandleMessage@?$Goal@VAbstRaven_Bot@@@@UAE_NABUTelegram@@@Z
_TEXT	SEGMENT
_this$ = -4						; size = 4
_msg$ = 8						; size = 4
?HandleMessage@?$Goal@VAbstRaven_Bot@@@@UAE_NABUTelegram@@@Z PROC ; Goal<AbstRaven_Bot>::HandleMessage, COMDAT
; _this$ = ecx

; 70   :   virtual bool HandleMessage(const Telegram& msg){return false;}

	push	ebp
	mov	ebp, esp
	push	ecx
	mov	DWORD PTR [ebp-4], -858993460		; ccccccccH
	mov	DWORD PTR _this$[ebp], ecx
	xor	al, al
	mov	esp, ebp
	pop	ebp
	ret	4
?HandleMessage@?$Goal@VAbstRaven_Bot@@@@UAE_NABUTelegram@@@Z ENDP ; Goal<AbstRaven_Bot>::HandleMessage
_TEXT	ENDS
PUBLIC	__TI2?AVruntime_error@std@@
PUBLIC	??0runtime_error@std@@QAE@PBD@Z			; std::runtime_error::runtime_error
PUBLIC	??_C@_0CB@OHIHCHGJ@Cannot?5add?5goals?5to?5atomic?5goals@ ; `string'
PUBLIC	??1runtime_error@std@@UAE@XZ			; std::runtime_error::~runtime_error
PUBLIC	__CTA2?AVruntime_error@std@@
PUBLIC	__CT??_R0?AVruntime_error@std@@@8??0runtime_error@std@@QAE@ABV01@@Z12
PUBLIC	??_R0?AVruntime_error@std@@@8			; std::runtime_error `RTTI Type Descriptor'
PUBLIC	??0runtime_error@std@@QAE@ABV01@@Z		; std::runtime_error::runtime_error
PUBLIC	__CT??_R0?AVexception@std@@@8??0exception@std@@QAE@ABV01@@Z12
PUBLIC	??_R0?AVexception@std@@@8			; std::exception `RTTI Type Descriptor'
EXTRN	__CxxThrowException@8:PROC
EXTRN	??0exception@std@@QAE@ABV01@@Z:PROC		; std::exception::exception
;	COMDAT ??_R0?AVexception@std@@@8
_DATA	SEGMENT
??_R0?AVexception@std@@@8 DD FLAT:??_7type_info@@6B@	; std::exception `RTTI Type Descriptor'
	DD	00H
	DB	'.?AVexception@std@@', 00H
_DATA	ENDS
;	COMDAT __CT??_R0?AVexception@std@@@8??0exception@std@@QAE@ABV01@@Z12
xdata$x	SEGMENT
__CT??_R0?AVexception@std@@@8??0exception@std@@QAE@ABV01@@Z12 DD 00H
	DD	FLAT:??_R0?AVexception@std@@@8
	DD	00H
	DD	0ffffffffH
	ORG $+4
	DD	0cH
	DD	FLAT:??0exception@std@@QAE@ABV01@@Z
xdata$x	ENDS
;	COMDAT ??_R0?AVruntime_error@std@@@8
_DATA	SEGMENT
??_R0?AVruntime_error@std@@@8 DD FLAT:??_7type_info@@6B@ ; std::runtime_error `RTTI Type Descriptor'
	DD	00H
	DB	'.?AVruntime_error@std@@', 00H
_DATA	ENDS
;	COMDAT __CT??_R0?AVruntime_error@std@@@8??0runtime_error@std@@QAE@ABV01@@Z12
xdata$x	SEGMENT
__CT??_R0?AVruntime_error@std@@@8??0runtime_error@std@@QAE@ABV01@@Z12 DD 00H
	DD	FLAT:??_R0?AVruntime_error@std@@@8
	DD	00H
	DD	0ffffffffH
	ORG $+4
	DD	0cH
	DD	FLAT:??0runtime_error@std@@QAE@ABV01@@Z
xdata$x	ENDS
;	COMDAT __CTA2?AVruntime_error@std@@
xdata$x	SEGMENT
__CTA2?AVruntime_error@std@@ DD 02H
	DD	FLAT:__CT??_R0?AVruntime_error@std@@@8??0runtime_error@std@@QAE@ABV01@@Z12
	DD	FLAT:__CT??_R0?AVexception@std@@@8??0exception@std@@QAE@ABV01@@Z12
xdata$x	ENDS
;	COMDAT __TI2?AVruntime_error@std@@
xdata$x	SEGMENT
__TI2?AVruntime_error@std@@ DD 00H
	DD	FLAT:??1runtime_error@std@@UAE@XZ
	DD	00H
	DD	FLAT:__CTA2?AVruntime_error@std@@
xdata$x	ENDS
;	COMDAT ??_C@_0CB@OHIHCHGJ@Cannot?5add?5goals?5to?5atomic?5goals@
CONST	SEGMENT
??_C@_0CB@OHIHCHGJ@Cannot?5add?5goals?5to?5atomic?5goals@ DB 'Cannot add '
	DB	'goals to atomic goals', 00H			; `string'
; Function compile flags: /Odtp /RTCsu
CONST	ENDS
;	COMDAT ?AddSubgoal@?$Goal@VAbstRaven_Bot@@@@UAEXPAV1@@Z
_TEXT	SEGMENT
$T142249 = -16						; size = 12
_this$ = -4						; size = 4
_g$ = 8							; size = 4
?AddSubgoal@?$Goal@VAbstRaven_Bot@@@@UAEXPAV1@@Z PROC	; Goal<AbstRaven_Bot>::AddSubgoal, COMDAT
; _this$ = ecx

; 77   :   {throw std::runtime_error("Cannot add goals to atomic goals");}

	push	ebp
	mov	ebp, esp
	sub	esp, 16					; 00000010H
	mov	eax, -858993460				; ccccccccH
	mov	DWORD PTR [ebp-16], eax
	mov	DWORD PTR [ebp-12], eax
	mov	DWORD PTR [ebp-8], eax
	mov	DWORD PTR [ebp-4], eax
	mov	DWORD PTR _this$[ebp], ecx
	push	OFFSET ??_C@_0CB@OHIHCHGJ@Cannot?5add?5goals?5to?5atomic?5goals@
	lea	ecx, DWORD PTR $T142249[ebp]
	call	??0runtime_error@std@@QAE@PBD@Z		; std::runtime_error::runtime_error
	push	OFFSET __TI2?AVruntime_error@std@@
	lea	eax, DWORD PTR $T142249[ebp]
	push	eax
	call	__CxxThrowException@8
$LN2@AddSubgoal:
	add	esp, 16					; 00000010H
	cmp	ebp, esp
	call	__RTC_CheckEsp
	mov	esp, ebp
	pop	ebp
	ret	4
?AddSubgoal@?$Goal@VAbstRaven_Bot@@@@UAEXPAV1@@Z ENDP	; Goal<AbstRaven_Bot>::AddSubgoal
_TEXT	ENDS
PUBLIC	??_7runtime_error@std@@6B@			; std::runtime_error::`vftable'
PUBLIC	??_R4runtime_error@std@@6B@			; std::runtime_error::`RTTI Complete Object Locator'
PUBLIC	??_R3runtime_error@std@@8			; std::runtime_error::`RTTI Class Hierarchy Descriptor'
PUBLIC	??_R2runtime_error@std@@8			; std::runtime_error::`RTTI Base Class Array'
PUBLIC	??_R1A@?0A@EA@runtime_error@std@@8		; std::runtime_error::`RTTI Base Class Descriptor at (0,-1,0,64)'
PUBLIC	??_R1A@?0A@EA@exception@std@@8			; std::exception::`RTTI Base Class Descriptor at (0,-1,0,64)'
PUBLIC	??_R3exception@std@@8				; std::exception::`RTTI Class Hierarchy Descriptor'
PUBLIC	??_R2exception@std@@8				; std::exception::`RTTI Base Class Array'
EXTRN	??0exception@std@@QAE@ABQBD@Z:PROC		; std::exception::exception
EXTRN	??_Eruntime_error@std@@UAEPAXI@Z:PROC		; std::runtime_error::`vector deleting destructor'
EXTRN	?what@exception@std@@UBEPBDXZ:PROC		; std::exception::what
;	COMDAT ??_R2exception@std@@8
; File c:\program files (x86)\microsoft visual studio 10.0\vc\include\stdexcept
rdata$r	SEGMENT
??_R2exception@std@@8 DD FLAT:??_R1A@?0A@EA@exception@std@@8 ; std::exception::`RTTI Base Class Array'
rdata$r	ENDS
;	COMDAT ??_R3exception@std@@8
rdata$r	SEGMENT
??_R3exception@std@@8 DD 00H				; std::exception::`RTTI Class Hierarchy Descriptor'
	DD	00H
	DD	01H
	DD	FLAT:??_R2exception@std@@8
rdata$r	ENDS
;	COMDAT ??_R1A@?0A@EA@exception@std@@8
rdata$r	SEGMENT
??_R1A@?0A@EA@exception@std@@8 DD FLAT:??_R0?AVexception@std@@@8 ; std::exception::`RTTI Base Class Descriptor at (0,-1,0,64)'
	DD	00H
	DD	00H
	DD	0ffffffffH
	DD	00H
	DD	040H
	DD	FLAT:??_R3exception@std@@8
rdata$r	ENDS
;	COMDAT ??_R1A@?0A@EA@runtime_error@std@@8
rdata$r	SEGMENT
??_R1A@?0A@EA@runtime_error@std@@8 DD FLAT:??_R0?AVruntime_error@std@@@8 ; std::runtime_error::`RTTI Base Class Descriptor at (0,-1,0,64)'
	DD	01H
	DD	00H
	DD	0ffffffffH
	DD	00H
	DD	040H
	DD	FLAT:??_R3runtime_error@std@@8
rdata$r	ENDS
;	COMDAT ??_R2runtime_error@std@@8
rdata$r	SEGMENT
??_R2runtime_error@std@@8 DD FLAT:??_R1A@?0A@EA@runtime_error@std@@8 ; std::runtime_error::`RTTI Base Class Array'
	DD	FLAT:??_R1A@?0A@EA@exception@std@@8
rdata$r	ENDS
;	COMDAT ??_R3runtime_error@std@@8
rdata$r	SEGMENT
??_R3runtime_error@std@@8 DD 00H			; std::runtime_error::`RTTI Class Hierarchy Descriptor'
	DD	00H
	DD	02H
	DD	FLAT:??_R2runtime_error@std@@8
rdata$r	ENDS
;	COMDAT ??_R4runtime_error@std@@6B@
rdata$r	SEGMENT
??_R4runtime_error@std@@6B@ DD 00H			; std::runtime_error::`RTTI Complete Object Locator'
	DD	00H
	DD	00H
	DD	FLAT:??_R0?AVruntime_error@std@@@8
	DD	FLAT:??_R3runtime_error@std@@8
rdata$r	ENDS
;	COMDAT ??_7runtime_error@std@@6B@
CONST	SEGMENT
??_7runtime_error@std@@6B@ DD FLAT:??_R4runtime_error@std@@6B@ ; std::runtime_error::`vftable'
	DD	FLAT:??_Eruntime_error@std@@UAEPAXI@Z
	DD	FLAT:?what@exception@std@@UBEPBDXZ
; Function compile flags: /Odtp /RTCsu
CONST	ENDS
;	COMDAT ??0runtime_error@std@@QAE@PBD@Z
_TEXT	SEGMENT
_this$ = -4						; size = 4
__Message$ = 8						; size = 4
??0runtime_error@std@@QAE@PBD@Z PROC			; std::runtime_error::runtime_error, COMDAT
; _this$ = ecx

; 170  : 		{	// construct from message string

	push	ebp
	mov	ebp, esp
	push	ecx
	mov	DWORD PTR [ebp-4], -858993460		; ccccccccH
	mov	DWORD PTR _this$[ebp], ecx
	lea	eax, DWORD PTR __Message$[ebp]
	push	eax
	mov	ecx, DWORD PTR _this$[ebp]
	call	??0exception@std@@QAE@ABQBD@Z		; std::exception::exception
	mov	ecx, DWORD PTR _this$[ebp]
	mov	DWORD PTR [ecx], OFFSET ??_7runtime_error@std@@6B@

; 171  : 		}

	mov	eax, DWORD PTR _this$[ebp]
	add	esp, 4
	cmp	ebp, esp
	call	__RTC_CheckEsp
	mov	esp, ebp
	pop	ebp
	ret	4
??0runtime_error@std@@QAE@PBD@Z ENDP			; std::runtime_error::runtime_error
; Function compile flags: /Odtp /RTCsu
_TEXT	ENDS
;	COMDAT ??_Gruntime_error@std@@UAEPAXI@Z
_TEXT	SEGMENT
_this$ = -4						; size = 4
___flags$ = 8						; size = 4
??_Gruntime_error@std@@UAEPAXI@Z PROC			; std::runtime_error::`scalar deleting destructor', COMDAT
; _this$ = ecx
	push	ebp
	mov	ebp, esp
	push	ecx
	mov	DWORD PTR [ebp-4], -858993460		; ccccccccH
	mov	DWORD PTR _this$[ebp], ecx
	mov	ecx, DWORD PTR _this$[ebp]
	call	??1runtime_error@std@@UAE@XZ
	mov	eax, DWORD PTR ___flags$[ebp]
	and	eax, 1
	je	SHORT $LN1@scalar@11
	mov	ecx, DWORD PTR _this$[ebp]
	push	ecx
	call	??3@YAXPAX@Z				; operator delete
	add	esp, 4
$LN1@scalar@11:
	mov	eax, DWORD PTR _this$[ebp]
	add	esp, 4
	cmp	ebp, esp
	call	__RTC_CheckEsp
	mov	esp, ebp
	pop	ebp
	ret	4
??_Gruntime_error@std@@UAEPAXI@Z ENDP			; std::runtime_error::`scalar deleting destructor'
_TEXT	ENDS
EXTRN	??1exception@std@@UAE@XZ:PROC			; std::exception::~exception
; Function compile flags: /Odtp /RTCsu
;	COMDAT ??1runtime_error@std@@UAE@XZ
_TEXT	SEGMENT
_this$ = -4						; size = 4
??1runtime_error@std@@UAE@XZ PROC			; std::runtime_error::~runtime_error, COMDAT
; _this$ = ecx
	push	ebp
	mov	ebp, esp
	push	ecx
	mov	DWORD PTR [ebp-4], -858993460		; ccccccccH
	mov	DWORD PTR _this$[ebp], ecx
	mov	ecx, DWORD PTR _this$[ebp]
	call	??1exception@std@@UAE@XZ		; std::exception::~exception
	add	esp, 4
	cmp	ebp, esp
	call	__RTC_CheckEsp
	mov	esp, ebp
	pop	ebp
	ret	0
??1runtime_error@std@@UAE@XZ ENDP			; std::runtime_error::~runtime_error
; Function compile flags: /Odtp /RTCsu
_TEXT	ENDS
;	COMDAT ??0runtime_error@std@@QAE@ABV01@@Z
_TEXT	SEGMENT
_this$ = -4						; size = 4
___that$ = 8						; size = 4
??0runtime_error@std@@QAE@ABV01@@Z PROC			; std::runtime_error::runtime_error, COMDAT
; _this$ = ecx
	push	ebp
	mov	ebp, esp
	push	ecx
	mov	DWORD PTR [ebp-4], -858993460		; ccccccccH
	mov	DWORD PTR _this$[ebp], ecx
	mov	eax, DWORD PTR ___that$[ebp]
	push	eax
	mov	ecx, DWORD PTR _this$[ebp]
	call	??0exception@std@@QAE@ABV01@@Z		; std::exception::exception
	mov	ecx, DWORD PTR _this$[ebp]
	mov	DWORD PTR [ecx], OFFSET ??_7runtime_error@std@@6B@
	mov	eax, DWORD PTR _this$[ebp]
	add	esp, 4
	cmp	ebp, esp
	call	__RTC_CheckEsp
	mov	esp, ebp
	pop	ebp
	ret	4
??0runtime_error@std@@QAE@ABV01@@Z ENDP			; std::runtime_error::runtime_error
; Function compile flags: /Odtp /RTCsu
; File c:\users\teaja\documents\artificial-fun\labravenprojecttest\common\goals\goal.h
_TEXT	ENDS
;	COMDAT ?GetType@?$Goal@VAbstRaven_Bot@@@@QBEHXZ
_TEXT	SEGMENT
_this$ = -4						; size = 4
?GetType@?$Goal@VAbstRaven_Bot@@@@QBEHXZ PROC		; Goal<AbstRaven_Bot>::GetType, COMDAT
; _this$ = ecx

; 84   :   int          GetType()const{return m_iType;}

	push	ebp
	mov	ebp, esp
	push	ecx
	mov	DWORD PTR [ebp-4], -858993460		; ccccccccH
	mov	DWORD PTR _this$[ebp], ecx
	mov	eax, DWORD PTR _this$[ebp]
	mov	eax, DWORD PTR [eax+4]
	mov	esp, ebp
	pop	ebp
	ret	0
?GetType@?$Goal@VAbstRaven_Bot@@@@QBEHXZ ENDP		; Goal<AbstRaven_Bot>::GetType
; Function compile flags: /Odtp /RTCsu
_TEXT	ENDS
;	COMDAT ?Render@?$Goal@VAbstRaven_Bot@@@@UAEXXZ
_TEXT	SEGMENT
_this$ = -4						; size = 4
?Render@?$Goal@VAbstRaven_Bot@@@@UAEXXZ PROC		; Goal<AbstRaven_Bot>::Render, COMDAT
; _this$ = ecx

; 93   :   virtual void Render(){}

	push	ebp
	mov	ebp, esp
	push	ecx
	mov	DWORD PTR [ebp-4], -858993460		; ccccccccH
	mov	DWORD PTR _this$[ebp], ecx
	mov	esp, ebp
	pop	ebp
	ret	0
?Render@?$Goal@VAbstRaven_Bot@@@@UAEXXZ ENDP		; Goal<AbstRaven_Bot>::Render
_TEXT	ENDS
PUBLIC	??$_Insert_rv@PAV?$Goal@VAbstRaven_Bot@@@@@?$list@PAV?$Goal@VAbstRaven_Bot@@@@V?$allocator@PAV?$Goal@VAbstRaven_Bot@@@@@std@@@std@@QAEXV?$_List_const_iterator@V?$_List_val@PAV?$Goal@VAbstRaven_Bot@@@@V?$allocator@PAV?$Goal@VAbstRaven_Bot@@@@@std@@@std@@@1@$$QAPAV?$Goal@VAbstRaven_Bot@@@@@Z ; std::list<Goal<AbstRaven_Bot> *,std::allocator<Goal<AbstRaven_Bot> *> >::_Insert_rv<Goal<AbstRaven_Bot> *>
PUBLIC	??0?$_List_const_iterator@V?$_List_val@PAV?$Goal@VAbstRaven_Bot@@@@V?$allocator@PAV?$Goal@VAbstRaven_Bot@@@@@std@@@std@@@std@@QAE@ABV01@@Z ; std::_List_const_iterator<std::_List_val<Goal<AbstRaven_Bot> *,std::allocator<Goal<AbstRaven_Bot> *> > >::_List_const_iterator<std::_List_val<Goal<AbstRaven_Bot> *,std::allocator<Goal<AbstRaven_Bot> *> > >
PUBLIC	??$forward@PAV?$Goal@VAbstRaven_Bot@@@@@std@@YA$$QAPAV?$Goal@VAbstRaven_Bot@@@@AAPAV1@@Z ; std::forward<Goal<AbstRaven_Bot> *>
;	COMDAT xdata$x
; File c:\program files (x86)\microsoft visual studio 10.0\vc\include\list
xdata$x	SEGMENT
__unwindtable$?push_back@?$list@PAV?$Goal@VAbstRaven_Bot@@@@V?$allocator@PAV?$Goal@VAbstRaven_Bot@@@@@std@@@std@@QAEX$$QAPAV?$Goal@VAbstRaven_Bot@@@@@Z DD 0ffffffffH
	DD	FLAT:__unwindfunclet$?push_back@?$list@PAV?$Goal@VAbstRaven_Bot@@@@V?$allocator@PAV?$Goal@VAbstRaven_Bot@@@@@std@@@std@@QAEX$$QAPAV?$Goal@VAbstRaven_Bot@@@@@Z$0
__ehfuncinfo$?push_back@?$list@PAV?$Goal@VAbstRaven_Bot@@@@V?$allocator@PAV?$Goal@VAbstRaven_Bot@@@@@std@@@std@@QAEX$$QAPAV?$Goal@VAbstRaven_Bot@@@@@Z DD 019930522H
	DD	01H
	DD	FLAT:__unwindtable$?push_back@?$list@PAV?$Goal@VAbstRaven_Bot@@@@V?$allocator@PAV?$Goal@VAbstRaven_Bot@@@@@std@@@std@@QAEX$$QAPAV?$Goal@VAbstRaven_Bot@@@@@Z
	DD	2 DUP(00H)
	DD	2 DUP(00H)
	DD	00H
	DD	01H
; Function compile flags: /Odtp /RTCsu
xdata$x	ENDS
;	COMDAT ?push_back@?$list@PAV?$Goal@VAbstRaven_Bot@@@@V?$allocator@PAV?$Goal@VAbstRaven_Bot@@@@@std@@@std@@QAEX$$QAPAV?$Goal@VAbstRaven_Bot@@@@@Z
_TEXT	SEGMENT
tv95 = -44						; size = 4
tv92 = -40						; size = 4
tv128 = -36						; size = 4
$T142269 = -32						; size = 12
$T142268 = -20						; size = 4
_this$ = -16						; size = 4
__$EHRec$ = -12						; size = 12
__Val$ = 8						; size = 4
?push_back@?$list@PAV?$Goal@VAbstRaven_Bot@@@@V?$allocator@PAV?$Goal@VAbstRaven_Bot@@@@@std@@@std@@QAEX$$QAPAV?$Goal@VAbstRaven_Bot@@@@@Z PROC ; std::list<Goal<AbstRaven_Bot> *,std::allocator<Goal<AbstRaven_Bot> *> >::push_back, COMDAT
; _this$ = ecx

; 716  : 		{	// insert element at end

	push	ebp
	mov	ebp, esp
	push	-1
	push	__ehhandler$?push_back@?$list@PAV?$Goal@VAbstRaven_Bot@@@@V?$allocator@PAV?$Goal@VAbstRaven_Bot@@@@@std@@@std@@QAEX$$QAPAV?$Goal@VAbstRaven_Bot@@@@@Z
	mov	eax, DWORD PTR fs:0
	push	eax
	sub	esp, 32					; 00000020H
	mov	eax, -858993460				; ccccccccH
	mov	DWORD PTR [ebp-44], eax
	mov	DWORD PTR [ebp-40], eax
	mov	DWORD PTR [ebp-36], eax
	mov	DWORD PTR [ebp-32], eax
	mov	DWORD PTR [ebp-28], eax
	mov	DWORD PTR [ebp-24], eax
	mov	DWORD PTR [ebp-20], eax
	mov	DWORD PTR [ebp-16], eax
	mov	eax, DWORD PTR ___security_cookie
	xor	eax, ebp
	push	eax
	lea	eax, DWORD PTR __$EHRec$[ebp]
	mov	DWORD PTR fs:0, eax
	mov	DWORD PTR _this$[ebp], ecx

; 717  : 		_Insert_rv(end(), _STD forward<_Ty>(_Val));

	mov	eax, DWORD PTR __Val$[ebp]
	push	eax
	call	??$forward@PAV?$Goal@VAbstRaven_Bot@@@@@std@@YA$$QAPAV?$Goal@VAbstRaven_Bot@@@@AAPAV1@@Z ; std::forward<Goal<AbstRaven_Bot> *>
	add	esp, 4
	push	eax
	lea	ecx, DWORD PTR $T142269[ebp]
	push	ecx
	mov	ecx, DWORD PTR _this$[ebp]
	call	?end@?$list@PAV?$Goal@VAbstRaven_Bot@@@@V?$allocator@PAV?$Goal@VAbstRaven_Bot@@@@@std@@@std@@QAE?AV?$_List_iterator@V?$_List_val@PAV?$Goal@VAbstRaven_Bot@@@@V?$allocator@PAV?$Goal@VAbstRaven_Bot@@@@@std@@@std@@@2@XZ ; std::list<Goal<AbstRaven_Bot> *,std::allocator<Goal<AbstRaven_Bot> *> >::end
	mov	DWORD PTR tv128[ebp], eax
	mov	edx, DWORD PTR tv128[ebp]
	mov	DWORD PTR tv92[ebp], edx
	mov	DWORD PTR __$EHRec$[ebp+8], 0
	sub	esp, 12					; 0000000cH
	mov	ecx, esp
	mov	DWORD PTR $T142268[ebp], esp
	mov	eax, DWORD PTR tv92[ebp]
	push	eax
	call	??0?$_List_const_iterator@V?$_List_val@PAV?$Goal@VAbstRaven_Bot@@@@V?$allocator@PAV?$Goal@VAbstRaven_Bot@@@@@std@@@std@@@std@@QAE@ABV01@@Z
	mov	DWORD PTR tv95[ebp], eax
	mov	ecx, DWORD PTR _this$[ebp]
	call	??$_Insert_rv@PAV?$Goal@VAbstRaven_Bot@@@@@?$list@PAV?$Goal@VAbstRaven_Bot@@@@V?$allocator@PAV?$Goal@VAbstRaven_Bot@@@@@std@@@std@@QAEXV?$_List_const_iterator@V?$_List_val@PAV?$Goal@VAbstRaven_Bot@@@@V?$allocator@PAV?$Goal@VAbstRaven_Bot@@@@@std@@@std@@@1@$$QAPAV?$Goal@VAbstRaven_Bot@@@@@Z ; std::list<Goal<AbstRaven_Bot> *,std::allocator<Goal<AbstRaven_Bot> *> >::_Insert_rv<Goal<AbstRaven_Bot> *>
	mov	DWORD PTR __$EHRec$[ebp+8], -1
	lea	ecx, DWORD PTR $T142269[ebp]
	call	??1?$_List_iterator@V?$_List_val@PAV?$Goal@VAbstRaven_Bot@@@@V?$allocator@PAV?$Goal@VAbstRaven_Bot@@@@@std@@@std@@@std@@QAE@XZ

; 718  : 		}

	mov	ecx, DWORD PTR __$EHRec$[ebp]
	mov	DWORD PTR fs:0, ecx
	pop	ecx
	add	esp, 44					; 0000002cH
	cmp	ebp, esp
	call	__RTC_CheckEsp
	mov	esp, ebp
	pop	ebp
	ret	4
_TEXT	ENDS
;	COMDAT text$x
text$x	SEGMENT
__unwindfunclet$?push_back@?$list@PAV?$Goal@VAbstRaven_Bot@@@@V?$allocator@PAV?$Goal@VAbstRaven_Bot@@@@@std@@@std@@QAEX$$QAPAV?$Goal@VAbstRaven_Bot@@@@@Z$0:
	lea	ecx, DWORD PTR $T142269[ebp]
	jmp	??1?$_List_iterator@V?$_List_val@PAV?$Goal@VAbstRaven_Bot@@@@V?$allocator@PAV?$Goal@VAbstRaven_Bot@@@@@std@@@std@@@std@@QAE@XZ
__ehhandler$?push_back@?$list@PAV?$Goal@VAbstRaven_Bot@@@@V?$allocator@PAV?$Goal@VAbstRaven_Bot@@@@@std@@@std@@QAEX$$QAPAV?$Goal@VAbstRaven_Bot@@@@@Z:
	mov	edx, DWORD PTR [esp+8]
	lea	eax, DWORD PTR [edx+12]
	mov	ecx, DWORD PTR [edx-36]
	xor	ecx, eax
	call	@__security_check_cookie@4
	mov	eax, OFFSET __ehfuncinfo$?push_back@?$list@PAV?$Goal@VAbstRaven_Bot@@@@V?$allocator@PAV?$Goal@VAbstRaven_Bot@@@@@std@@@std@@QAEX$$QAPAV?$Goal@VAbstRaven_Bot@@@@@Z
	jmp	___CxxFrameHandler3
text$x	ENDS
?push_back@?$list@PAV?$Goal@VAbstRaven_Bot@@@@V?$allocator@PAV?$Goal@VAbstRaven_Bot@@@@@std@@@std@@QAEX$$QAPAV?$Goal@VAbstRaven_Bot@@@@@Z ENDP ; std::list<Goal<AbstRaven_Bot> *,std::allocator<Goal<AbstRaven_Bot> *> >::push_back
PUBLIC	??0?$_List_iterator@V?$_List_val@PAV?$Goal@VAbstRaven_Bot@@@@V?$allocator@PAV?$Goal@VAbstRaven_Bot@@@@@std@@@std@@@std@@QAE@PAU_Node@?$_List_nod@PAV?$Goal@VAbstRaven_Bot@@@@V?$allocator@PAV?$Goal@VAbstRaven_Bot@@@@@std@@@1@PBV?$_List_val@PAV?$Goal@VAbstRaven_Bot@@@@V?$allocator@PAV?$Goal@VAbstRaven_Bot@@@@@std@@@1@@Z ; std::_List_iterator<std::_List_val<Goal<AbstRaven_Bot> *,std::allocator<Goal<AbstRaven_Bot> *> > >::_List_iterator<std::_List_val<Goal<AbstRaven_Bot> *,std::allocator<Goal<AbstRaven_Bot> *> > >
