; Listing generated by Microsoft (R) Optimizing Compiler Version 16.00.40219.01 

	TITLE	C:\Users\Teaja\Documents\Artificial-Fun\LabRavenProjectTest\Raven\goals\Goal_HuntTarget.cpp
	.686P
	.XMM
	include listing.inc
	.model	flat

INCLUDELIB LIBCMTD
INCLUDELIB OLDNAMES

PUBLIC	?has_denorm@_Num_base@std@@2W4float_denorm_style@2@B ; std::_Num_base::has_denorm
PUBLIC	?has_denorm_loss@_Num_base@std@@2_NB		; std::_Num_base::has_denorm_loss
PUBLIC	?has_infinity@_Num_base@std@@2_NB		; std::_Num_base::has_infinity
PUBLIC	?has_quiet_NaN@_Num_base@std@@2_NB		; std::_Num_base::has_quiet_NaN
PUBLIC	?has_signaling_NaN@_Num_base@std@@2_NB		; std::_Num_base::has_signaling_NaN
PUBLIC	?is_bounded@_Num_base@std@@2_NB			; std::_Num_base::is_bounded
PUBLIC	?is_exact@_Num_base@std@@2_NB			; std::_Num_base::is_exact
PUBLIC	?is_iec559@_Num_base@std@@2_NB			; std::_Num_base::is_iec559
PUBLIC	?is_integer@_Num_base@std@@2_NB			; std::_Num_base::is_integer
PUBLIC	?is_modulo@_Num_base@std@@2_NB			; std::_Num_base::is_modulo
PUBLIC	?is_signed@_Num_base@std@@2_NB			; std::_Num_base::is_signed
PUBLIC	?is_specialized@_Num_base@std@@2_NB		; std::_Num_base::is_specialized
PUBLIC	?tinyness_before@_Num_base@std@@2_NB		; std::_Num_base::tinyness_before
PUBLIC	?traps@_Num_base@std@@2_NB			; std::_Num_base::traps
PUBLIC	?round_style@_Num_base@std@@2W4float_round_style@2@B ; std::_Num_base::round_style
PUBLIC	?digits@_Num_base@std@@2HB			; std::_Num_base::digits
PUBLIC	?digits10@_Num_base@std@@2HB			; std::_Num_base::digits10
PUBLIC	?max_digits10@_Num_base@std@@2HB		; std::_Num_base::max_digits10
PUBLIC	?max_exponent@_Num_base@std@@2HB		; std::_Num_base::max_exponent
PUBLIC	?max_exponent10@_Num_base@std@@2HB		; std::_Num_base::max_exponent10
PUBLIC	?min_exponent@_Num_base@std@@2HB		; std::_Num_base::min_exponent
PUBLIC	?min_exponent10@_Num_base@std@@2HB		; std::_Num_base::min_exponent10
PUBLIC	?radix@_Num_base@std@@2HB			; std::_Num_base::radix
PUBLIC	?is_bounded@_Num_int_base@std@@2_NB		; std::_Num_int_base::is_bounded
PUBLIC	?is_exact@_Num_int_base@std@@2_NB		; std::_Num_int_base::is_exact
PUBLIC	?is_integer@_Num_int_base@std@@2_NB		; std::_Num_int_base::is_integer
PUBLIC	?is_modulo@_Num_int_base@std@@2_NB		; std::_Num_int_base::is_modulo
PUBLIC	?is_specialized@_Num_int_base@std@@2_NB		; std::_Num_int_base::is_specialized
PUBLIC	?radix@_Num_int_base@std@@2HB			; std::_Num_int_base::radix
PUBLIC	?has_denorm@_Num_float_base@std@@2W4float_denorm_style@2@B ; std::_Num_float_base::has_denorm
PUBLIC	?has_denorm_loss@_Num_float_base@std@@2_NB	; std::_Num_float_base::has_denorm_loss
PUBLIC	?has_infinity@_Num_float_base@std@@2_NB		; std::_Num_float_base::has_infinity
PUBLIC	?has_quiet_NaN@_Num_float_base@std@@2_NB	; std::_Num_float_base::has_quiet_NaN
PUBLIC	?has_signaling_NaN@_Num_float_base@std@@2_NB	; std::_Num_float_base::has_signaling_NaN
PUBLIC	?is_bounded@_Num_float_base@std@@2_NB		; std::_Num_float_base::is_bounded
PUBLIC	?is_exact@_Num_float_base@std@@2_NB		; std::_Num_float_base::is_exact
PUBLIC	?is_iec559@_Num_float_base@std@@2_NB		; std::_Num_float_base::is_iec559
PUBLIC	?is_integer@_Num_float_base@std@@2_NB		; std::_Num_float_base::is_integer
PUBLIC	?is_modulo@_Num_float_base@std@@2_NB		; std::_Num_float_base::is_modulo
PUBLIC	?is_signed@_Num_float_base@std@@2_NB		; std::_Num_float_base::is_signed
PUBLIC	?is_specialized@_Num_float_base@std@@2_NB	; std::_Num_float_base::is_specialized
PUBLIC	?tinyness_before@_Num_float_base@std@@2_NB	; std::_Num_float_base::tinyness_before
PUBLIC	?traps@_Num_float_base@std@@2_NB		; std::_Num_float_base::traps
PUBLIC	?round_style@_Num_float_base@std@@2W4float_round_style@2@B ; std::_Num_float_base::round_style
PUBLIC	?radix@_Num_float_base@std@@2HB			; std::_Num_float_base::radix
PUBLIC	?is_signed@?$numeric_limits@D@std@@2_NB		; std::numeric_limits<char>::is_signed
PUBLIC	?digits@?$numeric_limits@D@std@@2HB		; std::numeric_limits<char>::digits
PUBLIC	?digits10@?$numeric_limits@D@std@@2HB		; std::numeric_limits<char>::digits10
PUBLIC	?max_digits10@?$numeric_limits@D@std@@2HB	; std::numeric_limits<char>::max_digits10
PUBLIC	?is_signed@?$numeric_limits@_W@std@@2_NB	; std::numeric_limits<wchar_t>::is_signed
PUBLIC	?digits@?$numeric_limits@_W@std@@2HB		; std::numeric_limits<wchar_t>::digits
PUBLIC	?digits10@?$numeric_limits@_W@std@@2HB		; std::numeric_limits<wchar_t>::digits10
PUBLIC	?max_digits10@?$numeric_limits@_W@std@@2HB	; std::numeric_limits<wchar_t>::max_digits10
PUBLIC	?is_modulo@?$numeric_limits@_N@std@@2_NB	; std::numeric_limits<bool>::is_modulo
PUBLIC	?is_signed@?$numeric_limits@_N@std@@2_NB	; std::numeric_limits<bool>::is_signed
PUBLIC	?digits@?$numeric_limits@_N@std@@2HB		; std::numeric_limits<bool>::digits
PUBLIC	?digits10@?$numeric_limits@_N@std@@2HB		; std::numeric_limits<bool>::digits10
PUBLIC	?max_digits10@?$numeric_limits@_N@std@@2HB	; std::numeric_limits<bool>::max_digits10
PUBLIC	?is_signed@?$numeric_limits@C@std@@2_NB		; std::numeric_limits<signed char>::is_signed
PUBLIC	?digits@?$numeric_limits@C@std@@2HB		; std::numeric_limits<signed char>::digits
PUBLIC	?digits10@?$numeric_limits@C@std@@2HB		; std::numeric_limits<signed char>::digits10
PUBLIC	?max_digits10@?$numeric_limits@C@std@@2HB	; std::numeric_limits<signed char>::max_digits10
PUBLIC	?is_signed@?$numeric_limits@E@std@@2_NB		; std::numeric_limits<unsigned char>::is_signed
PUBLIC	?digits@?$numeric_limits@E@std@@2HB		; std::numeric_limits<unsigned char>::digits
PUBLIC	?digits10@?$numeric_limits@E@std@@2HB		; std::numeric_limits<unsigned char>::digits10
PUBLIC	?max_digits10@?$numeric_limits@E@std@@2HB	; std::numeric_limits<unsigned char>::max_digits10
PUBLIC	?is_signed@?$numeric_limits@F@std@@2_NB		; std::numeric_limits<short>::is_signed
PUBLIC	?digits@?$numeric_limits@F@std@@2HB		; std::numeric_limits<short>::digits
PUBLIC	?digits10@?$numeric_limits@F@std@@2HB		; std::numeric_limits<short>::digits10
PUBLIC	?max_digits10@?$numeric_limits@F@std@@2HB	; std::numeric_limits<short>::max_digits10
PUBLIC	?is_signed@?$numeric_limits@G@std@@2_NB		; std::numeric_limits<unsigned short>::is_signed
PUBLIC	?digits@?$numeric_limits@G@std@@2HB		; std::numeric_limits<unsigned short>::digits
PUBLIC	?digits10@?$numeric_limits@G@std@@2HB		; std::numeric_limits<unsigned short>::digits10
PUBLIC	?max_digits10@?$numeric_limits@G@std@@2HB	; std::numeric_limits<unsigned short>::max_digits10
PUBLIC	?is_signed@?$numeric_limits@H@std@@2_NB		; std::numeric_limits<int>::is_signed
PUBLIC	?digits@?$numeric_limits@H@std@@2HB		; std::numeric_limits<int>::digits
PUBLIC	?digits10@?$numeric_limits@H@std@@2HB		; std::numeric_limits<int>::digits10
PUBLIC	?max_digits10@?$numeric_limits@H@std@@2HB	; std::numeric_limits<int>::max_digits10
PUBLIC	?is_signed@?$numeric_limits@I@std@@2_NB		; std::numeric_limits<unsigned int>::is_signed
PUBLIC	?digits@?$numeric_limits@I@std@@2HB		; std::numeric_limits<unsigned int>::digits
PUBLIC	?digits10@?$numeric_limits@I@std@@2HB		; std::numeric_limits<unsigned int>::digits10
PUBLIC	?max_digits10@?$numeric_limits@I@std@@2HB	; std::numeric_limits<unsigned int>::max_digits10
PUBLIC	?is_signed@?$numeric_limits@J@std@@2_NB		; std::numeric_limits<long>::is_signed
PUBLIC	?digits@?$numeric_limits@J@std@@2HB		; std::numeric_limits<long>::digits
PUBLIC	?digits10@?$numeric_limits@J@std@@2HB		; std::numeric_limits<long>::digits10
PUBLIC	?max_digits10@?$numeric_limits@J@std@@2HB	; std::numeric_limits<long>::max_digits10
PUBLIC	?is_signed@?$numeric_limits@K@std@@2_NB		; std::numeric_limits<unsigned long>::is_signed
PUBLIC	?digits@?$numeric_limits@K@std@@2HB		; std::numeric_limits<unsigned long>::digits
PUBLIC	?digits10@?$numeric_limits@K@std@@2HB		; std::numeric_limits<unsigned long>::digits10
PUBLIC	?max_digits10@?$numeric_limits@K@std@@2HB	; std::numeric_limits<unsigned long>::max_digits10
PUBLIC	?is_signed@?$numeric_limits@_J@std@@2_NB	; std::numeric_limits<__int64>::is_signed
PUBLIC	?digits@?$numeric_limits@_J@std@@2HB		; std::numeric_limits<__int64>::digits
PUBLIC	?digits10@?$numeric_limits@_J@std@@2HB		; std::numeric_limits<__int64>::digits10
PUBLIC	?max_digits10@?$numeric_limits@_J@std@@2HB	; std::numeric_limits<__int64>::max_digits10
PUBLIC	?is_signed@?$numeric_limits@_K@std@@2_NB	; std::numeric_limits<unsigned __int64>::is_signed
PUBLIC	?digits@?$numeric_limits@_K@std@@2HB		; std::numeric_limits<unsigned __int64>::digits
PUBLIC	?digits10@?$numeric_limits@_K@std@@2HB		; std::numeric_limits<unsigned __int64>::digits10
PUBLIC	?max_digits10@?$numeric_limits@_K@std@@2HB	; std::numeric_limits<unsigned __int64>::max_digits10
PUBLIC	?digits@?$numeric_limits@M@std@@2HB		; std::numeric_limits<float>::digits
PUBLIC	?digits10@?$numeric_limits@M@std@@2HB		; std::numeric_limits<float>::digits10
PUBLIC	?max_digits10@?$numeric_limits@M@std@@2HB	; std::numeric_limits<float>::max_digits10
PUBLIC	?max_exponent@?$numeric_limits@M@std@@2HB	; std::numeric_limits<float>::max_exponent
PUBLIC	?max_exponent10@?$numeric_limits@M@std@@2HB	; std::numeric_limits<float>::max_exponent10
PUBLIC	?min_exponent@?$numeric_limits@M@std@@2HB	; std::numeric_limits<float>::min_exponent
PUBLIC	?min_exponent10@?$numeric_limits@M@std@@2HB	; std::numeric_limits<float>::min_exponent10
PUBLIC	?digits@?$numeric_limits@N@std@@2HB		; std::numeric_limits<double>::digits
PUBLIC	?digits10@?$numeric_limits@N@std@@2HB		; std::numeric_limits<double>::digits10
PUBLIC	?max_digits10@?$numeric_limits@N@std@@2HB	; std::numeric_limits<double>::max_digits10
PUBLIC	?max_exponent@?$numeric_limits@N@std@@2HB	; std::numeric_limits<double>::max_exponent
PUBLIC	?max_exponent10@?$numeric_limits@N@std@@2HB	; std::numeric_limits<double>::max_exponent10
PUBLIC	?min_exponent@?$numeric_limits@N@std@@2HB	; std::numeric_limits<double>::min_exponent
PUBLIC	?min_exponent10@?$numeric_limits@N@std@@2HB	; std::numeric_limits<double>::min_exponent10
PUBLIC	?digits@?$numeric_limits@O@std@@2HB		; std::numeric_limits<long double>::digits
PUBLIC	?digits10@?$numeric_limits@O@std@@2HB		; std::numeric_limits<long double>::digits10
PUBLIC	?max_digits10@?$numeric_limits@O@std@@2HB	; std::numeric_limits<long double>::max_digits10
PUBLIC	?max_exponent@?$numeric_limits@O@std@@2HB	; std::numeric_limits<long double>::max_exponent
PUBLIC	?max_exponent10@?$numeric_limits@O@std@@2HB	; std::numeric_limits<long double>::max_exponent10
PUBLIC	?min_exponent@?$numeric_limits@O@std@@2HB	; std::numeric_limits<long double>::min_exponent
PUBLIC	?min_exponent10@?$numeric_limits@O@std@@2HB	; std::numeric_limits<long double>::min_exponent10
PUBLIC	?value@?$integral_constant@_N$0A@@tr1@std@@2_NB	; std::tr1::integral_constant<bool,0>::value
PUBLIC	?value@?$integral_constant@_N$00@tr1@std@@2_NB	; std::tr1::integral_constant<bool,1>::value
PUBLIC	?value@?$integral_constant@I$0A@@tr1@std@@2IB	; std::tr1::integral_constant<unsigned int,0>::value
PUBLIC	?_Rank@?$_Arithmetic_traits@_N@std@@2HB		; std::_Arithmetic_traits<bool>::_Rank
PUBLIC	?_Rank@?$_Arithmetic_traits@D@std@@2HB		; std::_Arithmetic_traits<char>::_Rank
PUBLIC	?_Rank@?$_Arithmetic_traits@C@std@@2HB		; std::_Arithmetic_traits<signed char>::_Rank
PUBLIC	?_Rank@?$_Arithmetic_traits@E@std@@2HB		; std::_Arithmetic_traits<unsigned char>::_Rank
PUBLIC	?_Rank@?$_Arithmetic_traits@F@std@@2HB		; std::_Arithmetic_traits<short>::_Rank
PUBLIC	?_Rank@?$_Arithmetic_traits@G@std@@2HB		; std::_Arithmetic_traits<unsigned short>::_Rank
PUBLIC	?_Rank@?$_Arithmetic_traits@H@std@@2HB		; std::_Arithmetic_traits<int>::_Rank
PUBLIC	?_Rank@?$_Arithmetic_traits@I@std@@2HB		; std::_Arithmetic_traits<unsigned int>::_Rank
PUBLIC	?_Rank@?$_Arithmetic_traits@J@std@@2HB		; std::_Arithmetic_traits<long>::_Rank
PUBLIC	?_Rank@?$_Arithmetic_traits@K@std@@2HB		; std::_Arithmetic_traits<unsigned long>::_Rank
PUBLIC	?_Rank@?$_Arithmetic_traits@_J@std@@2HB		; std::_Arithmetic_traits<__int64>::_Rank
PUBLIC	?_Rank@?$_Arithmetic_traits@_K@std@@2HB		; std::_Arithmetic_traits<unsigned __int64>::_Rank
PUBLIC	?_Rank@?$_Arithmetic_traits@M@std@@2HB		; std::_Arithmetic_traits<float>::_Rank
PUBLIC	?_Rank@?$_Arithmetic_traits@N@std@@2HB		; std::_Arithmetic_traits<double>::_Rank
PUBLIC	?_Rank@?$_Arithmetic_traits@O@std@@2HB		; std::_Arithmetic_traits<long double>::_Rank
PUBLIC	?collate@?$_Locbase@H@std@@2HB			; std::_Locbase<int>::collate
PUBLIC	?ctype@?$_Locbase@H@std@@2HB			; std::_Locbase<int>::ctype
PUBLIC	?monetary@?$_Locbase@H@std@@2HB			; std::_Locbase<int>::monetary
PUBLIC	?numeric@?$_Locbase@H@std@@2HB			; std::_Locbase<int>::numeric
PUBLIC	?time@?$_Locbase@H@std@@2HB			; std::_Locbase<int>::time
PUBLIC	?messages@?$_Locbase@H@std@@2HB			; std::_Locbase<int>::messages
PUBLIC	?all@?$_Locbase@H@std@@2HB			; std::_Locbase<int>::all
PUBLIC	?none@?$_Locbase@H@std@@2HB			; std::_Locbase<int>::none
PUBLIC	?table_size@?$ctype@D@std@@2IB			; std::ctype<char>::table_size
PUBLIC	?skipws@?$_Iosb@H@std@@2W4_Fmtflags@12@B	; std::_Iosb<int>::skipws
PUBLIC	?unitbuf@?$_Iosb@H@std@@2W4_Fmtflags@12@B	; std::_Iosb<int>::unitbuf
PUBLIC	?uppercase@?$_Iosb@H@std@@2W4_Fmtflags@12@B	; std::_Iosb<int>::uppercase
PUBLIC	?showbase@?$_Iosb@H@std@@2W4_Fmtflags@12@B	; std::_Iosb<int>::showbase
PUBLIC	?showpoint@?$_Iosb@H@std@@2W4_Fmtflags@12@B	; std::_Iosb<int>::showpoint
PUBLIC	?showpos@?$_Iosb@H@std@@2W4_Fmtflags@12@B	; std::_Iosb<int>::showpos
PUBLIC	?left@?$_Iosb@H@std@@2W4_Fmtflags@12@B		; std::_Iosb<int>::left
PUBLIC	?right@?$_Iosb@H@std@@2W4_Fmtflags@12@B		; std::_Iosb<int>::right
PUBLIC	?internal@?$_Iosb@H@std@@2W4_Fmtflags@12@B	; std::_Iosb<int>::internal
PUBLIC	?dec@?$_Iosb@H@std@@2W4_Fmtflags@12@B		; std::_Iosb<int>::dec
PUBLIC	?oct@?$_Iosb@H@std@@2W4_Fmtflags@12@B		; std::_Iosb<int>::oct
PUBLIC	?hex@?$_Iosb@H@std@@2W4_Fmtflags@12@B		; std::_Iosb<int>::hex
PUBLIC	?scientific@?$_Iosb@H@std@@2W4_Fmtflags@12@B	; std::_Iosb<int>::scientific
PUBLIC	?fixed@?$_Iosb@H@std@@2W4_Fmtflags@12@B		; std::_Iosb<int>::fixed
PUBLIC	?hexfloat@?$_Iosb@H@std@@2W4_Fmtflags@12@B	; std::_Iosb<int>::hexfloat
PUBLIC	?boolalpha@?$_Iosb@H@std@@2W4_Fmtflags@12@B	; std::_Iosb<int>::boolalpha
PUBLIC	?_Stdio@?$_Iosb@H@std@@2W4_Fmtflags@12@B	; std::_Iosb<int>::_Stdio
PUBLIC	?adjustfield@?$_Iosb@H@std@@2W4_Fmtflags@12@B	; std::_Iosb<int>::adjustfield
PUBLIC	?basefield@?$_Iosb@H@std@@2W4_Fmtflags@12@B	; std::_Iosb<int>::basefield
PUBLIC	?floatfield@?$_Iosb@H@std@@2W4_Fmtflags@12@B	; std::_Iosb<int>::floatfield
PUBLIC	?goodbit@?$_Iosb@H@std@@2W4_Iostate@12@B	; std::_Iosb<int>::goodbit
PUBLIC	?eofbit@?$_Iosb@H@std@@2W4_Iostate@12@B		; std::_Iosb<int>::eofbit
PUBLIC	?failbit@?$_Iosb@H@std@@2W4_Iostate@12@B	; std::_Iosb<int>::failbit
PUBLIC	?badbit@?$_Iosb@H@std@@2W4_Iostate@12@B		; std::_Iosb<int>::badbit
PUBLIC	?_Hardfail@?$_Iosb@H@std@@2W4_Iostate@12@B	; std::_Iosb<int>::_Hardfail
PUBLIC	?in@?$_Iosb@H@std@@2W4_Openmode@12@B		; std::_Iosb<int>::in
PUBLIC	?out@?$_Iosb@H@std@@2W4_Openmode@12@B		; std::_Iosb<int>::out
PUBLIC	?ate@?$_Iosb@H@std@@2W4_Openmode@12@B		; std::_Iosb<int>::ate
PUBLIC	?app@?$_Iosb@H@std@@2W4_Openmode@12@B		; std::_Iosb<int>::app
PUBLIC	?trunc@?$_Iosb@H@std@@2W4_Openmode@12@B		; std::_Iosb<int>::trunc
PUBLIC	?_Nocreate@?$_Iosb@H@std@@2W4_Openmode@12@B	; std::_Iosb<int>::_Nocreate
PUBLIC	?_Noreplace@?$_Iosb@H@std@@2W4_Openmode@12@B	; std::_Iosb<int>::_Noreplace
PUBLIC	?binary@?$_Iosb@H@std@@2W4_Openmode@12@B	; std::_Iosb<int>::binary
PUBLIC	?beg@?$_Iosb@H@std@@2W4_Seekdir@12@B		; std::_Iosb<int>::beg
PUBLIC	?cur@?$_Iosb@H@std@@2W4_Seekdir@12@B		; std::_Iosb<int>::cur
PUBLIC	?end@?$_Iosb@H@std@@2W4_Seekdir@12@B		; std::_Iosb<int>::end
CONST	SEGMENT
_Pi	DQ	0400921f9f01b866er		; 3.14159
_colors	DD	0ffH
	DD	0ff0000H
	DD	0ff00H
	DD	00H
	DD	0c8c8ffH
	DD	0c8c8c8H
	DD	0ffffH
	DD	0aaffH
	DD	0aa00ffH
	DD	05a85H
	DD	0ffffffH
	DD	06400H
	DD	0ffff00H
	DD	0c8c8c8H
	DD	0e6e6ffH
	ORG $+4
_pi	DQ	0400921f9f01b866er		; 3.14159
CONST	ENDS
;	COMDAT ?end@?$_Iosb@H@std@@2W4_Seekdir@12@B
CONST	SEGMENT
?end@?$_Iosb@H@std@@2W4_Seekdir@12@B DD 02H		; std::_Iosb<int>::end
CONST	ENDS
;	COMDAT ?cur@?$_Iosb@H@std@@2W4_Seekdir@12@B
CONST	SEGMENT
?cur@?$_Iosb@H@std@@2W4_Seekdir@12@B DD 01H		; std::_Iosb<int>::cur
CONST	ENDS
;	COMDAT ?beg@?$_Iosb@H@std@@2W4_Seekdir@12@B
CONST	SEGMENT
?beg@?$_Iosb@H@std@@2W4_Seekdir@12@B DD 00H		; std::_Iosb<int>::beg
CONST	ENDS
;	COMDAT ?binary@?$_Iosb@H@std@@2W4_Openmode@12@B
CONST	SEGMENT
?binary@?$_Iosb@H@std@@2W4_Openmode@12@B DD 020H	; std::_Iosb<int>::binary
CONST	ENDS
;	COMDAT ?_Noreplace@?$_Iosb@H@std@@2W4_Openmode@12@B
CONST	SEGMENT
?_Noreplace@?$_Iosb@H@std@@2W4_Openmode@12@B DD 080H	; std::_Iosb<int>::_Noreplace
CONST	ENDS
;	COMDAT ?_Nocreate@?$_Iosb@H@std@@2W4_Openmode@12@B
CONST	SEGMENT
?_Nocreate@?$_Iosb@H@std@@2W4_Openmode@12@B DD 040H	; std::_Iosb<int>::_Nocreate
CONST	ENDS
;	COMDAT ?trunc@?$_Iosb@H@std@@2W4_Openmode@12@B
CONST	SEGMENT
?trunc@?$_Iosb@H@std@@2W4_Openmode@12@B DD 010H		; std::_Iosb<int>::trunc
CONST	ENDS
;	COMDAT ?app@?$_Iosb@H@std@@2W4_Openmode@12@B
CONST	SEGMENT
?app@?$_Iosb@H@std@@2W4_Openmode@12@B DD 08H		; std::_Iosb<int>::app
CONST	ENDS
;	COMDAT ?ate@?$_Iosb@H@std@@2W4_Openmode@12@B
CONST	SEGMENT
?ate@?$_Iosb@H@std@@2W4_Openmode@12@B DD 04H		; std::_Iosb<int>::ate
CONST	ENDS
;	COMDAT ?out@?$_Iosb@H@std@@2W4_Openmode@12@B
CONST	SEGMENT
?out@?$_Iosb@H@std@@2W4_Openmode@12@B DD 02H		; std::_Iosb<int>::out
CONST	ENDS
;	COMDAT ?in@?$_Iosb@H@std@@2W4_Openmode@12@B
CONST	SEGMENT
?in@?$_Iosb@H@std@@2W4_Openmode@12@B DD 01H		; std::_Iosb<int>::in
CONST	ENDS
;	COMDAT ?_Hardfail@?$_Iosb@H@std@@2W4_Iostate@12@B
CONST	SEGMENT
?_Hardfail@?$_Iosb@H@std@@2W4_Iostate@12@B DD 010H	; std::_Iosb<int>::_Hardfail
CONST	ENDS
;	COMDAT ?badbit@?$_Iosb@H@std@@2W4_Iostate@12@B
CONST	SEGMENT
?badbit@?$_Iosb@H@std@@2W4_Iostate@12@B DD 04H		; std::_Iosb<int>::badbit
CONST	ENDS
;	COMDAT ?failbit@?$_Iosb@H@std@@2W4_Iostate@12@B
CONST	SEGMENT
?failbit@?$_Iosb@H@std@@2W4_Iostate@12@B DD 02H		; std::_Iosb<int>::failbit
CONST	ENDS
;	COMDAT ?eofbit@?$_Iosb@H@std@@2W4_Iostate@12@B
CONST	SEGMENT
?eofbit@?$_Iosb@H@std@@2W4_Iostate@12@B DD 01H		; std::_Iosb<int>::eofbit
CONST	ENDS
;	COMDAT ?goodbit@?$_Iosb@H@std@@2W4_Iostate@12@B
CONST	SEGMENT
?goodbit@?$_Iosb@H@std@@2W4_Iostate@12@B DD 00H		; std::_Iosb<int>::goodbit
CONST	ENDS
;	COMDAT ?floatfield@?$_Iosb@H@std@@2W4_Fmtflags@12@B
CONST	SEGMENT
?floatfield@?$_Iosb@H@std@@2W4_Fmtflags@12@B DD 03000H	; std::_Iosb<int>::floatfield
CONST	ENDS
;	COMDAT ?basefield@?$_Iosb@H@std@@2W4_Fmtflags@12@B
CONST	SEGMENT
?basefield@?$_Iosb@H@std@@2W4_Fmtflags@12@B DD 0e00H	; std::_Iosb<int>::basefield
CONST	ENDS
;	COMDAT ?adjustfield@?$_Iosb@H@std@@2W4_Fmtflags@12@B
CONST	SEGMENT
?adjustfield@?$_Iosb@H@std@@2W4_Fmtflags@12@B DD 01c0H	; std::_Iosb<int>::adjustfield
CONST	ENDS
;	COMDAT ?_Stdio@?$_Iosb@H@std@@2W4_Fmtflags@12@B
CONST	SEGMENT
?_Stdio@?$_Iosb@H@std@@2W4_Fmtflags@12@B DD 08000H	; std::_Iosb<int>::_Stdio
CONST	ENDS
;	COMDAT ?boolalpha@?$_Iosb@H@std@@2W4_Fmtflags@12@B
CONST	SEGMENT
?boolalpha@?$_Iosb@H@std@@2W4_Fmtflags@12@B DD 04000H	; std::_Iosb<int>::boolalpha
CONST	ENDS
;	COMDAT ?hexfloat@?$_Iosb@H@std@@2W4_Fmtflags@12@B
CONST	SEGMENT
?hexfloat@?$_Iosb@H@std@@2W4_Fmtflags@12@B DD 03000H	; std::_Iosb<int>::hexfloat
CONST	ENDS
;	COMDAT ?fixed@?$_Iosb@H@std@@2W4_Fmtflags@12@B
CONST	SEGMENT
?fixed@?$_Iosb@H@std@@2W4_Fmtflags@12@B DD 02000H	; std::_Iosb<int>::fixed
CONST	ENDS
;	COMDAT ?scientific@?$_Iosb@H@std@@2W4_Fmtflags@12@B
CONST	SEGMENT
?scientific@?$_Iosb@H@std@@2W4_Fmtflags@12@B DD 01000H	; std::_Iosb<int>::scientific
CONST	ENDS
;	COMDAT ?hex@?$_Iosb@H@std@@2W4_Fmtflags@12@B
CONST	SEGMENT
?hex@?$_Iosb@H@std@@2W4_Fmtflags@12@B DD 0800H		; std::_Iosb<int>::hex
CONST	ENDS
;	COMDAT ?oct@?$_Iosb@H@std@@2W4_Fmtflags@12@B
CONST	SEGMENT
?oct@?$_Iosb@H@std@@2W4_Fmtflags@12@B DD 0400H		; std::_Iosb<int>::oct
CONST	ENDS
;	COMDAT ?dec@?$_Iosb@H@std@@2W4_Fmtflags@12@B
CONST	SEGMENT
?dec@?$_Iosb@H@std@@2W4_Fmtflags@12@B DD 0200H		; std::_Iosb<int>::dec
CONST	ENDS
;	COMDAT ?internal@?$_Iosb@H@std@@2W4_Fmtflags@12@B
CONST	SEGMENT
?internal@?$_Iosb@H@std@@2W4_Fmtflags@12@B DD 0100H	; std::_Iosb<int>::internal
CONST	ENDS
;	COMDAT ?right@?$_Iosb@H@std@@2W4_Fmtflags@12@B
CONST	SEGMENT
?right@?$_Iosb@H@std@@2W4_Fmtflags@12@B DD 080H		; std::_Iosb<int>::right
CONST	ENDS
;	COMDAT ?left@?$_Iosb@H@std@@2W4_Fmtflags@12@B
CONST	SEGMENT
?left@?$_Iosb@H@std@@2W4_Fmtflags@12@B DD 040H		; std::_Iosb<int>::left
CONST	ENDS
;	COMDAT ?showpos@?$_Iosb@H@std@@2W4_Fmtflags@12@B
CONST	SEGMENT
?showpos@?$_Iosb@H@std@@2W4_Fmtflags@12@B DD 020H	; std::_Iosb<int>::showpos
CONST	ENDS
;	COMDAT ?showpoint@?$_Iosb@H@std@@2W4_Fmtflags@12@B
CONST	SEGMENT
?showpoint@?$_Iosb@H@std@@2W4_Fmtflags@12@B DD 010H	; std::_Iosb<int>::showpoint
CONST	ENDS
;	COMDAT ?showbase@?$_Iosb@H@std@@2W4_Fmtflags@12@B
CONST	SEGMENT
?showbase@?$_Iosb@H@std@@2W4_Fmtflags@12@B DD 08H	; std::_Iosb<int>::showbase
CONST	ENDS
;	COMDAT ?uppercase@?$_Iosb@H@std@@2W4_Fmtflags@12@B
CONST	SEGMENT
?uppercase@?$_Iosb@H@std@@2W4_Fmtflags@12@B DD 04H	; std::_Iosb<int>::uppercase
CONST	ENDS
;	COMDAT ?unitbuf@?$_Iosb@H@std@@2W4_Fmtflags@12@B
CONST	SEGMENT
?unitbuf@?$_Iosb@H@std@@2W4_Fmtflags@12@B DD 02H	; std::_Iosb<int>::unitbuf
CONST	ENDS
;	COMDAT ?skipws@?$_Iosb@H@std@@2W4_Fmtflags@12@B
CONST	SEGMENT
?skipws@?$_Iosb@H@std@@2W4_Fmtflags@12@B DD 01H		; std::_Iosb<int>::skipws
CONST	ENDS
;	COMDAT ?table_size@?$ctype@D@std@@2IB
CONST	SEGMENT
?table_size@?$ctype@D@std@@2IB DD 0100H			; std::ctype<char>::table_size
CONST	ENDS
;	COMDAT ?none@?$_Locbase@H@std@@2HB
CONST	SEGMENT
?none@?$_Locbase@H@std@@2HB DD 00H			; std::_Locbase<int>::none
CONST	ENDS
;	COMDAT ?all@?$_Locbase@H@std@@2HB
CONST	SEGMENT
?all@?$_Locbase@H@std@@2HB DD 03fH			; std::_Locbase<int>::all
CONST	ENDS
;	COMDAT ?messages@?$_Locbase@H@std@@2HB
CONST	SEGMENT
?messages@?$_Locbase@H@std@@2HB DD 020H			; std::_Locbase<int>::messages
CONST	ENDS
;	COMDAT ?time@?$_Locbase@H@std@@2HB
CONST	SEGMENT
?time@?$_Locbase@H@std@@2HB DD 010H			; std::_Locbase<int>::time
CONST	ENDS
;	COMDAT ?numeric@?$_Locbase@H@std@@2HB
CONST	SEGMENT
?numeric@?$_Locbase@H@std@@2HB DD 08H			; std::_Locbase<int>::numeric
CONST	ENDS
;	COMDAT ?monetary@?$_Locbase@H@std@@2HB
CONST	SEGMENT
?monetary@?$_Locbase@H@std@@2HB DD 04H			; std::_Locbase<int>::monetary
CONST	ENDS
;	COMDAT ?ctype@?$_Locbase@H@std@@2HB
CONST	SEGMENT
?ctype@?$_Locbase@H@std@@2HB DD 02H			; std::_Locbase<int>::ctype
CONST	ENDS
;	COMDAT ?collate@?$_Locbase@H@std@@2HB
CONST	SEGMENT
?collate@?$_Locbase@H@std@@2HB DD 01H			; std::_Locbase<int>::collate
CONST	ENDS
;	COMDAT ?_Rank@?$_Arithmetic_traits@O@std@@2HB
CONST	SEGMENT
?_Rank@?$_Arithmetic_traits@O@std@@2HB DD 09H		; std::_Arithmetic_traits<long double>::_Rank
CONST	ENDS
;	COMDAT ?_Rank@?$_Arithmetic_traits@N@std@@2HB
CONST	SEGMENT
?_Rank@?$_Arithmetic_traits@N@std@@2HB DD 08H		; std::_Arithmetic_traits<double>::_Rank
CONST	ENDS
;	COMDAT ?_Rank@?$_Arithmetic_traits@M@std@@2HB
CONST	SEGMENT
?_Rank@?$_Arithmetic_traits@M@std@@2HB DD 07H		; std::_Arithmetic_traits<float>::_Rank
CONST	ENDS
;	COMDAT ?_Rank@?$_Arithmetic_traits@_K@std@@2HB
CONST	SEGMENT
?_Rank@?$_Arithmetic_traits@_K@std@@2HB DD 06H		; std::_Arithmetic_traits<unsigned __int64>::_Rank
CONST	ENDS
;	COMDAT ?_Rank@?$_Arithmetic_traits@_J@std@@2HB
CONST	SEGMENT
?_Rank@?$_Arithmetic_traits@_J@std@@2HB DD 06H		; std::_Arithmetic_traits<__int64>::_Rank
CONST	ENDS
;	COMDAT ?_Rank@?$_Arithmetic_traits@K@std@@2HB
CONST	SEGMENT
?_Rank@?$_Arithmetic_traits@K@std@@2HB DD 05H		; std::_Arithmetic_traits<unsigned long>::_Rank
CONST	ENDS
;	COMDAT ?_Rank@?$_Arithmetic_traits@J@std@@2HB
CONST	SEGMENT
?_Rank@?$_Arithmetic_traits@J@std@@2HB DD 05H		; std::_Arithmetic_traits<long>::_Rank
CONST	ENDS
;	COMDAT ?_Rank@?$_Arithmetic_traits@I@std@@2HB
CONST	SEGMENT
?_Rank@?$_Arithmetic_traits@I@std@@2HB DD 04H		; std::_Arithmetic_traits<unsigned int>::_Rank
CONST	ENDS
;	COMDAT ?_Rank@?$_Arithmetic_traits@H@std@@2HB
CONST	SEGMENT
?_Rank@?$_Arithmetic_traits@H@std@@2HB DD 04H		; std::_Arithmetic_traits<int>::_Rank
CONST	ENDS
;	COMDAT ?_Rank@?$_Arithmetic_traits@G@std@@2HB
CONST	SEGMENT
?_Rank@?$_Arithmetic_traits@G@std@@2HB DD 03H		; std::_Arithmetic_traits<unsigned short>::_Rank
CONST	ENDS
;	COMDAT ?_Rank@?$_Arithmetic_traits@F@std@@2HB
CONST	SEGMENT
?_Rank@?$_Arithmetic_traits@F@std@@2HB DD 03H		; std::_Arithmetic_traits<short>::_Rank
CONST	ENDS
;	COMDAT ?_Rank@?$_Arithmetic_traits@E@std@@2HB
CONST	SEGMENT
?_Rank@?$_Arithmetic_traits@E@std@@2HB DD 02H		; std::_Arithmetic_traits<unsigned char>::_Rank
CONST	ENDS
;	COMDAT ?_Rank@?$_Arithmetic_traits@C@std@@2HB
CONST	SEGMENT
?_Rank@?$_Arithmetic_traits@C@std@@2HB DD 02H		; std::_Arithmetic_traits<signed char>::_Rank
CONST	ENDS
;	COMDAT ?_Rank@?$_Arithmetic_traits@D@std@@2HB
CONST	SEGMENT
?_Rank@?$_Arithmetic_traits@D@std@@2HB DD 02H		; std::_Arithmetic_traits<char>::_Rank
CONST	ENDS
;	COMDAT ?_Rank@?$_Arithmetic_traits@_N@std@@2HB
CONST	SEGMENT
?_Rank@?$_Arithmetic_traits@_N@std@@2HB DD 01H		; std::_Arithmetic_traits<bool>::_Rank
CONST	ENDS
;	COMDAT ?value@?$integral_constant@I$0A@@tr1@std@@2IB
CONST	SEGMENT
?value@?$integral_constant@I$0A@@tr1@std@@2IB DD 00H	; std::tr1::integral_constant<unsigned int,0>::value
CONST	ENDS
;	COMDAT ?value@?$integral_constant@_N$00@tr1@std@@2_NB
CONST	SEGMENT
?value@?$integral_constant@_N$00@tr1@std@@2_NB DB 01H	; std::tr1::integral_constant<bool,1>::value
CONST	ENDS
;	COMDAT ?value@?$integral_constant@_N$0A@@tr1@std@@2_NB
CONST	SEGMENT
?value@?$integral_constant@_N$0A@@tr1@std@@2_NB DB 00H	; std::tr1::integral_constant<bool,0>::value
CONST	ENDS
;	COMDAT ?min_exponent10@?$numeric_limits@O@std@@2HB
CONST	SEGMENT
?min_exponent10@?$numeric_limits@O@std@@2HB DD 0fffffecdH ; std::numeric_limits<long double>::min_exponent10
CONST	ENDS
;	COMDAT ?min_exponent@?$numeric_limits@O@std@@2HB
CONST	SEGMENT
?min_exponent@?$numeric_limits@O@std@@2HB DD 0fffffc03H	; std::numeric_limits<long double>::min_exponent
CONST	ENDS
;	COMDAT ?max_exponent10@?$numeric_limits@O@std@@2HB
CONST	SEGMENT
?max_exponent10@?$numeric_limits@O@std@@2HB DD 0134H	; std::numeric_limits<long double>::max_exponent10
CONST	ENDS
;	COMDAT ?max_exponent@?$numeric_limits@O@std@@2HB
CONST	SEGMENT
?max_exponent@?$numeric_limits@O@std@@2HB DD 0400H	; std::numeric_limits<long double>::max_exponent
CONST	ENDS
;	COMDAT ?max_digits10@?$numeric_limits@O@std@@2HB
CONST	SEGMENT
?max_digits10@?$numeric_limits@O@std@@2HB DD 011H	; std::numeric_limits<long double>::max_digits10
CONST	ENDS
;	COMDAT ?digits10@?$numeric_limits@O@std@@2HB
CONST	SEGMENT
?digits10@?$numeric_limits@O@std@@2HB DD 0fH		; std::numeric_limits<long double>::digits10
CONST	ENDS
;	COMDAT ?digits@?$numeric_limits@O@std@@2HB
CONST	SEGMENT
?digits@?$numeric_limits@O@std@@2HB DD 035H		; std::numeric_limits<long double>::digits
CONST	ENDS
;	COMDAT ?min_exponent10@?$numeric_limits@N@std@@2HB
CONST	SEGMENT
?min_exponent10@?$numeric_limits@N@std@@2HB DD 0fffffecdH ; std::numeric_limits<double>::min_exponent10
CONST	ENDS
;	COMDAT ?min_exponent@?$numeric_limits@N@std@@2HB
CONST	SEGMENT
?min_exponent@?$numeric_limits@N@std@@2HB DD 0fffffc03H	; std::numeric_limits<double>::min_exponent
CONST	ENDS
;	COMDAT ?max_exponent10@?$numeric_limits@N@std@@2HB
CONST	SEGMENT
?max_exponent10@?$numeric_limits@N@std@@2HB DD 0134H	; std::numeric_limits<double>::max_exponent10
CONST	ENDS
;	COMDAT ?max_exponent@?$numeric_limits@N@std@@2HB
CONST	SEGMENT
?max_exponent@?$numeric_limits@N@std@@2HB DD 0400H	; std::numeric_limits<double>::max_exponent
CONST	ENDS
;	COMDAT ?max_digits10@?$numeric_limits@N@std@@2HB
CONST	SEGMENT
?max_digits10@?$numeric_limits@N@std@@2HB DD 011H	; std::numeric_limits<double>::max_digits10
CONST	ENDS
;	COMDAT ?digits10@?$numeric_limits@N@std@@2HB
CONST	SEGMENT
?digits10@?$numeric_limits@N@std@@2HB DD 0fH		; std::numeric_limits<double>::digits10
CONST	ENDS
;	COMDAT ?digits@?$numeric_limits@N@std@@2HB
CONST	SEGMENT
?digits@?$numeric_limits@N@std@@2HB DD 035H		; std::numeric_limits<double>::digits
CONST	ENDS
;	COMDAT ?min_exponent10@?$numeric_limits@M@std@@2HB
CONST	SEGMENT
?min_exponent10@?$numeric_limits@M@std@@2HB DD 0ffffffdbH ; std::numeric_limits<float>::min_exponent10
CONST	ENDS
;	COMDAT ?min_exponent@?$numeric_limits@M@std@@2HB
CONST	SEGMENT
?min_exponent@?$numeric_limits@M@std@@2HB DD 0ffffff83H	; std::numeric_limits<float>::min_exponent
CONST	ENDS
;	COMDAT ?max_exponent10@?$numeric_limits@M@std@@2HB
CONST	SEGMENT
?max_exponent10@?$numeric_limits@M@std@@2HB DD 026H	; std::numeric_limits<float>::max_exponent10
CONST	ENDS
;	COMDAT ?max_exponent@?$numeric_limits@M@std@@2HB
CONST	SEGMENT
?max_exponent@?$numeric_limits@M@std@@2HB DD 080H	; std::numeric_limits<float>::max_exponent
CONST	ENDS
;	COMDAT ?max_digits10@?$numeric_limits@M@std@@2HB
CONST	SEGMENT
?max_digits10@?$numeric_limits@M@std@@2HB DD 08H	; std::numeric_limits<float>::max_digits10
CONST	ENDS
;	COMDAT ?digits10@?$numeric_limits@M@std@@2HB
CONST	SEGMENT
?digits10@?$numeric_limits@M@std@@2HB DD 06H		; std::numeric_limits<float>::digits10
CONST	ENDS
;	COMDAT ?digits@?$numeric_limits@M@std@@2HB
CONST	SEGMENT
?digits@?$numeric_limits@M@std@@2HB DD 018H		; std::numeric_limits<float>::digits
CONST	ENDS
;	COMDAT ?max_digits10@?$numeric_limits@_K@std@@2HB
CONST	SEGMENT
?max_digits10@?$numeric_limits@_K@std@@2HB DD 015H	; std::numeric_limits<unsigned __int64>::max_digits10
CONST	ENDS
;	COMDAT ?digits10@?$numeric_limits@_K@std@@2HB
CONST	SEGMENT
?digits10@?$numeric_limits@_K@std@@2HB DD 013H		; std::numeric_limits<unsigned __int64>::digits10
CONST	ENDS
;	COMDAT ?digits@?$numeric_limits@_K@std@@2HB
CONST	SEGMENT
?digits@?$numeric_limits@_K@std@@2HB DD 040H		; std::numeric_limits<unsigned __int64>::digits
CONST	ENDS
;	COMDAT ?is_signed@?$numeric_limits@_K@std@@2_NB
CONST	SEGMENT
?is_signed@?$numeric_limits@_K@std@@2_NB DB 00H		; std::numeric_limits<unsigned __int64>::is_signed
CONST	ENDS
;	COMDAT ?max_digits10@?$numeric_limits@_J@std@@2HB
CONST	SEGMENT
?max_digits10@?$numeric_limits@_J@std@@2HB DD 014H	; std::numeric_limits<__int64>::max_digits10
CONST	ENDS
;	COMDAT ?digits10@?$numeric_limits@_J@std@@2HB
CONST	SEGMENT
?digits10@?$numeric_limits@_J@std@@2HB DD 012H		; std::numeric_limits<__int64>::digits10
CONST	ENDS
;	COMDAT ?digits@?$numeric_limits@_J@std@@2HB
CONST	SEGMENT
?digits@?$numeric_limits@_J@std@@2HB DD 03fH		; std::numeric_limits<__int64>::digits
CONST	ENDS
;	COMDAT ?is_signed@?$numeric_limits@_J@std@@2_NB
CONST	SEGMENT
?is_signed@?$numeric_limits@_J@std@@2_NB DB 01H		; std::numeric_limits<__int64>::is_signed
CONST	ENDS
;	COMDAT ?max_digits10@?$numeric_limits@K@std@@2HB
CONST	SEGMENT
?max_digits10@?$numeric_limits@K@std@@2HB DD 0bH	; std::numeric_limits<unsigned long>::max_digits10
CONST	ENDS
;	COMDAT ?digits10@?$numeric_limits@K@std@@2HB
CONST	SEGMENT
?digits10@?$numeric_limits@K@std@@2HB DD 09H		; std::numeric_limits<unsigned long>::digits10
CONST	ENDS
;	COMDAT ?digits@?$numeric_limits@K@std@@2HB
CONST	SEGMENT
?digits@?$numeric_limits@K@std@@2HB DD 020H		; std::numeric_limits<unsigned long>::digits
CONST	ENDS
;	COMDAT ?is_signed@?$numeric_limits@K@std@@2_NB
CONST	SEGMENT
?is_signed@?$numeric_limits@K@std@@2_NB DB 00H		; std::numeric_limits<unsigned long>::is_signed
CONST	ENDS
;	COMDAT ?max_digits10@?$numeric_limits@J@std@@2HB
CONST	SEGMENT
?max_digits10@?$numeric_limits@J@std@@2HB DD 0bH	; std::numeric_limits<long>::max_digits10
CONST	ENDS
;	COMDAT ?digits10@?$numeric_limits@J@std@@2HB
CONST	SEGMENT
?digits10@?$numeric_limits@J@std@@2HB DD 09H		; std::numeric_limits<long>::digits10
CONST	ENDS
;	COMDAT ?digits@?$numeric_limits@J@std@@2HB
CONST	SEGMENT
?digits@?$numeric_limits@J@std@@2HB DD 01fH		; std::numeric_limits<long>::digits
CONST	ENDS
;	COMDAT ?is_signed@?$numeric_limits@J@std@@2_NB
CONST	SEGMENT
?is_signed@?$numeric_limits@J@std@@2_NB DB 01H		; std::numeric_limits<long>::is_signed
CONST	ENDS
;	COMDAT ?max_digits10@?$numeric_limits@I@std@@2HB
CONST	SEGMENT
?max_digits10@?$numeric_limits@I@std@@2HB DD 0bH	; std::numeric_limits<unsigned int>::max_digits10
CONST	ENDS
;	COMDAT ?digits10@?$numeric_limits@I@std@@2HB
CONST	SEGMENT
?digits10@?$numeric_limits@I@std@@2HB DD 09H		; std::numeric_limits<unsigned int>::digits10
CONST	ENDS
;	COMDAT ?digits@?$numeric_limits@I@std@@2HB
CONST	SEGMENT
?digits@?$numeric_limits@I@std@@2HB DD 020H		; std::numeric_limits<unsigned int>::digits
CONST	ENDS
;	COMDAT ?is_signed@?$numeric_limits@I@std@@2_NB
CONST	SEGMENT
?is_signed@?$numeric_limits@I@std@@2_NB DB 00H		; std::numeric_limits<unsigned int>::is_signed
CONST	ENDS
;	COMDAT ?max_digits10@?$numeric_limits@H@std@@2HB
CONST	SEGMENT
?max_digits10@?$numeric_limits@H@std@@2HB DD 0bH	; std::numeric_limits<int>::max_digits10
CONST	ENDS
;	COMDAT ?digits10@?$numeric_limits@H@std@@2HB
CONST	SEGMENT
?digits10@?$numeric_limits@H@std@@2HB DD 09H		; std::numeric_limits<int>::digits10
CONST	ENDS
;	COMDAT ?digits@?$numeric_limits@H@std@@2HB
CONST	SEGMENT
?digits@?$numeric_limits@H@std@@2HB DD 01fH		; std::numeric_limits<int>::digits
CONST	ENDS
;	COMDAT ?is_signed@?$numeric_limits@H@std@@2_NB
CONST	SEGMENT
?is_signed@?$numeric_limits@H@std@@2_NB DB 01H		; std::numeric_limits<int>::is_signed
CONST	ENDS
;	COMDAT ?max_digits10@?$numeric_limits@G@std@@2HB
CONST	SEGMENT
?max_digits10@?$numeric_limits@G@std@@2HB DD 06H	; std::numeric_limits<unsigned short>::max_digits10
CONST	ENDS
;	COMDAT ?digits10@?$numeric_limits@G@std@@2HB
CONST	SEGMENT
?digits10@?$numeric_limits@G@std@@2HB DD 04H		; std::numeric_limits<unsigned short>::digits10
CONST	ENDS
;	COMDAT ?digits@?$numeric_limits@G@std@@2HB
CONST	SEGMENT
?digits@?$numeric_limits@G@std@@2HB DD 010H		; std::numeric_limits<unsigned short>::digits
CONST	ENDS
;	COMDAT ?is_signed@?$numeric_limits@G@std@@2_NB
CONST	SEGMENT
?is_signed@?$numeric_limits@G@std@@2_NB DB 00H		; std::numeric_limits<unsigned short>::is_signed
CONST	ENDS
;	COMDAT ?max_digits10@?$numeric_limits@F@std@@2HB
CONST	SEGMENT
?max_digits10@?$numeric_limits@F@std@@2HB DD 06H	; std::numeric_limits<short>::max_digits10
CONST	ENDS
;	COMDAT ?digits10@?$numeric_limits@F@std@@2HB
CONST	SEGMENT
?digits10@?$numeric_limits@F@std@@2HB DD 04H		; std::numeric_limits<short>::digits10
CONST	ENDS
;	COMDAT ?digits@?$numeric_limits@F@std@@2HB
CONST	SEGMENT
?digits@?$numeric_limits@F@std@@2HB DD 0fH		; std::numeric_limits<short>::digits
CONST	ENDS
;	COMDAT ?is_signed@?$numeric_limits@F@std@@2_NB
CONST	SEGMENT
?is_signed@?$numeric_limits@F@std@@2_NB DB 01H		; std::numeric_limits<short>::is_signed
CONST	ENDS
;	COMDAT ?max_digits10@?$numeric_limits@E@std@@2HB
CONST	SEGMENT
?max_digits10@?$numeric_limits@E@std@@2HB DD 04H	; std::numeric_limits<unsigned char>::max_digits10
CONST	ENDS
;	COMDAT ?digits10@?$numeric_limits@E@std@@2HB
CONST	SEGMENT
?digits10@?$numeric_limits@E@std@@2HB DD 02H		; std::numeric_limits<unsigned char>::digits10
CONST	ENDS
;	COMDAT ?digits@?$numeric_limits@E@std@@2HB
CONST	SEGMENT
?digits@?$numeric_limits@E@std@@2HB DD 08H		; std::numeric_limits<unsigned char>::digits
CONST	ENDS
;	COMDAT ?is_signed@?$numeric_limits@E@std@@2_NB
CONST	SEGMENT
?is_signed@?$numeric_limits@E@std@@2_NB DB 00H		; std::numeric_limits<unsigned char>::is_signed
CONST	ENDS
;	COMDAT ?max_digits10@?$numeric_limits@C@std@@2HB
CONST	SEGMENT
?max_digits10@?$numeric_limits@C@std@@2HB DD 04H	; std::numeric_limits<signed char>::max_digits10
CONST	ENDS
;	COMDAT ?digits10@?$numeric_limits@C@std@@2HB
CONST	SEGMENT
?digits10@?$numeric_limits@C@std@@2HB DD 02H		; std::numeric_limits<signed char>::digits10
CONST	ENDS
;	COMDAT ?digits@?$numeric_limits@C@std@@2HB
CONST	SEGMENT
?digits@?$numeric_limits@C@std@@2HB DD 07H		; std::numeric_limits<signed char>::digits
CONST	ENDS
;	COMDAT ?is_signed@?$numeric_limits@C@std@@2_NB
CONST	SEGMENT
?is_signed@?$numeric_limits@C@std@@2_NB DB 01H		; std::numeric_limits<signed char>::is_signed
CONST	ENDS
;	COMDAT ?max_digits10@?$numeric_limits@_N@std@@2HB
CONST	SEGMENT
?max_digits10@?$numeric_limits@_N@std@@2HB DD 00H	; std::numeric_limits<bool>::max_digits10
CONST	ENDS
;	COMDAT ?digits10@?$numeric_limits@_N@std@@2HB
CONST	SEGMENT
?digits10@?$numeric_limits@_N@std@@2HB DD 00H		; std::numeric_limits<bool>::digits10
CONST	ENDS
;	COMDAT ?digits@?$numeric_limits@_N@std@@2HB
CONST	SEGMENT
?digits@?$numeric_limits@_N@std@@2HB DD 01H		; std::numeric_limits<bool>::digits
CONST	ENDS
;	COMDAT ?is_signed@?$numeric_limits@_N@std@@2_NB
CONST	SEGMENT
?is_signed@?$numeric_limits@_N@std@@2_NB DB 00H		; std::numeric_limits<bool>::is_signed
CONST	ENDS
;	COMDAT ?is_modulo@?$numeric_limits@_N@std@@2_NB
CONST	SEGMENT
?is_modulo@?$numeric_limits@_N@std@@2_NB DB 00H		; std::numeric_limits<bool>::is_modulo
CONST	ENDS
;	COMDAT ?max_digits10@?$numeric_limits@_W@std@@2HB
CONST	SEGMENT
?max_digits10@?$numeric_limits@_W@std@@2HB DD 06H	; std::numeric_limits<wchar_t>::max_digits10
CONST	ENDS
;	COMDAT ?digits10@?$numeric_limits@_W@std@@2HB
CONST	SEGMENT
?digits10@?$numeric_limits@_W@std@@2HB DD 04H		; std::numeric_limits<wchar_t>::digits10
CONST	ENDS
;	COMDAT ?digits@?$numeric_limits@_W@std@@2HB
CONST	SEGMENT
?digits@?$numeric_limits@_W@std@@2HB DD 010H		; std::numeric_limits<wchar_t>::digits
CONST	ENDS
;	COMDAT ?is_signed@?$numeric_limits@_W@std@@2_NB
CONST	SEGMENT
?is_signed@?$numeric_limits@_W@std@@2_NB DB 00H		; std::numeric_limits<wchar_t>::is_signed
CONST	ENDS
;	COMDAT ?max_digits10@?$numeric_limits@D@std@@2HB
CONST	SEGMENT
?max_digits10@?$numeric_limits@D@std@@2HB DD 04H	; std::numeric_limits<char>::max_digits10
CONST	ENDS
;	COMDAT ?digits10@?$numeric_limits@D@std@@2HB
CONST	SEGMENT
?digits10@?$numeric_limits@D@std@@2HB DD 02H		; std::numeric_limits<char>::digits10
CONST	ENDS
;	COMDAT ?digits@?$numeric_limits@D@std@@2HB
CONST	SEGMENT
?digits@?$numeric_limits@D@std@@2HB DD 07H		; std::numeric_limits<char>::digits
CONST	ENDS
;	COMDAT ?is_signed@?$numeric_limits@D@std@@2_NB
CONST	SEGMENT
?is_signed@?$numeric_limits@D@std@@2_NB DB 01H		; std::numeric_limits<char>::is_signed
CONST	ENDS
;	COMDAT ?radix@_Num_float_base@std@@2HB
CONST	SEGMENT
?radix@_Num_float_base@std@@2HB DD 02H			; std::_Num_float_base::radix
CONST	ENDS
;	COMDAT ?round_style@_Num_float_base@std@@2W4float_round_style@2@B
CONST	SEGMENT
?round_style@_Num_float_base@std@@2W4float_round_style@2@B DD 01H ; std::_Num_float_base::round_style
CONST	ENDS
;	COMDAT ?traps@_Num_float_base@std@@2_NB
CONST	SEGMENT
?traps@_Num_float_base@std@@2_NB DB 01H			; std::_Num_float_base::traps
CONST	ENDS
;	COMDAT ?tinyness_before@_Num_float_base@std@@2_NB
CONST	SEGMENT
?tinyness_before@_Num_float_base@std@@2_NB DB 01H	; std::_Num_float_base::tinyness_before
CONST	ENDS
;	COMDAT ?is_specialized@_Num_float_base@std@@2_NB
CONST	SEGMENT
?is_specialized@_Num_float_base@std@@2_NB DB 01H	; std::_Num_float_base::is_specialized
CONST	ENDS
;	COMDAT ?is_signed@_Num_float_base@std@@2_NB
CONST	SEGMENT
?is_signed@_Num_float_base@std@@2_NB DB 01H		; std::_Num_float_base::is_signed
CONST	ENDS
;	COMDAT ?is_modulo@_Num_float_base@std@@2_NB
CONST	SEGMENT
?is_modulo@_Num_float_base@std@@2_NB DB 00H		; std::_Num_float_base::is_modulo
CONST	ENDS
;	COMDAT ?is_integer@_Num_float_base@std@@2_NB
CONST	SEGMENT
?is_integer@_Num_float_base@std@@2_NB DB 00H		; std::_Num_float_base::is_integer
CONST	ENDS
;	COMDAT ?is_iec559@_Num_float_base@std@@2_NB
CONST	SEGMENT
?is_iec559@_Num_float_base@std@@2_NB DB 01H		; std::_Num_float_base::is_iec559
CONST	ENDS
;	COMDAT ?is_exact@_Num_float_base@std@@2_NB
CONST	SEGMENT
?is_exact@_Num_float_base@std@@2_NB DB 00H		; std::_Num_float_base::is_exact
CONST	ENDS
;	COMDAT ?is_bounded@_Num_float_base@std@@2_NB
CONST	SEGMENT
?is_bounded@_Num_float_base@std@@2_NB DB 01H		; std::_Num_float_base::is_bounded
CONST	ENDS
;	COMDAT ?has_signaling_NaN@_Num_float_base@std@@2_NB
CONST	SEGMENT
?has_signaling_NaN@_Num_float_base@std@@2_NB DB 01H	; std::_Num_float_base::has_signaling_NaN
CONST	ENDS
;	COMDAT ?has_quiet_NaN@_Num_float_base@std@@2_NB
CONST	SEGMENT
?has_quiet_NaN@_Num_float_base@std@@2_NB DB 01H		; std::_Num_float_base::has_quiet_NaN
CONST	ENDS
;	COMDAT ?has_infinity@_Num_float_base@std@@2_NB
CONST	SEGMENT
?has_infinity@_Num_float_base@std@@2_NB DB 01H		; std::_Num_float_base::has_infinity
CONST	ENDS
;	COMDAT ?has_denorm_loss@_Num_float_base@std@@2_NB
CONST	SEGMENT
?has_denorm_loss@_Num_float_base@std@@2_NB DB 01H	; std::_Num_float_base::has_denorm_loss
CONST	ENDS
;	COMDAT ?has_denorm@_Num_float_base@std@@2W4float_denorm_style@2@B
CONST	SEGMENT
?has_denorm@_Num_float_base@std@@2W4float_denorm_style@2@B DD 01H ; std::_Num_float_base::has_denorm
CONST	ENDS
;	COMDAT ?radix@_Num_int_base@std@@2HB
CONST	SEGMENT
?radix@_Num_int_base@std@@2HB DD 02H			; std::_Num_int_base::radix
CONST	ENDS
;	COMDAT ?is_specialized@_Num_int_base@std@@2_NB
CONST	SEGMENT
?is_specialized@_Num_int_base@std@@2_NB DB 01H		; std::_Num_int_base::is_specialized
CONST	ENDS
;	COMDAT ?is_modulo@_Num_int_base@std@@2_NB
CONST	SEGMENT
?is_modulo@_Num_int_base@std@@2_NB DB 01H		; std::_Num_int_base::is_modulo
CONST	ENDS
;	COMDAT ?is_integer@_Num_int_base@std@@2_NB
CONST	SEGMENT
?is_integer@_Num_int_base@std@@2_NB DB 01H		; std::_Num_int_base::is_integer
CONST	ENDS
;	COMDAT ?is_exact@_Num_int_base@std@@2_NB
CONST	SEGMENT
?is_exact@_Num_int_base@std@@2_NB DB 01H		; std::_Num_int_base::is_exact
CONST	ENDS
;	COMDAT ?is_bounded@_Num_int_base@std@@2_NB
CONST	SEGMENT
?is_bounded@_Num_int_base@std@@2_NB DB 01H		; std::_Num_int_base::is_bounded
CONST	ENDS
;	COMDAT ?radix@_Num_base@std@@2HB
CONST	SEGMENT
?radix@_Num_base@std@@2HB DD 00H			; std::_Num_base::radix
CONST	ENDS
;	COMDAT ?min_exponent10@_Num_base@std@@2HB
CONST	SEGMENT
?min_exponent10@_Num_base@std@@2HB DD 00H		; std::_Num_base::min_exponent10
CONST	ENDS
;	COMDAT ?min_exponent@_Num_base@std@@2HB
CONST	SEGMENT
?min_exponent@_Num_base@std@@2HB DD 00H			; std::_Num_base::min_exponent
CONST	ENDS
;	COMDAT ?max_exponent10@_Num_base@std@@2HB
CONST	SEGMENT
?max_exponent10@_Num_base@std@@2HB DD 00H		; std::_Num_base::max_exponent10
CONST	ENDS
;	COMDAT ?max_exponent@_Num_base@std@@2HB
CONST	SEGMENT
?max_exponent@_Num_base@std@@2HB DD 00H			; std::_Num_base::max_exponent
CONST	ENDS
;	COMDAT ?max_digits10@_Num_base@std@@2HB
CONST	SEGMENT
?max_digits10@_Num_base@std@@2HB DD 00H			; std::_Num_base::max_digits10
CONST	ENDS
;	COMDAT ?digits10@_Num_base@std@@2HB
CONST	SEGMENT
?digits10@_Num_base@std@@2HB DD 00H			; std::_Num_base::digits10
CONST	ENDS
;	COMDAT ?digits@_Num_base@std@@2HB
CONST	SEGMENT
?digits@_Num_base@std@@2HB DD 00H			; std::_Num_base::digits
CONST	ENDS
;	COMDAT ?round_style@_Num_base@std@@2W4float_round_style@2@B
CONST	SEGMENT
?round_style@_Num_base@std@@2W4float_round_style@2@B DD 00H ; std::_Num_base::round_style
CONST	ENDS
;	COMDAT ?traps@_Num_base@std@@2_NB
CONST	SEGMENT
?traps@_Num_base@std@@2_NB DB 00H			; std::_Num_base::traps
CONST	ENDS
;	COMDAT ?tinyness_before@_Num_base@std@@2_NB
CONST	SEGMENT
?tinyness_before@_Num_base@std@@2_NB DB 00H		; std::_Num_base::tinyness_before
CONST	ENDS
;	COMDAT ?is_specialized@_Num_base@std@@2_NB
CONST	SEGMENT
?is_specialized@_Num_base@std@@2_NB DB 00H		; std::_Num_base::is_specialized
CONST	ENDS
;	COMDAT ?is_signed@_Num_base@std@@2_NB
CONST	SEGMENT
?is_signed@_Num_base@std@@2_NB DB 00H			; std::_Num_base::is_signed
CONST	ENDS
;	COMDAT ?is_modulo@_Num_base@std@@2_NB
CONST	SEGMENT
?is_modulo@_Num_base@std@@2_NB DB 00H			; std::_Num_base::is_modulo
CONST	ENDS
;	COMDAT ?is_integer@_Num_base@std@@2_NB
CONST	SEGMENT
?is_integer@_Num_base@std@@2_NB DB 00H			; std::_Num_base::is_integer
CONST	ENDS
;	COMDAT ?is_iec559@_Num_base@std@@2_NB
CONST	SEGMENT
?is_iec559@_Num_base@std@@2_NB DB 00H			; std::_Num_base::is_iec559
CONST	ENDS
;	COMDAT ?is_exact@_Num_base@std@@2_NB
CONST	SEGMENT
?is_exact@_Num_base@std@@2_NB DB 00H			; std::_Num_base::is_exact
CONST	ENDS
;	COMDAT ?is_bounded@_Num_base@std@@2_NB
CONST	SEGMENT
?is_bounded@_Num_base@std@@2_NB DB 00H			; std::_Num_base::is_bounded
CONST	ENDS
;	COMDAT ?has_signaling_NaN@_Num_base@std@@2_NB
CONST	SEGMENT
?has_signaling_NaN@_Num_base@std@@2_NB DB 00H		; std::_Num_base::has_signaling_NaN
CONST	ENDS
;	COMDAT ?has_quiet_NaN@_Num_base@std@@2_NB
CONST	SEGMENT
?has_quiet_NaN@_Num_base@std@@2_NB DB 00H		; std::_Num_base::has_quiet_NaN
CONST	ENDS
;	COMDAT ?has_infinity@_Num_base@std@@2_NB
CONST	SEGMENT
?has_infinity@_Num_base@std@@2_NB DB 00H		; std::_Num_base::has_infinity
CONST	ENDS
;	COMDAT ?has_denorm_loss@_Num_base@std@@2_NB
CONST	SEGMENT
?has_denorm_loss@_Num_base@std@@2_NB DB 00H		; std::_Num_base::has_denorm_loss
CONST	ENDS
;	COMDAT ?has_denorm@_Num_base@std@@2W4float_denorm_style@2@B
CONST	SEGMENT
?has_denorm@_Num_base@std@@2W4float_denorm_style@2@B DD 00H ; std::_Num_base::has_denorm
CONST	ENDS
PUBLIC	??0Goal_MoveToPosition@@QAE@PAVAbstRaven_Bot@@UVector2D@@@Z ; Goal_MoveToPosition::Goal_MoveToPosition
PUBLIC	??0Goal_Explore@@QAE@PAVAbstRaven_Bot@@@Z	; Goal_Explore::Goal_Explore
PUBLIC	?isZero@Vector2D@@QBE_NXZ			; Vector2D::isZero
PUBLIC	?isTargetPresent@AbstTargetingSystem@@QBE_NXZ	; AbstTargetingSystem::isTargetPresent
PUBLIC	?GetTargetSys@AbstRaven_Bot@@QAEQAVAbstTargetingSystem@@XZ ; AbstRaven_Bot::GetTargetSys
PUBLIC	?RemoveAllSubgoals@?$Goal_Composite@VAbstRaven_Bot@@@@QAEXXZ ; Goal_Composite<AbstRaven_Bot>::RemoveAllSubgoals
PUBLIC	?Activate@Goal_HuntTarget@@UAEXXZ		; Goal_HuntTarget::Activate
EXTRN	??3@YAXPAX@Z:PROC				; operator delete
EXTRN	??2@YAPAXI@Z:PROC				; operator new
EXTRN	?isAtPosition@AbstRaven_Bot@@QBE_NUVector2D@@@Z:PROC ; AbstRaven_Bot::isAtPosition
EXTRN	___security_cookie:DWORD
EXTRN	___CxxFrameHandler3:PROC
EXTRN	@__security_check_cookie@4:PROC
EXTRN	@_RTC_CheckStackVars@8:PROC
EXTRN	__RTC_CheckEsp:PROC
EXTRN	__RTC_Shutdown:PROC
EXTRN	__RTC_InitBase:PROC
xdata$x	SEGMENT
__unwindtable$?Activate@Goal_HuntTarget@@UAEXXZ DD 0ffffffffH
	DD	FLAT:__unwindfunclet$?Activate@Goal_HuntTarget@@UAEXXZ$0
	DD	0ffffffffH
	DD	FLAT:__unwindfunclet$?Activate@Goal_HuntTarget@@UAEXXZ$1
__ehfuncinfo$?Activate@Goal_HuntTarget@@UAEXXZ DD 019930522H
	DD	02H
	DD	FLAT:__unwindtable$?Activate@Goal_HuntTarget@@UAEXXZ
	DD	2 DUP(00H)
	DD	2 DUP(00H)
	DD	00H
	DD	01H
xdata$x	ENDS
;	COMDAT rtc$TMZ
; File c:\users\teaja\documents\artificial-fun\labravenprojecttest\raven\goals\goal_hunttarget.cpp
rtc$TMZ	SEGMENT
__RTC_Shutdown.rtc$TMZ DD FLAT:__RTC_Shutdown
rtc$TMZ	ENDS
;	COMDAT rtc$IMZ
rtc$IMZ	SEGMENT
__RTC_InitBase.rtc$IMZ DD FLAT:__RTC_InitBase
; Function compile flags: /Odtp /RTCsu
rtc$IMZ	ENDS
_TEXT	SEGMENT
tv192 = -68						; size = 4
tv166 = -64						; size = 4
tv93 = -60						; size = 4
$T139910 = -56						; size = 4
$T139909 = -52						; size = 4
$T139906 = -48						; size = 4
$T139905 = -44						; size = 4
_lrp$132423 = -36					; size = 16
_this$ = -16						; size = 4
__$EHRec$ = -12						; size = 12
?Activate@Goal_HuntTarget@@UAEXXZ PROC			; Goal_HuntTarget::Activate
; _this$ = ecx

; 15   : {

	push	ebp
	mov	ebp, esp
	push	-1
	push	__ehhandler$?Activate@Goal_HuntTarget@@UAEXXZ
	mov	eax, DWORD PTR fs:0
	push	eax
	sub	esp, 56					; 00000038H
	push	esi
	push	edi
	push	ecx
	lea	edi, DWORD PTR [ebp-68]
	mov	ecx, 14					; 0000000eH
	mov	eax, -858993460				; ccccccccH
	rep stosd
	pop	ecx
	mov	eax, DWORD PTR ___security_cookie
	xor	eax, ebp
	push	eax
	lea	eax, DWORD PTR __$EHRec$[ebp]
	mov	DWORD PTR fs:0, eax
	mov	DWORD PTR _this$[ebp], ecx

; 16   :   m_iStatus = active;

	mov	eax, DWORD PTR _this$[ebp]
	mov	DWORD PTR [eax+12], 0

; 17   :   
; 18   :   //if this goal is reactivated then there may be some existing subgoals that
; 19   :   //must be removed
; 20   :   RemoveAllSubgoals();

	mov	ecx, DWORD PTR _this$[ebp]
	call	?RemoveAllSubgoals@?$Goal_Composite@VAbstRaven_Bot@@@@QAEXXZ ; Goal_Composite<AbstRaven_Bot>::RemoveAllSubgoals

; 21   :   
; 22   :   //it is possible for the target to die whilst this goal is active so we
; 23   :   //must test to make sure the bot always has an active target
; 24   :   if (m_pOwner->GetTargetSys()->isTargetPresent())

	mov	ecx, DWORD PTR _this$[ebp]
	mov	ecx, DWORD PTR [ecx+8]
	call	?GetTargetSys@AbstRaven_Bot@@QAEQAVAbstTargetingSystem@@XZ ; AbstRaven_Bot::GetTargetSys
	mov	ecx, eax
	call	?isTargetPresent@AbstTargetingSystem@@QBE_NXZ ; AbstTargetingSystem::isTargetPresent
	movzx	edx, al
	test	edx, edx
	je	$LN5@Activate

; 25   :   {
; 26   :     //grab a local copy of the last recorded position (LRP) of the target
; 27   :     const Vector2D lrp = m_pOwner->GetTargetSys()->GetLastRecordedPosition();

	mov	eax, DWORD PTR _this$[ebp]
	mov	ecx, DWORD PTR [eax+8]
	call	?GetTargetSys@AbstRaven_Bot@@QAEQAVAbstTargetingSystem@@XZ ; AbstRaven_Bot::GetTargetSys
	mov	DWORD PTR tv93[ebp], eax
	mov	esi, esp
	lea	ecx, DWORD PTR _lrp$132423[ebp]
	push	ecx
	mov	edx, DWORD PTR tv93[ebp]
	mov	eax, DWORD PTR [edx]
	mov	ecx, DWORD PTR tv93[ebp]
	mov	edx, DWORD PTR [eax+12]
	call	edx
	cmp	esi, esp
	call	__RTC_CheckEsp

; 28   : 
; 29   :     //if the bot has reached the LRP and it still hasn't found the target
; 30   :     //it starts to search by using the explore goal to move to random
; 31   :     //map locations
; 32   :     if (lrp.isZero() || m_pOwner->isAtPosition(lrp))

	lea	ecx, DWORD PTR _lrp$132423[ebp]
	call	?isZero@Vector2D@@QBE_NXZ		; Vector2D::isZero
	movzx	eax, al
	test	eax, eax
	jne	SHORT $LN3@Activate
	sub	esp, 16					; 00000010H
	mov	ecx, esp
	mov	edx, DWORD PTR _lrp$132423[ebp]
	mov	DWORD PTR [ecx], edx
	mov	eax, DWORD PTR _lrp$132423[ebp+4]
	mov	DWORD PTR [ecx+4], eax
	mov	edx, DWORD PTR _lrp$132423[ebp+8]
	mov	DWORD PTR [ecx+8], edx
	mov	eax, DWORD PTR _lrp$132423[ebp+12]
	mov	DWORD PTR [ecx+12], eax
	mov	ecx, DWORD PTR _this$[ebp]
	mov	ecx, DWORD PTR [ecx+8]
	call	?isAtPosition@AbstRaven_Bot@@QBE_NUVector2D@@@Z ; AbstRaven_Bot::isAtPosition
	movzx	edx, al
	test	edx, edx
	je	SHORT $LN4@Activate
$LN3@Activate:

; 33   :     {
; 34   :       AddSubgoal(new Goal_Explore(m_pOwner));

	push	56					; 00000038H
	call	??2@YAPAXI@Z				; operator new
	add	esp, 4
	mov	DWORD PTR $T139906[ebp], eax
	mov	DWORD PTR __$EHRec$[ebp+8], 0
	cmp	DWORD PTR $T139906[ebp], 0
	je	SHORT $LN8@Activate
	mov	eax, DWORD PTR _this$[ebp]
	mov	ecx, DWORD PTR [eax+8]
	push	ecx
	mov	ecx, DWORD PTR $T139906[ebp]
	call	??0Goal_Explore@@QAE@PAVAbstRaven_Bot@@@Z ; Goal_Explore::Goal_Explore
	mov	DWORD PTR tv166[ebp], eax
	jmp	SHORT $LN9@Activate
$LN8@Activate:
	mov	DWORD PTR tv166[ebp], 0
$LN9@Activate:
	mov	edx, DWORD PTR tv166[ebp]
	mov	DWORD PTR $T139905[ebp], edx
	mov	DWORD PTR __$EHRec$[ebp+8], -1
	mov	esi, esp
	mov	eax, DWORD PTR $T139905[ebp]
	push	eax
	mov	ecx, DWORD PTR _this$[ebp]
	mov	edx, DWORD PTR [ecx]
	mov	ecx, DWORD PTR _this$[ebp]
	mov	eax, DWORD PTR [edx+20]
	call	eax
	cmp	esi, esp
	call	__RTC_CheckEsp

; 35   :     }
; 36   : 
; 37   :     //else move to the LRP
; 38   :     else

	jmp	SHORT $LN2@Activate
$LN4@Activate:

; 39   :     {
; 40   :       AddSubgoal(new Goal_MoveToPosition(m_pOwner, lrp));

	push	48					; 00000030H
	call	??2@YAPAXI@Z				; operator new
	add	esp, 4
	mov	DWORD PTR $T139910[ebp], eax
	mov	DWORD PTR __$EHRec$[ebp+8], 1
	cmp	DWORD PTR $T139910[ebp], 0
	je	SHORT $LN10@Activate
	sub	esp, 16					; 00000010H
	mov	ecx, esp
	mov	edx, DWORD PTR _lrp$132423[ebp]
	mov	DWORD PTR [ecx], edx
	mov	eax, DWORD PTR _lrp$132423[ebp+4]
	mov	DWORD PTR [ecx+4], eax
	mov	edx, DWORD PTR _lrp$132423[ebp+8]
	mov	DWORD PTR [ecx+8], edx
	mov	eax, DWORD PTR _lrp$132423[ebp+12]
	mov	DWORD PTR [ecx+12], eax
	mov	ecx, DWORD PTR _this$[ebp]
	mov	edx, DWORD PTR [ecx+8]
	push	edx
	mov	ecx, DWORD PTR $T139910[ebp]
	call	??0Goal_MoveToPosition@@QAE@PAVAbstRaven_Bot@@UVector2D@@@Z ; Goal_MoveToPosition::Goal_MoveToPosition
	mov	DWORD PTR tv192[ebp], eax
	jmp	SHORT $LN11@Activate
$LN10@Activate:
	mov	DWORD PTR tv192[ebp], 0
$LN11@Activate:
	mov	eax, DWORD PTR tv192[ebp]
	mov	DWORD PTR $T139909[ebp], eax
	mov	DWORD PTR __$EHRec$[ebp+8], -1
	mov	esi, esp
	mov	ecx, DWORD PTR $T139909[ebp]
	push	ecx
	mov	edx, DWORD PTR _this$[ebp]
	mov	eax, DWORD PTR [edx]
	mov	ecx, DWORD PTR _this$[ebp]
	mov	edx, DWORD PTR [eax+20]
	call	edx
	cmp	esi, esp
	call	__RTC_CheckEsp
$LN2@Activate:

; 41   :     }
; 42   :   }
; 43   : 
; 44   :   //if their is no active target then this goal can be removed from the queue
; 45   :   else

	jmp	SHORT $LN6@Activate
$LN5@Activate:

; 46   :   {
; 47   :     m_iStatus = completed;

	mov	eax, DWORD PTR _this$[ebp]
	mov	DWORD PTR [eax+12], 2
$LN6@Activate:

; 48   :   }
; 49   :     
; 50   : }

	push	edx
	mov	ecx, ebp
	push	eax
	lea	edx, DWORD PTR $LN17@Activate
	call	@_RTC_CheckStackVars@8
	pop	eax
	pop	edx
	mov	ecx, DWORD PTR __$EHRec$[ebp]
	mov	DWORD PTR fs:0, ecx
	pop	ecx
	pop	edi
	pop	esi
	add	esp, 68					; 00000044H
	cmp	ebp, esp
	call	__RTC_CheckEsp
	mov	esp, ebp
	pop	ebp
	ret	0
	npad	3
$LN17@Activate:
	DD	1
	DD	$LN16@Activate
$LN16@Activate:
	DD	-36					; ffffffdcH
	DD	16					; 00000010H
	DD	$LN14@Activate
$LN14@Activate:
	DB	108					; 0000006cH
	DB	114					; 00000072H
	DB	112					; 00000070H
	DB	0
_TEXT	ENDS
text$x	SEGMENT
__unwindfunclet$?Activate@Goal_HuntTarget@@UAEXXZ$0:
	mov	eax, DWORD PTR $T139906[ebp]
	push	eax
	call	??3@YAXPAX@Z				; operator delete
	pop	ecx
	ret	0
__unwindfunclet$?Activate@Goal_HuntTarget@@UAEXXZ$1:
	mov	eax, DWORD PTR $T139910[ebp]
	push	eax
	call	??3@YAXPAX@Z				; operator delete
	pop	ecx
	ret	0
__ehhandler$?Activate@Goal_HuntTarget@@UAEXXZ:
	mov	edx, DWORD PTR [esp+8]
	lea	eax, DWORD PTR [edx+12]
	mov	ecx, DWORD PTR [edx-68]
	xor	ecx, eax
	call	@__security_check_cookie@4
	mov	eax, OFFSET __ehfuncinfo$?Activate@Goal_HuntTarget@@UAEXXZ
	jmp	___CxxFrameHandler3
text$x	ENDS
?Activate@Goal_HuntTarget@@UAEXXZ ENDP			; Goal_HuntTarget::Activate
EXTRN	__fltused:DWORD
; Function compile flags: /Odtp /RTCsu
; File c:\users\teaja\documents\artificial-fun\labravenprojecttest\common\2d\vector2d.h
;	COMDAT ?isZero@Vector2D@@QBE_NXZ
_TEXT	SEGMENT
tv71 = -8						; size = 4
_this$ = -4						; size = 4
?isZero@Vector2D@@QBE_NXZ PROC				; Vector2D::isZero, COMDAT
; _this$ = ecx

; 31   :   bool isZero()const{return (x*x + y*y) < MinDouble;}

	push	ebp
	mov	ebp, esp
	sub	esp, 8
	mov	DWORD PTR [ebp-8], -858993460		; ccccccccH
	mov	DWORD PTR [ebp-4], -858993460		; ccccccccH
	mov	DWORD PTR _this$[ebp], ecx
	mov	eax, DWORD PTR _this$[ebp]
	mov	ecx, DWORD PTR _this$[ebp]
	fld	QWORD PTR [eax]
	fmul	QWORD PTR [ecx]
	mov	edx, DWORD PTR _this$[ebp]
	mov	eax, DWORD PTR _this$[ebp]
	fld	QWORD PTR [edx+8]
	fmul	QWORD PTR [eax+8]
	faddp	ST(1), ST(0)
	fcomp	QWORD PTR _MinDouble
	fnstsw	ax
	test	ah, 5
	jp	SHORT $LN3@isZero
	mov	DWORD PTR tv71[ebp], 1
	jmp	SHORT $LN4@isZero
$LN3@isZero:
	mov	DWORD PTR tv71[ebp], 0
$LN4@isZero:
	mov	al, BYTE PTR tv71[ebp]
	mov	esp, ebp
	pop	ebp
	ret	0
?isZero@Vector2D@@QBE_NXZ ENDP				; Vector2D::isZero
; Function compile flags: /Odtp /RTCsu
; File c:\users\teaja\documents\artificial-fun\labravenprojecttest\raven\absttargetingsystem.h
_TEXT	ENDS
;	COMDAT ?isTargetPresent@AbstTargetingSystem@@QBE_NXZ
_TEXT	SEGMENT
_this$ = -4						; size = 4
?isTargetPresent@AbstTargetingSystem@@QBE_NXZ PROC	; AbstTargetingSystem::isTargetPresent, COMDAT
; _this$ = ecx

; 43   :   bool       isTargetPresent()const{return m_pCurrentTarget != 0;}

	push	ebp
	mov	ebp, esp
	push	ecx
	mov	DWORD PTR [ebp-4], -858993460		; ccccccccH
	mov	DWORD PTR _this$[ebp], ecx
	mov	eax, DWORD PTR _this$[ebp]
	xor	ecx, ecx
	cmp	DWORD PTR [eax+8], 0
	setne	cl
	mov	al, cl
	mov	esp, ebp
	pop	ebp
	ret	0
?isTargetPresent@AbstTargetingSystem@@QBE_NXZ ENDP	; AbstTargetingSystem::isTargetPresent
; Function compile flags: /Odtp /RTCsu
; File c:\users\teaja\documents\artificial-fun\labravenprojecttest\raven\abstraven_bot.h
_TEXT	ENDS
;	COMDAT ?GetTargetSys@AbstRaven_Bot@@QAEQAVAbstTargetingSystem@@XZ
_TEXT	SEGMENT
_this$ = -4						; size = 4
?GetTargetSys@AbstRaven_Bot@@QAEQAVAbstTargetingSystem@@XZ PROC ; AbstRaven_Bot::GetTargetSys, COMDAT
; _this$ = ecx

; 222  :   AbstTargetingSystem* const       GetTargetSys(){return m_pTargSys;}

	push	ebp
	mov	ebp, esp
	push	ecx
	mov	DWORD PTR [ebp-4], -858993460		; ccccccccH
	mov	DWORD PTR _this$[ebp], ecx
	mov	eax, DWORD PTR _this$[ebp]
	mov	eax, DWORD PTR [eax+176]
	mov	esp, ebp
	pop	ebp
	ret	0
?GetTargetSys@AbstRaven_Bot@@QAEQAVAbstTargetingSystem@@XZ ENDP ; AbstRaven_Bot::GetTargetSys
_TEXT	ENDS
PUBLIC	??1?$Goal_Composite@VAbstRaven_Bot@@@@UAE@XZ	; Goal_Composite<AbstRaven_Bot>::~Goal_Composite<AbstRaven_Bot>
PUBLIC	??0Vector2D@@QAE@XZ				; Vector2D::Vector2D
PUBLIC	??_7Goal_Explore@@6B@				; Goal_Explore::`vftable'
PUBLIC	??0?$Goal_Composite@VAbstRaven_Bot@@@@QAE@PAVAbstRaven_Bot@@H@Z ; Goal_Composite<AbstRaven_Bot>::Goal_Composite<AbstRaven_Bot>
PUBLIC	??_R4Goal_Explore@@6B@				; Goal_Explore::`RTTI Complete Object Locator'
PUBLIC	??_R0?AVGoal_Explore@@@8			; Goal_Explore `RTTI Type Descriptor'
PUBLIC	??_R3Goal_Explore@@8				; Goal_Explore::`RTTI Class Hierarchy Descriptor'
PUBLIC	??_R2Goal_Explore@@8				; Goal_Explore::`RTTI Base Class Array'
PUBLIC	??_R1A@?0A@EA@Goal_Explore@@8			; Goal_Explore::`RTTI Base Class Descriptor at (0,-1,0,64)'
PUBLIC	??_R1A@?0A@EA@?$Goal_Composite@VAbstRaven_Bot@@@@8 ; Goal_Composite<AbstRaven_Bot>::`RTTI Base Class Descriptor at (0,-1,0,64)'
PUBLIC	??_R0?AV?$Goal_Composite@VAbstRaven_Bot@@@@@8	; Goal_Composite<AbstRaven_Bot> `RTTI Type Descriptor'
PUBLIC	??_R3?$Goal_Composite@VAbstRaven_Bot@@@@8	; Goal_Composite<AbstRaven_Bot>::`RTTI Class Hierarchy Descriptor'
PUBLIC	??_R2?$Goal_Composite@VAbstRaven_Bot@@@@8	; Goal_Composite<AbstRaven_Bot>::`RTTI Base Class Array'
PUBLIC	??_R1A@?0A@EA@?$Goal@VAbstRaven_Bot@@@@8	; Goal<AbstRaven_Bot>::`RTTI Base Class Descriptor at (0,-1,0,64)'
PUBLIC	??_R0?AV?$Goal@VAbstRaven_Bot@@@@@8		; Goal<AbstRaven_Bot> `RTTI Type Descriptor'
PUBLIC	??_R3?$Goal@VAbstRaven_Bot@@@@8			; Goal<AbstRaven_Bot>::`RTTI Class Hierarchy Descriptor'
PUBLIC	??_R2?$Goal@VAbstRaven_Bot@@@@8			; Goal<AbstRaven_Bot>::`RTTI Base Class Array'
PUBLIC	?Terminate@Goal_Explore@@UAEXXZ			; Goal_Explore::Terminate
PUBLIC	?AddSubgoal@?$Goal_Composite@VAbstRaven_Bot@@@@UAEXPAV?$Goal@VAbstRaven_Bot@@@@@Z ; Goal_Composite<AbstRaven_Bot>::AddSubgoal
PUBLIC	?RenderAtPos@?$Goal_Composite@VAbstRaven_Bot@@@@UBEXAAUVector2D@@PAVTypeToString@@@Z ; Goal_Composite<AbstRaven_Bot>::RenderAtPos
PUBLIC	?Render@?$Goal_Composite@VAbstRaven_Bot@@@@UAEXXZ ; Goal_Composite<AbstRaven_Bot>::Render
EXTRN	??_7type_info@@6B@:QWORD			; type_info::`vftable'
EXTRN	??_EGoal_Explore@@UAEPAXI@Z:PROC		; Goal_Explore::`vector deleting destructor'
EXTRN	?Activate@Goal_Explore@@UAEXXZ:PROC		; Goal_Explore::Activate
EXTRN	?Process@Goal_Explore@@UAEHXZ:PROC		; Goal_Explore::Process
EXTRN	?HandleMessage@Goal_Explore@@UAE_NABUTelegram@@@Z:PROC ; Goal_Explore::HandleMessage
;	COMDAT ??_R2?$Goal@VAbstRaven_Bot@@@@8
; File c:\users\teaja\documents\artificial-fun\labravenprojecttest\raven\goals\goal_explore.h
rdata$r	SEGMENT
??_R2?$Goal@VAbstRaven_Bot@@@@8 DD FLAT:??_R1A@?0A@EA@?$Goal@VAbstRaven_Bot@@@@8 ; Goal<AbstRaven_Bot>::`RTTI Base Class Array'
rdata$r	ENDS
;	COMDAT ??_R3?$Goal@VAbstRaven_Bot@@@@8
rdata$r	SEGMENT
??_R3?$Goal@VAbstRaven_Bot@@@@8 DD 00H			; Goal<AbstRaven_Bot>::`RTTI Class Hierarchy Descriptor'
	DD	00H
	DD	01H
	DD	FLAT:??_R2?$Goal@VAbstRaven_Bot@@@@8
rdata$r	ENDS
;	COMDAT ??_R0?AV?$Goal@VAbstRaven_Bot@@@@@8
_DATA	SEGMENT
??_R0?AV?$Goal@VAbstRaven_Bot@@@@@8 DD FLAT:??_7type_info@@6B@ ; Goal<AbstRaven_Bot> `RTTI Type Descriptor'
	DD	00H
	DB	'.?AV?$Goal@VAbstRaven_Bot@@@@', 00H
_DATA	ENDS
;	COMDAT ??_R1A@?0A@EA@?$Goal@VAbstRaven_Bot@@@@8
rdata$r	SEGMENT
??_R1A@?0A@EA@?$Goal@VAbstRaven_Bot@@@@8 DD FLAT:??_R0?AV?$Goal@VAbstRaven_Bot@@@@@8 ; Goal<AbstRaven_Bot>::`RTTI Base Class Descriptor at (0,-1,0,64)'
	DD	00H
	DD	00H
	DD	0ffffffffH
	DD	00H
	DD	040H
	DD	FLAT:??_R3?$Goal@VAbstRaven_Bot@@@@8
rdata$r	ENDS
;	COMDAT ??_R2?$Goal_Composite@VAbstRaven_Bot@@@@8
rdata$r	SEGMENT
??_R2?$Goal_Composite@VAbstRaven_Bot@@@@8 DD FLAT:??_R1A@?0A@EA@?$Goal_Composite@VAbstRaven_Bot@@@@8 ; Goal_Composite<AbstRaven_Bot>::`RTTI Base Class Array'
	DD	FLAT:??_R1A@?0A@EA@?$Goal@VAbstRaven_Bot@@@@8
rdata$r	ENDS
;	COMDAT ??_R3?$Goal_Composite@VAbstRaven_Bot@@@@8
rdata$r	SEGMENT
??_R3?$Goal_Composite@VAbstRaven_Bot@@@@8 DD 00H	; Goal_Composite<AbstRaven_Bot>::`RTTI Class Hierarchy Descriptor'
	DD	00H
	DD	02H
	DD	FLAT:??_R2?$Goal_Composite@VAbstRaven_Bot@@@@8
rdata$r	ENDS
;	COMDAT ??_R0?AV?$Goal_Composite@VAbstRaven_Bot@@@@@8
_DATA	SEGMENT
??_R0?AV?$Goal_Composite@VAbstRaven_Bot@@@@@8 DD FLAT:??_7type_info@@6B@ ; Goal_Composite<AbstRaven_Bot> `RTTI Type Descriptor'
	DD	00H
	DB	'.?AV?$Goal_Composite@VAbstRaven_Bot@@@@', 00H
_DATA	ENDS
;	COMDAT ??_R1A@?0A@EA@?$Goal_Composite@VAbstRaven_Bot@@@@8
rdata$r	SEGMENT
??_R1A@?0A@EA@?$Goal_Composite@VAbstRaven_Bot@@@@8 DD FLAT:??_R0?AV?$Goal_Composite@VAbstRaven_Bot@@@@@8 ; Goal_Composite<AbstRaven_Bot>::`RTTI Base Class Descriptor at (0,-1,0,64)'
	DD	01H
	DD	00H
	DD	0ffffffffH
	DD	00H
	DD	040H
	DD	FLAT:??_R3?$Goal_Composite@VAbstRaven_Bot@@@@8
rdata$r	ENDS
;	COMDAT ??_R1A@?0A@EA@Goal_Explore@@8
rdata$r	SEGMENT
??_R1A@?0A@EA@Goal_Explore@@8 DD FLAT:??_R0?AVGoal_Explore@@@8 ; Goal_Explore::`RTTI Base Class Descriptor at (0,-1,0,64)'
	DD	02H
	DD	00H
	DD	0ffffffffH
	DD	00H
	DD	040H
	DD	FLAT:??_R3Goal_Explore@@8
rdata$r	ENDS
;	COMDAT ??_R2Goal_Explore@@8
rdata$r	SEGMENT
??_R2Goal_Explore@@8 DD FLAT:??_R1A@?0A@EA@Goal_Explore@@8 ; Goal_Explore::`RTTI Base Class Array'
	DD	FLAT:??_R1A@?0A@EA@?$Goal_Composite@VAbstRaven_Bot@@@@8
	DD	FLAT:??_R1A@?0A@EA@?$Goal@VAbstRaven_Bot@@@@8
rdata$r	ENDS
;	COMDAT ??_R3Goal_Explore@@8
rdata$r	SEGMENT
??_R3Goal_Explore@@8 DD 00H				; Goal_Explore::`RTTI Class Hierarchy Descriptor'
	DD	00H
	DD	03H
	DD	FLAT:??_R2Goal_Explore@@8
rdata$r	ENDS
;	COMDAT ??_R0?AVGoal_Explore@@@8
_DATA	SEGMENT
??_R0?AVGoal_Explore@@@8 DD FLAT:??_7type_info@@6B@	; Goal_Explore `RTTI Type Descriptor'
	DD	00H
	DB	'.?AVGoal_Explore@@', 00H
_DATA	ENDS
;	COMDAT ??_R4Goal_Explore@@6B@
rdata$r	SEGMENT
??_R4Goal_Explore@@6B@ DD 00H				; Goal_Explore::`RTTI Complete Object Locator'
	DD	00H
	DD	00H
	DD	FLAT:??_R0?AVGoal_Explore@@@8
	DD	FLAT:??_R3Goal_Explore@@8
rdata$r	ENDS
;	COMDAT ??_7Goal_Explore@@6B@
CONST	SEGMENT
??_7Goal_Explore@@6B@ DD FLAT:??_R4Goal_Explore@@6B@	; Goal_Explore::`vftable'
	DD	FLAT:??_EGoal_Explore@@UAEPAXI@Z
	DD	FLAT:?Activate@Goal_Explore@@UAEXXZ
	DD	FLAT:?Process@Goal_Explore@@UAEHXZ
	DD	FLAT:?Terminate@Goal_Explore@@UAEXXZ
	DD	FLAT:?HandleMessage@Goal_Explore@@UAE_NABUTelegram@@@Z
	DD	FLAT:?AddSubgoal@?$Goal_Composite@VAbstRaven_Bot@@@@UAEXPAV?$Goal@VAbstRaven_Bot@@@@@Z
	DD	FLAT:?RenderAtPos@?$Goal_Composite@VAbstRaven_Bot@@@@UBEXAAUVector2D@@PAVTypeToString@@@Z
	DD	FLAT:?Render@?$Goal_Composite@VAbstRaven_Bot@@@@UAEXXZ
CONST	ENDS
;	COMDAT xdata$x
xdata$x	SEGMENT
__unwindtable$??0Goal_Explore@@QAE@PAVAbstRaven_Bot@@@Z DD 0ffffffffH
	DD	FLAT:__unwindfunclet$??0Goal_Explore@@QAE@PAVAbstRaven_Bot@@@Z$0
__ehfuncinfo$??0Goal_Explore@@QAE@PAVAbstRaven_Bot@@@Z DD 019930522H
	DD	01H
	DD	FLAT:__unwindtable$??0Goal_Explore@@QAE@PAVAbstRaven_Bot@@@Z
	DD	2 DUP(00H)
	DD	2 DUP(00H)
	DD	00H
	DD	01H
; Function compile flags: /Odtp /RTCsu
xdata$x	ENDS
;	COMDAT ??0Goal_Explore@@QAE@PAVAbstRaven_Bot@@@Z
_TEXT	SEGMENT
_this$ = -16						; size = 4
__$EHRec$ = -12						; size = 12
_pOwner$ = 8						; size = 4
??0Goal_Explore@@QAE@PAVAbstRaven_Bot@@@Z PROC		; Goal_Explore::Goal_Explore, COMDAT
; _this$ = ecx

; 26   :   {}

	push	ebp
	mov	ebp, esp
	push	-1
	push	__ehhandler$??0Goal_Explore@@QAE@PAVAbstRaven_Bot@@@Z
	mov	eax, DWORD PTR fs:0
	push	eax
	push	ecx
	mov	DWORD PTR [ebp-16], -858993460		; ccccccccH
	mov	eax, DWORD PTR ___security_cookie
	xor	eax, ebp
	push	eax
	lea	eax, DWORD PTR __$EHRec$[ebp]
	mov	DWORD PTR fs:0, eax
	mov	DWORD PTR _this$[ebp], ecx
	push	1
	mov	eax, DWORD PTR _pOwner$[ebp]
	push	eax
	mov	ecx, DWORD PTR _this$[ebp]
	call	??0?$Goal_Composite@VAbstRaven_Bot@@@@QAE@PAVAbstRaven_Bot@@H@Z ; Goal_Composite<AbstRaven_Bot>::Goal_Composite<AbstRaven_Bot>
	mov	DWORD PTR __$EHRec$[ebp+8], 0
	mov	ecx, DWORD PTR _this$[ebp]
	mov	DWORD PTR [ecx], OFFSET ??_7Goal_Explore@@6B@
	mov	ecx, DWORD PTR _this$[ebp]
	add	ecx, 32					; 00000020H
	call	??0Vector2D@@QAE@XZ			; Vector2D::Vector2D
	mov	edx, DWORD PTR _this$[ebp]
	mov	BYTE PTR [edx+48], 0
	mov	DWORD PTR __$EHRec$[ebp+8], -1
	mov	eax, DWORD PTR _this$[ebp]
	mov	ecx, DWORD PTR __$EHRec$[ebp]
	mov	DWORD PTR fs:0, ecx
	pop	ecx
	add	esp, 16					; 00000010H
	cmp	ebp, esp
	call	__RTC_CheckEsp
	mov	esp, ebp
	pop	ebp
	ret	4
_TEXT	ENDS
;	COMDAT text$x
text$x	SEGMENT
__unwindfunclet$??0Goal_Explore@@QAE@PAVAbstRaven_Bot@@@Z$0:
	mov	ecx, DWORD PTR _this$[ebp]
	jmp	??1?$Goal_Composite@VAbstRaven_Bot@@@@UAE@XZ ; Goal_Composite<AbstRaven_Bot>::~Goal_Composite<AbstRaven_Bot>
__ehhandler$??0Goal_Explore@@QAE@PAVAbstRaven_Bot@@@Z:
	mov	edx, DWORD PTR [esp+8]
	lea	eax, DWORD PTR [edx+12]
	mov	ecx, DWORD PTR [edx-8]
	xor	ecx, eax
	call	@__security_check_cookie@4
	mov	eax, OFFSET __ehfuncinfo$??0Goal_Explore@@QAE@PAVAbstRaven_Bot@@@Z
	jmp	___CxxFrameHandler3
text$x	ENDS
??0Goal_Explore@@QAE@PAVAbstRaven_Bot@@@Z ENDP		; Goal_Explore::Goal_Explore
PUBLIC	__real@0000000000000000
;	COMDAT __real@0000000000000000
; File c:\users\teaja\documents\artificial-fun\labravenprojecttest\common\2d\vector2d.h
CONST	SEGMENT
__real@0000000000000000 DQ 00000000000000000r	; 0
; Function compile flags: /Odtp /RTCsu
CONST	ENDS
;	COMDAT ??0Vector2D@@QAE@XZ
_TEXT	SEGMENT
_this$ = -4						; size = 4
??0Vector2D@@QAE@XZ PROC				; Vector2D::Vector2D, COMDAT
; _this$ = ecx

; 24   :   Vector2D():x(0.0),y(0.0){}

	push	ebp
	mov	ebp, esp
	push	ecx
	mov	DWORD PTR [ebp-4], -858993460		; ccccccccH
	mov	DWORD PTR _this$[ebp], ecx
	mov	eax, DWORD PTR _this$[ebp]
	fldz
	fstp	QWORD PTR [eax]
	mov	ecx, DWORD PTR _this$[ebp]
	fldz
	fstp	QWORD PTR [ecx+8]
	mov	eax, DWORD PTR _this$[ebp]
	mov	esp, ebp
	pop	ebp
	ret	0
??0Vector2D@@QAE@XZ ENDP				; Vector2D::Vector2D
; Function compile flags: /Odtp /RTCsu
; File c:\users\teaja\documents\artificial-fun\labravenprojecttest\raven\goals\goal_explore.h
_TEXT	ENDS
;	COMDAT ?Terminate@Goal_Explore@@UAEXXZ
_TEXT	SEGMENT
_this$ = -4						; size = 4
?Terminate@Goal_Explore@@UAEXXZ PROC			; Goal_Explore::Terminate, COMDAT
; _this$ = ecx

; 33   :   void Terminate(){}

	push	ebp
	mov	ebp, esp
	push	ecx
	mov	DWORD PTR [ebp-4], -858993460		; ccccccccH
	mov	DWORD PTR _this$[ebp], ecx
	mov	esp, ebp
	pop	ebp
	ret	0
?Terminate@Goal_Explore@@UAEXXZ ENDP			; Goal_Explore::Terminate
_TEXT	ENDS
PUBLIC	??1Goal_Explore@@UAE@XZ				; Goal_Explore::~Goal_Explore
; Function compile flags: /Odtp /RTCsu
;	COMDAT ??_GGoal_Explore@@UAEPAXI@Z
_TEXT	SEGMENT
_this$ = -4						; size = 4
___flags$ = 8						; size = 4
??_GGoal_Explore@@UAEPAXI@Z PROC			; Goal_Explore::`scalar deleting destructor', COMDAT
; _this$ = ecx
	push	ebp
	mov	ebp, esp
	push	ecx
	mov	DWORD PTR [ebp-4], -858993460		; ccccccccH
	mov	DWORD PTR _this$[ebp], ecx
	mov	ecx, DWORD PTR _this$[ebp]
	call	??1Goal_Explore@@UAE@XZ
	mov	eax, DWORD PTR ___flags$[ebp]
	and	eax, 1
	je	SHORT $LN1@scalar
	mov	ecx, DWORD PTR _this$[ebp]
	push	ecx
	call	??3@YAXPAX@Z				; operator delete
	add	esp, 4
$LN1@scalar:
	mov	eax, DWORD PTR _this$[ebp]
	add	esp, 4
	cmp	ebp, esp
	call	__RTC_CheckEsp
	mov	esp, ebp
	pop	ebp
	ret	4
??_GGoal_Explore@@UAEPAXI@Z ENDP			; Goal_Explore::`scalar deleting destructor'
; Function compile flags: /Odtp /RTCsu
_TEXT	ENDS
;	COMDAT ??1Goal_Explore@@UAE@XZ
_TEXT	SEGMENT
_this$ = -4						; size = 4
??1Goal_Explore@@UAE@XZ PROC				; Goal_Explore::~Goal_Explore, COMDAT
; _this$ = ecx
	push	ebp
	mov	ebp, esp
	push	ecx
	mov	DWORD PTR [ebp-4], -858993460		; ccccccccH
	mov	DWORD PTR _this$[ebp], ecx
	mov	ecx, DWORD PTR _this$[ebp]
	call	??1?$Goal_Composite@VAbstRaven_Bot@@@@UAE@XZ ; Goal_Composite<AbstRaven_Bot>::~Goal_Composite<AbstRaven_Bot>
	add	esp, 4
	cmp	ebp, esp
	call	__RTC_CheckEsp
	mov	esp, ebp
	pop	ebp
	ret	0
??1Goal_Explore@@UAE@XZ ENDP				; Goal_Explore::~Goal_Explore
_TEXT	ENDS
PUBLIC	??_7Goal_MoveToPosition@@6B@			; Goal_MoveToPosition::`vftable'
PUBLIC	??_R4Goal_MoveToPosition@@6B@			; Goal_MoveToPosition::`RTTI Complete Object Locator'
PUBLIC	??_R0?AVGoal_MoveToPosition@@@8			; Goal_MoveToPosition `RTTI Type Descriptor'
PUBLIC	??_R3Goal_MoveToPosition@@8			; Goal_MoveToPosition::`RTTI Class Hierarchy Descriptor'
PUBLIC	??_R2Goal_MoveToPosition@@8			; Goal_MoveToPosition::`RTTI Base Class Array'
PUBLIC	??_R1A@?0A@EA@Goal_MoveToPosition@@8		; Goal_MoveToPosition::`RTTI Base Class Descriptor at (0,-1,0,64)'
PUBLIC	?Terminate@Goal_MoveToPosition@@UAEXXZ		; Goal_MoveToPosition::Terminate
EXTRN	??_EGoal_MoveToPosition@@UAEPAXI@Z:PROC		; Goal_MoveToPosition::`vector deleting destructor'
EXTRN	?Activate@Goal_MoveToPosition@@UAEXXZ:PROC	; Goal_MoveToPosition::Activate
EXTRN	?Process@Goal_MoveToPosition@@UAEHXZ:PROC	; Goal_MoveToPosition::Process
EXTRN	?HandleMessage@Goal_MoveToPosition@@UAE_NABUTelegram@@@Z:PROC ; Goal_MoveToPosition::HandleMessage
EXTRN	?Render@Goal_MoveToPosition@@UAEXXZ:PROC	; Goal_MoveToPosition::Render
;	COMDAT ??_R1A@?0A@EA@Goal_MoveToPosition@@8
; File c:\users\teaja\documents\artificial-fun\labravenprojecttest\raven\goals\goal_movetoposition.h
rdata$r	SEGMENT
??_R1A@?0A@EA@Goal_MoveToPosition@@8 DD FLAT:??_R0?AVGoal_MoveToPosition@@@8 ; Goal_MoveToPosition::`RTTI Base Class Descriptor at (0,-1,0,64)'
	DD	02H
	DD	00H
	DD	0ffffffffH
	DD	00H
	DD	040H
	DD	FLAT:??_R3Goal_MoveToPosition@@8
rdata$r	ENDS
;	COMDAT ??_R2Goal_MoveToPosition@@8
rdata$r	SEGMENT
??_R2Goal_MoveToPosition@@8 DD FLAT:??_R1A@?0A@EA@Goal_MoveToPosition@@8 ; Goal_MoveToPosition::`RTTI Base Class Array'
	DD	FLAT:??_R1A@?0A@EA@?$Goal_Composite@VAbstRaven_Bot@@@@8
	DD	FLAT:??_R1A@?0A@EA@?$Goal@VAbstRaven_Bot@@@@8
rdata$r	ENDS
;	COMDAT ??_R3Goal_MoveToPosition@@8
rdata$r	SEGMENT
??_R3Goal_MoveToPosition@@8 DD 00H			; Goal_MoveToPosition::`RTTI Class Hierarchy Descriptor'
	DD	00H
	DD	03H
	DD	FLAT:??_R2Goal_MoveToPosition@@8
rdata$r	ENDS
;	COMDAT ??_R0?AVGoal_MoveToPosition@@@8
_DATA	SEGMENT
??_R0?AVGoal_MoveToPosition@@@8 DD FLAT:??_7type_info@@6B@ ; Goal_MoveToPosition `RTTI Type Descriptor'
	DD	00H
	DB	'.?AVGoal_MoveToPosition@@', 00H
_DATA	ENDS
;	COMDAT ??_R4Goal_MoveToPosition@@6B@
rdata$r	SEGMENT
??_R4Goal_MoveToPosition@@6B@ DD 00H			; Goal_MoveToPosition::`RTTI Complete Object Locator'
	DD	00H
	DD	00H
	DD	FLAT:??_R0?AVGoal_MoveToPosition@@@8
	DD	FLAT:??_R3Goal_MoveToPosition@@8
rdata$r	ENDS
;	COMDAT ??_7Goal_MoveToPosition@@6B@
CONST	SEGMENT
??_7Goal_MoveToPosition@@6B@ DD FLAT:??_R4Goal_MoveToPosition@@6B@ ; Goal_MoveToPosition::`vftable'
	DD	FLAT:??_EGoal_MoveToPosition@@UAEPAXI@Z
	DD	FLAT:?Activate@Goal_MoveToPosition@@UAEXXZ
	DD	FLAT:?Process@Goal_MoveToPosition@@UAEHXZ
	DD	FLAT:?Terminate@Goal_MoveToPosition@@UAEXXZ
	DD	FLAT:?HandleMessage@Goal_MoveToPosition@@UAE_NABUTelegram@@@Z
	DD	FLAT:?AddSubgoal@?$Goal_Composite@VAbstRaven_Bot@@@@UAEXPAV?$Goal@VAbstRaven_Bot@@@@@Z
	DD	FLAT:?RenderAtPos@?$Goal_Composite@VAbstRaven_Bot@@@@UBEXAAUVector2D@@PAVTypeToString@@@Z
	DD	FLAT:?Render@Goal_MoveToPosition@@UAEXXZ
; Function compile flags: /Odtp /RTCsu
CONST	ENDS
;	COMDAT ??0Goal_MoveToPosition@@QAE@PAVAbstRaven_Bot@@UVector2D@@@Z
_TEXT	SEGMENT
_this$ = -4						; size = 4
_pBot$ = 8						; size = 4
_pos$ = 12						; size = 16
??0Goal_MoveToPosition@@QAE@PAVAbstRaven_Bot@@UVector2D@@@Z PROC ; Goal_MoveToPosition::Goal_MoveToPosition, COMDAT
; _this$ = ecx

; 28   :   {}

	push	ebp
	mov	ebp, esp
	push	ecx
	mov	DWORD PTR [ebp-4], -858993460		; ccccccccH
	mov	DWORD PTR _this$[ebp], ecx
	push	6
	mov	eax, DWORD PTR _pBot$[ebp]
	push	eax
	mov	ecx, DWORD PTR _this$[ebp]
	call	??0?$Goal_Composite@VAbstRaven_Bot@@@@QAE@PAVAbstRaven_Bot@@H@Z ; Goal_Composite<AbstRaven_Bot>::Goal_Composite<AbstRaven_Bot>
	mov	ecx, DWORD PTR _this$[ebp]
	mov	DWORD PTR [ecx], OFFSET ??_7Goal_MoveToPosition@@6B@
	mov	edx, DWORD PTR _this$[ebp]
	add	edx, 32					; 00000020H
	mov	eax, DWORD PTR _pos$[ebp]
	mov	DWORD PTR [edx], eax
	mov	ecx, DWORD PTR _pos$[ebp+4]
	mov	DWORD PTR [edx+4], ecx
	mov	eax, DWORD PTR _pos$[ebp+8]
	mov	DWORD PTR [edx+8], eax
	mov	ecx, DWORD PTR _pos$[ebp+12]
	mov	DWORD PTR [edx+12], ecx
	mov	eax, DWORD PTR _this$[ebp]
	add	esp, 4
	cmp	ebp, esp
	call	__RTC_CheckEsp
	mov	esp, ebp
	pop	ebp
	ret	20					; 00000014H
??0Goal_MoveToPosition@@QAE@PAVAbstRaven_Bot@@UVector2D@@@Z ENDP ; Goal_MoveToPosition::Goal_MoveToPosition
; Function compile flags: /Odtp /RTCsu
_TEXT	ENDS
;	COMDAT ?Terminate@Goal_MoveToPosition@@UAEXXZ
_TEXT	SEGMENT
_this$ = -4						; size = 4
?Terminate@Goal_MoveToPosition@@UAEXXZ PROC		; Goal_MoveToPosition::Terminate, COMDAT
; _this$ = ecx

; 33   :   void Terminate(){}

	push	ebp
	mov	ebp, esp
	push	ecx
	mov	DWORD PTR [ebp-4], -858993460		; ccccccccH
	mov	DWORD PTR _this$[ebp], ecx
	mov	esp, ebp
	pop	ebp
	ret	0
?Terminate@Goal_MoveToPosition@@UAEXXZ ENDP		; Goal_MoveToPosition::Terminate
_TEXT	ENDS
PUBLIC	??1Goal_MoveToPosition@@UAE@XZ			; Goal_MoveToPosition::~Goal_MoveToPosition
; Function compile flags: /Odtp /RTCsu
;	COMDAT ??_GGoal_MoveToPosition@@UAEPAXI@Z
_TEXT	SEGMENT
_this$ = -4						; size = 4
___flags$ = 8						; size = 4
??_GGoal_MoveToPosition@@UAEPAXI@Z PROC			; Goal_MoveToPosition::`scalar deleting destructor', COMDAT
; _this$ = ecx
	push	ebp
	mov	ebp, esp
	push	ecx
	mov	DWORD PTR [ebp-4], -858993460		; ccccccccH
	mov	DWORD PTR _this$[ebp], ecx
	mov	ecx, DWORD PTR _this$[ebp]
	call	??1Goal_MoveToPosition@@UAE@XZ
	mov	eax, DWORD PTR ___flags$[ebp]
	and	eax, 1
	je	SHORT $LN1@scalar@2
	mov	ecx, DWORD PTR _this$[ebp]
	push	ecx
	call	??3@YAXPAX@Z				; operator delete
	add	esp, 4
$LN1@scalar@2:
	mov	eax, DWORD PTR _this$[ebp]
	add	esp, 4
	cmp	ebp, esp
	call	__RTC_CheckEsp
	mov	esp, ebp
	pop	ebp
	ret	4
??_GGoal_MoveToPosition@@UAEPAXI@Z ENDP			; Goal_MoveToPosition::`scalar deleting destructor'
; Function compile flags: /Odtp /RTCsu
_TEXT	ENDS
;	COMDAT ??1Goal_MoveToPosition@@UAE@XZ
_TEXT	SEGMENT
_this$ = -4						; size = 4
??1Goal_MoveToPosition@@UAE@XZ PROC			; Goal_MoveToPosition::~Goal_MoveToPosition, COMDAT
; _this$ = ecx
	push	ebp
	mov	ebp, esp
	push	ecx
	mov	DWORD PTR [ebp-4], -858993460		; ccccccccH
	mov	DWORD PTR _this$[ebp], ecx
	mov	ecx, DWORD PTR _this$[ebp]
	call	??1?$Goal_Composite@VAbstRaven_Bot@@@@UAE@XZ ; Goal_Composite<AbstRaven_Bot>::~Goal_Composite<AbstRaven_Bot>
	add	esp, 4
	cmp	ebp, esp
	call	__RTC_CheckEsp
	mov	esp, ebp
	pop	ebp
	ret	0
??1Goal_MoveToPosition@@UAE@XZ ENDP			; Goal_MoveToPosition::~Goal_MoveToPosition
_TEXT	ENDS
PUBLIC	?ProcessSubgoals@?$Goal_Composite@VAbstRaven_Bot@@@@IAEHXZ ; Goal_Composite<AbstRaven_Bot>::ProcessSubgoals
PUBLIC	?ActivateIfInactive@?$Goal@VAbstRaven_Bot@@@@IAEXXZ ; Goal<AbstRaven_Bot>::ActivateIfInactive
PUBLIC	?Process@Goal_HuntTarget@@UAEHXZ		; Goal_HuntTarget::Process
; Function compile flags: /Odtp /RTCsu
; File c:\users\teaja\documents\artificial-fun\labravenprojecttest\raven\goals\goal_hunttarget.cpp
_TEXT	SEGMENT
tv88 = -8						; size = 4
_this$ = -4						; size = 4
?Process@Goal_HuntTarget@@UAEHXZ PROC			; Goal_HuntTarget::Process
; _this$ = ecx

; 55   : {

	push	ebp
	mov	ebp, esp
	sub	esp, 8
	push	esi
	mov	DWORD PTR [ebp-8], -858993460		; ccccccccH
	mov	DWORD PTR [ebp-4], -858993460		; ccccccccH
	mov	DWORD PTR _this$[ebp], ecx

; 56   :   //if status is inactive, call Activate()
; 57   :   ActivateIfInactive();

	mov	ecx, DWORD PTR _this$[ebp]
	call	?ActivateIfInactive@?$Goal@VAbstRaven_Bot@@@@IAEXXZ ; Goal<AbstRaven_Bot>::ActivateIfInactive

; 58   : 
; 59   :   m_iStatus = ProcessSubgoals();

	mov	ecx, DWORD PTR _this$[ebp]
	call	?ProcessSubgoals@?$Goal_Composite@VAbstRaven_Bot@@@@IAEHXZ ; Goal_Composite<AbstRaven_Bot>::ProcessSubgoals
	mov	ecx, DWORD PTR _this$[ebp]
	mov	DWORD PTR [ecx+12], eax

; 60   : 
; 61   :   //if target is in view this goal is satisfied
; 62   :   if (m_pOwner->GetTargetSys()->isTargetWithinFOV())

	mov	edx, DWORD PTR _this$[ebp]
	mov	ecx, DWORD PTR [edx+8]
	call	?GetTargetSys@AbstRaven_Bot@@QAEQAVAbstTargetingSystem@@XZ ; AbstRaven_Bot::GetTargetSys
	mov	DWORD PTR tv88[ebp], eax
	mov	eax, DWORD PTR tv88[ebp]
	mov	edx, DWORD PTR [eax]
	mov	esi, esp
	mov	ecx, DWORD PTR tv88[ebp]
	mov	eax, DWORD PTR [edx+4]
	call	eax
	cmp	esi, esp
	call	__RTC_CheckEsp
	movzx	ecx, al
	test	ecx, ecx
	je	SHORT $LN1@Process

; 63   :   {
; 64   :      m_iStatus = completed;

	mov	edx, DWORD PTR _this$[ebp]
	mov	DWORD PTR [edx+12], 2
$LN1@Process:

; 65   :   }
; 66   : 
; 67   :   return m_iStatus;

	mov	eax, DWORD PTR _this$[ebp]
	mov	eax, DWORD PTR [eax+12]

; 68   : }

	pop	esi
	add	esp, 8
	cmp	ebp, esp
	call	__RTC_CheckEsp
	mov	esp, ebp
	pop	ebp
	ret	0
?Process@Goal_HuntTarget@@UAEHXZ ENDP			; Goal_HuntTarget::Process
_TEXT	ENDS
PUBLIC	?Render@Goal_HuntTarget@@UAEXXZ			; Goal_HuntTarget::Render
; Function compile flags: /Odtp /RTCsu
_TEXT	SEGMENT
_this$ = -4						; size = 4
?Render@Goal_HuntTarget@@UAEXXZ PROC			; Goal_HuntTarget::Render
; _this$ = ecx

; 74   : {  

	push	ebp
	mov	ebp, esp
	push	ecx
	mov	DWORD PTR [ebp-4], -858993460		; ccccccccH
	mov	DWORD PTR _this$[ebp], ecx

; 75   : //#define SHOW_LAST_RECORDED_POSITION
; 76   : #ifdef SHOW_LAST_RECORDED_POSITION
; 77   :   //render last recorded position as a green circle
; 78   :   if (m_pOwner->GetTargetSys()->isTargetPresent())
; 79   :   {
; 80   :     gdi->GreenPen();
; 81   :     gdi->RedBrush();
; 82   :     gdi->Circle(m_pOwner->GetTargetSys()->GetLastRecordedPosition(), 3);
; 83   :   }
; 84   : #endif
; 85   : 
; 86   :  //forward the request to the subgoals
; 87   :   Goal_Composite<AbstRaven_Bot>::Render();

	mov	ecx, DWORD PTR _this$[ebp]
	call	?Render@?$Goal_Composite@VAbstRaven_Bot@@@@UAEXXZ ; Goal_Composite<AbstRaven_Bot>::Render

; 88   :   
; 89   : }

	add	esp, 4
	cmp	ebp, esp
	call	__RTC_CheckEsp
	mov	esp, ebp
	pop	ebp
	ret	0
?Render@Goal_HuntTarget@@UAEXXZ ENDP			; Goal_HuntTarget::Render
_TEXT	ENDS
PUBLIC	??1?$Goal@VAbstRaven_Bot@@@@UAE@XZ		; Goal<AbstRaven_Bot>::~Goal<AbstRaven_Bot>
PUBLIC	??0?$list@PAV?$Goal@VAbstRaven_Bot@@@@V?$allocator@PAV?$Goal@VAbstRaven_Bot@@@@@std@@@std@@QAE@XZ ; std::list<Goal<AbstRaven_Bot> *,std::allocator<Goal<AbstRaven_Bot> *> >::list<Goal<AbstRaven_Bot> *,std::allocator<Goal<AbstRaven_Bot> *> >
PUBLIC	??_7?$Goal_Composite@VAbstRaven_Bot@@@@6B@	; Goal_Composite<AbstRaven_Bot>::`vftable'
PUBLIC	??0?$Goal@VAbstRaven_Bot@@@@QAE@PAVAbstRaven_Bot@@H@Z ; Goal<AbstRaven_Bot>::Goal<AbstRaven_Bot>
PUBLIC	??_R4?$Goal_Composite@VAbstRaven_Bot@@@@6B@	; Goal_Composite<AbstRaven_Bot>::`RTTI Complete Object Locator'
PUBLIC	?HandleMessage@?$Goal_Composite@VAbstRaven_Bot@@@@UAE_NABUTelegram@@@Z ; Goal_Composite<AbstRaven_Bot>::HandleMessage
EXTRN	??_E?$Goal_Composite@VAbstRaven_Bot@@@@UAEPAXI@Z:PROC ; Goal_Composite<AbstRaven_Bot>::`vector deleting destructor'
EXTRN	__purecall:PROC
;	COMDAT ??_R4?$Goal_Composite@VAbstRaven_Bot@@@@6B@
; File c:\users\teaja\documents\artificial-fun\labravenprojecttest\common\goals\goal_composite.h
rdata$r	SEGMENT
??_R4?$Goal_Composite@VAbstRaven_Bot@@@@6B@ DD 00H	; Goal_Composite<AbstRaven_Bot>::`RTTI Complete Object Locator'
	DD	00H
	DD	00H
	DD	FLAT:??_R0?AV?$Goal_Composite@VAbstRaven_Bot@@@@@8
	DD	FLAT:??_R3?$Goal_Composite@VAbstRaven_Bot@@@@8
rdata$r	ENDS
;	COMDAT ??_7?$Goal_Composite@VAbstRaven_Bot@@@@6B@
CONST	SEGMENT
??_7?$Goal_Composite@VAbstRaven_Bot@@@@6B@ DD FLAT:??_R4?$Goal_Composite@VAbstRaven_Bot@@@@6B@ ; Goal_Composite<AbstRaven_Bot>::`vftable'
	DD	FLAT:??_E?$Goal_Composite@VAbstRaven_Bot@@@@UAEPAXI@Z
	DD	FLAT:__purecall
	DD	FLAT:__purecall
	DD	FLAT:__purecall
	DD	FLAT:?HandleMessage@?$Goal_Composite@VAbstRaven_Bot@@@@UAE_NABUTelegram@@@Z
	DD	FLAT:?AddSubgoal@?$Goal_Composite@VAbstRaven_Bot@@@@UAEXPAV?$Goal@VAbstRaven_Bot@@@@@Z
	DD	FLAT:?RenderAtPos@?$Goal_Composite@VAbstRaven_Bot@@@@UBEXAAUVector2D@@PAVTypeToString@@@Z
	DD	FLAT:?Render@?$Goal_Composite@VAbstRaven_Bot@@@@UAEXXZ
CONST	ENDS
;	COMDAT xdata$x
xdata$x	SEGMENT
__unwindtable$??0?$Goal_Composite@VAbstRaven_Bot@@@@QAE@PAVAbstRaven_Bot@@H@Z DD 0ffffffffH
	DD	FLAT:__unwindfunclet$??0?$Goal_Composite@VAbstRaven_Bot@@@@QAE@PAVAbstRaven_Bot@@H@Z$0
__ehfuncinfo$??0?$Goal_Composite@VAbstRaven_Bot@@@@QAE@PAVAbstRaven_Bot@@H@Z DD 019930522H
	DD	01H
	DD	FLAT:__unwindtable$??0?$Goal_Composite@VAbstRaven_Bot@@@@QAE@PAVAbstRaven_Bot@@H@Z
	DD	2 DUP(00H)
	DD	2 DUP(00H)
	DD	00H
	DD	01H
; Function compile flags: /Odtp /RTCsu
xdata$x	ENDS
;	COMDAT ??0?$Goal_Composite@VAbstRaven_Bot@@@@QAE@PAVAbstRaven_Bot@@H@Z
_TEXT	SEGMENT
_this$ = -16						; size = 4
__$EHRec$ = -12						; size = 12
_pE$ = 8						; size = 4
_type$ = 12						; size = 4
??0?$Goal_Composite@VAbstRaven_Bot@@@@QAE@PAVAbstRaven_Bot@@H@Z PROC ; Goal_Composite<AbstRaven_Bot>::Goal_Composite<AbstRaven_Bot>, COMDAT
; _this$ = ecx

; 37   :   Goal_Composite(entity_type* pE, int type):Goal<entity_type>(pE,type){}

	push	ebp
	mov	ebp, esp
	push	-1
	push	__ehhandler$??0?$Goal_Composite@VAbstRaven_Bot@@@@QAE@PAVAbstRaven_Bot@@H@Z
	mov	eax, DWORD PTR fs:0
	push	eax
	push	ecx
	mov	DWORD PTR [ebp-16], -858993460		; ccccccccH
	mov	eax, DWORD PTR ___security_cookie
	xor	eax, ebp
	push	eax
	lea	eax, DWORD PTR __$EHRec$[ebp]
	mov	DWORD PTR fs:0, eax
	mov	DWORD PTR _this$[ebp], ecx
	mov	eax, DWORD PTR _type$[ebp]
	push	eax
	mov	ecx, DWORD PTR _pE$[ebp]
	push	ecx
	mov	ecx, DWORD PTR _this$[ebp]
	call	??0?$Goal@VAbstRaven_Bot@@@@QAE@PAVAbstRaven_Bot@@H@Z ; Goal<AbstRaven_Bot>::Goal<AbstRaven_Bot>
	mov	DWORD PTR __$EHRec$[ebp+8], 0
	mov	edx, DWORD PTR _this$[ebp]
	mov	DWORD PTR [edx], OFFSET ??_7?$Goal_Composite@VAbstRaven_Bot@@@@6B@
	mov	ecx, DWORD PTR _this$[ebp]
	add	ecx, 16					; 00000010H
	call	??0?$list@PAV?$Goal@VAbstRaven_Bot@@@@V?$allocator@PAV?$Goal@VAbstRaven_Bot@@@@@std@@@std@@QAE@XZ ; std::list<Goal<AbstRaven_Bot> *,std::allocator<Goal<AbstRaven_Bot> *> >::list<Goal<AbstRaven_Bot> *,std::allocator<Goal<AbstRaven_Bot> *> >
	mov	DWORD PTR __$EHRec$[ebp+8], -1
	mov	eax, DWORD PTR _this$[ebp]
	mov	ecx, DWORD PTR __$EHRec$[ebp]
	mov	DWORD PTR fs:0, ecx
	pop	ecx
	add	esp, 16					; 00000010H
	cmp	ebp, esp
	call	__RTC_CheckEsp
	mov	esp, ebp
	pop	ebp
	ret	8
_TEXT	ENDS
;	COMDAT text$x
text$x	SEGMENT
__unwindfunclet$??0?$Goal_Composite@VAbstRaven_Bot@@@@QAE@PAVAbstRaven_Bot@@H@Z$0:
	mov	ecx, DWORD PTR _this$[ebp]
	jmp	??1?$Goal@VAbstRaven_Bot@@@@UAE@XZ	; Goal<AbstRaven_Bot>::~Goal<AbstRaven_Bot>
__ehhandler$??0?$Goal_Composite@VAbstRaven_Bot@@@@QAE@PAVAbstRaven_Bot@@H@Z:
	mov	edx, DWORD PTR [esp+8]
	lea	eax, DWORD PTR [edx+12]
	mov	ecx, DWORD PTR [edx-8]
	xor	ecx, eax
	call	@__security_check_cookie@4
	mov	eax, OFFSET __ehfuncinfo$??0?$Goal_Composite@VAbstRaven_Bot@@@@QAE@PAVAbstRaven_Bot@@H@Z
	jmp	___CxxFrameHandler3
text$x	ENDS
??0?$Goal_Composite@VAbstRaven_Bot@@@@QAE@PAVAbstRaven_Bot@@H@Z ENDP ; Goal_Composite<AbstRaven_Bot>::Goal_Composite<AbstRaven_Bot>
PUBLIC	??1?$list@PAV?$Goal@VAbstRaven_Bot@@@@V?$allocator@PAV?$Goal@VAbstRaven_Bot@@@@@std@@@std@@QAE@XZ ; std::list<Goal<AbstRaven_Bot> *,std::allocator<Goal<AbstRaven_Bot> *> >::~list<Goal<AbstRaven_Bot> *,std::allocator<Goal<AbstRaven_Bot> *> >
;	COMDAT xdata$x
xdata$x	SEGMENT
__unwindtable$??1?$Goal_Composite@VAbstRaven_Bot@@@@UAE@XZ DD 0ffffffffH
	DD	FLAT:__unwindfunclet$??1?$Goal_Composite@VAbstRaven_Bot@@@@UAE@XZ$0
	DD	00H
	DD	FLAT:__unwindfunclet$??1?$Goal_Composite@VAbstRaven_Bot@@@@UAE@XZ$1
__ehfuncinfo$??1?$Goal_Composite@VAbstRaven_Bot@@@@UAE@XZ DD 019930522H
	DD	02H
	DD	FLAT:__unwindtable$??1?$Goal_Composite@VAbstRaven_Bot@@@@UAE@XZ
	DD	2 DUP(00H)
	DD	2 DUP(00H)
	DD	00H
	DD	01H
; Function compile flags: /Odtp /RTCsu
xdata$x	ENDS
;	COMDAT ??1?$Goal_Composite@VAbstRaven_Bot@@@@UAE@XZ
_TEXT	SEGMENT
_this$ = -16						; size = 4
__$EHRec$ = -12						; size = 12
??1?$Goal_Composite@VAbstRaven_Bot@@@@UAE@XZ PROC	; Goal_Composite<AbstRaven_Bot>::~Goal_Composite<AbstRaven_Bot>, COMDAT
; _this$ = ecx

; 41   :   virtual ~Goal_Composite(){RemoveAllSubgoals();}

	push	ebp
	mov	ebp, esp
	push	-1
	push	__ehhandler$??1?$Goal_Composite@VAbstRaven_Bot@@@@UAE@XZ
	mov	eax, DWORD PTR fs:0
	push	eax
	push	ecx
	mov	DWORD PTR [ebp-16], -858993460		; ccccccccH
	mov	eax, DWORD PTR ___security_cookie
	xor	eax, ebp
	push	eax
	lea	eax, DWORD PTR __$EHRec$[ebp]
	mov	DWORD PTR fs:0, eax
	mov	DWORD PTR _this$[ebp], ecx
	mov	eax, DWORD PTR _this$[ebp]
	mov	DWORD PTR [eax], OFFSET ??_7?$Goal_Composite@VAbstRaven_Bot@@@@6B@
	mov	DWORD PTR __$EHRec$[ebp+8], 1
	mov	ecx, DWORD PTR _this$[ebp]
	call	?RemoveAllSubgoals@?$Goal_Composite@VAbstRaven_Bot@@@@QAEXXZ ; Goal_Composite<AbstRaven_Bot>::RemoveAllSubgoals
	mov	BYTE PTR __$EHRec$[ebp+8], 0
	mov	ecx, DWORD PTR _this$[ebp]
	add	ecx, 16					; 00000010H
	call	??1?$list@PAV?$Goal@VAbstRaven_Bot@@@@V?$allocator@PAV?$Goal@VAbstRaven_Bot@@@@@std@@@std@@QAE@XZ ; std::list<Goal<AbstRaven_Bot> *,std::allocator<Goal<AbstRaven_Bot> *> >::~list<Goal<AbstRaven_Bot> *,std::allocator<Goal<AbstRaven_Bot> *> >
	mov	DWORD PTR __$EHRec$[ebp+8], -1
	mov	ecx, DWORD PTR _this$[ebp]
	call	??1?$Goal@VAbstRaven_Bot@@@@UAE@XZ	; Goal<AbstRaven_Bot>::~Goal<AbstRaven_Bot>
	mov	ecx, DWORD PTR __$EHRec$[ebp]
	mov	DWORD PTR fs:0, ecx
	pop	ecx
	add	esp, 16					; 00000010H
	cmp	ebp, esp
	call	__RTC_CheckEsp
	mov	esp, ebp
	pop	ebp
	ret	0
_TEXT	ENDS
;	COMDAT text$x
text$x	SEGMENT
__unwindfunclet$??1?$Goal_Composite@VAbstRaven_Bot@@@@UAE@XZ$0:
	mov	ecx, DWORD PTR _this$[ebp]
	jmp	??1?$Goal@VAbstRaven_Bot@@@@UAE@XZ	; Goal<AbstRaven_Bot>::~Goal<AbstRaven_Bot>
__unwindfunclet$??1?$Goal_Composite@VAbstRaven_Bot@@@@UAE@XZ$1:
	mov	ecx, DWORD PTR _this$[ebp]
	add	ecx, 16					; 00000010H
	jmp	??1?$list@PAV?$Goal@VAbstRaven_Bot@@@@V?$allocator@PAV?$Goal@VAbstRaven_Bot@@@@@std@@@std@@QAE@XZ ; std::list<Goal<AbstRaven_Bot> *,std::allocator<Goal<AbstRaven_Bot> *> >::~list<Goal<AbstRaven_Bot> *,std::allocator<Goal<AbstRaven_Bot> *> >
__ehhandler$??1?$Goal_Composite@VAbstRaven_Bot@@@@UAE@XZ:
	mov	edx, DWORD PTR [esp+8]
	lea	eax, DWORD PTR [edx+12]
	mov	ecx, DWORD PTR [edx-8]
	xor	ecx, eax
	call	@__security_check_cookie@4
	mov	eax, OFFSET __ehfuncinfo$??1?$Goal_Composite@VAbstRaven_Bot@@@@UAE@XZ
	jmp	___CxxFrameHandler3
text$x	ENDS
??1?$Goal_Composite@VAbstRaven_Bot@@@@UAE@XZ ENDP	; Goal_Composite<AbstRaven_Bot>::~Goal_Composite<AbstRaven_Bot>
PUBLIC	?ForwardMessageToFrontMostSubgoal@?$Goal_Composite@VAbstRaven_Bot@@@@IAE_NABUTelegram@@@Z ; Goal_Composite<AbstRaven_Bot>::ForwardMessageToFrontMostSubgoal
; Function compile flags: /Odtp /RTCsu
;	COMDAT ?HandleMessage@?$Goal_Composite@VAbstRaven_Bot@@@@UAE_NABUTelegram@@@Z
_TEXT	SEGMENT
_this$ = -4						; size = 4
_msg$ = 8						; size = 4
?HandleMessage@?$Goal_Composite@VAbstRaven_Bot@@@@UAE_NABUTelegram@@@Z PROC ; Goal_Composite<AbstRaven_Bot>::HandleMessage, COMDAT
; _this$ = ecx

; 56   :   { return ForwardMessageToFrontMostSubgoal(msg);}

	push	ebp
	mov	ebp, esp
	push	ecx
	mov	DWORD PTR [ebp-4], -858993460		; ccccccccH
	mov	DWORD PTR _this$[ebp], ecx
	mov	eax, DWORD PTR _msg$[ebp]
	push	eax
	mov	ecx, DWORD PTR _this$[ebp]
	call	?ForwardMessageToFrontMostSubgoal@?$Goal_Composite@VAbstRaven_Bot@@@@IAE_NABUTelegram@@@Z ; Goal_Composite<AbstRaven_Bot>::ForwardMessageToFrontMostSubgoal
	add	esp, 4
	cmp	ebp, esp
	call	__RTC_CheckEsp
	mov	esp, ebp
	pop	ebp
	ret	4
?HandleMessage@?$Goal_Composite@VAbstRaven_Bot@@@@UAE_NABUTelegram@@@Z ENDP ; Goal_Composite<AbstRaven_Bot>::HandleMessage
_TEXT	ENDS
PUBLIC	??_7?$Goal@VAbstRaven_Bot@@@@6B@		; Goal<AbstRaven_Bot>::`vftable'
PUBLIC	??_R4?$Goal@VAbstRaven_Bot@@@@6B@		; Goal<AbstRaven_Bot>::`RTTI Complete Object Locator'
PUBLIC	?HandleMessage@?$Goal@VAbstRaven_Bot@@@@UAE_NABUTelegram@@@Z ; Goal<AbstRaven_Bot>::HandleMessage
PUBLIC	?AddSubgoal@?$Goal@VAbstRaven_Bot@@@@UAEXPAV1@@Z ; Goal<AbstRaven_Bot>::AddSubgoal
PUBLIC	?RenderAtPos@?$Goal@VAbstRaven_Bot@@@@UBEXAAUVector2D@@PAVTypeToString@@@Z ; Goal<AbstRaven_Bot>::RenderAtPos
PUBLIC	?Render@?$Goal@VAbstRaven_Bot@@@@UAEXXZ		; Goal<AbstRaven_Bot>::Render
EXTRN	??_E?$Goal@VAbstRaven_Bot@@@@UAEPAXI@Z:PROC	; Goal<AbstRaven_Bot>::`vector deleting destructor'
;	COMDAT ??_R4?$Goal@VAbstRaven_Bot@@@@6B@
; File c:\users\teaja\documents\artificial-fun\labravenprojecttest\common\goals\goal.h
rdata$r	SEGMENT
??_R4?$Goal@VAbstRaven_Bot@@@@6B@ DD 00H		; Goal<AbstRaven_Bot>::`RTTI Complete Object Locator'
	DD	00H
	DD	00H
	DD	FLAT:??_R0?AV?$Goal@VAbstRaven_Bot@@@@@8
	DD	FLAT:??_R3?$Goal@VAbstRaven_Bot@@@@8
rdata$r	ENDS
;	COMDAT ??_7?$Goal@VAbstRaven_Bot@@@@6B@
CONST	SEGMENT
??_7?$Goal@VAbstRaven_Bot@@@@6B@ DD FLAT:??_R4?$Goal@VAbstRaven_Bot@@@@6B@ ; Goal<AbstRaven_Bot>::`vftable'
	DD	FLAT:??_E?$Goal@VAbstRaven_Bot@@@@UAEPAXI@Z
	DD	FLAT:__purecall
	DD	FLAT:__purecall
	DD	FLAT:__purecall
	DD	FLAT:?HandleMessage@?$Goal@VAbstRaven_Bot@@@@UAE_NABUTelegram@@@Z
	DD	FLAT:?AddSubgoal@?$Goal@VAbstRaven_Bot@@@@UAEXPAV1@@Z
	DD	FLAT:?RenderAtPos@?$Goal@VAbstRaven_Bot@@@@UBEXAAUVector2D@@PAVTypeToString@@@Z
	DD	FLAT:?Render@?$Goal@VAbstRaven_Bot@@@@UAEXXZ
; Function compile flags: /Odtp /RTCsu
CONST	ENDS
;	COMDAT ??1?$Goal@VAbstRaven_Bot@@@@UAE@XZ
_TEXT	SEGMENT
_this$ = -4						; size = 4
??1?$Goal@VAbstRaven_Bot@@@@UAE@XZ PROC			; Goal<AbstRaven_Bot>::~Goal<AbstRaven_Bot>, COMDAT
; _this$ = ecx

; 56   :   virtual ~Goal(){}

	push	ebp
	mov	ebp, esp
	push	ecx
	mov	DWORD PTR [ebp-4], -858993460		; ccccccccH
	mov	DWORD PTR _this$[ebp], ecx
	mov	eax, DWORD PTR _this$[ebp]
	mov	DWORD PTR [eax], OFFSET ??_7?$Goal@VAbstRaven_Bot@@@@6B@
	mov	esp, ebp
	pop	ebp
	ret	0
??1?$Goal@VAbstRaven_Bot@@@@UAE@XZ ENDP			; Goal<AbstRaven_Bot>::~Goal<AbstRaven_Bot>
; Function compile flags: /Odtp /RTCsu
_TEXT	ENDS
;	COMDAT ?HandleMessage@?$Goal@VAbstRaven_Bot@@@@UAE_NABUTelegram@@@Z
_TEXT	SEGMENT
_this$ = -4						; size = 4
_msg$ = 8						; size = 4
?HandleMessage@?$Goal@VAbstRaven_Bot@@@@UAE_NABUTelegram@@@Z PROC ; Goal<AbstRaven_Bot>::HandleMessage, COMDAT
; _this$ = ecx

; 70   :   virtual bool HandleMessage(const Telegram& msg){return false;}

	push	ebp
	mov	ebp, esp
	push	ecx
	mov	DWORD PTR [ebp-4], -858993460		; ccccccccH
	mov	DWORD PTR _this$[ebp], ecx
	xor	al, al
	mov	esp, ebp
	pop	ebp
	ret	4
?HandleMessage@?$Goal@VAbstRaven_Bot@@@@UAE_NABUTelegram@@@Z ENDP ; Goal<AbstRaven_Bot>::HandleMessage
_TEXT	ENDS
PUBLIC	__TI2?AVruntime_error@std@@
PUBLIC	??0runtime_error@std@@QAE@PBD@Z			; std::runtime_error::runtime_error
PUBLIC	??_C@_0CB@OHIHCHGJ@Cannot?5add?5goals?5to?5atomic?5goals@ ; `string'
PUBLIC	??1runtime_error@std@@UAE@XZ			; std::runtime_error::~runtime_error
PUBLIC	__CTA2?AVruntime_error@std@@
PUBLIC	__CT??_R0?AVruntime_error@std@@@8??0runtime_error@std@@QAE@ABV01@@Z12
PUBLIC	??_R0?AVruntime_error@std@@@8			; std::runtime_error `RTTI Type Descriptor'
PUBLIC	??0runtime_error@std@@QAE@ABV01@@Z		; std::runtime_error::runtime_error
PUBLIC	__CT??_R0?AVexception@std@@@8??0exception@std@@QAE@ABV01@@Z12
PUBLIC	??_R0?AVexception@std@@@8			; std::exception `RTTI Type Descriptor'
EXTRN	__CxxThrowException@8:PROC
EXTRN	??0exception@std@@QAE@ABV01@@Z:PROC		; std::exception::exception
;	COMDAT ??_R0?AVexception@std@@@8
_DATA	SEGMENT
??_R0?AVexception@std@@@8 DD FLAT:??_7type_info@@6B@	; std::exception `RTTI Type Descriptor'
	DD	00H
	DB	'.?AVexception@std@@', 00H
_DATA	ENDS
;	COMDAT __CT??_R0?AVexception@std@@@8??0exception@std@@QAE@ABV01@@Z12
xdata$x	SEGMENT
__CT??_R0?AVexception@std@@@8??0exception@std@@QAE@ABV01@@Z12 DD 00H
	DD	FLAT:??_R0?AVexception@std@@@8
	DD	00H
	DD	0ffffffffH
	ORG $+4
	DD	0cH
	DD	FLAT:??0exception@std@@QAE@ABV01@@Z
xdata$x	ENDS
;	COMDAT ??_R0?AVruntime_error@std@@@8
_DATA	SEGMENT
??_R0?AVruntime_error@std@@@8 DD FLAT:??_7type_info@@6B@ ; std::runtime_error `RTTI Type Descriptor'
	DD	00H
	DB	'.?AVruntime_error@std@@', 00H
_DATA	ENDS
;	COMDAT __CT??_R0?AVruntime_error@std@@@8??0runtime_error@std@@QAE@ABV01@@Z12
xdata$x	SEGMENT
__CT??_R0?AVruntime_error@std@@@8??0runtime_error@std@@QAE@ABV01@@Z12 DD 00H
	DD	FLAT:??_R0?AVruntime_error@std@@@8
	DD	00H
	DD	0ffffffffH
	ORG $+4
	DD	0cH
	DD	FLAT:??0runtime_error@std@@QAE@ABV01@@Z
xdata$x	ENDS
;	COMDAT __CTA2?AVruntime_error@std@@
xdata$x	SEGMENT
__CTA2?AVruntime_error@std@@ DD 02H
	DD	FLAT:__CT??_R0?AVruntime_error@std@@@8??0runtime_error@std@@QAE@ABV01@@Z12
	DD	FLAT:__CT??_R0?AVexception@std@@@8??0exception@std@@QAE@ABV01@@Z12
xdata$x	ENDS
;	COMDAT __TI2?AVruntime_error@std@@
xdata$x	SEGMENT
__TI2?AVruntime_error@std@@ DD 00H
	DD	FLAT:??1runtime_error@std@@UAE@XZ
	DD	00H
	DD	FLAT:__CTA2?AVruntime_error@std@@
xdata$x	ENDS
;	COMDAT ??_C@_0CB@OHIHCHGJ@Cannot?5add?5goals?5to?5atomic?5goals@
CONST	SEGMENT
??_C@_0CB@OHIHCHGJ@Cannot?5add?5goals?5to?5atomic?5goals@ DB 'Cannot add '
	DB	'goals to atomic goals', 00H			; `string'
; Function compile flags: /Odtp /RTCsu
CONST	ENDS
;	COMDAT ?AddSubgoal@?$Goal@VAbstRaven_Bot@@@@UAEXPAV1@@Z
_TEXT	SEGMENT
$T140003 = -16						; size = 12
_this$ = -4						; size = 4
_g$ = 8							; size = 4
?AddSubgoal@?$Goal@VAbstRaven_Bot@@@@UAEXPAV1@@Z PROC	; Goal<AbstRaven_Bot>::AddSubgoal, COMDAT
; _this$ = ecx

; 77   :   {throw std::runtime_error("Cannot add goals to atomic goals");}

	push	ebp
	mov	ebp, esp
	sub	esp, 16					; 00000010H
	mov	eax, -858993460				; ccccccccH
	mov	DWORD PTR [ebp-16], eax
	mov	DWORD PTR [ebp-12], eax
	mov	DWORD PTR [ebp-8], eax
	mov	DWORD PTR [ebp-4], eax
	mov	DWORD PTR _this$[ebp], ecx
	push	OFFSET ??_C@_0CB@OHIHCHGJ@Cannot?5add?5goals?5to?5atomic?5goals@
	lea	ecx, DWORD PTR $T140003[ebp]
	call	??0runtime_error@std@@QAE@PBD@Z		; std::runtime_error::runtime_error
	push	OFFSET __TI2?AVruntime_error@std@@
	lea	eax, DWORD PTR $T140003[ebp]
	push	eax
	call	__CxxThrowException@8
$LN2@AddSubgoal:
	add	esp, 16					; 00000010H
	cmp	ebp, esp
	call	__RTC_CheckEsp
	mov	esp, ebp
	pop	ebp
	ret	4
?AddSubgoal@?$Goal@VAbstRaven_Bot@@@@UAEXPAV1@@Z ENDP	; Goal<AbstRaven_Bot>::AddSubgoal
_TEXT	ENDS
PUBLIC	??_7runtime_error@std@@6B@			; std::runtime_error::`vftable'
PUBLIC	??_R4runtime_error@std@@6B@			; std::runtime_error::`RTTI Complete Object Locator'
PUBLIC	??_R3runtime_error@std@@8			; std::runtime_error::`RTTI Class Hierarchy Descriptor'
PUBLIC	??_R2runtime_error@std@@8			; std::runtime_error::`RTTI Base Class Array'
PUBLIC	??_R1A@?0A@EA@runtime_error@std@@8		; std::runtime_error::`RTTI Base Class Descriptor at (0,-1,0,64)'
PUBLIC	??_R1A@?0A@EA@exception@std@@8			; std::exception::`RTTI Base Class Descriptor at (0,-1,0,64)'
PUBLIC	??_R3exception@std@@8				; std::exception::`RTTI Class Hierarchy Descriptor'
PUBLIC	??_R2exception@std@@8				; std::exception::`RTTI Base Class Array'
EXTRN	??0exception@std@@QAE@ABQBD@Z:PROC		; std::exception::exception
EXTRN	??_Eruntime_error@std@@UAEPAXI@Z:PROC		; std::runtime_error::`vector deleting destructor'
EXTRN	?what@exception@std@@UBEPBDXZ:PROC		; std::exception::what
;	COMDAT ??_R2exception@std@@8
; File c:\program files (x86)\microsoft visual studio 10.0\vc\include\stdexcept
rdata$r	SEGMENT
??_R2exception@std@@8 DD FLAT:??_R1A@?0A@EA@exception@std@@8 ; std::exception::`RTTI Base Class Array'
rdata$r	ENDS
;	COMDAT ??_R3exception@std@@8
rdata$r	SEGMENT
??_R3exception@std@@8 DD 00H				; std::exception::`RTTI Class Hierarchy Descriptor'
	DD	00H
	DD	01H
	DD	FLAT:??_R2exception@std@@8
rdata$r	ENDS
;	COMDAT ??_R1A@?0A@EA@exception@std@@8
rdata$r	SEGMENT
??_R1A@?0A@EA@exception@std@@8 DD FLAT:??_R0?AVexception@std@@@8 ; std::exception::`RTTI Base Class Descriptor at (0,-1,0,64)'
	DD	00H
	DD	00H
	DD	0ffffffffH
	DD	00H
	DD	040H
	DD	FLAT:??_R3exception@std@@8
rdata$r	ENDS
;	COMDAT ??_R1A@?0A@EA@runtime_error@std@@8
rdata$r	SEGMENT
??_R1A@?0A@EA@runtime_error@std@@8 DD FLAT:??_R0?AVruntime_error@std@@@8 ; std::runtime_error::`RTTI Base Class Descriptor at (0,-1,0,64)'
	DD	01H
	DD	00H
	DD	0ffffffffH
	DD	00H
	DD	040H
	DD	FLAT:??_R3runtime_error@std@@8
rdata$r	ENDS
;	COMDAT ??_R2runtime_error@std@@8
rdata$r	SEGMENT
??_R2runtime_error@std@@8 DD FLAT:??_R1A@?0A@EA@runtime_error@std@@8 ; std::runtime_error::`RTTI Base Class Array'
	DD	FLAT:??_R1A@?0A@EA@exception@std@@8
rdata$r	ENDS
;	COMDAT ??_R3runtime_error@std@@8
rdata$r	SEGMENT
??_R3runtime_error@std@@8 DD 00H			; std::runtime_error::`RTTI Class Hierarchy Descriptor'
	DD	00H
	DD	02H
	DD	FLAT:??_R2runtime_error@std@@8
rdata$r	ENDS
;	COMDAT ??_R4runtime_error@std@@6B@
rdata$r	SEGMENT
??_R4runtime_error@std@@6B@ DD 00H			; std::runtime_error::`RTTI Complete Object Locator'
	DD	00H
	DD	00H
	DD	FLAT:??_R0?AVruntime_error@std@@@8
	DD	FLAT:??_R3runtime_error@std@@8
rdata$r	ENDS
;	COMDAT ??_7runtime_error@std@@6B@
CONST	SEGMENT
??_7runtime_error@std@@6B@ DD FLAT:??_R4runtime_error@std@@6B@ ; std::runtime_error::`vftable'
	DD	FLAT:??_Eruntime_error@std@@UAEPAXI@Z
	DD	FLAT:?what@exception@std@@UBEPBDXZ
; Function compile flags: /Odtp /RTCsu
CONST	ENDS
;	COMDAT ??0runtime_error@std@@QAE@PBD@Z
_TEXT	SEGMENT
_this$ = -4						; size = 4
__Message$ = 8						; size = 4
??0runtime_error@std@@QAE@PBD@Z PROC			; std::runtime_error::runtime_error, COMDAT
; _this$ = ecx

; 170  : 		{	// construct from message string

	push	ebp
	mov	ebp, esp
	push	ecx
	mov	DWORD PTR [ebp-4], -858993460		; ccccccccH
	mov	DWORD PTR _this$[ebp], ecx
	lea	eax, DWORD PTR __Message$[ebp]
	push	eax
	mov	ecx, DWORD PTR _this$[ebp]
	call	??0exception@std@@QAE@ABQBD@Z		; std::exception::exception
	mov	ecx, DWORD PTR _this$[ebp]
	mov	DWORD PTR [ecx], OFFSET ??_7runtime_error@std@@6B@

; 171  : 		}

	mov	eax, DWORD PTR _this$[ebp]
	add	esp, 4
	cmp	ebp, esp
	call	__RTC_CheckEsp
	mov	esp, ebp
	pop	ebp
	ret	4
??0runtime_error@std@@QAE@PBD@Z ENDP			; std::runtime_error::runtime_error
; Function compile flags: /Odtp /RTCsu
_TEXT	ENDS
;	COMDAT ??_Gruntime_error@std@@UAEPAXI@Z
_TEXT	SEGMENT
_this$ = -4						; size = 4
___flags$ = 8						; size = 4
??_Gruntime_error@std@@UAEPAXI@Z PROC			; std::runtime_error::`scalar deleting destructor', COMDAT
; _this$ = ecx
	push	ebp
	mov	ebp, esp
	push	ecx
	mov	DWORD PTR [ebp-4], -858993460		; ccccccccH
	mov	DWORD PTR _this$[ebp], ecx
	mov	ecx, DWORD PTR _this$[ebp]
	call	??1runtime_error@std@@UAE@XZ
	mov	eax, DWORD PTR ___flags$[ebp]
	and	eax, 1
	je	SHORT $LN1@scalar@3
	mov	ecx, DWORD PTR _this$[ebp]
	push	ecx
	call	??3@YAXPAX@Z				; operator delete
	add	esp, 4
$LN1@scalar@3:
	mov	eax, DWORD PTR _this$[ebp]
	add	esp, 4
	cmp	ebp, esp
	call	__RTC_CheckEsp
	mov	esp, ebp
	pop	ebp
	ret	4
??_Gruntime_error@std@@UAEPAXI@Z ENDP			; std::runtime_error::`scalar deleting destructor'
_TEXT	ENDS
EXTRN	??1exception@std@@UAE@XZ:PROC			; std::exception::~exception
; Function compile flags: /Odtp /RTCsu
;	COMDAT ??1runtime_error@std@@UAE@XZ
_TEXT	SEGMENT
_this$ = -4						; size = 4
??1runtime_error@std@@UAE@XZ PROC			; std::runtime_error::~runtime_error, COMDAT
; _this$ = ecx
	push	ebp
	mov	ebp, esp
	push	ecx
	mov	DWORD PTR [ebp-4], -858993460		; ccccccccH
	mov	DWORD PTR _this$[ebp], ecx
	mov	ecx, DWORD PTR _this$[ebp]
	call	??1exception@std@@UAE@XZ		; std::exception::~exception
	add	esp, 4
	cmp	ebp, esp
	call	__RTC_CheckEsp
	mov	esp, ebp
	pop	ebp
	ret	0
??1runtime_error@std@@UAE@XZ ENDP			; std::runtime_error::~runtime_error
; Function compile flags: /Odtp /RTCsu
_TEXT	ENDS
;	COMDAT ??0runtime_error@std@@QAE@ABV01@@Z
_TEXT	SEGMENT
_this$ = -4						; size = 4
___that$ = 8						; size = 4
??0runtime_error@std@@QAE@ABV01@@Z PROC			; std::runtime_error::runtime_error, COMDAT
; _this$ = ecx
	push	ebp
	mov	ebp, esp
	push	ecx
	mov	DWORD PTR [ebp-4], -858993460		; ccccccccH
	mov	DWORD PTR _this$[ebp], ecx
	mov	eax, DWORD PTR ___that$[ebp]
	push	eax
	mov	ecx, DWORD PTR _this$[ebp]
	call	??0exception@std@@QAE@ABV01@@Z		; std::exception::exception
	mov	ecx, DWORD PTR _this$[ebp]
	mov	DWORD PTR [ecx], OFFSET ??_7runtime_error@std@@6B@
	mov	eax, DWORD PTR _this$[ebp]
	add	esp, 4
	cmp	ebp, esp
	call	__RTC_CheckEsp
	mov	esp, ebp
	pop	ebp
	ret	4
??0runtime_error@std@@QAE@ABV01@@Z ENDP			; std::runtime_error::runtime_error
; Function compile flags: /Odtp /RTCsu
; File c:\users\teaja\documents\artificial-fun\labravenprojecttest\common\goals\goal.h
_TEXT	ENDS
;	COMDAT ?Render@?$Goal@VAbstRaven_Bot@@@@UAEXXZ
_TEXT	SEGMENT
_this$ = -4						; size = 4
?Render@?$Goal@VAbstRaven_Bot@@@@UAEXXZ PROC		; Goal<AbstRaven_Bot>::Render, COMDAT
; _this$ = ecx

; 93   :   virtual void Render(){}

	push	ebp
	mov	ebp, esp
	push	ecx
	mov	DWORD PTR [ebp-4], -858993460		; ccccccccH
	mov	DWORD PTR _this$[ebp], ecx
	mov	esp, ebp
	pop	ebp
	ret	0
?Render@?$Goal@VAbstRaven_Bot@@@@UAEXXZ ENDP		; Goal<AbstRaven_Bot>::Render
; Function compile flags: /Odtp /RTCsu
_TEXT	ENDS
;	COMDAT ??_G?$Goal_Composite@VAbstRaven_Bot@@@@UAEPAXI@Z
_TEXT	SEGMENT
_this$ = -4						; size = 4
___flags$ = 8						; size = 4
??_G?$Goal_Composite@VAbstRaven_Bot@@@@UAEPAXI@Z PROC	; Goal_Composite<AbstRaven_Bot>::`scalar deleting destructor', COMDAT
; _this$ = ecx
	push	ebp
	mov	ebp, esp
	push	ecx
	mov	DWORD PTR [ebp-4], -858993460		; ccccccccH
	mov	DWORD PTR _this$[ebp], ecx
	mov	ecx, DWORD PTR _this$[ebp]
	call	??1?$Goal_Composite@VAbstRaven_Bot@@@@UAE@XZ ; Goal_Composite<AbstRaven_Bot>::~Goal_Composite<AbstRaven_Bot>
	mov	eax, DWORD PTR ___flags$[ebp]
	and	eax, 1
	je	SHORT $LN1@scalar@4
	mov	ecx, DWORD PTR _this$[ebp]
	push	ecx
	call	??3@YAXPAX@Z				; operator delete
	add	esp, 4
$LN1@scalar@4:
	mov	eax, DWORD PTR _this$[ebp]
	add	esp, 4
	cmp	ebp, esp
	call	__RTC_CheckEsp
	mov	esp, ebp
	pop	ebp
	ret	4
??_G?$Goal_Composite@VAbstRaven_Bot@@@@UAEPAXI@Z ENDP	; Goal_Composite<AbstRaven_Bot>::`scalar deleting destructor'
; Function compile flags: /Odtp /RTCsu
_TEXT	ENDS
;	COMDAT ??_G?$Goal@VAbstRaven_Bot@@@@UAEPAXI@Z
_TEXT	SEGMENT
_this$ = -4						; size = 4
___flags$ = 8						; size = 4
??_G?$Goal@VAbstRaven_Bot@@@@UAEPAXI@Z PROC		; Goal<AbstRaven_Bot>::`scalar deleting destructor', COMDAT
; _this$ = ecx
	push	ebp
	mov	ebp, esp
	push	ecx
	mov	DWORD PTR [ebp-4], -858993460		; ccccccccH
	mov	DWORD PTR _this$[ebp], ecx
	mov	ecx, DWORD PTR _this$[ebp]
	call	??1?$Goal@VAbstRaven_Bot@@@@UAE@XZ	; Goal<AbstRaven_Bot>::~Goal<AbstRaven_Bot>
	mov	eax, DWORD PTR ___flags$[ebp]
	and	eax, 1
	je	SHORT $LN1@scalar@5
	mov	ecx, DWORD PTR _this$[ebp]
	push	ecx
	call	??3@YAXPAX@Z				; operator delete
	add	esp, 4
$LN1@scalar@5:
	mov	eax, DWORD PTR _this$[ebp]
	add	esp, 4
	cmp	ebp, esp
	call	__RTC_CheckEsp
	mov	esp, ebp
	pop	ebp
	ret	4
??_G?$Goal@VAbstRaven_Bot@@@@UAEPAXI@Z ENDP		; Goal<AbstRaven_Bot>::`scalar deleting destructor'
; Function compile flags: /Odtp /RTCsu
_TEXT	ENDS
;	COMDAT ??0?$Goal@VAbstRaven_Bot@@@@QAE@PAVAbstRaven_Bot@@H@Z
_TEXT	SEGMENT
_this$ = -4						; size = 4
_pE$ = 8						; size = 4
_type$ = 12						; size = 4
??0?$Goal@VAbstRaven_Bot@@@@QAE@PAVAbstRaven_Bot@@H@Z PROC ; Goal<AbstRaven_Bot>::Goal<AbstRaven_Bot>, COMDAT
; _this$ = ecx

; 54   :   {}

	push	ebp
	mov	ebp, esp
	push	ecx
	mov	DWORD PTR [ebp-4], -858993460		; ccccccccH
	mov	DWORD PTR _this$[ebp], ecx
	mov	eax, DWORD PTR _this$[ebp]
	mov	DWORD PTR [eax], OFFSET ??_7?$Goal@VAbstRaven_Bot@@@@6B@
	mov	ecx, DWORD PTR _this$[ebp]
	mov	edx, DWORD PTR _type$[ebp]
	mov	DWORD PTR [ecx+4], edx
	mov	eax, DWORD PTR _this$[ebp]
	mov	ecx, DWORD PTR _pE$[ebp]
	mov	DWORD PTR [eax+8], ecx
	mov	edx, DWORD PTR _this$[ebp]
	mov	DWORD PTR [edx+12], 1
	mov	eax, DWORD PTR _this$[ebp]
	mov	esp, ebp
	pop	ebp
	ret	8
??0?$Goal@VAbstRaven_Bot@@@@QAE@PAVAbstRaven_Bot@@H@Z ENDP ; Goal<AbstRaven_Bot>::Goal<AbstRaven_Bot>
_TEXT	ENDS
PUBLIC	??0?$_List_val@PAV?$Goal@VAbstRaven_Bot@@@@V?$allocator@PAV?$Goal@VAbstRaven_Bot@@@@@std@@@std@@QAE@V?$allocator@PAV?$Goal@VAbstRaven_Bot@@@@@1@@Z ; std::_List_val<Goal<AbstRaven_Bot> *,std::allocator<Goal<AbstRaven_Bot> *> >::_List_val<Goal<AbstRaven_Bot> *,std::allocator<Goal<AbstRaven_Bot> *> >
PUBLIC	??0?$allocator@PAV?$Goal@VAbstRaven_Bot@@@@@std@@QAE@XZ ; std::allocator<Goal<AbstRaven_Bot> *>::allocator<Goal<AbstRaven_Bot> *>
; Function compile flags: /Odtp /RTCsu
; File c:\program files (x86)\microsoft visual studio 10.0\vc\include\list
;	COMDAT ??0?$list@PAV?$Goal@VAbstRaven_Bot@@@@V?$allocator@PAV?$Goal@VAbstRaven_Bot@@@@@std@@@std@@QAE@XZ
_TEXT	SEGMENT
$T140026 = -8						; size = 4
_this$ = -4						; size = 4
??0?$list@PAV?$Goal@VAbstRaven_Bot@@@@V?$allocator@PAV?$Goal@VAbstRaven_Bot@@@@@std@@@std@@QAE@XZ PROC ; std::list<Goal<AbstRaven_Bot> *,std::allocator<Goal<AbstRaven_Bot> *> >::list<Goal<AbstRaven_Bot> *,std::allocator<Goal<AbstRaven_Bot> *> >, COMDAT
; _this$ = ecx

; 607  : 		{	// construct empty list

	push	ebp
	mov	ebp, esp
	sub	esp, 8
	mov	DWORD PTR [ebp-8], -858993460		; ccccccccH
	mov	DWORD PTR [ebp-4], -858993460		; ccccccccH
	mov	DWORD PTR _this$[ebp], ecx
	push	ecx
	mov	ecx, esp
	mov	DWORD PTR $T140026[ebp], esp
	call	??0?$allocator@PAV?$Goal@VAbstRaven_Bot@@@@@std@@QAE@XZ ; std::allocator<Goal<AbstRaven_Bot> *>::allocator<Goal<AbstRaven_Bot> *>
	mov	ecx, DWORD PTR _this$[ebp]
	call	??0?$_List_val@PAV?$Goal@VAbstRaven_Bot@@@@V?$allocator@PAV?$Goal@VAbstRaven_Bot@@@@@std@@@std@@QAE@V?$allocator@PAV?$Goal@VAbstRaven_Bot@@@@@1@@Z ; std::_List_val<Goal<AbstRaven_Bot> *,std::allocator<Goal<AbstRaven_Bot> *> >::_List_val<Goal<AbstRaven_Bot> *,std::allocator<Goal<AbstRaven_Bot> *> >

; 608  : 		}

	mov	eax, DWORD PTR _this$[ebp]
	add	esp, 8
	cmp	ebp, esp
	call	__RTC_CheckEsp
	mov	esp, ebp
	pop	ebp
	ret	0
??0?$list@PAV?$Goal@VAbstRaven_Bot@@@@V?$allocator@PAV?$Goal@VAbstRaven_Bot@@@@@std@@@std@@QAE@XZ ENDP ; std::list<Goal<AbstRaven_Bot> *,std::allocator<Goal<AbstRaven_Bot> *> >::list<Goal<AbstRaven_Bot> *,std::allocator<Goal<AbstRaven_Bot> *> >
_TEXT	ENDS
PUBLIC	??1?$_List_val@PAV?$Goal@VAbstRaven_Bot@@@@V?$allocator@PAV?$Goal@VAbstRaven_Bot@@@@@std@@@std@@QAE@XZ ; std::_List_val<Goal<AbstRaven_Bot> *,std::allocator<Goal<AbstRaven_Bot> *> >::~_List_val<Goal<AbstRaven_Bot> *,std::allocator<Goal<AbstRaven_Bot> *> >
PUBLIC	?_Tidy@?$list@PAV?$Goal@VAbstRaven_Bot@@@@V?$allocator@PAV?$Goal@VAbstRaven_Bot@@@@@std@@@std@@QAEXXZ ; std::list<Goal<AbstRaven_Bot> *,std::allocator<Goal<AbstRaven_Bot> *> >::_Tidy
;	COMDAT xdata$x
xdata$x	SEGMENT
__unwindtable$??1?$list@PAV?$Goal@VAbstRaven_Bot@@@@V?$allocator@PAV?$Goal@VAbstRaven_Bot@@@@@std@@@std@@QAE@XZ DD 0ffffffffH
	DD	FLAT:__unwindfunclet$??1?$list@PAV?$Goal@VAbstRaven_Bot@@@@V?$allocator@PAV?$Goal@VAbstRaven_Bot@@@@@std@@@std@@QAE@XZ$0
__ehfuncinfo$??1?$list@PAV?$Goal@VAbstRaven_Bot@@@@V?$allocator@PAV?$Goal@VAbstRaven_Bot@@@@@std@@@std@@QAE@XZ DD 019930522H
	DD	01H
	DD	FLAT:__unwindtable$??1?$list@PAV?$Goal@VAbstRaven_Bot@@@@V?$allocator@PAV?$Goal@VAbstRaven_Bot@@@@@std@@@std@@QAE@XZ
	DD	2 DUP(00H)
	DD	2 DUP(00H)
	DD	00H
	DD	01H
; Function compile flags: /Odtp /RTCsu
xdata$x	ENDS
;	COMDAT ??1?$list@PAV?$Goal@VAbstRaven_Bot@@@@V?$allocator@PAV?$Goal@VAbstRaven_Bot@@@@@std@@@std@@QAE@XZ
_TEXT	SEGMENT
_this$ = -16						; size = 4
__$EHRec$ = -12						; size = 12
??1?$list@PAV?$Goal@VAbstRaven_Bot@@@@V?$allocator@PAV?$Goal@VAbstRaven_Bot@@@@@std@@@std@@QAE@XZ PROC ; std::list<Goal<AbstRaven_Bot> *,std::allocator<Goal<AbstRaven_Bot> *> >::~list<Goal<AbstRaven_Bot> *,std::allocator<Goal<AbstRaven_Bot> *> >, COMDAT
; _this$ = ecx

; 769  : 		{	// destroy the object

	push	ebp
	mov	ebp, esp
	push	-1
	push	__ehhandler$??1?$list@PAV?$Goal@VAbstRaven_Bot@@@@V?$allocator@PAV?$Goal@VAbstRaven_Bot@@@@@std@@@std@@QAE@XZ
	mov	eax, DWORD PTR fs:0
	push	eax
	push	ecx
	mov	DWORD PTR [ebp-16], -858993460		; ccccccccH
	mov	eax, DWORD PTR ___security_cookie
	xor	eax, ebp
	push	eax
	lea	eax, DWORD PTR __$EHRec$[ebp]
	mov	DWORD PTR fs:0, eax
	mov	DWORD PTR _this$[ebp], ecx
	mov	DWORD PTR __$EHRec$[ebp+8], 0

; 770  : 		_Tidy();

	mov	ecx, DWORD PTR _this$[ebp]
	call	?_Tidy@?$list@PAV?$Goal@VAbstRaven_Bot@@@@V?$allocator@PAV?$Goal@VAbstRaven_Bot@@@@@std@@@std@@QAEXXZ ; std::list<Goal<AbstRaven_Bot> *,std::allocator<Goal<AbstRaven_Bot> *> >::_Tidy

; 771  : 		}

	mov	DWORD PTR __$EHRec$[ebp+8], -1
	mov	ecx, DWORD PTR _this$[ebp]
	call	??1?$_List_val@PAV?$Goal@VAbstRaven_Bot@@@@V?$allocator@PAV?$Goal@VAbstRaven_Bot@@@@@std@@@std@@QAE@XZ ; std::_List_val<Goal<AbstRaven_Bot> *,std::allocator<Goal<AbstRaven_Bot> *> >::~_List_val<Goal<AbstRaven_Bot> *,std::allocator<Goal<AbstRaven_Bot> *> >
	mov	ecx, DWORD PTR __$EHRec$[ebp]
	mov	DWORD PTR fs:0, ecx
	pop	ecx
	add	esp, 16					; 00000010H
	cmp	ebp, esp
	call	__RTC_CheckEsp
	mov	esp, ebp
	pop	ebp
	ret	0
_TEXT	ENDS
;	COMDAT text$x
text$x	SEGMENT
__unwindfunclet$??1?$list@PAV?$Goal@VAbstRaven_Bot@@@@V?$allocator@PAV?$Goal@VAbstRaven_Bot@@@@@std@@@std@@QAE@XZ$0:
	mov	ecx, DWORD PTR _this$[ebp]
	jmp	??1?$_List_val@PAV?$Goal@VAbstRaven_Bot@@@@V?$allocator@PAV?$Goal@VAbstRaven_Bot@@@@@std@@@std@@QAE@XZ ; std::_List_val<Goal<AbstRaven_Bot> *,std::allocator<Goal<AbstRaven_Bot> *> >::~_List_val<Goal<AbstRaven_Bot> *,std::allocator<Goal<AbstRaven_Bot> *> >
__ehhandler$??1?$list@PAV?$Goal@VAbstRaven_Bot@@@@V?$allocator@PAV?$Goal@VAbstRaven_Bot@@@@@std@@@std@@QAE@XZ:
	mov	edx, DWORD PTR [esp+8]
	lea	eax, DWORD PTR [edx+12]
	mov	ecx, DWORD PTR [edx-8]
	xor	ecx, eax
	call	@__security_check_cookie@4
	mov	eax, OFFSET __ehfuncinfo$??1?$list@PAV?$Goal@VAbstRaven_Bot@@@@V?$allocator@PAV?$Goal@VAbstRaven_Bot@@@@@std@@@std@@QAE@XZ
	jmp	___CxxFrameHandler3
text$x	ENDS
??1?$list@PAV?$Goal@VAbstRaven_Bot@@@@V?$allocator@PAV?$Goal@VAbstRaven_Bot@@@@@std@@@std@@QAE@XZ ENDP ; std::list<Goal<AbstRaven_Bot> *,std::allocator<Goal<AbstRaven_Bot> *> >::~list<Goal<AbstRaven_Bot> *,std::allocator<Goal<AbstRaven_Bot> *> >
PUBLIC	?clear@?$list@PAV?$Goal@VAbstRaven_Bot@@@@V?$allocator@PAV?$Goal@VAbstRaven_Bot@@@@@std@@@std@@QAEXXZ ; std::list<Goal<AbstRaven_Bot> *,std::allocator<Goal<AbstRaven_Bot> *> >::clear
; Function compile flags: /Odtp /RTCsu
;	COMDAT ?_Tidy@?$list@PAV?$Goal@VAbstRaven_Bot@@@@V?$allocator@PAV?$Goal@VAbstRaven_Bot@@@@@std@@@std@@QAEXXZ
_TEXT	SEGMENT
_this$ = -4						; size = 4
?_Tidy@?$list@PAV?$Goal@VAbstRaven_Bot@@@@V?$allocator@PAV?$Goal@VAbstRaven_Bot@@@@@std@@@std@@QAEXXZ PROC ; std::list<Goal<AbstRaven_Bot> *,std::allocator<Goal<AbstRaven_Bot> *> >::_Tidy, COMDAT
; _this$ = ecx

; 1496 : 		{	// free all storage

	push	ebp
	mov	ebp, esp
	push	ecx
	mov	DWORD PTR [ebp-4], -858993460		; ccccccccH
	mov	DWORD PTR _this$[ebp], ecx

; 1497 : 		clear();

	mov	ecx, DWORD PTR _this$[ebp]
	call	?clear@?$list@PAV?$Goal@VAbstRaven_Bot@@@@V?$allocator@PAV?$Goal@VAbstRaven_Bot@@@@@std@@@std@@QAEXXZ ; std::list<Goal<AbstRaven_Bot> *,std::allocator<Goal<AbstRaven_Bot> *> >::clear

; 1498 : 		}

	add	esp, 4
	cmp	ebp, esp
	call	__RTC_CheckEsp
	mov	esp, ebp
	pop	ebp
	ret	0
?_Tidy@?$list@PAV?$Goal@VAbstRaven_Bot@@@@V?$allocator@PAV?$Goal@VAbstRaven_Bot@@@@@std@@@std@@QAEXXZ ENDP ; std::list<Goal<AbstRaven_Bot> *,std::allocator<Goal<AbstRaven_Bot> *> >::_Tidy
_TEXT	ENDS
PUBLIC	??1?$_List_nod@PAV?$Goal@VAbstRaven_Bot@@@@V?$allocator@PAV?$Goal@VAbstRaven_Bot@@@@@std@@@std@@QAE@XZ ; std::_List_nod<Goal<AbstRaven_Bot> *,std::allocator<Goal<AbstRaven_Bot> *> >::~_List_nod<Goal<AbstRaven_Bot> *,std::allocator<Goal<AbstRaven_Bot> *> >
PUBLIC	?_Prevnode@?$_List_val@PAV?$Goal@VAbstRaven_Bot@@@@V?$allocator@PAV?$Goal@VAbstRaven_Bot@@@@@std@@@std@@SAAAPAU_Node@?$_List_nod@PAV?$Goal@VAbstRaven_Bot@@@@V?$allocator@PAV?$Goal@VAbstRaven_Bot@@@@@std@@@2@PAU342@@Z ; std::_List_val<Goal<AbstRaven_Bot> *,std::allocator<Goal<AbstRaven_Bot> *> >::_Prevnode
PUBLIC	?_Nextnode@?$_List_val@PAV?$Goal@VAbstRaven_Bot@@@@V?$allocator@PAV?$Goal@VAbstRaven_Bot@@@@@std@@@std@@SAAAPAU_Node@?$_List_nod@PAV?$Goal@VAbstRaven_Bot@@@@V?$allocator@PAV?$Goal@VAbstRaven_Bot@@@@@std@@@2@PAU342@@Z ; std::_List_val<Goal<AbstRaven_Bot> *,std::allocator<Goal<AbstRaven_Bot> *> >::_Nextnode
PUBLIC	?allocate@?$allocator@U_Node@?$_List_nod@PAV?$Goal@VAbstRaven_Bot@@@@V?$allocator@PAV?$Goal@VAbstRaven_Bot@@@@@std@@@std@@@std@@QAEPAU_Node@?$_List_nod@PAV?$Goal@VAbstRaven_Bot@@@@V?$allocator@PAV?$Goal@VAbstRaven_Bot@@@@@std@@@2@I@Z ; std::allocator<std::_List_nod<Goal<AbstRaven_Bot> *,std::allocator<Goal<AbstRaven_Bot> *> >::_Node>::allocate
PUBLIC	??0?$_List_nod@PAV?$Goal@VAbstRaven_Bot@@@@V?$allocator@PAV?$Goal@VAbstRaven_Bot@@@@@std@@@std@@QAE@V?$allocator@PAV?$Goal@VAbstRaven_Bot@@@@@1@@Z ; std::_List_nod<Goal<AbstRaven_Bot> *,std::allocator<Goal<AbstRaven_Bot> *> >::_List_nod<Goal<AbstRaven_Bot> *,std::allocator<Goal<AbstRaven_Bot> *> >
PUBLIC	??0?$allocator@PAV?$Goal@VAbstRaven_Bot@@@@@std@@QAE@ABV01@@Z ; std::allocator<Goal<AbstRaven_Bot> *>::allocator<Goal<AbstRaven_Bot> *>
;	COMDAT xdata$x
xdata$x	SEGMENT
__unwindtable$??0?$_List_val@PAV?$Goal@VAbstRaven_Bot@@@@V?$allocator@PAV?$Goal@VAbstRaven_Bot@@@@@std@@@std@@QAE@V?$allocator@PAV?$Goal@VAbstRaven_Bot@@@@@1@@Z DD 0ffffffffH
	DD	FLAT:__unwindfunclet$??0?$_List_val@PAV?$Goal@VAbstRaven_Bot@@@@V?$allocator@PAV?$Goal@VAbstRaven_Bot@@@@@std@@@std@@QAE@V?$allocator@PAV?$Goal@VAbstRaven_Bot@@@@@1@@Z$0
__ehfuncinfo$??0?$_List_val@PAV?$Goal@VAbstRaven_Bot@@@@V?$allocator@PAV?$Goal@VAbstRaven_Bot@@@@@std@@@std@@QAE@V?$allocator@PAV?$Goal@VAbstRaven_Bot@@@@@1@@Z DD 019930522H
	DD	01H
	DD	FLAT:__unwindtable$??0?$_List_val@PAV?$Goal@VAbstRaven_Bot@@@@V?$allocator@PAV?$Goal@VAbstRaven_Bot@@@@@std@@@std@@QAE@V?$allocator@PAV?$Goal@VAbstRaven_Bot@@@@@1@@Z
	DD	2 DUP(00H)
	DD	2 DUP(00H)
	DD	00H
	DD	01H
; Function compile flags: /Odtp /RTCsu
xdata$x	ENDS
;	COMDAT ??0?$_List_val@PAV?$Goal@VAbstRaven_Bot@@@@V?$allocator@PAV?$Goal@VAbstRaven_Bot@@@@@std@@@std@@QAE@V?$allocator@PAV?$Goal@VAbstRaven_Bot@@@@@1@@Z
_TEXT	SEGMENT
$T140041 = -20						; size = 4
_this$ = -16						; size = 4
__$EHRec$ = -12						; size = 12
__Al$ = 8						; size = 1
??0?$_List_val@PAV?$Goal@VAbstRaven_Bot@@@@V?$allocator@PAV?$Goal@VAbstRaven_Bot@@@@@std@@@std@@QAE@V?$allocator@PAV?$Goal@VAbstRaven_Bot@@@@@1@@Z PROC ; std::_List_val<Goal<AbstRaven_Bot> *,std::allocator<Goal<AbstRaven_Bot> *> >::_List_val<Goal<AbstRaven_Bot> *,std::allocator<Goal<AbstRaven_Bot> *> >, COMDAT
; _this$ = ecx

; 493  : 		{	// construct base, and allocator from _Al

	push	ebp
	mov	ebp, esp
	push	-1
	push	__ehhandler$??0?$_List_val@PAV?$Goal@VAbstRaven_Bot@@@@V?$allocator@PAV?$Goal@VAbstRaven_Bot@@@@@std@@@std@@QAE@V?$allocator@PAV?$Goal@VAbstRaven_Bot@@@@@1@@Z
	mov	eax, DWORD PTR fs:0
	push	eax
	sub	esp, 8
	mov	DWORD PTR [ebp-20], -858993460		; ccccccccH
	mov	DWORD PTR [ebp-16], -858993460		; ccccccccH
	mov	eax, DWORD PTR ___security_cookie
	xor	eax, ebp
	push	eax
	lea	eax, DWORD PTR __$EHRec$[ebp]
	mov	DWORD PTR fs:0, eax
	mov	DWORD PTR _this$[ebp], ecx
	push	ecx
	mov	ecx, esp
	mov	DWORD PTR $T140041[ebp], esp
	lea	eax, DWORD PTR __Al$[ebp]
	push	eax
	call	??0?$allocator@PAV?$Goal@VAbstRaven_Bot@@@@@std@@QAE@ABV01@@Z ; std::allocator<Goal<AbstRaven_Bot> *>::allocator<Goal<AbstRaven_Bot> *>
	mov	ecx, DWORD PTR _this$[ebp]
	call	??0?$_List_nod@PAV?$Goal@VAbstRaven_Bot@@@@V?$allocator@PAV?$Goal@VAbstRaven_Bot@@@@@std@@@std@@QAE@V?$allocator@PAV?$Goal@VAbstRaven_Bot@@@@@1@@Z ; std::_List_nod<Goal<AbstRaven_Bot> *,std::allocator<Goal<AbstRaven_Bot> *> >::_List_nod<Goal<AbstRaven_Bot> *,std::allocator<Goal<AbstRaven_Bot> *> >
	mov	DWORD PTR __$EHRec$[ebp+8], 0

; 494  : 		this->_Mysize = 0;

	mov	ecx, DWORD PTR _this$[ebp]
	mov	DWORD PTR [ecx+8], 0

; 495  : 		this->_Myhead = this->_Alnod.allocate(1);

	push	1
	mov	ecx, DWORD PTR _this$[ebp]
	add	ecx, 12					; 0000000cH
	call	?allocate@?$allocator@U_Node@?$_List_nod@PAV?$Goal@VAbstRaven_Bot@@@@V?$allocator@PAV?$Goal@VAbstRaven_Bot@@@@@std@@@std@@@std@@QAEPAU_Node@?$_List_nod@PAV?$Goal@VAbstRaven_Bot@@@@V?$allocator@PAV?$Goal@VAbstRaven_Bot@@@@@std@@@2@I@Z ; std::allocator<std::_List_nod<Goal<AbstRaven_Bot> *,std::allocator<Goal<AbstRaven_Bot> *> >::_Node>::allocate
	mov	edx, DWORD PTR _this$[ebp]
	mov	DWORD PTR [edx+4], eax

; 496  : 		this->_Nextnode(this->_Myhead) = this->_Myhead;

	mov	eax, DWORD PTR _this$[ebp]
	mov	ecx, DWORD PTR [eax+4]
	push	ecx
	call	?_Nextnode@?$_List_val@PAV?$Goal@VAbstRaven_Bot@@@@V?$allocator@PAV?$Goal@VAbstRaven_Bot@@@@@std@@@std@@SAAAPAU_Node@?$_List_nod@PAV?$Goal@VAbstRaven_Bot@@@@V?$allocator@PAV?$Goal@VAbstRaven_Bot@@@@@std@@@2@PAU342@@Z ; std::_List_val<Goal<AbstRaven_Bot> *,std::allocator<Goal<AbstRaven_Bot> *> >::_Nextnode
	add	esp, 4
	mov	edx, DWORD PTR _this$[ebp]
	mov	ecx, DWORD PTR [edx+4]
	mov	DWORD PTR [eax], ecx

; 497  : 		this->_Prevnode(this->_Myhead) = this->_Myhead;

	mov	edx, DWORD PTR _this$[ebp]
	mov	eax, DWORD PTR [edx+4]
	push	eax
	call	?_Prevnode@?$_List_val@PAV?$Goal@VAbstRaven_Bot@@@@V?$allocator@PAV?$Goal@VAbstRaven_Bot@@@@@std@@@std@@SAAAPAU_Node@?$_List_nod@PAV?$Goal@VAbstRaven_Bot@@@@V?$allocator@PAV?$Goal@VAbstRaven_Bot@@@@@std@@@2@PAU342@@Z ; std::_List_val<Goal<AbstRaven_Bot> *,std::allocator<Goal<AbstRaven_Bot> *> >::_Prevnode
	add	esp, 4
	mov	ecx, DWORD PTR _this$[ebp]
	mov	edx, DWORD PTR [ecx+4]
	mov	DWORD PTR [eax], edx

; 498  : 		}

	mov	DWORD PTR __$EHRec$[ebp+8], -1
	mov	eax, DWORD PTR _this$[ebp]
	mov	ecx, DWORD PTR __$EHRec$[ebp]
	mov	DWORD PTR fs:0, ecx
	pop	ecx
	add	esp, 20					; 00000014H
	cmp	ebp, esp
	call	__RTC_CheckEsp
	mov	esp, ebp
	pop	ebp
	ret	4
_TEXT	ENDS
;	COMDAT text$x
text$x	SEGMENT
__unwindfunclet$??0?$_List_val@PAV?$Goal@VAbstRaven_Bot@@@@V?$allocator@PAV?$Goal@VAbstRaven_Bot@@@@@std@@@std@@QAE@V?$allocator@PAV?$Goal@VAbstRaven_Bot@@@@@1@@Z$0:
	mov	ecx, DWORD PTR _this$[ebp]
	jmp	??1?$_List_nod@PAV?$Goal@VAbstRaven_Bot@@@@V?$allocator@PAV?$Goal@VAbstRaven_Bot@@@@@std@@@std@@QAE@XZ ; std::_List_nod<Goal<AbstRaven_Bot> *,std::allocator<Goal<AbstRaven_Bot> *> >::~_List_nod<Goal<AbstRaven_Bot> *,std::allocator<Goal<AbstRaven_Bot> *> >
__ehhandler$??0?$_List_val@PAV?$Goal@VAbstRaven_Bot@@@@V?$allocator@PAV?$Goal@VAbstRaven_Bot@@@@@std@@@std@@QAE@V?$allocator@PAV?$Goal@VAbstRaven_Bot@@@@@1@@Z:
	mov	edx, DWORD PTR [esp+8]
	lea	eax, DWORD PTR [edx+12]
	mov	ecx, DWORD PTR [edx-12]
	xor	ecx, eax
	call	@__security_check_cookie@4
	mov	eax, OFFSET __ehfuncinfo$??0?$_List_val@PAV?$Goal@VAbstRaven_Bot@@@@V?$allocator@PAV?$Goal@VAbstRaven_Bot@@@@@std@@@std@@QAE@V?$allocator@PAV?$Goal@VAbstRaven_Bot@@@@@1@@Z
	jmp	___CxxFrameHandler3
text$x	ENDS
??0?$_List_val@PAV?$Goal@VAbstRaven_Bot@@@@V?$allocator@PAV?$Goal@VAbstRaven_Bot@@@@@std@@@std@@QAE@V?$allocator@PAV?$Goal@VAbstRaven_Bot@@@@@1@@Z ENDP ; std::_List_val<Goal<AbstRaven_Bot> *,std::allocator<Goal<AbstRaven_Bot> *> >::_List_val<Goal<AbstRaven_Bot> *,std::allocator<Goal<AbstRaven_Bot> *> >
PUBLIC	?deallocate@?$allocator@U_Node@?$_List_nod@PAV?$Goal@VAbstRaven_Bot@@@@V?$allocator@PAV?$Goal@VAbstRaven_Bot@@@@@std@@@std@@@std@@QAEXPAU_Node@?$_List_nod@PAV?$Goal@VAbstRaven_Bot@@@@V?$allocator@PAV?$Goal@VAbstRaven_Bot@@@@@std@@@2@I@Z ; std::allocator<std::_List_nod<Goal<AbstRaven_Bot> *,std::allocator<Goal<AbstRaven_Bot> *> >::_Node>::deallocate
;	COMDAT xdata$x
xdata$x	SEGMENT
__unwindtable$??1?$_List_val@PAV?$Goal@VAbstRaven_Bot@@@@V?$allocator@PAV?$Goal@VAbstRaven_Bot@@@@@std@@@std@@QAE@XZ DD 0ffffffffH
	DD	FLAT:__unwindfunclet$??1?$_List_val@PAV?$Goal@VAbstRaven_Bot@@@@V?$allocator@PAV?$Goal@VAbstRaven_Bot@@@@@std@@@std@@QAE@XZ$0
__ehfuncinfo$??1?$_List_val@PAV?$Goal@VAbstRaven_Bot@@@@V?$allocator@PAV?$Goal@VAbstRaven_Bot@@@@@std@@@std@@QAE@XZ DD 019930522H
	DD	01H
	DD	FLAT:__unwindtable$??1?$_List_val@PAV?$Goal@VAbstRaven_Bot@@@@V?$allocator@PAV?$Goal@VAbstRaven_Bot@@@@@std@@@std@@QAE@XZ
	DD	2 DUP(00H)
	DD	2 DUP(00H)
	DD	00H
	DD	01H
; Function compile flags: /Odtp /RTCsu
xdata$x	ENDS
;	COMDAT ??1?$_List_val@PAV?$Goal@VAbstRaven_Bot@@@@V?$allocator@PAV?$Goal@VAbstRaven_Bot@@@@@std@@@std@@QAE@XZ
_TEXT	SEGMENT
_this$ = -16						; size = 4
__$EHRec$ = -12						; size = 12
??1?$_List_val@PAV?$Goal@VAbstRaven_Bot@@@@V?$allocator@PAV?$Goal@VAbstRaven_Bot@@@@@std@@@std@@QAE@XZ PROC ; std::_List_val<Goal<AbstRaven_Bot> *,std::allocator<Goal<AbstRaven_Bot> *> >::~_List_val<Goal<AbstRaven_Bot> *,std::allocator<Goal<AbstRaven_Bot> *> >, COMDAT
; _this$ = ecx

; 501  : 		{	// destroy the object

	push	ebp
	mov	ebp, esp
	push	-1
	push	__ehhandler$??1?$_List_val@PAV?$Goal@VAbstRaven_Bot@@@@V?$allocator@PAV?$Goal@VAbstRaven_Bot@@@@@std@@@std@@QAE@XZ
	mov	eax, DWORD PTR fs:0
	push	eax
	push	ecx
	mov	DWORD PTR [ebp-16], -858993460		; ccccccccH
	mov	eax, DWORD PTR ___security_cookie
	xor	eax, ebp
	push	eax
	lea	eax, DWORD PTR __$EHRec$[ebp]
	mov	DWORD PTR fs:0, eax
	mov	DWORD PTR _this$[ebp], ecx
	mov	DWORD PTR __$EHRec$[ebp+8], 0

; 502  : 		this->_Alnod.deallocate(this->_Myhead, 1);

	push	1
	mov	eax, DWORD PTR _this$[ebp]
	mov	ecx, DWORD PTR [eax+4]
	push	ecx
	mov	ecx, DWORD PTR _this$[ebp]
	add	ecx, 12					; 0000000cH
	call	?deallocate@?$allocator@U_Node@?$_List_nod@PAV?$Goal@VAbstRaven_Bot@@@@V?$allocator@PAV?$Goal@VAbstRaven_Bot@@@@@std@@@std@@@std@@QAEXPAU_Node@?$_List_nod@PAV?$Goal@VAbstRaven_Bot@@@@V?$allocator@PAV?$Goal@VAbstRaven_Bot@@@@@std@@@2@I@Z ; std::allocator<std::_List_nod<Goal<AbstRaven_Bot> *,std::allocator<Goal<AbstRaven_Bot> *> >::_Node>::deallocate

; 503  : 		}

	mov	DWORD PTR __$EHRec$[ebp+8], -1
	mov	ecx, DWORD PTR _this$[ebp]
	call	??1?$_List_nod@PAV?$Goal@VAbstRaven_Bot@@@@V?$allocator@PAV?$Goal@VAbstRaven_Bot@@@@@std@@@std@@QAE@XZ ; std::_List_nod<Goal<AbstRaven_Bot> *,std::allocator<Goal<AbstRaven_Bot> *> >::~_List_nod<Goal<AbstRaven_Bot> *,std::allocator<Goal<AbstRaven_Bot> *> >
	mov	ecx, DWORD PTR __$EHRec$[ebp]
	mov	DWORD PTR fs:0, ecx
	pop	ecx
	add	esp, 16					; 00000010H
	cmp	ebp, esp
	call	__RTC_CheckEsp
	mov	esp, ebp
	pop	ebp
	ret	0
_TEXT	ENDS
;	COMDAT text$x
text$x	SEGMENT
__unwindfunclet$??1?$_List_val@PAV?$Goal@VAbstRaven_Bot@@@@V?$allocator@PAV?$Goal@VAbstRaven_Bot@@@@@std@@@std@@QAE@XZ$0:
	mov	ecx, DWORD PTR _this$[ebp]
	jmp	??1?$_List_nod@PAV?$Goal@VAbstRaven_Bot@@@@V?$allocator@PAV?$Goal@VAbstRaven_Bot@@@@@std@@@std@@QAE@XZ ; std::_List_nod<Goal<AbstRaven_Bot> *,std::allocator<Goal<AbstRaven_Bot> *> >::~_List_nod<Goal<AbstRaven_Bot> *,std::allocator<Goal<AbstRaven_Bot> *> >
__ehhandler$??1?$_List_val@PAV?$Goal@VAbstRaven_Bot@@@@V?$allocator@PAV?$Goal@VAbstRaven_Bot@@@@@std@@@std@@QAE@XZ:
	mov	edx, DWORD PTR [esp+8]
	lea	eax, DWORD PTR [edx+12]
	mov	ecx, DWORD PTR [edx-8]
	xor	ecx, eax
	call	@__security_check_cookie@4
	mov	eax, OFFSET __ehfuncinfo$??1?$_List_val@PAV?$Goal@VAbstRaven_Bot@@@@V?$allocator@PAV?$Goal@VAbstRaven_Bot@@@@@std@@@std@@QAE@XZ
	jmp	___CxxFrameHandler3
text$x	ENDS
??1?$_List_val@PAV?$Goal@VAbstRaven_Bot@@@@V?$allocator@PAV?$Goal@VAbstRaven_Bot@@@@@std@@@std@@QAE@XZ ENDP ; std::_List_val<Goal<AbstRaven_Bot> *,std::allocator<Goal<AbstRaven_Bot> *> >::~_List_val<Goal<AbstRaven_Bot> *,std::allocator<Goal<AbstRaven_Bot> *> >
; Function compile flags: /Odtp /RTCsu
; File c:\program files (x86)\microsoft visual studio 10.0\vc\include\xmemory
;	COMDAT ??0?$allocator@PAV?$Goal@VAbstRaven_Bot@@@@@std@@QAE@XZ
_TEXT	SEGMENT
_this$ = -4						; size = 4
??0?$allocator@PAV?$Goal@VAbstRaven_Bot@@@@@std@@QAE@XZ PROC ; std::allocator<Goal<AbstRaven_Bot> *>::allocator<Goal<AbstRaven_Bot> *>, COMDAT
; _this$ = ecx

; 161  : 	_ALLOCATOR() _THROW0()

	push	ebp
	mov	ebp, esp
	push	ecx
	mov	DWORD PTR [ebp-4], -858993460		; ccccccccH
	mov	DWORD PTR _this$[ebp], ecx

; 162  : 		{	// construct default allocator (do nothing)
; 163  : 		}

	mov	eax, DWORD PTR _this$[ebp]
	mov	esp, ebp
	pop	ebp
	ret	0
??0?$allocator@PAV?$Goal@VAbstRaven_Bot@@@@@std@@QAE@XZ ENDP ; std::allocator<Goal<AbstRaven_Bot> *>::allocator<Goal<AbstRaven_Bot> *>
_TEXT	ENDS
PUBLIC	??$_Dest_val@V?$allocator@U_Node@?$_List_nod@PAV?$Goal@VAbstRaven_Bot@@@@V?$allocator@PAV?$Goal@VAbstRaven_Bot@@@@@std@@@std@@@std@@U_Node@?$_List_nod@PAV?$Goal@VAbstRaven_Bot@@@@V?$allocator@PAV?$Goal@VAbstRaven_Bot@@@@@std@@@2@@std@@YAXAAV?$allocator@U_Node@?$_List_nod@PAV?$Goal@VAbstRaven_Bot@@@@V?$allocator@PAV?$Goal@VAbstRaven_Bot@@@@@std@@@std@@@0@PAU_Node@?$_List_nod@PAV?$Goal@VAbstRaven_Bot@@@@V?$allocator@PAV?$Goal@VAbstRaven_Bot@@@@@std@@@0@@Z ; std::_Dest_val<std::allocator<std::_List_nod<Goal<AbstRaven_Bot> *,std::allocator<Goal<AbstRaven_Bot> *> >::_Node>,std::_List_nod<Goal<AbstRaven_Bot> *,std::allocator<Goal<AbstRaven_Bot> *> >::_Node>
PUBLIC	?_Orphan_ptr@?$list@PAV?$Goal@VAbstRaven_Bot@@@@V?$allocator@PAV?$Goal@VAbstRaven_Bot@@@@@std@@@std@@QBEXAAV12@PAU_Node@?$_List_nod@PAV?$Goal@VAbstRaven_Bot@@@@V?$allocator@PAV?$Goal@VAbstRaven_Bot@@@@@std@@@2@@Z ; std::list<Goal<AbstRaven_Bot> *,std::allocator<Goal<AbstRaven_Bot> *> >::_Orphan_ptr
; Function compile flags: /Odtp /RTCsu
; File c:\program files (x86)\microsoft visual studio 10.0\vc\include\list
;	COMDAT ?clear@?$list@PAV?$Goal@VAbstRaven_Bot@@@@V?$allocator@PAV?$Goal@VAbstRaven_Bot@@@@@std@@@std@@QAEXXZ
_TEXT	SEGMENT
__Pnode$ = -12						; size = 4
__Pnext$ = -8						; size = 4
_this$ = -4						; size = 4
?clear@?$list@PAV?$Goal@VAbstRaven_Bot@@@@V?$allocator@PAV?$Goal@VAbstRaven_Bot@@@@@std@@@std@@QAEXXZ PROC ; std::list<Goal<AbstRaven_Bot> *,std::allocator<Goal<AbstRaven_Bot> *> >::clear, COMDAT
; _this$ = ecx

; 1096 : 		{	// erase all

	push	ebp
	mov	ebp, esp
	sub	esp, 12					; 0000000cH
	mov	DWORD PTR [ebp-12], -858993460		; ccccccccH
	mov	DWORD PTR [ebp-8], -858993460		; ccccccccH
	mov	DWORD PTR [ebp-4], -858993460		; ccccccccH
	mov	DWORD PTR _this$[ebp], ecx

; 1097 :  #if _ITERATOR_DEBUG_LEVEL == 2
; 1098 : 		this->_Orphan_ptr(*this, 0);

	push	0
	mov	eax, DWORD PTR _this$[ebp]
	push	eax
	mov	ecx, DWORD PTR _this$[ebp]
	call	?_Orphan_ptr@?$list@PAV?$Goal@VAbstRaven_Bot@@@@V?$allocator@PAV?$Goal@VAbstRaven_Bot@@@@@std@@@std@@QBEXAAV12@PAU_Node@?$_List_nod@PAV?$Goal@VAbstRaven_Bot@@@@V?$allocator@PAV?$Goal@VAbstRaven_Bot@@@@@std@@@2@@Z ; std::list<Goal<AbstRaven_Bot> *,std::allocator<Goal<AbstRaven_Bot> *> >::_Orphan_ptr

; 1099 :  #endif /* _ITERATOR_DEBUG_LEVEL == 2 */
; 1100 : 
; 1101 : 		_Nodeptr _Pnext;
; 1102 : 		_Nodeptr _Pnode = this->_Nextnode(this->_Myhead);

	mov	ecx, DWORD PTR _this$[ebp]
	mov	edx, DWORD PTR [ecx+4]
	push	edx
	call	?_Nextnode@?$_List_val@PAV?$Goal@VAbstRaven_Bot@@@@V?$allocator@PAV?$Goal@VAbstRaven_Bot@@@@@std@@@std@@SAAAPAU_Node@?$_List_nod@PAV?$Goal@VAbstRaven_Bot@@@@V?$allocator@PAV?$Goal@VAbstRaven_Bot@@@@@std@@@2@PAU342@@Z ; std::_List_val<Goal<AbstRaven_Bot> *,std::allocator<Goal<AbstRaven_Bot> *> >::_Nextnode
	add	esp, 4
	mov	eax, DWORD PTR [eax]
	mov	DWORD PTR __Pnode$[ebp], eax

; 1103 : 		this->_Nextnode(this->_Myhead) = this->_Myhead;

	mov	ecx, DWORD PTR _this$[ebp]
	mov	edx, DWORD PTR [ecx+4]
	push	edx
	call	?_Nextnode@?$_List_val@PAV?$Goal@VAbstRaven_Bot@@@@V?$allocator@PAV?$Goal@VAbstRaven_Bot@@@@@std@@@std@@SAAAPAU_Node@?$_List_nod@PAV?$Goal@VAbstRaven_Bot@@@@V?$allocator@PAV?$Goal@VAbstRaven_Bot@@@@@std@@@2@PAU342@@Z ; std::_List_val<Goal<AbstRaven_Bot> *,std::allocator<Goal<AbstRaven_Bot> *> >::_Nextnode
	add	esp, 4
	mov	ecx, DWORD PTR _this$[ebp]
	mov	edx, DWORD PTR [ecx+4]
	mov	DWORD PTR [eax], edx

; 1104 : 		this->_Prevnode(this->_Myhead) = this->_Myhead;

	mov	eax, DWORD PTR _this$[ebp]
	mov	ecx, DWORD PTR [eax+4]
	push	ecx
	call	?_Prevnode@?$_List_val@PAV?$Goal@VAbstRaven_Bot@@@@V?$allocator@PAV?$Goal@VAbstRaven_Bot@@@@@std@@@std@@SAAAPAU_Node@?$_List_nod@PAV?$Goal@VAbstRaven_Bot@@@@V?$allocator@PAV?$Goal@VAbstRaven_Bot@@@@@std@@@2@PAU342@@Z ; std::_List_val<Goal<AbstRaven_Bot> *,std::allocator<Goal<AbstRaven_Bot> *> >::_Prevnode
	add	esp, 4
	mov	edx, DWORD PTR _this$[ebp]
	mov	ecx, DWORD PTR [edx+4]
	mov	DWORD PTR [eax], ecx

; 1105 : 		this->_Mysize = 0;

	mov	edx, DWORD PTR _this$[ebp]
	mov	DWORD PTR [edx+8], 0

; 1106 : 
; 1107 : 		for (; _Pnode != this->_Myhead; _Pnode = _Pnext)

	jmp	SHORT $LN3@clear
$LN2@clear:
	mov	eax, DWORD PTR __Pnext$[ebp]
	mov	DWORD PTR __Pnode$[ebp], eax
$LN3@clear:
	mov	ecx, DWORD PTR _this$[ebp]
	mov	edx, DWORD PTR __Pnode$[ebp]
	cmp	edx, DWORD PTR [ecx+4]
	je	SHORT $LN4@clear

; 1108 : 			{	// delete an element
; 1109 : 			_Pnext = this->_Nextnode(_Pnode);

	mov	eax, DWORD PTR __Pnode$[ebp]
	push	eax
	call	?_Nextnode@?$_List_val@PAV?$Goal@VAbstRaven_Bot@@@@V?$allocator@PAV?$Goal@VAbstRaven_Bot@@@@@std@@@std@@SAAAPAU_Node@?$_List_nod@PAV?$Goal@VAbstRaven_Bot@@@@V?$allocator@PAV?$Goal@VAbstRaven_Bot@@@@@std@@@2@PAU342@@Z ; std::_List_val<Goal<AbstRaven_Bot> *,std::allocator<Goal<AbstRaven_Bot> *> >::_Nextnode
	add	esp, 4
	mov	ecx, DWORD PTR [eax]
	mov	DWORD PTR __Pnext$[ebp], ecx

; 1110 : 
; 1111 : 			_Dest_val(this->_Alnod, _Pnode);

	mov	edx, DWORD PTR __Pnode$[ebp]
	push	edx
	mov	eax, DWORD PTR _this$[ebp]
	add	eax, 12					; 0000000cH
	push	eax
	call	??$_Dest_val@V?$allocator@U_Node@?$_List_nod@PAV?$Goal@VAbstRaven_Bot@@@@V?$allocator@PAV?$Goal@VAbstRaven_Bot@@@@@std@@@std@@@std@@U_Node@?$_List_nod@PAV?$Goal@VAbstRaven_Bot@@@@V?$allocator@PAV?$Goal@VAbstRaven_Bot@@@@@std@@@2@@std@@YAXAAV?$allocator@U_Node@?$_List_nod@PAV?$Goal@VAbstRaven_Bot@@@@V?$allocator@PAV?$Goal@VAbstRaven_Bot@@@@@std@@@std@@@0@PAU_Node@?$_List_nod@PAV?$Goal@VAbstRaven_Bot@@@@V?$allocator@PAV?$Goal@VAbstRaven_Bot@@@@@std@@@0@@Z ; std::_Dest_val<std::allocator<std::_List_nod<Goal<AbstRaven_Bot> *,std::allocator<Goal<AbstRaven_Bot> *> >::_Node>,std::_List_nod<Goal<AbstRaven_Bot> *,std::allocator<Goal<AbstRaven_Bot> *> >::_Node>
	add	esp, 8

; 1112 : 			this->_Alnod.deallocate(_Pnode, 1);

	push	1
	mov	ecx, DWORD PTR __Pnode$[ebp]
	push	ecx
	mov	ecx, DWORD PTR _this$[ebp]
	add	ecx, 12					; 0000000cH
	call	?deallocate@?$allocator@U_Node@?$_List_nod@PAV?$Goal@VAbstRaven_Bot@@@@V?$allocator@PAV?$Goal@VAbstRaven_Bot@@@@@std@@@std@@@std@@QAEXPAU_Node@?$_List_nod@PAV?$Goal@VAbstRaven_Bot@@@@V?$allocator@PAV?$Goal@VAbstRaven_Bot@@@@@std@@@2@I@Z ; std::allocator<std::_List_nod<Goal<AbstRaven_Bot> *,std::allocator<Goal<AbstRaven_Bot> *> >::_Node>::deallocate

; 1113 : 			}

	jmp	SHORT $LN2@clear
$LN4@clear:

; 1114 : 		}

	add	esp, 12					; 0000000cH
	cmp	ebp, esp
	call	__RTC_CheckEsp
	mov	esp, ebp
	pop	ebp
	ret	0
?clear@?$list@PAV?$Goal@VAbstRaven_Bot@@@@V?$allocator@PAV?$Goal@VAbstRaven_Bot@@@@@std@@@std@@QAEXXZ ENDP ; std::list<Goal<AbstRaven_Bot> *,std::allocator<Goal<AbstRaven_Bot> *> >::clear
; Function compile flags: /Odtp /RTCsu
_TEXT	ENDS
;	COMDAT ?_Nextnode@?$_List_val@PAV?$Goal@VAbstRaven_Bot@@@@V?$allocator@PAV?$Goal@VAbstRaven_Bot@@@@@std@@@std@@SAAAPAU_Node@?$_List_nod@PAV?$Goal@VAbstRaven_Bot@@@@V?$allocator@PAV?$Goal@VAbstRaven_Bot@@@@@std@@@2@PAU342@@Z
_TEXT	SEGMENT
__Pnode$ = 8						; size = 4
?_Nextnode@?$_List_val@PAV?$Goal@VAbstRaven_Bot@@@@V?$allocator@PAV?$Goal@VAbstRaven_Bot@@@@@std@@@std@@SAAAPAU_Node@?$_List_nod@PAV?$Goal@VAbstRaven_Bot@@@@V?$allocator@PAV?$Goal@VAbstRaven_Bot@@@@@std@@@2@PAU342@@Z PROC ; std::_List_val<Goal<AbstRaven_Bot> *,std::allocator<Goal<AbstRaven_Bot> *> >::_Nextnode, COMDAT

; 560  : 		{	// return reference to successor pointer in node

	push	ebp
	mov	ebp, esp

; 561  : 		return ((_Nodepref)(*_Pnode)._Next);

	mov	eax, DWORD PTR __Pnode$[ebp]

; 562  : 		}

	pop	ebp
	ret	0
?_Nextnode@?$_List_val@PAV?$Goal@VAbstRaven_Bot@@@@V?$allocator@PAV?$Goal@VAbstRaven_Bot@@@@@std@@@std@@SAAAPAU_Node@?$_List_nod@PAV?$Goal@VAbstRaven_Bot@@@@V?$allocator@PAV?$Goal@VAbstRaven_Bot@@@@@std@@@2@PAU342@@Z ENDP ; std::_List_val<Goal<AbstRaven_Bot> *,std::allocator<Goal<AbstRaven_Bot> *> >::_Nextnode
; Function compile flags: /Odtp /RTCsu
_TEXT	ENDS
;	COMDAT ?_Prevnode@?$_List_val@PAV?$Goal@VAbstRaven_Bot@@@@V?$allocator@PAV?$Goal@VAbstRaven_Bot@@@@@std@@@std@@SAAAPAU_Node@?$_List_nod@PAV?$Goal@VAbstRaven_Bot@@@@V?$allocator@PAV?$Goal@VAbstRaven_Bot@@@@@std@@@2@PAU342@@Z
_TEXT	SEGMENT
__Pnode$ = 8						; size = 4
?_Prevnode@?$_List_val@PAV?$Goal@VAbstRaven_Bot@@@@V?$allocator@PAV?$Goal@VAbstRaven_Bot@@@@@std@@@std@@SAAAPAU_Node@?$_List_nod@PAV?$Goal@VAbstRaven_Bot@@@@V?$allocator@PAV?$Goal@VAbstRaven_Bot@@@@@std@@@2@PAU342@@Z PROC ; std::_List_val<Goal<AbstRaven_Bot> *,std::allocator<Goal<AbstRaven_Bot> *> >::_Prevnode, COMDAT

; 565  : 		{	// return reference to predecessor pointer in node

	push	ebp
	mov	ebp, esp

; 566  : 		return ((_Nodepref)(*_Pnode)._Prev);

	mov	eax, DWORD PTR __Pnode$[ebp]
	add	eax, 4

; 567  : 		}

	pop	ebp
	ret	0
?_Prevnode@?$_List_val@PAV?$Goal@VAbstRaven_Bot@@@@V?$allocator@PAV?$Goal@VAbstRaven_Bot@@@@@std@@@std@@SAAAPAU_Node@?$_List_nod@PAV?$Goal@VAbstRaven_Bot@@@@V?$allocator@PAV?$Goal@VAbstRaven_Bot@@@@@std@@@2@PAU342@@Z ENDP ; std::_List_val<Goal<AbstRaven_Bot> *,std::allocator<Goal<AbstRaven_Bot> *> >::_Prevnode
_TEXT	ENDS
PUBLIC	??1_Container_base12@std@@QAE@XZ		; std::_Container_base12::~_Container_base12
PUBLIC	??$_Cons_val@V?$allocator@U_Container_proxy@std@@@std@@U_Container_proxy@2@U32@@std@@YAXAAV?$allocator@U_Container_proxy@std@@@0@PAU_Container_proxy@0@$$QAU20@@Z ; std::_Cons_val<std::allocator<std::_Container_proxy>,std::_Container_proxy,std::_Container_proxy>
PUBLIC	??0_Container_proxy@std@@QAE@XZ			; std::_Container_proxy::_Container_proxy
PUBLIC	?allocate@?$allocator@U_Container_proxy@std@@@std@@QAEPAU_Container_proxy@2@I@Z ; std::allocator<std::_Container_proxy>::allocate
PUBLIC	??$?0U_Node@?$_List_nod@PAV?$Goal@VAbstRaven_Bot@@@@V?$allocator@PAV?$Goal@VAbstRaven_Bot@@@@@std@@@std@@@?$allocator@U_Container_proxy@std@@@std@@QAE@ABV?$allocator@U_Node@?$_List_nod@PAV?$Goal@VAbstRaven_Bot@@@@V?$allocator@PAV?$Goal@VAbstRaven_Bot@@@@@std@@@std@@@1@@Z ; std::allocator<std::_Container_proxy>::allocator<std::_Container_proxy><std::_List_nod<Goal<AbstRaven_Bot> *,std::allocator<Goal<AbstRaven_Bot> *> >::_Node>
PUBLIC	??$?0PAV?$Goal@VAbstRaven_Bot@@@@@?$allocator@U_Node@?$_List_nod@PAV?$Goal@VAbstRaven_Bot@@@@V?$allocator@PAV?$Goal@VAbstRaven_Bot@@@@@std@@@std@@@std@@QAE@ABV?$allocator@PAV?$Goal@VAbstRaven_Bot@@@@@1@@Z ; std::allocator<std::_List_nod<Goal<AbstRaven_Bot> *,std::allocator<Goal<AbstRaven_Bot> *> >::_Node>::allocator<std::_List_nod<Goal<AbstRaven_Bot> *,std::allocator<Goal<AbstRaven_Bot> *> >::_Node><Goal<AbstRaven_Bot> *>
PUBLIC	??0_Container_base12@std@@QAE@XZ		; std::_Container_base12::_Container_base12
;	COMDAT xdata$x
xdata$x	SEGMENT
__unwindtable$??0?$_List_nod@PAV?$Goal@VAbstRaven_Bot@@@@V?$allocator@PAV?$Goal@VAbstRaven_Bot@@@@@std@@@std@@QAE@V?$allocator@PAV?$Goal@VAbstRaven_Bot@@@@@1@@Z DD 0ffffffffH
	DD	FLAT:__unwindfunclet$??0?$_List_nod@PAV?$Goal@VAbstRaven_Bot@@@@V?$allocator@PAV?$Goal@VAbstRaven_Bot@@@@@std@@@std@@QAE@V?$allocator@PAV?$Goal@VAbstRaven_Bot@@@@@1@@Z$0
__ehfuncinfo$??0?$_List_nod@PAV?$Goal@VAbstRaven_Bot@@@@V?$allocator@PAV?$Goal@VAbstRaven_Bot@@@@@std@@@std@@QAE@V?$allocator@PAV?$Goal@VAbstRaven_Bot@@@@@1@@Z DD 019930522H
	DD	01H
	DD	FLAT:__unwindtable$??0?$_List_nod@PAV?$Goal@VAbstRaven_Bot@@@@V?$allocator@PAV?$Goal@VAbstRaven_Bot@@@@@std@@@std@@QAE@V?$allocator@PAV?$Goal@VAbstRaven_Bot@@@@@1@@Z
	DD	2 DUP(00H)
	DD	2 DUP(00H)
	DD	00H
	DD	01H
; Function compile flags: /Odtp /RTCsu
xdata$x	ENDS
;	COMDAT ??0?$_List_nod@PAV?$Goal@VAbstRaven_Bot@@@@V?$allocator@PAV?$Goal@VAbstRaven_Bot@@@@@std@@@std@@QAE@V?$allocator@PAV?$Goal@VAbstRaven_Bot@@@@@1@@Z
_TEXT	SEGMENT
$T140068 = -36						; size = 8
__Alproxy$ = -21					; size = 1
_this$ = -16						; size = 4
__$EHRec$ = -12						; size = 12
__Al$ = 8						; size = 1
??0?$_List_nod@PAV?$Goal@VAbstRaven_Bot@@@@V?$allocator@PAV?$Goal@VAbstRaven_Bot@@@@@std@@@std@@QAE@V?$allocator@PAV?$Goal@VAbstRaven_Bot@@@@@1@@Z PROC ; std::_List_nod<Goal<AbstRaven_Bot> *,std::allocator<Goal<AbstRaven_Bot> *> >::_List_nod<Goal<AbstRaven_Bot> *,std::allocator<Goal<AbstRaven_Bot> *> >, COMDAT
; _this$ = ecx

; 444  : 		{	// construct allocators and proxy from _Al

	push	ebp
	mov	ebp, esp
	push	-1
	push	__ehhandler$??0?$_List_nod@PAV?$Goal@VAbstRaven_Bot@@@@V?$allocator@PAV?$Goal@VAbstRaven_Bot@@@@@std@@@std@@QAE@V?$allocator@PAV?$Goal@VAbstRaven_Bot@@@@@1@@Z
	mov	eax, DWORD PTR fs:0
	push	eax
	sub	esp, 24					; 00000018H
	mov	eax, -858993460				; ccccccccH
	mov	DWORD PTR [ebp-36], eax
	mov	DWORD PTR [ebp-32], eax
	mov	DWORD PTR [ebp-28], eax
	mov	DWORD PTR [ebp-24], eax
	mov	DWORD PTR [ebp-20], eax
	mov	DWORD PTR [ebp-16], eax
	mov	eax, DWORD PTR ___security_cookie
	xor	eax, ebp
	push	eax
	lea	eax, DWORD PTR __$EHRec$[ebp]
	mov	DWORD PTR fs:0, eax
	mov	DWORD PTR _this$[ebp], ecx
	mov	ecx, DWORD PTR _this$[ebp]
	call	??0_Container_base12@std@@QAE@XZ	; std::_Container_base12::_Container_base12
	mov	DWORD PTR __$EHRec$[ebp+8], 0
	lea	eax, DWORD PTR __Al$[ebp]
	push	eax
	mov	ecx, DWORD PTR _this$[ebp]
	add	ecx, 12					; 0000000cH
	call	??$?0PAV?$Goal@VAbstRaven_Bot@@@@@?$allocator@U_Node@?$_List_nod@PAV?$Goal@VAbstRaven_Bot@@@@V?$allocator@PAV?$Goal@VAbstRaven_Bot@@@@@std@@@std@@@std@@QAE@ABV?$allocator@PAV?$Goal@VAbstRaven_Bot@@@@@1@@Z ; std::allocator<std::_List_nod<Goal<AbstRaven_Bot> *,std::allocator<Goal<AbstRaven_Bot> *> >::_Node>::allocator<std::_List_nod<Goal<AbstRaven_Bot> *,std::allocator<Goal<AbstRaven_Bot> *> >::_Node><Goal<AbstRaven_Bot> *>
	lea	ecx, DWORD PTR __Al$[ebp]
	push	ecx
	mov	ecx, DWORD PTR _this$[ebp]
	add	ecx, 13					; 0000000dH
	call	??0?$allocator@PAV?$Goal@VAbstRaven_Bot@@@@@std@@QAE@ABV01@@Z ; std::allocator<Goal<AbstRaven_Bot> *>::allocator<Goal<AbstRaven_Bot> *>

; 445  : 		typename _Alloc::template rebind<_Container_proxy>::other
; 446  : 			_Alproxy(_Alnod);

	mov	edx, DWORD PTR _this$[ebp]
	add	edx, 12					; 0000000cH
	push	edx
	lea	ecx, DWORD PTR __Alproxy$[ebp]
	call	??$?0U_Node@?$_List_nod@PAV?$Goal@VAbstRaven_Bot@@@@V?$allocator@PAV?$Goal@VAbstRaven_Bot@@@@@std@@@std@@@?$allocator@U_Container_proxy@std@@@std@@QAE@ABV?$allocator@U_Node@?$_List_nod@PAV?$Goal@VAbstRaven_Bot@@@@V?$allocator@PAV?$Goal@VAbstRaven_Bot@@@@@std@@@std@@@1@@Z ; std::allocator<std::_Container_proxy>::allocator<std::_Container_proxy><std::_List_nod<Goal<AbstRaven_Bot> *,std::allocator<Goal<AbstRaven_Bot> *> >::_Node>

; 447  : 		this->_Myproxy = _Alproxy.allocate(1);

	push	1
	lea	ecx, DWORD PTR __Alproxy$[ebp]
	call	?allocate@?$allocator@U_Container_proxy@std@@@std@@QAEPAU_Container_proxy@2@I@Z ; std::allocator<std::_Container_proxy>::allocate
	mov	ecx, DWORD PTR _this$[ebp]
	mov	DWORD PTR [ecx], eax

; 448  : 		_Cons_val(_Alproxy, this->_Myproxy, _Container_proxy());

	lea	ecx, DWORD PTR $T140068[ebp]
	call	??0_Container_proxy@std@@QAE@XZ		; std::_Container_proxy::_Container_proxy
	push	eax
	mov	edx, DWORD PTR _this$[ebp]
	mov	eax, DWORD PTR [edx]
	push	eax
	lea	ecx, DWORD PTR __Alproxy$[ebp]
	push	ecx
	call	??$_Cons_val@V?$allocator@U_Container_proxy@std@@@std@@U_Container_proxy@2@U32@@std@@YAXAAV?$allocator@U_Container_proxy@std@@@0@PAU_Container_proxy@0@$$QAU20@@Z ; std::_Cons_val<std::allocator<std::_Container_proxy>,std::_Container_proxy,std::_Container_proxy>
	add	esp, 12					; 0000000cH

; 449  : 		this->_Myproxy->_Mycont = this;

	mov	edx, DWORD PTR _this$[ebp]
	mov	eax, DWORD PTR [edx]
	mov	ecx, DWORD PTR _this$[ebp]
	mov	DWORD PTR [eax], ecx

; 450  : 		}

	mov	DWORD PTR __$EHRec$[ebp+8], -1
	mov	eax, DWORD PTR _this$[ebp]
	push	edx
	mov	ecx, ebp
	push	eax
	lea	edx, DWORD PTR $LN7@List_nod
	call	@_RTC_CheckStackVars@8
	pop	eax
	pop	edx
	mov	ecx, DWORD PTR __$EHRec$[ebp]
	mov	DWORD PTR fs:0, ecx
	pop	ecx
	add	esp, 36					; 00000024H
	cmp	ebp, esp
	call	__RTC_CheckEsp
	mov	esp, ebp
	pop	ebp
	ret	4
	npad	3
$LN7@List_nod:
	DD	1
	DD	$LN6@List_nod
$LN6@List_nod:
	DD	-21					; ffffffebH
	DD	1
	DD	$LN4@List_nod
$LN4@List_nod:
	DB	95					; 0000005fH
	DB	65					; 00000041H
	DB	108					; 0000006cH
	DB	112					; 00000070H
	DB	114					; 00000072H
	DB	111					; 0000006fH
	DB	120					; 00000078H
	DB	121					; 00000079H
	DB	0
_TEXT	ENDS
;	COMDAT text$x
text$x	SEGMENT
__unwindfunclet$??0?$_List_nod@PAV?$Goal@VAbstRaven_Bot@@@@V?$allocator@PAV?$Goal@VAbstRaven_Bot@@@@@std@@@std@@QAE@V?$allocator@PAV?$Goal@VAbstRaven_Bot@@@@@1@@Z$0:
	mov	ecx, DWORD PTR _this$[ebp]
	jmp	??1_Container_base12@std@@QAE@XZ	; std::_Container_base12::~_Container_base12
__ehhandler$??0?$_List_nod@PAV?$Goal@VAbstRaven_Bot@@@@V?$allocator@PAV?$Goal@VAbstRaven_Bot@@@@@std@@@std@@QAE@V?$allocator@PAV?$Goal@VAbstRaven_Bot@@@@@1@@Z:
	mov	edx, DWORD PTR [esp+8]
	lea	eax, DWORD PTR [edx+12]
	mov	ecx, DWORD PTR [edx-28]
	xor	ecx, eax
	call	@__security_check_cookie@4
	mov	eax, OFFSET __ehfuncinfo$??0?$_List_nod@PAV?$Goal@VAbstRaven_Bot@@@@V?$allocator@PAV?$Goal@VAbstRaven_Bot@@@@@std@@@std@@QAE@V?$allocator@PAV?$Goal@VAbstRaven_Bot@@@@@1@@Z
	jmp	___CxxFrameHandler3
text$x	ENDS
??0?$_List_nod@PAV?$Goal@VAbstRaven_Bot@@@@V?$allocator@PAV?$Goal@VAbstRaven_Bot@@@@@std@@@std@@QAE@V?$allocator@PAV?$Goal@VAbstRaven_Bot@@@@@1@@Z ENDP ; std::_List_nod<Goal<AbstRaven_Bot> *,std::allocator<Goal<AbstRaven_Bot> *> >::_List_nod<Goal<AbstRaven_Bot> *,std::allocator<Goal<AbstRaven_Bot> *> >
; Function compile flags: /Odtp /RTCsu
; File c:\program files (x86)\microsoft visual studio 10.0\vc\include\xutility
;	COMDAT ??0_Container_proxy@std@@QAE@XZ
_TEXT	SEGMENT
_this$ = -4						; size = 4
??0_Container_proxy@std@@QAE@XZ PROC			; std::_Container_proxy::_Container_proxy, COMDAT
; _this$ = ecx

; 65   : 		{	// construct from pointers

	push	ebp
	mov	ebp, esp
	push	ecx
	mov	DWORD PTR [ebp-4], -858993460		; ccccccccH
	mov	DWORD PTR _this$[ebp], ecx
	mov	eax, DWORD PTR _this$[ebp]
	mov	DWORD PTR [eax], 0
	mov	ecx, DWORD PTR _this$[ebp]
	mov	DWORD PTR [ecx+4], 0

; 66   : 		}

	mov	eax, DWORD PTR _this$[ebp]
	mov	esp, ebp
	pop	ebp
	ret	0
??0_Container_proxy@std@@QAE@XZ ENDP			; std::_Container_proxy::_Container_proxy
; Function compile flags: /Odtp /RTCsu
_TEXT	ENDS
;	COMDAT ??0_Container_base12@std@@QAE@XZ
_TEXT	SEGMENT
_this$ = -4						; size = 4
??0_Container_base12@std@@QAE@XZ PROC			; std::_Container_base12::_Container_base12, COMDAT
; _this$ = ecx

; 77   : 		{	// construct childless container

	push	ebp
	mov	ebp, esp
	push	ecx
	mov	DWORD PTR [ebp-4], -858993460		; ccccccccH
	mov	DWORD PTR _this$[ebp], ecx
	mov	eax, DWORD PTR _this$[ebp]
	mov	DWORD PTR [eax], 0

; 78   : 		}

	mov	eax, DWORD PTR _this$[ebp]
	mov	esp, ebp
	pop	ebp
	ret	0
??0_Container_base12@std@@QAE@XZ ENDP			; std::_Container_base12::_Container_base12
_TEXT	ENDS
PUBLIC	?_Orphan_all@_Container_base12@std@@QAEXXZ	; std::_Container_base12::_Orphan_all
; Function compile flags: /Odtp /RTCsu
;	COMDAT ??1_Container_base12@std@@QAE@XZ
_TEXT	SEGMENT
_this$ = -4						; size = 4
??1_Container_base12@std@@QAE@XZ PROC			; std::_Container_base12::~_Container_base12, COMDAT
; _this$ = ecx

; 91   : 		{	// destroy the container

	push	ebp
	mov	ebp, esp
	push	ecx
	mov	DWORD PTR [ebp-4], -858993460		; ccccccccH
	mov	DWORD PTR _this$[ebp], ecx

; 92   : 		_Orphan_all();

	mov	ecx, DWORD PTR _this$[ebp]
	call	?_Orphan_all@_Container_base12@std@@QAEXXZ ; std::_Container_base12::_Orphan_all

; 93   : 		}

	add	esp, 4
	cmp	ebp, esp
	call	__RTC_CheckEsp
	mov	esp, ebp
	pop	ebp
	ret	0
??1_Container_base12@std@@QAE@XZ ENDP			; std::_Container_base12::~_Container_base12
_TEXT	ENDS
EXTRN	??1_Lockit@std@@QAE@XZ:PROC			; std::_Lockit::~_Lockit
EXTRN	??0_Lockit@std@@QAE@H@Z:PROC			; std::_Lockit::_Lockit
; Function compile flags: /Odtp /RTCsu
;	COMDAT ?_Orphan_all@_Container_base12@std@@QAEXXZ
_TEXT	SEGMENT
__Pnext$15171 = -20					; size = 4
__Lock$15170 = -12					; size = 4
_this$ = -4						; size = 4
?_Orphan_all@_Container_base12@std@@QAEXXZ PROC		; std::_Container_base12::_Orphan_all, COMDAT
; _this$ = ecx

; 206  : 	{	// orphan all iterators

	push	ebp
	mov	ebp, esp
	sub	esp, 20					; 00000014H
	mov	eax, -858993460				; ccccccccH
	mov	DWORD PTR [ebp-20], eax
	mov	DWORD PTR [ebp-16], eax
	mov	DWORD PTR [ebp-12], eax
	mov	DWORD PTR [ebp-8], eax
	mov	DWORD PTR [ebp-4], eax
	mov	DWORD PTR _this$[ebp], ecx

; 207  :  #if _ITERATOR_DEBUG_LEVEL == 2
; 208  : 	if (_Myproxy != 0)

	mov	eax, DWORD PTR _this$[ebp]
	cmp	DWORD PTR [eax], 0
	je	SHORT $LN5@Orphan_all

; 209  : 		{	// proxy allocated, drain it
; 210  : 		_Lockit _Lock(_LOCK_DEBUG);

	push	3
	lea	ecx, DWORD PTR __Lock$15170[ebp]
	call	??0_Lockit@std@@QAE@H@Z			; std::_Lockit::_Lockit

; 211  : 
; 212  : 		for (_Iterator_base12 **_Pnext = &_Myproxy->_Myfirstiter;

	mov	ecx, DWORD PTR _this$[ebp]
	mov	edx, DWORD PTR [ecx]
	add	edx, 4
	mov	DWORD PTR __Pnext$15171[ebp], edx

; 213  : 			*_Pnext != 0; *_Pnext = (*_Pnext)->_Mynextiter)

	jmp	SHORT $LN3@Orphan_all
$LN2@Orphan_all:
	mov	eax, DWORD PTR __Pnext$15171[ebp]
	mov	ecx, DWORD PTR [eax]
	mov	edx, DWORD PTR __Pnext$15171[ebp]
	mov	eax, DWORD PTR [ecx+4]
	mov	DWORD PTR [edx], eax
$LN3@Orphan_all:
	mov	ecx, DWORD PTR __Pnext$15171[ebp]
	cmp	DWORD PTR [ecx], 0
	je	SHORT $LN1@Orphan_all

; 214  : 			(*_Pnext)->_Myproxy = 0;

	mov	edx, DWORD PTR __Pnext$15171[ebp]
	mov	eax, DWORD PTR [edx]
	mov	DWORD PTR [eax], 0
	jmp	SHORT $LN2@Orphan_all
$LN1@Orphan_all:

; 215  : 		_Myproxy->_Myfirstiter = 0;

	mov	ecx, DWORD PTR _this$[ebp]
	mov	edx, DWORD PTR [ecx]
	mov	DWORD PTR [edx+4], 0

; 216  : 		}

	lea	ecx, DWORD PTR __Lock$15170[ebp]
	call	??1_Lockit@std@@QAE@XZ			; std::_Lockit::~_Lockit
$LN5@Orphan_all:

; 217  :  #endif /* _ITERATOR_DEBUG_LEVEL == 2 */
; 218  : 	}

	push	edx
	mov	ecx, ebp
	push	eax
	lea	edx, DWORD PTR $LN10@Orphan_all
	call	@_RTC_CheckStackVars@8
	pop	eax
	pop	edx
	add	esp, 20					; 00000014H
	cmp	ebp, esp
	call	__RTC_CheckEsp
	mov	esp, ebp
	pop	ebp
	ret	0
	npad	3
$LN10@Orphan_all:
	DD	1
	DD	$LN9@Orphan_all
$LN9@Orphan_all:
	DD	-12					; fffffff4H
	DD	4
	DD	$LN8@Orphan_all
$LN8@Orphan_all:
	DB	95					; 0000005fH
	DB	76					; 0000004cH
	DB	111					; 0000006fH
	DB	99					; 00000063H
	DB	107					; 0000006bH
	DB	0
?_Orphan_all@_Container_base12@std@@QAEXXZ ENDP		; std::_Container_base12::_Orphan_all
_TEXT	ENDS
PUBLIC	??$_Allocate@U_Container_proxy@std@@@std@@YAPAU_Container_proxy@0@IPAU10@@Z ; std::_Allocate<std::_Container_proxy>
; Function compile flags: /Odtp /RTCsu
; File c:\program files (x86)\microsoft visual studio 10.0\vc\include\xmemory
;	COMDAT ?allocate@?$allocator@U_Container_proxy@std@@@std@@QAEPAU_Container_proxy@2@I@Z
_TEXT	SEGMENT
_this$ = -4						; size = 4
__Count$ = 8						; size = 4
?allocate@?$allocator@U_Container_proxy@std@@@std@@QAEPAU_Container_proxy@2@I@Z PROC ; std::allocator<std::_Container_proxy>::allocate, COMDAT
; _this$ = ecx

; 186  : 		{	// allocate array of _Count elements

	push	ebp
	mov	ebp, esp
	push	ecx
	mov	DWORD PTR [ebp-4], -858993460		; ccccccccH
	mov	DWORD PTR _this$[ebp], ecx

; 187  : 		return (_Allocate(_Count, (pointer)0));

	push	0
	mov	eax, DWORD PTR __Count$[ebp]
	push	eax
	call	??$_Allocate@U_Container_proxy@std@@@std@@YAPAU_Container_proxy@0@IPAU10@@Z ; std::_Allocate<std::_Container_proxy>
	add	esp, 8

; 188  : 		}

	add	esp, 4
	cmp	ebp, esp
	call	__RTC_CheckEsp
	mov	esp, ebp
	pop	ebp
	ret	4
?allocate@?$allocator@U_Container_proxy@std@@@std@@QAEPAU_Container_proxy@2@I@Z ENDP ; std::allocator<std::_Container_proxy>::allocate
_TEXT	ENDS
PUBLIC	?deallocate@?$allocator@U_Container_proxy@std@@@std@@QAEXPAU_Container_proxy@2@I@Z ; std::allocator<std::_Container_proxy>::deallocate
PUBLIC	??$_Dest_val@V?$allocator@U_Container_proxy@std@@@std@@U_Container_proxy@2@@std@@YAXAAV?$allocator@U_Container_proxy@std@@@0@PAU_Container_proxy@0@@Z ; std::_Dest_val<std::allocator<std::_Container_proxy>,std::_Container_proxy>
;	COMDAT xdata$x
; File c:\program files (x86)\microsoft visual studio 10.0\vc\include\list
xdata$x	SEGMENT
__unwindtable$??1?$_List_nod@PAV?$Goal@VAbstRaven_Bot@@@@V?$allocator@PAV?$Goal@VAbstRaven_Bot@@@@@std@@@std@@QAE@XZ DD 0ffffffffH
	DD	FLAT:__unwindfunclet$??1?$_List_nod@PAV?$Goal@VAbstRaven_Bot@@@@V?$allocator@PAV?$Goal@VAbstRaven_Bot@@@@@std@@@std@@QAE@XZ$0
__ehfuncinfo$??1?$_List_nod@PAV?$Goal@VAbstRaven_Bot@@@@V?$allocator@PAV?$Goal@VAbstRaven_Bot@@@@@std@@@std@@QAE@XZ DD 019930522H
	DD	01H
	DD	FLAT:__unwindtable$??1?$_List_nod@PAV?$Goal@VAbstRaven_Bot@@@@V?$allocator@PAV?$Goal@VAbstRaven_Bot@@@@@std@@@std@@QAE@XZ
	DD	2 DUP(00H)
	DD	2 DUP(00H)
	DD	00H
	DD	01H
; Function compile flags: /Odtp /RTCsu
xdata$x	ENDS
;	COMDAT ??1?$_List_nod@PAV?$Goal@VAbstRaven_Bot@@@@V?$allocator@PAV?$Goal@VAbstRaven_Bot@@@@@std@@@std@@QAE@XZ
_TEXT	SEGMENT
__Alproxy$ = -21					; size = 1
_this$ = -16						; size = 4
__$EHRec$ = -12						; size = 12
??1?$_List_nod@PAV?$Goal@VAbstRaven_Bot@@@@V?$allocator@PAV?$Goal@VAbstRaven_Bot@@@@@std@@@std@@QAE@XZ PROC ; std::_List_nod<Goal<AbstRaven_Bot> *,std::allocator<Goal<AbstRaven_Bot> *> >::~_List_nod<Goal<AbstRaven_Bot> *,std::allocator<Goal<AbstRaven_Bot> *> >, COMDAT
; _this$ = ecx

; 453  : 		{	// destroy proxy

	push	ebp
	mov	ebp, esp
	push	-1
	push	__ehhandler$??1?$_List_nod@PAV?$Goal@VAbstRaven_Bot@@@@V?$allocator@PAV?$Goal@VAbstRaven_Bot@@@@@std@@@std@@QAE@XZ
	mov	eax, DWORD PTR fs:0
	push	eax
	sub	esp, 16					; 00000010H
	mov	eax, -858993460				; ccccccccH
	mov	DWORD PTR [ebp-28], eax
	mov	DWORD PTR [ebp-24], eax
	mov	DWORD PTR [ebp-20], eax
	mov	DWORD PTR [ebp-16], eax
	mov	eax, DWORD PTR ___security_cookie
	xor	eax, ebp
	push	eax
	lea	eax, DWORD PTR __$EHRec$[ebp]
	mov	DWORD PTR fs:0, eax
	mov	DWORD PTR _this$[ebp], ecx
	mov	DWORD PTR __$EHRec$[ebp+8], 0

; 454  : 		typename _Alloc::template rebind<_Container_proxy>::other
; 455  : 			_Alproxy(_Alnod);

	mov	eax, DWORD PTR _this$[ebp]
	add	eax, 12					; 0000000cH
	push	eax
	lea	ecx, DWORD PTR __Alproxy$[ebp]
	call	??$?0U_Node@?$_List_nod@PAV?$Goal@VAbstRaven_Bot@@@@V?$allocator@PAV?$Goal@VAbstRaven_Bot@@@@@std@@@std@@@?$allocator@U_Container_proxy@std@@@std@@QAE@ABV?$allocator@U_Node@?$_List_nod@PAV?$Goal@VAbstRaven_Bot@@@@V?$allocator@PAV?$Goal@VAbstRaven_Bot@@@@@std@@@std@@@1@@Z ; std::allocator<std::_Container_proxy>::allocator<std::_Container_proxy><std::_List_nod<Goal<AbstRaven_Bot> *,std::allocator<Goal<AbstRaven_Bot> *> >::_Node>

; 456  : 		this->_Orphan_all();

	mov	ecx, DWORD PTR _this$[ebp]
	call	?_Orphan_all@_Container_base12@std@@QAEXXZ ; std::_Container_base12::_Orphan_all

; 457  : 		_Dest_val(_Alproxy, this->_Myproxy);

	mov	ecx, DWORD PTR _this$[ebp]
	mov	edx, DWORD PTR [ecx]
	push	edx
	lea	eax, DWORD PTR __Alproxy$[ebp]
	push	eax
	call	??$_Dest_val@V?$allocator@U_Container_proxy@std@@@std@@U_Container_proxy@2@@std@@YAXAAV?$allocator@U_Container_proxy@std@@@0@PAU_Container_proxy@0@@Z ; std::_Dest_val<std::allocator<std::_Container_proxy>,std::_Container_proxy>
	add	esp, 8

; 458  : 		_Alproxy.deallocate(this->_Myproxy, 1);

	push	1
	mov	ecx, DWORD PTR _this$[ebp]
	mov	edx, DWORD PTR [ecx]
	push	edx
	lea	ecx, DWORD PTR __Alproxy$[ebp]
	call	?deallocate@?$allocator@U_Container_proxy@std@@@std@@QAEXPAU_Container_proxy@2@I@Z ; std::allocator<std::_Container_proxy>::deallocate

; 459  : 		this->_Myproxy = 0;

	mov	eax, DWORD PTR _this$[ebp]
	mov	DWORD PTR [eax], 0

; 460  : 		}

	mov	DWORD PTR __$EHRec$[ebp+8], -1
	mov	ecx, DWORD PTR _this$[ebp]
	call	??1_Container_base12@std@@QAE@XZ	; std::_Container_base12::~_Container_base12
	push	edx
	mov	ecx, ebp
	push	eax
	lea	edx, DWORD PTR $LN7@List_nod@2
	call	@_RTC_CheckStackVars@8
	pop	eax
	pop	edx
	mov	ecx, DWORD PTR __$EHRec$[ebp]
	mov	DWORD PTR fs:0, ecx
	pop	ecx
	add	esp, 28					; 0000001cH
	cmp	ebp, esp
	call	__RTC_CheckEsp
	mov	esp, ebp
	pop	ebp
	ret	0
	npad	1
$LN7@List_nod@2:
	DD	1
	DD	$LN6@List_nod@2
$LN6@List_nod@2:
	DD	-21					; ffffffebH
	DD	1
	DD	$LN4@List_nod@2
$LN4@List_nod@2:
	DB	95					; 0000005fH
	DB	65					; 00000041H
	DB	108					; 0000006cH
	DB	112					; 00000070H
	DB	114					; 00000072H
	DB	111					; 0000006fH
	DB	120					; 00000078H
	DB	121					; 00000079H
	DB	0
_TEXT	ENDS
;	COMDAT text$x
text$x	SEGMENT
__unwindfunclet$??1?$_List_nod@PAV?$Goal@VAbstRaven_Bot@@@@V?$allocator@PAV?$Goal@VAbstRaven_Bot@@@@@std@@@std@@QAE@XZ$0:
	mov	ecx, DWORD PTR _this$[ebp]
	jmp	??1_Container_base12@std@@QAE@XZ	; std::_Container_base12::~_Container_base12
__ehhandler$??1?$_List_nod@PAV?$Goal@VAbstRaven_Bot@@@@V?$allocator@PAV?$Goal@VAbstRaven_Bot@@@@@std@@@std@@QAE@XZ:
	mov	edx, DWORD PTR [esp+8]
	lea	eax, DWORD PTR [edx+12]
	mov	ecx, DWORD PTR [edx-20]
	xor	ecx, eax
	call	@__security_check_cookie@4
	mov	eax, OFFSET __ehfuncinfo$??1?$_List_nod@PAV?$Goal@VAbstRaven_Bot@@@@V?$allocator@PAV?$Goal@VAbstRaven_Bot@@@@@std@@@std@@QAE@XZ
	jmp	___CxxFrameHandler3
text$x	ENDS
??1?$_List_nod@PAV?$Goal@VAbstRaven_Bot@@@@V?$allocator@PAV?$Goal@VAbstRaven_Bot@@@@@std@@@std@@QAE@XZ ENDP ; std::_List_nod<Goal<AbstRaven_Bot> *,std::allocator<Goal<AbstRaven_Bot> *> >::~_List_nod<Goal<AbstRaven_Bot> *,std::allocator<Goal<AbstRaven_Bot> *> >
; Function compile flags: /Odtp /RTCsu
; File c:\program files (x86)\microsoft visual studio 10.0\vc\include\xmemory
;	COMDAT ?deallocate@?$allocator@U_Container_proxy@std@@@std@@QAEXPAU_Container_proxy@2@I@Z
_TEXT	SEGMENT
_this$ = -4						; size = 4
__Ptr$ = 8						; size = 4
___formal$ = 12						; size = 4
?deallocate@?$allocator@U_Container_proxy@std@@@std@@QAEXPAU_Container_proxy@2@I@Z PROC ; std::allocator<std::_Container_proxy>::deallocate, COMDAT
; _this$ = ecx

; 181  : 		{	// deallocate object at _Ptr, ignore size

	push	ebp
	mov	ebp, esp
	push	ecx
	mov	DWORD PTR [ebp-4], -858993460		; ccccccccH
	mov	DWORD PTR _this$[ebp], ecx

; 182  : 		::operator delete(_Ptr);

	mov	eax, DWORD PTR __Ptr$[ebp]
	push	eax
	call	??3@YAXPAX@Z				; operator delete
	add	esp, 4

; 183  : 		}

	add	esp, 4
	cmp	ebp, esp
	call	__RTC_CheckEsp
	mov	esp, ebp
	pop	ebp
	ret	8
?deallocate@?$allocator@U_Container_proxy@std@@@std@@QAEXPAU_Container_proxy@2@I@Z ENDP ; std::allocator<std::_Container_proxy>::deallocate
; Function compile flags: /Odtp /RTCsu
_TEXT	ENDS
;	COMDAT ??0?$allocator@PAV?$Goal@VAbstRaven_Bot@@@@@std@@QAE@ABV01@@Z
_TEXT	SEGMENT
_this$ = -4						; size = 4
___formal$ = 8						; size = 4
??0?$allocator@PAV?$Goal@VAbstRaven_Bot@@@@@std@@QAE@ABV01@@Z PROC ; std::allocator<Goal<AbstRaven_Bot> *>::allocator<Goal<AbstRaven_Bot> *>, COMDAT
; _this$ = ecx

; 165  : 	_ALLOCATOR(const _ALLOCATOR<_Ty>&) _THROW0()

	push	ebp
	mov	ebp, esp
	push	ecx
	mov	DWORD PTR [ebp-4], -858993460		; ccccccccH
	mov	DWORD PTR _this$[ebp], ecx

; 166  : 		{	// construct by copying (do nothing)
; 167  : 		}

	mov	eax, DWORD PTR _this$[ebp]
	mov	esp, ebp
	pop	ebp
	ret	4
??0?$allocator@PAV?$Goal@VAbstRaven_Bot@@@@@std@@QAE@ABV01@@Z ENDP ; std::allocator<Goal<AbstRaven_Bot> *>::allocator<Goal<AbstRaven_Bot> *>
; Function compile flags: /Odtp /RTCsu
_TEXT	ENDS
;	COMDAT ?deallocate@?$allocator@U_Node@?$_List_nod@PAV?$Goal@VAbstRaven_Bot@@@@V?$allocator@PAV?$Goal@VAbstRaven_Bot@@@@@std@@@std@@@std@@QAEXPAU_Node@?$_List_nod@PAV?$Goal@VAbstRaven_Bot@@@@V?$allocator@PAV?$Goal@VAbstRaven_Bot@@@@@std@@@2@I@Z
_TEXT	SEGMENT
_this$ = -4						; size = 4
__Ptr$ = 8						; size = 4
___formal$ = 12						; size = 4
?deallocate@?$allocator@U_Node@?$_List_nod@PAV?$Goal@VAbstRaven_Bot@@@@V?$allocator@PAV?$Goal@VAbstRaven_Bot@@@@@std@@@std@@@std@@QAEXPAU_Node@?$_List_nod@PAV?$Goal@VAbstRaven_Bot@@@@V?$allocator@PAV?$Goal@VAbstRaven_Bot@@@@@std@@@2@I@Z PROC ; std::allocator<std::_List_nod<Goal<AbstRaven_Bot> *,std::allocator<Goal<AbstRaven_Bot> *> >::_Node>::deallocate, COMDAT
; _this$ = ecx

; 181  : 		{	// deallocate object at _Ptr, ignore size

	push	ebp
	mov	ebp, esp
	push	ecx
	mov	DWORD PTR [ebp-4], -858993460		; ccccccccH
	mov	DWORD PTR _this$[ebp], ecx

; 182  : 		::operator delete(_Ptr);

	mov	eax, DWORD PTR __Ptr$[ebp]
	push	eax
	call	??3@YAXPAX@Z				; operator delete
	add	esp, 4

; 183  : 		}

	add	esp, 4
	cmp	ebp, esp
	call	__RTC_CheckEsp
	mov	esp, ebp
	pop	ebp
	ret	8
?deallocate@?$allocator@U_Node@?$_List_nod@PAV?$Goal@VAbstRaven_Bot@@@@V?$allocator@PAV?$Goal@VAbstRaven_Bot@@@@@std@@@std@@@std@@QAEXPAU_Node@?$_List_nod@PAV?$Goal@VAbstRaven_Bot@@@@V?$allocator@PAV?$Goal@VAbstRaven_Bot@@@@@std@@@2@I@Z ENDP ; std::allocator<std::_List_nod<Goal<AbstRaven_Bot> *,std::allocator<Goal<AbstRaven_Bot> *> >::_Node>::deallocate
_TEXT	ENDS
PUBLIC	??$_Allocate@U_Node@?$_List_nod@PAV?$Goal@VAbstRaven_Bot@@@@V?$allocator@PAV?$Goal@VAbstRaven_Bot@@@@@std@@@std@@@std@@YAPAU_Node@?$_List_nod@PAV?$Goal@VAbstRaven_Bot@@@@V?$allocator@PAV?$Goal@VAbstRaven_Bot@@@@@std@@@0@IPAU120@@Z ; std::_Allocate<std::_List_nod<Goal<AbstRaven_Bot> *,std::allocator<Goal<AbstRaven_Bot> *> >::_Node>
; Function compile flags: /Odtp /RTCsu
;	COMDAT ?allocate@?$allocator@U_Node@?$_List_nod@PAV?$Goal@VAbstRaven_Bot@@@@V?$allocator@PAV?$Goal@VAbstRaven_Bot@@@@@std@@@std@@@std@@QAEPAU_Node@?$_List_nod@PAV?$Goal@VAbstRaven_Bot@@@@V?$allocator@PAV?$Goal@VAbstRaven_Bot@@@@@std@@@2@I@Z
_TEXT	SEGMENT
_this$ = -4						; size = 4
__Count$ = 8						; size = 4
?allocate@?$allocator@U_Node@?$_List_nod@PAV?$Goal@VAbstRaven_Bot@@@@V?$allocator@PAV?$Goal@VAbstRaven_Bot@@@@@std@@@std@@@std@@QAEPAU_Node@?$_List_nod@PAV?$Goal@VAbstRaven_Bot@@@@V?$allocator@PAV?$Goal@VAbstRaven_Bot@@@@@std@@@2@I@Z PROC ; std::allocator<std::_List_nod<Goal<AbstRaven_Bot> *,std::allocator<Goal<AbstRaven_Bot> *> >::_Node>::allocate, COMDAT
; _this$ = ecx

; 186  : 		{	// allocate array of _Count elements

	push	ebp
	mov	ebp, esp
	push	ecx
	mov	DWORD PTR [ebp-4], -858993460		; ccccccccH
	mov	DWORD PTR _this$[ebp], ecx

; 187  : 		return (_Allocate(_Count, (pointer)0));

	push	0
	mov	eax, DWORD PTR __Count$[ebp]
	push	eax
	call	??$_Allocate@U_Node@?$_List_nod@PAV?$Goal@VAbstRaven_Bot@@@@V?$allocator@PAV?$Goal@VAbstRaven_Bot@@@@@std@@@std@@@std@@YAPAU_Node@?$_List_nod@PAV?$Goal@VAbstRaven_Bot@@@@V?$allocator@PAV?$Goal@VAbstRaven_Bot@@@@@std@@@0@IPAU120@@Z ; std::_Allocate<std::_List_nod<Goal<AbstRaven_Bot> *,std::allocator<Goal<AbstRaven_Bot> *> >::_Node>
	add	esp, 8

; 188  : 		}

	add	esp, 4
	cmp	ebp, esp
	call	__RTC_CheckEsp
	mov	esp, ebp
	pop	ebp
	ret	4
?allocate@?$allocator@U_Node@?$_List_nod@PAV?$Goal@VAbstRaven_Bot@@@@V?$allocator@PAV?$Goal@VAbstRaven_Bot@@@@@std@@@std@@@std@@QAEPAU_Node@?$_List_nod@PAV?$Goal@VAbstRaven_Bot@@@@V?$allocator@PAV?$Goal@VAbstRaven_Bot@@@@@std@@@2@I@Z ENDP ; std::allocator<std::_List_nod<Goal<AbstRaven_Bot> *,std::allocator<Goal<AbstRaven_Bot> *> >::_Node>::allocate
_TEXT	ENDS
PUBLIC	?_Clrcont@_Iterator_base12@std@@QAEXXZ		; std::_Iterator_base12::_Clrcont
PUBLIC	?_Getpnext@_Iterator_base12@std@@QAEPAPAU12@XZ	; std::_Iterator_base12::_Getpnext
PUBLIC	?_Getpfirst@_Container_base12@std@@QBEPAPAU_Iterator_base12@2@XZ ; std::_Container_base12::_Getpfirst
;	COMDAT xdata$x
; File c:\program files (x86)\microsoft visual studio 10.0\vc\include\list
xdata$x	SEGMENT
__unwindtable$?_Orphan_ptr@?$list@PAV?$Goal@VAbstRaven_Bot@@@@V?$allocator@PAV?$Goal@VAbstRaven_Bot@@@@@std@@@std@@QBEXAAV12@PAU_Node@?$_List_nod@PAV?$Goal@VAbstRaven_Bot@@@@V?$allocator@PAV?$Goal@VAbstRaven_Bot@@@@@std@@@2@@Z DD 0ffffffffH
	DD	FLAT:__unwindfunclet$?_Orphan_ptr@?$list@PAV?$Goal@VAbstRaven_Bot@@@@V?$allocator@PAV?$Goal@VAbstRaven_Bot@@@@@std@@@std@@QBEXAAV12@PAU_Node@?$_List_nod@PAV?$Goal@VAbstRaven_Bot@@@@V?$allocator@PAV?$Goal@VAbstRaven_Bot@@@@@std@@@2@@Z$0
__ehfuncinfo$?_Orphan_ptr@?$list@PAV?$Goal@VAbstRaven_Bot@@@@V?$allocator@PAV?$Goal@VAbstRaven_Bot@@@@@std@@@std@@QBEXAAV12@PAU_Node@?$_List_nod@PAV?$Goal@VAbstRaven_Bot@@@@V?$allocator@PAV?$Goal@VAbstRaven_Bot@@@@@std@@@2@@Z DD 019930522H
	DD	01H
	DD	FLAT:__unwindtable$?_Orphan_ptr@?$list@PAV?$Goal@VAbstRaven_Bot@@@@V?$allocator@PAV?$Goal@VAbstRaven_Bot@@@@@std@@@std@@QBEXAAV12@PAU_Node@?$_List_nod@PAV?$Goal@VAbstRaven_Bot@@@@V?$allocator@PAV?$Goal@VAbstRaven_Bot@@@@@std@@@2@@Z
	DD	2 DUP(00H)
	DD	2 DUP(00H)
	DD	00H
	DD	01H
; Function compile flags: /Odtp /RTCsu
xdata$x	ENDS
;	COMDAT ?_Orphan_ptr@?$list@PAV?$Goal@VAbstRaven_Bot@@@@V?$allocator@PAV?$Goal@VAbstRaven_Bot@@@@@std@@@std@@QBEXAAV12@PAU_Node@?$_List_nod@PAV?$Goal@VAbstRaven_Bot@@@@V?$allocator@PAV?$Goal@VAbstRaven_Bot@@@@@std@@@2@@Z
_TEXT	SEGMENT
__Pnext$ = -32						; size = 4
__Lock$ = -24						; size = 4
_this$ = -16						; size = 4
__$EHRec$ = -12						; size = 12
__Cont$ = 8						; size = 4
__Ptr$ = 12						; size = 4
?_Orphan_ptr@?$list@PAV?$Goal@VAbstRaven_Bot@@@@V?$allocator@PAV?$Goal@VAbstRaven_Bot@@@@@std@@@std@@QBEXAAV12@PAU_Node@?$_List_nod@PAV?$Goal@VAbstRaven_Bot@@@@V?$allocator@PAV?$Goal@VAbstRaven_Bot@@@@@std@@@2@@Z PROC ; std::list<Goal<AbstRaven_Bot> *,std::allocator<Goal<AbstRaven_Bot> *> >::_Orphan_ptr, COMDAT
; _this$ = ecx

; 1527 : 		{	// orphan iterators with specified node pointers

	push	ebp
	mov	ebp, esp
	push	-1
	push	__ehhandler$?_Orphan_ptr@?$list@PAV?$Goal@VAbstRaven_Bot@@@@V?$allocator@PAV?$Goal@VAbstRaven_Bot@@@@@std@@@std@@QBEXAAV12@PAU_Node@?$_List_nod@PAV?$Goal@VAbstRaven_Bot@@@@V?$allocator@PAV?$Goal@VAbstRaven_Bot@@@@@std@@@2@@Z
	mov	eax, DWORD PTR fs:0
	push	eax
	sub	esp, 20					; 00000014H
	mov	eax, -858993460				; ccccccccH
	mov	DWORD PTR [ebp-32], eax
	mov	DWORD PTR [ebp-28], eax
	mov	DWORD PTR [ebp-24], eax
	mov	DWORD PTR [ebp-20], eax
	mov	DWORD PTR [ebp-16], eax
	mov	eax, DWORD PTR ___security_cookie
	xor	eax, ebp
	push	eax
	lea	eax, DWORD PTR __$EHRec$[ebp]
	mov	DWORD PTR fs:0, eax
	mov	DWORD PTR _this$[ebp], ecx

; 1528 : 		_Lockit _Lock(_LOCK_DEBUG);

	push	3
	lea	ecx, DWORD PTR __Lock$[ebp]
	call	??0_Lockit@std@@QAE@H@Z			; std::_Lockit::_Lockit
	mov	DWORD PTR __$EHRec$[ebp+8], 0

; 1529 : 		const_iterator **_Pnext = (const_iterator **)_Cont._Getpfirst();

	mov	ecx, DWORD PTR __Cont$[ebp]
	call	?_Getpfirst@_Container_base12@std@@QBEPAPAU_Iterator_base12@2@XZ ; std::_Container_base12::_Getpfirst
	mov	DWORD PTR __Pnext$[ebp], eax

; 1530 : 		if (_Pnext != 0)

	cmp	DWORD PTR __Pnext$[ebp], 0
	je	SHORT $LN6@Orphan_ptr
$LN5@Orphan_ptr:

; 1531 : 			while (*_Pnext != 0)

	mov	eax, DWORD PTR __Pnext$[ebp]
	cmp	DWORD PTR [eax], 0
	je	SHORT $LN6@Orphan_ptr

; 1532 : 				if ((*_Pnext)->_Ptr == this->_Myhead
; 1533 : 					|| _Ptr != 0 && (*_Pnext)->_Ptr != _Ptr)

	mov	ecx, DWORD PTR __Pnext$[ebp]
	mov	edx, DWORD PTR [ecx]
	mov	eax, DWORD PTR _this$[ebp]
	mov	ecx, DWORD PTR [edx+8]
	cmp	ecx, DWORD PTR [eax+4]
	je	SHORT $LN2@Orphan_ptr
	cmp	DWORD PTR __Ptr$[ebp], 0
	je	SHORT $LN3@Orphan_ptr
	mov	edx, DWORD PTR __Pnext$[ebp]
	mov	eax, DWORD PTR [edx]
	mov	ecx, DWORD PTR [eax+8]
	cmp	ecx, DWORD PTR __Ptr$[ebp]
	je	SHORT $LN3@Orphan_ptr
$LN2@Orphan_ptr:

; 1534 : 					_Pnext = (const_iterator **)(*_Pnext)->_Getpnext();

	mov	edx, DWORD PTR __Pnext$[ebp]
	mov	ecx, DWORD PTR [edx]
	call	?_Getpnext@_Iterator_base12@std@@QAEPAPAU12@XZ ; std::_Iterator_base12::_Getpnext
	mov	DWORD PTR __Pnext$[ebp], eax

; 1535 : 				else

	jmp	SHORT $LN1@Orphan_ptr
$LN3@Orphan_ptr:

; 1536 : 					{	// orphan the iterator
; 1537 : 					(*_Pnext)->_Clrcont();

	mov	eax, DWORD PTR __Pnext$[ebp]
	mov	ecx, DWORD PTR [eax]
	call	?_Clrcont@_Iterator_base12@std@@QAEXXZ	; std::_Iterator_base12::_Clrcont

; 1538 : 					*_Pnext = *(const_iterator **)(*_Pnext)->_Getpnext();

	mov	ecx, DWORD PTR __Pnext$[ebp]
	mov	ecx, DWORD PTR [ecx]
	call	?_Getpnext@_Iterator_base12@std@@QAEPAPAU12@XZ ; std::_Iterator_base12::_Getpnext
	mov	edx, DWORD PTR __Pnext$[ebp]
	mov	eax, DWORD PTR [eax]
	mov	DWORD PTR [edx], eax
$LN1@Orphan_ptr:

; 1539 : 					}

	jmp	SHORT $LN5@Orphan_ptr
$LN6@Orphan_ptr:

; 1540 : 		}

	mov	DWORD PTR __$EHRec$[ebp+8], -1
	lea	ecx, DWORD PTR __Lock$[ebp]
	call	??1_Lockit@std@@QAE@XZ			; std::_Lockit::~_Lockit
	push	edx
	mov	ecx, ebp
	push	eax
	lea	edx, DWORD PTR $LN13@Orphan_ptr
	call	@_RTC_CheckStackVars@8
	pop	eax
	pop	edx
	mov	ecx, DWORD PTR __$EHRec$[ebp]
	mov	DWORD PTR fs:0, ecx
	pop	ecx
	add	esp, 32					; 00000020H
	cmp	ebp, esp
	call	__RTC_CheckEsp
	mov	esp, ebp
	pop	ebp
	ret	8
$LN13@Orphan_ptr:
	DD	1
	DD	$LN12@Orphan_ptr
$LN12@Orphan_ptr:
	DD	-24					; ffffffe8H
	DD	4
	DD	$LN10@Orphan_ptr
$LN10@Orphan_ptr:
	DB	95					; 0000005fH
	DB	76					; 0000004cH
	DB	111					; 0000006fH
	DB	99					; 00000063H
	DB	107					; 0000006bH
	DB	0
_TEXT	ENDS
;	COMDAT text$x
text$x	SEGMENT
__unwindfunclet$?_Orphan_ptr@?$list@PAV?$Goal@VAbstRaven_Bot@@@@V?$allocator@PAV?$Goal@VAbstRaven_Bot@@@@@std@@@std@@QBEXAAV12@PAU_Node@?$_List_nod@PAV?$Goal@VAbstRaven_Bot@@@@V?$allocator@PAV?$Goal@VAbstRaven_Bot@@@@@std@@@2@@Z$0:
	lea	ecx, DWORD PTR __Lock$[ebp]
	jmp	??1_Lockit@std@@QAE@XZ			; std::_Lockit::~_Lockit
__ehhandler$?_Orphan_ptr@?$list@PAV?$Goal@VAbstRaven_Bot@@@@V?$allocator@PAV?$Goal@VAbstRaven_Bot@@@@@std@@@std@@QBEXAAV12@PAU_Node@?$_List_nod@PAV?$Goal@VAbstRaven_Bot@@@@V?$allocator@PAV?$Goal@VAbstRaven_Bot@@@@@std@@@2@@Z:
	mov	edx, DWORD PTR [esp+8]
	lea	eax, DWORD PTR [edx+12]
	mov	ecx, DWORD PTR [edx-24]
	xor	ecx, eax
	call	@__security_check_cookie@4
	mov	eax, OFFSET __ehfuncinfo$?_Orphan_ptr@?$list@PAV?$Goal@VAbstRaven_Bot@@@@V?$allocator@PAV?$Goal@VAbstRaven_Bot@@@@@std@@@std@@QBEXAAV12@PAU_Node@?$_List_nod@PAV?$Goal@VAbstRaven_Bot@@@@V?$allocator@PAV?$Goal@VAbstRaven_Bot@@@@@std@@@2@@Z
	jmp	___CxxFrameHandler3
text$x	ENDS
?_Orphan_ptr@?$list@PAV?$Goal@VAbstRaven_Bot@@@@V?$allocator@PAV?$Goal@VAbstRaven_Bot@@@@@std@@@std@@QBEXAAV12@PAU_Node@?$_List_nod@PAV?$Goal@VAbstRaven_Bot@@@@V?$allocator@PAV?$Goal@VAbstRaven_Bot@@@@@std@@@2@@Z ENDP ; std::list<Goal<AbstRaven_Bot> *,std::allocator<Goal<AbstRaven_Bot> *> >::_Orphan_ptr
; Function compile flags: /Odtp /RTCsu
; File c:\program files (x86)\microsoft visual studio 10.0\vc\include\xutility
;	COMDAT ?_Getpfirst@_Container_base12@std@@QBEPAPAU_Iterator_base12@2@XZ
_TEXT	SEGMENT
tv66 = -8						; size = 4
_this$ = -4						; size = 4
?_Getpfirst@_Container_base12@std@@QBEPAPAU_Iterator_base12@2@XZ PROC ; std::_Container_base12::_Getpfirst, COMDAT
; _this$ = ecx

; 96   : 		{	// get address of iterator chain

	push	ebp
	mov	ebp, esp
	sub	esp, 8
	mov	DWORD PTR [ebp-8], -858993460		; ccccccccH
	mov	DWORD PTR [ebp-4], -858993460		; ccccccccH
	mov	DWORD PTR _this$[ebp], ecx

; 97   : 		return (_Myproxy == 0 ? 0 : &_Myproxy->_Myfirstiter);

	mov	eax, DWORD PTR _this$[ebp]
	cmp	DWORD PTR [eax], 0
	jne	SHORT $LN3@Getpfirst
	mov	DWORD PTR tv66[ebp], 0
	jmp	SHORT $LN4@Getpfirst
$LN3@Getpfirst:
	mov	ecx, DWORD PTR _this$[ebp]
	mov	edx, DWORD PTR [ecx]
	add	edx, 4
	mov	DWORD PTR tv66[ebp], edx
$LN4@Getpfirst:
	mov	eax, DWORD PTR tv66[ebp]

; 98   : 		}

	mov	esp, ebp
	pop	ebp
	ret	0
?_Getpfirst@_Container_base12@std@@QBEPAPAU_Iterator_base12@2@XZ ENDP ; std::_Container_base12::_Getpfirst
; Function compile flags: /Odtp /RTCsu
_TEXT	ENDS
;	COMDAT ?_Clrcont@_Iterator_base12@std@@QAEXXZ
_TEXT	SEGMENT
_this$ = -4						; size = 4
?_Clrcont@_Iterator_base12@std@@QAEXXZ PROC		; std::_Iterator_base12::_Clrcont, COMDAT
; _this$ = ecx

; 169  : 		{	// disown owning container

	push	ebp
	mov	ebp, esp
	push	ecx
	mov	DWORD PTR [ebp-4], -858993460		; ccccccccH
	mov	DWORD PTR _this$[ebp], ecx

; 170  : 		_Myproxy = 0;

	mov	eax, DWORD PTR _this$[ebp]
	mov	DWORD PTR [eax], 0

; 171  : 		}

	mov	esp, ebp
	pop	ebp
	ret	0
?_Clrcont@_Iterator_base12@std@@QAEXXZ ENDP		; std::_Iterator_base12::_Clrcont
; Function compile flags: /Odtp /RTCsu
_TEXT	ENDS
;	COMDAT ?_Getpnext@_Iterator_base12@std@@QAEPAPAU12@XZ
_TEXT	SEGMENT
_this$ = -4						; size = 4
?_Getpnext@_Iterator_base12@std@@QAEPAPAU12@XZ PROC	; std::_Iterator_base12::_Getpnext, COMDAT
; _this$ = ecx

; 179  : 		{	// get address of remaining iterator chain

	push	ebp
	mov	ebp, esp
	push	ecx
	mov	DWORD PTR [ebp-4], -858993460		; ccccccccH
	mov	DWORD PTR _this$[ebp], ecx

; 180  : 		return (&_Mynextiter);

	mov	eax, DWORD PTR _this$[ebp]
	add	eax, 4

; 181  : 		}

	mov	esp, ebp
	pop	ebp
	ret	0
?_Getpnext@_Iterator_base12@std@@QAEPAPAU12@XZ ENDP	; std::_Iterator_base12::_Getpnext
_TEXT	ENDS
PUBLIC	?isInactive@?$Goal@VAbstRaven_Bot@@@@QBE_NXZ	; Goal<AbstRaven_Bot>::isInactive
; Function compile flags: /Odtp /RTCsu
; File c:\users\teaja\documents\artificial-fun\labravenprojecttest\common\goals\goal.h
;	COMDAT ?ActivateIfInactive@?$Goal@VAbstRaven_Bot@@@@IAEXXZ
_TEXT	SEGMENT
_this$ = -4						; size = 4
?ActivateIfInactive@?$Goal@VAbstRaven_Bot@@@@IAEXXZ PROC ; Goal<AbstRaven_Bot>::ActivateIfInactive, COMDAT
; _this$ = ecx

; 114  : {

	push	ebp
	mov	ebp, esp
	push	ecx
	push	esi
	mov	DWORD PTR [ebp-4], -858993460		; ccccccccH
	mov	DWORD PTR _this$[ebp], ecx

; 115  :   if (isInactive())

	mov	ecx, DWORD PTR _this$[ebp]
	call	?isInactive@?$Goal@VAbstRaven_Bot@@@@QBE_NXZ ; Goal<AbstRaven_Bot>::isInactive
	movzx	eax, al
	test	eax, eax
	je	SHORT $LN2@ActivateIf

; 116  :   {
; 117  :     Activate();   

	mov	ecx, DWORD PTR _this$[ebp]
	mov	edx, DWORD PTR [ecx]
	mov	esi, esp
	mov	ecx, DWORD PTR _this$[ebp]
	mov	eax, DWORD PTR [edx+4]
	call	eax
	cmp	esi, esp
	call	__RTC_CheckEsp
$LN2@ActivateIf:

; 118  :   }
; 119  : }

	pop	esi
	add	esp, 4
	cmp	ebp, esp
	call	__RTC_CheckEsp
	mov	esp, ebp
	pop	ebp
	ret	0
?ActivateIfInactive@?$Goal@VAbstRaven_Bot@@@@IAEXXZ ENDP ; Goal<AbstRaven_Bot>::ActivateIfInactive
_TEXT	ENDS
PUBLIC	??1?$basic_string@DU?$char_traits@D@std@@V?$allocator@D@2@@std@@QAE@XZ ; std::basic_string<char,std::char_traits<char>,std::allocator<char> >::~basic_string<char,std::char_traits<char>,std::allocator<char> >
PUBLIC	?TextAtPos@Cgdi@@QAEXNNABV?$basic_string@DU?$char_traits@D@std@@V?$allocator@D@2@@std@@@Z ; Cgdi::TextAtPos
PUBLIC	?GetType@?$Goal@VAbstRaven_Bot@@@@QBEHXZ	; Goal<AbstRaven_Bot>::GetType
PUBLIC	?isActive@?$Goal@VAbstRaven_Bot@@@@QBE_NXZ	; Goal<AbstRaven_Bot>::isActive
PUBLIC	?hasFailed@?$Goal@VAbstRaven_Bot@@@@QBE_NXZ	; Goal<AbstRaven_Bot>::hasFailed
PUBLIC	?TextColor@Cgdi@@QAEXHHH@Z			; Cgdi::TextColor
PUBLIC	?isComplete@?$Goal@VAbstRaven_Bot@@@@QBE_NXZ	; Goal<AbstRaven_Bot>::isComplete
PUBLIC	?TransparentText@Cgdi@@QAEXXZ			; Cgdi::TransparentText
PUBLIC	__real@402e000000000000
PUBLIC	__$ArrayPad$
EXTRN	?Instance@Cgdi@@SAPAV1@XZ:PROC			; Cgdi::Instance
;	COMDAT __real@402e000000000000
CONST	SEGMENT
__real@402e000000000000 DQ 0402e000000000000r	; 15
CONST	ENDS
;	COMDAT xdata$x
xdata$x	SEGMENT
__unwindtable$?RenderAtPos@?$Goal@VAbstRaven_Bot@@@@UBEXAAUVector2D@@PAVTypeToString@@@Z DD 0ffffffffH
	DD	FLAT:__unwindfunclet$?RenderAtPos@?$Goal@VAbstRaven_Bot@@@@UBEXAAUVector2D@@PAVTypeToString@@@Z$0
__ehfuncinfo$?RenderAtPos@?$Goal@VAbstRaven_Bot@@@@UBEXAAUVector2D@@PAVTypeToString@@@Z DD 019930522H
	DD	01H
	DD	FLAT:__unwindtable$?RenderAtPos@?$Goal@VAbstRaven_Bot@@@@UBEXAAUVector2D@@PAVTypeToString@@@Z
	DD	2 DUP(00H)
	DD	2 DUP(00H)
	DD	00H
	DD	01H
; Function compile flags: /Odtp /RTCsu
xdata$x	ENDS
;	COMDAT ?RenderAtPos@?$Goal@VAbstRaven_Bot@@@@UBEXAAUVector2D@@PAVTypeToString@@@Z
_TEXT	SEGMENT
tv154 = -60						; size = 4
tv155 = -56						; size = 4
$T135996 = -52						; size = 32
_this$ = -20						; size = 4
__$ArrayPad$ = -16					; size = 4
__$EHRec$ = -12						; size = 12
_pos$ = 8						; size = 4
_tts$ = 12						; size = 4
?RenderAtPos@?$Goal@VAbstRaven_Bot@@@@UBEXAAUVector2D@@PAVTypeToString@@@Z PROC ; Goal<AbstRaven_Bot>::RenderAtPos, COMDAT
; _this$ = ecx

; 123  : {

	push	ebp
	mov	ebp, esp
	push	-1
	push	__ehhandler$?RenderAtPos@?$Goal@VAbstRaven_Bot@@@@UBEXAAUVector2D@@PAVTypeToString@@@Z
	mov	eax, DWORD PTR fs:0
	push	eax
	sub	esp, 48					; 00000030H
	push	esi
	push	edi
	push	ecx
	lea	edi, DWORD PTR [ebp-60]
	mov	ecx, 12					; 0000000cH
	mov	eax, -858993460				; ccccccccH
	rep stosd
	pop	ecx
	mov	eax, DWORD PTR ___security_cookie
	xor	eax, ebp
	mov	DWORD PTR __$ArrayPad$[ebp], eax
	push	eax
	lea	eax, DWORD PTR __$EHRec$[ebp]
	mov	DWORD PTR fs:0, eax
	mov	DWORD PTR _this$[ebp], ecx

; 124  :   pos.y += 15;

	mov	eax, DWORD PTR _pos$[ebp]
	fld	QWORD PTR [eax+8]
	fadd	QWORD PTR __real@402e000000000000
	mov	ecx, DWORD PTR _pos$[ebp]
	fstp	QWORD PTR [ecx+8]

; 125  :   gdi->TransparentText();

	call	?Instance@Cgdi@@SAPAV1@XZ		; Cgdi::Instance
	mov	ecx, eax
	call	?TransparentText@Cgdi@@QAEXXZ		; Cgdi::TransparentText

; 126  :   if (isComplete()) gdi->TextColor(0,255,0);

	mov	ecx, DWORD PTR _this$[ebp]
	call	?isComplete@?$Goal@VAbstRaven_Bot@@@@QBE_NXZ ; Goal<AbstRaven_Bot>::isComplete
	movzx	edx, al
	test	edx, edx
	je	SHORT $LN4@RenderAtPo
	push	0
	push	255					; 000000ffH
	push	0
	call	?Instance@Cgdi@@SAPAV1@XZ		; Cgdi::Instance
	mov	ecx, eax
	call	?TextColor@Cgdi@@QAEXHHH@Z		; Cgdi::TextColor
$LN4@RenderAtPo:

; 127  :   if (isInactive()) gdi->TextColor(0,0,0);

	mov	ecx, DWORD PTR _this$[ebp]
	call	?isInactive@?$Goal@VAbstRaven_Bot@@@@QBE_NXZ ; Goal<AbstRaven_Bot>::isInactive
	movzx	eax, al
	test	eax, eax
	je	SHORT $LN3@RenderAtPo
	push	0
	push	0
	push	0
	call	?Instance@Cgdi@@SAPAV1@XZ		; Cgdi::Instance
	mov	ecx, eax
	call	?TextColor@Cgdi@@QAEXHHH@Z		; Cgdi::TextColor
$LN3@RenderAtPo:

; 128  :   if (hasFailed()) gdi->TextColor(255,0,0);

	mov	ecx, DWORD PTR _this$[ebp]
	call	?hasFailed@?$Goal@VAbstRaven_Bot@@@@QBE_NXZ ; Goal<AbstRaven_Bot>::hasFailed
	movzx	ecx, al
	test	ecx, ecx
	je	SHORT $LN2@RenderAtPo
	push	0
	push	0
	push	255					; 000000ffH
	call	?Instance@Cgdi@@SAPAV1@XZ		; Cgdi::Instance
	mov	ecx, eax
	call	?TextColor@Cgdi@@QAEXHHH@Z		; Cgdi::TextColor
$LN2@RenderAtPo:

; 129  :   if (isActive()) gdi->TextColor(0,0,255);

	mov	ecx, DWORD PTR _this$[ebp]
	call	?isActive@?$Goal@VAbstRaven_Bot@@@@QBE_NXZ ; Goal<AbstRaven_Bot>::isActive
	movzx	edx, al
	test	edx, edx
	je	SHORT $LN1@RenderAtPo
	push	255					; 000000ffH
	push	0
	push	0
	call	?Instance@Cgdi@@SAPAV1@XZ		; Cgdi::Instance
	mov	ecx, eax
	call	?TextColor@Cgdi@@QAEXHHH@Z		; Cgdi::TextColor
$LN1@RenderAtPo:

; 130  : 
; 131  :   gdi->TextAtPos(pos.x, pos.y, tts->Convert(GetType())); 

	mov	ecx, DWORD PTR _this$[ebp]
	call	?GetType@?$Goal@VAbstRaven_Bot@@@@QBEHXZ ; Goal<AbstRaven_Bot>::GetType
	mov	esi, esp
	push	eax
	lea	eax, DWORD PTR $T135996[ebp]
	push	eax
	mov	ecx, DWORD PTR _tts$[ebp]
	mov	edx, DWORD PTR [ecx]
	mov	ecx, DWORD PTR _tts$[ebp]
	mov	eax, DWORD PTR [edx]
	call	eax
	cmp	esi, esp
	call	__RTC_CheckEsp
	mov	DWORD PTR tv155[ebp], eax
	mov	ecx, DWORD PTR tv155[ebp]
	mov	DWORD PTR tv154[ebp], ecx
	mov	DWORD PTR __$EHRec$[ebp+8], 0
	mov	edx, DWORD PTR tv154[ebp]
	push	edx
	mov	eax, DWORD PTR _pos$[ebp]
	sub	esp, 8
	fld	QWORD PTR [eax+8]
	fstp	QWORD PTR [esp]
	mov	ecx, DWORD PTR _pos$[ebp]
	sub	esp, 8
	fld	QWORD PTR [ecx]
	fstp	QWORD PTR [esp]
	call	?Instance@Cgdi@@SAPAV1@XZ		; Cgdi::Instance
	mov	ecx, eax
	call	?TextAtPos@Cgdi@@QAEXNNABV?$basic_string@DU?$char_traits@D@std@@V?$allocator@D@2@@std@@@Z ; Cgdi::TextAtPos
	mov	DWORD PTR __$EHRec$[ebp+8], -1
	lea	ecx, DWORD PTR $T135996[ebp]
	call	??1?$basic_string@DU?$char_traits@D@std@@V?$allocator@D@2@@std@@QAE@XZ ; std::basic_string<char,std::char_traits<char>,std::allocator<char> >::~basic_string<char,std::char_traits<char>,std::allocator<char> >

; 132  : }

	mov	ecx, DWORD PTR __$EHRec$[ebp]
	mov	DWORD PTR fs:0, ecx
	pop	ecx
	pop	edi
	pop	esi
	mov	ecx, DWORD PTR __$ArrayPad$[ebp]
	xor	ecx, ebp
	call	@__security_check_cookie@4
	add	esp, 60					; 0000003cH
	cmp	ebp, esp
	call	__RTC_CheckEsp
	mov	esp, ebp
	pop	ebp
	ret	8
_TEXT	ENDS
;	COMDAT text$x
text$x	SEGMENT
__unwindfunclet$?RenderAtPos@?$Goal@VAbstRaven_Bot@@@@UBEXAAUVector2D@@PAVTypeToString@@@Z$0:
	lea	ecx, DWORD PTR $T135996[ebp]
	jmp	??1?$basic_string@DU?$char_traits@D@std@@V?$allocator@D@2@@std@@QAE@XZ ; std::basic_string<char,std::char_traits<char>,std::allocator<char> >::~basic_string<char,std::char_traits<char>,std::allocator<char> >
__ehhandler$?RenderAtPos@?$Goal@VAbstRaven_Bot@@@@UBEXAAUVector2D@@PAVTypeToString@@@Z:
	mov	edx, DWORD PTR [esp+8]
	lea	eax, DWORD PTR [edx+12]
	mov	ecx, DWORD PTR [edx-60]
	xor	ecx, eax
	call	@__security_check_cookie@4
	mov	ecx, DWORD PTR [edx-4]
	xor	ecx, eax
	call	@__security_check_cookie@4
	mov	eax, OFFSET __ehfuncinfo$?RenderAtPos@?$Goal@VAbstRaven_Bot@@@@UBEXAAUVector2D@@PAVTypeToString@@@Z
	jmp	___CxxFrameHandler3
text$x	ENDS
?RenderAtPos@?$Goal@VAbstRaven_Bot@@@@UBEXAAUVector2D@@PAVTypeToString@@@Z ENDP ; Goal<AbstRaven_Bot>::RenderAtPos
PUBLIC	?c_str@?$basic_string@DU?$char_traits@D@std@@V?$allocator@D@2@@std@@QBEPBDXZ ; std::basic_string<char,std::char_traits<char>,std::allocator<char> >::c_str
PUBLIC	?size@?$basic_string@DU?$char_traits@D@std@@V?$allocator@D@2@@std@@QBEIXZ ; std::basic_string<char,std::char_traits<char>,std::allocator<char> >::size
EXTRN	__imp__TextOutA@20:PROC
EXTRN	__ftol2_sse:PROC
; Function compile flags: /Odtp /RTCsu
; File c:\users\teaja\documents\artificial-fun\labravenprojecttest\common\misc\cgdi.h
;	COMDAT ?TextAtPos@Cgdi@@QAEXNNABV?$basic_string@DU?$char_traits@D@std@@V?$allocator@D@2@@std@@@Z
_TEXT	SEGMENT
_this$ = -4						; size = 4
_x$ = 8							; size = 8
_y$ = 16						; size = 8
_s$ = 24						; size = 4
?TextAtPos@Cgdi@@QAEXNNABV?$basic_string@DU?$char_traits@D@std@@V?$allocator@D@2@@std@@@Z PROC ; Cgdi::TextAtPos, COMDAT
; _this$ = ecx

; 213  :   {

	push	ebp
	mov	ebp, esp
	push	ecx
	push	esi
	mov	DWORD PTR [ebp-4], -858993460		; ccccccccH
	mov	DWORD PTR _this$[ebp], ecx

; 214  :     TextOut(m_hdc, (int)x, (int)y, s.c_str(), (int)s.size());

	mov	ecx, DWORD PTR _s$[ebp]
	call	?size@?$basic_string@DU?$char_traits@D@std@@V?$allocator@D@2@@std@@QBEIXZ ; std::basic_string<char,std::char_traits<char>,std::allocator<char> >::size
	mov	esi, esp
	push	eax
	mov	ecx, DWORD PTR _s$[ebp]
	call	?c_str@?$basic_string@DU?$char_traits@D@std@@V?$allocator@D@2@@std@@QBEPBDXZ ; std::basic_string<char,std::char_traits<char>,std::allocator<char> >::c_str
	push	eax
	fld	QWORD PTR _y$[ebp]
	call	__ftol2_sse
	push	eax
	fld	QWORD PTR _x$[ebp]
	call	__ftol2_sse
	push	eax
	mov	eax, DWORD PTR _this$[ebp]
	mov	ecx, DWORD PTR [eax+124]
	push	ecx
	call	DWORD PTR __imp__TextOutA@20
	cmp	esi, esp
	call	__RTC_CheckEsp

; 215  :   }

	pop	esi
	add	esp, 4
	cmp	ebp, esp
	call	__RTC_CheckEsp
	mov	esp, ebp
	pop	ebp
	ret	20					; 00000014H
?TextAtPos@Cgdi@@QAEXNNABV?$basic_string@DU?$char_traits@D@std@@V?$allocator@D@2@@std@@@Z ENDP ; Cgdi::TextAtPos
_TEXT	ENDS
EXTRN	__imp__SetBkMode@8:PROC
; Function compile flags: /Odtp /RTCsu
;	COMDAT ?TransparentText@Cgdi@@QAEXXZ
_TEXT	SEGMENT
_this$ = -4						; size = 4
?TransparentText@Cgdi@@QAEXXZ PROC			; Cgdi::TransparentText, COMDAT
; _this$ = ecx

; 222  :   void TransparentText(){SetBkMode(m_hdc, TRANSPARENT);}

	push	ebp
	mov	ebp, esp
	push	ecx
	push	esi
	mov	DWORD PTR [ebp-4], -858993460		; ccccccccH
	mov	DWORD PTR _this$[ebp], ecx
	mov	esi, esp
	push	1
	mov	eax, DWORD PTR _this$[ebp]
	mov	ecx, DWORD PTR [eax+124]
	push	ecx
	call	DWORD PTR __imp__SetBkMode@8
	cmp	esi, esp
	call	__RTC_CheckEsp
	pop	esi
	add	esp, 4
	cmp	ebp, esp
	call	__RTC_CheckEsp
	mov	esp, ebp
	pop	ebp
	ret	0
?TransparentText@Cgdi@@QAEXXZ ENDP			; Cgdi::TransparentText
_TEXT	ENDS
EXTRN	__imp__SetTextColor@8:PROC
; Function compile flags: /Odtp /RTCsu
;	COMDAT ?TextColor@Cgdi@@QAEXHHH@Z
_TEXT	SEGMENT
_this$ = -4						; size = 4
_r$ = 8							; size = 4
_g$ = 12						; size = 4
_b$ = 16						; size = 4
?TextColor@Cgdi@@QAEXHHH@Z PROC				; Cgdi::TextColor, COMDAT
; _this$ = ecx

; 227  :   void TextColor(int r, int g, int b){SetTextColor(m_hdc, RGB(r,g,b));}

	push	ebp
	mov	ebp, esp
	push	ecx
	push	esi
	mov	DWORD PTR [ebp-4], -858993460		; ccccccccH
	mov	DWORD PTR _this$[ebp], ecx
	movzx	eax, BYTE PTR _r$[ebp]
	movzx	ecx, BYTE PTR _g$[ebp]
	shl	ecx, 8
	or	eax, ecx
	movzx	edx, BYTE PTR _b$[ebp]
	shl	edx, 16					; 00000010H
	or	eax, edx
	mov	esi, esp
	push	eax
	mov	eax, DWORD PTR _this$[ebp]
	mov	ecx, DWORD PTR [eax+124]
	push	ecx
	call	DWORD PTR __imp__SetTextColor@8
	cmp	esi, esp
	call	__RTC_CheckEsp
	pop	esi
	add	esp, 4
	cmp	ebp, esp
	call	__RTC_CheckEsp
	mov	esp, ebp
	pop	ebp
	ret	12					; 0000000cH
?TextColor@Cgdi@@QAEXHHH@Z ENDP				; Cgdi::TextColor
_TEXT	ENDS
PUBLIC	??1?$_String_val@DV?$allocator@D@std@@@std@@QAE@XZ ; std::_String_val<char,std::allocator<char> >::~_String_val<char,std::allocator<char> >
PUBLIC	?_Tidy@?$basic_string@DU?$char_traits@D@std@@V?$allocator@D@2@@std@@QAEX_NI@Z ; std::basic_string<char,std::char_traits<char>,std::allocator<char> >::_Tidy
;	COMDAT xdata$x
; File c:\program files (x86)\microsoft visual studio 10.0\vc\include\xstring
xdata$x	SEGMENT
__unwindtable$??1?$basic_string@DU?$char_traits@D@std@@V?$allocator@D@2@@std@@QAE@XZ DD 0ffffffffH
	DD	FLAT:__unwindfunclet$??1?$basic_string@DU?$char_traits@D@std@@V?$allocator@D@2@@std@@QAE@XZ$0
__ehfuncinfo$??1?$basic_string@DU?$char_traits@D@std@@V?$allocator@D@2@@std@@QAE@XZ DD 019930522H
	DD	01H
	DD	FLAT:__unwindtable$??1?$basic_string@DU?$char_traits@D@std@@V?$allocator@D@2@@std@@QAE@XZ
	DD	2 DUP(00H)
	DD	2 DUP(00H)
	DD	00H
	DD	01H
; Function compile flags: /Odtp /RTCsu
xdata$x	ENDS
;	COMDAT ??1?$basic_string@DU?$char_traits@D@std@@V?$allocator@D@2@@std@@QAE@XZ
_TEXT	SEGMENT
_this$ = -16						; size = 4
__$EHRec$ = -12						; size = 12
??1?$basic_string@DU?$char_traits@D@std@@V?$allocator@D@2@@std@@QAE@XZ PROC ; std::basic_string<char,std::char_traits<char>,std::allocator<char> >::~basic_string<char,std::char_traits<char>,std::allocator<char> >, COMDAT
; _this$ = ecx

; 752  : 		{	// destroy the string

	push	ebp
	mov	ebp, esp
	push	-1
	push	__ehhandler$??1?$basic_string@DU?$char_traits@D@std@@V?$allocator@D@2@@std@@QAE@XZ
	mov	eax, DWORD PTR fs:0
	push	eax
	push	ecx
	mov	DWORD PTR [ebp-16], -858993460		; ccccccccH
	mov	eax, DWORD PTR ___security_cookie
	xor	eax, ebp
	push	eax
	lea	eax, DWORD PTR __$EHRec$[ebp]
	mov	DWORD PTR fs:0, eax
	mov	DWORD PTR _this$[ebp], ecx
	mov	DWORD PTR __$EHRec$[ebp+8], 0

; 753  : 		_Tidy(true);

	push	0
	push	1
	mov	ecx, DWORD PTR _this$[ebp]
	call	?_Tidy@?$basic_string@DU?$char_traits@D@std@@V?$allocator@D@2@@std@@QAEX_NI@Z ; std::basic_string<char,std::char_traits<char>,std::allocator<char> >::_Tidy

; 754  : 		}

	mov	DWORD PTR __$EHRec$[ebp+8], -1
	mov	ecx, DWORD PTR _this$[ebp]
	call	??1?$_String_val@DV?$allocator@D@std@@@std@@QAE@XZ ; std::_String_val<char,std::allocator<char> >::~_String_val<char,std::allocator<char> >
	mov	ecx, DWORD PTR __$EHRec$[ebp]
	mov	DWORD PTR fs:0, ecx
	pop	ecx
	add	esp, 16					; 00000010H
	cmp	ebp, esp
	call	__RTC_CheckEsp
	mov	esp, ebp
	pop	ebp
	ret	0
_TEXT	ENDS
;	COMDAT text$x
text$x	SEGMENT
__unwindfunclet$??1?$basic_string@DU?$char_traits@D@std@@V?$allocator@D@2@@std@@QAE@XZ$0:
	mov	ecx, DWORD PTR _this$[ebp]
	jmp	??1?$_String_val@DV?$allocator@D@std@@@std@@QAE@XZ ; std::_String_val<char,std::allocator<char> >::~_String_val<char,std::allocator<char> >
__ehhandler$??1?$basic_string@DU?$char_traits@D@std@@V?$allocator@D@2@@std@@QAE@XZ:
	mov	edx, DWORD PTR [esp+8]
	lea	eax, DWORD PTR [edx+12]
	mov	ecx, DWORD PTR [edx-8]
	xor	ecx, eax
	call	@__security_check_cookie@4
	mov	eax, OFFSET __ehfuncinfo$??1?$basic_string@DU?$char_traits@D@std@@V?$allocator@D@2@@std@@QAE@XZ
	jmp	___CxxFrameHandler3
text$x	ENDS
??1?$basic_string@DU?$char_traits@D@std@@V?$allocator@D@2@@std@@QAE@XZ ENDP ; std::basic_string<char,std::char_traits<char>,std::allocator<char> >::~basic_string<char,std::char_traits<char>,std::allocator<char> >
PUBLIC	?_Myptr@?$basic_string@DU?$char_traits@D@std@@V?$allocator@D@2@@std@@QBEPBDXZ ; std::basic_string<char,std::char_traits<char>,std::allocator<char> >::_Myptr
; Function compile flags: /Odtp /RTCsu
;	COMDAT ?c_str@?$basic_string@DU?$char_traits@D@std@@V?$allocator@D@2@@std@@QBEPBDXZ
_TEXT	SEGMENT
_this$ = -4						; size = 4
?c_str@?$basic_string@DU?$char_traits@D@std@@V?$allocator@D@2@@std@@QBEPBDXZ PROC ; std::basic_string<char,std::char_traits<char>,std::allocator<char> >::c_str, COMDAT
; _this$ = ecx

; 1495 : 		{	// return pointer to null-terminated nonmutable array

	push	ebp
	mov	ebp, esp
	push	ecx
	mov	DWORD PTR [ebp-4], -858993460		; ccccccccH
	mov	DWORD PTR _this$[ebp], ecx

; 1496 : 		return (_Myptr());

	mov	ecx, DWORD PTR _this$[ebp]
	call	?_Myptr@?$basic_string@DU?$char_traits@D@std@@V?$allocator@D@2@@std@@QBEPBDXZ ; std::basic_string<char,std::char_traits<char>,std::allocator<char> >::_Myptr

; 1497 : 		}

	add	esp, 4
	cmp	ebp, esp
	call	__RTC_CheckEsp
	mov	esp, ebp
	pop	ebp
	ret	0
?c_str@?$basic_string@DU?$char_traits@D@std@@V?$allocator@D@2@@std@@QBEPBDXZ ENDP ; std::basic_string<char,std::char_traits<char>,std::allocator<char> >::c_str
; Function compile flags: /Odtp /RTCsu
_TEXT	ENDS
;	COMDAT ?size@?$basic_string@DU?$char_traits@D@std@@V?$allocator@D@2@@std@@QBEIXZ
_TEXT	SEGMENT
_this$ = -4						; size = 4
?size@?$basic_string@DU?$char_traits@D@std@@V?$allocator@D@2@@std@@QBEIXZ PROC ; std::basic_string<char,std::char_traits<char>,std::allocator<char> >::size, COMDAT
; _this$ = ecx

; 1510 : 		{	// return length of sequence

	push	ebp
	mov	ebp, esp
	push	ecx
	mov	DWORD PTR [ebp-4], -858993460		; ccccccccH
	mov	DWORD PTR _this$[ebp], ecx

; 1511 : 		return (this->_Mysize);

	mov	eax, DWORD PTR _this$[ebp]
	mov	eax, DWORD PTR [eax+20]

; 1512 : 		}

	mov	esp, ebp
	pop	ebp
	ret	0
?size@?$basic_string@DU?$char_traits@D@std@@V?$allocator@D@2@@std@@QBEIXZ ENDP ; std::basic_string<char,std::char_traits<char>,std::allocator<char> >::size
_TEXT	ENDS
PUBLIC	?_Eos@?$basic_string@DU?$char_traits@D@std@@V?$allocator@D@2@@std@@QAEXI@Z ; std::basic_string<char,std::char_traits<char>,std::allocator<char> >::_Eos
PUBLIC	?deallocate@?$allocator@D@std@@QAEXPADI@Z	; std::allocator<char>::deallocate
PUBLIC	?copy@?$char_traits@D@std@@SAPADPADPBDI@Z	; std::char_traits<char>::copy
; Function compile flags: /Odtp /RTCsu
;	COMDAT ?_Tidy@?$basic_string@DU?$char_traits@D@std@@V?$allocator@D@2@@std@@QAEX_NI@Z
_TEXT	SEGMENT
__Ptr$133978 = -8					; size = 4
_this$ = -4						; size = 4
__Built$ = 8						; size = 1
__Newsize$ = 12						; size = 4
?_Tidy@?$basic_string@DU?$char_traits@D@std@@V?$allocator@D@2@@std@@QAEX_NI@Z PROC ; std::basic_string<char,std::char_traits<char>,std::allocator<char> >::_Tidy, COMDAT
; _this$ = ecx

; 1987 : 		{	// initialize buffer, deallocating any storage

	push	ebp
	mov	ebp, esp
	sub	esp, 8
	mov	DWORD PTR [ebp-8], -858993460		; ccccccccH
	mov	DWORD PTR [ebp-4], -858993460		; ccccccccH
	mov	DWORD PTR _this$[ebp], ecx

; 1988 : 		if (!_Built)

	movzx	eax, BYTE PTR __Built$[ebp]
	test	eax, eax
	jne	SHORT $LN4@Tidy
	jmp	SHORT $LN3@Tidy
$LN4@Tidy:

; 1989 : 			;
; 1990 : 		else if (this->_BUF_SIZE <= this->_Myres)

	mov	ecx, DWORD PTR _this$[ebp]
	cmp	DWORD PTR [ecx+24], 16			; 00000010H
	jb	SHORT $LN3@Tidy

; 1991 : 			{	// copy any leftovers to small buffer and deallocate
; 1992 : 			_Elem *_Ptr = this->_Bx._Ptr;

	mov	edx, DWORD PTR _this$[ebp]
	mov	eax, DWORD PTR [edx+4]
	mov	DWORD PTR __Ptr$133978[ebp], eax

; 1993 : 			if (0 < _Newsize)

	cmp	DWORD PTR __Newsize$[ebp], 0
	jbe	SHORT $LN1@Tidy

; 1994 : 				_Traits::copy(this->_Bx._Buf, _Ptr, _Newsize);

	mov	ecx, DWORD PTR __Newsize$[ebp]
	push	ecx
	mov	edx, DWORD PTR __Ptr$133978[ebp]
	push	edx
	mov	eax, DWORD PTR _this$[ebp]
	add	eax, 4
	push	eax
	call	?copy@?$char_traits@D@std@@SAPADPADPBDI@Z ; std::char_traits<char>::copy
	add	esp, 12					; 0000000cH
$LN1@Tidy:

; 1995 : 			this->_Alval.deallocate(_Ptr, this->_Myres + 1);

	mov	ecx, DWORD PTR _this$[ebp]
	mov	edx, DWORD PTR [ecx+24]
	add	edx, 1
	push	edx
	mov	eax, DWORD PTR __Ptr$133978[ebp]
	push	eax
	mov	ecx, DWORD PTR _this$[ebp]
	add	ecx, 28					; 0000001cH
	call	?deallocate@?$allocator@D@std@@QAEXPADI@Z ; std::allocator<char>::deallocate
$LN3@Tidy:

; 1996 : 			}
; 1997 : 		this->_Myres = this->_BUF_SIZE - 1;

	mov	ecx, DWORD PTR _this$[ebp]
	mov	DWORD PTR [ecx+24], 15			; 0000000fH

; 1998 : 		_Eos(_Newsize);

	mov	edx, DWORD PTR __Newsize$[ebp]
	push	edx
	mov	ecx, DWORD PTR _this$[ebp]
	call	?_Eos@?$basic_string@DU?$char_traits@D@std@@V?$allocator@D@2@@std@@QAEXI@Z ; std::basic_string<char,std::char_traits<char>,std::allocator<char> >::_Eos

; 1999 : 		}

	add	esp, 8
	cmp	ebp, esp
	call	__RTC_CheckEsp
	mov	esp, ebp
	pop	ebp
	ret	8
?_Tidy@?$basic_string@DU?$char_traits@D@std@@V?$allocator@D@2@@std@@QAEX_NI@Z ENDP ; std::basic_string<char,std::char_traits<char>,std::allocator<char> >::_Tidy
_TEXT	ENDS
EXTRN	_memcpy:PROC
; Function compile flags: /Odtp /RTCsu
; File c:\program files (x86)\microsoft visual studio 10.0\vc\include\iosfwd
;	COMDAT ?copy@?$char_traits@D@std@@SAPADPADPBDI@Z
_TEXT	SEGMENT
__First1$ = 8						; size = 4
__First2$ = 12						; size = 4
__Count$ = 16						; size = 4
?copy@?$char_traits@D@std@@SAPADPADPBDI@Z PROC		; std::char_traits<char>::copy, COMDAT

; 496  : 		{	// copy [_First1, _First1 + _Count) to [_First2, ...)

	push	ebp
	mov	ebp, esp

; 497  : 		return ((_Elem *)_CSTD memcpy(_First1, _First2, _Count));

	mov	eax, DWORD PTR __Count$[ebp]
	push	eax
	mov	ecx, DWORD PTR __First2$[ebp]
	push	ecx
	mov	edx, DWORD PTR __First1$[ebp]
	push	edx
	call	_memcpy
	add	esp, 12					; 0000000cH

; 498  : 		}

	cmp	ebp, esp
	call	__RTC_CheckEsp
	pop	ebp
	ret	0
?copy@?$char_traits@D@std@@SAPADPADPBDI@Z ENDP		; std::char_traits<char>::copy
; Function compile flags: /Odtp /RTCsu
; File c:\program files (x86)\microsoft visual studio 10.0\vc\include\xstring
_TEXT	ENDS
;	COMDAT ?_Myptr@?$basic_string@DU?$char_traits@D@std@@V?$allocator@D@2@@std@@QBEPBDXZ
_TEXT	SEGMENT
tv82 = -8						; size = 4
_this$ = -4						; size = 4
?_Myptr@?$basic_string@DU?$char_traits@D@std@@V?$allocator@D@2@@std@@QBEPBDXZ PROC ; std::basic_string<char,std::char_traits<char>,std::allocator<char> >::_Myptr, COMDAT
; _this$ = ecx

; 2008 : 		{	// determine current pointer to buffer for nonmutable string

	push	ebp
	mov	ebp, esp
	sub	esp, 8
	mov	DWORD PTR [ebp-8], -858993460		; ccccccccH
	mov	DWORD PTR [ebp-4], -858993460		; ccccccccH
	mov	DWORD PTR _this$[ebp], ecx

; 2009 : 		return (this->_BUF_SIZE <= this->_Myres ? this->_Bx._Ptr
; 2010 : 			: this->_Bx._Buf);

	mov	eax, DWORD PTR _this$[ebp]
	cmp	DWORD PTR [eax+24], 16			; 00000010H
	jb	SHORT $LN3@Myptr
	mov	ecx, DWORD PTR _this$[ebp]
	mov	edx, DWORD PTR [ecx+4]
	mov	DWORD PTR tv82[ebp], edx
	jmp	SHORT $LN4@Myptr
$LN3@Myptr:
	mov	eax, DWORD PTR _this$[ebp]
	add	eax, 4
	mov	DWORD PTR tv82[ebp], eax
$LN4@Myptr:
	mov	eax, DWORD PTR tv82[ebp]

; 2011 : 		}

	mov	esp, ebp
	pop	ebp
	ret	0
?_Myptr@?$basic_string@DU?$char_traits@D@std@@V?$allocator@D@2@@std@@QBEPBDXZ ENDP ; std::basic_string<char,std::char_traits<char>,std::allocator<char> >::_Myptr
_TEXT	ENDS
PUBLIC	??$?0D@?$allocator@U_Container_proxy@std@@@std@@QAE@ABV?$allocator@D@1@@Z ; std::allocator<std::_Container_proxy>::allocator<std::_Container_proxy><char>
;	COMDAT xdata$x
xdata$x	SEGMENT
__unwindtable$??1?$_String_val@DV?$allocator@D@std@@@std@@QAE@XZ DD 0ffffffffH
	DD	FLAT:__unwindfunclet$??1?$_String_val@DV?$allocator@D@std@@@std@@QAE@XZ$0
__ehfuncinfo$??1?$_String_val@DV?$allocator@D@std@@@std@@QAE@XZ DD 019930522H
	DD	01H
	DD	FLAT:__unwindtable$??1?$_String_val@DV?$allocator@D@std@@@std@@QAE@XZ
	DD	2 DUP(00H)
	DD	2 DUP(00H)
	DD	00H
	DD	01H
; Function compile flags: /Odtp /RTCsu
xdata$x	ENDS
;	COMDAT ??1?$_String_val@DV?$allocator@D@std@@@std@@QAE@XZ
_TEXT	SEGMENT
__Alproxy$ = -21					; size = 1
_this$ = -16						; size = 4
__$EHRec$ = -12						; size = 12
??1?$_String_val@DV?$allocator@D@std@@@std@@QAE@XZ PROC	; std::_String_val<char,std::allocator<char> >::~_String_val<char,std::allocator<char> >, COMDAT
; _this$ = ecx

; 475  : 		{	// destroy the object

	push	ebp
	mov	ebp, esp
	push	-1
	push	__ehhandler$??1?$_String_val@DV?$allocator@D@std@@@std@@QAE@XZ
	mov	eax, DWORD PTR fs:0
	push	eax
	sub	esp, 16					; 00000010H
	mov	eax, -858993460				; ccccccccH
	mov	DWORD PTR [ebp-28], eax
	mov	DWORD PTR [ebp-24], eax
	mov	DWORD PTR [ebp-20], eax
	mov	DWORD PTR [ebp-16], eax
	mov	eax, DWORD PTR ___security_cookie
	xor	eax, ebp
	push	eax
	lea	eax, DWORD PTR __$EHRec$[ebp]
	mov	DWORD PTR fs:0, eax
	mov	DWORD PTR _this$[ebp], ecx
	mov	DWORD PTR __$EHRec$[ebp+8], 0

; 476  : 		typename _Alloc::template rebind<_Container_proxy>::other
; 477  : 			_Alproxy(_Alval);

	mov	eax, DWORD PTR _this$[ebp]
	add	eax, 28					; 0000001cH
	push	eax
	lea	ecx, DWORD PTR __Alproxy$[ebp]
	call	??$?0D@?$allocator@U_Container_proxy@std@@@std@@QAE@ABV?$allocator@D@1@@Z ; std::allocator<std::_Container_proxy>::allocator<std::_Container_proxy><char>

; 478  : 		this->_Orphan_all();

	mov	ecx, DWORD PTR _this$[ebp]
	call	?_Orphan_all@_Container_base12@std@@QAEXXZ ; std::_Container_base12::_Orphan_all

; 479  : 		_Dest_val(_Alproxy, this->_Myproxy);

	mov	ecx, DWORD PTR _this$[ebp]
	mov	edx, DWORD PTR [ecx]
	push	edx
	lea	eax, DWORD PTR __Alproxy$[ebp]
	push	eax
	call	??$_Dest_val@V?$allocator@U_Container_proxy@std@@@std@@U_Container_proxy@2@@std@@YAXAAV?$allocator@U_Container_proxy@std@@@0@PAU_Container_proxy@0@@Z ; std::_Dest_val<std::allocator<std::_Container_proxy>,std::_Container_proxy>
	add	esp, 8

; 480  : 		_Alproxy.deallocate(this->_Myproxy, 1);

	push	1
	mov	ecx, DWORD PTR _this$[ebp]
	mov	edx, DWORD PTR [ecx]
	push	edx
	lea	ecx, DWORD PTR __Alproxy$[ebp]
	call	?deallocate@?$allocator@U_Container_proxy@std@@@std@@QAEXPAU_Container_proxy@2@I@Z ; std::allocator<std::_Container_proxy>::deallocate

; 481  : 		this->_Myproxy = 0;

	mov	eax, DWORD PTR _this$[ebp]
	mov	DWORD PTR [eax], 0

; 482  : 		}

	mov	DWORD PTR __$EHRec$[ebp+8], -1
	mov	ecx, DWORD PTR _this$[ebp]
	call	??1_Container_base12@std@@QAE@XZ	; std::_Container_base12::~_Container_base12
	push	edx
	mov	ecx, ebp
	push	eax
	lea	edx, DWORD PTR $LN7@String_val
	call	@_RTC_CheckStackVars@8
	pop	eax
	pop	edx
	mov	ecx, DWORD PTR __$EHRec$[ebp]
	mov	DWORD PTR fs:0, ecx
	pop	ecx
	add	esp, 28					; 0000001cH
	cmp	ebp, esp
	call	__RTC_CheckEsp
	mov	esp, ebp
	pop	ebp
	ret	0
	npad	1
$LN7@String_val:
	DD	1
	DD	$LN6@String_val
$LN6@String_val:
	DD	-21					; ffffffebH
	DD	1
	DD	$LN4@String_val
$LN4@String_val:
	DB	95					; 0000005fH
	DB	65					; 00000041H
	DB	108					; 0000006cH
	DB	112					; 00000070H
	DB	114					; 00000072H
	DB	111					; 0000006fH
	DB	120					; 00000078H
	DB	121					; 00000079H
	DB	0
_TEXT	ENDS
;	COMDAT text$x
text$x	SEGMENT
__unwindfunclet$??1?$_String_val@DV?$allocator@D@std@@@std@@QAE@XZ$0:
	mov	ecx, DWORD PTR _this$[ebp]
	jmp	??1_Container_base12@std@@QAE@XZ	; std::_Container_base12::~_Container_base12
__ehhandler$??1?$_String_val@DV?$allocator@D@std@@@std@@QAE@XZ:
	mov	edx, DWORD PTR [esp+8]
	lea	eax, DWORD PTR [edx+12]
	mov	ecx, DWORD PTR [edx-20]
	xor	ecx, eax
	call	@__security_check_cookie@4
	mov	eax, OFFSET __ehfuncinfo$??1?$_String_val@DV?$allocator@D@std@@@std@@QAE@XZ
	jmp	___CxxFrameHandler3
text$x	ENDS
??1?$_String_val@DV?$allocator@D@std@@@std@@QAE@XZ ENDP	; std::_String_val<char,std::allocator<char> >::~_String_val<char,std::allocator<char> >
PUBLIC	?assign@?$char_traits@D@std@@SAXAADABD@Z	; std::char_traits<char>::assign
PUBLIC	?_Myptr@?$basic_string@DU?$char_traits@D@std@@V?$allocator@D@2@@std@@QAEPADXZ ; std::basic_string<char,std::char_traits<char>,std::allocator<char> >::_Myptr
; Function compile flags: /Odtp /RTCsu
;	COMDAT ?_Eos@?$basic_string@DU?$char_traits@D@std@@V?$allocator@D@2@@std@@QAEXI@Z
_TEXT	SEGMENT
$T140189 = -5						; size = 1
_this$ = -4						; size = 4
__Newsize$ = 8						; size = 4
?_Eos@?$basic_string@DU?$char_traits@D@std@@V?$allocator@D@2@@std@@QAEXI@Z PROC ; std::basic_string<char,std::char_traits<char>,std::allocator<char> >::_Eos, COMDAT
; _this$ = ecx

; 1952 : 		{	// set new length and null terminator

	push	ebp
	mov	ebp, esp
	sub	esp, 8
	mov	DWORD PTR [ebp-8], -858993460		; ccccccccH
	mov	DWORD PTR [ebp-4], -858993460		; ccccccccH
	mov	DWORD PTR _this$[ebp], ecx

; 1953 : 		_Traits::assign(_Myptr()[this->_Mysize = _Newsize], _Elem());

	mov	BYTE PTR $T140189[ebp], 0
	mov	eax, DWORD PTR _this$[ebp]
	mov	ecx, DWORD PTR __Newsize$[ebp]
	mov	DWORD PTR [eax+20], ecx
	lea	edx, DWORD PTR $T140189[ebp]
	push	edx
	mov	ecx, DWORD PTR _this$[ebp]
	call	?_Myptr@?$basic_string@DU?$char_traits@D@std@@V?$allocator@D@2@@std@@QAEPADXZ ; std::basic_string<char,std::char_traits<char>,std::allocator<char> >::_Myptr
	add	eax, DWORD PTR __Newsize$[ebp]
	push	eax
	call	?assign@?$char_traits@D@std@@SAXAADABD@Z ; std::char_traits<char>::assign
	add	esp, 8

; 1954 : 		}

	add	esp, 8
	cmp	ebp, esp
	call	__RTC_CheckEsp
	mov	esp, ebp
	pop	ebp
	ret	4
?_Eos@?$basic_string@DU?$char_traits@D@std@@V?$allocator@D@2@@std@@QAEXI@Z ENDP ; std::basic_string<char,std::char_traits<char>,std::allocator<char> >::_Eos
; Function compile flags: /Odtp /RTCsu
; File c:\program files (x86)\microsoft visual studio 10.0\vc\include\iosfwd
_TEXT	ENDS
;	COMDAT ?assign@?$char_traits@D@std@@SAXAADABD@Z
_TEXT	SEGMENT
__Left$ = 8						; size = 4
__Right$ = 12						; size = 4
?assign@?$char_traits@D@std@@SAXAADABD@Z PROC		; std::char_traits<char>::assign, COMDAT

; 526  : 		{	// assign an element

	push	ebp
	mov	ebp, esp

; 527  : 		_Left = _Right;

	mov	eax, DWORD PTR __Left$[ebp]
	mov	ecx, DWORD PTR __Right$[ebp]
	mov	dl, BYTE PTR [ecx]
	mov	BYTE PTR [eax], dl

; 528  : 		}

	pop	ebp
	ret	0
?assign@?$char_traits@D@std@@SAXAADABD@Z ENDP		; std::char_traits<char>::assign
; Function compile flags: /Odtp /RTCsu
; File c:\program files (x86)\microsoft visual studio 10.0\vc\include\xstring
_TEXT	ENDS
;	COMDAT ?_Myptr@?$basic_string@DU?$char_traits@D@std@@V?$allocator@D@2@@std@@QAEPADXZ
_TEXT	SEGMENT
tv82 = -8						; size = 4
_this$ = -4						; size = 4
?_Myptr@?$basic_string@DU?$char_traits@D@std@@V?$allocator@D@2@@std@@QAEPADXZ PROC ; std::basic_string<char,std::char_traits<char>,std::allocator<char> >::_Myptr, COMDAT
; _this$ = ecx

; 2002 : 		{	// determine current pointer to buffer for mutable string

	push	ebp
	mov	ebp, esp
	sub	esp, 8
	mov	DWORD PTR [ebp-8], -858993460		; ccccccccH
	mov	DWORD PTR [ebp-4], -858993460		; ccccccccH
	mov	DWORD PTR _this$[ebp], ecx

; 2003 : 		return (this->_BUF_SIZE <= this->_Myres ? this->_Bx._Ptr
; 2004 : 			: this->_Bx._Buf);

	mov	eax, DWORD PTR _this$[ebp]
	cmp	DWORD PTR [eax+24], 16			; 00000010H
	jb	SHORT $LN3@Myptr@2
	mov	ecx, DWORD PTR _this$[ebp]
	mov	edx, DWORD PTR [ecx+4]
	mov	DWORD PTR tv82[ebp], edx
	jmp	SHORT $LN4@Myptr@2
$LN3@Myptr@2:
	mov	eax, DWORD PTR _this$[ebp]
	add	eax, 4
	mov	DWORD PTR tv82[ebp], eax
$LN4@Myptr@2:
	mov	eax, DWORD PTR tv82[ebp]

; 2005 : 		}

	mov	esp, ebp
	pop	ebp
	ret	0
?_Myptr@?$basic_string@DU?$char_traits@D@std@@V?$allocator@D@2@@std@@QAEPADXZ ENDP ; std::basic_string<char,std::char_traits<char>,std::allocator<char> >::_Myptr
; Function compile flags: /Odtp /RTCsu
; File c:\program files (x86)\microsoft visual studio 10.0\vc\include\xmemory
_TEXT	ENDS
;	COMDAT ?deallocate@?$allocator@D@std@@QAEXPADI@Z
_TEXT	SEGMENT
_this$ = -4						; size = 4
__Ptr$ = 8						; size = 4
___formal$ = 12						; size = 4
?deallocate@?$allocator@D@std@@QAEXPADI@Z PROC		; std::allocator<char>::deallocate, COMDAT
; _this$ = ecx

; 181  : 		{	// deallocate object at _Ptr, ignore size

	push	ebp
	mov	ebp, esp
	push	ecx
	mov	DWORD PTR [ebp-4], -858993460		; ccccccccH
	mov	DWORD PTR _this$[ebp], ecx

; 182  : 		::operator delete(_Ptr);

	mov	eax, DWORD PTR __Ptr$[ebp]
	push	eax
	call	??3@YAXPAX@Z				; operator delete
	add	esp, 4

; 183  : 		}

	add	esp, 4
	cmp	ebp, esp
	call	__RTC_CheckEsp
	mov	esp, ebp
	pop	ebp
	ret	8
?deallocate@?$allocator@D@std@@QAEXPADI@Z ENDP		; std::allocator<char>::deallocate
_TEXT	ENDS
PUBLIC	?size@?$list@PAV?$Goal@VAbstRaven_Bot@@@@V?$allocator@PAV?$Goal@VAbstRaven_Bot@@@@@std@@@std@@QBEIXZ ; std::list<Goal<AbstRaven_Bot> *,std::allocator<Goal<AbstRaven_Bot> *> >::size
PUBLIC	?pop_front@?$list@PAV?$Goal@VAbstRaven_Bot@@@@V?$allocator@PAV?$Goal@VAbstRaven_Bot@@@@@std@@@std@@QAEXXZ ; std::list<Goal<AbstRaven_Bot> *,std::allocator<Goal<AbstRaven_Bot> *> >::pop_front
PUBLIC	?front@?$list@PAV?$Goal@VAbstRaven_Bot@@@@V?$allocator@PAV?$Goal@VAbstRaven_Bot@@@@@std@@@std@@QAEAAPAV?$Goal@VAbstRaven_Bot@@@@XZ ; std::list<Goal<AbstRaven_Bot> *,std::allocator<Goal<AbstRaven_Bot> *> >::front
PUBLIC	?empty@?$list@PAV?$Goal@VAbstRaven_Bot@@@@V?$allocator@PAV?$Goal@VAbstRaven_Bot@@@@@std@@@std@@QBE_NXZ ; std::list<Goal<AbstRaven_Bot> *,std::allocator<Goal<AbstRaven_Bot> *> >::empty
; Function compile flags: /Odtp /RTCsu
; File c:\users\teaja\documents\artificial-fun\labravenprojecttest\common\goals\goal_composite.h
;	COMDAT ?ProcessSubgoals@?$Goal_Composite@VAbstRaven_Bot@@@@IAEHXZ
_TEXT	SEGMENT
tv145 = -28						; size = 4
tv132 = -24						; size = 4
tv88 = -20						; size = 4
$T140201 = -16						; size = 4
$T140200 = -12						; size = 4
_StatusOfSubGoals$136009 = -8				; size = 4
_this$ = -4						; size = 4
?ProcessSubgoals@?$Goal_Composite@VAbstRaven_Bot@@@@IAEHXZ PROC ; Goal_Composite<AbstRaven_Bot>::ProcessSubgoals, COMDAT
; _this$ = ecx

; 100  : { 

	push	ebp
	mov	ebp, esp
	sub	esp, 28					; 0000001cH
	push	esi
	mov	eax, -858993460				; ccccccccH
	mov	DWORD PTR [ebp-28], eax
	mov	DWORD PTR [ebp-24], eax
	mov	DWORD PTR [ebp-20], eax
	mov	DWORD PTR [ebp-16], eax
	mov	DWORD PTR [ebp-12], eax
	mov	DWORD PTR [ebp-8], eax
	mov	DWORD PTR [ebp-4], eax
	mov	DWORD PTR _this$[ebp], ecx
$LN6@ProcessSub:

; 101  :   //remove all completed and failed goals from the front of the subgoal list
; 102  :   while (!m_SubGoals.empty() &&
; 103  :          (m_SubGoals.front()->isComplete() || m_SubGoals.front()->hasFailed()))

	mov	ecx, DWORD PTR _this$[ebp]
	add	ecx, 16					; 00000010H
	call	?empty@?$list@PAV?$Goal@VAbstRaven_Bot@@@@V?$allocator@PAV?$Goal@VAbstRaven_Bot@@@@@std@@@std@@QBE_NXZ ; std::list<Goal<AbstRaven_Bot> *,std::allocator<Goal<AbstRaven_Bot> *> >::empty
	movzx	eax, al
	test	eax, eax
	jne	$LN5@ProcessSub
	mov	ecx, DWORD PTR _this$[ebp]
	add	ecx, 16					; 00000010H
	call	?front@?$list@PAV?$Goal@VAbstRaven_Bot@@@@V?$allocator@PAV?$Goal@VAbstRaven_Bot@@@@@std@@@std@@QAEAAPAV?$Goal@VAbstRaven_Bot@@@@XZ ; std::list<Goal<AbstRaven_Bot> *,std::allocator<Goal<AbstRaven_Bot> *> >::front
	mov	ecx, DWORD PTR [eax]
	call	?isComplete@?$Goal@VAbstRaven_Bot@@@@QBE_NXZ ; Goal<AbstRaven_Bot>::isComplete
	movzx	ecx, al
	test	ecx, ecx
	jne	SHORT $LN4@ProcessSub
	mov	ecx, DWORD PTR _this$[ebp]
	add	ecx, 16					; 00000010H
	call	?front@?$list@PAV?$Goal@VAbstRaven_Bot@@@@V?$allocator@PAV?$Goal@VAbstRaven_Bot@@@@@std@@@std@@QAEAAPAV?$Goal@VAbstRaven_Bot@@@@XZ ; std::list<Goal<AbstRaven_Bot> *,std::allocator<Goal<AbstRaven_Bot> *> >::front
	mov	ecx, DWORD PTR [eax]
	call	?hasFailed@?$Goal@VAbstRaven_Bot@@@@QBE_NXZ ; Goal<AbstRaven_Bot>::hasFailed
	movzx	edx, al
	test	edx, edx
	je	SHORT $LN5@ProcessSub
$LN4@ProcessSub:

; 104  :   {    
; 105  :     m_SubGoals.front()->Terminate();

	mov	ecx, DWORD PTR _this$[ebp]
	add	ecx, 16					; 00000010H
	call	?front@?$list@PAV?$Goal@VAbstRaven_Bot@@@@V?$allocator@PAV?$Goal@VAbstRaven_Bot@@@@@std@@@std@@QAEAAPAV?$Goal@VAbstRaven_Bot@@@@XZ ; std::list<Goal<AbstRaven_Bot> *,std::allocator<Goal<AbstRaven_Bot> *> >::front
	mov	eax, DWORD PTR [eax]
	mov	DWORD PTR tv88[ebp], eax
	mov	ecx, DWORD PTR tv88[ebp]
	mov	edx, DWORD PTR [ecx]
	mov	esi, esp
	mov	ecx, DWORD PTR tv88[ebp]
	mov	eax, DWORD PTR [edx+12]
	call	eax
	cmp	esi, esp
	call	__RTC_CheckEsp

; 106  :     delete m_SubGoals.front(); 

	mov	ecx, DWORD PTR _this$[ebp]
	add	ecx, 16					; 00000010H
	call	?front@?$list@PAV?$Goal@VAbstRaven_Bot@@@@V?$allocator@PAV?$Goal@VAbstRaven_Bot@@@@@std@@@std@@QAEAAPAV?$Goal@VAbstRaven_Bot@@@@XZ ; std::list<Goal<AbstRaven_Bot> *,std::allocator<Goal<AbstRaven_Bot> *> >::front
	mov	ecx, DWORD PTR [eax]
	mov	DWORD PTR $T140201[ebp], ecx
	mov	edx, DWORD PTR $T140201[ebp]
	mov	DWORD PTR $T140200[ebp], edx
	cmp	DWORD PTR $T140200[ebp], 0
	je	SHORT $LN9@ProcessSub
	mov	esi, esp
	push	1
	mov	eax, DWORD PTR $T140200[ebp]
	mov	edx, DWORD PTR [eax]
	mov	ecx, DWORD PTR $T140200[ebp]
	mov	eax, DWORD PTR [edx]
	call	eax
	cmp	esi, esp
	call	__RTC_CheckEsp
	mov	DWORD PTR tv132[ebp], eax
	jmp	SHORT $LN10@ProcessSub
$LN9@ProcessSub:
	mov	DWORD PTR tv132[ebp], 0
$LN10@ProcessSub:

; 107  :     m_SubGoals.pop_front();

	mov	ecx, DWORD PTR _this$[ebp]
	add	ecx, 16					; 00000010H
	call	?pop_front@?$list@PAV?$Goal@VAbstRaven_Bot@@@@V?$allocator@PAV?$Goal@VAbstRaven_Bot@@@@@std@@@std@@QAEXXZ ; std::list<Goal<AbstRaven_Bot> *,std::allocator<Goal<AbstRaven_Bot> *> >::pop_front

; 108  :   }

	jmp	$LN6@ProcessSub
$LN5@ProcessSub:

; 109  : 
; 110  :   //if any subgoals remain, process the one at the front of the list
; 111  :   if (!m_SubGoals.empty())

	mov	ecx, DWORD PTR _this$[ebp]
	add	ecx, 16					; 00000010H
	call	?empty@?$list@PAV?$Goal@VAbstRaven_Bot@@@@V?$allocator@PAV?$Goal@VAbstRaven_Bot@@@@@std@@@std@@QBE_NXZ ; std::list<Goal<AbstRaven_Bot> *,std::allocator<Goal<AbstRaven_Bot> *> >::empty
	movzx	ecx, al
	test	ecx, ecx
	jne	SHORT $LN3@ProcessSub

; 112  :   { 
; 113  :     //grab the status of the front-most subgoal
; 114  :     int StatusOfSubGoals = m_SubGoals.front()->Process();

	mov	ecx, DWORD PTR _this$[ebp]
	add	ecx, 16					; 00000010H
	call	?front@?$list@PAV?$Goal@VAbstRaven_Bot@@@@V?$allocator@PAV?$Goal@VAbstRaven_Bot@@@@@std@@@std@@QAEAAPAV?$Goal@VAbstRaven_Bot@@@@XZ ; std::list<Goal<AbstRaven_Bot> *,std::allocator<Goal<AbstRaven_Bot> *> >::front
	mov	edx, DWORD PTR [eax]
	mov	DWORD PTR tv145[ebp], edx
	mov	eax, DWORD PTR tv145[ebp]
	mov	edx, DWORD PTR [eax]
	mov	esi, esp
	mov	ecx, DWORD PTR tv145[ebp]
	mov	eax, DWORD PTR [edx+8]
	call	eax
	cmp	esi, esp
	call	__RTC_CheckEsp
	mov	DWORD PTR _StatusOfSubGoals$136009[ebp], eax

; 115  : 
; 116  :     //we have to test for the special case where the front-most subgoal
; 117  :     //reports 'completed' *and* the subgoal list contains additional goals.When
; 118  :     //this is the case, to ensure the parent keeps processing its subgoal list
; 119  :     //we must return the 'active' status.
; 120  :     if (StatusOfSubGoals == completed && m_SubGoals.size() > 1)

	cmp	DWORD PTR _StatusOfSubGoals$136009[ebp], 2
	jne	SHORT $LN2@ProcessSub
	mov	ecx, DWORD PTR _this$[ebp]
	add	ecx, 16					; 00000010H
	call	?size@?$list@PAV?$Goal@VAbstRaven_Bot@@@@V?$allocator@PAV?$Goal@VAbstRaven_Bot@@@@@std@@@std@@QBEIXZ ; std::list<Goal<AbstRaven_Bot> *,std::allocator<Goal<AbstRaven_Bot> *> >::size
	cmp	eax, 1
	jbe	SHORT $LN2@ProcessSub

; 121  :     {
; 122  :       return active;

	xor	eax, eax
	jmp	SHORT $LN7@ProcessSub
$LN2@ProcessSub:

; 123  :     }
; 124  : 
; 125  :     return StatusOfSubGoals;

	mov	eax, DWORD PTR _StatusOfSubGoals$136009[ebp]
	jmp	SHORT $LN7@ProcessSub

; 126  :   }
; 127  :   
; 128  :   //no more subgoals to process - return 'completed'
; 129  :   else

	jmp	SHORT $LN7@ProcessSub
$LN3@ProcessSub:

; 130  :   {
; 131  :     return completed;

	mov	eax, 2
$LN7@ProcessSub:

; 132  :   }
; 133  : }

	pop	esi
	add	esp, 28					; 0000001cH
	cmp	ebp, esp
	call	__RTC_CheckEsp
	mov	esp, ebp
	pop	ebp
	ret	0
?ProcessSubgoals@?$Goal_Composite@VAbstRaven_Bot@@@@IAEHXZ ENDP ; Goal_Composite<AbstRaven_Bot>::ProcessSubgoals
; Function compile flags: /Odtp /RTCsu
_TEXT	ENDS
;	COMDAT ?ForwardMessageToFrontMostSubgoal@?$Goal_Composite@VAbstRaven_Bot@@@@IAE_NABUTelegram@@@Z
_TEXT	SEGMENT
tv74 = -8						; size = 4
_this$ = -4						; size = 4
_msg$ = 8						; size = 4
?ForwardMessageToFrontMostSubgoal@?$Goal_Composite@VAbstRaven_Bot@@@@IAE_NABUTelegram@@@Z PROC ; Goal_Composite<AbstRaven_Bot>::ForwardMessageToFrontMostSubgoal, COMDAT
; _this$ = ecx

; 151  : {

	push	ebp
	mov	ebp, esp
	sub	esp, 8
	push	esi
	mov	DWORD PTR [ebp-8], -858993460		; ccccccccH
	mov	DWORD PTR [ebp-4], -858993460		; ccccccccH
	mov	DWORD PTR _this$[ebp], ecx

; 152  :   if (!m_SubGoals.empty())

	mov	ecx, DWORD PTR _this$[ebp]
	add	ecx, 16					; 00000010H
	call	?empty@?$list@PAV?$Goal@VAbstRaven_Bot@@@@V?$allocator@PAV?$Goal@VAbstRaven_Bot@@@@@std@@@std@@QBE_NXZ ; std::list<Goal<AbstRaven_Bot> *,std::allocator<Goal<AbstRaven_Bot> *> >::empty
	movzx	eax, al
	test	eax, eax
	jne	SHORT $LN1@ForwardMes

; 153  :   {
; 154  :     return m_SubGoals.front()->HandleMessage(msg);

	mov	ecx, DWORD PTR _this$[ebp]
	add	ecx, 16					; 00000010H
	call	?front@?$list@PAV?$Goal@VAbstRaven_Bot@@@@V?$allocator@PAV?$Goal@VAbstRaven_Bot@@@@@std@@@std@@QAEAAPAV?$Goal@VAbstRaven_Bot@@@@XZ ; std::list<Goal<AbstRaven_Bot> *,std::allocator<Goal<AbstRaven_Bot> *> >::front
	mov	ecx, DWORD PTR [eax]
	mov	DWORD PTR tv74[ebp], ecx
	mov	esi, esp
	mov	edx, DWORD PTR _msg$[ebp]
	push	edx
	mov	eax, DWORD PTR tv74[ebp]
	mov	edx, DWORD PTR [eax]
	mov	ecx, DWORD PTR tv74[ebp]
	mov	eax, DWORD PTR [edx+16]
	call	eax
	cmp	esi, esp
	call	__RTC_CheckEsp
	jmp	SHORT $LN2@ForwardMes
$LN1@ForwardMes:

; 155  :   }
; 156  : 
; 157  :   //return false if the message has not been handled
; 158  :   return false;

	xor	al, al
$LN2@ForwardMes:

; 159  : }

	pop	esi
	add	esp, 8
	cmp	ebp, esp
	call	__RTC_CheckEsp
	mov	esp, ebp
	pop	ebp
	ret	4
?ForwardMessageToFrontMostSubgoal@?$Goal_Composite@VAbstRaven_Bot@@@@IAE_NABUTelegram@@@Z ENDP ; Goal_Composite<AbstRaven_Bot>::ForwardMessageToFrontMostSubgoal
_TEXT	ENDS
PUBLIC	?push_front@?$list@PAV?$Goal@VAbstRaven_Bot@@@@V?$allocator@PAV?$Goal@VAbstRaven_Bot@@@@@std@@@std@@QAEXABQAV?$Goal@VAbstRaven_Bot@@@@@Z ; std::list<Goal<AbstRaven_Bot> *,std::allocator<Goal<AbstRaven_Bot> *> >::push_front
; Function compile flags: /Odtp /RTCsu
;	COMDAT ?AddSubgoal@?$Goal_Composite@VAbstRaven_Bot@@@@UAEXPAV?$Goal@VAbstRaven_Bot@@@@@Z
_TEXT	SEGMENT
_this$ = -4						; size = 4
_g$ = 8							; size = 4
?AddSubgoal@?$Goal_Composite@VAbstRaven_Bot@@@@UAEXPAV?$Goal@VAbstRaven_Bot@@@@@Z PROC ; Goal_Composite<AbstRaven_Bot>::AddSubgoal, COMDAT
; _this$ = ecx

; 138  : {   

	push	ebp
	mov	ebp, esp
	push	ecx
	mov	DWORD PTR [ebp-4], -858993460		; ccccccccH
	mov	DWORD PTR _this$[ebp], ecx

; 139  :   //add the new goal to the front of the list
; 140  :   m_SubGoals.push_front(g);

	lea	eax, DWORD PTR _g$[ebp]
	push	eax
	mov	ecx, DWORD PTR _this$[ebp]
	add	ecx, 16					; 00000010H
	call	?push_front@?$list@PAV?$Goal@VAbstRaven_Bot@@@@V?$allocator@PAV?$Goal@VAbstRaven_Bot@@@@@std@@@std@@QAEXABQAV?$Goal@VAbstRaven_Bot@@@@@Z ; std::list<Goal<AbstRaven_Bot> *,std::allocator<Goal<AbstRaven_Bot> *> >::push_front

; 141  : }

	add	esp, 4
	cmp	ebp, esp
	call	__RTC_CheckEsp
	mov	esp, ebp
	pop	ebp
	ret	4
?AddSubgoal@?$Goal_Composite@VAbstRaven_Bot@@@@UAEXPAV?$Goal@VAbstRaven_Bot@@@@@Z ENDP ; Goal_Composite<AbstRaven_Bot>::AddSubgoal
_TEXT	ENDS
PUBLIC	??D?$_List_iterator@V?$_List_val@PAV?$Goal@VAbstRaven_Bot@@@@V?$allocator@PAV?$Goal@VAbstRaven_Bot@@@@@std@@@std@@@std@@QBEAAPAV?$Goal@VAbstRaven_Bot@@@@XZ ; std::_List_iterator<std::_List_val<Goal<AbstRaven_Bot> *,std::allocator<Goal<AbstRaven_Bot> *> > >::operator*
PUBLIC	??1?$_List_iterator@V?$_List_val@PAV?$Goal@VAbstRaven_Bot@@@@V?$allocator@PAV?$Goal@VAbstRaven_Bot@@@@@std@@@std@@@std@@QAE@XZ ; std::_List_iterator<std::_List_val<Goal<AbstRaven_Bot> *,std::allocator<Goal<AbstRaven_Bot> *> > >::~_List_iterator<std::_List_val<Goal<AbstRaven_Bot> *,std::allocator<Goal<AbstRaven_Bot> *> > >
PUBLIC	??9?$_List_const_iterator@V?$_List_val@PAV?$Goal@VAbstRaven_Bot@@@@V?$allocator@PAV?$Goal@VAbstRaven_Bot@@@@@std@@@std@@@std@@QBE_NABV01@@Z ; std::_List_const_iterator<std::_List_val<Goal<AbstRaven_Bot> *,std::allocator<Goal<AbstRaven_Bot> *> > >::operator!=
PUBLIC	?end@?$list@PAV?$Goal@VAbstRaven_Bot@@@@V?$allocator@PAV?$Goal@VAbstRaven_Bot@@@@@std@@@std@@QAE?AV?$_List_iterator@V?$_List_val@PAV?$Goal@VAbstRaven_Bot@@@@V?$allocator@PAV?$Goal@VAbstRaven_Bot@@@@@std@@@std@@@2@XZ ; std::list<Goal<AbstRaven_Bot> *,std::allocator<Goal<AbstRaven_Bot> *> >::end
PUBLIC	??E?$_List_iterator@V?$_List_val@PAV?$Goal@VAbstRaven_Bot@@@@V?$allocator@PAV?$Goal@VAbstRaven_Bot@@@@@std@@@std@@@std@@QAEAAV01@XZ ; std::_List_iterator<std::_List_val<Goal<AbstRaven_Bot> *,std::allocator<Goal<AbstRaven_Bot> *> > >::operator++
PUBLIC	?begin@?$list@PAV?$Goal@VAbstRaven_Bot@@@@V?$allocator@PAV?$Goal@VAbstRaven_Bot@@@@@std@@@std@@QAE?AV?$_List_iterator@V?$_List_val@PAV?$Goal@VAbstRaven_Bot@@@@V?$allocator@PAV?$Goal@VAbstRaven_Bot@@@@@std@@@std@@@2@XZ ; std::list<Goal<AbstRaven_Bot> *,std::allocator<Goal<AbstRaven_Bot> *> >::begin
;	COMDAT xdata$x
xdata$x	SEGMENT
__unwindtable$?RemoveAllSubgoals@?$Goal_Composite@VAbstRaven_Bot@@@@QAEXXZ DD 0ffffffffH
	DD	FLAT:__unwindfunclet$?RemoveAllSubgoals@?$Goal_Composite@VAbstRaven_Bot@@@@QAEXXZ$0
	DD	00H
	DD	FLAT:__unwindfunclet$?RemoveAllSubgoals@?$Goal_Composite@VAbstRaven_Bot@@@@QAEXXZ$1
__ehfuncinfo$?RemoveAllSubgoals@?$Goal_Composite@VAbstRaven_Bot@@@@QAEXXZ DD 019930522H
	DD	02H
	DD	FLAT:__unwindtable$?RemoveAllSubgoals@?$Goal_Composite@VAbstRaven_Bot@@@@QAEXXZ
	DD	2 DUP(00H)
	DD	2 DUP(00H)
	DD	00H
	DD	01H
; Function compile flags: /Odtp /RTCsu
xdata$x	ENDS
;	COMDAT ?RemoveAllSubgoals@?$Goal_Composite@VAbstRaven_Bot@@@@QAEXXZ
_TEXT	SEGMENT
tv136 = -76						; size = 4
tv93 = -72						; size = 4
tv141 = -68						; size = 4
tv66 = -64						; size = 4
$T140213 = -60						; size = 4
$T140212 = -56						; size = 4
$T140211 = -52						; size = 12
$T140210 = -37						; size = 1
_it$136070 = -32					; size = 12
_this$ = -16						; size = 4
__$EHRec$ = -12						; size = 12
?RemoveAllSubgoals@?$Goal_Composite@VAbstRaven_Bot@@@@QAEXXZ PROC ; Goal_Composite<AbstRaven_Bot>::RemoveAllSubgoals, COMDAT
; _this$ = ecx

; 79   : {

	push	ebp
	mov	ebp, esp
	push	-1
	push	__ehhandler$?RemoveAllSubgoals@?$Goal_Composite@VAbstRaven_Bot@@@@QAEXXZ
	mov	eax, DWORD PTR fs:0
	push	eax
	sub	esp, 64					; 00000040H
	push	esi
	push	edi
	push	ecx
	lea	edi, DWORD PTR [ebp-76]
	mov	ecx, 16					; 00000010H
	mov	eax, -858993460				; ccccccccH
	rep stosd
	pop	ecx
	mov	eax, DWORD PTR ___security_cookie
	xor	eax, ebp
	push	eax
	lea	eax, DWORD PTR __$EHRec$[ebp]
	mov	DWORD PTR fs:0, eax
	mov	DWORD PTR _this$[ebp], ecx

; 80   :   for (SubgoalList::iterator it = m_SubGoals.begin();

	lea	eax, DWORD PTR _it$136070[ebp]
	push	eax
	mov	ecx, DWORD PTR _this$[ebp]
	add	ecx, 16					; 00000010H
	call	?begin@?$list@PAV?$Goal@VAbstRaven_Bot@@@@V?$allocator@PAV?$Goal@VAbstRaven_Bot@@@@@std@@@std@@QAE?AV?$_List_iterator@V?$_List_val@PAV?$Goal@VAbstRaven_Bot@@@@V?$allocator@PAV?$Goal@VAbstRaven_Bot@@@@@std@@@std@@@2@XZ ; std::list<Goal<AbstRaven_Bot> *,std::allocator<Goal<AbstRaven_Bot> *> >::begin
	mov	DWORD PTR __$EHRec$[ebp+8], 0
	jmp	SHORT $LN3@RemoveAllS
$LN2@RemoveAllS:

; 81   :        it != m_SubGoals.end();
; 82   :        ++it)

	lea	ecx, DWORD PTR _it$136070[ebp]
	call	??E?$_List_iterator@V?$_List_val@PAV?$Goal@VAbstRaven_Bot@@@@V?$allocator@PAV?$Goal@VAbstRaven_Bot@@@@@std@@@std@@@std@@QAEAAV01@XZ ; std::_List_iterator<std::_List_val<Goal<AbstRaven_Bot> *,std::allocator<Goal<AbstRaven_Bot> *> > >::operator++
$LN3@RemoveAllS:
	lea	ecx, DWORD PTR $T140211[ebp]
	push	ecx
	mov	ecx, DWORD PTR _this$[ebp]
	add	ecx, 16					; 00000010H
	call	?end@?$list@PAV?$Goal@VAbstRaven_Bot@@@@V?$allocator@PAV?$Goal@VAbstRaven_Bot@@@@@std@@@std@@QAE?AV?$_List_iterator@V?$_List_val@PAV?$Goal@VAbstRaven_Bot@@@@V?$allocator@PAV?$Goal@VAbstRaven_Bot@@@@@std@@@std@@@2@XZ ; std::list<Goal<AbstRaven_Bot> *,std::allocator<Goal<AbstRaven_Bot> *> >::end
	mov	DWORD PTR tv66[ebp], eax
	mov	edx, DWORD PTR tv66[ebp]
	mov	DWORD PTR tv141[ebp], edx
	mov	BYTE PTR __$EHRec$[ebp+8], 1
	mov	eax, DWORD PTR tv141[ebp]
	push	eax
	lea	ecx, DWORD PTR _it$136070[ebp]
	call	??9?$_List_const_iterator@V?$_List_val@PAV?$Goal@VAbstRaven_Bot@@@@V?$allocator@PAV?$Goal@VAbstRaven_Bot@@@@@std@@@std@@@std@@QBE_NABV01@@Z ; std::_List_const_iterator<std::_List_val<Goal<AbstRaven_Bot> *,std::allocator<Goal<AbstRaven_Bot> *> > >::operator!=
	mov	BYTE PTR $T140210[ebp], al
	mov	BYTE PTR __$EHRec$[ebp+8], 0
	lea	ecx, DWORD PTR $T140211[ebp]
	call	??1?$_List_iterator@V?$_List_val@PAV?$Goal@VAbstRaven_Bot@@@@V?$allocator@PAV?$Goal@VAbstRaven_Bot@@@@@std@@@std@@@std@@QAE@XZ
	movzx	ecx, BYTE PTR $T140210[ebp]
	test	ecx, ecx
	je	SHORT $LN1@RemoveAllS

; 83   :   {  
; 84   :     (*it)->Terminate();

	lea	ecx, DWORD PTR _it$136070[ebp]
	call	??D?$_List_iterator@V?$_List_val@PAV?$Goal@VAbstRaven_Bot@@@@V?$allocator@PAV?$Goal@VAbstRaven_Bot@@@@@std@@@std@@@std@@QBEAAPAV?$Goal@VAbstRaven_Bot@@@@XZ ; std::_List_iterator<std::_List_val<Goal<AbstRaven_Bot> *,std::allocator<Goal<AbstRaven_Bot> *> > >::operator*
	mov	edx, DWORD PTR [eax]
	mov	DWORD PTR tv93[ebp], edx
	mov	eax, DWORD PTR tv93[ebp]
	mov	edx, DWORD PTR [eax]
	mov	esi, esp
	mov	ecx, DWORD PTR tv93[ebp]
	mov	eax, DWORD PTR [edx+12]
	call	eax
	cmp	esi, esp
	call	__RTC_CheckEsp

; 85   :     
; 86   :     delete *it;

	lea	ecx, DWORD PTR _it$136070[ebp]
	call	??D?$_List_iterator@V?$_List_val@PAV?$Goal@VAbstRaven_Bot@@@@V?$allocator@PAV?$Goal@VAbstRaven_Bot@@@@@std@@@std@@@std@@QBEAAPAV?$Goal@VAbstRaven_Bot@@@@XZ ; std::_List_iterator<std::_List_val<Goal<AbstRaven_Bot> *,std::allocator<Goal<AbstRaven_Bot> *> > >::operator*
	mov	ecx, DWORD PTR [eax]
	mov	DWORD PTR $T140213[ebp], ecx
	mov	edx, DWORD PTR $T140213[ebp]
	mov	DWORD PTR $T140212[ebp], edx
	cmp	DWORD PTR $T140212[ebp], 0
	je	SHORT $LN6@RemoveAllS
	mov	esi, esp
	push	1
	mov	eax, DWORD PTR $T140212[ebp]
	mov	edx, DWORD PTR [eax]
	mov	ecx, DWORD PTR $T140212[ebp]
	mov	eax, DWORD PTR [edx]
	call	eax
	cmp	esi, esp
	call	__RTC_CheckEsp
	mov	DWORD PTR tv136[ebp], eax
	jmp	SHORT $LN7@RemoveAllS
$LN6@RemoveAllS:
	mov	DWORD PTR tv136[ebp], 0
$LN7@RemoveAllS:

; 87   :   }

	jmp	$LN2@RemoveAllS
$LN1@RemoveAllS:
	mov	DWORD PTR __$EHRec$[ebp+8], -1
	lea	ecx, DWORD PTR _it$136070[ebp]
	call	??1?$_List_iterator@V?$_List_val@PAV?$Goal@VAbstRaven_Bot@@@@V?$allocator@PAV?$Goal@VAbstRaven_Bot@@@@@std@@@std@@@std@@QAE@XZ

; 88   : 
; 89   :   m_SubGoals.clear();

	mov	ecx, DWORD PTR _this$[ebp]
	add	ecx, 16					; 00000010H
	call	?clear@?$list@PAV?$Goal@VAbstRaven_Bot@@@@V?$allocator@PAV?$Goal@VAbstRaven_Bot@@@@@std@@@std@@QAEXXZ ; std::list<Goal<AbstRaven_Bot> *,std::allocator<Goal<AbstRaven_Bot> *> >::clear

; 90   : }

	push	edx
	mov	ecx, ebp
	push	eax
	lea	edx, DWORD PTR $LN13@RemoveAllS
	call	@_RTC_CheckStackVars@8
	pop	eax
	pop	edx
	mov	ecx, DWORD PTR __$EHRec$[ebp]
	mov	DWORD PTR fs:0, ecx
	pop	ecx
	pop	edi
	pop	esi
	add	esp, 76					; 0000004cH
	cmp	ebp, esp
	call	__RTC_CheckEsp
	mov	esp, ebp
	pop	ebp
	ret	0
$LN13@RemoveAllS:
	DD	1
	DD	$LN12@RemoveAllS
$LN12@RemoveAllS:
	DD	-32					; ffffffe0H
	DD	12					; 0000000cH
	DD	$LN10@RemoveAllS
$LN10@RemoveAllS:
	DB	105					; 00000069H
	DB	116					; 00000074H
	DB	0
_TEXT	ENDS
;	COMDAT text$x
text$x	SEGMENT
__unwindfunclet$?RemoveAllSubgoals@?$Goal_Composite@VAbstRaven_Bot@@@@QAEXXZ$0:
	lea	ecx, DWORD PTR _it$136070[ebp]
	jmp	??1?$_List_iterator@V?$_List_val@PAV?$Goal@VAbstRaven_Bot@@@@V?$allocator@PAV?$Goal@VAbstRaven_Bot@@@@@std@@@std@@@std@@QAE@XZ
__unwindfunclet$?RemoveAllSubgoals@?$Goal_Composite@VAbstRaven_Bot@@@@QAEXXZ$1:
	lea	ecx, DWORD PTR $T140211[ebp]
	jmp	??1?$_List_iterator@V?$_List_val@PAV?$Goal@VAbstRaven_Bot@@@@V?$allocator@PAV?$Goal@VAbstRaven_Bot@@@@@std@@@std@@@std@@QAE@XZ
__ehhandler$?RemoveAllSubgoals@?$Goal_Composite@VAbstRaven_Bot@@@@QAEXXZ:
	mov	edx, DWORD PTR [esp+8]
	lea	eax, DWORD PTR [edx+12]
	mov	ecx, DWORD PTR [edx-76]
	xor	ecx, eax
	call	@__security_check_cookie@4
	mov	eax, OFFSET __ehfuncinfo$?RemoveAllSubgoals@?$Goal_Composite@VAbstRaven_Bot@@@@QAEXXZ
	jmp	___CxxFrameHandler3
text$x	ENDS
?RemoveAllSubgoals@?$Goal_Composite@VAbstRaven_Bot@@@@QAEXXZ ENDP ; Goal_Composite<AbstRaven_Bot>::RemoveAllSubgoals
PUBLIC	??D?$_Revranit@V?$_List_const_iterator@V?$_List_val@PAV?$Goal@VAbstRaven_Bot@@@@V?$allocator@PAV?$Goal@VAbstRaven_Bot@@@@@std@@@std@@@std@@U?$iterator@Ubidirectional_iterator_tag@std@@PAV?$Goal@VAbstRaven_Bot@@@@HPBQAV3@ABQAV3@@2@@std@@QBEABQAV?$Goal@VAbstRaven_Bot@@@@XZ ; std::_Revranit<std::_List_const_iterator<std::_List_val<Goal<AbstRaven_Bot> *,std::allocator<Goal<AbstRaven_Bot> *> > >,std::iterator<std::bidirectional_iterator_tag,Goal<AbstRaven_Bot> *,int,Goal<AbstRaven_Bot> * const *,Goal<AbstRaven_Bot> * const &> >::operator*
PUBLIC	??$?9V?$_List_const_iterator@V?$_List_val@PAV?$Goal@VAbstRaven_Bot@@@@V?$allocator@PAV?$Goal@VAbstRaven_Bot@@@@@std@@@std@@@std@@V01@@std@@YA_NABV?$reverse_iterator@V?$_List_const_iterator@V?$_List_val@PAV?$Goal@VAbstRaven_Bot@@@@V?$allocator@PAV?$Goal@VAbstRaven_Bot@@@@@std@@@std@@@std@@@0@0@Z ; std::operator!=<std::_List_const_iterator<std::_List_val<Goal<AbstRaven_Bot> *,std::allocator<Goal<AbstRaven_Bot> *> > >,std::_List_const_iterator<std::_List_val<Goal<AbstRaven_Bot> *,std::allocator<Goal<AbstRaven_Bot> *> > > >
PUBLIC	?rend@?$list@PAV?$Goal@VAbstRaven_Bot@@@@V?$allocator@PAV?$Goal@VAbstRaven_Bot@@@@@std@@@std@@QBE?AV?$reverse_iterator@V?$_List_const_iterator@V?$_List_val@PAV?$Goal@VAbstRaven_Bot@@@@V?$allocator@PAV?$Goal@VAbstRaven_Bot@@@@@std@@@std@@@std@@@2@XZ ; std::list<Goal<AbstRaven_Bot> *,std::allocator<Goal<AbstRaven_Bot> *> >::rend
PUBLIC	??E?$reverse_iterator@V?$_List_const_iterator@V?$_List_val@PAV?$Goal@VAbstRaven_Bot@@@@V?$allocator@PAV?$Goal@VAbstRaven_Bot@@@@@std@@@std@@@std@@@std@@QAEAAV01@XZ ; std::reverse_iterator<std::_List_const_iterator<std::_List_val<Goal<AbstRaven_Bot> *,std::allocator<Goal<AbstRaven_Bot> *> > > >::operator++
PUBLIC	??1?$reverse_iterator@V?$_List_const_iterator@V?$_List_val@PAV?$Goal@VAbstRaven_Bot@@@@V?$allocator@PAV?$Goal@VAbstRaven_Bot@@@@@std@@@std@@@std@@@std@@QAE@XZ ; std::reverse_iterator<std::_List_const_iterator<std::_List_val<Goal<AbstRaven_Bot> *,std::allocator<Goal<AbstRaven_Bot> *> > > >::~reverse_iterator<std::_List_const_iterator<std::_List_val<Goal<AbstRaven_Bot> *,std::allocator<Goal<AbstRaven_Bot> *> > > >
PUBLIC	??4?$reverse_iterator@V?$_List_const_iterator@V?$_List_val@PAV?$Goal@VAbstRaven_Bot@@@@V?$allocator@PAV?$Goal@VAbstRaven_Bot@@@@@std@@@std@@@std@@@std@@QAEAAV01@ABV01@@Z ; std::reverse_iterator<std::_List_const_iterator<std::_List_val<Goal<AbstRaven_Bot> *,std::allocator<Goal<AbstRaven_Bot> *> > > >::operator=
PUBLIC	?rbegin@?$list@PAV?$Goal@VAbstRaven_Bot@@@@V?$allocator@PAV?$Goal@VAbstRaven_Bot@@@@@std@@@std@@QBE?AV?$reverse_iterator@V?$_List_const_iterator@V?$_List_val@PAV?$Goal@VAbstRaven_Bot@@@@V?$allocator@PAV?$Goal@VAbstRaven_Bot@@@@@std@@@std@@@std@@@2@XZ ; std::list<Goal<AbstRaven_Bot> *,std::allocator<Goal<AbstRaven_Bot> *> >::rbegin
PUBLIC	??0?$reverse_iterator@V?$_List_const_iterator@V?$_List_val@PAV?$Goal@VAbstRaven_Bot@@@@V?$allocator@PAV?$Goal@VAbstRaven_Bot@@@@@std@@@std@@@std@@@std@@QAE@XZ ; std::reverse_iterator<std::_List_const_iterator<std::_List_val<Goal<AbstRaven_Bot> *,std::allocator<Goal<AbstRaven_Bot> *> > > >::reverse_iterator<std::_List_const_iterator<std::_List_val<Goal<AbstRaven_Bot> *,std::allocator<Goal<AbstRaven_Bot> *> > > >
PUBLIC	__real@4024000000000000
;	COMDAT __real@4024000000000000
CONST	SEGMENT
__real@4024000000000000 DQ 04024000000000000r	; 10
CONST	ENDS
;	COMDAT xdata$x
xdata$x	SEGMENT
__unwindtable$?RenderAtPos@?$Goal_Composite@VAbstRaven_Bot@@@@UBEXAAUVector2D@@PAVTypeToString@@@Z DD 0ffffffffH
	DD	FLAT:__unwindfunclet$?RenderAtPos@?$Goal_Composite@VAbstRaven_Bot@@@@UBEXAAUVector2D@@PAVTypeToString@@@Z$0
	DD	00H
	DD	FLAT:__unwindfunclet$?RenderAtPos@?$Goal_Composite@VAbstRaven_Bot@@@@UBEXAAUVector2D@@PAVTypeToString@@@Z$1
	DD	00H
	DD	FLAT:__unwindfunclet$?RenderAtPos@?$Goal_Composite@VAbstRaven_Bot@@@@UBEXAAUVector2D@@PAVTypeToString@@@Z$2
__ehfuncinfo$?RenderAtPos@?$Goal_Composite@VAbstRaven_Bot@@@@UBEXAAUVector2D@@PAVTypeToString@@@Z DD 019930522H
	DD	03H
	DD	FLAT:__unwindtable$?RenderAtPos@?$Goal_Composite@VAbstRaven_Bot@@@@UBEXAAUVector2D@@PAVTypeToString@@@Z
	DD	2 DUP(00H)
	DD	2 DUP(00H)
	DD	00H
	DD	01H
; Function compile flags: /Odtp /RTCsu
xdata$x	ENDS
;	COMDAT ?RenderAtPos@?$Goal_Composite@VAbstRaven_Bot@@@@UBEXAAUVector2D@@PAVTypeToString@@@Z
_TEXT	SEGMENT
tv137 = -84						; size = 4
tv147 = -80						; size = 4
tv148 = -76						; size = 4
tv145 = -72						; size = 4
tv75 = -68						; size = 4
$T140231 = -64						; size = 12
$T140230 = -49						; size = 1
$T140229 = -48						; size = 12
_it$ = -32						; size = 12
_this$ = -16						; size = 4
__$EHRec$ = -12						; size = 12
_pos$ = 8						; size = 4
_tts$ = 12						; size = 4
?RenderAtPos@?$Goal_Composite@VAbstRaven_Bot@@@@UBEXAAUVector2D@@PAVTypeToString@@@Z PROC ; Goal_Composite<AbstRaven_Bot>::RenderAtPos, COMDAT
; _this$ = ecx

; 165  : {

	push	ebp
	mov	ebp, esp
	push	-1
	push	__ehhandler$?RenderAtPos@?$Goal_Composite@VAbstRaven_Bot@@@@UBEXAAUVector2D@@PAVTypeToString@@@Z
	mov	eax, DWORD PTR fs:0
	push	eax
	sub	esp, 72					; 00000048H
	push	esi
	push	edi
	push	ecx
	lea	edi, DWORD PTR [ebp-84]
	mov	ecx, 18					; 00000012H
	mov	eax, -858993460				; ccccccccH
	rep stosd
	pop	ecx
	mov	eax, DWORD PTR ___security_cookie
	xor	eax, ebp
	push	eax
	lea	eax, DWORD PTR __$EHRec$[ebp]
	mov	DWORD PTR fs:0, eax
	mov	DWORD PTR _this$[ebp], ecx

; 166  :   Goal<entity_type>::RenderAtPos(pos, tts);

	mov	eax, DWORD PTR _tts$[ebp]
	push	eax
	mov	ecx, DWORD PTR _pos$[ebp]
	push	ecx
	mov	ecx, DWORD PTR _this$[ebp]
	call	?RenderAtPos@?$Goal@VAbstRaven_Bot@@@@UBEXAAUVector2D@@PAVTypeToString@@@Z ; Goal<AbstRaven_Bot>::RenderAtPos

; 167  : 
; 168  :   pos.x += 10;

	mov	edx, DWORD PTR _pos$[ebp]
	fld	QWORD PTR [edx]
	fadd	QWORD PTR __real@4024000000000000
	mov	eax, DWORD PTR _pos$[ebp]
	fstp	QWORD PTR [eax]

; 169  : 
; 170  :   gdi->TransparentText();

	call	?Instance@Cgdi@@SAPAV1@XZ		; Cgdi::Instance
	mov	ecx, eax
	call	?TransparentText@Cgdi@@QAEXXZ		; Cgdi::TransparentText

; 171  :   SubgoalList::const_reverse_iterator it;

	lea	ecx, DWORD PTR _it$[ebp]
	call	??0?$reverse_iterator@V?$_List_const_iterator@V?$_List_val@PAV?$Goal@VAbstRaven_Bot@@@@V?$allocator@PAV?$Goal@VAbstRaven_Bot@@@@@std@@@std@@@std@@@std@@QAE@XZ ; std::reverse_iterator<std::_List_const_iterator<std::_List_val<Goal<AbstRaven_Bot> *,std::allocator<Goal<AbstRaven_Bot> *> > > >::reverse_iterator<std::_List_const_iterator<std::_List_val<Goal<AbstRaven_Bot> *,std::allocator<Goal<AbstRaven_Bot> *> > > >
	mov	DWORD PTR __$EHRec$[ebp+8], 0

; 172  :   for (it=m_SubGoals.rbegin(); it != m_SubGoals.rend(); ++it)

	lea	ecx, DWORD PTR $T140229[ebp]
	push	ecx
	mov	ecx, DWORD PTR _this$[ebp]
	add	ecx, 16					; 00000010H
	call	?rbegin@?$list@PAV?$Goal@VAbstRaven_Bot@@@@V?$allocator@PAV?$Goal@VAbstRaven_Bot@@@@@std@@@std@@QBE?AV?$reverse_iterator@V?$_List_const_iterator@V?$_List_val@PAV?$Goal@VAbstRaven_Bot@@@@V?$allocator@PAV?$Goal@VAbstRaven_Bot@@@@@std@@@std@@@std@@@2@XZ ; std::list<Goal<AbstRaven_Bot> *,std::allocator<Goal<AbstRaven_Bot> *> >::rbegin
	mov	DWORD PTR tv75[ebp], eax
	mov	edx, DWORD PTR tv75[ebp]
	mov	DWORD PTR tv145[ebp], edx
	mov	BYTE PTR __$EHRec$[ebp+8], 1
	mov	eax, DWORD PTR tv145[ebp]
	push	eax
	lea	ecx, DWORD PTR _it$[ebp]
	call	??4?$reverse_iterator@V?$_List_const_iterator@V?$_List_val@PAV?$Goal@VAbstRaven_Bot@@@@V?$allocator@PAV?$Goal@VAbstRaven_Bot@@@@@std@@@std@@@std@@@std@@QAEAAV01@ABV01@@Z
	mov	BYTE PTR __$EHRec$[ebp+8], 0
	lea	ecx, DWORD PTR $T140229[ebp]
	call	??1?$reverse_iterator@V?$_List_const_iterator@V?$_List_val@PAV?$Goal@VAbstRaven_Bot@@@@V?$allocator@PAV?$Goal@VAbstRaven_Bot@@@@@std@@@std@@@std@@@std@@QAE@XZ
	jmp	SHORT $LN3@RenderAtPo@2
$LN2@RenderAtPo@2:
	lea	ecx, DWORD PTR _it$[ebp]
	call	??E?$reverse_iterator@V?$_List_const_iterator@V?$_List_val@PAV?$Goal@VAbstRaven_Bot@@@@V?$allocator@PAV?$Goal@VAbstRaven_Bot@@@@@std@@@std@@@std@@@std@@QAEAAV01@XZ ; std::reverse_iterator<std::_List_const_iterator<std::_List_val<Goal<AbstRaven_Bot> *,std::allocator<Goal<AbstRaven_Bot> *> > > >::operator++
$LN3@RenderAtPo@2:
	lea	ecx, DWORD PTR $T140231[ebp]
	push	ecx
	mov	ecx, DWORD PTR _this$[ebp]
	add	ecx, 16					; 00000010H
	call	?rend@?$list@PAV?$Goal@VAbstRaven_Bot@@@@V?$allocator@PAV?$Goal@VAbstRaven_Bot@@@@@std@@@std@@QBE?AV?$reverse_iterator@V?$_List_const_iterator@V?$_List_val@PAV?$Goal@VAbstRaven_Bot@@@@V?$allocator@PAV?$Goal@VAbstRaven_Bot@@@@@std@@@std@@@std@@@2@XZ ; std::list<Goal<AbstRaven_Bot> *,std::allocator<Goal<AbstRaven_Bot> *> >::rend
	mov	DWORD PTR tv148[ebp], eax
	mov	edx, DWORD PTR tv148[ebp]
	mov	DWORD PTR tv147[ebp], edx
	mov	BYTE PTR __$EHRec$[ebp+8], 2
	mov	eax, DWORD PTR tv147[ebp]
	push	eax
	lea	ecx, DWORD PTR _it$[ebp]
	push	ecx
	call	??$?9V?$_List_const_iterator@V?$_List_val@PAV?$Goal@VAbstRaven_Bot@@@@V?$allocator@PAV?$Goal@VAbstRaven_Bot@@@@@std@@@std@@@std@@V01@@std@@YA_NABV?$reverse_iterator@V?$_List_const_iterator@V?$_List_val@PAV?$Goal@VAbstRaven_Bot@@@@V?$allocator@PAV?$Goal@VAbstRaven_Bot@@@@@std@@@std@@@std@@@0@0@Z ; std::operator!=<std::_List_const_iterator<std::_List_val<Goal<AbstRaven_Bot> *,std::allocator<Goal<AbstRaven_Bot> *> > >,std::_List_const_iterator<std::_List_val<Goal<AbstRaven_Bot> *,std::allocator<Goal<AbstRaven_Bot> *> > > >
	add	esp, 8
	mov	BYTE PTR $T140230[ebp], al
	mov	BYTE PTR __$EHRec$[ebp+8], 0
	lea	ecx, DWORD PTR $T140231[ebp]
	call	??1?$reverse_iterator@V?$_List_const_iterator@V?$_List_val@PAV?$Goal@VAbstRaven_Bot@@@@V?$allocator@PAV?$Goal@VAbstRaven_Bot@@@@@std@@@std@@@std@@@std@@QAE@XZ
	movzx	edx, BYTE PTR $T140230[ebp]
	test	edx, edx
	je	SHORT $LN1@RenderAtPo@2

; 173  :   {
; 174  :     (*it)->RenderAtPos(pos, tts);

	lea	ecx, DWORD PTR _it$[ebp]
	call	??D?$_Revranit@V?$_List_const_iterator@V?$_List_val@PAV?$Goal@VAbstRaven_Bot@@@@V?$allocator@PAV?$Goal@VAbstRaven_Bot@@@@@std@@@std@@@std@@U?$iterator@Ubidirectional_iterator_tag@std@@PAV?$Goal@VAbstRaven_Bot@@@@HPBQAV3@ABQAV3@@2@@std@@QBEABQAV?$Goal@VAbstRaven_Bot@@@@XZ ; std::_Revranit<std::_List_const_iterator<std::_List_val<Goal<AbstRaven_Bot> *,std::allocator<Goal<AbstRaven_Bot> *> > >,std::iterator<std::bidirectional_iterator_tag,Goal<AbstRaven_Bot> *,int,Goal<AbstRaven_Bot> * const *,Goal<AbstRaven_Bot> * const &> >::operator*
	mov	eax, DWORD PTR [eax]
	mov	DWORD PTR tv137[ebp], eax
	mov	esi, esp
	mov	ecx, DWORD PTR _tts$[ebp]
	push	ecx
	mov	edx, DWORD PTR _pos$[ebp]
	push	edx
	mov	eax, DWORD PTR tv137[ebp]
	mov	edx, DWORD PTR [eax]
	mov	ecx, DWORD PTR tv137[ebp]
	mov	eax, DWORD PTR [edx+24]
	call	eax
	cmp	esi, esp
	call	__RTC_CheckEsp

; 175  :   }

	jmp	SHORT $LN2@RenderAtPo@2
$LN1@RenderAtPo@2:

; 176  : 
; 177  :   pos.x -= 10;

	mov	ecx, DWORD PTR _pos$[ebp]
	fld	QWORD PTR [ecx]
	fsub	QWORD PTR __real@4024000000000000
	mov	edx, DWORD PTR _pos$[ebp]
	fstp	QWORD PTR [edx]

; 178  : }

	mov	DWORD PTR __$EHRec$[ebp+8], -1
	lea	ecx, DWORD PTR _it$[ebp]
	call	??1?$reverse_iterator@V?$_List_const_iterator@V?$_List_val@PAV?$Goal@VAbstRaven_Bot@@@@V?$allocator@PAV?$Goal@VAbstRaven_Bot@@@@@std@@@std@@@std@@@std@@QAE@XZ
	push	edx
	mov	ecx, ebp
	push	eax
	lea	edx, DWORD PTR $LN12@RenderAtPo@2
	call	@_RTC_CheckStackVars@8
	pop	eax
	pop	edx
	mov	ecx, DWORD PTR __$EHRec$[ebp]
	mov	DWORD PTR fs:0, ecx
	pop	ecx
	pop	edi
	pop	esi
	add	esp, 84					; 00000054H
	cmp	ebp, esp
	call	__RTC_CheckEsp
	mov	esp, ebp
	pop	ebp
	ret	8
	npad	3
$LN12@RenderAtPo@2:
	DD	1
	DD	$LN11@RenderAtPo@2
$LN11@RenderAtPo@2:
	DD	-32					; ffffffe0H
	DD	12					; 0000000cH
	DD	$LN9@RenderAtPo@2
$LN9@RenderAtPo@2:
	DB	105					; 00000069H
	DB	116					; 00000074H
	DB	0
_TEXT	ENDS
;	COMDAT text$x
text$x	SEGMENT
__unwindfunclet$?RenderAtPos@?$Goal_Composite@VAbstRaven_Bot@@@@UBEXAAUVector2D@@PAVTypeToString@@@Z$0:
	lea	ecx, DWORD PTR _it$[ebp]
	jmp	??1?$reverse_iterator@V?$_List_const_iterator@V?$_List_val@PAV?$Goal@VAbstRaven_Bot@@@@V?$allocator@PAV?$Goal@VAbstRaven_Bot@@@@@std@@@std@@@std@@@std@@QAE@XZ
__unwindfunclet$?RenderAtPos@?$Goal_Composite@VAbstRaven_Bot@@@@UBEXAAUVector2D@@PAVTypeToString@@@Z$1:
	lea	ecx, DWORD PTR $T140229[ebp]
	jmp	??1?$reverse_iterator@V?$_List_const_iterator@V?$_List_val@PAV?$Goal@VAbstRaven_Bot@@@@V?$allocator@PAV?$Goal@VAbstRaven_Bot@@@@@std@@@std@@@std@@@std@@QAE@XZ
__unwindfunclet$?RenderAtPos@?$Goal_Composite@VAbstRaven_Bot@@@@UBEXAAUVector2D@@PAVTypeToString@@@Z$2:
	lea	ecx, DWORD PTR $T140231[ebp]
	jmp	??1?$reverse_iterator@V?$_List_const_iterator@V?$_List_val@PAV?$Goal@VAbstRaven_Bot@@@@V?$allocator@PAV?$Goal@VAbstRaven_Bot@@@@@std@@@std@@@std@@@std@@QAE@XZ
__ehhandler$?RenderAtPos@?$Goal_Composite@VAbstRaven_Bot@@@@UBEXAAUVector2D@@PAVTypeToString@@@Z:
	mov	edx, DWORD PTR [esp+8]
	lea	eax, DWORD PTR [edx+12]
	mov	ecx, DWORD PTR [edx-84]
	xor	ecx, eax
	call	@__security_check_cookie@4
	mov	eax, OFFSET __ehfuncinfo$?RenderAtPos@?$Goal_Composite@VAbstRaven_Bot@@@@UBEXAAUVector2D@@PAVTypeToString@@@Z
	jmp	___CxxFrameHandler3
text$x	ENDS
?RenderAtPos@?$Goal_Composite@VAbstRaven_Bot@@@@UBEXAAUVector2D@@PAVTypeToString@@@Z ENDP ; Goal_Composite<AbstRaven_Bot>::RenderAtPos
; Function compile flags: /Odtp /RTCsu
;	COMDAT ?Render@?$Goal_Composite@VAbstRaven_Bot@@@@UAEXXZ
_TEXT	SEGMENT
tv74 = -8						; size = 4
_this$ = -4						; size = 4
?Render@?$Goal_Composite@VAbstRaven_Bot@@@@UAEXXZ PROC	; Goal_Composite<AbstRaven_Bot>::Render, COMDAT
; _this$ = ecx

; 182  : {

	push	ebp
	mov	ebp, esp
	sub	esp, 8
	push	esi
	mov	DWORD PTR [ebp-8], -858993460		; ccccccccH
	mov	DWORD PTR [ebp-4], -858993460		; ccccccccH
	mov	DWORD PTR _this$[ebp], ecx

; 183  :   if (!m_SubGoals.empty())

	mov	ecx, DWORD PTR _this$[ebp]
	add	ecx, 16					; 00000010H
	call	?empty@?$list@PAV?$Goal@VAbstRaven_Bot@@@@V?$allocator@PAV?$Goal@VAbstRaven_Bot@@@@@std@@@std@@QBE_NXZ ; std::list<Goal<AbstRaven_Bot> *,std::allocator<Goal<AbstRaven_Bot> *> >::empty
	movzx	eax, al
	test	eax, eax
	jne	SHORT $LN2@Render

; 184  :   {
; 185  :     m_SubGoals.front()->Render();

	mov	ecx, DWORD PTR _this$[ebp]
	add	ecx, 16					; 00000010H
	call	?front@?$list@PAV?$Goal@VAbstRaven_Bot@@@@V?$allocator@PAV?$Goal@VAbstRaven_Bot@@@@@std@@@std@@QAEAAPAV?$Goal@VAbstRaven_Bot@@@@XZ ; std::list<Goal<AbstRaven_Bot> *,std::allocator<Goal<AbstRaven_Bot> *> >::front
	mov	ecx, DWORD PTR [eax]
	mov	DWORD PTR tv74[ebp], ecx
	mov	edx, DWORD PTR tv74[ebp]
	mov	eax, DWORD PTR [edx]
	mov	esi, esp
	mov	ecx, DWORD PTR tv74[ebp]
	mov	edx, DWORD PTR [eax+28]
	call	edx
	cmp	esi, esp
	call	__RTC_CheckEsp
$LN2@Render:

; 186  :   }
; 187  : }

	pop	esi
	add	esp, 8
	cmp	ebp, esp
	call	__RTC_CheckEsp
	mov	esp, ebp
	pop	ebp
	ret	0
?Render@?$Goal_Composite@VAbstRaven_Bot@@@@UAEXXZ ENDP	; Goal_Composite<AbstRaven_Bot>::Render
; Function compile flags: /Odtp /RTCsu
; File c:\program files (x86)\microsoft visual studio 10.0\vc\include\xmemory
_TEXT	ENDS
;	COMDAT ??$?0D@?$allocator@U_Container_proxy@std@@@std@@QAE@ABV?$allocator@D@1@@Z
_TEXT	SEGMENT
_this$ = -4						; size = 4
___formal$ = 8						; size = 4
??$?0D@?$allocator@U_Container_proxy@std@@@std@@QAE@ABV?$allocator@D@1@@Z PROC ; std::allocator<std::_Container_proxy>::allocator<std::_Container_proxy><char>, COMDAT
; _this$ = ecx

; 170  : 		_ALLOCATOR(const _ALLOCATOR<_Other>&) _THROW0()

	push	ebp
	mov	ebp, esp
	push	ecx
	mov	DWORD PTR [ebp-4], -858993460		; ccccccccH
	mov	DWORD PTR _this$[ebp], ecx

; 171  : 		{	// construct from a related allocator (do nothing)
; 172  : 		}

	mov	eax, DWORD PTR _this$[ebp]
	mov	esp, ebp
	pop	ebp
	ret	4
??$?0D@?$allocator@U_Container_proxy@std@@@std@@QAE@ABV?$allocator@D@1@@Z ENDP ; std::allocator<std::_Container_proxy>::allocator<std::_Container_proxy><char>
_TEXT	ENDS
PUBLIC	?construct@?$allocator@U_Container_proxy@std@@@std@@QAEXPAU_Container_proxy@2@$$QAU32@@Z ; std::allocator<std::_Container_proxy>::construct
PUBLIC	??$forward@U_Container_proxy@std@@@std@@YA$$QAU_Container_proxy@0@AAU10@@Z ; std::forward<std::_Container_proxy>
; Function compile flags: /Odtp /RTCsu
;	COMDAT ??$_Cons_val@V?$allocator@U_Container_proxy@std@@@std@@U_Container_proxy@2@U32@@std@@YAXAAV?$allocator@U_Container_proxy@std@@@0@PAU_Container_proxy@0@$$QAU20@@Z
_TEXT	SEGMENT
__Alval$ = 8						; size = 4
__Pdest$ = 12						; size = 4
__Src$ = 16						; size = 4
??$_Cons_val@V?$allocator@U_Container_proxy@std@@@std@@U_Container_proxy@2@U32@@std@@YAXAAV?$allocator@U_Container_proxy@std@@@0@PAU_Container_proxy@0@$$QAU20@@Z PROC ; std::_Cons_val<std::allocator<std::_Container_proxy>,std::_Container_proxy,std::_Container_proxy>, COMDAT

; 279  : 	{	// construct using allocator

	push	ebp
	mov	ebp, esp

; 280  : 	_Alval.construct(_Pdest, _STD forward<_Ty2>(_Src));

	mov	eax, DWORD PTR __Src$[ebp]
	push	eax
	call	??$forward@U_Container_proxy@std@@@std@@YA$$QAU_Container_proxy@0@AAU10@@Z ; std::forward<std::_Container_proxy>
	add	esp, 4
	push	eax
	mov	ecx, DWORD PTR __Pdest$[ebp]
	push	ecx
	mov	ecx, DWORD PTR __Alval$[ebp]
	call	?construct@?$allocator@U_Container_proxy@std@@@std@@QAEXPAU_Container_proxy@2@$$QAU32@@Z ; std::allocator<std::_Container_proxy>::construct

; 281  : 	}

	cmp	ebp, esp
	call	__RTC_CheckEsp
	pop	ebp
	ret	0
??$_Cons_val@V?$allocator@U_Container_proxy@std@@@std@@U_Container_proxy@2@U32@@std@@YAXAAV?$allocator@U_Container_proxy@std@@@0@PAU_Container_proxy@0@$$QAU20@@Z ENDP ; std::_Cons_val<std::allocator<std::_Container_proxy>,std::_Container_proxy,std::_Container_proxy>
_TEXT	ENDS
PUBLIC	?destroy@?$allocator@U_Container_proxy@std@@@std@@QAEXPAU_Container_proxy@2@@Z ; std::allocator<std::_Container_proxy>::destroy
; Function compile flags: /Odtp /RTCsu
;	COMDAT ??$_Dest_val@V?$allocator@U_Container_proxy@std@@@std@@U_Container_proxy@2@@std@@YAXAAV?$allocator@U_Container_proxy@std@@@0@PAU_Container_proxy@0@@Z
_TEXT	SEGMENT
__Alval$ = 8						; size = 4
__Pdest$ = 12						; size = 4
??$_Dest_val@V?$allocator@U_Container_proxy@std@@@std@@U_Container_proxy@2@@std@@YAXAAV?$allocator@U_Container_proxy@std@@@0@PAU_Container_proxy@0@@Z PROC ; std::_Dest_val<std::allocator<std::_Container_proxy>,std::_Container_proxy>, COMDAT

; 286  : 	{	// destroy using allocator

	push	ebp
	mov	ebp, esp

; 287  : 	_Alval.destroy(_Pdest);

	mov	eax, DWORD PTR __Pdest$[ebp]
	push	eax
	mov	ecx, DWORD PTR __Alval$[ebp]
	call	?destroy@?$allocator@U_Container_proxy@std@@@std@@QAEXPAU_Container_proxy@2@@Z ; std::allocator<std::_Container_proxy>::destroy

; 288  : 	}

	cmp	ebp, esp
	call	__RTC_CheckEsp
	pop	ebp
	ret	0
??$_Dest_val@V?$allocator@U_Container_proxy@std@@@std@@U_Container_proxy@2@@std@@YAXAAV?$allocator@U_Container_proxy@std@@@0@PAU_Container_proxy@0@@Z ENDP ; std::_Dest_val<std::allocator<std::_Container_proxy>,std::_Container_proxy>
_TEXT	ENDS
PUBLIC	__TI2?AVbad_alloc@std@@
PUBLIC	??0bad_alloc@std@@QAE@PBD@Z			; std::bad_alloc::bad_alloc
PUBLIC	??1bad_alloc@std@@UAE@XZ			; std::bad_alloc::~bad_alloc
PUBLIC	__CTA2?AVbad_alloc@std@@
PUBLIC	__CT??_R0?AVbad_alloc@std@@@8??0bad_alloc@std@@QAE@ABV01@@Z12
PUBLIC	??_R0?AVbad_alloc@std@@@8			; std::bad_alloc `RTTI Type Descriptor'
PUBLIC	??0bad_alloc@std@@QAE@ABV01@@Z			; std::bad_alloc::bad_alloc
;	COMDAT ??_R0?AVbad_alloc@std@@@8
_DATA	SEGMENT
??_R0?AVbad_alloc@std@@@8 DD FLAT:??_7type_info@@6B@	; std::bad_alloc `RTTI Type Descriptor'
	DD	00H
	DB	'.?AVbad_alloc@std@@', 00H
_DATA	ENDS
;	COMDAT __CT??_R0?AVbad_alloc@std@@@8??0bad_alloc@std@@QAE@ABV01@@Z12
xdata$x	SEGMENT
__CT??_R0?AVbad_alloc@std@@@8??0bad_alloc@std@@QAE@ABV01@@Z12 DD 00H
	DD	FLAT:??_R0?AVbad_alloc@std@@@8
	DD	00H
	DD	0ffffffffH
	ORG $+4
	DD	0cH
	DD	FLAT:??0bad_alloc@std@@QAE@ABV01@@Z
xdata$x	ENDS
;	COMDAT __CTA2?AVbad_alloc@std@@
xdata$x	SEGMENT
__CTA2?AVbad_alloc@std@@ DD 02H
	DD	FLAT:__CT??_R0?AVbad_alloc@std@@@8??0bad_alloc@std@@QAE@ABV01@@Z12
	DD	FLAT:__CT??_R0?AVexception@std@@@8??0exception@std@@QAE@ABV01@@Z12
xdata$x	ENDS
;	COMDAT __TI2?AVbad_alloc@std@@
xdata$x	SEGMENT
__TI2?AVbad_alloc@std@@ DD 00H
	DD	FLAT:??1bad_alloc@std@@UAE@XZ
	DD	00H
	DD	FLAT:__CTA2?AVbad_alloc@std@@
; Function compile flags: /Odtp /RTCsu
xdata$x	ENDS
;	COMDAT ??$_Allocate@U_Container_proxy@std@@@std@@YAPAU_Container_proxy@0@IPAU10@@Z
_TEXT	SEGMENT
$T140256 = -16						; size = 12
__Ptr$ = -4						; size = 4
__Count$ = 8						; size = 4
___formal$ = 12						; size = 4
??$_Allocate@U_Container_proxy@std@@@std@@YAPAU_Container_proxy@0@IPAU10@@Z PROC ; std::_Allocate<std::_Container_proxy>, COMDAT

; 30   : 	{	// allocate storage for _Count elements of type _Ty

	push	ebp
	mov	ebp, esp
	sub	esp, 16					; 00000010H
	mov	eax, -858993460				; ccccccccH
	mov	DWORD PTR [ebp-16], eax
	mov	DWORD PTR [ebp-12], eax
	mov	DWORD PTR [ebp-8], eax
	mov	DWORD PTR [ebp-4], eax

; 31   : 	void *_Ptr = 0;

	mov	DWORD PTR __Ptr$[ebp], 0

; 32   : 
; 33   : 	if (_Count <= 0)

	cmp	DWORD PTR __Count$[ebp], 0
	ja	SHORT $LN4@Allocate

; 34   : 		_Count = 0;

	mov	DWORD PTR __Count$[ebp], 0

; 35   : 	else if (((_SIZT)(-1) / sizeof (_Ty) < _Count)

	jmp	SHORT $LN3@Allocate
$LN4@Allocate:

; 36   : 		|| (_Ptr = ::operator new(_Count * sizeof (_Ty))) == 0)

	cmp	DWORD PTR __Count$[ebp], 536870911	; 1fffffffH
	ja	SHORT $LN1@Allocate
	mov	eax, DWORD PTR __Count$[ebp]
	shl	eax, 3
	push	eax
	call	??2@YAPAXI@Z				; operator new
	add	esp, 4
	mov	DWORD PTR __Ptr$[ebp], eax
	cmp	DWORD PTR __Ptr$[ebp], 0
	jne	SHORT $LN3@Allocate
$LN1@Allocate:

; 37   : 		_THROW_NCEE(bad_alloc, 0);

	push	0
	lea	ecx, DWORD PTR $T140256[ebp]
	call	??0bad_alloc@std@@QAE@PBD@Z		; std::bad_alloc::bad_alloc
	push	OFFSET __TI2?AVbad_alloc@std@@
	lea	ecx, DWORD PTR $T140256[ebp]
	push	ecx
	call	__CxxThrowException@8
$LN3@Allocate:

; 38   : 
; 39   : 	return ((_Ty _FARQ *)_Ptr);

	mov	eax, DWORD PTR __Ptr$[ebp]
$LN6@Allocate:

; 40   : 	}

	add	esp, 16					; 00000010H
	cmp	ebp, esp
	call	__RTC_CheckEsp
	mov	esp, ebp
	pop	ebp
	ret	0
??$_Allocate@U_Container_proxy@std@@@std@@YAPAU_Container_proxy@0@IPAU10@@Z ENDP ; std::_Allocate<std::_Container_proxy>
_TEXT	ENDS
PUBLIC	??_7bad_alloc@std@@6B@				; std::bad_alloc::`vftable'
PUBLIC	??_R4bad_alloc@std@@6B@				; std::bad_alloc::`RTTI Complete Object Locator'
PUBLIC	??_R3bad_alloc@std@@8				; std::bad_alloc::`RTTI Class Hierarchy Descriptor'
PUBLIC	??_R2bad_alloc@std@@8				; std::bad_alloc::`RTTI Base Class Array'
PUBLIC	??_R1A@?0A@EA@bad_alloc@std@@8			; std::bad_alloc::`RTTI Base Class Descriptor at (0,-1,0,64)'
EXTRN	??_Ebad_alloc@std@@UAEPAXI@Z:PROC		; std::bad_alloc::`vector deleting destructor'
;	COMDAT ??_R1A@?0A@EA@bad_alloc@std@@8
; File c:\program files (x86)\microsoft visual studio 10.0\vc\include\exception
rdata$r	SEGMENT
??_R1A@?0A@EA@bad_alloc@std@@8 DD FLAT:??_R0?AVbad_alloc@std@@@8 ; std::bad_alloc::`RTTI Base Class Descriptor at (0,-1,0,64)'
	DD	01H
	DD	00H
	DD	0ffffffffH
	DD	00H
	DD	040H
	DD	FLAT:??_R3bad_alloc@std@@8
rdata$r	ENDS
;	COMDAT ??_R2bad_alloc@std@@8
rdata$r	SEGMENT
??_R2bad_alloc@std@@8 DD FLAT:??_R1A@?0A@EA@bad_alloc@std@@8 ; std::bad_alloc::`RTTI Base Class Array'
	DD	FLAT:??_R1A@?0A@EA@exception@std@@8
rdata$r	ENDS
;	COMDAT ??_R3bad_alloc@std@@8
rdata$r	SEGMENT
??_R3bad_alloc@std@@8 DD 00H				; std::bad_alloc::`RTTI Class Hierarchy Descriptor'
	DD	00H
	DD	02H
	DD	FLAT:??_R2bad_alloc@std@@8
rdata$r	ENDS
;	COMDAT ??_R4bad_alloc@std@@6B@
rdata$r	SEGMENT
??_R4bad_alloc@std@@6B@ DD 00H				; std::bad_alloc::`RTTI Complete Object Locator'
	DD	00H
	DD	00H
	DD	FLAT:??_R0?AVbad_alloc@std@@@8
	DD	FLAT:??_R3bad_alloc@std@@8
rdata$r	ENDS
;	COMDAT ??_7bad_alloc@std@@6B@
CONST	SEGMENT
??_7bad_alloc@std@@6B@ DD FLAT:??_R4bad_alloc@std@@6B@	; std::bad_alloc::`vftable'
	DD	FLAT:??_Ebad_alloc@std@@UAEPAXI@Z
	DD	FLAT:?what@exception@std@@UBEPBDXZ
; Function compile flags: /Odtp /RTCsu
CONST	ENDS
;	COMDAT ??0bad_alloc@std@@QAE@PBD@Z
_TEXT	SEGMENT
_this$ = -4						; size = 4
__Message$ = 8						; size = 4
??0bad_alloc@std@@QAE@PBD@Z PROC			; std::bad_alloc::bad_alloc, COMDAT
; _this$ = ecx

; 345  : 		{	// construct from message string

	push	ebp
	mov	ebp, esp
	push	ecx
	mov	DWORD PTR [ebp-4], -858993460		; ccccccccH
	mov	DWORD PTR _this$[ebp], ecx
	lea	eax, DWORD PTR __Message$[ebp]
	push	eax
	mov	ecx, DWORD PTR _this$[ebp]
	call	??0exception@std@@QAE@ABQBD@Z		; std::exception::exception
	mov	ecx, DWORD PTR _this$[ebp]
	mov	DWORD PTR [ecx], OFFSET ??_7bad_alloc@std@@6B@

; 346  : 		}

	mov	eax, DWORD PTR _this$[ebp]
	add	esp, 4
	cmp	ebp, esp
	call	__RTC_CheckEsp
	mov	esp, ebp
	pop	ebp
	ret	4
??0bad_alloc@std@@QAE@PBD@Z ENDP			; std::bad_alloc::bad_alloc
; Function compile flags: /Odtp /RTCsu
_TEXT	ENDS
;	COMDAT ??1bad_alloc@std@@UAE@XZ
_TEXT	SEGMENT
_this$ = -4						; size = 4
??1bad_alloc@std@@UAE@XZ PROC				; std::bad_alloc::~bad_alloc, COMDAT
; _this$ = ecx

; 354  : 		{	// destroy the object

	push	ebp
	mov	ebp, esp
	push	ecx
	mov	DWORD PTR [ebp-4], -858993460		; ccccccccH
	mov	DWORD PTR _this$[ebp], ecx
	mov	eax, DWORD PTR _this$[ebp]
	mov	DWORD PTR [eax], OFFSET ??_7bad_alloc@std@@6B@

; 355  : 		}

	mov	ecx, DWORD PTR _this$[ebp]
	call	??1exception@std@@UAE@XZ		; std::exception::~exception
	add	esp, 4
	cmp	ebp, esp
	call	__RTC_CheckEsp
	mov	esp, ebp
	pop	ebp
	ret	0
??1bad_alloc@std@@UAE@XZ ENDP				; std::bad_alloc::~bad_alloc
; Function compile flags: /Odtp /RTCsu
_TEXT	ENDS
;	COMDAT ??_Gbad_alloc@std@@UAEPAXI@Z
_TEXT	SEGMENT
_this$ = -4						; size = 4
___flags$ = 8						; size = 4
??_Gbad_alloc@std@@UAEPAXI@Z PROC			; std::bad_alloc::`scalar deleting destructor', COMDAT
; _this$ = ecx
	push	ebp
	mov	ebp, esp
	push	ecx
	mov	DWORD PTR [ebp-4], -858993460		; ccccccccH
	mov	DWORD PTR _this$[ebp], ecx
	mov	ecx, DWORD PTR _this$[ebp]
	call	??1bad_alloc@std@@UAE@XZ		; std::bad_alloc::~bad_alloc
	mov	eax, DWORD PTR ___flags$[ebp]
	and	eax, 1
	je	SHORT $LN1@scalar@6
	mov	ecx, DWORD PTR _this$[ebp]
	push	ecx
	call	??3@YAXPAX@Z				; operator delete
	add	esp, 4
$LN1@scalar@6:
	mov	eax, DWORD PTR _this$[ebp]
	add	esp, 4
	cmp	ebp, esp
	call	__RTC_CheckEsp
	mov	esp, ebp
	pop	ebp
	ret	4
??_Gbad_alloc@std@@UAEPAXI@Z ENDP			; std::bad_alloc::`scalar deleting destructor'
_TEXT	ENDS
PUBLIC	?destroy@?$allocator@U_Node@?$_List_nod@PAV?$Goal@VAbstRaven_Bot@@@@V?$allocator@PAV?$Goal@VAbstRaven_Bot@@@@@std@@@std@@@std@@QAEXPAU_Node@?$_List_nod@PAV?$Goal@VAbstRaven_Bot@@@@V?$allocator@PAV?$Goal@VAbstRaven_Bot@@@@@std@@@2@@Z ; std::allocator<std::_List_nod<Goal<AbstRaven_Bot> *,std::allocator<Goal<AbstRaven_Bot> *> >::_Node>::destroy
; Function compile flags: /Odtp /RTCsu
; File c:\program files (x86)\microsoft visual studio 10.0\vc\include\xmemory
;	COMDAT ??$_Dest_val@V?$allocator@U_Node@?$_List_nod@PAV?$Goal@VAbstRaven_Bot@@@@V?$allocator@PAV?$Goal@VAbstRaven_Bot@@@@@std@@@std@@@std@@U_Node@?$_List_nod@PAV?$Goal@VAbstRaven_Bot@@@@V?$allocator@PAV?$Goal@VAbstRaven_Bot@@@@@std@@@2@@std@@YAXAAV?$allocator@U_Node@?$_List_nod@PAV?$Goal@VAbstRaven_Bot@@@@V?$allocator@PAV?$Goal@VAbstRaven_Bot@@@@@std@@@std@@@0@PAU_Node@?$_List_nod@PAV?$Goal@VAbstRaven_Bot@@@@V?$allocator@PAV?$Goal@VAbstRaven_Bot@@@@@std@@@0@@Z
_TEXT	SEGMENT
__Alval$ = 8						; size = 4
__Pdest$ = 12						; size = 4
??$_Dest_val@V?$allocator@U_Node@?$_List_nod@PAV?$Goal@VAbstRaven_Bot@@@@V?$allocator@PAV?$Goal@VAbstRaven_Bot@@@@@std@@@std@@@std@@U_Node@?$_List_nod@PAV?$Goal@VAbstRaven_Bot@@@@V?$allocator@PAV?$Goal@VAbstRaven_Bot@@@@@std@@@2@@std@@YAXAAV?$allocator@U_Node@?$_List_nod@PAV?$Goal@VAbstRaven_Bot@@@@V?$allocator@PAV?$Goal@VAbstRaven_Bot@@@@@std@@@std@@@0@PAU_Node@?$_List_nod@PAV?$Goal@VAbstRaven_Bot@@@@V?$allocator@PAV?$Goal@VAbstRaven_Bot@@@@@std@@@0@@Z PROC ; std::_Dest_val<std::allocator<std::_List_nod<Goal<AbstRaven_Bot> *,std::allocator<Goal<AbstRaven_Bot> *> >::_Node>,std::_List_nod<Goal<AbstRaven_Bot> *,std::allocator<Goal<AbstRaven_Bot> *> >::_Node>, COMDAT

; 286  : 	{	// destroy using allocator

	push	ebp
	mov	ebp, esp

; 287  : 	_Alval.destroy(_Pdest);

	mov	eax, DWORD PTR __Pdest$[ebp]
	push	eax
	mov	ecx, DWORD PTR __Alval$[ebp]
	call	?destroy@?$allocator@U_Node@?$_List_nod@PAV?$Goal@VAbstRaven_Bot@@@@V?$allocator@PAV?$Goal@VAbstRaven_Bot@@@@@std@@@std@@@std@@QAEXPAU_Node@?$_List_nod@PAV?$Goal@VAbstRaven_Bot@@@@V?$allocator@PAV?$Goal@VAbstRaven_Bot@@@@@std@@@2@@Z ; std::allocator<std::_List_nod<Goal<AbstRaven_Bot> *,std::allocator<Goal<AbstRaven_Bot> *> >::_Node>::destroy

; 288  : 	}

	cmp	ebp, esp
	call	__RTC_CheckEsp
	pop	ebp
	ret	0
??$_Dest_val@V?$allocator@U_Node@?$_List_nod@PAV?$Goal@VAbstRaven_Bot@@@@V?$allocator@PAV?$Goal@VAbstRaven_Bot@@@@@std@@@std@@@std@@U_Node@?$_List_nod@PAV?$Goal@VAbstRaven_Bot@@@@V?$allocator@PAV?$Goal@VAbstRaven_Bot@@@@@std@@@2@@std@@YAXAAV?$allocator@U_Node@?$_List_nod@PAV?$Goal@VAbstRaven_Bot@@@@V?$allocator@PAV?$Goal@VAbstRaven_Bot@@@@@std@@@std@@@0@PAU_Node@?$_List_nod@PAV?$Goal@VAbstRaven_Bot@@@@V?$allocator@PAV?$Goal@VAbstRaven_Bot@@@@@std@@@0@@Z ENDP ; std::_Dest_val<std::allocator<std::_List_nod<Goal<AbstRaven_Bot> *,std::allocator<Goal<AbstRaven_Bot> *> >::_Node>,std::_List_nod<Goal<AbstRaven_Bot> *,std::allocator<Goal<AbstRaven_Bot> *> >::_Node>
; Function compile flags: /Odtp /RTCsu
_TEXT	ENDS
;	COMDAT ??$?0PAV?$Goal@VAbstRaven_Bot@@@@@?$allocator@U_Node@?$_List_nod@PAV?$Goal@VAbstRaven_Bot@@@@V?$allocator@PAV?$Goal@VAbstRaven_Bot@@@@@std@@@std@@@std@@QAE@ABV?$allocator@PAV?$Goal@VAbstRaven_Bot@@@@@1@@Z
_TEXT	SEGMENT
_this$ = -4						; size = 4
___formal$ = 8						; size = 4
??$?0PAV?$Goal@VAbstRaven_Bot@@@@@?$allocator@U_Node@?$_List_nod@PAV?$Goal@VAbstRaven_Bot@@@@V?$allocator@PAV?$Goal@VAbstRaven_Bot@@@@@std@@@std@@@std@@QAE@ABV?$allocator@PAV?$Goal@VAbstRaven_Bot@@@@@1@@Z PROC ; std::allocator<std::_List_nod<Goal<AbstRaven_Bot> *,std::allocator<Goal<AbstRaven_Bot> *> >::_Node>::allocator<std::_List_nod<Goal<AbstRaven_Bot> *,std::allocator<Goal<AbstRaven_Bot> *> >::_Node><Goal<AbstRaven_Bot> *>, COMDAT
; _this$ = ecx

; 170  : 		_ALLOCATOR(const _ALLOCATOR<_Other>&) _THROW0()

	push	ebp
	mov	ebp, esp
	push	ecx
	mov	DWORD PTR [ebp-4], -858993460		; ccccccccH
	mov	DWORD PTR _this$[ebp], ecx

; 171  : 		{	// construct from a related allocator (do nothing)
; 172  : 		}

	mov	eax, DWORD PTR _this$[ebp]
	mov	esp, ebp
	pop	ebp
	ret	4
??$?0PAV?$Goal@VAbstRaven_Bot@@@@@?$allocator@U_Node@?$_List_nod@PAV?$Goal@VAbstRaven_Bot@@@@V?$allocator@PAV?$Goal@VAbstRaven_Bot@@@@@std@@@std@@@std@@QAE@ABV?$allocator@PAV?$Goal@VAbstRaven_Bot@@@@@1@@Z ENDP ; std::allocator<std::_List_nod<Goal<AbstRaven_Bot> *,std::allocator<Goal<AbstRaven_Bot> *> >::_Node>::allocator<std::_List_nod<Goal<AbstRaven_Bot> *,std::allocator<Goal<AbstRaven_Bot> *> >::_Node><Goal<AbstRaven_Bot> *>
; Function compile flags: /Odtp /RTCsu
_TEXT	ENDS
;	COMDAT ??$?0U_Node@?$_List_nod@PAV?$Goal@VAbstRaven_Bot@@@@V?$allocator@PAV?$Goal@VAbstRaven_Bot@@@@@std@@@std@@@?$allocator@U_Container_proxy@std@@@std@@QAE@ABV?$allocator@U_Node@?$_List_nod@PAV?$Goal@VAbstRaven_Bot@@@@V?$allocator@PAV?$Goal@VAbstRaven_Bot@@@@@std@@@std@@@1@@Z
_TEXT	SEGMENT
_this$ = -4						; size = 4
___formal$ = 8						; size = 4
??$?0U_Node@?$_List_nod@PAV?$Goal@VAbstRaven_Bot@@@@V?$allocator@PAV?$Goal@VAbstRaven_Bot@@@@@std@@@std@@@?$allocator@U_Container_proxy@std@@@std@@QAE@ABV?$allocator@U_Node@?$_List_nod@PAV?$Goal@VAbstRaven_Bot@@@@V?$allocator@PAV?$Goal@VAbstRaven_Bot@@@@@std@@@std@@@1@@Z PROC ; std::allocator<std::_Container_proxy>::allocator<std::_Container_proxy><std::_List_nod<Goal<AbstRaven_Bot> *,std::allocator<Goal<AbstRaven_Bot> *> >::_Node>, COMDAT
; _this$ = ecx

; 170  : 		_ALLOCATOR(const _ALLOCATOR<_Other>&) _THROW0()

	push	ebp
	mov	ebp, esp
	push	ecx
	mov	DWORD PTR [ebp-4], -858993460		; ccccccccH
	mov	DWORD PTR _this$[ebp], ecx

; 171  : 		{	// construct from a related allocator (do nothing)
; 172  : 		}

	mov	eax, DWORD PTR _this$[ebp]
	mov	esp, ebp
	pop	ebp
	ret	4
??$?0U_Node@?$_List_nod@PAV?$Goal@VAbstRaven_Bot@@@@V?$allocator@PAV?$Goal@VAbstRaven_Bot@@@@@std@@@std@@@?$allocator@U_Container_proxy@std@@@std@@QAE@ABV?$allocator@U_Node@?$_List_nod@PAV?$Goal@VAbstRaven_Bot@@@@V?$allocator@PAV?$Goal@VAbstRaven_Bot@@@@@std@@@std@@@1@@Z ENDP ; std::allocator<std::_Container_proxy>::allocator<std::_Container_proxy><std::_List_nod<Goal<AbstRaven_Bot> *,std::allocator<Goal<AbstRaven_Bot> *> >::_Node>
; Function compile flags: /Odtp /RTCsu
_TEXT	ENDS
;	COMDAT ??$_Allocate@U_Node@?$_List_nod@PAV?$Goal@VAbstRaven_Bot@@@@V?$allocator@PAV?$Goal@VAbstRaven_Bot@@@@@std@@@std@@@std@@YAPAU_Node@?$_List_nod@PAV?$Goal@VAbstRaven_Bot@@@@V?$allocator@PAV?$Goal@VAbstRaven_Bot@@@@@std@@@0@IPAU120@@Z
_TEXT	SEGMENT
$T140271 = -16						; size = 12
__Ptr$ = -4						; size = 4
__Count$ = 8						; size = 4
___formal$ = 12						; size = 4
??$_Allocate@U_Node@?$_List_nod@PAV?$Goal@VAbstRaven_Bot@@@@V?$allocator@PAV?$Goal@VAbstRaven_Bot@@@@@std@@@std@@@std@@YAPAU_Node@?$_List_nod@PAV?$Goal@VAbstRaven_Bot@@@@V?$allocator@PAV?$Goal@VAbstRaven_Bot@@@@@std@@@0@IPAU120@@Z PROC ; std::_Allocate<std::_List_nod<Goal<AbstRaven_Bot> *,std::allocator<Goal<AbstRaven_Bot> *> >::_Node>, COMDAT

; 30   : 	{	// allocate storage for _Count elements of type _Ty

	push	ebp
	mov	ebp, esp
	sub	esp, 16					; 00000010H
	mov	eax, -858993460				; ccccccccH
	mov	DWORD PTR [ebp-16], eax
	mov	DWORD PTR [ebp-12], eax
	mov	DWORD PTR [ebp-8], eax
	mov	DWORD PTR [ebp-4], eax

; 31   : 	void *_Ptr = 0;

	mov	DWORD PTR __Ptr$[ebp], 0

; 32   : 
; 33   : 	if (_Count <= 0)

	cmp	DWORD PTR __Count$[ebp], 0
	ja	SHORT $LN4@Allocate@2

; 34   : 		_Count = 0;

	mov	DWORD PTR __Count$[ebp], 0

; 35   : 	else if (((_SIZT)(-1) / sizeof (_Ty) < _Count)

	jmp	SHORT $LN3@Allocate@2
$LN4@Allocate@2:

