; Listing generated by Microsoft (R) Optimizing Compiler Version 16.00.40219.01 

	TITLE	C:\Users\Teaja\Documents\Artificial-Fun\LabRavenProjectTest\Raven\GraveMarkers.cpp
	.686P
	.XMM
	include listing.inc
	.model	flat

INCLUDELIB LIBCMTD
INCLUDELIB OLDNAMES

PUBLIC	?has_denorm@_Num_base@std@@2W4float_denorm_style@2@B ; std::_Num_base::has_denorm
PUBLIC	?has_denorm_loss@_Num_base@std@@2_NB		; std::_Num_base::has_denorm_loss
PUBLIC	?has_infinity@_Num_base@std@@2_NB		; std::_Num_base::has_infinity
PUBLIC	?has_quiet_NaN@_Num_base@std@@2_NB		; std::_Num_base::has_quiet_NaN
PUBLIC	?has_signaling_NaN@_Num_base@std@@2_NB		; std::_Num_base::has_signaling_NaN
PUBLIC	?is_bounded@_Num_base@std@@2_NB			; std::_Num_base::is_bounded
PUBLIC	?is_exact@_Num_base@std@@2_NB			; std::_Num_base::is_exact
PUBLIC	?is_iec559@_Num_base@std@@2_NB			; std::_Num_base::is_iec559
PUBLIC	?is_integer@_Num_base@std@@2_NB			; std::_Num_base::is_integer
PUBLIC	?is_modulo@_Num_base@std@@2_NB			; std::_Num_base::is_modulo
PUBLIC	?is_signed@_Num_base@std@@2_NB			; std::_Num_base::is_signed
PUBLIC	?is_specialized@_Num_base@std@@2_NB		; std::_Num_base::is_specialized
PUBLIC	?tinyness_before@_Num_base@std@@2_NB		; std::_Num_base::tinyness_before
PUBLIC	?traps@_Num_base@std@@2_NB			; std::_Num_base::traps
PUBLIC	?round_style@_Num_base@std@@2W4float_round_style@2@B ; std::_Num_base::round_style
PUBLIC	?digits@_Num_base@std@@2HB			; std::_Num_base::digits
PUBLIC	?digits10@_Num_base@std@@2HB			; std::_Num_base::digits10
PUBLIC	?max_digits10@_Num_base@std@@2HB		; std::_Num_base::max_digits10
PUBLIC	?max_exponent@_Num_base@std@@2HB		; std::_Num_base::max_exponent
PUBLIC	?max_exponent10@_Num_base@std@@2HB		; std::_Num_base::max_exponent10
PUBLIC	?min_exponent@_Num_base@std@@2HB		; std::_Num_base::min_exponent
PUBLIC	?min_exponent10@_Num_base@std@@2HB		; std::_Num_base::min_exponent10
PUBLIC	?radix@_Num_base@std@@2HB			; std::_Num_base::radix
PUBLIC	?is_bounded@_Num_int_base@std@@2_NB		; std::_Num_int_base::is_bounded
PUBLIC	?is_exact@_Num_int_base@std@@2_NB		; std::_Num_int_base::is_exact
PUBLIC	?is_integer@_Num_int_base@std@@2_NB		; std::_Num_int_base::is_integer
PUBLIC	?is_modulo@_Num_int_base@std@@2_NB		; std::_Num_int_base::is_modulo
PUBLIC	?is_specialized@_Num_int_base@std@@2_NB		; std::_Num_int_base::is_specialized
PUBLIC	?radix@_Num_int_base@std@@2HB			; std::_Num_int_base::radix
PUBLIC	?has_denorm@_Num_float_base@std@@2W4float_denorm_style@2@B ; std::_Num_float_base::has_denorm
PUBLIC	?has_denorm_loss@_Num_float_base@std@@2_NB	; std::_Num_float_base::has_denorm_loss
PUBLIC	?has_infinity@_Num_float_base@std@@2_NB		; std::_Num_float_base::has_infinity
PUBLIC	?has_quiet_NaN@_Num_float_base@std@@2_NB	; std::_Num_float_base::has_quiet_NaN
PUBLIC	?has_signaling_NaN@_Num_float_base@std@@2_NB	; std::_Num_float_base::has_signaling_NaN
PUBLIC	?is_bounded@_Num_float_base@std@@2_NB		; std::_Num_float_base::is_bounded
PUBLIC	?is_exact@_Num_float_base@std@@2_NB		; std::_Num_float_base::is_exact
PUBLIC	?is_iec559@_Num_float_base@std@@2_NB		; std::_Num_float_base::is_iec559
PUBLIC	?is_integer@_Num_float_base@std@@2_NB		; std::_Num_float_base::is_integer
PUBLIC	?is_modulo@_Num_float_base@std@@2_NB		; std::_Num_float_base::is_modulo
PUBLIC	?is_signed@_Num_float_base@std@@2_NB		; std::_Num_float_base::is_signed
PUBLIC	?is_specialized@_Num_float_base@std@@2_NB	; std::_Num_float_base::is_specialized
PUBLIC	?tinyness_before@_Num_float_base@std@@2_NB	; std::_Num_float_base::tinyness_before
PUBLIC	?traps@_Num_float_base@std@@2_NB		; std::_Num_float_base::traps
PUBLIC	?round_style@_Num_float_base@std@@2W4float_round_style@2@B ; std::_Num_float_base::round_style
PUBLIC	?radix@_Num_float_base@std@@2HB			; std::_Num_float_base::radix
PUBLIC	?is_signed@?$numeric_limits@D@std@@2_NB		; std::numeric_limits<char>::is_signed
PUBLIC	?digits@?$numeric_limits@D@std@@2HB		; std::numeric_limits<char>::digits
PUBLIC	?digits10@?$numeric_limits@D@std@@2HB		; std::numeric_limits<char>::digits10
PUBLIC	?max_digits10@?$numeric_limits@D@std@@2HB	; std::numeric_limits<char>::max_digits10
PUBLIC	?is_signed@?$numeric_limits@_W@std@@2_NB	; std::numeric_limits<wchar_t>::is_signed
PUBLIC	?digits@?$numeric_limits@_W@std@@2HB		; std::numeric_limits<wchar_t>::digits
PUBLIC	?digits10@?$numeric_limits@_W@std@@2HB		; std::numeric_limits<wchar_t>::digits10
PUBLIC	?max_digits10@?$numeric_limits@_W@std@@2HB	; std::numeric_limits<wchar_t>::max_digits10
PUBLIC	?is_modulo@?$numeric_limits@_N@std@@2_NB	; std::numeric_limits<bool>::is_modulo
PUBLIC	?is_signed@?$numeric_limits@_N@std@@2_NB	; std::numeric_limits<bool>::is_signed
PUBLIC	?digits@?$numeric_limits@_N@std@@2HB		; std::numeric_limits<bool>::digits
PUBLIC	?digits10@?$numeric_limits@_N@std@@2HB		; std::numeric_limits<bool>::digits10
PUBLIC	?max_digits10@?$numeric_limits@_N@std@@2HB	; std::numeric_limits<bool>::max_digits10
PUBLIC	?is_signed@?$numeric_limits@C@std@@2_NB		; std::numeric_limits<signed char>::is_signed
PUBLIC	?digits@?$numeric_limits@C@std@@2HB		; std::numeric_limits<signed char>::digits
PUBLIC	?digits10@?$numeric_limits@C@std@@2HB		; std::numeric_limits<signed char>::digits10
PUBLIC	?max_digits10@?$numeric_limits@C@std@@2HB	; std::numeric_limits<signed char>::max_digits10
PUBLIC	?is_signed@?$numeric_limits@E@std@@2_NB		; std::numeric_limits<unsigned char>::is_signed
PUBLIC	?digits@?$numeric_limits@E@std@@2HB		; std::numeric_limits<unsigned char>::digits
PUBLIC	?digits10@?$numeric_limits@E@std@@2HB		; std::numeric_limits<unsigned char>::digits10
PUBLIC	?max_digits10@?$numeric_limits@E@std@@2HB	; std::numeric_limits<unsigned char>::max_digits10
PUBLIC	?is_signed@?$numeric_limits@F@std@@2_NB		; std::numeric_limits<short>::is_signed
PUBLIC	?digits@?$numeric_limits@F@std@@2HB		; std::numeric_limits<short>::digits
PUBLIC	?digits10@?$numeric_limits@F@std@@2HB		; std::numeric_limits<short>::digits10
PUBLIC	?max_digits10@?$numeric_limits@F@std@@2HB	; std::numeric_limits<short>::max_digits10
PUBLIC	?is_signed@?$numeric_limits@G@std@@2_NB		; std::numeric_limits<unsigned short>::is_signed
PUBLIC	?digits@?$numeric_limits@G@std@@2HB		; std::numeric_limits<unsigned short>::digits
PUBLIC	?digits10@?$numeric_limits@G@std@@2HB		; std::numeric_limits<unsigned short>::digits10
PUBLIC	?max_digits10@?$numeric_limits@G@std@@2HB	; std::numeric_limits<unsigned short>::max_digits10
PUBLIC	?is_signed@?$numeric_limits@H@std@@2_NB		; std::numeric_limits<int>::is_signed
PUBLIC	?digits@?$numeric_limits@H@std@@2HB		; std::numeric_limits<int>::digits
PUBLIC	?digits10@?$numeric_limits@H@std@@2HB		; std::numeric_limits<int>::digits10
PUBLIC	?max_digits10@?$numeric_limits@H@std@@2HB	; std::numeric_limits<int>::max_digits10
PUBLIC	?is_signed@?$numeric_limits@I@std@@2_NB		; std::numeric_limits<unsigned int>::is_signed
PUBLIC	?digits@?$numeric_limits@I@std@@2HB		; std::numeric_limits<unsigned int>::digits
PUBLIC	?digits10@?$numeric_limits@I@std@@2HB		; std::numeric_limits<unsigned int>::digits10
PUBLIC	?max_digits10@?$numeric_limits@I@std@@2HB	; std::numeric_limits<unsigned int>::max_digits10
PUBLIC	?is_signed@?$numeric_limits@J@std@@2_NB		; std::numeric_limits<long>::is_signed
PUBLIC	?digits@?$numeric_limits@J@std@@2HB		; std::numeric_limits<long>::digits
PUBLIC	?digits10@?$numeric_limits@J@std@@2HB		; std::numeric_limits<long>::digits10
PUBLIC	?max_digits10@?$numeric_limits@J@std@@2HB	; std::numeric_limits<long>::max_digits10
PUBLIC	?is_signed@?$numeric_limits@K@std@@2_NB		; std::numeric_limits<unsigned long>::is_signed
PUBLIC	?digits@?$numeric_limits@K@std@@2HB		; std::numeric_limits<unsigned long>::digits
PUBLIC	?digits10@?$numeric_limits@K@std@@2HB		; std::numeric_limits<unsigned long>::digits10
PUBLIC	?max_digits10@?$numeric_limits@K@std@@2HB	; std::numeric_limits<unsigned long>::max_digits10
PUBLIC	?is_signed@?$numeric_limits@_J@std@@2_NB	; std::numeric_limits<__int64>::is_signed
PUBLIC	?digits@?$numeric_limits@_J@std@@2HB		; std::numeric_limits<__int64>::digits
PUBLIC	?digits10@?$numeric_limits@_J@std@@2HB		; std::numeric_limits<__int64>::digits10
PUBLIC	?max_digits10@?$numeric_limits@_J@std@@2HB	; std::numeric_limits<__int64>::max_digits10
PUBLIC	?is_signed@?$numeric_limits@_K@std@@2_NB	; std::numeric_limits<unsigned __int64>::is_signed
PUBLIC	?digits@?$numeric_limits@_K@std@@2HB		; std::numeric_limits<unsigned __int64>::digits
PUBLIC	?digits10@?$numeric_limits@_K@std@@2HB		; std::numeric_limits<unsigned __int64>::digits10
PUBLIC	?max_digits10@?$numeric_limits@_K@std@@2HB	; std::numeric_limits<unsigned __int64>::max_digits10
PUBLIC	?digits@?$numeric_limits@M@std@@2HB		; std::numeric_limits<float>::digits
PUBLIC	?digits10@?$numeric_limits@M@std@@2HB		; std::numeric_limits<float>::digits10
PUBLIC	?max_digits10@?$numeric_limits@M@std@@2HB	; std::numeric_limits<float>::max_digits10
PUBLIC	?max_exponent@?$numeric_limits@M@std@@2HB	; std::numeric_limits<float>::max_exponent
PUBLIC	?max_exponent10@?$numeric_limits@M@std@@2HB	; std::numeric_limits<float>::max_exponent10
PUBLIC	?min_exponent@?$numeric_limits@M@std@@2HB	; std::numeric_limits<float>::min_exponent
PUBLIC	?min_exponent10@?$numeric_limits@M@std@@2HB	; std::numeric_limits<float>::min_exponent10
PUBLIC	?digits@?$numeric_limits@N@std@@2HB		; std::numeric_limits<double>::digits
PUBLIC	?digits10@?$numeric_limits@N@std@@2HB		; std::numeric_limits<double>::digits10
PUBLIC	?max_digits10@?$numeric_limits@N@std@@2HB	; std::numeric_limits<double>::max_digits10
PUBLIC	?max_exponent@?$numeric_limits@N@std@@2HB	; std::numeric_limits<double>::max_exponent
PUBLIC	?max_exponent10@?$numeric_limits@N@std@@2HB	; std::numeric_limits<double>::max_exponent10
PUBLIC	?min_exponent@?$numeric_limits@N@std@@2HB	; std::numeric_limits<double>::min_exponent
PUBLIC	?min_exponent10@?$numeric_limits@N@std@@2HB	; std::numeric_limits<double>::min_exponent10
PUBLIC	?digits@?$numeric_limits@O@std@@2HB		; std::numeric_limits<long double>::digits
PUBLIC	?digits10@?$numeric_limits@O@std@@2HB		; std::numeric_limits<long double>::digits10
PUBLIC	?max_digits10@?$numeric_limits@O@std@@2HB	; std::numeric_limits<long double>::max_digits10
PUBLIC	?max_exponent@?$numeric_limits@O@std@@2HB	; std::numeric_limits<long double>::max_exponent
PUBLIC	?max_exponent10@?$numeric_limits@O@std@@2HB	; std::numeric_limits<long double>::max_exponent10
PUBLIC	?min_exponent@?$numeric_limits@O@std@@2HB	; std::numeric_limits<long double>::min_exponent
PUBLIC	?min_exponent10@?$numeric_limits@O@std@@2HB	; std::numeric_limits<long double>::min_exponent10
PUBLIC	?value@?$integral_constant@_N$0A@@tr1@std@@2_NB	; std::tr1::integral_constant<bool,0>::value
PUBLIC	?value@?$integral_constant@_N$00@tr1@std@@2_NB	; std::tr1::integral_constant<bool,1>::value
PUBLIC	?value@?$integral_constant@I$0A@@tr1@std@@2IB	; std::tr1::integral_constant<unsigned int,0>::value
PUBLIC	?_Rank@?$_Arithmetic_traits@_N@std@@2HB		; std::_Arithmetic_traits<bool>::_Rank
PUBLIC	?_Rank@?$_Arithmetic_traits@D@std@@2HB		; std::_Arithmetic_traits<char>::_Rank
PUBLIC	?_Rank@?$_Arithmetic_traits@C@std@@2HB		; std::_Arithmetic_traits<signed char>::_Rank
PUBLIC	?_Rank@?$_Arithmetic_traits@E@std@@2HB		; std::_Arithmetic_traits<unsigned char>::_Rank
PUBLIC	?_Rank@?$_Arithmetic_traits@F@std@@2HB		; std::_Arithmetic_traits<short>::_Rank
PUBLIC	?_Rank@?$_Arithmetic_traits@G@std@@2HB		; std::_Arithmetic_traits<unsigned short>::_Rank
PUBLIC	?_Rank@?$_Arithmetic_traits@H@std@@2HB		; std::_Arithmetic_traits<int>::_Rank
PUBLIC	?_Rank@?$_Arithmetic_traits@I@std@@2HB		; std::_Arithmetic_traits<unsigned int>::_Rank
PUBLIC	?_Rank@?$_Arithmetic_traits@J@std@@2HB		; std::_Arithmetic_traits<long>::_Rank
PUBLIC	?_Rank@?$_Arithmetic_traits@K@std@@2HB		; std::_Arithmetic_traits<unsigned long>::_Rank
PUBLIC	?_Rank@?$_Arithmetic_traits@_J@std@@2HB		; std::_Arithmetic_traits<__int64>::_Rank
PUBLIC	?_Rank@?$_Arithmetic_traits@_K@std@@2HB		; std::_Arithmetic_traits<unsigned __int64>::_Rank
PUBLIC	?_Rank@?$_Arithmetic_traits@M@std@@2HB		; std::_Arithmetic_traits<float>::_Rank
PUBLIC	?_Rank@?$_Arithmetic_traits@N@std@@2HB		; std::_Arithmetic_traits<double>::_Rank
PUBLIC	?_Rank@?$_Arithmetic_traits@O@std@@2HB		; std::_Arithmetic_traits<long double>::_Rank
PUBLIC	?collate@?$_Locbase@H@std@@2HB			; std::_Locbase<int>::collate
PUBLIC	?ctype@?$_Locbase@H@std@@2HB			; std::_Locbase<int>::ctype
PUBLIC	?monetary@?$_Locbase@H@std@@2HB			; std::_Locbase<int>::monetary
PUBLIC	?numeric@?$_Locbase@H@std@@2HB			; std::_Locbase<int>::numeric
PUBLIC	?time@?$_Locbase@H@std@@2HB			; std::_Locbase<int>::time
PUBLIC	?messages@?$_Locbase@H@std@@2HB			; std::_Locbase<int>::messages
PUBLIC	?all@?$_Locbase@H@std@@2HB			; std::_Locbase<int>::all
PUBLIC	?none@?$_Locbase@H@std@@2HB			; std::_Locbase<int>::none
PUBLIC	?table_size@?$ctype@D@std@@2IB			; std::ctype<char>::table_size
PUBLIC	?skipws@?$_Iosb@H@std@@2W4_Fmtflags@12@B	; std::_Iosb<int>::skipws
PUBLIC	?unitbuf@?$_Iosb@H@std@@2W4_Fmtflags@12@B	; std::_Iosb<int>::unitbuf
PUBLIC	?uppercase@?$_Iosb@H@std@@2W4_Fmtflags@12@B	; std::_Iosb<int>::uppercase
PUBLIC	?showbase@?$_Iosb@H@std@@2W4_Fmtflags@12@B	; std::_Iosb<int>::showbase
PUBLIC	?showpoint@?$_Iosb@H@std@@2W4_Fmtflags@12@B	; std::_Iosb<int>::showpoint
PUBLIC	?showpos@?$_Iosb@H@std@@2W4_Fmtflags@12@B	; std::_Iosb<int>::showpos
PUBLIC	?left@?$_Iosb@H@std@@2W4_Fmtflags@12@B		; std::_Iosb<int>::left
PUBLIC	?right@?$_Iosb@H@std@@2W4_Fmtflags@12@B		; std::_Iosb<int>::right
PUBLIC	?internal@?$_Iosb@H@std@@2W4_Fmtflags@12@B	; std::_Iosb<int>::internal
PUBLIC	?dec@?$_Iosb@H@std@@2W4_Fmtflags@12@B		; std::_Iosb<int>::dec
PUBLIC	?oct@?$_Iosb@H@std@@2W4_Fmtflags@12@B		; std::_Iosb<int>::oct
PUBLIC	?hex@?$_Iosb@H@std@@2W4_Fmtflags@12@B		; std::_Iosb<int>::hex
PUBLIC	?scientific@?$_Iosb@H@std@@2W4_Fmtflags@12@B	; std::_Iosb<int>::scientific
PUBLIC	?fixed@?$_Iosb@H@std@@2W4_Fmtflags@12@B		; std::_Iosb<int>::fixed
PUBLIC	?hexfloat@?$_Iosb@H@std@@2W4_Fmtflags@12@B	; std::_Iosb<int>::hexfloat
PUBLIC	?boolalpha@?$_Iosb@H@std@@2W4_Fmtflags@12@B	; std::_Iosb<int>::boolalpha
PUBLIC	?_Stdio@?$_Iosb@H@std@@2W4_Fmtflags@12@B	; std::_Iosb<int>::_Stdio
PUBLIC	?adjustfield@?$_Iosb@H@std@@2W4_Fmtflags@12@B	; std::_Iosb<int>::adjustfield
PUBLIC	?basefield@?$_Iosb@H@std@@2W4_Fmtflags@12@B	; std::_Iosb<int>::basefield
PUBLIC	?floatfield@?$_Iosb@H@std@@2W4_Fmtflags@12@B	; std::_Iosb<int>::floatfield
PUBLIC	?goodbit@?$_Iosb@H@std@@2W4_Iostate@12@B	; std::_Iosb<int>::goodbit
PUBLIC	?eofbit@?$_Iosb@H@std@@2W4_Iostate@12@B		; std::_Iosb<int>::eofbit
PUBLIC	?failbit@?$_Iosb@H@std@@2W4_Iostate@12@B	; std::_Iosb<int>::failbit
PUBLIC	?badbit@?$_Iosb@H@std@@2W4_Iostate@12@B		; std::_Iosb<int>::badbit
PUBLIC	?_Hardfail@?$_Iosb@H@std@@2W4_Iostate@12@B	; std::_Iosb<int>::_Hardfail
PUBLIC	?in@?$_Iosb@H@std@@2W4_Openmode@12@B		; std::_Iosb<int>::in
PUBLIC	?out@?$_Iosb@H@std@@2W4_Openmode@12@B		; std::_Iosb<int>::out
PUBLIC	?ate@?$_Iosb@H@std@@2W4_Openmode@12@B		; std::_Iosb<int>::ate
PUBLIC	?app@?$_Iosb@H@std@@2W4_Openmode@12@B		; std::_Iosb<int>::app
PUBLIC	?trunc@?$_Iosb@H@std@@2W4_Openmode@12@B		; std::_Iosb<int>::trunc
PUBLIC	?_Nocreate@?$_Iosb@H@std@@2W4_Openmode@12@B	; std::_Iosb<int>::_Nocreate
PUBLIC	?_Noreplace@?$_Iosb@H@std@@2W4_Openmode@12@B	; std::_Iosb<int>::_Noreplace
PUBLIC	?binary@?$_Iosb@H@std@@2W4_Openmode@12@B	; std::_Iosb<int>::binary
PUBLIC	?beg@?$_Iosb@H@std@@2W4_Seekdir@12@B		; std::_Iosb<int>::beg
PUBLIC	?cur@?$_Iosb@H@std@@2W4_Seekdir@12@B		; std::_Iosb<int>::cur
PUBLIC	?end@?$_Iosb@H@std@@2W4_Seekdir@12@B		; std::_Iosb<int>::end
CONST	SEGMENT
_Pi	DQ	0400921f9f01b866er		; 3.14159
_colors	DD	0ffH
	DD	0ff0000H
	DD	0ff00H
	DD	00H
	DD	0c8c8ffH
	DD	0c8c8c8H
	DD	0ffffH
	DD	0aaffH
	DD	0aa00ffH
	DD	05a85H
	DD	0ffffffH
	DD	06400H
	DD	0ffff00H
	DD	0c8c8c8H
	DD	0e6e6ffH
$SG129240 DB	'RIP', 00H
CONST	ENDS
;	COMDAT ?end@?$_Iosb@H@std@@2W4_Seekdir@12@B
CONST	SEGMENT
?end@?$_Iosb@H@std@@2W4_Seekdir@12@B DD 02H		; std::_Iosb<int>::end
CONST	ENDS
;	COMDAT ?cur@?$_Iosb@H@std@@2W4_Seekdir@12@B
CONST	SEGMENT
?cur@?$_Iosb@H@std@@2W4_Seekdir@12@B DD 01H		; std::_Iosb<int>::cur
CONST	ENDS
;	COMDAT ?beg@?$_Iosb@H@std@@2W4_Seekdir@12@B
CONST	SEGMENT
?beg@?$_Iosb@H@std@@2W4_Seekdir@12@B DD 00H		; std::_Iosb<int>::beg
CONST	ENDS
;	COMDAT ?binary@?$_Iosb@H@std@@2W4_Openmode@12@B
CONST	SEGMENT
?binary@?$_Iosb@H@std@@2W4_Openmode@12@B DD 020H	; std::_Iosb<int>::binary
CONST	ENDS
;	COMDAT ?_Noreplace@?$_Iosb@H@std@@2W4_Openmode@12@B
CONST	SEGMENT
?_Noreplace@?$_Iosb@H@std@@2W4_Openmode@12@B DD 080H	; std::_Iosb<int>::_Noreplace
CONST	ENDS
;	COMDAT ?_Nocreate@?$_Iosb@H@std@@2W4_Openmode@12@B
CONST	SEGMENT
?_Nocreate@?$_Iosb@H@std@@2W4_Openmode@12@B DD 040H	; std::_Iosb<int>::_Nocreate
CONST	ENDS
;	COMDAT ?trunc@?$_Iosb@H@std@@2W4_Openmode@12@B
CONST	SEGMENT
?trunc@?$_Iosb@H@std@@2W4_Openmode@12@B DD 010H		; std::_Iosb<int>::trunc
CONST	ENDS
;	COMDAT ?app@?$_Iosb@H@std@@2W4_Openmode@12@B
CONST	SEGMENT
?app@?$_Iosb@H@std@@2W4_Openmode@12@B DD 08H		; std::_Iosb<int>::app
CONST	ENDS
;	COMDAT ?ate@?$_Iosb@H@std@@2W4_Openmode@12@B
CONST	SEGMENT
?ate@?$_Iosb@H@std@@2W4_Openmode@12@B DD 04H		; std::_Iosb<int>::ate
CONST	ENDS
;	COMDAT ?out@?$_Iosb@H@std@@2W4_Openmode@12@B
CONST	SEGMENT
?out@?$_Iosb@H@std@@2W4_Openmode@12@B DD 02H		; std::_Iosb<int>::out
CONST	ENDS
;	COMDAT ?in@?$_Iosb@H@std@@2W4_Openmode@12@B
CONST	SEGMENT
?in@?$_Iosb@H@std@@2W4_Openmode@12@B DD 01H		; std::_Iosb<int>::in
CONST	ENDS
;	COMDAT ?_Hardfail@?$_Iosb@H@std@@2W4_Iostate@12@B
CONST	SEGMENT
?_Hardfail@?$_Iosb@H@std@@2W4_Iostate@12@B DD 010H	; std::_Iosb<int>::_Hardfail
CONST	ENDS
;	COMDAT ?badbit@?$_Iosb@H@std@@2W4_Iostate@12@B
CONST	SEGMENT
?badbit@?$_Iosb@H@std@@2W4_Iostate@12@B DD 04H		; std::_Iosb<int>::badbit
CONST	ENDS
;	COMDAT ?failbit@?$_Iosb@H@std@@2W4_Iostate@12@B
CONST	SEGMENT
?failbit@?$_Iosb@H@std@@2W4_Iostate@12@B DD 02H		; std::_Iosb<int>::failbit
CONST	ENDS
;	COMDAT ?eofbit@?$_Iosb@H@std@@2W4_Iostate@12@B
CONST	SEGMENT
?eofbit@?$_Iosb@H@std@@2W4_Iostate@12@B DD 01H		; std::_Iosb<int>::eofbit
CONST	ENDS
;	COMDAT ?goodbit@?$_Iosb@H@std@@2W4_Iostate@12@B
CONST	SEGMENT
?goodbit@?$_Iosb@H@std@@2W4_Iostate@12@B DD 00H		; std::_Iosb<int>::goodbit
CONST	ENDS
;	COMDAT ?floatfield@?$_Iosb@H@std@@2W4_Fmtflags@12@B
CONST	SEGMENT
?floatfield@?$_Iosb@H@std@@2W4_Fmtflags@12@B DD 03000H	; std::_Iosb<int>::floatfield
CONST	ENDS
;	COMDAT ?basefield@?$_Iosb@H@std@@2W4_Fmtflags@12@B
CONST	SEGMENT
?basefield@?$_Iosb@H@std@@2W4_Fmtflags@12@B DD 0e00H	; std::_Iosb<int>::basefield
CONST	ENDS
;	COMDAT ?adjustfield@?$_Iosb@H@std@@2W4_Fmtflags@12@B
CONST	SEGMENT
?adjustfield@?$_Iosb@H@std@@2W4_Fmtflags@12@B DD 01c0H	; std::_Iosb<int>::adjustfield
CONST	ENDS
;	COMDAT ?_Stdio@?$_Iosb@H@std@@2W4_Fmtflags@12@B
CONST	SEGMENT
?_Stdio@?$_Iosb@H@std@@2W4_Fmtflags@12@B DD 08000H	; std::_Iosb<int>::_Stdio
CONST	ENDS
;	COMDAT ?boolalpha@?$_Iosb@H@std@@2W4_Fmtflags@12@B
CONST	SEGMENT
?boolalpha@?$_Iosb@H@std@@2W4_Fmtflags@12@B DD 04000H	; std::_Iosb<int>::boolalpha
CONST	ENDS
;	COMDAT ?hexfloat@?$_Iosb@H@std@@2W4_Fmtflags@12@B
CONST	SEGMENT
?hexfloat@?$_Iosb@H@std@@2W4_Fmtflags@12@B DD 03000H	; std::_Iosb<int>::hexfloat
CONST	ENDS
;	COMDAT ?fixed@?$_Iosb@H@std@@2W4_Fmtflags@12@B
CONST	SEGMENT
?fixed@?$_Iosb@H@std@@2W4_Fmtflags@12@B DD 02000H	; std::_Iosb<int>::fixed
CONST	ENDS
;	COMDAT ?scientific@?$_Iosb@H@std@@2W4_Fmtflags@12@B
CONST	SEGMENT
?scientific@?$_Iosb@H@std@@2W4_Fmtflags@12@B DD 01000H	; std::_Iosb<int>::scientific
CONST	ENDS
;	COMDAT ?hex@?$_Iosb@H@std@@2W4_Fmtflags@12@B
CONST	SEGMENT
?hex@?$_Iosb@H@std@@2W4_Fmtflags@12@B DD 0800H		; std::_Iosb<int>::hex
CONST	ENDS
;	COMDAT ?oct@?$_Iosb@H@std@@2W4_Fmtflags@12@B
CONST	SEGMENT
?oct@?$_Iosb@H@std@@2W4_Fmtflags@12@B DD 0400H		; std::_Iosb<int>::oct
CONST	ENDS
;	COMDAT ?dec@?$_Iosb@H@std@@2W4_Fmtflags@12@B
CONST	SEGMENT
?dec@?$_Iosb@H@std@@2W4_Fmtflags@12@B DD 0200H		; std::_Iosb<int>::dec
CONST	ENDS
;	COMDAT ?internal@?$_Iosb@H@std@@2W4_Fmtflags@12@B
CONST	SEGMENT
?internal@?$_Iosb@H@std@@2W4_Fmtflags@12@B DD 0100H	; std::_Iosb<int>::internal
CONST	ENDS
;	COMDAT ?right@?$_Iosb@H@std@@2W4_Fmtflags@12@B
CONST	SEGMENT
?right@?$_Iosb@H@std@@2W4_Fmtflags@12@B DD 080H		; std::_Iosb<int>::right
CONST	ENDS
;	COMDAT ?left@?$_Iosb@H@std@@2W4_Fmtflags@12@B
CONST	SEGMENT
?left@?$_Iosb@H@std@@2W4_Fmtflags@12@B DD 040H		; std::_Iosb<int>::left
CONST	ENDS
;	COMDAT ?showpos@?$_Iosb@H@std@@2W4_Fmtflags@12@B
CONST	SEGMENT
?showpos@?$_Iosb@H@std@@2W4_Fmtflags@12@B DD 020H	; std::_Iosb<int>::showpos
CONST	ENDS
;	COMDAT ?showpoint@?$_Iosb@H@std@@2W4_Fmtflags@12@B
CONST	SEGMENT
?showpoint@?$_Iosb@H@std@@2W4_Fmtflags@12@B DD 010H	; std::_Iosb<int>::showpoint
CONST	ENDS
;	COMDAT ?showbase@?$_Iosb@H@std@@2W4_Fmtflags@12@B
CONST	SEGMENT
?showbase@?$_Iosb@H@std@@2W4_Fmtflags@12@B DD 08H	; std::_Iosb<int>::showbase
CONST	ENDS
;	COMDAT ?uppercase@?$_Iosb@H@std@@2W4_Fmtflags@12@B
CONST	SEGMENT
?uppercase@?$_Iosb@H@std@@2W4_Fmtflags@12@B DD 04H	; std::_Iosb<int>::uppercase
CONST	ENDS
;	COMDAT ?unitbuf@?$_Iosb@H@std@@2W4_Fmtflags@12@B
CONST	SEGMENT
?unitbuf@?$_Iosb@H@std@@2W4_Fmtflags@12@B DD 02H	; std::_Iosb<int>::unitbuf
CONST	ENDS
;	COMDAT ?skipws@?$_Iosb@H@std@@2W4_Fmtflags@12@B
CONST	SEGMENT
?skipws@?$_Iosb@H@std@@2W4_Fmtflags@12@B DD 01H		; std::_Iosb<int>::skipws
CONST	ENDS
;	COMDAT ?table_size@?$ctype@D@std@@2IB
CONST	SEGMENT
?table_size@?$ctype@D@std@@2IB DD 0100H			; std::ctype<char>::table_size
CONST	ENDS
;	COMDAT ?none@?$_Locbase@H@std@@2HB
CONST	SEGMENT
?none@?$_Locbase@H@std@@2HB DD 00H			; std::_Locbase<int>::none
CONST	ENDS
;	COMDAT ?all@?$_Locbase@H@std@@2HB
CONST	SEGMENT
?all@?$_Locbase@H@std@@2HB DD 03fH			; std::_Locbase<int>::all
CONST	ENDS
;	COMDAT ?messages@?$_Locbase@H@std@@2HB
CONST	SEGMENT
?messages@?$_Locbase@H@std@@2HB DD 020H			; std::_Locbase<int>::messages
CONST	ENDS
;	COMDAT ?time@?$_Locbase@H@std@@2HB
CONST	SEGMENT
?time@?$_Locbase@H@std@@2HB DD 010H			; std::_Locbase<int>::time
CONST	ENDS
;	COMDAT ?numeric@?$_Locbase@H@std@@2HB
CONST	SEGMENT
?numeric@?$_Locbase@H@std@@2HB DD 08H			; std::_Locbase<int>::numeric
CONST	ENDS
;	COMDAT ?monetary@?$_Locbase@H@std@@2HB
CONST	SEGMENT
?monetary@?$_Locbase@H@std@@2HB DD 04H			; std::_Locbase<int>::monetary
CONST	ENDS
;	COMDAT ?ctype@?$_Locbase@H@std@@2HB
CONST	SEGMENT
?ctype@?$_Locbase@H@std@@2HB DD 02H			; std::_Locbase<int>::ctype
CONST	ENDS
;	COMDAT ?collate@?$_Locbase@H@std@@2HB
CONST	SEGMENT
?collate@?$_Locbase@H@std@@2HB DD 01H			; std::_Locbase<int>::collate
CONST	ENDS
;	COMDAT ?_Rank@?$_Arithmetic_traits@O@std@@2HB
CONST	SEGMENT
?_Rank@?$_Arithmetic_traits@O@std@@2HB DD 09H		; std::_Arithmetic_traits<long double>::_Rank
CONST	ENDS
;	COMDAT ?_Rank@?$_Arithmetic_traits@N@std@@2HB
CONST	SEGMENT
?_Rank@?$_Arithmetic_traits@N@std@@2HB DD 08H		; std::_Arithmetic_traits<double>::_Rank
CONST	ENDS
;	COMDAT ?_Rank@?$_Arithmetic_traits@M@std@@2HB
CONST	SEGMENT
?_Rank@?$_Arithmetic_traits@M@std@@2HB DD 07H		; std::_Arithmetic_traits<float>::_Rank
CONST	ENDS
;	COMDAT ?_Rank@?$_Arithmetic_traits@_K@std@@2HB
CONST	SEGMENT
?_Rank@?$_Arithmetic_traits@_K@std@@2HB DD 06H		; std::_Arithmetic_traits<unsigned __int64>::_Rank
CONST	ENDS
;	COMDAT ?_Rank@?$_Arithmetic_traits@_J@std@@2HB
CONST	SEGMENT
?_Rank@?$_Arithmetic_traits@_J@std@@2HB DD 06H		; std::_Arithmetic_traits<__int64>::_Rank
CONST	ENDS
;	COMDAT ?_Rank@?$_Arithmetic_traits@K@std@@2HB
CONST	SEGMENT
?_Rank@?$_Arithmetic_traits@K@std@@2HB DD 05H		; std::_Arithmetic_traits<unsigned long>::_Rank
CONST	ENDS
;	COMDAT ?_Rank@?$_Arithmetic_traits@J@std@@2HB
CONST	SEGMENT
?_Rank@?$_Arithmetic_traits@J@std@@2HB DD 05H		; std::_Arithmetic_traits<long>::_Rank
CONST	ENDS
;	COMDAT ?_Rank@?$_Arithmetic_traits@I@std@@2HB
CONST	SEGMENT
?_Rank@?$_Arithmetic_traits@I@std@@2HB DD 04H		; std::_Arithmetic_traits<unsigned int>::_Rank
CONST	ENDS
;	COMDAT ?_Rank@?$_Arithmetic_traits@H@std@@2HB
CONST	SEGMENT
?_Rank@?$_Arithmetic_traits@H@std@@2HB DD 04H		; std::_Arithmetic_traits<int>::_Rank
CONST	ENDS
;	COMDAT ?_Rank@?$_Arithmetic_traits@G@std@@2HB
CONST	SEGMENT
?_Rank@?$_Arithmetic_traits@G@std@@2HB DD 03H		; std::_Arithmetic_traits<unsigned short>::_Rank
CONST	ENDS
;	COMDAT ?_Rank@?$_Arithmetic_traits@F@std@@2HB
CONST	SEGMENT
?_Rank@?$_Arithmetic_traits@F@std@@2HB DD 03H		; std::_Arithmetic_traits<short>::_Rank
CONST	ENDS
;	COMDAT ?_Rank@?$_Arithmetic_traits@E@std@@2HB
CONST	SEGMENT
?_Rank@?$_Arithmetic_traits@E@std@@2HB DD 02H		; std::_Arithmetic_traits<unsigned char>::_Rank
CONST	ENDS
;	COMDAT ?_Rank@?$_Arithmetic_traits@C@std@@2HB
CONST	SEGMENT
?_Rank@?$_Arithmetic_traits@C@std@@2HB DD 02H		; std::_Arithmetic_traits<signed char>::_Rank
CONST	ENDS
;	COMDAT ?_Rank@?$_Arithmetic_traits@D@std@@2HB
CONST	SEGMENT
?_Rank@?$_Arithmetic_traits@D@std@@2HB DD 02H		; std::_Arithmetic_traits<char>::_Rank
CONST	ENDS
;	COMDAT ?_Rank@?$_Arithmetic_traits@_N@std@@2HB
CONST	SEGMENT
?_Rank@?$_Arithmetic_traits@_N@std@@2HB DD 01H		; std::_Arithmetic_traits<bool>::_Rank
CONST	ENDS
;	COMDAT ?value@?$integral_constant@I$0A@@tr1@std@@2IB
CONST	SEGMENT
?value@?$integral_constant@I$0A@@tr1@std@@2IB DD 00H	; std::tr1::integral_constant<unsigned int,0>::value
CONST	ENDS
;	COMDAT ?value@?$integral_constant@_N$00@tr1@std@@2_NB
CONST	SEGMENT
?value@?$integral_constant@_N$00@tr1@std@@2_NB DB 01H	; std::tr1::integral_constant<bool,1>::value
CONST	ENDS
;	COMDAT ?value@?$integral_constant@_N$0A@@tr1@std@@2_NB
CONST	SEGMENT
?value@?$integral_constant@_N$0A@@tr1@std@@2_NB DB 00H	; std::tr1::integral_constant<bool,0>::value
CONST	ENDS
;	COMDAT ?min_exponent10@?$numeric_limits@O@std@@2HB
CONST	SEGMENT
?min_exponent10@?$numeric_limits@O@std@@2HB DD 0fffffecdH ; std::numeric_limits<long double>::min_exponent10
CONST	ENDS
;	COMDAT ?min_exponent@?$numeric_limits@O@std@@2HB
CONST	SEGMENT
?min_exponent@?$numeric_limits@O@std@@2HB DD 0fffffc03H	; std::numeric_limits<long double>::min_exponent
CONST	ENDS
;	COMDAT ?max_exponent10@?$numeric_limits@O@std@@2HB
CONST	SEGMENT
?max_exponent10@?$numeric_limits@O@std@@2HB DD 0134H	; std::numeric_limits<long double>::max_exponent10
CONST	ENDS
;	COMDAT ?max_exponent@?$numeric_limits@O@std@@2HB
CONST	SEGMENT
?max_exponent@?$numeric_limits@O@std@@2HB DD 0400H	; std::numeric_limits<long double>::max_exponent
CONST	ENDS
;	COMDAT ?max_digits10@?$numeric_limits@O@std@@2HB
CONST	SEGMENT
?max_digits10@?$numeric_limits@O@std@@2HB DD 011H	; std::numeric_limits<long double>::max_digits10
CONST	ENDS
;	COMDAT ?digits10@?$numeric_limits@O@std@@2HB
CONST	SEGMENT
?digits10@?$numeric_limits@O@std@@2HB DD 0fH		; std::numeric_limits<long double>::digits10
CONST	ENDS
;	COMDAT ?digits@?$numeric_limits@O@std@@2HB
CONST	SEGMENT
?digits@?$numeric_limits@O@std@@2HB DD 035H		; std::numeric_limits<long double>::digits
CONST	ENDS
;	COMDAT ?min_exponent10@?$numeric_limits@N@std@@2HB
CONST	SEGMENT
?min_exponent10@?$numeric_limits@N@std@@2HB DD 0fffffecdH ; std::numeric_limits<double>::min_exponent10
CONST	ENDS
;	COMDAT ?min_exponent@?$numeric_limits@N@std@@2HB
CONST	SEGMENT
?min_exponent@?$numeric_limits@N@std@@2HB DD 0fffffc03H	; std::numeric_limits<double>::min_exponent
CONST	ENDS
;	COMDAT ?max_exponent10@?$numeric_limits@N@std@@2HB
CONST	SEGMENT
?max_exponent10@?$numeric_limits@N@std@@2HB DD 0134H	; std::numeric_limits<double>::max_exponent10
CONST	ENDS
;	COMDAT ?max_exponent@?$numeric_limits@N@std@@2HB
CONST	SEGMENT
?max_exponent@?$numeric_limits@N@std@@2HB DD 0400H	; std::numeric_limits<double>::max_exponent
CONST	ENDS
;	COMDAT ?max_digits10@?$numeric_limits@N@std@@2HB
CONST	SEGMENT
?max_digits10@?$numeric_limits@N@std@@2HB DD 011H	; std::numeric_limits<double>::max_digits10
CONST	ENDS
;	COMDAT ?digits10@?$numeric_limits@N@std@@2HB
CONST	SEGMENT
?digits10@?$numeric_limits@N@std@@2HB DD 0fH		; std::numeric_limits<double>::digits10
CONST	ENDS
;	COMDAT ?digits@?$numeric_limits@N@std@@2HB
CONST	SEGMENT
?digits@?$numeric_limits@N@std@@2HB DD 035H		; std::numeric_limits<double>::digits
CONST	ENDS
;	COMDAT ?min_exponent10@?$numeric_limits@M@std@@2HB
CONST	SEGMENT
?min_exponent10@?$numeric_limits@M@std@@2HB DD 0ffffffdbH ; std::numeric_limits<float>::min_exponent10
CONST	ENDS
;	COMDAT ?min_exponent@?$numeric_limits@M@std@@2HB
CONST	SEGMENT
?min_exponent@?$numeric_limits@M@std@@2HB DD 0ffffff83H	; std::numeric_limits<float>::min_exponent
CONST	ENDS
;	COMDAT ?max_exponent10@?$numeric_limits@M@std@@2HB
CONST	SEGMENT
?max_exponent10@?$numeric_limits@M@std@@2HB DD 026H	; std::numeric_limits<float>::max_exponent10
CONST	ENDS
;	COMDAT ?max_exponent@?$numeric_limits@M@std@@2HB
CONST	SEGMENT
?max_exponent@?$numeric_limits@M@std@@2HB DD 080H	; std::numeric_limits<float>::max_exponent
CONST	ENDS
;	COMDAT ?max_digits10@?$numeric_limits@M@std@@2HB
CONST	SEGMENT
?max_digits10@?$numeric_limits@M@std@@2HB DD 08H	; std::numeric_limits<float>::max_digits10
CONST	ENDS
;	COMDAT ?digits10@?$numeric_limits@M@std@@2HB
CONST	SEGMENT
?digits10@?$numeric_limits@M@std@@2HB DD 06H		; std::numeric_limits<float>::digits10
CONST	ENDS
;	COMDAT ?digits@?$numeric_limits@M@std@@2HB
CONST	SEGMENT
?digits@?$numeric_limits@M@std@@2HB DD 018H		; std::numeric_limits<float>::digits
CONST	ENDS
;	COMDAT ?max_digits10@?$numeric_limits@_K@std@@2HB
CONST	SEGMENT
?max_digits10@?$numeric_limits@_K@std@@2HB DD 015H	; std::numeric_limits<unsigned __int64>::max_digits10
CONST	ENDS
;	COMDAT ?digits10@?$numeric_limits@_K@std@@2HB
CONST	SEGMENT
?digits10@?$numeric_limits@_K@std@@2HB DD 013H		; std::numeric_limits<unsigned __int64>::digits10
CONST	ENDS
;	COMDAT ?digits@?$numeric_limits@_K@std@@2HB
CONST	SEGMENT
?digits@?$numeric_limits@_K@std@@2HB DD 040H		; std::numeric_limits<unsigned __int64>::digits
CONST	ENDS
;	COMDAT ?is_signed@?$numeric_limits@_K@std@@2_NB
CONST	SEGMENT
?is_signed@?$numeric_limits@_K@std@@2_NB DB 00H		; std::numeric_limits<unsigned __int64>::is_signed
CONST	ENDS
;	COMDAT ?max_digits10@?$numeric_limits@_J@std@@2HB
CONST	SEGMENT
?max_digits10@?$numeric_limits@_J@std@@2HB DD 014H	; std::numeric_limits<__int64>::max_digits10
CONST	ENDS
;	COMDAT ?digits10@?$numeric_limits@_J@std@@2HB
CONST	SEGMENT
?digits10@?$numeric_limits@_J@std@@2HB DD 012H		; std::numeric_limits<__int64>::digits10
CONST	ENDS
;	COMDAT ?digits@?$numeric_limits@_J@std@@2HB
CONST	SEGMENT
?digits@?$numeric_limits@_J@std@@2HB DD 03fH		; std::numeric_limits<__int64>::digits
CONST	ENDS
;	COMDAT ?is_signed@?$numeric_limits@_J@std@@2_NB
CONST	SEGMENT
?is_signed@?$numeric_limits@_J@std@@2_NB DB 01H		; std::numeric_limits<__int64>::is_signed
CONST	ENDS
;	COMDAT ?max_digits10@?$numeric_limits@K@std@@2HB
CONST	SEGMENT
?max_digits10@?$numeric_limits@K@std@@2HB DD 0bH	; std::numeric_limits<unsigned long>::max_digits10
CONST	ENDS
;	COMDAT ?digits10@?$numeric_limits@K@std@@2HB
CONST	SEGMENT
?digits10@?$numeric_limits@K@std@@2HB DD 09H		; std::numeric_limits<unsigned long>::digits10
CONST	ENDS
;	COMDAT ?digits@?$numeric_limits@K@std@@2HB
CONST	SEGMENT
?digits@?$numeric_limits@K@std@@2HB DD 020H		; std::numeric_limits<unsigned long>::digits
CONST	ENDS
;	COMDAT ?is_signed@?$numeric_limits@K@std@@2_NB
CONST	SEGMENT
?is_signed@?$numeric_limits@K@std@@2_NB DB 00H		; std::numeric_limits<unsigned long>::is_signed
CONST	ENDS
;	COMDAT ?max_digits10@?$numeric_limits@J@std@@2HB
CONST	SEGMENT
?max_digits10@?$numeric_limits@J@std@@2HB DD 0bH	; std::numeric_limits<long>::max_digits10
CONST	ENDS
;	COMDAT ?digits10@?$numeric_limits@J@std@@2HB
CONST	SEGMENT
?digits10@?$numeric_limits@J@std@@2HB DD 09H		; std::numeric_limits<long>::digits10
CONST	ENDS
;	COMDAT ?digits@?$numeric_limits@J@std@@2HB
CONST	SEGMENT
?digits@?$numeric_limits@J@std@@2HB DD 01fH		; std::numeric_limits<long>::digits
CONST	ENDS
;	COMDAT ?is_signed@?$numeric_limits@J@std@@2_NB
CONST	SEGMENT
?is_signed@?$numeric_limits@J@std@@2_NB DB 01H		; std::numeric_limits<long>::is_signed
CONST	ENDS
;	COMDAT ?max_digits10@?$numeric_limits@I@std@@2HB
CONST	SEGMENT
?max_digits10@?$numeric_limits@I@std@@2HB DD 0bH	; std::numeric_limits<unsigned int>::max_digits10
CONST	ENDS
;	COMDAT ?digits10@?$numeric_limits@I@std@@2HB
CONST	SEGMENT
?digits10@?$numeric_limits@I@std@@2HB DD 09H		; std::numeric_limits<unsigned int>::digits10
CONST	ENDS
;	COMDAT ?digits@?$numeric_limits@I@std@@2HB
CONST	SEGMENT
?digits@?$numeric_limits@I@std@@2HB DD 020H		; std::numeric_limits<unsigned int>::digits
CONST	ENDS
;	COMDAT ?is_signed@?$numeric_limits@I@std@@2_NB
CONST	SEGMENT
?is_signed@?$numeric_limits@I@std@@2_NB DB 00H		; std::numeric_limits<unsigned int>::is_signed
CONST	ENDS
;	COMDAT ?max_digits10@?$numeric_limits@H@std@@2HB
CONST	SEGMENT
?max_digits10@?$numeric_limits@H@std@@2HB DD 0bH	; std::numeric_limits<int>::max_digits10
CONST	ENDS
;	COMDAT ?digits10@?$numeric_limits@H@std@@2HB
CONST	SEGMENT
?digits10@?$numeric_limits@H@std@@2HB DD 09H		; std::numeric_limits<int>::digits10
CONST	ENDS
;	COMDAT ?digits@?$numeric_limits@H@std@@2HB
CONST	SEGMENT
?digits@?$numeric_limits@H@std@@2HB DD 01fH		; std::numeric_limits<int>::digits
CONST	ENDS
;	COMDAT ?is_signed@?$numeric_limits@H@std@@2_NB
CONST	SEGMENT
?is_signed@?$numeric_limits@H@std@@2_NB DB 01H		; std::numeric_limits<int>::is_signed
CONST	ENDS
;	COMDAT ?max_digits10@?$numeric_limits@G@std@@2HB
CONST	SEGMENT
?max_digits10@?$numeric_limits@G@std@@2HB DD 06H	; std::numeric_limits<unsigned short>::max_digits10
CONST	ENDS
;	COMDAT ?digits10@?$numeric_limits@G@std@@2HB
CONST	SEGMENT
?digits10@?$numeric_limits@G@std@@2HB DD 04H		; std::numeric_limits<unsigned short>::digits10
CONST	ENDS
;	COMDAT ?digits@?$numeric_limits@G@std@@2HB
CONST	SEGMENT
?digits@?$numeric_limits@G@std@@2HB DD 010H		; std::numeric_limits<unsigned short>::digits
CONST	ENDS
;	COMDAT ?is_signed@?$numeric_limits@G@std@@2_NB
CONST	SEGMENT
?is_signed@?$numeric_limits@G@std@@2_NB DB 00H		; std::numeric_limits<unsigned short>::is_signed
CONST	ENDS
;	COMDAT ?max_digits10@?$numeric_limits@F@std@@2HB
CONST	SEGMENT
?max_digits10@?$numeric_limits@F@std@@2HB DD 06H	; std::numeric_limits<short>::max_digits10
CONST	ENDS
;	COMDAT ?digits10@?$numeric_limits@F@std@@2HB
CONST	SEGMENT
?digits10@?$numeric_limits@F@std@@2HB DD 04H		; std::numeric_limits<short>::digits10
CONST	ENDS
;	COMDAT ?digits@?$numeric_limits@F@std@@2HB
CONST	SEGMENT
?digits@?$numeric_limits@F@std@@2HB DD 0fH		; std::numeric_limits<short>::digits
CONST	ENDS
;	COMDAT ?is_signed@?$numeric_limits@F@std@@2_NB
CONST	SEGMENT
?is_signed@?$numeric_limits@F@std@@2_NB DB 01H		; std::numeric_limits<short>::is_signed
CONST	ENDS
;	COMDAT ?max_digits10@?$numeric_limits@E@std@@2HB
CONST	SEGMENT
?max_digits10@?$numeric_limits@E@std@@2HB DD 04H	; std::numeric_limits<unsigned char>::max_digits10
CONST	ENDS
;	COMDAT ?digits10@?$numeric_limits@E@std@@2HB
CONST	SEGMENT
?digits10@?$numeric_limits@E@std@@2HB DD 02H		; std::numeric_limits<unsigned char>::digits10
CONST	ENDS
;	COMDAT ?digits@?$numeric_limits@E@std@@2HB
CONST	SEGMENT
?digits@?$numeric_limits@E@std@@2HB DD 08H		; std::numeric_limits<unsigned char>::digits
CONST	ENDS
;	COMDAT ?is_signed@?$numeric_limits@E@std@@2_NB
CONST	SEGMENT
?is_signed@?$numeric_limits@E@std@@2_NB DB 00H		; std::numeric_limits<unsigned char>::is_signed
CONST	ENDS
;	COMDAT ?max_digits10@?$numeric_limits@C@std@@2HB
CONST	SEGMENT
?max_digits10@?$numeric_limits@C@std@@2HB DD 04H	; std::numeric_limits<signed char>::max_digits10
CONST	ENDS
;	COMDAT ?digits10@?$numeric_limits@C@std@@2HB
CONST	SEGMENT
?digits10@?$numeric_limits@C@std@@2HB DD 02H		; std::numeric_limits<signed char>::digits10
CONST	ENDS
;	COMDAT ?digits@?$numeric_limits@C@std@@2HB
CONST	SEGMENT
?digits@?$numeric_limits@C@std@@2HB DD 07H		; std::numeric_limits<signed char>::digits
CONST	ENDS
;	COMDAT ?is_signed@?$numeric_limits@C@std@@2_NB
CONST	SEGMENT
?is_signed@?$numeric_limits@C@std@@2_NB DB 01H		; std::numeric_limits<signed char>::is_signed
CONST	ENDS
;	COMDAT ?max_digits10@?$numeric_limits@_N@std@@2HB
CONST	SEGMENT
?max_digits10@?$numeric_limits@_N@std@@2HB DD 00H	; std::numeric_limits<bool>::max_digits10
CONST	ENDS
;	COMDAT ?digits10@?$numeric_limits@_N@std@@2HB
CONST	SEGMENT
?digits10@?$numeric_limits@_N@std@@2HB DD 00H		; std::numeric_limits<bool>::digits10
CONST	ENDS
;	COMDAT ?digits@?$numeric_limits@_N@std@@2HB
CONST	SEGMENT
?digits@?$numeric_limits@_N@std@@2HB DD 01H		; std::numeric_limits<bool>::digits
CONST	ENDS
;	COMDAT ?is_signed@?$numeric_limits@_N@std@@2_NB
CONST	SEGMENT
?is_signed@?$numeric_limits@_N@std@@2_NB DB 00H		; std::numeric_limits<bool>::is_signed
CONST	ENDS
;	COMDAT ?is_modulo@?$numeric_limits@_N@std@@2_NB
CONST	SEGMENT
?is_modulo@?$numeric_limits@_N@std@@2_NB DB 00H		; std::numeric_limits<bool>::is_modulo
CONST	ENDS
;	COMDAT ?max_digits10@?$numeric_limits@_W@std@@2HB
CONST	SEGMENT
?max_digits10@?$numeric_limits@_W@std@@2HB DD 06H	; std::numeric_limits<wchar_t>::max_digits10
CONST	ENDS
;	COMDAT ?digits10@?$numeric_limits@_W@std@@2HB
CONST	SEGMENT
?digits10@?$numeric_limits@_W@std@@2HB DD 04H		; std::numeric_limits<wchar_t>::digits10
CONST	ENDS
;	COMDAT ?digits@?$numeric_limits@_W@std@@2HB
CONST	SEGMENT
?digits@?$numeric_limits@_W@std@@2HB DD 010H		; std::numeric_limits<wchar_t>::digits
CONST	ENDS
;	COMDAT ?is_signed@?$numeric_limits@_W@std@@2_NB
CONST	SEGMENT
?is_signed@?$numeric_limits@_W@std@@2_NB DB 00H		; std::numeric_limits<wchar_t>::is_signed
CONST	ENDS
;	COMDAT ?max_digits10@?$numeric_limits@D@std@@2HB
CONST	SEGMENT
?max_digits10@?$numeric_limits@D@std@@2HB DD 04H	; std::numeric_limits<char>::max_digits10
CONST	ENDS
;	COMDAT ?digits10@?$numeric_limits@D@std@@2HB
CONST	SEGMENT
?digits10@?$numeric_limits@D@std@@2HB DD 02H		; std::numeric_limits<char>::digits10
CONST	ENDS
;	COMDAT ?digits@?$numeric_limits@D@std@@2HB
CONST	SEGMENT
?digits@?$numeric_limits@D@std@@2HB DD 07H		; std::numeric_limits<char>::digits
CONST	ENDS
;	COMDAT ?is_signed@?$numeric_limits@D@std@@2_NB
CONST	SEGMENT
?is_signed@?$numeric_limits@D@std@@2_NB DB 01H		; std::numeric_limits<char>::is_signed
CONST	ENDS
;	COMDAT ?radix@_Num_float_base@std@@2HB
CONST	SEGMENT
?radix@_Num_float_base@std@@2HB DD 02H			; std::_Num_float_base::radix
CONST	ENDS
;	COMDAT ?round_style@_Num_float_base@std@@2W4float_round_style@2@B
CONST	SEGMENT
?round_style@_Num_float_base@std@@2W4float_round_style@2@B DD 01H ; std::_Num_float_base::round_style
CONST	ENDS
;	COMDAT ?traps@_Num_float_base@std@@2_NB
CONST	SEGMENT
?traps@_Num_float_base@std@@2_NB DB 01H			; std::_Num_float_base::traps
CONST	ENDS
;	COMDAT ?tinyness_before@_Num_float_base@std@@2_NB
CONST	SEGMENT
?tinyness_before@_Num_float_base@std@@2_NB DB 01H	; std::_Num_float_base::tinyness_before
CONST	ENDS
;	COMDAT ?is_specialized@_Num_float_base@std@@2_NB
CONST	SEGMENT
?is_specialized@_Num_float_base@std@@2_NB DB 01H	; std::_Num_float_base::is_specialized
CONST	ENDS
;	COMDAT ?is_signed@_Num_float_base@std@@2_NB
CONST	SEGMENT
?is_signed@_Num_float_base@std@@2_NB DB 01H		; std::_Num_float_base::is_signed
CONST	ENDS
;	COMDAT ?is_modulo@_Num_float_base@std@@2_NB
CONST	SEGMENT
?is_modulo@_Num_float_base@std@@2_NB DB 00H		; std::_Num_float_base::is_modulo
CONST	ENDS
;	COMDAT ?is_integer@_Num_float_base@std@@2_NB
CONST	SEGMENT
?is_integer@_Num_float_base@std@@2_NB DB 00H		; std::_Num_float_base::is_integer
CONST	ENDS
;	COMDAT ?is_iec559@_Num_float_base@std@@2_NB
CONST	SEGMENT
?is_iec559@_Num_float_base@std@@2_NB DB 01H		; std::_Num_float_base::is_iec559
CONST	ENDS
;	COMDAT ?is_exact@_Num_float_base@std@@2_NB
CONST	SEGMENT
?is_exact@_Num_float_base@std@@2_NB DB 00H		; std::_Num_float_base::is_exact
CONST	ENDS
;	COMDAT ?is_bounded@_Num_float_base@std@@2_NB
CONST	SEGMENT
?is_bounded@_Num_float_base@std@@2_NB DB 01H		; std::_Num_float_base::is_bounded
CONST	ENDS
;	COMDAT ?has_signaling_NaN@_Num_float_base@std@@2_NB
CONST	SEGMENT
?has_signaling_NaN@_Num_float_base@std@@2_NB DB 01H	; std::_Num_float_base::has_signaling_NaN
CONST	ENDS
;	COMDAT ?has_quiet_NaN@_Num_float_base@std@@2_NB
CONST	SEGMENT
?has_quiet_NaN@_Num_float_base@std@@2_NB DB 01H		; std::_Num_float_base::has_quiet_NaN
CONST	ENDS
;	COMDAT ?has_infinity@_Num_float_base@std@@2_NB
CONST	SEGMENT
?has_infinity@_Num_float_base@std@@2_NB DB 01H		; std::_Num_float_base::has_infinity
CONST	ENDS
;	COMDAT ?has_denorm_loss@_Num_float_base@std@@2_NB
CONST	SEGMENT
?has_denorm_loss@_Num_float_base@std@@2_NB DB 01H	; std::_Num_float_base::has_denorm_loss
CONST	ENDS
;	COMDAT ?has_denorm@_Num_float_base@std@@2W4float_denorm_style@2@B
CONST	SEGMENT
?has_denorm@_Num_float_base@std@@2W4float_denorm_style@2@B DD 01H ; std::_Num_float_base::has_denorm
CONST	ENDS
;	COMDAT ?radix@_Num_int_base@std@@2HB
CONST	SEGMENT
?radix@_Num_int_base@std@@2HB DD 02H			; std::_Num_int_base::radix
CONST	ENDS
;	COMDAT ?is_specialized@_Num_int_base@std@@2_NB
CONST	SEGMENT
?is_specialized@_Num_int_base@std@@2_NB DB 01H		; std::_Num_int_base::is_specialized
CONST	ENDS
;	COMDAT ?is_modulo@_Num_int_base@std@@2_NB
CONST	SEGMENT
?is_modulo@_Num_int_base@std@@2_NB DB 01H		; std::_Num_int_base::is_modulo
CONST	ENDS
;	COMDAT ?is_integer@_Num_int_base@std@@2_NB
CONST	SEGMENT
?is_integer@_Num_int_base@std@@2_NB DB 01H		; std::_Num_int_base::is_integer
CONST	ENDS
;	COMDAT ?is_exact@_Num_int_base@std@@2_NB
CONST	SEGMENT
?is_exact@_Num_int_base@std@@2_NB DB 01H		; std::_Num_int_base::is_exact
CONST	ENDS
;	COMDAT ?is_bounded@_Num_int_base@std@@2_NB
CONST	SEGMENT
?is_bounded@_Num_int_base@std@@2_NB DB 01H		; std::_Num_int_base::is_bounded
CONST	ENDS
;	COMDAT ?radix@_Num_base@std@@2HB
CONST	SEGMENT
?radix@_Num_base@std@@2HB DD 00H			; std::_Num_base::radix
CONST	ENDS
;	COMDAT ?min_exponent10@_Num_base@std@@2HB
CONST	SEGMENT
?min_exponent10@_Num_base@std@@2HB DD 00H		; std::_Num_base::min_exponent10
CONST	ENDS
;	COMDAT ?min_exponent@_Num_base@std@@2HB
CONST	SEGMENT
?min_exponent@_Num_base@std@@2HB DD 00H			; std::_Num_base::min_exponent
CONST	ENDS
;	COMDAT ?max_exponent10@_Num_base@std@@2HB
CONST	SEGMENT
?max_exponent10@_Num_base@std@@2HB DD 00H		; std::_Num_base::max_exponent10
CONST	ENDS
;	COMDAT ?max_exponent@_Num_base@std@@2HB
CONST	SEGMENT
?max_exponent@_Num_base@std@@2HB DD 00H			; std::_Num_base::max_exponent
CONST	ENDS
;	COMDAT ?max_digits10@_Num_base@std@@2HB
CONST	SEGMENT
?max_digits10@_Num_base@std@@2HB DD 00H			; std::_Num_base::max_digits10
CONST	ENDS
;	COMDAT ?digits10@_Num_base@std@@2HB
CONST	SEGMENT
?digits10@_Num_base@std@@2HB DD 00H			; std::_Num_base::digits10
CONST	ENDS
;	COMDAT ?digits@_Num_base@std@@2HB
CONST	SEGMENT
?digits@_Num_base@std@@2HB DD 00H			; std::_Num_base::digits
CONST	ENDS
;	COMDAT ?round_style@_Num_base@std@@2W4float_round_style@2@B
CONST	SEGMENT
?round_style@_Num_base@std@@2W4float_round_style@2@B DD 00H ; std::_Num_base::round_style
CONST	ENDS
;	COMDAT ?traps@_Num_base@std@@2_NB
CONST	SEGMENT
?traps@_Num_base@std@@2_NB DB 00H			; std::_Num_base::traps
CONST	ENDS
;	COMDAT ?tinyness_before@_Num_base@std@@2_NB
CONST	SEGMENT
?tinyness_before@_Num_base@std@@2_NB DB 00H		; std::_Num_base::tinyness_before
CONST	ENDS
;	COMDAT ?is_specialized@_Num_base@std@@2_NB
CONST	SEGMENT
?is_specialized@_Num_base@std@@2_NB DB 00H		; std::_Num_base::is_specialized
CONST	ENDS
;	COMDAT ?is_signed@_Num_base@std@@2_NB
CONST	SEGMENT
?is_signed@_Num_base@std@@2_NB DB 00H			; std::_Num_base::is_signed
CONST	ENDS
;	COMDAT ?is_modulo@_Num_base@std@@2_NB
CONST	SEGMENT
?is_modulo@_Num_base@std@@2_NB DB 00H			; std::_Num_base::is_modulo
CONST	ENDS
;	COMDAT ?is_integer@_Num_base@std@@2_NB
CONST	SEGMENT
?is_integer@_Num_base@std@@2_NB DB 00H			; std::_Num_base::is_integer
CONST	ENDS
;	COMDAT ?is_iec559@_Num_base@std@@2_NB
CONST	SEGMENT
?is_iec559@_Num_base@std@@2_NB DB 00H			; std::_Num_base::is_iec559
CONST	ENDS
;	COMDAT ?is_exact@_Num_base@std@@2_NB
CONST	SEGMENT
?is_exact@_Num_base@std@@2_NB DB 00H			; std::_Num_base::is_exact
CONST	ENDS
;	COMDAT ?is_bounded@_Num_base@std@@2_NB
CONST	SEGMENT
?is_bounded@_Num_base@std@@2_NB DB 00H			; std::_Num_base::is_bounded
CONST	ENDS
;	COMDAT ?has_signaling_NaN@_Num_base@std@@2_NB
CONST	SEGMENT
?has_signaling_NaN@_Num_base@std@@2_NB DB 00H		; std::_Num_base::has_signaling_NaN
CONST	ENDS
;	COMDAT ?has_quiet_NaN@_Num_base@std@@2_NB
CONST	SEGMENT
?has_quiet_NaN@_Num_base@std@@2_NB DB 00H		; std::_Num_base::has_quiet_NaN
CONST	ENDS
;	COMDAT ?has_infinity@_Num_base@std@@2_NB
CONST	SEGMENT
?has_infinity@_Num_base@std@@2_NB DB 00H		; std::_Num_base::has_infinity
CONST	ENDS
;	COMDAT ?has_denorm_loss@_Num_base@std@@2_NB
CONST	SEGMENT
?has_denorm_loss@_Num_base@std@@2_NB DB 00H		; std::_Num_base::has_denorm_loss
CONST	ENDS
;	COMDAT ?has_denorm@_Num_base@std@@2W4float_denorm_style@2@B
CONST	SEGMENT
?has_denorm@_Num_base@std@@2W4float_denorm_style@2@B DD 00H ; std::_Num_base::has_denorm
CONST	ENDS
PUBLIC	??1?$list@UGraveRecord@GraveMarkers@@V?$allocator@UGraveRecord@GraveMarkers@@@std@@@std@@QAE@XZ ; std::list<GraveMarkers::GraveRecord,std::allocator<GraveMarkers::GraveRecord> >::~list<GraveMarkers::GraveRecord,std::allocator<GraveMarkers::GraveRecord> >
PUBLIC	??1?$vector@UVector2D@@V?$allocator@UVector2D@@@std@@@std@@QAE@XZ ; std::vector<Vector2D,std::allocator<Vector2D> >::~vector<Vector2D,std::allocator<Vector2D> >
PUBLIC	?push_back@?$vector@UVector2D@@V?$allocator@UVector2D@@@std@@@std@@QAEXABUVector2D@@@Z ; std::vector<Vector2D,std::allocator<Vector2D> >::push_back
PUBLIC	__real@4010000000000000
PUBLIC	__real@3ff0000000000000
PUBLIC	__real@bff0000000000000
PUBLIC	__real@4018000000000000
PUBLIC	__real@c008000000000000
PUBLIC	__real@4014000000000000
PUBLIC	__real@4008000000000000
PUBLIC	??0Vector2D@@QAE@NN@Z				; Vector2D::Vector2D
PUBLIC	__real@c010000000000000
PUBLIC	__real@c014000000000000
PUBLIC	??0?$list@UGraveRecord@GraveMarkers@@V?$allocator@UGraveRecord@GraveMarkers@@@std@@@std@@QAE@XZ ; std::list<GraveMarkers::GraveRecord,std::allocator<GraveMarkers::GraveRecord> >::list<GraveMarkers::GraveRecord,std::allocator<GraveMarkers::GraveRecord> >
PUBLIC	??0?$vector@UVector2D@@V?$allocator@UVector2D@@@std@@@std@@QAE@XZ ; std::vector<Vector2D,std::allocator<Vector2D> >::vector<Vector2D,std::allocator<Vector2D> >
PUBLIC	__$ArrayPad$
PUBLIC	??0GraveMarkers@@QAE@N@Z			; GraveMarkers::GraveMarkers
EXTRN	___security_cookie:DWORD
EXTRN	___CxxFrameHandler3:PROC
EXTRN	__fltused:DWORD
EXTRN	__RTC_CheckEsp:PROC
EXTRN	@__security_check_cookie@4:PROC
EXTRN	@_RTC_CheckStackVars@8:PROC
EXTRN	__RTC_Shutdown:PROC
EXTRN	__RTC_InitBase:PROC
;	COMDAT __real@4010000000000000
; File c:\users\teaja\documents\artificial-fun\labravenprojecttest\raven\gravemarkers.cpp
CONST	SEGMENT
__real@4010000000000000 DQ 04010000000000000r	; 4
CONST	ENDS
;	COMDAT __real@3ff0000000000000
CONST	SEGMENT
__real@3ff0000000000000 DQ 03ff0000000000000r	; 1
CONST	ENDS
;	COMDAT __real@bff0000000000000
CONST	SEGMENT
__real@bff0000000000000 DQ 0bff0000000000000r	; -1
CONST	ENDS
;	COMDAT __real@4018000000000000
CONST	SEGMENT
__real@4018000000000000 DQ 04018000000000000r	; 6
CONST	ENDS
;	COMDAT __real@c008000000000000
CONST	SEGMENT
__real@c008000000000000 DQ 0c008000000000000r	; -3
CONST	ENDS
;	COMDAT __real@4014000000000000
CONST	SEGMENT
__real@4014000000000000 DQ 04014000000000000r	; 5
CONST	ENDS
;	COMDAT __real@4008000000000000
CONST	SEGMENT
__real@4008000000000000 DQ 04008000000000000r	; 3
CONST	ENDS
;	COMDAT __real@c010000000000000
CONST	SEGMENT
__real@c010000000000000 DQ 0c010000000000000r	; -4
CONST	ENDS
;	COMDAT __real@c014000000000000
CONST	SEGMENT
__real@c014000000000000 DQ 0c014000000000000r	; -5
CONST	ENDS
xdata$x	SEGMENT
__unwindtable$??0GraveMarkers@@QAE@N@Z DD 0ffffffffH
	DD	FLAT:__unwindfunclet$??0GraveMarkers@@QAE@N@Z$0
	DD	00H
	DD	FLAT:__unwindfunclet$??0GraveMarkers@@QAE@N@Z$1
	DD	01H
	DD	FLAT:__unwindfunclet$??0GraveMarkers@@QAE@N@Z$2
__ehfuncinfo$??0GraveMarkers@@QAE@N@Z DD 019930522H
	DD	03H
	DD	FLAT:__unwindtable$??0GraveMarkers@@QAE@N@Z
	DD	2 DUP(00H)
	DD	2 DUP(00H)
	DD	00H
	DD	01H
xdata$x	ENDS
;	COMDAT rtc$TMZ
rtc$TMZ	SEGMENT
__RTC_Shutdown.rtc$TMZ DD FLAT:__RTC_Shutdown
rtc$TMZ	ENDS
;	COMDAT rtc$IMZ
rtc$IMZ	SEGMENT
__RTC_InitBase.rtc$IMZ DD FLAT:__RTC_InitBase
; Function compile flags: /Odtp /RTCsu
rtc$IMZ	ENDS
_TEXT	SEGMENT
_i$129009 = -180					; size = 4
_rip$ = -172						; size = 144
_NumripVerts$ = -24					; size = 4
_this$ = -20						; size = 4
__$ArrayPad$ = -16					; size = 4
__$EHRec$ = -12						; size = 12
_lifetime$ = 8						; size = 8
??0GraveMarkers@@QAE@N@Z PROC				; GraveMarkers::GraveMarkers
; _this$ = ecx

; 8    : {

	push	ebp
	mov	ebp, esp
	push	-1
	push	__ehhandler$??0GraveMarkers@@QAE@N@Z
	mov	eax, DWORD PTR fs:0
	push	eax
	sub	esp, 168				; 000000a8H
	push	edi
	push	ecx
	lea	edi, DWORD PTR [ebp-180]
	mov	ecx, 42					; 0000002aH
	mov	eax, -858993460				; ccccccccH
	rep stosd
	pop	ecx
	mov	eax, DWORD PTR ___security_cookie
	xor	eax, ebp
	mov	DWORD PTR __$ArrayPad$[ebp], eax
	push	eax
	lea	eax, DWORD PTR __$EHRec$[ebp]
	mov	DWORD PTR fs:0, eax
	mov	DWORD PTR _this$[ebp], ecx
	mov	eax, DWORD PTR _this$[ebp]
	fld	QWORD PTR _lifetime$[ebp]
	fstp	QWORD PTR [eax]
	mov	ecx, DWORD PTR _this$[ebp]
	add	ecx, 8
	call	??0?$vector@UVector2D@@V?$allocator@UVector2D@@@std@@@std@@QAE@XZ ; std::vector<Vector2D,std::allocator<Vector2D> >::vector<Vector2D,std::allocator<Vector2D> >
	mov	DWORD PTR __$EHRec$[ebp+8], 0
	mov	ecx, DWORD PTR _this$[ebp]
	add	ecx, 28					; 0000001cH
	call	??0?$vector@UVector2D@@V?$allocator@UVector2D@@@std@@@std@@QAE@XZ ; std::vector<Vector2D,std::allocator<Vector2D> >::vector<Vector2D,std::allocator<Vector2D> >
	mov	BYTE PTR __$EHRec$[ebp+8], 1
	mov	ecx, DWORD PTR _this$[ebp]
	add	ecx, 48					; 00000030H
	call	??0?$list@UGraveRecord@GraveMarkers@@V?$allocator@UGraveRecord@GraveMarkers@@@std@@@std@@QAE@XZ ; std::list<GraveMarkers::GraveRecord,std::allocator<GraveMarkers::GraveRecord> >::list<GraveMarkers::GraveRecord,std::allocator<GraveMarkers::GraveRecord> >
	mov	BYTE PTR __$EHRec$[ebp+8], 2

; 9    :       //create the vertex buffer for the graves
; 10   :     const int NumripVerts = 9;

	mov	DWORD PTR _NumripVerts$[ebp], 9

; 11   :     const Vector2D rip[NumripVerts] = {Vector2D(-4, -5),

	sub	esp, 8
	fld	QWORD PTR __real@c014000000000000
	fstp	QWORD PTR [esp]
	sub	esp, 8
	fld	QWORD PTR __real@c010000000000000
	fstp	QWORD PTR [esp]
	lea	ecx, DWORD PTR _rip$[ebp]
	call	??0Vector2D@@QAE@NN@Z			; Vector2D::Vector2D

; 12   :                                        Vector2D(-4, 3),

	sub	esp, 8
	fld	QWORD PTR __real@4008000000000000
	fstp	QWORD PTR [esp]
	sub	esp, 8
	fld	QWORD PTR __real@c010000000000000
	fstp	QWORD PTR [esp]
	lea	ecx, DWORD PTR _rip$[ebp+16]
	call	??0Vector2D@@QAE@NN@Z			; Vector2D::Vector2D

; 13   :                                        Vector2D(-3, 5),

	sub	esp, 8
	fld	QWORD PTR __real@4014000000000000
	fstp	QWORD PTR [esp]
	sub	esp, 8
	fld	QWORD PTR __real@c008000000000000
	fstp	QWORD PTR [esp]
	lea	ecx, DWORD PTR _rip$[ebp+32]
	call	??0Vector2D@@QAE@NN@Z			; Vector2D::Vector2D

; 14   :                                        Vector2D(-1, 6),

	sub	esp, 8
	fld	QWORD PTR __real@4018000000000000
	fstp	QWORD PTR [esp]
	sub	esp, 8
	fld	QWORD PTR __real@bff0000000000000
	fstp	QWORD PTR [esp]
	lea	ecx, DWORD PTR _rip$[ebp+48]
	call	??0Vector2D@@QAE@NN@Z			; Vector2D::Vector2D

; 15   :                                        Vector2D(1, 6),

	sub	esp, 8
	fld	QWORD PTR __real@4018000000000000
	fstp	QWORD PTR [esp]
	sub	esp, 8
	fld1
	fstp	QWORD PTR [esp]
	lea	ecx, DWORD PTR _rip$[ebp+64]
	call	??0Vector2D@@QAE@NN@Z			; Vector2D::Vector2D

; 16   :                                        Vector2D(3, 5),

	sub	esp, 8
	fld	QWORD PTR __real@4014000000000000
	fstp	QWORD PTR [esp]
	sub	esp, 8
	fld	QWORD PTR __real@4008000000000000
	fstp	QWORD PTR [esp]
	lea	ecx, DWORD PTR _rip$[ebp+80]
	call	??0Vector2D@@QAE@NN@Z			; Vector2D::Vector2D

; 17   :                                        Vector2D(4, 3),

	sub	esp, 8
	fld	QWORD PTR __real@4008000000000000
	fstp	QWORD PTR [esp]
	sub	esp, 8
	fld	QWORD PTR __real@4010000000000000
	fstp	QWORD PTR [esp]
	lea	ecx, DWORD PTR _rip$[ebp+96]
	call	??0Vector2D@@QAE@NN@Z			; Vector2D::Vector2D

; 18   :                                        Vector2D(4, -5),

	sub	esp, 8
	fld	QWORD PTR __real@c014000000000000
	fstp	QWORD PTR [esp]
	sub	esp, 8
	fld	QWORD PTR __real@4010000000000000
	fstp	QWORD PTR [esp]
	lea	ecx, DWORD PTR _rip$[ebp+112]
	call	??0Vector2D@@QAE@NN@Z			; Vector2D::Vector2D

; 19   :                                        Vector2D(-4, -5)};

	sub	esp, 8
	fld	QWORD PTR __real@c014000000000000
	fstp	QWORD PTR [esp]
	sub	esp, 8
	fld	QWORD PTR __real@c010000000000000
	fstp	QWORD PTR [esp]
	lea	ecx, DWORD PTR _rip$[ebp+128]
	call	??0Vector2D@@QAE@NN@Z			; Vector2D::Vector2D

; 20   :   for (int i=0; i<NumripVerts; ++i)

	mov	DWORD PTR _i$129009[ebp], 0
	jmp	SHORT $LN3@GraveMarke
$LN2@GraveMarke:
	mov	ecx, DWORD PTR _i$129009[ebp]
	add	ecx, 1
	mov	DWORD PTR _i$129009[ebp], ecx
$LN3@GraveMarke:
	cmp	DWORD PTR _i$129009[ebp], 9
	jge	SHORT $LN1@GraveMarke

; 21   :   {
; 22   :     m_vecRIPVB.push_back(rip[i]);

	mov	edx, DWORD PTR _i$129009[ebp]
	shl	edx, 4
	lea	eax, DWORD PTR _rip$[ebp+edx]
	push	eax
	mov	ecx, DWORD PTR _this$[ebp]
	add	ecx, 8
	call	?push_back@?$vector@UVector2D@@V?$allocator@UVector2D@@@std@@@std@@QAEXABUVector2D@@@Z ; std::vector<Vector2D,std::allocator<Vector2D> >::push_back

; 23   :   }

	jmp	SHORT $LN2@GraveMarke
$LN1@GraveMarke:

; 24   : }

	mov	DWORD PTR __$EHRec$[ebp+8], -1
	mov	eax, DWORD PTR _this$[ebp]
	push	edx
	mov	ecx, ebp
	push	eax
	lea	edx, DWORD PTR $LN12@GraveMarke
	call	@_RTC_CheckStackVars@8
	pop	eax
	pop	edx
	mov	ecx, DWORD PTR __$EHRec$[ebp]
	mov	DWORD PTR fs:0, ecx
	pop	ecx
	pop	edi
	mov	ecx, DWORD PTR __$ArrayPad$[ebp]
	xor	ecx, ebp
	call	@__security_check_cookie@4
	add	esp, 180				; 000000b4H
	cmp	ebp, esp
	call	__RTC_CheckEsp
	mov	esp, ebp
	pop	ebp
	ret	8
	npad	3
$LN12@GraveMarke:
	DD	1
	DD	$LN11@GraveMarke
$LN11@GraveMarke:
	DD	-172					; ffffff54H
	DD	144					; 00000090H
	DD	$LN9@GraveMarke
$LN9@GraveMarke:
	DB	114					; 00000072H
	DB	105					; 00000069H
	DB	112					; 00000070H
	DB	0
_TEXT	ENDS
text$x	SEGMENT
__unwindfunclet$??0GraveMarkers@@QAE@N@Z$0:
	mov	ecx, DWORD PTR _this$[ebp]
	add	ecx, 8
	jmp	??1?$vector@UVector2D@@V?$allocator@UVector2D@@@std@@@std@@QAE@XZ ; std::vector<Vector2D,std::allocator<Vector2D> >::~vector<Vector2D,std::allocator<Vector2D> >
__unwindfunclet$??0GraveMarkers@@QAE@N@Z$1:
	mov	ecx, DWORD PTR _this$[ebp]
	add	ecx, 28					; 0000001cH
	jmp	??1?$vector@UVector2D@@V?$allocator@UVector2D@@@std@@@std@@QAE@XZ ; std::vector<Vector2D,std::allocator<Vector2D> >::~vector<Vector2D,std::allocator<Vector2D> >
__unwindfunclet$??0GraveMarkers@@QAE@N@Z$2:
	mov	ecx, DWORD PTR _this$[ebp]
	add	ecx, 48					; 00000030H
	jmp	??1?$list@UGraveRecord@GraveMarkers@@V?$allocator@UGraveRecord@GraveMarkers@@@std@@@std@@QAE@XZ ; std::list<GraveMarkers::GraveRecord,std::allocator<GraveMarkers::GraveRecord> >::~list<GraveMarkers::GraveRecord,std::allocator<GraveMarkers::GraveRecord> >
__ehhandler$??0GraveMarkers@@QAE@N@Z:
	mov	edx, DWORD PTR [esp+8]
	lea	eax, DWORD PTR [edx+12]
	mov	ecx, DWORD PTR [edx-176]
	xor	ecx, eax
	call	@__security_check_cookie@4
	mov	ecx, DWORD PTR [edx-4]
	xor	ecx, eax
	call	@__security_check_cookie@4
	mov	eax, OFFSET __ehfuncinfo$??0GraveMarkers@@QAE@N@Z
	jmp	___CxxFrameHandler3
text$x	ENDS
??0GraveMarkers@@QAE@N@Z ENDP				; GraveMarkers::GraveMarkers
; Function compile flags: /Odtp /RTCsu
; File c:\users\teaja\documents\artificial-fun\labravenprojecttest\common\2d\vector2d.h
;	COMDAT ??0Vector2D@@QAE@NN@Z
_TEXT	SEGMENT
_this$ = -4						; size = 4
_a$ = 8							; size = 8
_b$ = 16						; size = 8
??0Vector2D@@QAE@NN@Z PROC				; Vector2D::Vector2D, COMDAT
; _this$ = ecx

; 25   :   Vector2D(double a, double b):x(a),y(b){}

	push	ebp
	mov	ebp, esp
	push	ecx
	mov	DWORD PTR [ebp-4], -858993460		; ccccccccH
	mov	DWORD PTR _this$[ebp], ecx
	mov	eax, DWORD PTR _this$[ebp]
	fld	QWORD PTR _a$[ebp]
	fstp	QWORD PTR [eax]
	mov	ecx, DWORD PTR _this$[ebp]
	fld	QWORD PTR _b$[ebp]
	fstp	QWORD PTR [ecx+8]
	mov	eax, DWORD PTR _this$[ebp]
	mov	esp, ebp
	pop	ebp
	ret	16					; 00000010H
??0Vector2D@@QAE@NN@Z ENDP				; Vector2D::Vector2D
_TEXT	ENDS
PUBLIC	??E?$_List_iterator@V?$_List_val@UGraveRecord@GraveMarkers@@V?$allocator@UGraveRecord@GraveMarkers@@@std@@@std@@@std@@QAEAAV01@XZ ; std::_List_iterator<std::_List_val<GraveMarkers::GraveRecord,std::allocator<GraveMarkers::GraveRecord> > >::operator++
PUBLIC	??4?$_List_iterator@V?$_List_val@UGraveRecord@GraveMarkers@@V?$allocator@UGraveRecord@GraveMarkers@@@std@@@std@@@std@@QAEAAV01@ABV01@@Z ; std::_List_iterator<std::_List_val<GraveMarkers::GraveRecord,std::allocator<GraveMarkers::GraveRecord> > >::operator=
PUBLIC	?erase@?$list@UGraveRecord@GraveMarkers@@V?$allocator@UGraveRecord@GraveMarkers@@@std@@@std@@QAE?AV?$_List_iterator@V?$_List_val@UGraveRecord@GraveMarkers@@V?$allocator@UGraveRecord@GraveMarkers@@@std@@@std@@@2@V?$_List_const_iterator@V?$_List_val@UGraveRecord@GraveMarkers@@V?$allocator@UGraveRecord@GraveMarkers@@@std@@@std@@@2@@Z ; std::list<GraveMarkers::GraveRecord,std::allocator<GraveMarkers::GraveRecord> >::erase
PUBLIC	??0?$_List_const_iterator@V?$_List_val@UGraveRecord@GraveMarkers@@V?$allocator@UGraveRecord@GraveMarkers@@@std@@@std@@@std@@QAE@ABV01@@Z ; std::_List_const_iterator<std::_List_val<GraveMarkers::GraveRecord,std::allocator<GraveMarkers::GraveRecord> > >::_List_const_iterator<std::_List_val<GraveMarkers::GraveRecord,std::allocator<GraveMarkers::GraveRecord> > >
PUBLIC	??C?$_List_iterator@V?$_List_val@UGraveRecord@GraveMarkers@@V?$allocator@UGraveRecord@GraveMarkers@@@std@@@std@@@std@@QBEPAUGraveRecord@GraveMarkers@@XZ ; std::_List_iterator<std::_List_val<GraveMarkers::GraveRecord,std::allocator<GraveMarkers::GraveRecord> > >::operator->
PUBLIC	?GetTickCount@CrudeTimer@@QAENXZ		; CrudeTimer::GetTickCount
PUBLIC	??1?$_List_iterator@V?$_List_val@UGraveRecord@GraveMarkers@@V?$allocator@UGraveRecord@GraveMarkers@@@std@@@std@@@std@@QAE@XZ ; std::_List_iterator<std::_List_val<GraveMarkers::GraveRecord,std::allocator<GraveMarkers::GraveRecord> > >::~_List_iterator<std::_List_val<GraveMarkers::GraveRecord,std::allocator<GraveMarkers::GraveRecord> > >
PUBLIC	??9?$_List_const_iterator@V?$_List_val@UGraveRecord@GraveMarkers@@V?$allocator@UGraveRecord@GraveMarkers@@@std@@@std@@@std@@QBE_NABV01@@Z ; std::_List_const_iterator<std::_List_val<GraveMarkers::GraveRecord,std::allocator<GraveMarkers::GraveRecord> > >::operator!=
PUBLIC	?end@?$list@UGraveRecord@GraveMarkers@@V?$allocator@UGraveRecord@GraveMarkers@@@std@@@std@@QAE?AV?$_List_iterator@V?$_List_val@UGraveRecord@GraveMarkers@@V?$allocator@UGraveRecord@GraveMarkers@@@std@@@std@@@2@XZ ; std::list<GraveMarkers::GraveRecord,std::allocator<GraveMarkers::GraveRecord> >::end
PUBLIC	?begin@?$list@UGraveRecord@GraveMarkers@@V?$allocator@UGraveRecord@GraveMarkers@@@std@@@std@@QAE?AV?$_List_iterator@V?$_List_val@UGraveRecord@GraveMarkers@@V?$allocator@UGraveRecord@GraveMarkers@@@std@@@std@@@2@XZ ; std::list<GraveMarkers::GraveRecord,std::allocator<GraveMarkers::GraveRecord> >::begin
PUBLIC	?Update@GraveMarkers@@QAEXXZ			; GraveMarkers::Update
EXTRN	?Instance@CrudeTimer@@SAPAV1@XZ:PROC		; CrudeTimer::Instance
xdata$x	SEGMENT
__unwindtable$?Update@GraveMarkers@@QAEXXZ DD 0ffffffffH
	DD	FLAT:__unwindfunclet$?Update@GraveMarkers@@QAEXXZ$0
	DD	00H
	DD	FLAT:__unwindfunclet$?Update@GraveMarkers@@QAEXXZ$1
	DD	00H
	DD	FLAT:__unwindfunclet$?Update@GraveMarkers@@QAEXXZ$3
__ehfuncinfo$?Update@GraveMarkers@@QAEXXZ DD 019930522H
	DD	03H
	DD	FLAT:__unwindtable$?Update@GraveMarkers@@QAEXXZ
	DD	2 DUP(00H)
	DD	2 DUP(00H)
	DD	00H
	DD	01H
; Function compile flags: /Odtp /RTCsu
; File c:\users\teaja\documents\artificial-fun\labravenprojecttest\raven\gravemarkers.cpp
xdata$x	ENDS
_TEXT	SEGMENT
tv162 = -96						; size = 4
tv160 = -92						; size = 4
tv159 = -88						; size = 4
tv192 = -84						; size = 8
tv157 = -76						; size = 4
tv66 = -72						; size = 4
$T134793 = -68						; size = 12
$T134792 = -56						; size = 4
$T134791 = -52						; size = 12
$T134790 = -37						; size = 1
_it$ = -32						; size = 12
_this$ = -16						; size = 4
__$EHRec$ = -12						; size = 12
?Update@GraveMarkers@@QAEXXZ PROC			; GraveMarkers::Update
; _this$ = ecx

; 28   : {

	push	ebp
	mov	ebp, esp
	push	-1
	push	__ehhandler$?Update@GraveMarkers@@QAEXXZ
	mov	eax, DWORD PTR fs:0
	push	eax
	sub	esp, 84					; 00000054H
	push	edi
	push	ecx
	lea	edi, DWORD PTR [ebp-96]
	mov	ecx, 21					; 00000015H
	mov	eax, -858993460				; ccccccccH
	rep stosd
	pop	ecx
	mov	eax, DWORD PTR ___security_cookie
	xor	eax, ebp
	push	eax
	lea	eax, DWORD PTR __$EHRec$[ebp]
	mov	DWORD PTR fs:0, eax
	mov	DWORD PTR _this$[ebp], ecx

; 29   :   GraveList::iterator it = m_GraveList.begin();

	lea	eax, DWORD PTR _it$[ebp]
	push	eax
	mov	ecx, DWORD PTR _this$[ebp]
	add	ecx, 48					; 00000030H
	call	?begin@?$list@UGraveRecord@GraveMarkers@@V?$allocator@UGraveRecord@GraveMarkers@@@std@@@std@@QAE?AV?$_List_iterator@V?$_List_val@UGraveRecord@GraveMarkers@@V?$allocator@UGraveRecord@GraveMarkers@@@std@@@std@@@2@XZ ; std::list<GraveMarkers::GraveRecord,std::allocator<GraveMarkers::GraveRecord> >::begin
	mov	DWORD PTR __$EHRec$[ebp+8], 0
$LN4@Update:

; 30   :   while (it != m_GraveList.end())

	lea	ecx, DWORD PTR $T134791[ebp]
	push	ecx
	mov	ecx, DWORD PTR _this$[ebp]
	add	ecx, 48					; 00000030H
	call	?end@?$list@UGraveRecord@GraveMarkers@@V?$allocator@UGraveRecord@GraveMarkers@@@std@@@std@@QAE?AV?$_List_iterator@V?$_List_val@UGraveRecord@GraveMarkers@@V?$allocator@UGraveRecord@GraveMarkers@@@std@@@std@@@2@XZ ; std::list<GraveMarkers::GraveRecord,std::allocator<GraveMarkers::GraveRecord> >::end
	mov	DWORD PTR tv66[ebp], eax
	mov	edx, DWORD PTR tv66[ebp]
	mov	DWORD PTR tv157[ebp], edx
	mov	BYTE PTR __$EHRec$[ebp+8], 1
	mov	eax, DWORD PTR tv157[ebp]
	push	eax
	lea	ecx, DWORD PTR _it$[ebp]
	call	??9?$_List_const_iterator@V?$_List_val@UGraveRecord@GraveMarkers@@V?$allocator@UGraveRecord@GraveMarkers@@@std@@@std@@@std@@QBE_NABV01@@Z ; std::_List_const_iterator<std::_List_val<GraveMarkers::GraveRecord,std::allocator<GraveMarkers::GraveRecord> > >::operator!=
	mov	BYTE PTR $T134790[ebp], al
	mov	BYTE PTR __$EHRec$[ebp+8], 0
	lea	ecx, DWORD PTR $T134791[ebp]
	call	??1?$_List_iterator@V?$_List_val@UGraveRecord@GraveMarkers@@V?$allocator@UGraveRecord@GraveMarkers@@@std@@@std@@@std@@QAE@XZ
	movzx	ecx, BYTE PTR $T134790[ebp]
	test	ecx, ecx
	je	$LN3@Update

; 31   :   {
; 32   :     if (Clock->GetCurrentTime() - it->TimeCreated > m_dLifeTime)

	call	?Instance@CrudeTimer@@SAPAV1@XZ		; CrudeTimer::Instance
	mov	ecx, eax
	call	?GetTickCount@CrudeTimer@@QAENXZ	; CrudeTimer::GetTickCount
	lea	ecx, DWORD PTR _it$[ebp]
	fstp	QWORD PTR tv192[ebp]
	call	??C?$_List_iterator@V?$_List_val@UGraveRecord@GraveMarkers@@V?$allocator@UGraveRecord@GraveMarkers@@@std@@@std@@@std@@QBEPAUGraveRecord@GraveMarkers@@XZ ; std::_List_iterator<std::_List_val<GraveMarkers::GraveRecord,std::allocator<GraveMarkers::GraveRecord> > >::operator->
	fld	QWORD PTR tv192[ebp]
	fsub	QWORD PTR [eax+16]
	mov	edx, DWORD PTR _this$[ebp]
	fcomp	QWORD PTR [edx]
	fnstsw	ax
	test	ah, 65					; 00000041H
	jne	SHORT $LN2@Update

; 33   :     {
; 34   :       it = m_GraveList.erase(it);

	sub	esp, 12					; 0000000cH
	mov	ecx, esp
	mov	DWORD PTR $T134792[ebp], esp
	lea	eax, DWORD PTR _it$[ebp]
	push	eax
	call	??0?$_List_const_iterator@V?$_List_val@UGraveRecord@GraveMarkers@@V?$allocator@UGraveRecord@GraveMarkers@@@std@@@std@@@std@@QAE@ABV01@@Z
	mov	DWORD PTR tv159[ebp], eax
	lea	ecx, DWORD PTR $T134793[ebp]
	push	ecx
	mov	ecx, DWORD PTR _this$[ebp]
	add	ecx, 48					; 00000030H
	call	?erase@?$list@UGraveRecord@GraveMarkers@@V?$allocator@UGraveRecord@GraveMarkers@@@std@@@std@@QAE?AV?$_List_iterator@V?$_List_val@UGraveRecord@GraveMarkers@@V?$allocator@UGraveRecord@GraveMarkers@@@std@@@std@@@2@V?$_List_const_iterator@V?$_List_val@UGraveRecord@GraveMarkers@@V?$allocator@UGraveRecord@GraveMarkers@@@std@@@std@@@2@@Z ; std::list<GraveMarkers::GraveRecord,std::allocator<GraveMarkers::GraveRecord> >::erase
	mov	DWORD PTR tv160[ebp], eax
	mov	edx, DWORD PTR tv160[ebp]
	mov	DWORD PTR tv162[ebp], edx
	mov	BYTE PTR __$EHRec$[ebp+8], 2
	mov	eax, DWORD PTR tv162[ebp]
	push	eax
	lea	ecx, DWORD PTR _it$[ebp]
	call	??4?$_List_iterator@V?$_List_val@UGraveRecord@GraveMarkers@@V?$allocator@UGraveRecord@GraveMarkers@@@std@@@std@@@std@@QAEAAV01@ABV01@@Z
	mov	BYTE PTR __$EHRec$[ebp+8], 0
	lea	ecx, DWORD PTR $T134793[ebp]
	call	??1?$_List_iterator@V?$_List_val@UGraveRecord@GraveMarkers@@V?$allocator@UGraveRecord@GraveMarkers@@@std@@@std@@@std@@QAE@XZ

; 35   :     }
; 36   :     else

	jmp	SHORT $LN1@Update
$LN2@Update:

; 37   :     {
; 38   :       ++it;

	lea	ecx, DWORD PTR _it$[ebp]
	call	??E?$_List_iterator@V?$_List_val@UGraveRecord@GraveMarkers@@V?$allocator@UGraveRecord@GraveMarkers@@@std@@@std@@@std@@QAEAAV01@XZ ; std::_List_iterator<std::_List_val<GraveMarkers::GraveRecord,std::allocator<GraveMarkers::GraveRecord> > >::operator++
$LN1@Update:

; 39   :     }
; 40   :   }

	jmp	$LN4@Update
$LN3@Update:

; 41   : }

	mov	DWORD PTR __$EHRec$[ebp+8], -1
	lea	ecx, DWORD PTR _it$[ebp]
	call	??1?$_List_iterator@V?$_List_val@UGraveRecord@GraveMarkers@@V?$allocator@UGraveRecord@GraveMarkers@@@std@@@std@@@std@@QAE@XZ
	push	edx
	mov	ecx, ebp
	push	eax
	lea	edx, DWORD PTR $LN14@Update
	call	@_RTC_CheckStackVars@8
	pop	eax
	pop	edx
	mov	ecx, DWORD PTR __$EHRec$[ebp]
	mov	DWORD PTR fs:0, ecx
	pop	ecx
	pop	edi
	add	esp, 96					; 00000060H
	cmp	ebp, esp
	call	__RTC_CheckEsp
	mov	esp, ebp
	pop	ebp
	ret	0
	npad	3
$LN14@Update:
	DD	1
	DD	$LN13@Update
$LN13@Update:
	DD	-32					; ffffffe0H
	DD	12					; 0000000cH
	DD	$LN11@Update
$LN11@Update:
	DB	105					; 00000069H
	DB	116					; 00000074H
	DB	0
_TEXT	ENDS
text$x	SEGMENT
__unwindfunclet$?Update@GraveMarkers@@QAEXXZ$0:
	lea	ecx, DWORD PTR _it$[ebp]
	jmp	??1?$_List_iterator@V?$_List_val@UGraveRecord@GraveMarkers@@V?$allocator@UGraveRecord@GraveMarkers@@@std@@@std@@@std@@QAE@XZ
__unwindfunclet$?Update@GraveMarkers@@QAEXXZ$1:
	lea	ecx, DWORD PTR $T134791[ebp]
	jmp	??1?$_List_iterator@V?$_List_val@UGraveRecord@GraveMarkers@@V?$allocator@UGraveRecord@GraveMarkers@@@std@@@std@@@std@@QAE@XZ
__unwindfunclet$?Update@GraveMarkers@@QAEXXZ$3:
	lea	ecx, DWORD PTR $T134793[ebp]
	jmp	??1?$_List_iterator@V?$_List_val@UGraveRecord@GraveMarkers@@V?$allocator@UGraveRecord@GraveMarkers@@@std@@@std@@@std@@QAE@XZ
__ehhandler$?Update@GraveMarkers@@QAEXXZ:
	mov	edx, DWORD PTR [esp+8]
	lea	eax, DWORD PTR [edx+12]
	mov	ecx, DWORD PTR [edx-92]
	xor	ecx, eax
	call	@__security_check_cookie@4
	mov	eax, OFFSET __ehfuncinfo$?Update@GraveMarkers@@QAEXXZ
	jmp	___CxxFrameHandler3
text$x	ENDS
?Update@GraveMarkers@@QAEXXZ ENDP			; GraveMarkers::Update
PUBLIC	__real@3f50624dd2f1a9fc
EXTRN	__imp__timeGetTime@0:PROC
;	COMDAT __real@3f50624dd2f1a9fc
; File c:\users\teaja\documents\artificial-fun\labravenprojecttest\common\time\crudetimer.h
CONST	SEGMENT
__real@3f50624dd2f1a9fc DQ 03f50624dd2f1a9fcr	; 0.001
; Function compile flags: /Odtp /RTCsu
CONST	ENDS
;	COMDAT ?GetTickCount@CrudeTimer@@QAENXZ
_TEXT	SEGMENT
tv71 = -12						; size = 8
_this$ = -4						; size = 4
?GetTickCount@CrudeTimer@@QAENXZ PROC			; CrudeTimer::GetTickCount, COMDAT
; _this$ = ecx

; 42   :   double GetCurrentTime(){return timeGetTime() * 0.001 - m_dStartTime;}

	push	ebp
	mov	ebp, esp
	sub	esp, 12					; 0000000cH
	push	esi
	mov	DWORD PTR [ebp-12], -858993460		; ccccccccH
	mov	DWORD PTR [ebp-8], -858993460		; ccccccccH
	mov	DWORD PTR [ebp-4], -858993460		; ccccccccH
	mov	DWORD PTR _this$[ebp], ecx
	mov	esi, esp
	call	DWORD PTR __imp__timeGetTime@0
	cmp	esi, esp
	call	__RTC_CheckEsp
	mov	DWORD PTR tv71[ebp], eax
	mov	DWORD PTR tv71[ebp+4], 0
	fild	QWORD PTR tv71[ebp]
	fmul	QWORD PTR __real@3f50624dd2f1a9fc
	mov	eax, DWORD PTR _this$[ebp]
	fsub	QWORD PTR [eax]
	pop	esi
	add	esp, 12					; 0000000cH
	cmp	ebp, esp
	call	__RTC_CheckEsp
	mov	esp, ebp
	pop	ebp
	ret	0
?GetTickCount@CrudeTimer@@QAENXZ ENDP			; CrudeTimer::GetTickCount
_TEXT	ENDS
PUBLIC	??1?$_List_const_iterator@V?$_List_val@UGraveRecord@GraveMarkers@@V?$allocator@UGraveRecord@GraveMarkers@@@std@@@std@@@std@@QAE@XZ ; std::_List_const_iterator<std::_List_val<GraveMarkers::GraveRecord,std::allocator<GraveMarkers::GraveRecord> > >::~_List_const_iterator<std::_List_val<GraveMarkers::GraveRecord,std::allocator<GraveMarkers::GraveRecord> > >
; Function compile flags: /Odtp /RTCsu
;	COMDAT ??1?$_List_iterator@V?$_List_val@UGraveRecord@GraveMarkers@@V?$allocator@UGraveRecord@GraveMarkers@@@std@@@std@@@std@@QAE@XZ
_TEXT	SEGMENT
_this$ = -4						; size = 4
??1?$_List_iterator@V?$_List_val@UGraveRecord@GraveMarkers@@V?$allocator@UGraveRecord@GraveMarkers@@@std@@@std@@@std@@QAE@XZ PROC ; std::_List_iterator<std::_List_val<GraveMarkers::GraveRecord,std::allocator<GraveMarkers::GraveRecord> > >::~_List_iterator<std::_List_val<GraveMarkers::GraveRecord,std::allocator<GraveMarkers::GraveRecord> > >, COMDAT
; _this$ = ecx
	push	ebp
	mov	ebp, esp
	push	ecx
	mov	DWORD PTR [ebp-4], -858993460		; ccccccccH
	mov	DWORD PTR _this$[ebp], ecx
	mov	ecx, DWORD PTR _this$[ebp]
	call	??1?$_List_const_iterator@V?$_List_val@UGraveRecord@GraveMarkers@@V?$allocator@UGraveRecord@GraveMarkers@@@std@@@std@@@std@@QAE@XZ
	add	esp, 4
	cmp	ebp, esp
	call	__RTC_CheckEsp
	mov	esp, ebp
	pop	ebp
	ret	0
??1?$_List_iterator@V?$_List_val@UGraveRecord@GraveMarkers@@V?$allocator@UGraveRecord@GraveMarkers@@@std@@@std@@@std@@QAE@XZ ENDP ; std::_List_iterator<std::_List_val<GraveMarkers::GraveRecord,std::allocator<GraveMarkers::GraveRecord> > >::~_List_iterator<std::_List_val<GraveMarkers::GraveRecord,std::allocator<GraveMarkers::GraveRecord> > >
_TEXT	ENDS
PUBLIC	??0?$_List_unchecked_const_iterator@V?$_List_val@UGraveRecord@GraveMarkers@@V?$allocator@UGraveRecord@GraveMarkers@@@std@@@std@@U_Iterator_base12@2@@std@@QAE@ABV01@@Z ; std::_List_unchecked_const_iterator<std::_List_val<GraveMarkers::GraveRecord,std::allocator<GraveMarkers::GraveRecord> >,std::_Iterator_base12>::_List_unchecked_const_iterator<std::_List_val<GraveMarkers::GraveRecord,std::allocator<GraveMarkers::GraveRecord> >,std::_Iterator_base12>
; Function compile flags: /Odtp /RTCsu
;	COMDAT ??0?$_List_const_iterator@V?$_List_val@UGraveRecord@GraveMarkers@@V?$allocator@UGraveRecord@GraveMarkers@@@std@@@std@@@std@@QAE@ABV01@@Z
_TEXT	SEGMENT
_this$ = -4						; size = 4
___that$ = 8						; size = 4
??0?$_List_const_iterator@V?$_List_val@UGraveRecord@GraveMarkers@@V?$allocator@UGraveRecord@GraveMarkers@@@std@@@std@@@std@@QAE@ABV01@@Z PROC ; std::_List_const_iterator<std::_List_val<GraveMarkers::GraveRecord,std::allocator<GraveMarkers::GraveRecord> > >::_List_const_iterator<std::_List_val<GraveMarkers::GraveRecord,std::allocator<GraveMarkers::GraveRecord> > >, COMDAT
; _this$ = ecx
	push	ebp
	mov	ebp, esp
	push	ecx
	mov	DWORD PTR [ebp-4], -858993460		; ccccccccH
	mov	DWORD PTR _this$[ebp], ecx
	mov	eax, DWORD PTR ___that$[ebp]
	push	eax
	mov	ecx, DWORD PTR _this$[ebp]
	call	??0?$_List_unchecked_const_iterator@V?$_List_val@UGraveRecord@GraveMarkers@@V?$allocator@UGraveRecord@GraveMarkers@@@std@@@std@@U_Iterator_base12@2@@std@@QAE@ABV01@@Z
	mov	eax, DWORD PTR _this$[ebp]
	add	esp, 4
	cmp	ebp, esp
	call	__RTC_CheckEsp
	mov	esp, ebp
	pop	ebp
	ret	4
??0?$_List_const_iterator@V?$_List_val@UGraveRecord@GraveMarkers@@V?$allocator@UGraveRecord@GraveMarkers@@@std@@@std@@@std@@QAE@ABV01@@Z ENDP ; std::_List_const_iterator<std::_List_val<GraveMarkers::GraveRecord,std::allocator<GraveMarkers::GraveRecord> > >::_List_const_iterator<std::_List_val<GraveMarkers::GraveRecord,std::allocator<GraveMarkers::GraveRecord> > >
_TEXT	ENDS
PUBLIC	??1?$_List_unchecked_const_iterator@V?$_List_val@UGraveRecord@GraveMarkers@@V?$allocator@UGraveRecord@GraveMarkers@@@std@@@std@@U_Iterator_base12@2@@std@@QAE@XZ ; std::_List_unchecked_const_iterator<std::_List_val<GraveMarkers::GraveRecord,std::allocator<GraveMarkers::GraveRecord> >,std::_Iterator_base12>::~_List_unchecked_const_iterator<std::_List_val<GraveMarkers::GraveRecord,std::allocator<GraveMarkers::GraveRecord> >,std::_Iterator_base12>
; Function compile flags: /Odtp /RTCsu
;	COMDAT ??1?$_List_const_iterator@V?$_List_val@UGraveRecord@GraveMarkers@@V?$allocator@UGraveRecord@GraveMarkers@@@std@@@std@@@std@@QAE@XZ
_TEXT	SEGMENT
_this$ = -4						; size = 4
??1?$_List_const_iterator@V?$_List_val@UGraveRecord@GraveMarkers@@V?$allocator@UGraveRecord@GraveMarkers@@@std@@@std@@@std@@QAE@XZ PROC ; std::_List_const_iterator<std::_List_val<GraveMarkers::GraveRecord,std::allocator<GraveMarkers::GraveRecord> > >::~_List_const_iterator<std::_List_val<GraveMarkers::GraveRecord,std::allocator<GraveMarkers::GraveRecord> > >, COMDAT
; _this$ = ecx
	push	ebp
	mov	ebp, esp
	push	ecx
	mov	DWORD PTR [ebp-4], -858993460		; ccccccccH
	mov	DWORD PTR _this$[ebp], ecx
	mov	ecx, DWORD PTR _this$[ebp]
	call	??1?$_List_unchecked_const_iterator@V?$_List_val@UGraveRecord@GraveMarkers@@V?$allocator@UGraveRecord@GraveMarkers@@@std@@@std@@U_Iterator_base12@2@@std@@QAE@XZ
	add	esp, 4
	cmp	ebp, esp
	call	__RTC_CheckEsp
	mov	esp, ebp
	pop	ebp
	ret	0
??1?$_List_const_iterator@V?$_List_val@UGraveRecord@GraveMarkers@@V?$allocator@UGraveRecord@GraveMarkers@@@std@@@std@@@std@@QAE@XZ ENDP ; std::_List_const_iterator<std::_List_val<GraveMarkers::GraveRecord,std::allocator<GraveMarkers::GraveRecord> > >::~_List_const_iterator<std::_List_val<GraveMarkers::GraveRecord,std::allocator<GraveMarkers::GraveRecord> > >
_TEXT	ENDS
PUBLIC	??4?$_List_const_iterator@V?$_List_val@UGraveRecord@GraveMarkers@@V?$allocator@UGraveRecord@GraveMarkers@@@std@@@std@@@std@@QAEAAV01@ABV01@@Z ; std::_List_const_iterator<std::_List_val<GraveMarkers::GraveRecord,std::allocator<GraveMarkers::GraveRecord> > >::operator=
; Function compile flags: /Odtp /RTCsu
;	COMDAT ??4?$_List_iterator@V?$_List_val@UGraveRecord@GraveMarkers@@V?$allocator@UGraveRecord@GraveMarkers@@@std@@@std@@@std@@QAEAAV01@ABV01@@Z
_TEXT	SEGMENT
_this$ = -4						; size = 4
___that$ = 8						; size = 4
??4?$_List_iterator@V?$_List_val@UGraveRecord@GraveMarkers@@V?$allocator@UGraveRecord@GraveMarkers@@@std@@@std@@@std@@QAEAAV01@ABV01@@Z PROC ; std::_List_iterator<std::_List_val<GraveMarkers::GraveRecord,std::allocator<GraveMarkers::GraveRecord> > >::operator=, COMDAT
; _this$ = ecx
	push	ebp
	mov	ebp, esp
	push	ecx
	mov	DWORD PTR [ebp-4], -858993460		; ccccccccH
	mov	DWORD PTR _this$[ebp], ecx
	mov	eax, DWORD PTR ___that$[ebp]
	push	eax
	mov	ecx, DWORD PTR _this$[ebp]
	call	??4?$_List_const_iterator@V?$_List_val@UGraveRecord@GraveMarkers@@V?$allocator@UGraveRecord@GraveMarkers@@@std@@@std@@@std@@QAEAAV01@ABV01@@Z
	mov	eax, DWORD PTR _this$[ebp]
	add	esp, 4
	cmp	ebp, esp
	call	__RTC_CheckEsp
	mov	esp, ebp
	pop	ebp
	ret	4
??4?$_List_iterator@V?$_List_val@UGraveRecord@GraveMarkers@@V?$allocator@UGraveRecord@GraveMarkers@@@std@@@std@@@std@@QAEAAV01@ABV01@@Z ENDP ; std::_List_iterator<std::_List_val<GraveMarkers::GraveRecord,std::allocator<GraveMarkers::GraveRecord> > >::operator=
_TEXT	ENDS
PUBLIC	??0?$_Iterator012@Ubidirectional_iterator_tag@std@@UGraveRecord@GraveMarkers@@HPBU34@ABU34@U_Iterator_base12@2@@std@@QAE@ABU01@@Z ; std::_Iterator012<std::bidirectional_iterator_tag,GraveMarkers::GraveRecord,int,GraveMarkers::GraveRecord const *,GraveMarkers::GraveRecord const &,std::_Iterator_base12>::_Iterator012<std::bidirectional_iterator_tag,GraveMarkers::GraveRecord,int,GraveMarkers::GraveRecord const *,GraveMarkers::GraveRecord const &,std::_Iterator_base12>
; Function compile flags: /Odtp /RTCsu
;	COMDAT ??0?$_List_unchecked_const_iterator@V?$_List_val@UGraveRecord@GraveMarkers@@V?$allocator@UGraveRecord@GraveMarkers@@@std@@@std@@U_Iterator_base12@2@@std@@QAE@ABV01@@Z
_TEXT	SEGMENT
_this$ = -4						; size = 4
___that$ = 8						; size = 4
??0?$_List_unchecked_const_iterator@V?$_List_val@UGraveRecord@GraveMarkers@@V?$allocator@UGraveRecord@GraveMarkers@@@std@@@std@@U_Iterator_base12@2@@std@@QAE@ABV01@@Z PROC ; std::_List_unchecked_const_iterator<std::_List_val<GraveMarkers::GraveRecord,std::allocator<GraveMarkers::GraveRecord> >,std::_Iterator_base12>::_List_unchecked_const_iterator<std::_List_val<GraveMarkers::GraveRecord,std::allocator<GraveMarkers::GraveRecord> >,std::_Iterator_base12>, COMDAT
; _this$ = ecx
	push	ebp
	mov	ebp, esp
	push	ecx
	mov	DWORD PTR [ebp-4], -858993460		; ccccccccH
	mov	DWORD PTR _this$[ebp], ecx
	mov	eax, DWORD PTR ___that$[ebp]
	push	eax
	mov	ecx, DWORD PTR _this$[ebp]
	call	??0?$_Iterator012@Ubidirectional_iterator_tag@std@@UGraveRecord@GraveMarkers@@HPBU34@ABU34@U_Iterator_base12@2@@std@@QAE@ABU01@@Z
	mov	ecx, DWORD PTR _this$[ebp]
	mov	edx, DWORD PTR ___that$[ebp]
	mov	eax, DWORD PTR [edx+8]
	mov	DWORD PTR [ecx+8], eax
	mov	eax, DWORD PTR _this$[ebp]
	add	esp, 4
	cmp	ebp, esp
	call	__RTC_CheckEsp
	mov	esp, ebp
	pop	ebp
	ret	4
??0?$_List_unchecked_const_iterator@V?$_List_val@UGraveRecord@GraveMarkers@@V?$allocator@UGraveRecord@GraveMarkers@@@std@@@std@@U_Iterator_base12@2@@std@@QAE@ABV01@@Z ENDP ; std::_List_unchecked_const_iterator<std::_List_val<GraveMarkers::GraveRecord,std::allocator<GraveMarkers::GraveRecord> >,std::_Iterator_base12>::_List_unchecked_const_iterator<std::_List_val<GraveMarkers::GraveRecord,std::allocator<GraveMarkers::GraveRecord> >,std::_Iterator_base12>
_TEXT	ENDS
PUBLIC	??1?$_Iterator012@Ubidirectional_iterator_tag@std@@UGraveRecord@GraveMarkers@@HPBU34@ABU34@U_Iterator_base12@2@@std@@QAE@XZ ; std::_Iterator012<std::bidirectional_iterator_tag,GraveMarkers::GraveRecord,int,GraveMarkers::GraveRecord const *,GraveMarkers::GraveRecord const &,std::_Iterator_base12>::~_Iterator012<std::bidirectional_iterator_tag,GraveMarkers::GraveRecord,int,GraveMarkers::GraveRecord const *,GraveMarkers::GraveRecord const &,std::_Iterator_base12>
; Function compile flags: /Odtp /RTCsu
;	COMDAT ??1?$_List_unchecked_const_iterator@V?$_List_val@UGraveRecord@GraveMarkers@@V?$allocator@UGraveRecord@GraveMarkers@@@std@@@std@@U_Iterator_base12@2@@std@@QAE@XZ
_TEXT	SEGMENT
_this$ = -4						; size = 4
??1?$_List_unchecked_const_iterator@V?$_List_val@UGraveRecord@GraveMarkers@@V?$allocator@UGraveRecord@GraveMarkers@@@std@@@std@@U_Iterator_base12@2@@std@@QAE@XZ PROC ; std::_List_unchecked_const_iterator<std::_List_val<GraveMarkers::GraveRecord,std::allocator<GraveMarkers::GraveRecord> >,std::_Iterator_base12>::~_List_unchecked_const_iterator<std::_List_val<GraveMarkers::GraveRecord,std::allocator<GraveMarkers::GraveRecord> >,std::_Iterator_base12>, COMDAT
; _this$ = ecx
	push	ebp
	mov	ebp, esp
	push	ecx
	mov	DWORD PTR [ebp-4], -858993460		; ccccccccH
	mov	DWORD PTR _this$[ebp], ecx
	mov	ecx, DWORD PTR _this$[ebp]
	call	??1?$_Iterator012@Ubidirectional_iterator_tag@std@@UGraveRecord@GraveMarkers@@HPBU34@ABU34@U_Iterator_base12@2@@std@@QAE@XZ
	add	esp, 4
	cmp	ebp, esp
	call	__RTC_CheckEsp
	mov	esp, ebp
	pop	ebp
	ret	0
??1?$_List_unchecked_const_iterator@V?$_List_val@UGraveRecord@GraveMarkers@@V?$allocator@UGraveRecord@GraveMarkers@@@std@@@std@@U_Iterator_base12@2@@std@@QAE@XZ ENDP ; std::_List_unchecked_const_iterator<std::_List_val<GraveMarkers::GraveRecord,std::allocator<GraveMarkers::GraveRecord> >,std::_Iterator_base12>::~_List_unchecked_const_iterator<std::_List_val<GraveMarkers::GraveRecord,std::allocator<GraveMarkers::GraveRecord> >,std::_Iterator_base12>
_TEXT	ENDS
PUBLIC	??4?$_List_unchecked_const_iterator@V?$_List_val@UGraveRecord@GraveMarkers@@V?$allocator@UGraveRecord@GraveMarkers@@@std@@@std@@U_Iterator_base12@2@@std@@QAEAAV01@ABV01@@Z ; std::_List_unchecked_const_iterator<std::_List_val<GraveMarkers::GraveRecord,std::allocator<GraveMarkers::GraveRecord> >,std::_Iterator_base12>::operator=
; Function compile flags: /Odtp /RTCsu
;	COMDAT ??4?$_List_const_iterator@V?$_List_val@UGraveRecord@GraveMarkers@@V?$allocator@UGraveRecord@GraveMarkers@@@std@@@std@@@std@@QAEAAV01@ABV01@@Z
_TEXT	SEGMENT
_this$ = -4						; size = 4
___that$ = 8						; size = 4
??4?$_List_const_iterator@V?$_List_val@UGraveRecord@GraveMarkers@@V?$allocator@UGraveRecord@GraveMarkers@@@std@@@std@@@std@@QAEAAV01@ABV01@@Z PROC ; std::_List_const_iterator<std::_List_val<GraveMarkers::GraveRecord,std::allocator<GraveMarkers::GraveRecord> > >::operator=, COMDAT
; _this$ = ecx
	push	ebp
	mov	ebp, esp
	push	ecx
	mov	DWORD PTR [ebp-4], -858993460		; ccccccccH
	mov	DWORD PTR _this$[ebp], ecx
	mov	eax, DWORD PTR ___that$[ebp]
	push	eax
	mov	ecx, DWORD PTR _this$[ebp]
	call	??4?$_List_unchecked_const_iterator@V?$_List_val@UGraveRecord@GraveMarkers@@V?$allocator@UGraveRecord@GraveMarkers@@@std@@@std@@U_Iterator_base12@2@@std@@QAEAAV01@ABV01@@Z
	mov	eax, DWORD PTR _this$[ebp]
	add	esp, 4
	cmp	ebp, esp
	call	__RTC_CheckEsp
	mov	esp, ebp
	pop	ebp
	ret	4
??4?$_List_const_iterator@V?$_List_val@UGraveRecord@GraveMarkers@@V?$allocator@UGraveRecord@GraveMarkers@@@std@@@std@@@std@@QAEAAV01@ABV01@@Z ENDP ; std::_List_const_iterator<std::_List_val<GraveMarkers::GraveRecord,std::allocator<GraveMarkers::GraveRecord> > >::operator=
_TEXT	ENDS
PUBLIC	??0_Iterator_base12@std@@QAE@ABU01@@Z		; std::_Iterator_base12::_Iterator_base12
; Function compile flags: /Odtp /RTCsu
;	COMDAT ??0?$_Iterator012@Ubidirectional_iterator_tag@std@@UGraveRecord@GraveMarkers@@HPBU34@ABU34@U_Iterator_base12@2@@std@@QAE@ABU01@@Z
_TEXT	SEGMENT
_this$ = -4						; size = 4
___that$ = 8						; size = 4
??0?$_Iterator012@Ubidirectional_iterator_tag@std@@UGraveRecord@GraveMarkers@@HPBU34@ABU34@U_Iterator_base12@2@@std@@QAE@ABU01@@Z PROC ; std::_Iterator012<std::bidirectional_iterator_tag,GraveMarkers::GraveRecord,int,GraveMarkers::GraveRecord const *,GraveMarkers::GraveRecord const &,std::_Iterator_base12>::_Iterator012<std::bidirectional_iterator_tag,GraveMarkers::GraveRecord,int,GraveMarkers::GraveRecord const *,GraveMarkers::GraveRecord const &,std::_Iterator_base12>, COMDAT
; _this$ = ecx
	push	ebp
	mov	ebp, esp
	push	ecx
	mov	DWORD PTR [ebp-4], -858993460		; ccccccccH
	mov	DWORD PTR _this$[ebp], ecx
	mov	eax, DWORD PTR ___that$[ebp]
	push	eax
	mov	ecx, DWORD PTR _this$[ebp]
	call	??0_Iterator_base12@std@@QAE@ABU01@@Z	; std::_Iterator_base12::_Iterator_base12
	mov	eax, DWORD PTR _this$[ebp]
	add	esp, 4
	cmp	ebp, esp
	call	__RTC_CheckEsp
	mov	esp, ebp
	pop	ebp
	ret	4
??0?$_Iterator012@Ubidirectional_iterator_tag@std@@UGraveRecord@GraveMarkers@@HPBU34@ABU34@U_Iterator_base12@2@@std@@QAE@ABU01@@Z ENDP ; std::_Iterator012<std::bidirectional_iterator_tag,GraveMarkers::GraveRecord,int,GraveMarkers::GraveRecord const *,GraveMarkers::GraveRecord const &,std::_Iterator_base12>::_Iterator012<std::bidirectional_iterator_tag,GraveMarkers::GraveRecord,int,GraveMarkers::GraveRecord const *,GraveMarkers::GraveRecord const &,std::_Iterator_base12>
_TEXT	ENDS
PUBLIC	??4_Iterator_base12@std@@QAEAAU01@ABU01@@Z	; std::_Iterator_base12::operator=
; Function compile flags: /Odtp /RTCsu
; File c:\program files (x86)\microsoft visual studio 10.0\vc\include\xutility
;	COMDAT ??0_Iterator_base12@std@@QAE@ABU01@@Z
_TEXT	SEGMENT
_this$ = -4						; size = 4
__Right$ = 8						; size = 4
??0_Iterator_base12@std@@QAE@ABU01@@Z PROC		; std::_Iterator_base12::_Iterator_base12, COMDAT
; _this$ = ecx

; 116  : 		{	// copy an iterator

	push	ebp
	mov	ebp, esp
	push	ecx
	mov	DWORD PTR [ebp-4], -858993460		; ccccccccH
	mov	DWORD PTR _this$[ebp], ecx
	mov	eax, DWORD PTR _this$[ebp]
	mov	DWORD PTR [eax], 0
	mov	ecx, DWORD PTR _this$[ebp]
	mov	DWORD PTR [ecx+4], 0

; 117  : 		*this = _Right;

	mov	edx, DWORD PTR __Right$[ebp]
	push	edx
	mov	ecx, DWORD PTR _this$[ebp]
	call	??4_Iterator_base12@std@@QAEAAU01@ABU01@@Z ; std::_Iterator_base12::operator=

; 118  : 		}

	mov	eax, DWORD PTR _this$[ebp]
	add	esp, 4
	cmp	ebp, esp
	call	__RTC_CheckEsp
	mov	esp, ebp
	pop	ebp
	ret	4
??0_Iterator_base12@std@@QAE@ABU01@@Z ENDP		; std::_Iterator_base12::_Iterator_base12
_TEXT	ENDS
PUBLIC	?_Orphan_me@_Iterator_base12@std@@QAEXXZ	; std::_Iterator_base12::_Orphan_me
PUBLIC	?_Adopt@_Iterator_base12@std@@QAEXPBU_Container_base12@2@@Z ; std::_Iterator_base12::_Adopt
EXTRN	??1_Lockit@std@@QAE@XZ:PROC			; std::_Lockit::~_Lockit
EXTRN	??0_Lockit@std@@QAE@H@Z:PROC			; std::_Lockit::_Lockit
;	COMDAT xdata$x
xdata$x	SEGMENT
__unwindtable$??4_Iterator_base12@std@@QAEAAU01@ABU01@@Z DD 0ffffffffH
	DD	FLAT:__unwindfunclet$??4_Iterator_base12@std@@QAEAAU01@ABU01@@Z$0
__ehfuncinfo$??4_Iterator_base12@std@@QAEAAU01@ABU01@@Z DD 019930522H
	DD	01H
	DD	FLAT:__unwindtable$??4_Iterator_base12@std@@QAEAAU01@ABU01@@Z
	DD	2 DUP(00H)
	DD	2 DUP(00H)
	DD	00H
	DD	01H
; Function compile flags: /Odtp /RTCsu
xdata$x	ENDS
;	COMDAT ??4_Iterator_base12@std@@QAEAAU01@ABU01@@Z
_TEXT	SEGMENT
__Lock$15136 = -24					; size = 4
_this$ = -16						; size = 4
__$EHRec$ = -12						; size = 12
__Right$ = 8						; size = 4
??4_Iterator_base12@std@@QAEAAU01@ABU01@@Z PROC		; std::_Iterator_base12::operator=, COMDAT
; _this$ = ecx

; 121  : 		{	// assign an iterator

	push	ebp
	mov	ebp, esp
	push	-1
	push	__ehhandler$??4_Iterator_base12@std@@QAEAAU01@ABU01@@Z
	mov	eax, DWORD PTR fs:0
	push	eax
	sub	esp, 16					; 00000010H
	mov	eax, -858993460				; ccccccccH
	mov	DWORD PTR [ebp-28], eax
	mov	DWORD PTR [ebp-24], eax
	mov	DWORD PTR [ebp-20], eax
	mov	DWORD PTR [ebp-16], eax
	mov	eax, DWORD PTR ___security_cookie
	xor	eax, ebp
	push	eax
	lea	eax, DWORD PTR __$EHRec$[ebp]
	mov	DWORD PTR fs:0, eax
	mov	DWORD PTR _this$[ebp], ecx

; 122  : 		if (_Myproxy == _Right._Myproxy)

	mov	eax, DWORD PTR _this$[ebp]
	mov	ecx, DWORD PTR __Right$[ebp]
	mov	edx, DWORD PTR [eax]
	cmp	edx, DWORD PTR [ecx]
	jne	SHORT $LN4@operator
	jmp	SHORT $LN3@operator
$LN4@operator:

; 123  : 			;
; 124  : 		else if (_Right._Myproxy != 0)

	mov	eax, DWORD PTR __Right$[ebp]
	cmp	DWORD PTR [eax], 0
	je	SHORT $LN2@operator

; 125  : 			_Adopt(_Right._Myproxy->_Mycont);

	mov	ecx, DWORD PTR __Right$[ebp]
	mov	edx, DWORD PTR [ecx]
	mov	eax, DWORD PTR [edx]
	push	eax
	mov	ecx, DWORD PTR _this$[ebp]
	call	?_Adopt@_Iterator_base12@std@@QAEXPBU_Container_base12@2@@Z ; std::_Iterator_base12::_Adopt

; 126  : 		else

	jmp	SHORT $LN3@operator
$LN2@operator:

; 127  : 			{	// becoming invalid, disown current parent
; 128  : 			_Lockit _Lock(_LOCK_DEBUG);

	push	3
	lea	ecx, DWORD PTR __Lock$15136[ebp]
	call	??0_Lockit@std@@QAE@H@Z			; std::_Lockit::_Lockit
	mov	DWORD PTR __$EHRec$[ebp+8], 0

; 129  : 			_Orphan_me();

	mov	ecx, DWORD PTR _this$[ebp]
	call	?_Orphan_me@_Iterator_base12@std@@QAEXXZ ; std::_Iterator_base12::_Orphan_me

; 130  : 			}

	mov	DWORD PTR __$EHRec$[ebp+8], -1
	lea	ecx, DWORD PTR __Lock$15136[ebp]
	call	??1_Lockit@std@@QAE@XZ			; std::_Lockit::~_Lockit
$LN3@operator:

; 131  : 		return (*this);

	mov	eax, DWORD PTR _this$[ebp]

; 132  : 		}

	push	edx
	mov	ecx, ebp
	push	eax
	lea	edx, DWORD PTR $LN11@operator
	call	@_RTC_CheckStackVars@8
	pop	eax
	pop	edx
	mov	ecx, DWORD PTR __$EHRec$[ebp]
	mov	DWORD PTR fs:0, ecx
	pop	ecx
	add	esp, 28					; 0000001cH
	cmp	ebp, esp
	call	__RTC_CheckEsp
	mov	esp, ebp
	pop	ebp
	ret	4
$LN11@operator:
	DD	1
	DD	$LN10@operator
$LN10@operator:
	DD	-24					; ffffffe8H
	DD	4
	DD	$LN8@operator
$LN8@operator:
	DB	95					; 0000005fH
	DB	76					; 0000004cH
	DB	111					; 0000006fH
	DB	99					; 00000063H
	DB	107					; 0000006bH
	DB	0
_TEXT	ENDS
;	COMDAT text$x
text$x	SEGMENT
__unwindfunclet$??4_Iterator_base12@std@@QAEAAU01@ABU01@@Z$0:
	lea	ecx, DWORD PTR __Lock$15136[ebp]
	jmp	??1_Lockit@std@@QAE@XZ			; std::_Lockit::~_Lockit
__ehhandler$??4_Iterator_base12@std@@QAEAAU01@ABU01@@Z:
	mov	edx, DWORD PTR [esp+8]
	lea	eax, DWORD PTR [edx+12]
	mov	ecx, DWORD PTR [edx-20]
	xor	ecx, eax
	call	@__security_check_cookie@4
	mov	eax, OFFSET __ehfuncinfo$??4_Iterator_base12@std@@QAEAAU01@ABU01@@Z
	jmp	___CxxFrameHandler3
text$x	ENDS
??4_Iterator_base12@std@@QAEAAU01@ABU01@@Z ENDP		; std::_Iterator_base12::operator=
;	COMDAT xdata$x
xdata$x	SEGMENT
__unwindtable$?_Adopt@_Iterator_base12@std@@QAEXPBU_Container_base12@2@@Z DD 0ffffffffH
	DD	FLAT:__unwindfunclet$?_Adopt@_Iterator_base12@std@@QAEXPBU_Container_base12@2@@Z$0
	DD	0ffffffffH
	DD	FLAT:__unwindfunclet$?_Adopt@_Iterator_base12@std@@QAEXPBU_Container_base12@2@@Z$1
__ehfuncinfo$?_Adopt@_Iterator_base12@std@@QAEXPBU_Container_base12@2@@Z DD 019930522H
	DD	02H
	DD	FLAT:__unwindtable$?_Adopt@_Iterator_base12@std@@QAEXPBU_Container_base12@2@@Z
	DD	2 DUP(00H)
	DD	2 DUP(00H)
	DD	00H
	DD	01H
; Function compile flags: /Odtp /RTCsu
xdata$x	ENDS
;	COMDAT ?_Adopt@_Iterator_base12@std@@QAEXPBU_Container_base12@2@@Z
_TEXT	SEGMENT
__Lock$15147 = -40					; size = 4
__Parent_proxy$15145 = -32				; size = 4
__Lock$15143 = -24					; size = 4
_this$ = -16						; size = 4
__$EHRec$ = -12						; size = 12
__Parent$ = 8						; size = 4
?_Adopt@_Iterator_base12@std@@QAEXPBU_Container_base12@2@@Z PROC ; std::_Iterator_base12::_Adopt, COMDAT
; _this$ = ecx

; 143  : 		{	// adopt this iterator by parent

	push	ebp
	mov	ebp, esp
	push	-1
	push	__ehhandler$?_Adopt@_Iterator_base12@std@@QAEXPBU_Container_base12@2@@Z
	mov	eax, DWORD PTR fs:0
	push	eax
	sub	esp, 32					; 00000020H
	mov	eax, -858993460				; ccccccccH
	mov	DWORD PTR [ebp-44], eax
	mov	DWORD PTR [ebp-40], eax
	mov	DWORD PTR [ebp-36], eax
	mov	DWORD PTR [ebp-32], eax
	mov	DWORD PTR [ebp-28], eax
	mov	DWORD PTR [ebp-24], eax
	mov	DWORD PTR [ebp-20], eax
	mov	DWORD PTR [ebp-16], eax
	mov	eax, DWORD PTR ___security_cookie
	xor	eax, ebp
	push	eax
	lea	eax, DWORD PTR __$EHRec$[ebp]
	mov	DWORD PTR fs:0, eax
	mov	DWORD PTR _this$[ebp], ecx

; 144  : 		if (_Parent == 0)

	cmp	DWORD PTR __Parent$[ebp], 0
	jne	SHORT $LN3@Adopt

; 145  : 			{	// no future parent, just disown current parent
; 146  : 			_Lockit _Lock(_LOCK_DEBUG);

	push	3
	lea	ecx, DWORD PTR __Lock$15143[ebp]
	call	??0_Lockit@std@@QAE@H@Z			; std::_Lockit::_Lockit
	mov	DWORD PTR __$EHRec$[ebp+8], 0

; 147  : 			_Orphan_me();

	mov	ecx, DWORD PTR _this$[ebp]
	call	?_Orphan_me@_Iterator_base12@std@@QAEXXZ ; std::_Iterator_base12::_Orphan_me

; 148  : 			}

	mov	DWORD PTR __$EHRec$[ebp+8], -1
	lea	ecx, DWORD PTR __Lock$15143[ebp]
	call	??1_Lockit@std@@QAE@XZ			; std::_Lockit::~_Lockit

; 149  : 		else

	jmp	SHORT $LN4@Adopt
$LN3@Adopt:

; 150  : 			{	// have a parent, do adoption
; 151  : 			_Container_proxy *_Parent_proxy = _Parent->_Myproxy;

	mov	eax, DWORD PTR __Parent$[ebp]
	mov	ecx, DWORD PTR [eax]
	mov	DWORD PTR __Parent_proxy$15145[ebp], ecx

; 152  : 
; 153  :  #if _ITERATOR_DEBUG_LEVEL == 2
; 154  : 			if (_Myproxy != _Parent_proxy)

	mov	edx, DWORD PTR _this$[ebp]
	mov	eax, DWORD PTR [edx]
	cmp	eax, DWORD PTR __Parent_proxy$15145[ebp]
	je	SHORT $LN4@Adopt

; 155  : 				{	// change parentage
; 156  : 				_Lockit _Lock(_LOCK_DEBUG);

	push	3
	lea	ecx, DWORD PTR __Lock$15147[ebp]
	call	??0_Lockit@std@@QAE@H@Z			; std::_Lockit::_Lockit
	mov	DWORD PTR __$EHRec$[ebp+8], 1

; 157  : 				_Orphan_me();

	mov	ecx, DWORD PTR _this$[ebp]
	call	?_Orphan_me@_Iterator_base12@std@@QAEXXZ ; std::_Iterator_base12::_Orphan_me

; 158  : 				_Mynextiter = _Parent_proxy->_Myfirstiter;

	mov	ecx, DWORD PTR _this$[ebp]
	mov	edx, DWORD PTR __Parent_proxy$15145[ebp]
	mov	eax, DWORD PTR [edx+4]
	mov	DWORD PTR [ecx+4], eax

; 159  : 				_Parent_proxy->_Myfirstiter = this;

	mov	ecx, DWORD PTR __Parent_proxy$15145[ebp]
	mov	edx, DWORD PTR _this$[ebp]
	mov	DWORD PTR [ecx+4], edx

; 160  : 				_Myproxy = _Parent_proxy;

	mov	eax, DWORD PTR _this$[ebp]
	mov	ecx, DWORD PTR __Parent_proxy$15145[ebp]
	mov	DWORD PTR [eax], ecx

; 161  : 				}

	mov	DWORD PTR __$EHRec$[ebp+8], -1
	lea	ecx, DWORD PTR __Lock$15147[ebp]
	call	??1_Lockit@std@@QAE@XZ			; std::_Lockit::~_Lockit
$LN4@Adopt:

; 162  :  #else /* _ITERATOR_DEBUG_LEVEL == 2 */
; 163  : 			_Myproxy = _Parent_proxy;
; 164  :  #endif /* _ITERATOR_DEBUG_LEVEL == 2 */
; 165  : 			}
; 166  : 		}

	push	edx
	mov	ecx, ebp
	push	eax
	lea	edx, DWORD PTR $LN12@Adopt
	call	@_RTC_CheckStackVars@8
	pop	eax
	pop	edx
	mov	ecx, DWORD PTR __$EHRec$[ebp]
	mov	DWORD PTR fs:0, ecx
	pop	ecx
	add	esp, 44					; 0000002cH
	cmp	ebp, esp
	call	__RTC_CheckEsp
	mov	esp, ebp
	pop	ebp
	ret	4
$LN12@Adopt:
	DD	2
	DD	$LN11@Adopt
$LN11@Adopt:
	DD	-24					; ffffffe8H
	DD	4
	DD	$LN8@Adopt
	DD	-40					; ffffffd8H
	DD	4
	DD	$LN9@Adopt
$LN9@Adopt:
	DB	95					; 0000005fH
	DB	76					; 0000004cH
	DB	111					; 0000006fH
	DB	99					; 00000063H
	DB	107					; 0000006bH
	DB	0
$LN8@Adopt:
	DB	95					; 0000005fH
	DB	76					; 0000004cH
	DB	111					; 0000006fH
	DB	99					; 00000063H
	DB	107					; 0000006bH
	DB	0
_TEXT	ENDS
;	COMDAT text$x
text$x	SEGMENT
__unwindfunclet$?_Adopt@_Iterator_base12@std@@QAEXPBU_Container_base12@2@@Z$0:
	lea	ecx, DWORD PTR __Lock$15143[ebp]
	jmp	??1_Lockit@std@@QAE@XZ			; std::_Lockit::~_Lockit
__unwindfunclet$?_Adopt@_Iterator_base12@std@@QAEXPBU_Container_base12@2@@Z$1:
	lea	ecx, DWORD PTR __Lock$15147[ebp]
	jmp	??1_Lockit@std@@QAE@XZ			; std::_Lockit::~_Lockit
__ehhandler$?_Adopt@_Iterator_base12@std@@QAEXPBU_Container_base12@2@@Z:
	mov	edx, DWORD PTR [esp+8]
	lea	eax, DWORD PTR [edx+12]
	mov	ecx, DWORD PTR [edx-36]
	xor	ecx, eax
	call	@__security_check_cookie@4
	mov	eax, OFFSET __ehfuncinfo$?_Adopt@_Iterator_base12@std@@QAEXPBU_Container_base12@2@@Z
	jmp	___CxxFrameHandler3
text$x	ENDS
?_Adopt@_Iterator_base12@std@@QAEXPBU_Container_base12@2@@Z ENDP ; std::_Iterator_base12::_Adopt
PUBLIC	??_C@_1DC@POOIKBAO@?$AAI?$AAT?$AAE?$AAR?$AAA?$AAT?$AAO?$AAR?$AA?5?$AAL?$AAI?$AAS?$AAT?$AA?5?$AAC?$AAO?$AAR?$AAR?$AAU?$AAP?$AAT?$AAE?$AAD?$AA?$CB?$AA?$AA@ ; `string'
PUBLIC	??_C@_1JA@HCKHPKJH@?$AAc?$AA?3?$AA?2?$AAP?$AAr?$AAo?$AAg?$AAr?$AAa?$AAm?$AA?5?$AAF?$AAi?$AAl?$AAe?$AAs?$AA?5?$AA?$CI?$AAx?$AA8?$AA6?$AA?$CJ?$AA?2?$AAM?$AAi?$AAc?$AAr?$AAo?$AAs?$AAo?$AAf?$AAt@ ; `string'
EXTRN	?_Debug_message@std@@YAXPB_W0I@Z:PROC		; std::_Debug_message
;	COMDAT ??_C@_1DC@POOIKBAO@?$AAI?$AAT?$AAE?$AAR?$AAA?$AAT?$AAO?$AAR?$AA?5?$AAL?$AAI?$AAS?$AAT?$AA?5?$AAC?$AAO?$AAR?$AAR?$AAU?$AAP?$AAT?$AAE?$AAD?$AA?$CB?$AA?$AA@
CONST	SEGMENT
??_C@_1DC@POOIKBAO@?$AAI?$AAT?$AAE?$AAR?$AAA?$AAT?$AAO?$AAR?$AA?5?$AAL?$AAI?$AAS?$AAT?$AA?5?$AAC?$AAO?$AAR?$AAR?$AAU?$AAP?$AAT?$AAE?$AAD?$AA?$CB?$AA?$AA@ DB 'I'
	DB	00H, 'T', 00H, 'E', 00H, 'R', 00H, 'A', 00H, 'T', 00H, 'O', 00H
	DB	'R', 00H, ' ', 00H, 'L', 00H, 'I', 00H, 'S', 00H, 'T', 00H, ' '
	DB	00H, 'C', 00H, 'O', 00H, 'R', 00H, 'R', 00H, 'U', 00H, 'P', 00H
	DB	'T', 00H, 'E', 00H, 'D', 00H, '!', 00H, 00H, 00H ; `string'
CONST	ENDS
;	COMDAT ??_C@_1JA@HCKHPKJH@?$AAc?$AA?3?$AA?2?$AAP?$AAr?$AAo?$AAg?$AAr?$AAa?$AAm?$AA?5?$AAF?$AAi?$AAl?$AAe?$AAs?$AA?5?$AA?$CI?$AAx?$AA8?$AA6?$AA?$CJ?$AA?2?$AAM?$AAi?$AAc?$AAr?$AAo?$AAs?$AAo?$AAf?$AAt@
CONST	SEGMENT
??_C@_1JA@HCKHPKJH@?$AAc?$AA?3?$AA?2?$AAP?$AAr?$AAo?$AAg?$AAr?$AAa?$AAm?$AA?5?$AAF?$AAi?$AAl?$AAe?$AAs?$AA?5?$AA?$CI?$AAx?$AA8?$AA6?$AA?$CJ?$AA?2?$AAM?$AAi?$AAc?$AAr?$AAo?$AAs?$AAo?$AAf?$AAt@ DB 'c'
	DB	00H, ':', 00H, '\', 00H, 'P', 00H, 'r', 00H, 'o', 00H, 'g', 00H
	DB	'r', 00H, 'a', 00H, 'm', 00H, ' ', 00H, 'F', 00H, 'i', 00H, 'l'
	DB	00H, 'e', 00H, 's', 00H, ' ', 00H, '(', 00H, 'x', 00H, '8', 00H
	DB	'6', 00H, ')', 00H, '\', 00H, 'M', 00H, 'i', 00H, 'c', 00H, 'r'
	DB	00H, 'o', 00H, 's', 00H, 'o', 00H, 'f', 00H, 't', 00H, ' ', 00H
	DB	'V', 00H, 'i', 00H, 's', 00H, 'u', 00H, 'a', 00H, 'l', 00H, ' '
	DB	00H, 'S', 00H, 't', 00H, 'u', 00H, 'd', 00H, 'i', 00H, 'o', 00H
	DB	' ', 00H, '1', 00H, '0', 00H, '.', 00H, '0', 00H, '\', 00H, 'V'
	DB	00H, 'C', 00H, '\', 00H, 'i', 00H, 'n', 00H, 'c', 00H, 'l', 00H
	DB	'u', 00H, 'd', 00H, 'e', 00H, '\', 00H, 'x', 00H, 'u', 00H, 't'
	DB	00H, 'i', 00H, 'l', 00H, 'i', 00H, 't', 00H, 'y', 00H, 00H, 00H ; `string'
; Function compile flags: /Odtp /RTCsu
CONST	ENDS
;	COMDAT ?_Orphan_me@_Iterator_base12@std@@QAEXXZ
_TEXT	SEGMENT
__Pnext$15157 = -8					; size = 4
_this$ = -4						; size = 4
?_Orphan_me@_Iterator_base12@std@@QAEXXZ PROC		; std::_Iterator_base12::_Orphan_me, COMDAT
; _this$ = ecx

; 184  : 		{	// cut ties with parent

	push	ebp
	mov	ebp, esp
	sub	esp, 8
	mov	DWORD PTR [ebp-8], -858993460		; ccccccccH
	mov	DWORD PTR [ebp-4], -858993460		; ccccccccH
	mov	DWORD PTR _this$[ebp], ecx

; 185  :  #if _ITERATOR_DEBUG_LEVEL == 2
; 186  : 		if (_Myproxy != 0)

	mov	eax, DWORD PTR _this$[ebp]
	cmp	DWORD PTR [eax], 0
	je	SHORT $LN5@Orphan_me

; 187  : 			{	// adopted, remove self from list
; 188  : 			_Iterator_base12 **_Pnext = &_Myproxy->_Myfirstiter;

	mov	ecx, DWORD PTR _this$[ebp]
	mov	edx, DWORD PTR [ecx]
	add	edx, 4
	mov	DWORD PTR __Pnext$15157[ebp], edx
$LN3@Orphan_me:

; 189  : 			while (*_Pnext != 0 && *_Pnext != this)

	mov	eax, DWORD PTR __Pnext$15157[ebp]
	cmp	DWORD PTR [eax], 0
	je	SHORT $LN2@Orphan_me
	mov	ecx, DWORD PTR __Pnext$15157[ebp]
	mov	edx, DWORD PTR [ecx]
	cmp	edx, DWORD PTR _this$[ebp]
	je	SHORT $LN2@Orphan_me

; 190  : 				_Pnext = &(*_Pnext)->_Mynextiter;

	mov	eax, DWORD PTR __Pnext$15157[ebp]
	mov	ecx, DWORD PTR [eax]
	add	ecx, 4
	mov	DWORD PTR __Pnext$15157[ebp], ecx
	jmp	SHORT $LN3@Orphan_me
$LN2@Orphan_me:

; 191  : 
; 192  : 			if (*_Pnext == 0)

	mov	edx, DWORD PTR __Pnext$15157[ebp]
	cmp	DWORD PTR [edx], 0
	jne	SHORT $LN1@Orphan_me

; 193  : 				_DEBUG_ERROR("ITERATOR LIST CORRUPTED!");

	push	193					; 000000c1H
	push	OFFSET ??_C@_1JA@HCKHPKJH@?$AAc?$AA?3?$AA?2?$AAP?$AAr?$AAo?$AAg?$AAr?$AAa?$AAm?$AA?5?$AAF?$AAi?$AAl?$AAe?$AAs?$AA?5?$AA?$CI?$AAx?$AA8?$AA6?$AA?$CJ?$AA?2?$AAM?$AAi?$AAc?$AAr?$AAo?$AAs?$AAo?$AAf?$AAt@
	push	OFFSET ??_C@_1DC@POOIKBAO@?$AAI?$AAT?$AAE?$AAR?$AAA?$AAT?$AAO?$AAR?$AA?5?$AAL?$AAI?$AAS?$AAT?$AA?5?$AAC?$AAO?$AAR?$AAR?$AAU?$AAP?$AAT?$AAE?$AAD?$AA?$CB?$AA?$AA@
	call	?_Debug_message@std@@YAXPB_W0I@Z	; std::_Debug_message
	add	esp, 12					; 0000000cH
$LN1@Orphan_me:

; 194  : 			*_Pnext = _Mynextiter;

	mov	eax, DWORD PTR __Pnext$15157[ebp]
	mov	ecx, DWORD PTR _this$[ebp]
	mov	edx, DWORD PTR [ecx+4]
	mov	DWORD PTR [eax], edx

; 195  : 			_Myproxy = 0;

	mov	eax, DWORD PTR _this$[ebp]
	mov	DWORD PTR [eax], 0
$LN5@Orphan_me:

; 196  : 			}
; 197  :  #endif /* _ITERATOR_DEBUG_LEVEL == 2 */
; 198  : 		}

	add	esp, 8
	cmp	ebp, esp
	call	__RTC_CheckEsp
	mov	esp, ebp
	pop	ebp
	ret	0
?_Orphan_me@_Iterator_base12@std@@QAEXXZ ENDP		; std::_Iterator_base12::_Orphan_me
_TEXT	ENDS
PUBLIC	??1_Iterator_base12@std@@QAE@XZ			; std::_Iterator_base12::~_Iterator_base12
; Function compile flags: /Odtp /RTCsu
;	COMDAT ??1?$_Iterator012@Ubidirectional_iterator_tag@std@@UGraveRecord@GraveMarkers@@HPBU34@ABU34@U_Iterator_base12@2@@std@@QAE@XZ
_TEXT	SEGMENT
_this$ = -4						; size = 4
??1?$_Iterator012@Ubidirectional_iterator_tag@std@@UGraveRecord@GraveMarkers@@HPBU34@ABU34@U_Iterator_base12@2@@std@@QAE@XZ PROC ; std::_Iterator012<std::bidirectional_iterator_tag,GraveMarkers::GraveRecord,int,GraveMarkers::GraveRecord const *,GraveMarkers::GraveRecord const &,std::_Iterator_base12>::~_Iterator012<std::bidirectional_iterator_tag,GraveMarkers::GraveRecord,int,GraveMarkers::GraveRecord const *,GraveMarkers::GraveRecord const &,std::_Iterator_base12>, COMDAT
; _this$ = ecx
	push	ebp
	mov	ebp, esp
	push	ecx
	mov	DWORD PTR [ebp-4], -858993460		; ccccccccH
	mov	DWORD PTR _this$[ebp], ecx
	mov	ecx, DWORD PTR _this$[ebp]
	call	??1_Iterator_base12@std@@QAE@XZ		; std::_Iterator_base12::~_Iterator_base12
	add	esp, 4
	cmp	ebp, esp
	call	__RTC_CheckEsp
	mov	esp, ebp
	pop	ebp
	ret	0
??1?$_Iterator012@Ubidirectional_iterator_tag@std@@UGraveRecord@GraveMarkers@@HPBU34@ABU34@U_Iterator_base12@2@@std@@QAE@XZ ENDP ; std::_Iterator012<std::bidirectional_iterator_tag,GraveMarkers::GraveRecord,int,GraveMarkers::GraveRecord const *,GraveMarkers::GraveRecord const &,std::_Iterator_base12>::~_Iterator012<std::bidirectional_iterator_tag,GraveMarkers::GraveRecord,int,GraveMarkers::GraveRecord const *,GraveMarkers::GraveRecord const &,std::_Iterator_base12>
_TEXT	ENDS
;	COMDAT xdata$x
xdata$x	SEGMENT
__unwindtable$??1_Iterator_base12@std@@QAE@XZ DD 0ffffffffH
	DD	FLAT:__unwindfunclet$??1_Iterator_base12@std@@QAE@XZ$0
__ehfuncinfo$??1_Iterator_base12@std@@QAE@XZ DD 019930522H
	DD	01H
	DD	FLAT:__unwindtable$??1_Iterator_base12@std@@QAE@XZ
	DD	2 DUP(00H)
	DD	2 DUP(00H)
	DD	00H
	DD	01H
; Function compile flags: /Odtp /RTCsu
xdata$x	ENDS
;	COMDAT ??1_Iterator_base12@std@@QAE@XZ
_TEXT	SEGMENT
__Lock$ = -24						; size = 4
_this$ = -16						; size = 4
__$EHRec$ = -12						; size = 12
??1_Iterator_base12@std@@QAE@XZ PROC			; std::_Iterator_base12::~_Iterator_base12, COMDAT
; _this$ = ecx

; 135  : 		{	// destroy the iterator

	push	ebp
	mov	ebp, esp
	push	-1
	push	__ehhandler$??1_Iterator_base12@std@@QAE@XZ
	mov	eax, DWORD PTR fs:0
	push	eax
	sub	esp, 16					; 00000010H
	mov	eax, -858993460				; ccccccccH
	mov	DWORD PTR [ebp-28], eax
	mov	DWORD PTR [ebp-24], eax
	mov	DWORD PTR [ebp-20], eax
	mov	DWORD PTR [ebp-16], eax
	mov	eax, DWORD PTR ___security_cookie
	xor	eax, ebp
	push	eax
	lea	eax, DWORD PTR __$EHRec$[ebp]
	mov	DWORD PTR fs:0, eax
	mov	DWORD PTR _this$[ebp], ecx

; 136  :  #if _ITERATOR_DEBUG_LEVEL == 2
; 137  : 		_Lockit _Lock(_LOCK_DEBUG);

	push	3
	lea	ecx, DWORD PTR __Lock$[ebp]
	call	??0_Lockit@std@@QAE@H@Z			; std::_Lockit::_Lockit
	mov	DWORD PTR __$EHRec$[ebp+8], 0

; 138  : 		_Orphan_me();

	mov	ecx, DWORD PTR _this$[ebp]
	call	?_Orphan_me@_Iterator_base12@std@@QAEXXZ ; std::_Iterator_base12::_Orphan_me

; 139  :  #endif /* _ITERATOR_DEBUG_LEVEL == 2 */
; 140  : 		}

	mov	DWORD PTR __$EHRec$[ebp+8], -1
	lea	ecx, DWORD PTR __Lock$[ebp]
	call	??1_Lockit@std@@QAE@XZ			; std::_Lockit::~_Lockit
	push	edx
	mov	ecx, ebp
	push	eax
	lea	edx, DWORD PTR $LN7@Iterator_b
	call	@_RTC_CheckStackVars@8
	pop	eax
	pop	edx
	mov	ecx, DWORD PTR __$EHRec$[ebp]
	mov	DWORD PTR fs:0, ecx
	pop	ecx
	add	esp, 28					; 0000001cH
	cmp	ebp, esp
	call	__RTC_CheckEsp
	mov	esp, ebp
	pop	ebp
	ret	0
	npad	1
$LN7@Iterator_b:
	DD	1
	DD	$LN6@Iterator_b
$LN6@Iterator_b:
	DD	-24					; ffffffe8H
	DD	4
	DD	$LN4@Iterator_b
$LN4@Iterator_b:
	DB	95					; 0000005fH
	DB	76					; 0000004cH
	DB	111					; 0000006fH
	DB	99					; 00000063H
	DB	107					; 0000006bH
	DB	0
_TEXT	ENDS
;	COMDAT text$x
text$x	SEGMENT
__unwindfunclet$??1_Iterator_base12@std@@QAE@XZ$0:
	lea	ecx, DWORD PTR __Lock$[ebp]
	jmp	??1_Lockit@std@@QAE@XZ			; std::_Lockit::~_Lockit
__ehhandler$??1_Iterator_base12@std@@QAE@XZ:
	mov	edx, DWORD PTR [esp+8]
	lea	eax, DWORD PTR [edx+12]
	mov	ecx, DWORD PTR [edx-20]
	xor	ecx, eax
	call	@__security_check_cookie@4
	mov	eax, OFFSET __ehfuncinfo$??1_Iterator_base12@std@@QAE@XZ
	jmp	___CxxFrameHandler3
text$x	ENDS
??1_Iterator_base12@std@@QAE@XZ ENDP			; std::_Iterator_base12::~_Iterator_base12
PUBLIC	??4?$_Iterator012@Ubidirectional_iterator_tag@std@@UGraveRecord@GraveMarkers@@HPBU34@ABU34@U_Iterator_base12@2@@std@@QAEAAU01@ABU01@@Z ; std::_Iterator012<std::bidirectional_iterator_tag,GraveMarkers::GraveRecord,int,GraveMarkers::GraveRecord const *,GraveMarkers::GraveRecord const &,std::_Iterator_base12>::operator=
; Function compile flags: /Odtp /RTCsu
;	COMDAT ??4?$_List_unchecked_const_iterator@V?$_List_val@UGraveRecord@GraveMarkers@@V?$allocator@UGraveRecord@GraveMarkers@@@std@@@std@@U_Iterator_base12@2@@std@@QAEAAV01@ABV01@@Z
_TEXT	SEGMENT
_this$ = -4						; size = 4
___that$ = 8						; size = 4
??4?$_List_unchecked_const_iterator@V?$_List_val@UGraveRecord@GraveMarkers@@V?$allocator@UGraveRecord@GraveMarkers@@@std@@@std@@U_Iterator_base12@2@@std@@QAEAAV01@ABV01@@Z PROC ; std::_List_unchecked_const_iterator<std::_List_val<GraveMarkers::GraveRecord,std::allocator<GraveMarkers::GraveRecord> >,std::_Iterator_base12>::operator=, COMDAT
; _this$ = ecx
	push	ebp
	mov	ebp, esp
	push	ecx
	mov	DWORD PTR [ebp-4], -858993460		; ccccccccH
	mov	DWORD PTR _this$[ebp], ecx
	mov	eax, DWORD PTR ___that$[ebp]
	push	eax
	mov	ecx, DWORD PTR _this$[ebp]
	call	??4?$_Iterator012@Ubidirectional_iterator_tag@std@@UGraveRecord@GraveMarkers@@HPBU34@ABU34@U_Iterator_base12@2@@std@@QAEAAU01@ABU01@@Z
	mov	ecx, DWORD PTR _this$[ebp]
	mov	edx, DWORD PTR ___that$[ebp]
	mov	eax, DWORD PTR [edx+8]
	mov	DWORD PTR [ecx+8], eax
	mov	eax, DWORD PTR _this$[ebp]
	add	esp, 4
	cmp	ebp, esp
	call	__RTC_CheckEsp
	mov	esp, ebp
	pop	ebp
	ret	4
??4?$_List_unchecked_const_iterator@V?$_List_val@UGraveRecord@GraveMarkers@@V?$allocator@UGraveRecord@GraveMarkers@@@std@@@std@@U_Iterator_base12@2@@std@@QAEAAV01@ABV01@@Z ENDP ; std::_List_unchecked_const_iterator<std::_List_val<GraveMarkers::GraveRecord,std::allocator<GraveMarkers::GraveRecord> >,std::_Iterator_base12>::operator=
; Function compile flags: /Odtp /RTCsu
_TEXT	ENDS
;	COMDAT ??4?$_Iterator012@Ubidirectional_iterator_tag@std@@UGraveRecord@GraveMarkers@@HPBU34@ABU34@U_Iterator_base12@2@@std@@QAEAAU01@ABU01@@Z
_TEXT	SEGMENT
_this$ = -4						; size = 4
___that$ = 8						; size = 4
??4?$_Iterator012@Ubidirectional_iterator_tag@std@@UGraveRecord@GraveMarkers@@HPBU34@ABU34@U_Iterator_base12@2@@std@@QAEAAU01@ABU01@@Z PROC ; std::_Iterator012<std::bidirectional_iterator_tag,GraveMarkers::GraveRecord,int,GraveMarkers::GraveRecord const *,GraveMarkers::GraveRecord const &,std::_Iterator_base12>::operator=, COMDAT
; _this$ = ecx
	push	ebp
	mov	ebp, esp
	push	ecx
	mov	DWORD PTR [ebp-4], -858993460		; ccccccccH
	mov	DWORD PTR _this$[ebp], ecx
	mov	eax, DWORD PTR ___that$[ebp]
	push	eax
	mov	ecx, DWORD PTR _this$[ebp]
	call	??4_Iterator_base12@std@@QAEAAU01@ABU01@@Z ; std::_Iterator_base12::operator=
	mov	eax, DWORD PTR _this$[ebp]
	add	esp, 4
	cmp	ebp, esp
	call	__RTC_CheckEsp
	mov	esp, ebp
	pop	ebp
	ret	4
??4?$_Iterator012@Ubidirectional_iterator_tag@std@@UGraveRecord@GraveMarkers@@HPBU34@ABU34@U_Iterator_base12@2@@std@@QAEAAU01@ABU01@@Z ENDP ; std::_Iterator012<std::bidirectional_iterator_tag,GraveMarkers::GraveRecord,int,GraveMarkers::GraveRecord const *,GraveMarkers::GraveRecord const &,std::_Iterator_base12>::operator=
_TEXT	ENDS
PUBLIC	??1?$basic_string@DU?$char_traits@D@std@@V?$allocator@D@2@@std@@QAE@XZ ; std::basic_string<char,std::char_traits<char>,std::allocator<char> >::~basic_string<char,std::char_traits<char>,std::allocator<char> >
PUBLIC	?TextAtPos@Cgdi@@QAEXNNABV?$basic_string@DU?$char_traits@D@std@@V?$allocator@D@2@@std@@@Z ; Cgdi::TextAtPos
PUBLIC	__real@4024000000000000
PUBLIC	??0?$basic_string@DU?$char_traits@D@std@@V?$allocator@D@2@@std@@QAE@PBD@Z ; std::basic_string<char,std::char_traits<char>,std::allocator<char> >::basic_string<char,std::char_traits<char>,std::allocator<char> >
PUBLIC	?TextColor@Cgdi@@QAEXHHH@Z			; Cgdi::TextColor
PUBLIC	?ClosedShape@Cgdi@@QAEXABV?$vector@UVector2D@@V?$allocator@UVector2D@@@std@@@std@@@Z ; Cgdi::ClosedShape
PUBLIC	?BrownPen@Cgdi@@QAEXXZ				; Cgdi::BrownPen
PUBLIC	??4?$vector@UVector2D@@V?$allocator@UVector2D@@@std@@@std@@QAEAAV01@$$QAV01@@Z ; std::vector<Vector2D,std::allocator<Vector2D> >::operator=
PUBLIC	?WorldTransform@@YA?AV?$vector@UVector2D@@V?$allocator@UVector2D@@@std@@@std@@AAV12@ABUVector2D@@111@Z ; WorldTransform
PUBLIC	?Perp@Vector2D@@QBE?AU1@XZ			; Vector2D::Perp
PUBLIC	__real@0000000000000000
PUBLIC	__$ArrayPad$
PUBLIC	?Render@GraveMarkers@@QAEXXZ			; GraveMarkers::Render
EXTRN	?Instance@Cgdi@@SAPAV1@XZ:PROC			; Cgdi::Instance
;	COMDAT __real@4024000000000000
; File c:\users\teaja\documents\artificial-fun\labravenprojecttest\raven\gravemarkers.cpp
CONST	SEGMENT
__real@4024000000000000 DQ 04024000000000000r	; 10
CONST	ENDS
;	COMDAT __real@0000000000000000
CONST	SEGMENT
__real@0000000000000000 DQ 00000000000000000r	; 0
CONST	ENDS
xdata$x	SEGMENT
__unwindtable$?Render@GraveMarkers@@QAEXXZ DD 0ffffffffH
	DD	FLAT:__unwindfunclet$?Render@GraveMarkers@@QAEXXZ$0
	DD	00H
	DD	FLAT:__unwindfunclet$?Render@GraveMarkers@@QAEXXZ$1
	DD	00H
	DD	FLAT:__unwindfunclet$?Render@GraveMarkers@@QAEXXZ$2
	DD	00H
	DD	FLAT:__unwindfunclet$?Render@GraveMarkers@@QAEXXZ$3
__ehfuncinfo$?Render@GraveMarkers@@QAEXXZ DD 019930522H
	DD	04H
	DD	FLAT:__unwindtable$?Render@GraveMarkers@@QAEXXZ
	DD	2 DUP(00H)
	DD	2 DUP(00H)
	DD	00H
	DD	01H
; Function compile flags: /Odtp /RTCsu
xdata$x	ENDS
_TEXT	SEGMENT
tv177 = -180						; size = 4
tv179 = -176						; size = 4
tv175 = -172						; size = 4
tv66 = -168						; size = 4
$T134886 = -164						; size = 20
$T134885 = -144						; size = 16
$T134884 = -128						; size = 16
$T134883 = -112						; size = 12
$T134882 = -97						; size = 1
$T129239 = -96						; size = 32
_facing$ = -60						; size = 16
_it$ = -36						; size = 12
_this$ = -20						; size = 4
__$ArrayPad$ = -16					; size = 4
__$EHRec$ = -12						; size = 12
?Render@GraveMarkers@@QAEXXZ PROC			; GraveMarkers::Render
; _this$ = ecx

; 45   : {

	push	ebp
	mov	ebp, esp
	push	-1
	push	__ehhandler$?Render@GraveMarkers@@QAEXXZ
	mov	eax, DWORD PTR fs:0
	push	eax
	sub	esp, 168				; 000000a8H
	push	edi
	push	ecx
	lea	edi, DWORD PTR [ebp-180]
	mov	ecx, 42					; 0000002aH
	mov	eax, -858993460				; ccccccccH
	rep stosd
	pop	ecx
	mov	eax, DWORD PTR ___security_cookie
	xor	eax, ebp
	mov	DWORD PTR __$ArrayPad$[ebp], eax
	push	eax
	lea	eax, DWORD PTR __$EHRec$[ebp]
	mov	DWORD PTR fs:0, eax
	mov	DWORD PTR _this$[ebp], ecx

; 46   :   GraveList::iterator it = m_GraveList.begin();

	lea	eax, DWORD PTR _it$[ebp]
	push	eax
	mov	ecx, DWORD PTR _this$[ebp]
	add	ecx, 48					; 00000030H
	call	?begin@?$list@UGraveRecord@GraveMarkers@@V?$allocator@UGraveRecord@GraveMarkers@@@std@@@std@@QAE?AV?$_List_iterator@V?$_List_val@UGraveRecord@GraveMarkers@@V?$allocator@UGraveRecord@GraveMarkers@@@std@@@std@@@2@XZ ; std::list<GraveMarkers::GraveRecord,std::allocator<GraveMarkers::GraveRecord> >::begin
	mov	DWORD PTR __$EHRec$[ebp+8], 0

; 47   :   Vector2D facing(-1,0);

	sub	esp, 8
	fldz
	fstp	QWORD PTR [esp]
	sub	esp, 8
	fld	QWORD PTR __real@bff0000000000000
	fstp	QWORD PTR [esp]
	lea	ecx, DWORD PTR _facing$[ebp]
	call	??0Vector2D@@QAE@NN@Z			; Vector2D::Vector2D
	jmp	SHORT $LN3@Render
$LN2@Render:

; 48   :   for (it; it != m_GraveList.end(); ++it)

	lea	ecx, DWORD PTR _it$[ebp]
	call	??E?$_List_iterator@V?$_List_val@UGraveRecord@GraveMarkers@@V?$allocator@UGraveRecord@GraveMarkers@@@std@@@std@@@std@@QAEAAV01@XZ ; std::_List_iterator<std::_List_val<GraveMarkers::GraveRecord,std::allocator<GraveMarkers::GraveRecord> > >::operator++
$LN3@Render:
	lea	ecx, DWORD PTR $T134883[ebp]
	push	ecx
	mov	ecx, DWORD PTR _this$[ebp]
	add	ecx, 48					; 00000030H
	call	?end@?$list@UGraveRecord@GraveMarkers@@V?$allocator@UGraveRecord@GraveMarkers@@@std@@@std@@QAE?AV?$_List_iterator@V?$_List_val@UGraveRecord@GraveMarkers@@V?$allocator@UGraveRecord@GraveMarkers@@@std@@@std@@@2@XZ ; std::list<GraveMarkers::GraveRecord,std::allocator<GraveMarkers::GraveRecord> >::end
	mov	DWORD PTR tv66[ebp], eax
	mov	edx, DWORD PTR tv66[ebp]
	mov	DWORD PTR tv175[ebp], edx
	mov	BYTE PTR __$EHRec$[ebp+8], 1
	mov	eax, DWORD PTR tv175[ebp]
	push	eax
	lea	ecx, DWORD PTR _it$[ebp]
	call	??9?$_List_const_iterator@V?$_List_val@UGraveRecord@GraveMarkers@@V?$allocator@UGraveRecord@GraveMarkers@@@std@@@std@@@std@@QBE_NABV01@@Z ; std::_List_const_iterator<std::_List_val<GraveMarkers::GraveRecord,std::allocator<GraveMarkers::GraveRecord> > >::operator!=
	mov	BYTE PTR $T134882[ebp], al
	mov	BYTE PTR __$EHRec$[ebp+8], 0
	lea	ecx, DWORD PTR $T134883[ebp]
	call	??1?$_List_iterator@V?$_List_val@UGraveRecord@GraveMarkers@@V?$allocator@UGraveRecord@GraveMarkers@@@std@@@std@@@std@@QAE@XZ
	movzx	ecx, BYTE PTR $T134882[ebp]
	test	ecx, ecx
	je	$LN1@Render

; 49   :   {
; 50   :     
; 51   :     m_vecRIPVBTrans = WorldTransform(m_vecRIPVB,
; 52   :                                    it->Position,
; 53   :                                    facing,
; 54   :                                    facing.Perp(),
; 55   :                                    Vector2D(1,1));

	sub	esp, 8
	fld1
	fstp	QWORD PTR [esp]
	sub	esp, 8
	fld1
	fstp	QWORD PTR [esp]
	lea	ecx, DWORD PTR $T134884[ebp]
	call	??0Vector2D@@QAE@NN@Z			; Vector2D::Vector2D
	push	eax
	lea	edx, DWORD PTR $T134885[ebp]
	push	edx
	lea	ecx, DWORD PTR _facing$[ebp]
	call	?Perp@Vector2D@@QBE?AU1@XZ		; Vector2D::Perp
	push	eax
	lea	eax, DWORD PTR _facing$[ebp]
	push	eax
	lea	ecx, DWORD PTR _it$[ebp]
	call	??C?$_List_iterator@V?$_List_val@UGraveRecord@GraveMarkers@@V?$allocator@UGraveRecord@GraveMarkers@@@std@@@std@@@std@@QBEPAUGraveRecord@GraveMarkers@@XZ ; std::_List_iterator<std::_List_val<GraveMarkers::GraveRecord,std::allocator<GraveMarkers::GraveRecord> > >::operator->
	push	eax
	mov	ecx, DWORD PTR _this$[ebp]
	add	ecx, 8
	push	ecx
	lea	edx, DWORD PTR $T134886[ebp]
	push	edx
	call	?WorldTransform@@YA?AV?$vector@UVector2D@@V?$allocator@UVector2D@@@std@@@std@@AAV12@ABUVector2D@@111@Z ; WorldTransform
	add	esp, 24					; 00000018H
	mov	DWORD PTR tv179[ebp], eax
	mov	eax, DWORD PTR tv179[ebp]
	mov	DWORD PTR tv177[ebp], eax
	mov	BYTE PTR __$EHRec$[ebp+8], 2
	mov	ecx, DWORD PTR tv177[ebp]
	push	ecx
	mov	ecx, DWORD PTR _this$[ebp]
	add	ecx, 28					; 0000001cH
	call	??4?$vector@UVector2D@@V?$allocator@UVector2D@@@std@@@std@@QAEAAV01@$$QAV01@@Z ; std::vector<Vector2D,std::allocator<Vector2D> >::operator=
	mov	BYTE PTR __$EHRec$[ebp+8], 0
	lea	ecx, DWORD PTR $T134886[ebp]
	call	??1?$vector@UVector2D@@V?$allocator@UVector2D@@@std@@@std@@QAE@XZ ; std::vector<Vector2D,std::allocator<Vector2D> >::~vector<Vector2D,std::allocator<Vector2D> >

; 56   : 
; 57   :     gdi->BrownPen();

	call	?Instance@Cgdi@@SAPAV1@XZ		; Cgdi::Instance
	mov	ecx, eax
	call	?BrownPen@Cgdi@@QAEXXZ			; Cgdi::BrownPen

; 58   :     gdi->ClosedShape(m_vecRIPVBTrans);

	mov	edx, DWORD PTR _this$[ebp]
	add	edx, 28					; 0000001cH
	push	edx
	call	?Instance@Cgdi@@SAPAV1@XZ		; Cgdi::Instance
	mov	ecx, eax
	call	?ClosedShape@Cgdi@@QAEXABV?$vector@UVector2D@@V?$allocator@UVector2D@@@std@@@std@@@Z ; Cgdi::ClosedShape

; 59   :     gdi->TextColor(133,90,0);

	push	0
	push	90					; 0000005aH
	push	133					; 00000085H
	call	?Instance@Cgdi@@SAPAV1@XZ		; Cgdi::Instance
	mov	ecx, eax
	call	?TextColor@Cgdi@@QAEXHHH@Z		; Cgdi::TextColor

; 60   :     gdi->TextAtPos(it->Position.x - 10, it->Position.y - 5, "RIP");

	push	OFFSET $SG129240
	lea	ecx, DWORD PTR $T129239[ebp]
	call	??0?$basic_string@DU?$char_traits@D@std@@V?$allocator@D@2@@std@@QAE@PBD@Z ; std::basic_string<char,std::char_traits<char>,std::allocator<char> >::basic_string<char,std::char_traits<char>,std::allocator<char> >
	mov	BYTE PTR __$EHRec$[ebp+8], 3
	lea	eax, DWORD PTR $T129239[ebp]
	push	eax
	lea	ecx, DWORD PTR _it$[ebp]
	call	??C?$_List_iterator@V?$_List_val@UGraveRecord@GraveMarkers@@V?$allocator@UGraveRecord@GraveMarkers@@@std@@@std@@@std@@QBEPAUGraveRecord@GraveMarkers@@XZ ; std::_List_iterator<std::_List_val<GraveMarkers::GraveRecord,std::allocator<GraveMarkers::GraveRecord> > >::operator->
	fld	QWORD PTR [eax+8]
	fsub	QWORD PTR __real@4014000000000000
	sub	esp, 8
	fstp	QWORD PTR [esp]
	lea	ecx, DWORD PTR _it$[ebp]
	call	??C?$_List_iterator@V?$_List_val@UGraveRecord@GraveMarkers@@V?$allocator@UGraveRecord@GraveMarkers@@@std@@@std@@@std@@QBEPAUGraveRecord@GraveMarkers@@XZ ; std::_List_iterator<std::_List_val<GraveMarkers::GraveRecord,std::allocator<GraveMarkers::GraveRecord> > >::operator->
	fld	QWORD PTR [eax]
	fsub	QWORD PTR __real@4024000000000000
	sub	esp, 8
	fstp	QWORD PTR [esp]
	call	?Instance@Cgdi@@SAPAV1@XZ		; Cgdi::Instance
	mov	ecx, eax
	call	?TextAtPos@Cgdi@@QAEXNNABV?$basic_string@DU?$char_traits@D@std@@V?$allocator@D@2@@std@@@Z ; Cgdi::TextAtPos
	mov	BYTE PTR __$EHRec$[ebp+8], 0
	lea	ecx, DWORD PTR $T129239[ebp]
	call	??1?$basic_string@DU?$char_traits@D@std@@V?$allocator@D@2@@std@@QAE@XZ ; std::basic_string<char,std::char_traits<char>,std::allocator<char> >::~basic_string<char,std::char_traits<char>,std::allocator<char> >

; 61   :   }

	jmp	$LN2@Render
$LN1@Render:

; 62   : }

	mov	DWORD PTR __$EHRec$[ebp+8], -1
	lea	ecx, DWORD PTR _it$[ebp]
	call	??1?$_List_iterator@V?$_List_val@UGraveRecord@GraveMarkers@@V?$allocator@UGraveRecord@GraveMarkers@@@std@@@std@@@std@@QAE@XZ
	push	edx
	mov	ecx, ebp
	push	eax
	lea	edx, DWORD PTR $LN14@Render
	call	@_RTC_CheckStackVars@8
	pop	eax
	pop	edx
	mov	ecx, DWORD PTR __$EHRec$[ebp]
	mov	DWORD PTR fs:0, ecx
	pop	ecx
	pop	edi
	mov	ecx, DWORD PTR __$ArrayPad$[ebp]
	xor	ecx, ebp
	call	@__security_check_cookie@4
	add	esp, 180				; 000000b4H
	cmp	ebp, esp
	call	__RTC_CheckEsp
	mov	esp, ebp
	pop	ebp
	ret	0
	npad	1
$LN14@Render:
	DD	2
	DD	$LN13@Render
$LN13@Render:
	DD	-36					; ffffffdcH
	DD	12					; 0000000cH
	DD	$LN10@Render
	DD	-60					; ffffffc4H
	DD	16					; 00000010H
	DD	$LN11@Render
$LN11@Render:
	DB	102					; 00000066H
	DB	97					; 00000061H
	DB	99					; 00000063H
	DB	105					; 00000069H
	DB	110					; 0000006eH
	DB	103					; 00000067H
	DB	0
$LN10@Render:
	DB	105					; 00000069H
	DB	116					; 00000074H
	DB	0
_TEXT	ENDS
text$x	SEGMENT
__unwindfunclet$?Render@GraveMarkers@@QAEXXZ$0:
	lea	ecx, DWORD PTR _it$[ebp]
	jmp	??1?$_List_iterator@V?$_List_val@UGraveRecord@GraveMarkers@@V?$allocator@UGraveRecord@GraveMarkers@@@std@@@std@@@std@@QAE@XZ
__unwindfunclet$?Render@GraveMarkers@@QAEXXZ$1:
	lea	ecx, DWORD PTR $T134883[ebp]
	jmp	??1?$_List_iterator@V?$_List_val@UGraveRecord@GraveMarkers@@V?$allocator@UGraveRecord@GraveMarkers@@@std@@@std@@@std@@QAE@XZ
__unwindfunclet$?Render@GraveMarkers@@QAEXXZ$2:
	lea	ecx, DWORD PTR $T134886[ebp]
	jmp	??1?$vector@UVector2D@@V?$allocator@UVector2D@@@std@@@std@@QAE@XZ ; std::vector<Vector2D,std::allocator<Vector2D> >::~vector<Vector2D,std::allocator<Vector2D> >
__unwindfunclet$?Render@GraveMarkers@@QAEXXZ$3:
	lea	ecx, DWORD PTR $T129239[ebp]
	jmp	??1?$basic_string@DU?$char_traits@D@std@@V?$allocator@D@2@@std@@QAE@XZ ; std::basic_string<char,std::char_traits<char>,std::allocator<char> >::~basic_string<char,std::char_traits<char>,std::allocator<char> >
__ehhandler$?Render@GraveMarkers@@QAEXXZ:
	mov	edx, DWORD PTR [esp+8]
	lea	eax, DWORD PTR [edx+12]
	mov	ecx, DWORD PTR [edx-176]
	xor	ecx, eax
	call	@__security_check_cookie@4
	mov	ecx, DWORD PTR [edx-4]
	xor	ecx, eax
	call	@__security_check_cookie@4
	mov	eax, OFFSET __ehfuncinfo$?Render@GraveMarkers@@QAEXXZ
	jmp	___CxxFrameHandler3
text$x	ENDS
?Render@GraveMarkers@@QAEXXZ ENDP			; GraveMarkers::Render
; Function compile flags: /Odtp /RTCsu
; File c:\users\teaja\documents\artificial-fun\labravenprojecttest\common\2d\vector2d.h
;	COMDAT ?Perp@Vector2D@@QBE?AU1@XZ
_TEXT	SEGMENT
_this$ = -4						; size = 4
___$ReturnUdt$ = 8					; size = 4
?Perp@Vector2D@@QBE?AU1@XZ PROC				; Vector2D::Perp, COMDAT
; _this$ = ecx

; 176  : {

	push	ebp
	mov	ebp, esp
	push	ecx
	mov	DWORD PTR [ebp-4], -858993460		; ccccccccH
	mov	DWORD PTR _this$[ebp], ecx

; 177  :   return Vector2D(-y, x);

	mov	eax, DWORD PTR _this$[ebp]
	sub	esp, 8
	fld	QWORD PTR [eax]
	fstp	QWORD PTR [esp]
	mov	ecx, DWORD PTR _this$[ebp]
	fld	QWORD PTR [ecx+8]
	fchs
	sub	esp, 8
	fstp	QWORD PTR [esp]
	mov	ecx, DWORD PTR ___$ReturnUdt$[ebp]
	call	??0Vector2D@@QAE@NN@Z			; Vector2D::Vector2D
	mov	eax, DWORD PTR ___$ReturnUdt$[ebp]

; 178  : }

	add	esp, 4
	cmp	ebp, esp
	call	__RTC_CheckEsp
	mov	esp, ebp
	pop	ebp
	ret	4
?Perp@Vector2D@@QBE?AU1@XZ ENDP				; Vector2D::Perp
_TEXT	ENDS
EXTRN	__imp__SelectObject@8:PROC
; Function compile flags: /Odtp /RTCsu
; File c:\users\teaja\documents\artificial-fun\labravenprojecttest\common\misc\cgdi.h
;	COMDAT ?BrownPen@Cgdi@@QAEXXZ
_TEXT	SEGMENT
_this$ = -4						; size = 4
?BrownPen@Cgdi@@QAEXXZ PROC				; Cgdi::BrownPen, COMDAT
; _this$ = ecx

; 146  :   void BrownPen() {if(m_hdc){SelectObject(m_hdc, m_BrownPen);}}

	push	ebp
	mov	ebp, esp
	push	ecx
	push	esi
	mov	DWORD PTR [ebp-4], -858993460		; ccccccccH
	mov	DWORD PTR _this$[ebp], ecx
	mov	eax, DWORD PTR _this$[ebp]
	cmp	DWORD PTR [eax+124], 0
	je	SHORT $LN2@BrownPen
	mov	esi, esp
	mov	ecx, DWORD PTR _this$[ebp]
	mov	edx, DWORD PTR [ecx+44]
	push	edx
	mov	eax, DWORD PTR _this$[ebp]
	mov	ecx, DWORD PTR [eax+124]
	push	ecx
	call	DWORD PTR __imp__SelectObject@8
	cmp	esi, esp
	call	__RTC_CheckEsp
$LN2@BrownPen:
	pop	esi
	add	esp, 4
	cmp	ebp, esp
	call	__RTC_CheckEsp
	mov	esp, ebp
	pop	ebp
	ret	0
?BrownPen@Cgdi@@QAEXXZ ENDP				; Cgdi::BrownPen
_TEXT	ENDS
PUBLIC	?c_str@?$basic_string@DU?$char_traits@D@std@@V?$allocator@D@2@@std@@QBEPBDXZ ; std::basic_string<char,std::char_traits<char>,std::allocator<char> >::c_str
PUBLIC	?size@?$basic_string@DU?$char_traits@D@std@@V?$allocator@D@2@@std@@QBEIXZ ; std::basic_string<char,std::char_traits<char>,std::allocator<char> >::size
EXTRN	__imp__TextOutA@20:PROC
EXTRN	__ftol2_sse:PROC
; Function compile flags: /Odtp /RTCsu
;	COMDAT ?TextAtPos@Cgdi@@QAEXNNABV?$basic_string@DU?$char_traits@D@std@@V?$allocator@D@2@@std@@@Z
_TEXT	SEGMENT
_this$ = -4						; size = 4
_x$ = 8							; size = 8
_y$ = 16						; size = 8
_s$ = 24						; size = 4
?TextAtPos@Cgdi@@QAEXNNABV?$basic_string@DU?$char_traits@D@std@@V?$allocator@D@2@@std@@@Z PROC ; Cgdi::TextAtPos, COMDAT
; _this$ = ecx

; 213  :   {

	push	ebp
	mov	ebp, esp
	push	ecx
	push	esi
	mov	DWORD PTR [ebp-4], -858993460		; ccccccccH
	mov	DWORD PTR _this$[ebp], ecx

; 214  :     TextOut(m_hdc, (int)x, (int)y, s.c_str(), (int)s.size());

	mov	ecx, DWORD PTR _s$[ebp]
	call	?size@?$basic_string@DU?$char_traits@D@std@@V?$allocator@D@2@@std@@QBEIXZ ; std::basic_string<char,std::char_traits<char>,std::allocator<char> >::size
	mov	esi, esp
	push	eax
	mov	ecx, DWORD PTR _s$[ebp]
	call	?c_str@?$basic_string@DU?$char_traits@D@std@@V?$allocator@D@2@@std@@QBEPBDXZ ; std::basic_string<char,std::char_traits<char>,std::allocator<char> >::c_str
	push	eax
	fld	QWORD PTR _y$[ebp]
	call	__ftol2_sse
	push	eax
	fld	QWORD PTR _x$[ebp]
	call	__ftol2_sse
	push	eax
	mov	eax, DWORD PTR _this$[ebp]
	mov	ecx, DWORD PTR [eax+124]
	push	ecx
	call	DWORD PTR __imp__TextOutA@20
	cmp	esi, esp
	call	__RTC_CheckEsp

; 215  :   }

	pop	esi
	add	esp, 4
	cmp	ebp, esp
	call	__RTC_CheckEsp
	mov	esp, ebp
	pop	ebp
	ret	20					; 00000014H
?TextAtPos@Cgdi@@QAEXNNABV?$basic_string@DU?$char_traits@D@std@@V?$allocator@D@2@@std@@@Z ENDP ; Cgdi::TextAtPos
_TEXT	ENDS
EXTRN	__imp__SetTextColor@8:PROC
; Function compile flags: /Odtp /RTCsu
;	COMDAT ?TextColor@Cgdi@@QAEXHHH@Z
_TEXT	SEGMENT
_this$ = -4						; size = 4
_r$ = 8							; size = 4
_g$ = 12						; size = 4
_b$ = 16						; size = 4
?TextColor@Cgdi@@QAEXHHH@Z PROC				; Cgdi::TextColor, COMDAT
; _this$ = ecx

; 227  :   void TextColor(int r, int g, int b){SetTextColor(m_hdc, RGB(r,g,b));}

	push	ebp
	mov	ebp, esp
	push	ecx
	push	esi
	mov	DWORD PTR [ebp-4], -858993460		; ccccccccH
	mov	DWORD PTR _this$[ebp], ecx
	movzx	eax, BYTE PTR _r$[ebp]
	movzx	ecx, BYTE PTR _g$[ebp]
	shl	ecx, 8
	or	eax, ecx
	movzx	edx, BYTE PTR _b$[ebp]
	shl	edx, 16					; 00000010H
	or	eax, edx
	mov	esi, esp
	push	eax
	mov	eax, DWORD PTR _this$[ebp]
	mov	ecx, DWORD PTR [eax+124]
	push	ecx
	call	DWORD PTR __imp__SetTextColor@8
	cmp	esi, esp
	call	__RTC_CheckEsp
	pop	esi
	add	esp, 4
	cmp	ebp, esp
	call	__RTC_CheckEsp
	mov	esp, ebp
	pop	ebp
	ret	12					; 0000000cH
?TextColor@Cgdi@@QAEXHHH@Z ENDP				; Cgdi::TextColor
_TEXT	ENDS
PUBLIC	?size@?$vector@UVector2D@@V?$allocator@UVector2D@@@std@@@std@@QBEIXZ ; std::vector<Vector2D,std::allocator<Vector2D> >::size
PUBLIC	??A?$vector@UVector2D@@V?$allocator@UVector2D@@@std@@@std@@QBEABUVector2D@@I@Z ; std::vector<Vector2D,std::allocator<Vector2D> >::operator[]
EXTRN	__imp__LineTo@12:PROC
EXTRN	__imp__MoveToEx@16:PROC
; Function compile flags: /Odtp /RTCsu
;	COMDAT ?ClosedShape@Cgdi@@QAEXABV?$vector@UVector2D@@V?$allocator@UVector2D@@@std@@@std@@@Z
_TEXT	SEGMENT
_p$128690 = -8						; size = 4
_this$ = -4						; size = 4
_points$ = 8						; size = 4
?ClosedShape@Cgdi@@QAEXABV?$vector@UVector2D@@V?$allocator@UVector2D@@@std@@@std@@@Z PROC ; Cgdi::ClosedShape, COMDAT
; _this$ = ecx

; 325  :   {

	push	ebp
	mov	ebp, esp
	sub	esp, 8
	push	esi
	mov	DWORD PTR [ebp-8], -858993460		; ccccccccH
	mov	DWORD PTR [ebp-4], -858993460		; ccccccccH
	mov	DWORD PTR _this$[ebp], ecx

; 326  :     MoveToEx(m_hdc, (int)points[0].x, (int)points[0].y, NULL);

	mov	esi, esp
	push	0
	push	0
	mov	ecx, DWORD PTR _points$[ebp]
	call	??A?$vector@UVector2D@@V?$allocator@UVector2D@@@std@@@std@@QBEABUVector2D@@I@Z ; std::vector<Vector2D,std::allocator<Vector2D> >::operator[]
	fld	QWORD PTR [eax+8]
	call	__ftol2_sse
	push	eax
	push	0
	mov	ecx, DWORD PTR _points$[ebp]
	call	??A?$vector@UVector2D@@V?$allocator@UVector2D@@@std@@@std@@QBEABUVector2D@@I@Z ; std::vector<Vector2D,std::allocator<Vector2D> >::operator[]
	fld	QWORD PTR [eax]
	call	__ftol2_sse
	push	eax
	mov	eax, DWORD PTR _this$[ebp]
	mov	ecx, DWORD PTR [eax+124]
	push	ecx
	call	DWORD PTR __imp__MoveToEx@16
	cmp	esi, esp
	call	__RTC_CheckEsp

; 327  :     
; 328  :     for (unsigned int p=1; p<points.size(); ++p)

	mov	DWORD PTR _p$128690[ebp], 1
	jmp	SHORT $LN3@ClosedShap
$LN2@ClosedShap:
	mov	edx, DWORD PTR _p$128690[ebp]
	add	edx, 1
	mov	DWORD PTR _p$128690[ebp], edx
$LN3@ClosedShap:
	mov	ecx, DWORD PTR _points$[ebp]
	call	?size@?$vector@UVector2D@@V?$allocator@UVector2D@@@std@@@std@@QBEIXZ ; std::vector<Vector2D,std::allocator<Vector2D> >::size
	cmp	DWORD PTR _p$128690[ebp], eax
	jae	SHORT $LN1@ClosedShap

; 329  :     {
; 330  :       LineTo(m_hdc, (int)points[p].x, (int)points[p].y);

	mov	eax, DWORD PTR _p$128690[ebp]
	push	eax
	mov	ecx, DWORD PTR _points$[ebp]
	call	??A?$vector@UVector2D@@V?$allocator@UVector2D@@@std@@@std@@QBEABUVector2D@@I@Z ; std::vector<Vector2D,std::allocator<Vector2D> >::operator[]
	fld	QWORD PTR [eax+8]
	call	__ftol2_sse
	mov	esi, esp
	push	eax
	mov	ecx, DWORD PTR _p$128690[ebp]
	push	ecx
	mov	ecx, DWORD PTR _points$[ebp]
	call	??A?$vector@UVector2D@@V?$allocator@UVector2D@@@std@@@std@@QBEABUVector2D@@I@Z ; std::vector<Vector2D,std::allocator<Vector2D> >::operator[]
	fld	QWORD PTR [eax]
	call	__ftol2_sse
	push	eax
	mov	edx, DWORD PTR _this$[ebp]
	mov	eax, DWORD PTR [edx+124]
	push	eax
	call	DWORD PTR __imp__LineTo@12
	cmp	esi, esp
	call	__RTC_CheckEsp

; 331  :     }

	jmp	SHORT $LN2@ClosedShap
$LN1@ClosedShap:

; 332  : 
; 333  :     LineTo(m_hdc, (int)points[0].x, (int)points[0].y);

	push	0
	mov	ecx, DWORD PTR _points$[ebp]
	call	??A?$vector@UVector2D@@V?$allocator@UVector2D@@@std@@@std@@QBEABUVector2D@@I@Z ; std::vector<Vector2D,std::allocator<Vector2D> >::operator[]
	fld	QWORD PTR [eax+8]
	call	__ftol2_sse
	mov	esi, esp
	push	eax
	push	0
	mov	ecx, DWORD PTR _points$[ebp]
	call	??A?$vector@UVector2D@@V?$allocator@UVector2D@@@std@@@std@@QBEABUVector2D@@I@Z ; std::vector<Vector2D,std::allocator<Vector2D> >::operator[]
	fld	QWORD PTR [eax]
	call	__ftol2_sse
	push	eax
	mov	ecx, DWORD PTR _this$[ebp]
	mov	edx, DWORD PTR [ecx+124]
	push	edx
	call	DWORD PTR __imp__LineTo@12
	cmp	esi, esp
	call	__RTC_CheckEsp

; 334  :   }

	pop	esi
	add	esp, 8
	cmp	ebp, esp
	call	__RTC_CheckEsp
	mov	esp, ebp
	pop	ebp
	ret	4
?ClosedShape@Cgdi@@QAEXABV?$vector@UVector2D@@V?$allocator@UVector2D@@@std@@@std@@@Z ENDP ; Cgdi::ClosedShape
_TEXT	ENDS
PUBLIC	??0?$vector@UVector2D@@V?$allocator@UVector2D@@@std@@@std@@QAE@$$QAV01@@Z ; std::vector<Vector2D,std::allocator<Vector2D> >::vector<Vector2D,std::allocator<Vector2D> >
PUBLIC	?TransformVector2Ds@C2DMatrix@@QAEXAAV?$vector@UVector2D@@V?$allocator@UVector2D@@@std@@@std@@@Z ; C2DMatrix::TransformVector2Ds
PUBLIC	?Translate@C2DMatrix@@QAEXNN@Z			; C2DMatrix::Translate
PUBLIC	?Rotate@C2DMatrix@@QAEXABUVector2D@@0@Z		; C2DMatrix::Rotate
PUBLIC	?Scale@C2DMatrix@@QAEXNN@Z			; C2DMatrix::Scale
PUBLIC	??0C2DMatrix@@QAE@XZ				; C2DMatrix::C2DMatrix
PUBLIC	??0?$vector@UVector2D@@V?$allocator@UVector2D@@@std@@@std@@QAE@ABV01@@Z ; std::vector<Vector2D,std::allocator<Vector2D> >::vector<Vector2D,std::allocator<Vector2D> >
;	COMDAT xdata$x
; File c:\users\teaja\documents\artificial-fun\labravenprojecttest\common\2d\transformations.h
xdata$x	SEGMENT
__unwindtable$?WorldTransform@@YA?AV?$vector@UVector2D@@V?$allocator@UVector2D@@@std@@@std@@AAV12@ABUVector2D@@111@Z DD 0ffffffffH
	DD	FLAT:__unwindfunclet$?WorldTransform@@YA?AV?$vector@UVector2D@@V?$allocator@UVector2D@@@std@@@std@@AAV12@ABUVector2D@@111@Z$1
	DD	00H
	DD	FLAT:__unwindfunclet$?WorldTransform@@YA?AV?$vector@UVector2D@@V?$allocator@UVector2D@@@std@@@std@@AAV12@ABUVector2D@@111@Z$0
__ehfuncinfo$?WorldTransform@@YA?AV?$vector@UVector2D@@V?$allocator@UVector2D@@@std@@@std@@AAV12@ABUVector2D@@111@Z DD 019930522H
	DD	02H
	DD	FLAT:__unwindtable$?WorldTransform@@YA?AV?$vector@UVector2D@@V?$allocator@UVector2D@@@std@@@std@@AAV12@ABUVector2D@@111@Z
	DD	2 DUP(00H)
	DD	2 DUP(00H)
	DD	00H
	DD	01H
; Function compile flags: /Odtp /RTCsu
xdata$x	ENDS
;	COMDAT ?WorldTransform@@YA?AV?$vector@UVector2D@@V?$allocator@UVector2D@@@std@@@std@@AAV12@ABUVector2D@@111@Z
_TEXT	SEGMENT
$T134917 = -124						; size = 4
_matTransform$ = -116					; size = 72
_TranVector2Ds$ = -36					; size = 20
__$EHRec$ = -12						; size = 12
___$ReturnUdt$ = 8					; size = 4
_points$ = 12						; size = 4
_pos$ = 16						; size = 4
_forward$ = 20						; size = 4
_side$ = 24						; size = 4
_scale$ = 28						; size = 4
?WorldTransform@@YA?AV?$vector@UVector2D@@V?$allocator@UVector2D@@@std@@@std@@AAV12@ABUVector2D@@111@Z PROC ; WorldTransform, COMDAT

; 34   : {

	push	ebp
	mov	ebp, esp
	push	-1
	push	__ehhandler$?WorldTransform@@YA?AV?$vector@UVector2D@@V?$allocator@UVector2D@@@std@@@std@@AAV12@ABUVector2D@@111@Z
	mov	eax, DWORD PTR fs:0
	push	eax
	sub	esp, 112				; 00000070H
	push	edi
	lea	edi, DWORD PTR [ebp-124]
	mov	ecx, 28					; 0000001cH
	mov	eax, -858993460				; ccccccccH
	rep stosd
	mov	eax, DWORD PTR ___security_cookie
	xor	eax, ebp
	push	eax
	lea	eax, DWORD PTR __$EHRec$[ebp]
	mov	DWORD PTR fs:0, eax
	mov	DWORD PTR $T134917[ebp], 0

; 35   : 	//copy the original vertices into the buffer about to be transformed
; 36   :   std::vector<Vector2D> TranVector2Ds = points;

	mov	eax, DWORD PTR _points$[ebp]
	push	eax
	lea	ecx, DWORD PTR _TranVector2Ds$[ebp]
	call	??0?$vector@UVector2D@@V?$allocator@UVector2D@@@std@@@std@@QAE@ABV01@@Z ; std::vector<Vector2D,std::allocator<Vector2D> >::vector<Vector2D,std::allocator<Vector2D> >
	mov	DWORD PTR __$EHRec$[ebp+8], 1

; 37   :   
; 38   :   //create a transformation matrix
; 39   : 	C2DMatrix matTransform;

	lea	ecx, DWORD PTR _matTransform$[ebp]
	call	??0C2DMatrix@@QAE@XZ			; C2DMatrix::C2DMatrix

; 40   : 	
; 41   : 	//scale
; 42   :   if ( (scale.x != 1.0) || (scale.y != 1.0) )

	mov	ecx, DWORD PTR _scale$[ebp]
	fld	QWORD PTR [ecx]
	fld1
	fucompp
	fnstsw	ax
	test	ah, 68					; 00000044H
	jp	SHORT $LN1@WorldTrans
	mov	edx, DWORD PTR _scale$[ebp]
	fld	QWORD PTR [edx+8]
	fld1
	fucompp
	fnstsw	ax
	test	ah, 68					; 00000044H
	jnp	SHORT $LN2@WorldTrans
$LN1@WorldTrans:

; 43   :   {
; 44   : 	  matTransform.Scale(scale.x, scale.y);

	mov	eax, DWORD PTR _scale$[ebp]
	sub	esp, 8
	fld	QWORD PTR [eax+8]
	fstp	QWORD PTR [esp]
	mov	ecx, DWORD PTR _scale$[ebp]
	sub	esp, 8
	fld	QWORD PTR [ecx]
	fstp	QWORD PTR [esp]
	lea	ecx, DWORD PTR _matTransform$[ebp]
	call	?Scale@C2DMatrix@@QAEXNN@Z		; C2DMatrix::Scale
$LN2@WorldTrans:

; 45   :   }
; 46   : 
; 47   : 	//rotate
; 48   : 	matTransform.Rotate(forward, side);

	mov	edx, DWORD PTR _side$[ebp]
	push	edx
	mov	eax, DWORD PTR _forward$[ebp]
	push	eax
	lea	ecx, DWORD PTR _matTransform$[ebp]
	call	?Rotate@C2DMatrix@@QAEXABUVector2D@@0@Z	; C2DMatrix::Rotate

; 49   : 
; 50   : 	//and translate
; 51   : 	matTransform.Translate(pos.x, pos.y);

	mov	ecx, DWORD PTR _pos$[ebp]
	sub	esp, 8
	fld	QWORD PTR [ecx+8]
	fstp	QWORD PTR [esp]
	mov	edx, DWORD PTR _pos$[ebp]
	sub	esp, 8
	fld	QWORD PTR [edx]
	fstp	QWORD PTR [esp]
	lea	ecx, DWORD PTR _matTransform$[ebp]
	call	?Translate@C2DMatrix@@QAEXNN@Z		; C2DMatrix::Translate

; 52   : 	
; 53   :   //now transform the object's vertices
; 54   :   matTransform.TransformVector2Ds(TranVector2Ds);

	lea	eax, DWORD PTR _TranVector2Ds$[ebp]
	push	eax
	lea	ecx, DWORD PTR _matTransform$[ebp]
	call	?TransformVector2Ds@C2DMatrix@@QAEXAAV?$vector@UVector2D@@V?$allocator@UVector2D@@@std@@@std@@@Z ; C2DMatrix::TransformVector2Ds

; 55   : 
; 56   :   return TranVector2Ds;

	lea	ecx, DWORD PTR _TranVector2Ds$[ebp]
	push	ecx
	mov	ecx, DWORD PTR ___$ReturnUdt$[ebp]
	call	??0?$vector@UVector2D@@V?$allocator@UVector2D@@@std@@@std@@QAE@$$QAV01@@Z ; std::vector<Vector2D,std::allocator<Vector2D> >::vector<Vector2D,std::allocator<Vector2D> >
	mov	edx, DWORD PTR $T134917[ebp]
	or	edx, 1
	mov	DWORD PTR $T134917[ebp], edx
	mov	BYTE PTR __$EHRec$[ebp+8], 0
	lea	ecx, DWORD PTR _TranVector2Ds$[ebp]
	call	??1?$vector@UVector2D@@V?$allocator@UVector2D@@@std@@@std@@QAE@XZ ; std::vector<Vector2D,std::allocator<Vector2D> >::~vector<Vector2D,std::allocator<Vector2D> >
	mov	eax, DWORD PTR ___$ReturnUdt$[ebp]

; 57   : }

	push	edx
	mov	ecx, ebp
	push	eax
	lea	edx, DWORD PTR $LN12@WorldTrans
	call	@_RTC_CheckStackVars@8
	pop	eax
	pop	edx
	mov	ecx, DWORD PTR __$EHRec$[ebp]
	mov	DWORD PTR fs:0, ecx
	pop	ecx
	pop	edi
	add	esp, 124				; 0000007cH
	cmp	ebp, esp
	call	__RTC_CheckEsp
	mov	esp, ebp
	pop	ebp
	ret	0
	npad	3
$LN12@WorldTrans:
	DD	2
	DD	$LN11@WorldTrans
$LN11@WorldTrans:
	DD	-36					; ffffffdcH
	DD	20					; 00000014H
	DD	$LN8@WorldTrans
	DD	-116					; ffffff8cH
	DD	72					; 00000048H
	DD	$LN9@WorldTrans
$LN9@WorldTrans:
	DB	109					; 0000006dH
	DB	97					; 00000061H
	DB	116					; 00000074H
	DB	84					; 00000054H
	DB	114					; 00000072H
	DB	97					; 00000061H
	DB	110					; 0000006eH
	DB	115					; 00000073H
	DB	102					; 00000066H
	DB	111					; 0000006fH
	DB	114					; 00000072H
	DB	109					; 0000006dH
	DB	0
$LN8@WorldTrans:
	DB	84					; 00000054H
	DB	114					; 00000072H
	DB	97					; 00000061H
	DB	110					; 0000006eH
	DB	86					; 00000056H
	DB	101					; 00000065H
	DB	99					; 00000063H
	DB	116					; 00000074H
	DB	111					; 0000006fH
	DB	114					; 00000072H
	DB	50					; 00000032H
	DB	68					; 00000044H
	DB	115					; 00000073H
	DB	0
_TEXT	ENDS
;	COMDAT text$x
text$x	SEGMENT
__unwindfunclet$?WorldTransform@@YA?AV?$vector@UVector2D@@V?$allocator@UVector2D@@@std@@@std@@AAV12@ABUVector2D@@111@Z$0:
	lea	ecx, DWORD PTR _TranVector2Ds$[ebp]
	jmp	??1?$vector@UVector2D@@V?$allocator@UVector2D@@@std@@@std@@QAE@XZ ; std::vector<Vector2D,std::allocator<Vector2D> >::~vector<Vector2D,std::allocator<Vector2D> >
__unwindfunclet$?WorldTransform@@YA?AV?$vector@UVector2D@@V?$allocator@UVector2D@@@std@@@std@@AAV12@ABUVector2D@@111@Z$1:
	mov	eax, DWORD PTR $T134917[ebp]
	and	eax, 1
	je	$LN7@WorldTrans
	and	DWORD PTR $T134917[ebp], -2		; fffffffeH
	mov	ecx, DWORD PTR ___$ReturnUdt$[ebp]
	jmp	??1?$vector@UVector2D@@V?$allocator@UVector2D@@@std@@@std@@QAE@XZ ; std::vector<Vector2D,std::allocator<Vector2D> >::~vector<Vector2D,std::allocator<Vector2D> >
$LN7@WorldTrans:
	ret	0
__ehhandler$?WorldTransform@@YA?AV?$vector@UVector2D@@V?$allocator@UVector2D@@@std@@@std@@AAV12@ABUVector2D@@111@Z:
	mov	edx, DWORD PTR [esp+8]
	lea	eax, DWORD PTR [edx+12]
	mov	ecx, DWORD PTR [edx-120]
	xor	ecx, eax
	call	@__security_check_cookie@4
	mov	eax, OFFSET __ehfuncinfo$?WorldTransform@@YA?AV?$vector@UVector2D@@V?$allocator@UVector2D@@@std@@@std@@AAV12@ABUVector2D@@111@Z
	jmp	___CxxFrameHandler3
text$x	ENDS
?WorldTransform@@YA?AV?$vector@UVector2D@@V?$allocator@UVector2D@@@std@@@std@@AAV12@ABUVector2D@@111@Z ENDP ; WorldTransform
PUBLIC	?Identity@C2DMatrix@@QAEXXZ			; C2DMatrix::Identity
PUBLIC	??0Matrix@C2DMatrix@@QAE@XZ			; C2DMatrix::Matrix::Matrix
; Function compile flags: /Odtp /RTCsu
; File c:\users\teaja\documents\artificial-fun\labravenprojecttest\common\2d\c2dmatrix.h
;	COMDAT ??0C2DMatrix@@QAE@XZ
_TEXT	SEGMENT
_this$ = -4						; size = 4
??0C2DMatrix@@QAE@XZ PROC				; C2DMatrix::C2DMatrix, COMDAT
; _this$ = ecx

; 49   :   C2DMatrix()

	push	ebp
	mov	ebp, esp
	push	ecx
	mov	DWORD PTR [ebp-4], -858993460		; ccccccccH
	mov	DWORD PTR _this$[ebp], ecx
	mov	ecx, DWORD PTR _this$[ebp]
	call	??0Matrix@C2DMatrix@@QAE@XZ		; C2DMatrix::Matrix::Matrix

; 50   :   {
; 51   :     //initialize the matrix to an identity matrix
; 52   :     Identity();

	mov	ecx, DWORD PTR _this$[ebp]
	call	?Identity@C2DMatrix@@QAEXXZ		; C2DMatrix::Identity

; 53   :   }

	mov	eax, DWORD PTR _this$[ebp]
	add	esp, 4
	cmp	ebp, esp
	call	__RTC_CheckEsp
	mov	esp, ebp
	pop	ebp
	ret	0
??0C2DMatrix@@QAE@XZ ENDP				; C2DMatrix::C2DMatrix
; Function compile flags: /Odtp /RTCsu
_TEXT	ENDS
;	COMDAT ??0Matrix@C2DMatrix@@QAE@XZ
_TEXT	SEGMENT
_this$ = -4						; size = 4
??0Matrix@C2DMatrix@@QAE@XZ PROC			; C2DMatrix::Matrix::Matrix, COMDAT
; _this$ = ecx

; 32   :     Matrix()

	push	ebp
	mov	ebp, esp
	push	ecx
	mov	DWORD PTR [ebp-4], -858993460		; ccccccccH
	mov	DWORD PTR _this$[ebp], ecx

; 33   :     {
; 34   :       _11=0.0; _12=0.0; _13=0.0;

	mov	eax, DWORD PTR _this$[ebp]
	fldz
	fstp	QWORD PTR [eax]
	mov	ecx, DWORD PTR _this$[ebp]
	fldz
	fstp	QWORD PTR [ecx+8]
	mov	edx, DWORD PTR _this$[ebp]
	fldz
	fstp	QWORD PTR [edx+16]

; 35   :       _21=0.0; _22=0.0; _23=0.0;

	mov	eax, DWORD PTR _this$[ebp]
	fldz
	fstp	QWORD PTR [eax+24]
	mov	ecx, DWORD PTR _this$[ebp]
	fldz
	fstp	QWORD PTR [ecx+32]
	mov	edx, DWORD PTR _this$[ebp]
	fldz
	fstp	QWORD PTR [edx+40]

; 36   :       _31=0.0; _32=0.0; _33=0.0;

	mov	eax, DWORD PTR _this$[ebp]
	fldz
	fstp	QWORD PTR [eax+48]
	mov	ecx, DWORD PTR _this$[ebp]
	fldz
	fstp	QWORD PTR [ecx+56]
	mov	edx, DWORD PTR _this$[ebp]
	fldz
	fstp	QWORD PTR [edx+64]

; 37   :     }

	mov	eax, DWORD PTR _this$[ebp]
	mov	esp, ebp
	pop	ebp
	ret	0
??0Matrix@C2DMatrix@@QAE@XZ ENDP			; C2DMatrix::Matrix::Matrix
_TEXT	ENDS
PUBLIC	??A?$vector@UVector2D@@V?$allocator@UVector2D@@@std@@@std@@QAEAAUVector2D@@I@Z ; std::vector<Vector2D,std::allocator<Vector2D> >::operator[]
; Function compile flags: /Odtp /RTCsu
;	COMDAT ?TransformVector2Ds@C2DMatrix@@QAEXAAV?$vector@UVector2D@@V?$allocator@UVector2D@@@std@@@std@@@Z
_TEXT	SEGMENT
tv175 = -40						; size = 8
tv173 = -32						; size = 8
_tempY$128845 = -24					; size = 8
_tempX$128844 = -16					; size = 8
_i$128840 = -8						; size = 4
_this$ = -4						; size = 4
_vPoint$ = 8						; size = 4
?TransformVector2Ds@C2DMatrix@@QAEXAAV?$vector@UVector2D@@V?$allocator@UVector2D@@@std@@@std@@@Z PROC ; C2DMatrix::TransformVector2Ds, COMDAT
; _this$ = ecx

; 118  : {

	push	ebp
	mov	ebp, esp
	sub	esp, 40					; 00000028H
	push	edi
	push	ecx
	lea	edi, DWORD PTR [ebp-40]
	mov	ecx, 10					; 0000000aH
	mov	eax, -858993460				; ccccccccH
	rep stosd
	pop	ecx
	mov	DWORD PTR _this$[ebp], ecx

; 119  :   for (unsigned int i=0; i<vPoint.size(); ++i)

	mov	DWORD PTR _i$128840[ebp], 0
	jmp	SHORT $LN3@TransformV
$LN2@TransformV:
	mov	eax, DWORD PTR _i$128840[ebp]
	add	eax, 1
	mov	DWORD PTR _i$128840[ebp], eax
$LN3@TransformV:
	mov	ecx, DWORD PTR _vPoint$[ebp]
	call	?size@?$vector@UVector2D@@V?$allocator@UVector2D@@@std@@@std@@QBEIXZ ; std::vector<Vector2D,std::allocator<Vector2D> >::size
	cmp	DWORD PTR _i$128840[ebp], eax
	jae	$LN1@TransformV

; 120  :   {
; 121  :     double tempX =(m_Matrix._11*vPoint[i].x) + (m_Matrix._21*vPoint[i].y) + (m_Matrix._31);

	mov	ecx, DWORD PTR _i$128840[ebp]
	push	ecx
	mov	ecx, DWORD PTR _vPoint$[ebp]
	call	??A?$vector@UVector2D@@V?$allocator@UVector2D@@@std@@@std@@QAEAAUVector2D@@I@Z ; std::vector<Vector2D,std::allocator<Vector2D> >::operator[]
	mov	edx, DWORD PTR _this$[ebp]
	fld	QWORD PTR [edx]
	fmul	QWORD PTR [eax]
	mov	eax, DWORD PTR _i$128840[ebp]
	push	eax
	mov	ecx, DWORD PTR _vPoint$[ebp]
	fstp	QWORD PTR tv173[ebp]
	call	??A?$vector@UVector2D@@V?$allocator@UVector2D@@@std@@@std@@QAEAAUVector2D@@I@Z ; std::vector<Vector2D,std::allocator<Vector2D> >::operator[]
	mov	ecx, DWORD PTR _this$[ebp]
	fld	QWORD PTR [ecx+24]
	fmul	QWORD PTR [eax+8]
	fadd	QWORD PTR tv173[ebp]
	mov	edx, DWORD PTR _this$[ebp]
	fadd	QWORD PTR [edx+48]
	fstp	QWORD PTR _tempX$128844[ebp]

; 122  : 
; 123  :     double tempY = (m_Matrix._12*vPoint[i].x) + (m_Matrix._22*vPoint[i].y) + (m_Matrix._32);

	mov	eax, DWORD PTR _i$128840[ebp]
	push	eax
	mov	ecx, DWORD PTR _vPoint$[ebp]
	call	??A?$vector@UVector2D@@V?$allocator@UVector2D@@@std@@@std@@QAEAAUVector2D@@I@Z ; std::vector<Vector2D,std::allocator<Vector2D> >::operator[]
	mov	ecx, DWORD PTR _this$[ebp]
	fld	QWORD PTR [ecx+8]
	fmul	QWORD PTR [eax]
	mov	edx, DWORD PTR _i$128840[ebp]
	push	edx
	mov	ecx, DWORD PTR _vPoint$[ebp]
	fstp	QWORD PTR tv175[ebp]
	call	??A?$vector@UVector2D@@V?$allocator@UVector2D@@@std@@@std@@QAEAAUVector2D@@I@Z ; std::vector<Vector2D,std::allocator<Vector2D> >::operator[]
	mov	ecx, DWORD PTR _this$[ebp]
	fld	QWORD PTR [ecx+32]
	fmul	QWORD PTR [eax+8]
	fadd	QWORD PTR tv175[ebp]
	mov	edx, DWORD PTR _this$[ebp]
	fadd	QWORD PTR [edx+56]
	fstp	QWORD PTR _tempY$128845[ebp]

; 124  :   
; 125  :     vPoint[i].x = tempX;

	mov	eax, DWORD PTR _i$128840[ebp]
	push	eax
	mov	ecx, DWORD PTR _vPoint$[ebp]
	call	??A?$vector@UVector2D@@V?$allocator@UVector2D@@@std@@@std@@QAEAAUVector2D@@I@Z ; std::vector<Vector2D,std::allocator<Vector2D> >::operator[]
	fld	QWORD PTR _tempX$128844[ebp]
	fstp	QWORD PTR [eax]

; 126  : 
; 127  :     vPoint[i].y = tempY;

	mov	ecx, DWORD PTR _i$128840[ebp]
	push	ecx
	mov	ecx, DWORD PTR _vPoint$[ebp]
	call	??A?$vector@UVector2D@@V?$allocator@UVector2D@@@std@@@std@@QAEAAUVector2D@@I@Z ; std::vector<Vector2D,std::allocator<Vector2D> >::operator[]
	fld	QWORD PTR _tempY$128845[ebp]
	fstp	QWORD PTR [eax+8]

; 128  : 
; 129  :   }

	jmp	$LN2@TransformV
$LN1@TransformV:

; 130  : }

	pop	edi
	add	esp, 40					; 00000028H
	cmp	ebp, esp
	call	__RTC_CheckEsp
	mov	esp, ebp
	pop	ebp
	ret	4
?TransformVector2Ds@C2DMatrix@@QAEXAAV?$vector@UVector2D@@V?$allocator@UVector2D@@@std@@@std@@@Z ENDP ; C2DMatrix::TransformVector2Ds
; Function compile flags: /Odtp /RTCsu
_TEXT	ENDS
;	COMDAT ?Identity@C2DMatrix@@QAEXXZ
_TEXT	SEGMENT
_this$ = -4						; size = 4
?Identity@C2DMatrix@@QAEXXZ PROC			; C2DMatrix::Identity, COMDAT
; _this$ = ecx

; 149  : {

	push	ebp
	mov	ebp, esp
	push	ecx
	mov	DWORD PTR [ebp-4], -858993460		; ccccccccH
	mov	DWORD PTR _this$[ebp], ecx

; 150  :   m_Matrix._11 = 1; m_Matrix._12 = 0; m_Matrix._13 = 0;

	mov	eax, DWORD PTR _this$[ebp]
	fld1
	fstp	QWORD PTR [eax]
	mov	ecx, DWORD PTR _this$[ebp]
	fldz
	fstp	QWORD PTR [ecx+8]
	mov	edx, DWORD PTR _this$[ebp]
	fldz
	fstp	QWORD PTR [edx+16]

; 151  : 
; 152  :   m_Matrix._21 = 0; m_Matrix._22 = 1; m_Matrix._23 = 0;

	mov	eax, DWORD PTR _this$[ebp]
	fldz
	fstp	QWORD PTR [eax+24]
	mov	ecx, DWORD PTR _this$[ebp]
	fld1
	fstp	QWORD PTR [ecx+32]
	mov	edx, DWORD PTR _this$[ebp]
	fldz
	fstp	QWORD PTR [edx+40]

; 153  : 
; 154  :   m_Matrix._31 = 0; m_Matrix._32 = 0; m_Matrix._33 = 1;

	mov	eax, DWORD PTR _this$[ebp]
	fldz
	fstp	QWORD PTR [eax+48]
	mov	ecx, DWORD PTR _this$[ebp]
	fldz
	fstp	QWORD PTR [ecx+56]
	mov	edx, DWORD PTR _this$[ebp]
	fld1
	fstp	QWORD PTR [edx+64]

; 155  : 
; 156  :   }

	mov	esp, ebp
	pop	ebp
	ret	0
?Identity@C2DMatrix@@QAEXXZ ENDP			; C2DMatrix::Identity
_TEXT	ENDS
PUBLIC	?MatrixMultiply@C2DMatrix@@AAEXAAUMatrix@1@@Z	; C2DMatrix::MatrixMultiply
; Function compile flags: /Odtp /RTCsu
;	COMDAT ?Translate@C2DMatrix@@QAEXNN@Z
_TEXT	SEGMENT
_mat$ = -80						; size = 72
_this$ = -4						; size = 4
_x$ = 8							; size = 8
_y$ = 16						; size = 8
?Translate@C2DMatrix@@QAEXNN@Z PROC			; C2DMatrix::Translate, COMDAT
; _this$ = ecx

; 160  : {

	push	ebp
	mov	ebp, esp
	sub	esp, 84					; 00000054H
	push	edi
	push	ecx
	lea	edi, DWORD PTR [ebp-84]
	mov	ecx, 21					; 00000015H
	mov	eax, -858993460				; ccccccccH
	rep stosd
	pop	ecx
	mov	DWORD PTR _this$[ebp], ecx

; 161  :   Matrix mat;

	lea	ecx, DWORD PTR _mat$[ebp]
	call	??0Matrix@C2DMatrix@@QAE@XZ		; C2DMatrix::Matrix::Matrix

; 162  :   
; 163  :   mat._11 = 1; mat._12 = 0; mat._13 = 0;

	fld1
	fstp	QWORD PTR _mat$[ebp]
	fldz
	fstp	QWORD PTR _mat$[ebp+8]
	fldz
	fstp	QWORD PTR _mat$[ebp+16]

; 164  :   
; 165  :   mat._21 = 0; mat._22 = 1; mat._23 = 0;

	fldz
	fstp	QWORD PTR _mat$[ebp+24]
	fld1
	fstp	QWORD PTR _mat$[ebp+32]
	fldz
	fstp	QWORD PTR _mat$[ebp+40]

; 166  :   
; 167  :   mat._31 = x;    mat._32 = y;    mat._33 = 1;

	fld	QWORD PTR _x$[ebp]
	fstp	QWORD PTR _mat$[ebp+48]
	fld	QWORD PTR _y$[ebp]
	fstp	QWORD PTR _mat$[ebp+56]
	fld1
	fstp	QWORD PTR _mat$[ebp+64]

; 168  :   
; 169  :   //and multiply
; 170  :   MatrixMultiply(mat);

	lea	eax, DWORD PTR _mat$[ebp]
	push	eax
	mov	ecx, DWORD PTR _this$[ebp]
	call	?MatrixMultiply@C2DMatrix@@AAEXAAUMatrix@1@@Z ; C2DMatrix::MatrixMultiply

; 171  : }

	push	edx
	mov	ecx, ebp
	push	eax
	lea	edx, DWORD PTR $LN5@Translate
	call	@_RTC_CheckStackVars@8
	pop	eax
	pop	edx
	pop	edi
	add	esp, 84					; 00000054H
	cmp	ebp, esp
	call	__RTC_CheckEsp
	mov	esp, ebp
	pop	ebp
	ret	16					; 00000010H
$LN5@Translate:
	DD	1
	DD	$LN4@Translate
$LN4@Translate:
	DD	-80					; ffffffb0H
	DD	72					; 00000048H
	DD	$LN3@Translate
$LN3@Translate:
	DB	109					; 0000006dH
	DB	97					; 00000061H
	DB	116					; 00000074H
	DB	0
?Translate@C2DMatrix@@QAEXNN@Z ENDP			; C2DMatrix::Translate
; Function compile flags: /Odtp /RTCsu
_TEXT	ENDS
;	COMDAT ?MatrixMultiply@C2DMatrix@@AAEXAAUMatrix@1@@Z
_TEXT	SEGMENT
_mat_temp$ = -80					; size = 72
_this$ = -4						; size = 4
_mIn$ = 8						; size = 4
?MatrixMultiply@C2DMatrix@@AAEXAAUMatrix@1@@Z PROC	; C2DMatrix::MatrixMultiply, COMDAT
; _this$ = ecx

; 95   : {

	push	ebp
	mov	ebp, esp
	sub	esp, 84					; 00000054H
	push	esi
	push	edi
	push	ecx
	lea	edi, DWORD PTR [ebp-84]
	mov	ecx, 21					; 00000015H
	mov	eax, -858993460				; ccccccccH
	rep stosd
	pop	ecx
	mov	DWORD PTR _this$[ebp], ecx

; 96   :   C2DMatrix::Matrix mat_temp;

	lea	ecx, DWORD PTR _mat_temp$[ebp]
	call	??0Matrix@C2DMatrix@@QAE@XZ		; C2DMatrix::Matrix::Matrix

; 97   :   
; 98   :   //first row
; 99   :   mat_temp._11 = (m_Matrix._11*mIn._11) + (m_Matrix._12*mIn._21) + (m_Matrix._13*mIn._31);

	mov	eax, DWORD PTR _this$[ebp]
	mov	ecx, DWORD PTR _mIn$[ebp]
	fld	QWORD PTR [eax]
	fmul	QWORD PTR [ecx]
	mov	edx, DWORD PTR _this$[ebp]
	mov	eax, DWORD PTR _mIn$[ebp]
	fld	QWORD PTR [edx+8]
	fmul	QWORD PTR [eax+24]
	faddp	ST(1), ST(0)
	mov	ecx, DWORD PTR _this$[ebp]
	mov	edx, DWORD PTR _mIn$[ebp]
	fld	QWORD PTR [ecx+16]
	fmul	QWORD PTR [edx+48]
	faddp	ST(1), ST(0)
	fstp	QWORD PTR _mat_temp$[ebp]

; 100  :   mat_temp._12 = (m_Matrix._11*mIn._12) + (m_Matrix._12*mIn._22) + (m_Matrix._13*mIn._32);

	mov	eax, DWORD PTR _this$[ebp]
	mov	ecx, DWORD PTR _mIn$[ebp]
	fld	QWORD PTR [eax]
	fmul	QWORD PTR [ecx+8]
	mov	edx, DWORD PTR _this$[ebp]
	mov	eax, DWORD PTR _mIn$[ebp]
	fld	QWORD PTR [edx+8]
	fmul	QWORD PTR [eax+32]
	faddp	ST(1), ST(0)
	mov	ecx, DWORD PTR _this$[ebp]
	mov	edx, DWORD PTR _mIn$[ebp]
	fld	QWORD PTR [ecx+16]
	fmul	QWORD PTR [edx+56]
	faddp	ST(1), ST(0)
	fstp	QWORD PTR _mat_temp$[ebp+8]

; 101  :   mat_temp._13 = (m_Matrix._11*mIn._13) + (m_Matrix._12*mIn._23) + (m_Matrix._13*mIn._33);

	mov	eax, DWORD PTR _this$[ebp]
	mov	ecx, DWORD PTR _mIn$[ebp]
	fld	QWORD PTR [eax]
	fmul	QWORD PTR [ecx+16]
	mov	edx, DWORD PTR _this$[ebp]
	mov	eax, DWORD PTR _mIn$[ebp]
	fld	QWORD PTR [edx+8]
	fmul	QWORD PTR [eax+40]
	faddp	ST(1), ST(0)
	mov	ecx, DWORD PTR _this$[ebp]
	mov	edx, DWORD PTR _mIn$[ebp]
	fld	QWORD PTR [ecx+16]
	fmul	QWORD PTR [edx+64]
	faddp	ST(1), ST(0)
	fstp	QWORD PTR _mat_temp$[ebp+16]

; 102  : 
; 103  :   //second
; 104  :   mat_temp._21 = (m_Matrix._21*mIn._11) + (m_Matrix._22*mIn._21) + (m_Matrix._23*mIn._31);

	mov	eax, DWORD PTR _this$[ebp]
	mov	ecx, DWORD PTR _mIn$[ebp]
	fld	QWORD PTR [eax+24]
	fmul	QWORD PTR [ecx]
	mov	edx, DWORD PTR _this$[ebp]
	mov	eax, DWORD PTR _mIn$[ebp]
	fld	QWORD PTR [edx+32]
	fmul	QWORD PTR [eax+24]
	faddp	ST(1), ST(0)
	mov	ecx, DWORD PTR _this$[ebp]
	mov	edx, DWORD PTR _mIn$[ebp]
	fld	QWORD PTR [ecx+40]
	fmul	QWORD PTR [edx+48]
	faddp	ST(1), ST(0)
	fstp	QWORD PTR _mat_temp$[ebp+24]

; 105  :   mat_temp._22 = (m_Matrix._21*mIn._12) + (m_Matrix._22*mIn._22) + (m_Matrix._23*mIn._32);

	mov	eax, DWORD PTR _this$[ebp]
	mov	ecx, DWORD PTR _mIn$[ebp]
	fld	QWORD PTR [eax+24]
	fmul	QWORD PTR [ecx+8]
	mov	edx, DWORD PTR _this$[ebp]
	mov	eax, DWORD PTR _mIn$[ebp]
	fld	QWORD PTR [edx+32]
	fmul	QWORD PTR [eax+32]
	faddp	ST(1), ST(0)
	mov	ecx, DWORD PTR _this$[ebp]
	mov	edx, DWORD PTR _mIn$[ebp]
	fld	QWORD PTR [ecx+40]
	fmul	QWORD PTR [edx+56]
	faddp	ST(1), ST(0)
	fstp	QWORD PTR _mat_temp$[ebp+32]

; 106  :   mat_temp._23 = (m_Matrix._21*mIn._13) + (m_Matrix._22*mIn._23) + (m_Matrix._23*mIn._33);

	mov	eax, DWORD PTR _this$[ebp]
	mov	ecx, DWORD PTR _mIn$[ebp]
	fld	QWORD PTR [eax+24]
	fmul	QWORD PTR [ecx+16]
	mov	edx, DWORD PTR _this$[ebp]
	mov	eax, DWORD PTR _mIn$[ebp]
	fld	QWORD PTR [edx+32]
	fmul	QWORD PTR [eax+40]
	faddp	ST(1), ST(0)
	mov	ecx, DWORD PTR _this$[ebp]
	mov	edx, DWORD PTR _mIn$[ebp]
	fld	QWORD PTR [ecx+40]
	fmul	QWORD PTR [edx+64]
	faddp	ST(1), ST(0)
	fstp	QWORD PTR _mat_temp$[ebp+40]

; 107  : 
; 108  :   //third
; 109  :   mat_temp._31 = (m_Matrix._31*mIn._11) + (m_Matrix._32*mIn._21) + (m_Matrix._33*mIn._31);

	mov	eax, DWORD PTR _this$[ebp]
	mov	ecx, DWORD PTR _mIn$[ebp]
	fld	QWORD PTR [eax+48]
	fmul	QWORD PTR [ecx]
	mov	edx, DWORD PTR _this$[ebp]
	mov	eax, DWORD PTR _mIn$[ebp]
	fld	QWORD PTR [edx+56]
	fmul	QWORD PTR [eax+24]
	faddp	ST(1), ST(0)
	mov	ecx, DWORD PTR _this$[ebp]
	mov	edx, DWORD PTR _mIn$[ebp]
	fld	QWORD PTR [ecx+64]
	fmul	QWORD PTR [edx+48]
	faddp	ST(1), ST(0)
	fstp	QWORD PTR _mat_temp$[ebp+48]

; 110  :   mat_temp._32 = (m_Matrix._31*mIn._12) + (m_Matrix._32*mIn._22) + (m_Matrix._33*mIn._32);

	mov	eax, DWORD PTR _this$[ebp]
	mov	ecx, DWORD PTR _mIn$[ebp]
	fld	QWORD PTR [eax+48]
	fmul	QWORD PTR [ecx+8]
	mov	edx, DWORD PTR _this$[ebp]
	mov	eax, DWORD PTR _mIn$[ebp]
	fld	QWORD PTR [edx+56]
	fmul	QWORD PTR [eax+32]
	faddp	ST(1), ST(0)
	mov	ecx, DWORD PTR _this$[ebp]
	mov	edx, DWORD PTR _mIn$[ebp]
	fld	QWORD PTR [ecx+64]
	fmul	QWORD PTR [edx+56]
	faddp	ST(1), ST(0)
	fstp	QWORD PTR _mat_temp$[ebp+56]

; 111  :   mat_temp._33 = (m_Matrix._31*mIn._13) + (m_Matrix._32*mIn._23) + (m_Matrix._33*mIn._33);

	mov	eax, DWORD PTR _this$[ebp]
	mov	ecx, DWORD PTR _mIn$[ebp]
	fld	QWORD PTR [eax+48]
	fmul	QWORD PTR [ecx+16]
	mov	edx, DWORD PTR _this$[ebp]
	mov	eax, DWORD PTR _mIn$[ebp]
	fld	QWORD PTR [edx+56]
	fmul	QWORD PTR [eax+40]
	faddp	ST(1), ST(0)
	mov	ecx, DWORD PTR _this$[ebp]
	mov	edx, DWORD PTR _mIn$[ebp]
	fld	QWORD PTR [ecx+64]
	fmul	QWORD PTR [edx+64]
	faddp	ST(1), ST(0)
	fstp	QWORD PTR _mat_temp$[ebp+64]

; 112  : 
; 113  :   m_Matrix = mat_temp;

	mov	ecx, 18					; 00000012H
	lea	esi, DWORD PTR _mat_temp$[ebp]
	mov	edi, DWORD PTR _this$[ebp]
	rep movsd

; 114  : }

	push	edx
	mov	ecx, ebp
	push	eax
	lea	edx, DWORD PTR $LN5@MatrixMult
	call	@_RTC_CheckStackVars@8
	pop	eax
	pop	edx
	pop	edi
	pop	esi
	add	esp, 84					; 00000054H
	cmp	ebp, esp
	call	__RTC_CheckEsp
	mov	esp, ebp
	pop	ebp
	ret	4
	npad	3
$LN5@MatrixMult:
	DD	1
	DD	$LN4@MatrixMult
$LN4@MatrixMult:
	DD	-80					; ffffffb0H
	DD	72					; 00000048H
	DD	$LN3@MatrixMult
$LN3@MatrixMult:
	DB	109					; 0000006dH
	DB	97					; 00000061H
	DB	116					; 00000074H
	DB	95					; 0000005fH
	DB	116					; 00000074H
	DB	101					; 00000065H
	DB	109					; 0000006dH
	DB	112					; 00000070H
	DB	0
?MatrixMultiply@C2DMatrix@@AAEXAAUMatrix@1@@Z ENDP	; C2DMatrix::MatrixMultiply
; Function compile flags: /Odtp /RTCsu
_TEXT	ENDS
;	COMDAT ?Scale@C2DMatrix@@QAEXNN@Z
_TEXT	SEGMENT
_mat$ = -80						; size = 72
_this$ = -4						; size = 4
_xScale$ = 8						; size = 8
_yScale$ = 16						; size = 8
?Scale@C2DMatrix@@QAEXNN@Z PROC				; C2DMatrix::Scale, COMDAT
; _this$ = ecx

; 175  : {

	push	ebp
	mov	ebp, esp
	sub	esp, 84					; 00000054H
	push	edi
	push	ecx
	lea	edi, DWORD PTR [ebp-84]
	mov	ecx, 21					; 00000015H
	mov	eax, -858993460				; ccccccccH
	rep stosd
	pop	ecx
	mov	DWORD PTR _this$[ebp], ecx

; 176  :   C2DMatrix::Matrix mat;

	lea	ecx, DWORD PTR _mat$[ebp]
	call	??0Matrix@C2DMatrix@@QAE@XZ		; C2DMatrix::Matrix::Matrix

; 177  :   
; 178  :   mat._11 = xScale; mat._12 = 0; mat._13 = 0;

	fld	QWORD PTR _xScale$[ebp]
	fstp	QWORD PTR _mat$[ebp]
	fldz
	fstp	QWORD PTR _mat$[ebp+8]
	fldz
	fstp	QWORD PTR _mat$[ebp+16]

; 179  :   
; 180  :   mat._21 = 0; mat._22 = yScale; mat._23 = 0;

	fldz
	fstp	QWORD PTR _mat$[ebp+24]
	fld	QWORD PTR _yScale$[ebp]
	fstp	QWORD PTR _mat$[ebp+32]
	fldz
	fstp	QWORD PTR _mat$[ebp+40]

; 181  :   
; 182  :   mat._31 = 0; mat._32 = 0; mat._33 = 1;

	fldz
	fstp	QWORD PTR _mat$[ebp+48]
	fldz
	fstp	QWORD PTR _mat$[ebp+56]
	fld1
	fstp	QWORD PTR _mat$[ebp+64]

; 183  :   
; 184  :   //and multiply
; 185  :   MatrixMultiply(mat);

	lea	eax, DWORD PTR _mat$[ebp]
	push	eax
	mov	ecx, DWORD PTR _this$[ebp]
	call	?MatrixMultiply@C2DMatrix@@AAEXAAUMatrix@1@@Z ; C2DMatrix::MatrixMultiply

; 186  : }

	push	edx
	mov	ecx, ebp
	push	eax
	lea	edx, DWORD PTR $LN5@Scale
	call	@_RTC_CheckStackVars@8
	pop	eax
	pop	edx
	pop	edi
	add	esp, 84					; 00000054H
	cmp	ebp, esp
	call	__RTC_CheckEsp
	mov	esp, ebp
	pop	ebp
	ret	16					; 00000010H
$LN5@Scale:
	DD	1
	DD	$LN4@Scale
$LN4@Scale:
	DD	-80					; ffffffb0H
	DD	72					; 00000048H
	DD	$LN3@Scale
$LN3@Scale:
	DB	109					; 0000006dH
	DB	97					; 00000061H
	DB	116					; 00000074H
	DB	0
?Scale@C2DMatrix@@QAEXNN@Z ENDP				; C2DMatrix::Scale
; Function compile flags: /Odtp /RTCsu
_TEXT	ENDS
;	COMDAT ?Rotate@C2DMatrix@@QAEXABUVector2D@@0@Z
_TEXT	SEGMENT
_mat$ = -80						; size = 72
_this$ = -4						; size = 4
_fwd$ = 8						; size = 4
_side$ = 12						; size = 4
?Rotate@C2DMatrix@@QAEXABUVector2D@@0@Z PROC		; C2DMatrix::Rotate, COMDAT
; _this$ = ecx

; 210  : {

	push	ebp
	mov	ebp, esp
	sub	esp, 84					; 00000054H
	push	edi
	push	ecx
	lea	edi, DWORD PTR [ebp-84]
	mov	ecx, 21					; 00000015H
	mov	eax, -858993460				; ccccccccH
	rep stosd
	pop	ecx
	mov	DWORD PTR _this$[ebp], ecx

; 211  :   C2DMatrix::Matrix mat;

	lea	ecx, DWORD PTR _mat$[ebp]
	call	??0Matrix@C2DMatrix@@QAE@XZ		; C2DMatrix::Matrix::Matrix

; 212  :   
; 213  :   mat._11 = fwd.x;  mat._12 = fwd.y; mat._13 = 0;

	mov	eax, DWORD PTR _fwd$[ebp]
	fld	QWORD PTR [eax]
	fstp	QWORD PTR _mat$[ebp]
	mov	ecx, DWORD PTR _fwd$[ebp]
	fld	QWORD PTR [ecx+8]
	fstp	QWORD PTR _mat$[ebp+8]
	fldz
	fstp	QWORD PTR _mat$[ebp+16]

; 214  :   
; 215  :   mat._21 = side.x; mat._22 = side.y; mat._23 = 0;

	mov	edx, DWORD PTR _side$[ebp]
	fld	QWORD PTR [edx]
	fstp	QWORD PTR _mat$[ebp+24]
	mov	eax, DWORD PTR _side$[ebp]
	fld	QWORD PTR [eax+8]
	fstp	QWORD PTR _mat$[ebp+32]
	fldz
	fstp	QWORD PTR _mat$[ebp+40]

; 216  :   
; 217  :   mat._31 = 0; mat._32 = 0;mat._33 = 1;

	fldz
	fstp	QWORD PTR _mat$[ebp+48]
	fldz
	fstp	QWORD PTR _mat$[ebp+56]
	fld1
	fstp	QWORD PTR _mat$[ebp+64]

; 218  :   
; 219  :   //and multiply
; 220  :   MatrixMultiply(mat);

	lea	ecx, DWORD PTR _mat$[ebp]
	push	ecx
	mov	ecx, DWORD PTR _this$[ebp]
	call	?MatrixMultiply@C2DMatrix@@AAEXAAUMatrix@1@@Z ; C2DMatrix::MatrixMultiply

; 221  : }

	push	edx
	mov	ecx, ebp
	push	eax
	lea	edx, DWORD PTR $LN5@Rotate
	call	@_RTC_CheckStackVars@8
	pop	eax
	pop	edx
	pop	edi
	add	esp, 84					; 00000054H
	cmp	ebp, esp
	call	__RTC_CheckEsp
	mov	esp, ebp
	pop	ebp
	ret	8
$LN5@Rotate:
	DD	1
	DD	$LN4@Rotate
$LN4@Rotate:
	DD	-80					; ffffffb0H
	DD	72					; 00000048H
	DD	$LN3@Rotate
$LN3@Rotate:
	DB	109					; 0000006dH
	DB	97					; 00000061H
	DB	116					; 00000074H
	DB	0
?Rotate@C2DMatrix@@QAEXABUVector2D@@0@Z ENDP		; C2DMatrix::Rotate
_TEXT	ENDS
PUBLIC	?push_back@?$list@UGraveRecord@GraveMarkers@@V?$allocator@UGraveRecord@GraveMarkers@@@std@@@std@@QAEX$$QAUGraveRecord@GraveMarkers@@@Z ; std::list<GraveMarkers::GraveRecord,std::allocator<GraveMarkers::GraveRecord> >::push_back
PUBLIC	??0GraveRecord@GraveMarkers@@QAE@UVector2D@@@Z	; GraveMarkers::GraveRecord::GraveRecord
PUBLIC	?AddGrave@GraveMarkers@@QAEXUVector2D@@@Z	; GraveMarkers::AddGrave
; Function compile flags: /Odtp /RTCsu
; File c:\users\teaja\documents\artificial-fun\labravenprojecttest\raven\gravemarkers.cpp
_TEXT	SEGMENT
$T134959 = -28						; size = 24
_this$ = -4						; size = 4
_pos$ = 8						; size = 16
?AddGrave@GraveMarkers@@QAEXUVector2D@@@Z PROC		; GraveMarkers::AddGrave
; _this$ = ecx

; 65   : {

	push	ebp
	mov	ebp, esp
	sub	esp, 28					; 0000001cH
	mov	eax, -858993460				; ccccccccH
	mov	DWORD PTR [ebp-28], eax
	mov	DWORD PTR [ebp-24], eax
	mov	DWORD PTR [ebp-20], eax
	mov	DWORD PTR [ebp-16], eax
	mov	DWORD PTR [ebp-12], eax
	mov	DWORD PTR [ebp-8], eax
	mov	DWORD PTR [ebp-4], eax
	mov	DWORD PTR _this$[ebp], ecx

; 66   :   m_GraveList.push_back(GraveRecord(pos));

	sub	esp, 16					; 00000010H
	mov	eax, esp
	mov	ecx, DWORD PTR _pos$[ebp]
	mov	DWORD PTR [eax], ecx
	mov	edx, DWORD PTR _pos$[ebp+4]
	mov	DWORD PTR [eax+4], edx
	mov	ecx, DWORD PTR _pos$[ebp+8]
	mov	DWORD PTR [eax+8], ecx
	mov	edx, DWORD PTR _pos$[ebp+12]
	mov	DWORD PTR [eax+12], edx
	lea	ecx, DWORD PTR $T134959[ebp]
	call	??0GraveRecord@GraveMarkers@@QAE@UVector2D@@@Z ; GraveMarkers::GraveRecord::GraveRecord
	push	eax
	mov	ecx, DWORD PTR _this$[ebp]
	add	ecx, 48					; 00000030H
	call	?push_back@?$list@UGraveRecord@GraveMarkers@@V?$allocator@UGraveRecord@GraveMarkers@@@std@@@std@@QAEX$$QAUGraveRecord@GraveMarkers@@@Z ; std::list<GraveMarkers::GraveRecord,std::allocator<GraveMarkers::GraveRecord> >::push_back

; 67   : }

	add	esp, 28					; 0000001cH
	cmp	ebp, esp
	call	__RTC_CheckEsp
	mov	esp, ebp
	pop	ebp
	ret	16					; 00000010H
?AddGrave@GraveMarkers@@QAEXUVector2D@@@Z ENDP		; GraveMarkers::AddGrave
; Function compile flags: /Odtp /RTCsu
; File c:\users\teaja\documents\artificial-fun\labravenprojecttest\raven\gravemarkers.h
_TEXT	ENDS
;	COMDAT ??0GraveRecord@GraveMarkers@@QAE@UVector2D@@@Z
_TEXT	SEGMENT
_this$ = -4						; size = 4
_pos$ = 8						; size = 16
??0GraveRecord@GraveMarkers@@QAE@UVector2D@@@Z PROC	; GraveMarkers::GraveRecord::GraveRecord, COMDAT
; _this$ = ecx

; 29   :     {}

	push	ebp
	mov	ebp, esp
	push	ecx
	mov	DWORD PTR [ebp-4], -858993460		; ccccccccH
	mov	DWORD PTR _this$[ebp], ecx
	mov	eax, DWORD PTR _this$[ebp]
	mov	ecx, DWORD PTR _pos$[ebp]
	mov	DWORD PTR [eax], ecx
	mov	edx, DWORD PTR _pos$[ebp+4]
	mov	DWORD PTR [eax+4], edx
	mov	ecx, DWORD PTR _pos$[ebp+8]
	mov	DWORD PTR [eax+8], ecx
	mov	edx, DWORD PTR _pos$[ebp+12]
	mov	DWORD PTR [eax+12], edx
	call	?Instance@CrudeTimer@@SAPAV1@XZ		; CrudeTimer::Instance
	mov	ecx, eax
	call	?GetTickCount@CrudeTimer@@QAENXZ	; CrudeTimer::GetTickCount
	mov	eax, DWORD PTR _this$[ebp]
	fstp	QWORD PTR [eax+16]
	mov	eax, DWORD PTR _this$[ebp]
	add	esp, 4
	cmp	ebp, esp
	call	__RTC_CheckEsp
	mov	esp, ebp
	pop	ebp
	ret	16					; 00000010H
??0GraveRecord@GraveMarkers@@QAE@UVector2D@@@Z ENDP	; GraveMarkers::GraveRecord::GraveRecord
_TEXT	ENDS
PUBLIC	??1?$_String_val@DV?$allocator@D@std@@@std@@QAE@XZ ; std::_String_val<char,std::allocator<char> >::~_String_val<char,std::allocator<char> >
PUBLIC	?assign@?$basic_string@DU?$char_traits@D@std@@V?$allocator@D@2@@std@@QAEAAV12@PBD@Z ; std::basic_string<char,std::char_traits<char>,std::allocator<char> >::assign
PUBLIC	?_Tidy@?$basic_string@DU?$char_traits@D@std@@V?$allocator@D@2@@std@@QAEX_NI@Z ; std::basic_string<char,std::char_traits<char>,std::allocator<char> >::_Tidy
PUBLIC	??0?$_String_val@DV?$allocator@D@std@@@std@@QAE@V?$allocator@D@1@@Z ; std::_String_val<char,std::allocator<char> >::_String_val<char,std::allocator<char> >
PUBLIC	??0?$allocator@D@std@@QAE@XZ			; std::allocator<char>::allocator<char>
;	COMDAT xdata$x
; File c:\program files (x86)\microsoft visual studio 10.0\vc\include\xstring
xdata$x	SEGMENT
__unwindtable$??0?$basic_string@DU?$char_traits@D@std@@V?$allocator@D@2@@std@@QAE@PBD@Z DD 0ffffffffH
	DD	FLAT:__unwindfunclet$??0?$basic_string@DU?$char_traits@D@std@@V?$allocator@D@2@@std@@QAE@PBD@Z$0
__ehfuncinfo$??0?$basic_string@DU?$char_traits@D@std@@V?$allocator@D@2@@std@@QAE@PBD@Z DD 019930522H
	DD	01H
	DD	FLAT:__unwindtable$??0?$basic_string@DU?$char_traits@D@std@@V?$allocator@D@2@@std@@QAE@PBD@Z
	DD	2 DUP(00H)
	DD	2 DUP(00H)
	DD	00H
	DD	01H
; Function compile flags: /Odtp /RTCsu
xdata$x	ENDS
;	COMDAT ??0?$basic_string@DU?$char_traits@D@std@@V?$allocator@D@2@@std@@QAE@PBD@Z
_TEXT	SEGMENT
$T134963 = -20						; size = 4
_this$ = -16						; size = 4
__$EHRec$ = -12						; size = 12
__Ptr$ = 8						; size = 4
??0?$basic_string@DU?$char_traits@D@std@@V?$allocator@D@2@@std@@QAE@PBD@Z PROC ; std::basic_string<char,std::char_traits<char>,std::allocator<char> >::basic_string<char,std::char_traits<char>,std::allocator<char> >, COMDAT
; _this$ = ecx

; 592  : 		{	// construct from [_Ptr, <null>)

	push	ebp
	mov	ebp, esp
	push	-1
	push	__ehhandler$??0?$basic_string@DU?$char_traits@D@std@@V?$allocator@D@2@@std@@QAE@PBD@Z
	mov	eax, DWORD PTR fs:0
	push	eax
	sub	esp, 8
	mov	DWORD PTR [ebp-20], -858993460		; ccccccccH
	mov	DWORD PTR [ebp-16], -858993460		; ccccccccH
	mov	eax, DWORD PTR ___security_cookie
	xor	eax, ebp
	push	eax
	lea	eax, DWORD PTR __$EHRec$[ebp]
	mov	DWORD PTR fs:0, eax
	mov	DWORD PTR _this$[ebp], ecx
	push	ecx
	mov	ecx, esp
	mov	DWORD PTR $T134963[ebp], esp
	call	??0?$allocator@D@std@@QAE@XZ		; std::allocator<char>::allocator<char>
	mov	ecx, DWORD PTR _this$[ebp]
	call	??0?$_String_val@DV?$allocator@D@std@@@std@@QAE@V?$allocator@D@1@@Z ; std::_String_val<char,std::allocator<char> >::_String_val<char,std::allocator<char> >
	mov	DWORD PTR __$EHRec$[ebp+8], 0

; 593  : 		_Tidy();

	push	0
	push	0
	mov	ecx, DWORD PTR _this$[ebp]
	call	?_Tidy@?$basic_string@DU?$char_traits@D@std@@V?$allocator@D@2@@std@@QAEX_NI@Z ; std::basic_string<char,std::char_traits<char>,std::allocator<char> >::_Tidy

; 594  : 		assign(_Ptr);

	mov	eax, DWORD PTR __Ptr$[ebp]
	push	eax
	mov	ecx, DWORD PTR _this$[ebp]
	call	?assign@?$basic_string@DU?$char_traits@D@std@@V?$allocator@D@2@@std@@QAEAAV12@PBD@Z ; std::basic_string<char,std::char_traits<char>,std::allocator<char> >::assign

; 595  : 		}

	mov	DWORD PTR __$EHRec$[ebp+8], -1
	mov	eax, DWORD PTR _this$[ebp]
	mov	ecx, DWORD PTR __$EHRec$[ebp]
	mov	DWORD PTR fs:0, ecx
	pop	ecx
	add	esp, 20					; 00000014H
	cmp	ebp, esp
	call	__RTC_CheckEsp
	mov	esp, ebp
	pop	ebp
	ret	4
_TEXT	ENDS
;	COMDAT text$x
text$x	SEGMENT
__unwindfunclet$??0?$basic_string@DU?$char_traits@D@std@@V?$allocator@D@2@@std@@QAE@PBD@Z$0:
	mov	ecx, DWORD PTR _this$[ebp]
	jmp	??1?$_String_val@DV?$allocator@D@std@@@std@@QAE@XZ ; std::_String_val<char,std::allocator<char> >::~_String_val<char,std::allocator<char> >
__ehhandler$??0?$basic_string@DU?$char_traits@D@std@@V?$allocator@D@2@@std@@QAE@PBD@Z:
	mov	edx, DWORD PTR [esp+8]
	lea	eax, DWORD PTR [edx+12]
	mov	ecx, DWORD PTR [edx-12]
	xor	ecx, eax
	call	@__security_check_cookie@4
	mov	eax, OFFSET __ehfuncinfo$??0?$basic_string@DU?$char_traits@D@std@@V?$allocator@D@2@@std@@QAE@PBD@Z
	jmp	___CxxFrameHandler3
text$x	ENDS
??0?$basic_string@DU?$char_traits@D@std@@V?$allocator@D@2@@std@@QAE@PBD@Z ENDP ; std::basic_string<char,std::char_traits<char>,std::allocator<char> >::basic_string<char,std::char_traits<char>,std::allocator<char> >
;	COMDAT xdata$x
xdata$x	SEGMENT
__unwindtable$??1?$basic_string@DU?$char_traits@D@std@@V?$allocator@D@2@@std@@QAE@XZ DD 0ffffffffH
	DD	FLAT:__unwindfunclet$??1?$basic_string@DU?$char_traits@D@std@@V?$allocator@D@2@@std@@QAE@XZ$0
__ehfuncinfo$??1?$basic_string@DU?$char_traits@D@std@@V?$allocator@D@2@@std@@QAE@XZ DD 019930522H
	DD	01H
	DD	FLAT:__unwindtable$??1?$basic_string@DU?$char_traits@D@std@@V?$allocator@D@2@@std@@QAE@XZ
	DD	2 DUP(00H)
	DD	2 DUP(00H)
	DD	00H
	DD	01H
; Function compile flags: /Odtp /RTCsu
xdata$x	ENDS
;	COMDAT ??1?$basic_string@DU?$char_traits@D@std@@V?$allocator@D@2@@std@@QAE@XZ
_TEXT	SEGMENT
_this$ = -16						; size = 4
__$EHRec$ = -12						; size = 12
??1?$basic_string@DU?$char_traits@D@std@@V?$allocator@D@2@@std@@QAE@XZ PROC ; std::basic_string<char,std::char_traits<char>,std::allocator<char> >::~basic_string<char,std::char_traits<char>,std::allocator<char> >, COMDAT
; _this$ = ecx

; 752  : 		{	// destroy the string

	push	ebp
	mov	ebp, esp
	push	-1
	push	__ehhandler$??1?$basic_string@DU?$char_traits@D@std@@V?$allocator@D@2@@std@@QAE@XZ
	mov	eax, DWORD PTR fs:0
	push	eax
	push	ecx
	mov	DWORD PTR [ebp-16], -858993460		; ccccccccH
	mov	eax, DWORD PTR ___security_cookie
	xor	eax, ebp
	push	eax
	lea	eax, DWORD PTR __$EHRec$[ebp]
	mov	DWORD PTR fs:0, eax
	mov	DWORD PTR _this$[ebp], ecx
	mov	DWORD PTR __$EHRec$[ebp+8], 0

; 753  : 		_Tidy(true);

	push	0
	push	1
	mov	ecx, DWORD PTR _this$[ebp]
	call	?_Tidy@?$basic_string@DU?$char_traits@D@std@@V?$allocator@D@2@@std@@QAEX_NI@Z ; std::basic_string<char,std::char_traits<char>,std::allocator<char> >::_Tidy

; 754  : 		}

	mov	DWORD PTR __$EHRec$[ebp+8], -1
	mov	ecx, DWORD PTR _this$[ebp]
	call	??1?$_String_val@DV?$allocator@D@std@@@std@@QAE@XZ ; std::_String_val<char,std::allocator<char> >::~_String_val<char,std::allocator<char> >
	mov	ecx, DWORD PTR __$EHRec$[ebp]
	mov	DWORD PTR fs:0, ecx
	pop	ecx
	add	esp, 16					; 00000010H
	cmp	ebp, esp
	call	__RTC_CheckEsp
	mov	esp, ebp
	pop	ebp
	ret	0
_TEXT	ENDS
;	COMDAT text$x
text$x	SEGMENT
__unwindfunclet$??1?$basic_string@DU?$char_traits@D@std@@V?$allocator@D@2@@std@@QAE@XZ$0:
	mov	ecx, DWORD PTR _this$[ebp]
	jmp	??1?$_String_val@DV?$allocator@D@std@@@std@@QAE@XZ ; std::_String_val<char,std::allocator<char> >::~_String_val<char,std::allocator<char> >
__ehhandler$??1?$basic_string@DU?$char_traits@D@std@@V?$allocator@D@2@@std@@QAE@XZ:
	mov	edx, DWORD PTR [esp+8]
	lea	eax, DWORD PTR [edx+12]
	mov	ecx, DWORD PTR [edx-8]
	xor	ecx, eax
	call	@__security_check_cookie@4
	mov	eax, OFFSET __ehfuncinfo$??1?$basic_string@DU?$char_traits@D@std@@V?$allocator@D@2@@std@@QAE@XZ
	jmp	___CxxFrameHandler3
text$x	ENDS
??1?$basic_string@DU?$char_traits@D@std@@V?$allocator@D@2@@std@@QAE@XZ ENDP ; std::basic_string<char,std::char_traits<char>,std::allocator<char> >::~basic_string<char,std::char_traits<char>,std::allocator<char> >
PUBLIC	?_Myptr@?$basic_string@DU?$char_traits@D@std@@V?$allocator@D@2@@std@@QBEPBDXZ ; std::basic_string<char,std::char_traits<char>,std::allocator<char> >::_Myptr
; Function compile flags: /Odtp /RTCsu
;	COMDAT ?c_str@?$basic_string@DU?$char_traits@D@std@@V?$allocator@D@2@@std@@QBEPBDXZ
_TEXT	SEGMENT
_this$ = -4						; size = 4
?c_str@?$basic_string@DU?$char_traits@D@std@@V?$allocator@D@2@@std@@QBEPBDXZ PROC ; std::basic_string<char,std::char_traits<char>,std::allocator<char> >::c_str, COMDAT
; _this$ = ecx

; 1495 : 		{	// return pointer to null-terminated nonmutable array

	push	ebp
	mov	ebp, esp
	push	ecx
	mov	DWORD PTR [ebp-4], -858993460		; ccccccccH
	mov	DWORD PTR _this$[ebp], ecx

; 1496 : 		return (_Myptr());

	mov	ecx, DWORD PTR _this$[ebp]
	call	?_Myptr@?$basic_string@DU?$char_traits@D@std@@V?$allocator@D@2@@std@@QBEPBDXZ ; std::basic_string<char,std::char_traits<char>,std::allocator<char> >::_Myptr

; 1497 : 		}

	add	esp, 4
	cmp	ebp, esp
	call	__RTC_CheckEsp
	mov	esp, ebp
	pop	ebp
	ret	0
?c_str@?$basic_string@DU?$char_traits@D@std@@V?$allocator@D@2@@std@@QBEPBDXZ ENDP ; std::basic_string<char,std::char_traits<char>,std::allocator<char> >::c_str
; Function compile flags: /Odtp /RTCsu
_TEXT	ENDS
;	COMDAT ?size@?$basic_string@DU?$char_traits@D@std@@V?$allocator@D@2@@std@@QBEIXZ
_TEXT	SEGMENT
_this$ = -4						; size = 4
?size@?$basic_string@DU?$char_traits@D@std@@V?$allocator@D@2@@std@@QBEIXZ PROC ; std::basic_string<char,std::char_traits<char>,std::allocator<char> >::size, COMDAT
; _this$ = ecx

; 1510 : 		{	// return length of sequence

	push	ebp
	mov	ebp, esp
	push	ecx
	mov	DWORD PTR [ebp-4], -858993460		; ccccccccH
	mov	DWORD PTR _this$[ebp], ecx

; 1511 : 		return (this->_Mysize);

	mov	eax, DWORD PTR _this$[ebp]
	mov	eax, DWORD PTR [eax+20]

; 1512 : 		}

	mov	esp, ebp
	pop	ebp
	ret	0
?size@?$basic_string@DU?$char_traits@D@std@@V?$allocator@D@2@@std@@QBEIXZ ENDP ; std::basic_string<char,std::char_traits<char>,std::allocator<char> >::size
_TEXT	ENDS
PUBLIC	??0?$_Vector_val@UVector2D@@V?$allocator@UVector2D@@@std@@@std@@QAE@V?$allocator@UVector2D@@@1@@Z ; std::_Vector_val<Vector2D,std::allocator<Vector2D> >::_Vector_val<Vector2D,std::allocator<Vector2D> >
PUBLIC	??0?$allocator@UVector2D@@@std@@QAE@XZ		; std::allocator<Vector2D>::allocator<Vector2D>
; Function compile flags: /Odtp /RTCsu
; File c:\program files (x86)\microsoft visual studio 10.0\vc\include\vector
;	COMDAT ??0?$vector@UVector2D@@V?$allocator@UVector2D@@@std@@@std@@QAE@XZ
_TEXT	SEGMENT
$T134986 = -8						; size = 4
_this$ = -4						; size = 4
??0?$vector@UVector2D@@V?$allocator@UVector2D@@@std@@@std@@QAE@XZ PROC ; std::vector<Vector2D,std::allocator<Vector2D> >::vector<Vector2D,std::allocator<Vector2D> >, COMDAT
; _this$ = ecx

; 507  : 		{	// construct empty vector

	push	ebp
	mov	ebp, esp
	sub	esp, 8
	mov	DWORD PTR [ebp-8], -858993460		; ccccccccH
	mov	DWORD PTR [ebp-4], -858993460		; ccccccccH
	mov	DWORD PTR _this$[ebp], ecx
	push	ecx
	mov	ecx, esp
	mov	DWORD PTR $T134986[ebp], esp
	call	??0?$allocator@UVector2D@@@std@@QAE@XZ	; std::allocator<Vector2D>::allocator<Vector2D>
	mov	ecx, DWORD PTR _this$[ebp]
	call	??0?$_Vector_val@UVector2D@@V?$allocator@UVector2D@@@std@@@std@@QAE@V?$allocator@UVector2D@@@1@@Z ; std::_Vector_val<Vector2D,std::allocator<Vector2D> >::_Vector_val<Vector2D,std::allocator<Vector2D> >

; 508  : 		}

	mov	eax, DWORD PTR _this$[ebp]
	add	esp, 8
	cmp	ebp, esp
	call	__RTC_CheckEsp
	mov	esp, ebp
	pop	ebp
	ret	0
??0?$vector@UVector2D@@V?$allocator@UVector2D@@@std@@@std@@QAE@XZ ENDP ; std::vector<Vector2D,std::allocator<Vector2D> >::vector<Vector2D,std::allocator<Vector2D> >
_TEXT	ENDS
PUBLIC	??1?$_Vector_const_iterator@V?$_Vector_val@UVector2D@@V?$allocator@UVector2D@@@std@@@std@@@std@@QAE@XZ ; std::_Vector_const_iterator<std::_Vector_val<Vector2D,std::allocator<Vector2D> > >::~_Vector_const_iterator<std::_Vector_val<Vector2D,std::allocator<Vector2D> > >
PUBLIC	??1?$_Vector_val@UVector2D@@V?$allocator@UVector2D@@@std@@@std@@QAE@XZ ; std::_Vector_val<Vector2D,std::allocator<Vector2D> >::~_Vector_val<Vector2D,std::allocator<Vector2D> >
PUBLIC	?_Tidy@?$vector@UVector2D@@V?$allocator@UVector2D@@@std@@@std@@IAEXXZ ; std::vector<Vector2D,std::allocator<Vector2D> >::_Tidy
PUBLIC	??$_Ucopy@V?$_Vector_const_iterator@V?$_Vector_val@UVector2D@@V?$allocator@UVector2D@@@std@@@std@@@std@@@?$vector@UVector2D@@V?$allocator@UVector2D@@@std@@@std@@IAEPAUVector2D@@V?$_Vector_const_iterator@V?$_Vector_val@UVector2D@@V?$allocator@UVector2D@@@std@@@std@@@1@0PAU2@@Z ; std::vector<Vector2D,std::allocator<Vector2D> >::_Ucopy<std::_Vector_const_iterator<std::_Vector_val<Vector2D,std::allocator<Vector2D> > > >
PUBLIC	?begin@?$vector@UVector2D@@V?$allocator@UVector2D@@@std@@@std@@QBE?AV?$_Vector_const_iterator@V?$_Vector_val@UVector2D@@V?$allocator@UVector2D@@@std@@@std@@@2@XZ ; std::vector<Vector2D,std::allocator<Vector2D> >::begin
PUBLIC	?end@?$vector@UVector2D@@V?$allocator@UVector2D@@@std@@@std@@QBE?AV?$_Vector_const_iterator@V?$_Vector_val@UVector2D@@V?$allocator@UVector2D@@@std@@@std@@@2@XZ ; std::vector<Vector2D,std::allocator<Vector2D> >::end
PUBLIC	?_Buy@?$vector@UVector2D@@V?$allocator@UVector2D@@@std@@@std@@IAE_NI@Z ; std::vector<Vector2D,std::allocator<Vector2D> >::_Buy
PUBLIC	??0?$allocator@UVector2D@@@std@@QAE@ABV01@@Z	; std::allocator<Vector2D>::allocator<Vector2D>
EXTRN	__CxxThrowException@8:PROC
;	COMDAT xdata$x
xdata$x	SEGMENT
__catchsym$??0?$vector@UVector2D@@V?$allocator@UVector2D@@@std@@@std@@QAE@ABV01@@Z$5 DD 040H
	DD	00H
	DD	00H
	DD	FLAT:__catch$??0?$vector@UVector2D@@V?$allocator@UVector2D@@@std@@@std@@QAE@ABV01@@Z$0
__tryblocktable$??0?$vector@UVector2D@@V?$allocator@UVector2D@@@std@@@std@@QAE@ABV01@@Z DD 01H
	DD	02H
	DD	03H
	DD	01H
	DD	FLAT:__catchsym$??0?$vector@UVector2D@@V?$allocator@UVector2D@@@std@@@std@@QAE@ABV01@@Z$5
__unwindtable$??0?$vector@UVector2D@@V?$allocator@UVector2D@@@std@@@std@@QAE@ABV01@@Z DD 0ffffffffH
	DD	FLAT:__unwindfunclet$??0?$vector@UVector2D@@V?$allocator@UVector2D@@@std@@@std@@QAE@ABV01@@Z$2
	DD	00H
	DD	00H
	DD	01H
	DD	FLAT:__unwindfunclet$??0?$vector@UVector2D@@V?$allocator@UVector2D@@@std@@@std@@QAE@ABV01@@Z$3
	DD	00H
	DD	00H
__ehfuncinfo$??0?$vector@UVector2D@@V?$allocator@UVector2D@@@std@@@std@@QAE@ABV01@@Z DD 019930522H
	DD	04H
	DD	FLAT:__unwindtable$??0?$vector@UVector2D@@V?$allocator@UVector2D@@@std@@@std@@QAE@ABV01@@Z
	DD	01H
	DD	FLAT:__tryblocktable$??0?$vector@UVector2D@@V?$allocator@UVector2D@@@std@@@std@@QAE@ABV01@@Z
	DD	2 DUP(00H)
	DD	00H
	DD	01H
; Function compile flags: /Odtp /RTCsu
xdata$x	ENDS
;	COMDAT ??0?$vector@UVector2D@@V?$allocator@UVector2D@@@std@@@std@@QAE@ABV01@@Z
_TEXT	SEGMENT
tv136 = -48						; size = 4
tv179 = -44						; size = 4
tv176 = -40						; size = 4
tv69 = -36						; size = 4
$T134992 = -32						; size = 4
$T134991 = -28						; size = 4
$T134990 = -24						; size = 4
_this$ = -20						; size = 4
__$EHRec$ = -16						; size = 16
__Right$ = 8						; size = 4
??0?$vector@UVector2D@@V?$allocator@UVector2D@@@std@@@std@@QAE@ABV01@@Z PROC ; std::vector<Vector2D,std::allocator<Vector2D> >::vector<Vector2D,std::allocator<Vector2D> >, COMDAT
; _this$ = ecx

; 535  : 		{	// construct by copying _Right

	push	ebp
	mov	ebp, esp
	push	-1
	push	__ehhandler$??0?$vector@UVector2D@@V?$allocator@UVector2D@@@std@@@std@@QAE@ABV01@@Z
	mov	eax, DWORD PTR fs:0
	push	eax
	push	ecx
	sub	esp, 32					; 00000020H
	push	ebx
	push	esi
	push	edi
	mov	eax, -858993460				; ccccccccH
	mov	DWORD PTR [ebp-48], eax
	mov	DWORD PTR [ebp-44], eax
	mov	DWORD PTR [ebp-40], eax
	mov	DWORD PTR [ebp-36], eax
	mov	DWORD PTR [ebp-32], eax
	mov	DWORD PTR [ebp-28], eax
	mov	DWORD PTR [ebp-24], eax
	mov	DWORD PTR [ebp-20], eax
	mov	eax, DWORD PTR ___security_cookie
	xor	eax, ebp
	push	eax
	lea	eax, DWORD PTR __$EHRec$[ebp+4]
	mov	DWORD PTR fs:0, eax
	mov	DWORD PTR __$EHRec$[ebp], esp
	mov	DWORD PTR _this$[ebp], ecx
	mov	eax, DWORD PTR __Right$[ebp]
	add	eax, 16					; 00000010H
	push	ecx
	mov	ecx, esp
	mov	DWORD PTR $T134990[ebp], esp
	push	eax
	call	??0?$allocator@UVector2D@@@std@@QAE@ABV01@@Z ; std::allocator<Vector2D>::allocator<Vector2D>
	mov	ecx, DWORD PTR _this$[ebp]
	call	??0?$_Vector_val@UVector2D@@V?$allocator@UVector2D@@@std@@@std@@QAE@V?$allocator@UVector2D@@@1@@Z ; std::_Vector_val<Vector2D,std::allocator<Vector2D> >::_Vector_val<Vector2D,std::allocator<Vector2D> >
	mov	DWORD PTR __$EHRec$[ebp+12], 0

; 536  : 		if (_Buy(_Right.size()))

	mov	ecx, DWORD PTR __Right$[ebp]
	call	?size@?$vector@UVector2D@@V?$allocator@UVector2D@@@std@@@std@@QBEIXZ ; std::vector<Vector2D,std::allocator<Vector2D> >::size
	push	eax
	mov	ecx, DWORD PTR _this$[ebp]
	call	?_Buy@?$vector@UVector2D@@V?$allocator@UVector2D@@@std@@@std@@IAE_NI@Z ; std::vector<Vector2D,std::allocator<Vector2D> >::_Buy
	movzx	ecx, al
	test	ecx, ecx
	je	SHORT $LN3@vector

; 537  : 			_TRY_BEGIN

	mov	BYTE PTR __$EHRec$[ebp+12], 1

; 538  : 			this->_Mylast = _Ucopy(_Right.begin(), _Right.end(),
; 539  : 				this->_Myfirst);

	mov	edx, DWORD PTR _this$[ebp]
	mov	eax, DWORD PTR [edx+4]
	push	eax
	sub	esp, 12					; 0000000cH
	mov	ecx, esp
	mov	DWORD PTR $T134991[ebp], esp
	push	ecx
	mov	ecx, DWORD PTR __Right$[ebp]
	call	?end@?$vector@UVector2D@@V?$allocator@UVector2D@@@std@@@std@@QBE?AV?$_Vector_const_iterator@V?$_Vector_val@UVector2D@@V?$allocator@UVector2D@@@std@@@std@@@2@XZ ; std::vector<Vector2D,std::allocator<Vector2D> >::end
	mov	DWORD PTR tv69[ebp], eax
	mov	edx, DWORD PTR tv69[ebp]
	mov	DWORD PTR tv176[ebp], edx
	mov	BYTE PTR __$EHRec$[ebp+12], 2
	sub	esp, 12					; 0000000cH
	mov	eax, esp
	mov	DWORD PTR $T134992[ebp], esp
	push	eax
	mov	ecx, DWORD PTR __Right$[ebp]
	call	?begin@?$vector@UVector2D@@V?$allocator@UVector2D@@@std@@@std@@QBE?AV?$_Vector_const_iterator@V?$_Vector_val@UVector2D@@V?$allocator@UVector2D@@@std@@@std@@@2@XZ ; std::vector<Vector2D,std::allocator<Vector2D> >::begin
	mov	DWORD PTR tv179[ebp], eax
	mov	BYTE PTR __$EHRec$[ebp+12], 1
	mov	ecx, DWORD PTR _this$[ebp]
	call	??$_Ucopy@V?$_Vector_const_iterator@V?$_Vector_val@UVector2D@@V?$allocator@UVector2D@@@std@@@std@@@std@@@?$vector@UVector2D@@V?$allocator@UVector2D@@@std@@@std@@IAEPAUVector2D@@V?$_Vector_const_iterator@V?$_Vector_val@UVector2D@@V?$allocator@UVector2D@@@std@@@std@@@1@0PAU2@@Z ; std::vector<Vector2D,std::allocator<Vector2D> >::_Ucopy<std::_Vector_const_iterator<std::_Vector_val<Vector2D,std::allocator<Vector2D> > > >
	mov	DWORD PTR tv136[ebp], eax
	mov	ecx, DWORD PTR _this$[ebp]
	mov	edx, DWORD PTR tv136[ebp]
	mov	DWORD PTR [ecx+8], edx
	jmp	SHORT $LN5@vector
__catch$??0?$vector@UVector2D@@V?$allocator@UVector2D@@@std@@@std@@QAE@ABV01@@Z$0:

; 540  : 			_CATCH_ALL
; 541  : 			_Tidy();

	mov	ecx, DWORD PTR _this$[ebp]
	call	?_Tidy@?$vector@UVector2D@@V?$allocator@UVector2D@@@std@@@std@@IAEXXZ ; std::vector<Vector2D,std::allocator<Vector2D> >::_Tidy

; 542  : 			_RERAISE;

	push	0
	push	0
	call	__CxxThrowException@8

; 543  : 			_CATCH_END

	mov	DWORD PTR __$EHRec$[ebp+12], 0
	mov	eax, $LN3@vector
	ret	0
$LN5@vector:
	mov	DWORD PTR __$EHRec$[ebp+12], 0
$LN3@vector:

; 544  : 		}

	mov	DWORD PTR __$EHRec$[ebp+12], -1
	mov	eax, DWORD PTR _this$[ebp]
$LN4@vector:
	mov	ecx, DWORD PTR __$EHRec$[ebp+4]
	mov	DWORD PTR fs:0, ecx
	pop	ecx
	pop	edi
	pop	esi
	pop	ebx
	add	esp, 48					; 00000030H
	cmp	ebp, esp
	call	__RTC_CheckEsp
	mov	esp, ebp
	pop	ebp
	ret	4
_TEXT	ENDS
;	COMDAT text$x
text$x	SEGMENT
__unwindfunclet$??0?$vector@UVector2D@@V?$allocator@UVector2D@@@std@@@std@@QAE@ABV01@@Z$2:
	mov	ecx, DWORD PTR _this$[ebp]
	jmp	??1?$_Vector_val@UVector2D@@V?$allocator@UVector2D@@@std@@@std@@QAE@XZ ; std::_Vector_val<Vector2D,std::allocator<Vector2D> >::~_Vector_val<Vector2D,std::allocator<Vector2D> >
__unwindfunclet$??0?$vector@UVector2D@@V?$allocator@UVector2D@@@std@@@std@@QAE@ABV01@@Z$3:
	mov	ecx, DWORD PTR $T134991[ebp]
	jmp	??1?$_Vector_const_iterator@V?$_Vector_val@UVector2D@@V?$allocator@UVector2D@@@std@@@std@@@std@@QAE@XZ
__ehhandler$??0?$vector@UVector2D@@V?$allocator@UVector2D@@@std@@@std@@QAE@ABV01@@Z:
	mov	edx, DWORD PTR [esp+8]
	lea	eax, DWORD PTR [edx+12]
	mov	ecx, DWORD PTR [edx-52]
	xor	ecx, eax
	call	@__security_check_cookie@4
	mov	eax, OFFSET __ehfuncinfo$??0?$vector@UVector2D@@V?$allocator@UVector2D@@@std@@@std@@QAE@ABV01@@Z
	jmp	___CxxFrameHandler3
text$x	ENDS
??0?$vector@UVector2D@@V?$allocator@UVector2D@@@std@@@std@@QAE@ABV01@@Z ENDP ; std::vector<Vector2D,std::allocator<Vector2D> >::vector<Vector2D,std::allocator<Vector2D> >
PUBLIC	?_Assign_rv@?$vector@UVector2D@@V?$allocator@UVector2D@@@std@@@std@@QAEX$$QAV12@@Z ; std::vector<Vector2D,std::allocator<Vector2D> >::_Assign_rv
PUBLIC	??$forward@V?$vector@UVector2D@@V?$allocator@UVector2D@@@std@@@std@@@std@@YA$$QAV?$vector@UVector2D@@V?$allocator@UVector2D@@@std@@@0@AAV10@@Z ; std::forward<std::vector<Vector2D,std::allocator<Vector2D> > >
;	COMDAT xdata$x
xdata$x	SEGMENT
__unwindtable$??0?$vector@UVector2D@@V?$allocator@UVector2D@@@std@@@std@@QAE@$$QAV01@@Z DD 0ffffffffH
	DD	FLAT:__unwindfunclet$??0?$vector@UVector2D@@V?$allocator@UVector2D@@@std@@@std@@QAE@$$QAV01@@Z$0
__ehfuncinfo$??0?$vector@UVector2D@@V?$allocator@UVector2D@@@std@@@std@@QAE@$$QAV01@@Z DD 019930522H
	DD	01H
	DD	FLAT:__unwindtable$??0?$vector@UVector2D@@V?$allocator@UVector2D@@@std@@@std@@QAE@$$QAV01@@Z
	DD	2 DUP(00H)
	DD	2 DUP(00H)
	DD	00H
	DD	01H
; Function compile flags: /Odtp /RTCsu
xdata$x	ENDS
;	COMDAT ??0?$vector@UVector2D@@V?$allocator@UVector2D@@@std@@@std@@QAE@$$QAV01@@Z
_TEXT	SEGMENT
$T135012 = -20						; size = 4
_this$ = -16						; size = 4
__$EHRec$ = -12						; size = 12
__Right$ = 8						; size = 4
??0?$vector@UVector2D@@V?$allocator@UVector2D@@@std@@@std@@QAE@$$QAV01@@Z PROC ; std::vector<Vector2D,std::allocator<Vector2D> >::vector<Vector2D,std::allocator<Vector2D> >, COMDAT
; _this$ = ecx

; 595  : 		{	// construct by moving _Right

	push	ebp
	mov	ebp, esp
	push	-1
	push	__ehhandler$??0?$vector@UVector2D@@V?$allocator@UVector2D@@@std@@@std@@QAE@$$QAV01@@Z
	mov	eax, DWORD PTR fs:0
	push	eax
	sub	esp, 8
	mov	DWORD PTR [ebp-20], -858993460		; ccccccccH
	mov	DWORD PTR [ebp-16], -858993460		; ccccccccH
	mov	eax, DWORD PTR ___security_cookie
	xor	eax, ebp
	push	eax
	lea	eax, DWORD PTR __$EHRec$[ebp]
	mov	DWORD PTR fs:0, eax
	mov	DWORD PTR _this$[ebp], ecx
	mov	eax, DWORD PTR __Right$[ebp]
	add	eax, 16					; 00000010H
	push	ecx
	mov	ecx, esp
	mov	DWORD PTR $T135012[ebp], esp
	push	eax
	call	??0?$allocator@UVector2D@@@std@@QAE@ABV01@@Z ; std::allocator<Vector2D>::allocator<Vector2D>
	mov	ecx, DWORD PTR _this$[ebp]
	call	??0?$_Vector_val@UVector2D@@V?$allocator@UVector2D@@@std@@@std@@QAE@V?$allocator@UVector2D@@@1@@Z ; std::_Vector_val<Vector2D,std::allocator<Vector2D> >::_Vector_val<Vector2D,std::allocator<Vector2D> >
	mov	DWORD PTR __$EHRec$[ebp+8], 0

; 596  : 		_Assign_rv(_STD forward<_Myt>(_Right));

	mov	ecx, DWORD PTR __Right$[ebp]
	push	ecx
	call	??$forward@V?$vector@UVector2D@@V?$allocator@UVector2D@@@std@@@std@@@std@@YA$$QAV?$vector@UVector2D@@V?$allocator@UVector2D@@@std@@@0@AAV10@@Z ; std::forward<std::vector<Vector2D,std::allocator<Vector2D> > >
	add	esp, 4
	push	eax
	mov	ecx, DWORD PTR _this$[ebp]
	call	?_Assign_rv@?$vector@UVector2D@@V?$allocator@UVector2D@@@std@@@std@@QAEX$$QAV12@@Z ; std::vector<Vector2D,std::allocator<Vector2D> >::_Assign_rv

; 597  : 		}

	mov	DWORD PTR __$EHRec$[ebp+8], -1
	mov	eax, DWORD PTR _this$[ebp]
	mov	ecx, DWORD PTR __$EHRec$[ebp]
	mov	DWORD PTR fs:0, ecx
	pop	ecx
	add	esp, 20					; 00000014H
	cmp	ebp, esp
	call	__RTC_CheckEsp
	mov	esp, ebp
	pop	ebp
	ret	4
_TEXT	ENDS
;	COMDAT text$x
text$x	SEGMENT
__unwindfunclet$??0?$vector@UVector2D@@V?$allocator@UVector2D@@@std@@@std@@QAE@$$QAV01@@Z$0:
	mov	ecx, DWORD PTR _this$[ebp]
	jmp	??1?$_Vector_val@UVector2D@@V?$allocator@UVector2D@@@std@@@std@@QAE@XZ ; std::_Vector_val<Vector2D,std::allocator<Vector2D> >::~_Vector_val<Vector2D,std::allocator<Vector2D> >
__ehhandler$??0?$vector@UVector2D@@V?$allocator@UVector2D@@@std@@@std@@QAE@$$QAV01@@Z:
	mov	edx, DWORD PTR [esp+8]
	lea	eax, DWORD PTR [edx+12]
	mov	ecx, DWORD PTR [edx-12]
	xor	ecx, eax
	call	@__security_check_cookie@4
	mov	eax, OFFSET __ehfuncinfo$??0?$vector@UVector2D@@V?$allocator@UVector2D@@@std@@@std@@QAE@$$QAV01@@Z
	jmp	___CxxFrameHandler3
text$x	ENDS
??0?$vector@UVector2D@@V?$allocator@UVector2D@@@std@@@std@@QAE@$$QAV01@@Z ENDP ; std::vector<Vector2D,std::allocator<Vector2D> >::vector<Vector2D,std::allocator<Vector2D> >
; Function compile flags: /Odtp /RTCsu
;	COMDAT ??4?$vector@UVector2D@@V?$allocator@UVector2D@@@std@@@std@@QAEAAV01@$$QAV01@@Z
_TEXT	SEGMENT
_this$ = -4						; size = 4
__Right$ = 8						; size = 4
??4?$vector@UVector2D@@V?$allocator@UVector2D@@@std@@@std@@QAEAAV01@$$QAV01@@Z PROC ; std::vector<Vector2D,std::allocator<Vector2D> >::operator=, COMDAT
; _this$ = ecx

; 600  : 		{	// assign by moving _Right

	push	ebp
	mov	ebp, esp
	push	ecx
	mov	DWORD PTR [ebp-4], -858993460		; ccccccccH
	mov	DWORD PTR _this$[ebp], ecx

; 601  : 		_Assign_rv(_STD forward<_Myt>(_Right));

	mov	eax, DWORD PTR __Right$[ebp]
	push	eax
	call	??$forward@V?$vector@UVector2D@@V?$allocator@UVector2D@@@std@@@std@@@std@@YA$$QAV?$vector@UVector2D@@V?$allocator@UVector2D@@@std@@@0@AAV10@@Z ; std::forward<std::vector<Vector2D,std::allocator<Vector2D> > >
	add	esp, 4
	push	eax
	mov	ecx, DWORD PTR _this$[ebp]
	call	?_Assign_rv@?$vector@UVector2D@@V?$allocator@UVector2D@@@std@@@std@@QAEX$$QAV12@@Z ; std::vector<Vector2D,std::allocator<Vector2D> >::_Assign_rv

; 602  : 		return (*this);

	mov	eax, DWORD PTR _this$[ebp]

; 603  : 		}

	add	esp, 4
	cmp	ebp, esp
	call	__RTC_CheckEsp
	mov	esp, ebp
	pop	ebp
	ret	4
??4?$vector@UVector2D@@V?$allocator@UVector2D@@@std@@@std@@QAEAAV01@$$QAV01@@Z ENDP ; std::vector<Vector2D,std::allocator<Vector2D> >::operator=
_TEXT	ENDS
;	COMDAT xdata$x
xdata$x	SEGMENT
__unwindtable$??1?$vector@UVector2D@@V?$allocator@UVector2D@@@std@@@std@@QAE@XZ DD 0ffffffffH
	DD	FLAT:__unwindfunclet$??1?$vector@UVector2D@@V?$allocator@UVector2D@@@std@@@std@@QAE@XZ$0
__ehfuncinfo$??1?$vector@UVector2D@@V?$allocator@UVector2D@@@std@@@std@@QAE@XZ DD 019930522H
	DD	01H
	DD	FLAT:__unwindtable$??1?$vector@UVector2D@@V?$allocator@UVector2D@@@std@@@std@@QAE@XZ
	DD	2 DUP(00H)
	DD	2 DUP(00H)
	DD	00H
	DD	01H
; Function compile flags: /Odtp /RTCsu
xdata$x	ENDS
;	COMDAT ??1?$vector@UVector2D@@V?$allocator@UVector2D@@@std@@@std@@QAE@XZ
_TEXT	SEGMENT
_this$ = -16						; size = 4
__$EHRec$ = -12						; size = 12
??1?$vector@UVector2D@@V?$allocator@UVector2D@@@std@@@std@@QAE@XZ PROC ; std::vector<Vector2D,std::allocator<Vector2D> >::~vector<Vector2D,std::allocator<Vector2D> >, COMDAT
; _this$ = ecx

; 704  : 		{	// destroy the object

	push	ebp
	mov	ebp, esp
	push	-1
	push	__ehhandler$??1?$vector@UVector2D@@V?$allocator@UVector2D@@@std@@@std@@QAE@XZ
	mov	eax, DWORD PTR fs:0
	push	eax
	push	ecx
	mov	DWORD PTR [ebp-16], -858993460		; ccccccccH
	mov	eax, DWORD PTR ___security_cookie
	xor	eax, ebp
	push	eax
	lea	eax, DWORD PTR __$EHRec$[ebp]
	mov	DWORD PTR fs:0, eax
	mov	DWORD PTR _this$[ebp], ecx
	mov	DWORD PTR __$EHRec$[ebp+8], 0

; 705  : 		_Tidy();

	mov	ecx, DWORD PTR _this$[ebp]
	call	?_Tidy@?$vector@UVector2D@@V?$allocator@UVector2D@@@std@@@std@@IAEXXZ ; std::vector<Vector2D,std::allocator<Vector2D> >::_Tidy

; 706  : 		}

	mov	DWORD PTR __$EHRec$[ebp+8], -1
	mov	ecx, DWORD PTR _this$[ebp]
	call	??1?$_Vector_val@UVector2D@@V?$allocator@UVector2D@@@std@@@std@@QAE@XZ ; std::_Vector_val<Vector2D,std::allocator<Vector2D> >::~_Vector_val<Vector2D,std::allocator<Vector2D> >
	mov	ecx, DWORD PTR __$EHRec$[ebp]
	mov	DWORD PTR fs:0, ecx
	pop	ecx
	add	esp, 16					; 00000010H
	cmp	ebp, esp
	call	__RTC_CheckEsp
	mov	esp, ebp
	pop	ebp
	ret	0
_TEXT	ENDS
;	COMDAT text$x
text$x	SEGMENT
__unwindfunclet$??1?$vector@UVector2D@@V?$allocator@UVector2D@@@std@@@std@@QAE@XZ$0:
	mov	ecx, DWORD PTR _this$[ebp]
	jmp	??1?$_Vector_val@UVector2D@@V?$allocator@UVector2D@@@std@@@std@@QAE@XZ ; std::_Vector_val<Vector2D,std::allocator<Vector2D> >::~_Vector_val<Vector2D,std::allocator<Vector2D> >
__ehhandler$??1?$vector@UVector2D@@V?$allocator@UVector2D@@@std@@@std@@QAE@XZ:
	mov	edx, DWORD PTR [esp+8]
	lea	eax, DWORD PTR [edx+12]
	mov	ecx, DWORD PTR [edx-8]
	xor	ecx, eax
	call	@__security_check_cookie@4
	mov	eax, OFFSET __ehfuncinfo$??1?$vector@UVector2D@@V?$allocator@UVector2D@@@std@@@std@@QAE@XZ
	jmp	___CxxFrameHandler3
text$x	ENDS
??1?$vector@UVector2D@@V?$allocator@UVector2D@@@std@@@std@@QAE@XZ ENDP ; std::vector<Vector2D,std::allocator<Vector2D> >::~vector<Vector2D,std::allocator<Vector2D> >
; Function compile flags: /Odtp /RTCsu
;	COMDAT ?size@?$vector@UVector2D@@V?$allocator@UVector2D@@@std@@@std@@QBEIXZ
_TEXT	SEGMENT
_this$ = -4						; size = 4
?size@?$vector@UVector2D@@V?$allocator@UVector2D@@@std@@@std@@QBEIXZ PROC ; std::vector<Vector2D,std::allocator<Vector2D> >::size, COMDAT
; _this$ = ecx

; 878  : 		{	// return length of sequence

	push	ebp
	mov	ebp, esp
	push	ecx
	mov	DWORD PTR [ebp-4], -858993460		; ccccccccH
	mov	DWORD PTR _this$[ebp], ecx

; 879  : 		return (this->_Mylast - this->_Myfirst);

	mov	eax, DWORD PTR _this$[ebp]
	mov	ecx, DWORD PTR _this$[ebp]
	mov	eax, DWORD PTR [eax+8]
	sub	eax, DWORD PTR [ecx+4]
	sar	eax, 4

; 880  : 		}

	mov	esp, ebp
	pop	ebp
	ret	0
?size@?$vector@UVector2D@@V?$allocator@UVector2D@@@std@@@std@@QBEIXZ ENDP ; std::vector<Vector2D,std::allocator<Vector2D> >::size
_TEXT	ENDS
PUBLIC	??_C@_1BO@MEPPHOO@?$AA?$CC?$AAo?$AAu?$AAt?$AA?5?$AAo?$AAf?$AA?5?$AAr?$AAa?$AAn?$AAg?$AAe?$AA?$CC?$AA?$AA@ ; `string'
PUBLIC	??_C@_1KC@ILGGEGM@?$AAs?$AAt?$AAd?$AA?3?$AA?3?$AAv?$AAe?$AAc?$AAt?$AAo?$AAr?$AA?$DM?$AAs?$AAt?$AAr?$AAu?$AAc?$AAt?$AA?5?$AAV?$AAe?$AAc?$AAt?$AAo?$AAr?$AA2?$AAD?$AA?0?$AAc?$AAl?$AAa?$AAs@ ; `string'
PUBLIC	??_C@_1FG@IBPIFFN@?$AA?$CC?$AAS?$AAt?$AAa?$AAn?$AAd?$AAa?$AAr?$AAd?$AA?5?$AAC?$AA?$CL?$AA?$CL?$AA?5?$AAL?$AAi?$AAb?$AAr?$AAa?$AAr?$AAi?$AAe?$AAs?$AA?5?$AAO?$AAu?$AAt?$AA?5?$AAo?$AAf?$AA?5?$AAR@ ; `string'
PUBLIC	??_C@_0CE@OFMIGAMM@Standard?5C?$CL?$CL?5Libraries?5Out?5of?5Ra@ ; `string'
PUBLIC	??_C@_1DM@LHGCHCBA@?$AAv?$AAe?$AAc?$AAt?$AAo?$AAr?$AA?5?$AAs?$AAu?$AAb?$AAs?$AAc?$AAr?$AAi?$AAp?$AAt?$AA?5?$AAo?$AAu?$AAt?$AA?5?$AAo?$AAf?$AA?5?$AAr?$AAa?$AAn?$AAg?$AAe?$AA?$AA@ ; `string'
PUBLIC	??_C@_1IM@MKOOKKBK@?$AAc?$AA?3?$AA?2?$AAP?$AAr?$AAo?$AAg?$AAr?$AAa?$AAm?$AA?5?$AAF?$AAi?$AAl?$AAe?$AAs?$AA?5?$AA?$CI?$AAx?$AA8?$AA6?$AA?$CJ?$AA?2?$AAM?$AAi?$AAc?$AAr?$AAo?$AAs?$AAo?$AAf?$AAt@ ; `string'
EXTRN	__invalid_parameter:PROC
EXTRN	__CrtDbgReportW:PROC
;	COMDAT ??_C@_1BO@MEPPHOO@?$AA?$CC?$AAo?$AAu?$AAt?$AA?5?$AAo?$AAf?$AA?5?$AAr?$AAa?$AAn?$AAg?$AAe?$AA?$CC?$AA?$AA@
CONST	SEGMENT
??_C@_1BO@MEPPHOO@?$AA?$CC?$AAo?$AAu?$AAt?$AA?5?$AAo?$AAf?$AA?5?$AAr?$AAa?$AAn?$AAg?$AAe?$AA?$CC?$AA?$AA@ DB '"'
	DB	00H, 'o', 00H, 'u', 00H, 't', 00H, ' ', 00H, 'o', 00H, 'f', 00H
	DB	' ', 00H, 'r', 00H, 'a', 00H, 'n', 00H, 'g', 00H, 'e', 00H, '"'
	DB	00H, 00H, 00H				; `string'
CONST	ENDS
;	COMDAT ??_C@_1KC@ILGGEGM@?$AAs?$AAt?$AAd?$AA?3?$AA?3?$AAv?$AAe?$AAc?$AAt?$AAo?$AAr?$AA?$DM?$AAs?$AAt?$AAr?$AAu?$AAc?$AAt?$AA?5?$AAV?$AAe?$AAc?$AAt?$AAo?$AAr?$AA2?$AAD?$AA?0?$AAc?$AAl?$AAa?$AAs@
CONST	SEGMENT
??_C@_1KC@ILGGEGM@?$AAs?$AAt?$AAd?$AA?3?$AA?3?$AAv?$AAe?$AAc?$AAt?$AAo?$AAr?$AA?$DM?$AAs?$AAt?$AAr?$AAu?$AAc?$AAt?$AA?5?$AAV?$AAe?$AAc?$AAt?$AAo?$AAr?$AA2?$AAD?$AA?0?$AAc?$AAl?$AAa?$AAs@ DB 's'
	DB	00H, 't', 00H, 'd', 00H, ':', 00H, ':', 00H, 'v', 00H, 'e', 00H
	DB	'c', 00H, 't', 00H, 'o', 00H, 'r', 00H, '<', 00H, 's', 00H, 't'
	DB	00H, 'r', 00H, 'u', 00H, 'c', 00H, 't', 00H, ' ', 00H, 'V', 00H
	DB	'e', 00H, 'c', 00H, 't', 00H, 'o', 00H, 'r', 00H, '2', 00H, 'D'
	DB	00H, ',', 00H, 'c', 00H, 'l', 00H, 'a', 00H, 's', 00H, 's', 00H
	DB	' ', 00H, 's', 00H, 't', 00H, 'd', 00H, ':', 00H, ':', 00H, 'a'
	DB	00H, 'l', 00H, 'l', 00H, 'o', 00H, 'c', 00H, 'a', 00H, 't', 00H
	DB	'o', 00H, 'r', 00H, '<', 00H, 's', 00H, 't', 00H, 'r', 00H, 'u'
	DB	00H, 'c', 00H, 't', 00H, ' ', 00H, 'V', 00H, 'e', 00H, 'c', 00H
	DB	't', 00H, 'o', 00H, 'r', 00H, '2', 00H, 'D', 00H, '>', 00H, ' '
	DB	00H, '>', 00H, ':', 00H, ':', 00H, 'o', 00H, 'p', 00H, 'e', 00H
	DB	'r', 00H, 'a', 00H, 't', 00H, 'o', 00H, 'r', 00H, ' ', 00H, '['
	DB	00H, ']', 00H, 00H, 00H			; `string'
CONST	ENDS
;	COMDAT ??_C@_1FG@IBPIFFN@?$AA?$CC?$AAS?$AAt?$AAa?$AAn?$AAd?$AAa?$AAr?$AAd?$AA?5?$AAC?$AA?$CL?$AA?$CL?$AA?5?$AAL?$AAi?$AAb?$AAr?$AAa?$AAr?$AAi?$AAe?$AAs?$AA?5?$AAO?$AAu?$AAt?$AA?5?$AAo?$AAf?$AA?5?$AAR@
CONST	SEGMENT
??_C@_1FG@IBPIFFN@?$AA?$CC?$AAS?$AAt?$AAa?$AAn?$AAd?$AAa?$AAr?$AAd?$AA?5?$AAC?$AA?$CL?$AA?$CL?$AA?5?$AAL?$AAi?$AAb?$AAr?$AAa?$AAr?$AAi?$AAe?$AAs?$AA?5?$AAO?$AAu?$AAt?$AA?5?$AAo?$AAf?$AA?5?$AAR@ DB '"'
	DB	00H, 'S', 00H, 't', 00H, 'a', 00H, 'n', 00H, 'd', 00H, 'a', 00H
	DB	'r', 00H, 'd', 00H, ' ', 00H, 'C', 00H, '+', 00H, '+', 00H, ' '
	DB	00H, 'L', 00H, 'i', 00H, 'b', 00H, 'r', 00H, 'a', 00H, 'r', 00H
	DB	'i', 00H, 'e', 00H, 's', 00H, ' ', 00H, 'O', 00H, 'u', 00H, 't'
	DB	00H, ' ', 00H, 'o', 00H, 'f', 00H, ' ', 00H, 'R', 00H, 'a', 00H
	DB	'n', 00H, 'g', 00H, 'e', 00H, '"', 00H, ' ', 00H, '&', 00H, '&'
	DB	00H, ' ', 00H, '0', 00H, 00H, 00H		; `string'
CONST	ENDS
;	COMDAT ??_C@_0CE@OFMIGAMM@Standard?5C?$CL?$CL?5Libraries?5Out?5of?5Ra@
CONST	SEGMENT
??_C@_0CE@OFMIGAMM@Standard?5C?$CL?$CL?5Libraries?5Out?5of?5Ra@ DB 'Stand'
	DB	'ard C++ Libraries Out of Range', 00H	; `string'
CONST	ENDS
;	COMDAT ??_C@_1DM@LHGCHCBA@?$AAv?$AAe?$AAc?$AAt?$AAo?$AAr?$AA?5?$AAs?$AAu?$AAb?$AAs?$AAc?$AAr?$AAi?$AAp?$AAt?$AA?5?$AAo?$AAu?$AAt?$AA?5?$AAo?$AAf?$AA?5?$AAr?$AAa?$AAn?$AAg?$AAe?$AA?$AA@
CONST	SEGMENT
??_C@_1DM@LHGCHCBA@?$AAv?$AAe?$AAc?$AAt?$AAo?$AAr?$AA?5?$AAs?$AAu?$AAb?$AAs?$AAc?$AAr?$AAi?$AAp?$AAt?$AA?5?$AAo?$AAu?$AAt?$AA?5?$AAo?$AAf?$AA?5?$AAr?$AAa?$AAn?$AAg?$AAe?$AA?$AA@ DB 'v'
	DB	00H, 'e', 00H, 'c', 00H, 't', 00H, 'o', 00H, 'r', 00H, ' ', 00H
	DB	's', 00H, 'u', 00H, 'b', 00H, 's', 00H, 'c', 00H, 'r', 00H, 'i'
	DB	00H, 'p', 00H, 't', 00H, ' ', 00H, 'o', 00H, 'u', 00H, 't', 00H
	DB	' ', 00H, 'o', 00H, 'f', 00H, ' ', 00H, 'r', 00H, 'a', 00H, 'n'
	DB	00H, 'g', 00H, 'e', 00H, 00H, 00H		; `string'
CONST	ENDS
;	COMDAT ??_C@_1IM@MKOOKKBK@?$AAc?$AA?3?$AA?2?$AAP?$AAr?$AAo?$AAg?$AAr?$AAa?$AAm?$AA?5?$AAF?$AAi?$AAl?$AAe?$AAs?$AA?5?$AA?$CI?$AAx?$AA8?$AA6?$AA?$CJ?$AA?2?$AAM?$AAi?$AAc?$AAr?$AAo?$AAs?$AAo?$AAf?$AAt@
CONST	SEGMENT
??_C@_1IM@MKOOKKBK@?$AAc?$AA?3?$AA?2?$AAP?$AAr?$AAo?$AAg?$AAr?$AAa?$AAm?$AA?5?$AAF?$AAi?$AAl?$AAe?$AAs?$AA?5?$AA?$CI?$AAx?$AA8?$AA6?$AA?$CJ?$AA?2?$AAM?$AAi?$AAc?$AAr?$AAo?$AAs?$AAo?$AAf?$AAt@ DB 'c'
	DB	00H, ':', 00H, '\', 00H, 'P', 00H, 'r', 00H, 'o', 00H, 'g', 00H
	DB	'r', 00H, 'a', 00H, 'm', 00H, ' ', 00H, 'F', 00H, 'i', 00H, 'l'
	DB	00H, 'e', 00H, 's', 00H, ' ', 00H, '(', 00H, 'x', 00H, '8', 00H
	DB	'6', 00H, ')', 00H, '\', 00H, 'M', 00H, 'i', 00H, 'c', 00H, 'r'
	DB	00H, 'o', 00H, 's', 00H, 'o', 00H, 'f', 00H, 't', 00H, ' ', 00H
	DB	'V', 00H, 'i', 00H, 's', 00H, 'u', 00H, 'a', 00H, 'l', 00H, ' '
	DB	00H, 'S', 00H, 't', 00H, 'u', 00H, 'd', 00H, 'i', 00H, 'o', 00H
	DB	' ', 00H, '1', 00H, '0', 00H, '.', 00H, '0', 00H, '\', 00H, 'V'
	DB	00H, 'C', 00H, '\', 00H, 'i', 00H, 'n', 00H, 'c', 00H, 'l', 00H
	DB	'u', 00H, 'd', 00H, 'e', 00H, '\', 00H, 'v', 00H, 'e', 00H, 'c'
	DB	00H, 't', 00H, 'o', 00H, 'r', 00H, 00H, 00H	; `string'
; Function compile flags: /Odtp /RTCsu
CONST	ENDS
;	COMDAT ??A?$vector@UVector2D@@V?$allocator@UVector2D@@@std@@@std@@QBEABUVector2D@@I@Z
_TEXT	SEGMENT
_this$ = -4						; size = 4
__Pos$ = 8						; size = 4
??A?$vector@UVector2D@@V?$allocator@UVector2D@@@std@@@std@@QBEABUVector2D@@I@Z PROC ; std::vector<Vector2D,std::allocator<Vector2D> >::operator[], COMDAT
; _this$ = ecx

; 912  : 		{	// subscript nonmutable sequence

	push	ebp
	mov	ebp, esp
	push	ecx
	mov	DWORD PTR [ebp-4], -858993460		; ccccccccH
	mov	DWORD PTR _this$[ebp], ecx

; 913  :  #if _ITERATOR_DEBUG_LEVEL == 2
; 914  : 		if (size() <= _Pos)

	mov	ecx, DWORD PTR _this$[ebp]
	call	?size@?$vector@UVector2D@@V?$allocator@UVector2D@@@std@@@std@@QBEIXZ ; std::vector<Vector2D,std::allocator<Vector2D> >::size
	cmp	eax, DWORD PTR __Pos$[ebp]
	ja	SHORT $LN1@operator@2

; 915  : 			{	// report error
; 916  : 			_DEBUG_ERROR("vector subscript out of range");

	push	916					; 00000394H
	push	OFFSET ??_C@_1IM@MKOOKKBK@?$AAc?$AA?3?$AA?2?$AAP?$AAr?$AAo?$AAg?$AAr?$AAa?$AAm?$AA?5?$AAF?$AAi?$AAl?$AAe?$AAs?$AA?5?$AA?$CI?$AAx?$AA8?$AA6?$AA?$CJ?$AA?2?$AAM?$AAi?$AAc?$AAr?$AAo?$AAs?$AAo?$AAf?$AAt@
	push	OFFSET ??_C@_1DM@LHGCHCBA@?$AAv?$AAe?$AAc?$AAt?$AAo?$AAr?$AA?5?$AAs?$AAu?$AAb?$AAs?$AAc?$AAr?$AAi?$AAp?$AAt?$AA?5?$AAo?$AAu?$AAt?$AA?5?$AAo?$AAf?$AA?5?$AAr?$AAa?$AAn?$AAg?$AAe?$AA?$AA@
	call	?_Debug_message@std@@YAXPB_W0I@Z	; std::_Debug_message
	add	esp, 12					; 0000000cH

; 917  : 			_SCL_SECURE_OUT_OF_RANGE;

	mov	eax, OFFSET ??_C@_0CE@OFMIGAMM@Standard?5C?$CL?$CL?5Libraries?5Out?5of?5Ra@
	test	eax, eax
	je	SHORT $LN4@operator@2
	xor	ecx, ecx
	jne	SHORT $LN5@operator@2
$LN4@operator@2:
	push	OFFSET ??_C@_1FG@IBPIFFN@?$AA?$CC?$AAS?$AAt?$AAa?$AAn?$AAd?$AAa?$AAr?$AAd?$AA?5?$AAC?$AA?$CL?$AA?$CL?$AA?5?$AAL?$AAi?$AAb?$AAr?$AAa?$AAr?$AAi?$AAe?$AAs?$AA?5?$AAO?$AAu?$AAt?$AA?5?$AAo?$AAf?$AA?5?$AAR@
	push	0
	push	917					; 00000395H
	push	OFFSET ??_C@_1IM@MKOOKKBK@?$AAc?$AA?3?$AA?2?$AAP?$AAr?$AAo?$AAg?$AAr?$AAa?$AAm?$AA?5?$AAF?$AAi?$AAl?$AAe?$AAs?$AA?5?$AA?$CI?$AAx?$AA8?$AA6?$AA?$CJ?$AA?2?$AAM?$AAi?$AAc?$AAr?$AAo?$AAs?$AAo?$AAf?$AAt@
	push	2
	call	__CrtDbgReportW
	add	esp, 20					; 00000014H
	cmp	eax, 1
	jne	SHORT $LN5@operator@2
	int	3
$LN5@operator@2:
	push	0
	push	917					; 00000395H
	push	OFFSET ??_C@_1IM@MKOOKKBK@?$AAc?$AA?3?$AA?2?$AAP?$AAr?$AAo?$AAg?$AAr?$AAa?$AAm?$AA?5?$AAF?$AAi?$AAl?$AAe?$AAs?$AA?5?$AA?$CI?$AAx?$AA8?$AA6?$AA?$CJ?$AA?2?$AAM?$AAi?$AAc?$AAr?$AAo?$AAs?$AAo?$AAf?$AAt@
	push	OFFSET ??_C@_1KC@ILGGEGM@?$AAs?$AAt?$AAd?$AA?3?$AA?3?$AAv?$AAe?$AAc?$AAt?$AAo?$AAr?$AA?$DM?$AAs?$AAt?$AAr?$AAu?$AAc?$AAt?$AA?5?$AAV?$AAe?$AAc?$AAt?$AAo?$AAr?$AA2?$AAD?$AA?0?$AAc?$AAl?$AAa?$AAs@
	push	OFFSET ??_C@_1BO@MEPPHOO@?$AA?$CC?$AAo?$AAu?$AAt?$AA?5?$AAo?$AAf?$AA?5?$AAr?$AAa?$AAn?$AAg?$AAe?$AA?$CC?$AA?$AA@
	call	__invalid_parameter
	add	esp, 20					; 00000014H
$LN1@operator@2:

; 918  : 			}
; 919  : 
; 920  :  #elif _ITERATOR_DEBUG_LEVEL == 1
; 921  : 		_SCL_SECURE_VALIDATE_RANGE(_Pos < size());
; 922  :  #endif /* _ITERATOR_DEBUG_LEVEL */
; 923  : 
; 924  : 		return (*(this->_Myfirst + _Pos));

	mov	eax, DWORD PTR __Pos$[ebp]
	shl	eax, 4
	mov	ecx, DWORD PTR _this$[ebp]
	add	eax, DWORD PTR [ecx+4]

; 925  : 		}

	add	esp, 4
	cmp	ebp, esp
	call	__RTC_CheckEsp
	mov	esp, ebp
	pop	ebp
	ret	4
??A?$vector@UVector2D@@V?$allocator@UVector2D@@@std@@@std@@QBEABUVector2D@@I@Z ENDP ; std::vector<Vector2D,std::allocator<Vector2D> >::operator[]
; Function compile flags: /Odtp /RTCsu
_TEXT	ENDS
;	COMDAT ??A?$vector@UVector2D@@V?$allocator@UVector2D@@@std@@@std@@QAEAAUVector2D@@I@Z
_TEXT	SEGMENT
_this$ = -4						; size = 4
__Pos$ = 8						; size = 4
??A?$vector@UVector2D@@V?$allocator@UVector2D@@@std@@@std@@QAEAAUVector2D@@I@Z PROC ; std::vector<Vector2D,std::allocator<Vector2D> >::operator[], COMDAT
; _this$ = ecx

; 928  : 		{	// subscript mutable sequence

	push	ebp
	mov	ebp, esp
	push	ecx
	mov	DWORD PTR [ebp-4], -858993460		; ccccccccH
	mov	DWORD PTR _this$[ebp], ecx

; 929  :  #if _ITERATOR_DEBUG_LEVEL == 2
; 930  : 		if (size() <= _Pos)

	mov	ecx, DWORD PTR _this$[ebp]
	call	?size@?$vector@UVector2D@@V?$allocator@UVector2D@@@std@@@std@@QBEIXZ ; std::vector<Vector2D,std::allocator<Vector2D> >::size
	cmp	eax, DWORD PTR __Pos$[ebp]
	ja	SHORT $LN1@operator@3

; 931  : 			{	// report error
; 932  : 			_DEBUG_ERROR("vector subscript out of range");

	push	932					; 000003a4H
	push	OFFSET ??_C@_1IM@MKOOKKBK@?$AAc?$AA?3?$AA?2?$AAP?$AAr?$AAo?$AAg?$AAr?$AAa?$AAm?$AA?5?$AAF?$AAi?$AAl?$AAe?$AAs?$AA?5?$AA?$CI?$AAx?$AA8?$AA6?$AA?$CJ?$AA?2?$AAM?$AAi?$AAc?$AAr?$AAo?$AAs?$AAo?$AAf?$AAt@
	push	OFFSET ??_C@_1DM@LHGCHCBA@?$AAv?$AAe?$AAc?$AAt?$AAo?$AAr?$AA?5?$AAs?$AAu?$AAb?$AAs?$AAc?$AAr?$AAi?$AAp?$AAt?$AA?5?$AAo?$AAu?$AAt?$AA?5?$AAo?$AAf?$AA?5?$AAr?$AAa?$AAn?$AAg?$AAe?$AA?$AA@
	call	?_Debug_message@std@@YAXPB_W0I@Z	; std::_Debug_message
	add	esp, 12					; 0000000cH

; 933  : 			_SCL_SECURE_OUT_OF_RANGE;

	mov	eax, OFFSET ??_C@_0CE@OFMIGAMM@Standard?5C?$CL?$CL?5Libraries?5Out?5of?5Ra@
	test	eax, eax
	je	SHORT $LN4@operator@3
	xor	ecx, ecx
	jne	SHORT $LN5@operator@3
$LN4@operator@3:
	push	OFFSET ??_C@_1FG@IBPIFFN@?$AA?$CC?$AAS?$AAt?$AAa?$AAn?$AAd?$AAa?$AAr?$AAd?$AA?5?$AAC?$AA?$CL?$AA?$CL?$AA?5?$AAL?$AAi?$AAb?$AAr?$AAa?$AAr?$AAi?$AAe?$AAs?$AA?5?$AAO?$AAu?$AAt?$AA?5?$AAo?$AAf?$AA?5?$AAR@
	push	0
	push	933					; 000003a5H
	push	OFFSET ??_C@_1IM@MKOOKKBK@?$AAc?$AA?3?$AA?2?$AAP?$AAr?$AAo?$AAg?$AAr?$AAa?$AAm?$AA?5?$AAF?$AAi?$AAl?$AAe?$AAs?$AA?5?$AA?$CI?$AAx?$AA8?$AA6?$AA?$CJ?$AA?2?$AAM?$AAi?$AAc?$AAr?$AAo?$AAs?$AAo?$AAf?$AAt@
	push	2
	call	__CrtDbgReportW
	add	esp, 20					; 00000014H
	cmp	eax, 1
	jne	SHORT $LN5@operator@3
	int	3
$LN5@operator@3:
	push	0
	push	933					; 000003a5H
	push	OFFSET ??_C@_1IM@MKOOKKBK@?$AAc?$AA?3?$AA?2?$AAP?$AAr?$AAo?$AAg?$AAr?$AAa?$AAm?$AA?5?$AAF?$AAi?$AAl?$AAe?$AAs?$AA?5?$AA?$CI?$AAx?$AA8?$AA6?$AA?$CJ?$AA?2?$AAM?$AAi?$AAc?$AAr?$AAo?$AAs?$AAo?$AAf?$AAt@
	push	OFFSET ??_C@_1KC@ILGGEGM@?$AAs?$AAt?$AAd?$AA?3?$AA?3?$AAv?$AAe?$AAc?$AAt?$AAo?$AAr?$AA?$DM?$AAs?$AAt?$AAr?$AAu?$AAc?$AAt?$AA?5?$AAV?$AAe?$AAc?$AAt?$AAo?$AAr?$AA2?$AAD?$AA?0?$AAc?$AAl?$AAa?$AAs@
	push	OFFSET ??_C@_1BO@MEPPHOO@?$AA?$CC?$AAo?$AAu?$AAt?$AA?5?$AAo?$AAf?$AA?5?$AAr?$AAa?$AAn?$AAg?$AAe?$AA?$CC?$AA?$AA@
	call	__invalid_parameter
	add	esp, 20					; 00000014H
$LN1@operator@3:

; 934  : 			}
; 935  : 
; 936  :  #elif _ITERATOR_DEBUG_LEVEL == 1
; 937  : 		_SCL_SECURE_VALIDATE_RANGE(_Pos < size());
; 938  :  #endif /* _ITERATOR_DEBUG_LEVEL */
; 939  : 
; 940  : 		return (*(this->_Myfirst + _Pos));

	mov	eax, DWORD PTR __Pos$[ebp]
	shl	eax, 4
	mov	ecx, DWORD PTR _this$[ebp]
	add	eax, DWORD PTR [ecx+4]

; 941  : 		}

	add	esp, 4
	cmp	ebp, esp
	call	__RTC_CheckEsp
	mov	esp, ebp
	pop	ebp
	ret	4
??A?$vector@UVector2D@@V?$allocator@UVector2D@@@std@@@std@@QAEAAUVector2D@@I@Z ENDP ; std::vector<Vector2D,std::allocator<Vector2D> >::operator[]
_TEXT	ENDS
PUBLIC	??$_Cons_val@V?$allocator@UVector2D@@@std@@UVector2D@@ABU3@@std@@YAXAAV?$allocator@UVector2D@@@0@PAUVector2D@@ABU2@@Z ; std::_Cons_val<std::allocator<Vector2D>,Vector2D,Vector2D const &>
PUBLIC	??$_Cons_val@V?$allocator@UVector2D@@@std@@UVector2D@@AAU3@@std@@YAXAAV?$allocator@UVector2D@@@0@PAUVector2D@@AAU2@@Z ; std::_Cons_val<std::allocator<Vector2D>,Vector2D,Vector2D &>
PUBLIC	?_Orphan_range@?$vector@UVector2D@@V?$allocator@UVector2D@@@std@@@std@@IBEXPAUVector2D@@0@Z ; std::vector<Vector2D,std::allocator<Vector2D> >::_Orphan_range
PUBLIC	?_Reserve@?$vector@UVector2D@@V?$allocator@UVector2D@@@std@@@std@@IAEXI@Z ; std::vector<Vector2D,std::allocator<Vector2D> >::_Reserve
PUBLIC	?_Inside@?$vector@UVector2D@@V?$allocator@UVector2D@@@std@@@std@@IBE_NPBUVector2D@@@Z ; std::vector<Vector2D,std::allocator<Vector2D> >::_Inside
PUBLIC	??$addressof@$$CBUVector2D@@@std@@YAPBUVector2D@@ABU1@@Z ; std::addressof<Vector2D const >
; Function compile flags: /Odtp /RTCsu
;	COMDAT ?push_back@?$vector@UVector2D@@V?$allocator@UVector2D@@@std@@@std@@QAEXABUVector2D@@@Z
_TEXT	SEGMENT
__Idx$130186 = -8					; size = 4
_this$ = -4						; size = 4
__Val$ = 8						; size = 4
?push_back@?$vector@UVector2D@@V?$allocator@UVector2D@@@std@@@std@@QAEXABUVector2D@@@Z PROC ; std::vector<Vector2D,std::allocator<Vector2D> >::push_back, COMDAT
; _this$ = ecx

; 976  : 		{	// insert element at end

	push	ebp
	mov	ebp, esp
	sub	esp, 8
	mov	DWORD PTR [ebp-8], -858993460		; ccccccccH
	mov	DWORD PTR [ebp-4], -858993460		; ccccccccH
	mov	DWORD PTR _this$[ebp], ecx

; 977  : 		if (_Inside(_STD addressof(_Val)))

	mov	eax, DWORD PTR __Val$[ebp]
	push	eax
	call	??$addressof@$$CBUVector2D@@@std@@YAPBUVector2D@@ABU1@@Z ; std::addressof<Vector2D const >
	add	esp, 4
	push	eax
	mov	ecx, DWORD PTR _this$[ebp]
	call	?_Inside@?$vector@UVector2D@@V?$allocator@UVector2D@@@std@@@std@@IBE_NPBUVector2D@@@Z ; std::vector<Vector2D,std::allocator<Vector2D> >::_Inside
	movzx	ecx, al
	test	ecx, ecx
	je	SHORT $LN4@push_back

; 978  : 			{	// push back an element
; 979  : 			size_type _Idx = _STD addressof(_Val) - this->_Myfirst;

	mov	edx, DWORD PTR __Val$[ebp]
	push	edx
	call	??$addressof@$$CBUVector2D@@@std@@YAPBUVector2D@@ABU1@@Z ; std::addressof<Vector2D const >
	add	esp, 4
	mov	ecx, DWORD PTR _this$[ebp]
	sub	eax, DWORD PTR [ecx+4]
	sar	eax, 4
	mov	DWORD PTR __Idx$130186[ebp], eax

; 980  : 			if (this->_Mylast == this->_Myend)

	mov	edx, DWORD PTR _this$[ebp]
	mov	eax, DWORD PTR _this$[ebp]
	mov	ecx, DWORD PTR [edx+8]
	cmp	ecx, DWORD PTR [eax+12]
	jne	SHORT $LN3@push_back

; 981  : 				_Reserve(1);

	push	1
	mov	ecx, DWORD PTR _this$[ebp]
	call	?_Reserve@?$vector@UVector2D@@V?$allocator@UVector2D@@@std@@@std@@IAEXI@Z ; std::vector<Vector2D,std::allocator<Vector2D> >::_Reserve
$LN3@push_back:

; 982  : 			_Orphan_range(this->_Mylast, this->_Mylast);

	mov	edx, DWORD PTR _this$[ebp]
	mov	eax, DWORD PTR [edx+8]
	push	eax
	mov	ecx, DWORD PTR _this$[ebp]
	mov	edx, DWORD PTR [ecx+8]
	push	edx
	mov	ecx, DWORD PTR _this$[ebp]
	call	?_Orphan_range@?$vector@UVector2D@@V?$allocator@UVector2D@@@std@@@std@@IBEXPAUVector2D@@0@Z ; std::vector<Vector2D,std::allocator<Vector2D> >::_Orphan_range

; 983  : 			_Cons_val(this->_Alval,
; 984  : 				this->_Mylast,
; 985  : 				this->_Myfirst[_Idx]);

	mov	eax, DWORD PTR __Idx$130186[ebp]
	shl	eax, 4
	mov	ecx, DWORD PTR _this$[ebp]
	add	eax, DWORD PTR [ecx+4]
	push	eax
	mov	edx, DWORD PTR _this$[ebp]
	mov	eax, DWORD PTR [edx+8]
	push	eax
	mov	ecx, DWORD PTR _this$[ebp]
	add	ecx, 16					; 00000010H
	push	ecx
	call	??$_Cons_val@V?$allocator@UVector2D@@@std@@UVector2D@@AAU3@@std@@YAXAAV?$allocator@UVector2D@@@0@PAUVector2D@@AAU2@@Z ; std::_Cons_val<std::allocator<Vector2D>,Vector2D,Vector2D &>
	add	esp, 12					; 0000000cH

; 986  : 			++this->_Mylast;

	mov	edx, DWORD PTR _this$[ebp]
	mov	eax, DWORD PTR [edx+8]
	add	eax, 16					; 00000010H
	mov	ecx, DWORD PTR _this$[ebp]
	mov	DWORD PTR [ecx+8], eax

; 987  : 			}
; 988  : 		else

	jmp	SHORT $LN5@push_back
$LN4@push_back:

; 989  : 			{	// push back a non-element
; 990  : 			if (this->_Mylast == this->_Myend)

	mov	edx, DWORD PTR _this$[ebp]
	mov	eax, DWORD PTR _this$[ebp]
	mov	ecx, DWORD PTR [edx+8]
	cmp	ecx, DWORD PTR [eax+12]
	jne	SHORT $LN1@push_back

; 991  : 				_Reserve(1);

	push	1
	mov	ecx, DWORD PTR _this$[ebp]
	call	?_Reserve@?$vector@UVector2D@@V?$allocator@UVector2D@@@std@@@std@@IAEXI@Z ; std::vector<Vector2D,std::allocator<Vector2D> >::_Reserve
$LN1@push_back:

; 992  : 			_Orphan_range(this->_Mylast, this->_Mylast);

	mov	edx, DWORD PTR _this$[ebp]
	mov	eax, DWORD PTR [edx+8]
	push	eax
	mov	ecx, DWORD PTR _this$[ebp]
	mov	edx, DWORD PTR [ecx+8]
	push	edx
	mov	ecx, DWORD PTR _this$[ebp]
	call	?_Orphan_range@?$vector@UVector2D@@V?$allocator@UVector2D@@@std@@@std@@IBEXPAUVector2D@@0@Z ; std::vector<Vector2D,std::allocator<Vector2D> >::_Orphan_range

; 993  : 			_Cons_val(this->_Alval,
; 994  : 				this->_Mylast,
; 995  : 				_Val);

	mov	eax, DWORD PTR __Val$[ebp]
	push	eax
	mov	ecx, DWORD PTR _this$[ebp]
	mov	edx, DWORD PTR [ecx+8]
	push	edx
	mov	eax, DWORD PTR _this$[ebp]
	add	eax, 16					; 00000010H
	push	eax
	call	??$_Cons_val@V?$allocator@UVector2D@@@std@@UVector2D@@ABU3@@std@@YAXAAV?$allocator@UVector2D@@@0@PAUVector2D@@ABU2@@Z ; std::_Cons_val<std::allocator<Vector2D>,Vector2D,Vector2D const &>
	add	esp, 12					; 0000000cH

; 996  : 			++this->_Mylast;

	mov	ecx, DWORD PTR _this$[ebp]
	mov	edx, DWORD PTR [ecx+8]
	add	edx, 16					; 00000010H
	mov	eax, DWORD PTR _this$[ebp]
	mov	DWORD PTR [eax+8], edx
$LN5@push_back:

; 997  : 			}
; 998  : 		}

	add	esp, 8
	cmp	ebp, esp
	call	__RTC_CheckEsp
	mov	esp, ebp
	pop	ebp
	ret	4
?push_back@?$vector@UVector2D@@V?$allocator@UVector2D@@@std@@@std@@QAEXABUVector2D@@@Z ENDP ; std::vector<Vector2D,std::allocator<Vector2D> >::push_back
_TEXT	ENDS
PUBLIC	??0?$_List_val@UGraveRecord@GraveMarkers@@V?$allocator@UGraveRecord@GraveMarkers@@@std@@@std@@QAE@V?$allocator@UGraveRecord@GraveMarkers@@@1@@Z ; std::_List_val<GraveMarkers::GraveRecord,std::allocator<GraveMarkers::GraveRecord> >::_List_val<GraveMarkers::GraveRecord,std::allocator<GraveMarkers::GraveRecord> >
PUBLIC	??0?$allocator@UGraveRecord@GraveMarkers@@@std@@QAE@XZ ; std::allocator<GraveMarkers::GraveRecord>::allocator<GraveMarkers::GraveRecord>
; Function compile flags: /Odtp /RTCsu
; File c:\program files (x86)\microsoft visual studio 10.0\vc\include\list
;	COMDAT ??0?$list@UGraveRecord@GraveMarkers@@V?$allocator@UGraveRecord@GraveMarkers@@@std@@@std@@QAE@XZ
_TEXT	SEGMENT
$T135045 = -8						; size = 4
_this$ = -4						; size = 4
??0?$list@UGraveRecord@GraveMarkers@@V?$allocator@UGraveRecord@GraveMarkers@@@std@@@std@@QAE@XZ PROC ; std::list<GraveMarkers::GraveRecord,std::allocator<GraveMarkers::GraveRecord> >::list<GraveMarkers::GraveRecord,std::allocator<GraveMarkers::GraveRecord> >, COMDAT
; _this$ = ecx

; 607  : 		{	// construct empty list

	push	ebp
	mov	ebp, esp
	sub	esp, 8
	mov	DWORD PTR [ebp-8], -858993460		; ccccccccH
	mov	DWORD PTR [ebp-4], -858993460		; ccccccccH
	mov	DWORD PTR _this$[ebp], ecx
	push	ecx
	mov	ecx, esp
	mov	DWORD PTR $T135045[ebp], esp
	call	??0?$allocator@UGraveRecord@GraveMarkers@@@std@@QAE@XZ ; std::allocator<GraveMarkers::GraveRecord>::allocator<GraveMarkers::GraveRecord>
	mov	ecx, DWORD PTR _this$[ebp]
	call	??0?$_List_val@UGraveRecord@GraveMarkers@@V?$allocator@UGraveRecord@GraveMarkers@@@std@@@std@@QAE@V?$allocator@UGraveRecord@GraveMarkers@@@1@@Z ; std::_List_val<GraveMarkers::GraveRecord,std::allocator<GraveMarkers::GraveRecord> >::_List_val<GraveMarkers::GraveRecord,std::allocator<GraveMarkers::GraveRecord> >

; 608  : 		}

	mov	eax, DWORD PTR _this$[ebp]
	add	esp, 8
	cmp	ebp, esp
	call	__RTC_CheckEsp
	mov	esp, ebp
	pop	ebp
	ret	0
??0?$list@UGraveRecord@GraveMarkers@@V?$allocator@UGraveRecord@GraveMarkers@@@std@@@std@@QAE@XZ ENDP ; std::list<GraveMarkers::GraveRecord,std::allocator<GraveMarkers::GraveRecord> >::list<GraveMarkers::GraveRecord,std::allocator<GraveMarkers::GraveRecord> >
_TEXT	ENDS
PUBLIC	??$_Insert_rv@UGraveRecord@GraveMarkers@@@?$list@UGraveRecord@GraveMarkers@@V?$allocator@UGraveRecord@GraveMarkers@@@std@@@std@@QAEXV?$_List_const_iterator@V?$_List_val@UGraveRecord@GraveMarkers@@V?$allocator@UGraveRecord@GraveMarkers@@@std@@@std@@@1@$$QAUGraveRecord@GraveMarkers@@@Z ; std::list<GraveMarkers::GraveRecord,std::allocator<GraveMarkers::GraveRecord> >::_Insert_rv<GraveMarkers::GraveRecord>
PUBLIC	??$forward@UGraveRecord@GraveMarkers@@@std@@YA$$QAUGraveRecord@GraveMarkers@@AAU12@@Z ; std::forward<GraveMarkers::GraveRecord>
;	COMDAT xdata$x
xdata$x	SEGMENT
__unwindtable$?push_back@?$list@UGraveRecord@GraveMarkers@@V?$allocator@UGraveRecord@GraveMarkers@@@std@@@std@@QAEX$$QAUGraveRecord@GraveMarkers@@@Z DD 0ffffffffH
	DD	FLAT:__unwindfunclet$?push_back@?$list@UGraveRecord@GraveMarkers@@V?$allocator@UGraveRecord@GraveMarkers@@@std@@@std@@QAEX$$QAUGraveRecord@GraveMarkers@@@Z$0
__ehfuncinfo$?push_back@?$list@UGraveRecord@GraveMarkers@@V?$allocator@UGraveRecord@GraveMarkers@@@std@@@std@@QAEX$$QAUGraveRecord@GraveMarkers@@@Z DD 019930522H
	DD	01H
	DD	FLAT:__unwindtable$?push_back@?$list@UGraveRecord@GraveMarkers@@V?$allocator@UGraveRecord@GraveMarkers@@@std@@@std@@QAEX$$QAUGraveRecord@GraveMarkers@@@Z
	DD	2 DUP(00H)
	DD	2 DUP(00H)
	DD	00H
	DD	01H
; Function compile flags: /Odtp /RTCsu
xdata$x	ENDS
;	COMDAT ?push_back@?$list@UGraveRecord@GraveMarkers@@V?$allocator@UGraveRecord@GraveMarkers@@@std@@@std@@QAEX$$QAUGraveRecord@GraveMarkers@@@Z
_TEXT	SEGMENT
tv95 = -44						; size = 4
tv92 = -40						; size = 4
tv128 = -36						; size = 4
$T135050 = -32						; size = 12
$T135049 = -20						; size = 4
_this$ = -16						; size = 4
__$EHRec$ = -12						; size = 12
__Val$ = 8						; size = 4
?push_back@?$list@UGraveRecord@GraveMarkers@@V?$allocator@UGraveRecord@GraveMarkers@@@std@@@std@@QAEX$$QAUGraveRecord@GraveMarkers@@@Z PROC ; std::list<GraveMarkers::GraveRecord,std::allocator<GraveMarkers::GraveRecord> >::push_back, COMDAT
; _this$ = ecx

; 716  : 		{	// insert element at end

	push	ebp
	mov	ebp, esp
	push	-1
	push	__ehhandler$?push_back@?$list@UGraveRecord@GraveMarkers@@V?$allocator@UGraveRecord@GraveMarkers@@@std@@@std@@QAEX$$QAUGraveRecord@GraveMarkers@@@Z
	mov	eax, DWORD PTR fs:0
	push	eax
	sub	esp, 32					; 00000020H
	mov	eax, -858993460				; ccccccccH
	mov	DWORD PTR [ebp-44], eax
	mov	DWORD PTR [ebp-40], eax
	mov	DWORD PTR [ebp-36], eax
	mov	DWORD PTR [ebp-32], eax
	mov	DWORD PTR [ebp-28], eax
	mov	DWORD PTR [ebp-24], eax
	mov	DWORD PTR [ebp-20], eax
	mov	DWORD PTR [ebp-16], eax
	mov	eax, DWORD PTR ___security_cookie
	xor	eax, ebp
	push	eax
	lea	eax, DWORD PTR __$EHRec$[ebp]
	mov	DWORD PTR fs:0, eax
	mov	DWORD PTR _this$[ebp], ecx

; 717  : 		_Insert_rv(end(), _STD forward<_Ty>(_Val));

	mov	eax, DWORD PTR __Val$[ebp]
	push	eax
	call	??$forward@UGraveRecord@GraveMarkers@@@std@@YA$$QAUGraveRecord@GraveMarkers@@AAU12@@Z ; std::forward<GraveMarkers::GraveRecord>
	add	esp, 4
	push	eax
	lea	ecx, DWORD PTR $T135050[ebp]
	push	ecx
	mov	ecx, DWORD PTR _this$[ebp]
	call	?end@?$list@UGraveRecord@GraveMarkers@@V?$allocator@UGraveRecord@GraveMarkers@@@std@@@std@@QAE?AV?$_List_iterator@V?$_List_val@UGraveRecord@GraveMarkers@@V?$allocator@UGraveRecord@GraveMarkers@@@std@@@std@@@2@XZ ; std::list<GraveMarkers::GraveRecord,std::allocator<GraveMarkers::GraveRecord> >::end
	mov	DWORD PTR tv128[ebp], eax
	mov	edx, DWORD PTR tv128[ebp]
	mov	DWORD PTR tv92[ebp], edx
	mov	DWORD PTR __$EHRec$[ebp+8], 0
	sub	esp, 12					; 0000000cH
	mov	ecx, esp
	mov	DWORD PTR $T135049[ebp], esp
	mov	eax, DWORD PTR tv92[ebp]
	push	eax
	call	??0?$_List_const_iterator@V?$_List_val@UGraveRecord@GraveMarkers@@V?$allocator@UGraveRecord@GraveMarkers@@@std@@@std@@@std@@QAE@ABV01@@Z
	mov	DWORD PTR tv95[ebp], eax
	mov	ecx, DWORD PTR _this$[ebp]
	call	??$_Insert_rv@UGraveRecord@GraveMarkers@@@?$list@UGraveRecord@GraveMarkers@@V?$allocator@UGraveRecord@GraveMarkers@@@std@@@std@@QAEXV?$_List_const_iterator@V?$_List_val@UGraveRecord@GraveMarkers@@V?$allocator@UGraveRecord@GraveMarkers@@@std@@@std@@@1@$$QAUGraveRecord@GraveMarkers@@@Z ; std::list<GraveMarkers::GraveRecord,std::allocator<GraveMarkers::GraveRecord> >::_Insert_rv<GraveMarkers::GraveRecord>
	mov	DWORD PTR __$EHRec$[ebp+8], -1
	lea	ecx, DWORD PTR $T135050[ebp]
	call	??1?$_List_iterator@V?$_List_val@UGraveRecord@GraveMarkers@@V?$allocator@UGraveRecord@GraveMarkers@@@std@@@std@@@std@@QAE@XZ

; 718  : 		}

	mov	ecx, DWORD PTR __$EHRec$[ebp]
	mov	DWORD PTR fs:0, ecx
	pop	ecx
	add	esp, 44					; 0000002cH
	cmp	ebp, esp
	call	__RTC_CheckEsp
	mov	esp, ebp
	pop	ebp
	ret	4
_TEXT	ENDS
;	COMDAT text$x
text$x	SEGMENT
__unwindfunclet$?push_back@?$list@UGraveRecord@GraveMarkers@@V?$allocator@UGraveRecord@GraveMarkers@@@std@@@std@@QAEX$$QAUGraveRecord@GraveMarkers@@@Z$0:
	lea	ecx, DWORD PTR $T135050[ebp]
	jmp	??1?$_List_iterator@V?$_List_val@UGraveRecord@GraveMarkers@@V?$allocator@UGraveRecord@GraveMarkers@@@std@@@std@@@std@@QAE@XZ
__ehhandler$?push_back@?$list@UGraveRecord@GraveMarkers@@V?$allocator@UGraveRecord@GraveMarkers@@@std@@@std@@QAEX$$QAUGraveRecord@GraveMarkers@@@Z:
	mov	edx, DWORD PTR [esp+8]
	lea	eax, DWORD PTR [edx+12]
	mov	ecx, DWORD PTR [edx-36]
	xor	ecx, eax
	call	@__security_check_cookie@4
	mov	eax, OFFSET __ehfuncinfo$?push_back@?$list@UGraveRecord@GraveMarkers@@V?$allocator@UGraveRecord@GraveMarkers@@@std@@@std@@QAEX$$QAUGraveRecord@GraveMarkers@@@Z
	jmp	___CxxFrameHandler3
text$x	ENDS
?push_back@?$list@UGraveRecord@GraveMarkers@@V?$allocator@UGraveRecord@GraveMarkers@@@std@@@std@@QAEX$$QAUGraveRecord@GraveMarkers@@@Z ENDP ; std::list<GraveMarkers::GraveRecord,std::allocator<GraveMarkers::GraveRecord> >::push_back
PUBLIC	??1?$_List_val@UGraveRecord@GraveMarkers@@V?$allocator@UGraveRecord@GraveMarkers@@@std@@@std@@QAE@XZ ; std::_List_val<GraveMarkers::GraveRecord,std::allocator<GraveMarkers::GraveRecord> >::~_List_val<GraveMarkers::GraveRecord,std::allocator<GraveMarkers::GraveRecord> >
PUBLIC	?_Tidy@?$list@UGraveRecord@GraveMarkers@@V?$allocator@UGraveRecord@GraveMarkers@@@std@@@std@@QAEXXZ ; std::list<GraveMarkers::GraveRecord,std::allocator<GraveMarkers::GraveRecord> >::_Tidy
;	COMDAT xdata$x
xdata$x	SEGMENT
__unwindtable$??1?$list@UGraveRecord@GraveMarkers@@V?$allocator@UGraveRecord@GraveMarkers@@@std@@@std@@QAE@XZ DD 0ffffffffH
	DD	FLAT:__unwindfunclet$??1?$list@UGraveRecord@GraveMarkers@@V?$allocator@UGraveRecord@GraveMarkers@@@std@@@std@@QAE@XZ$0
__ehfuncinfo$??1?$list@UGraveRecord@GraveMarkers@@V?$allocator@UGraveRecord@GraveMarkers@@@std@@@std@@QAE@XZ DD 019930522H
	DD	01H
	DD	FLAT:__unwindtable$??1?$list@UGraveRecord@GraveMarkers@@V?$allocator@UGraveRecord@GraveMarkers@@@std@@@std@@QAE@XZ
	DD	2 DUP(00H)
	DD	2 DUP(00H)
	DD	00H
	DD	01H
; Function compile flags: /Odtp /RTCsu
xdata$x	ENDS
;	COMDAT ??1?$list@UGraveRecord@GraveMarkers@@V?$allocator@UGraveRecord@GraveMarkers@@@std@@@std@@QAE@XZ
_TEXT	SEGMENT
_this$ = -16						; size = 4
__$EHRec$ = -12						; size = 12
??1?$list@UGraveRecord@GraveMarkers@@V?$allocator@UGraveRecord@GraveMarkers@@@std@@@std@@QAE@XZ PROC ; std::list<GraveMarkers::GraveRecord,std::allocator<GraveMarkers::GraveRecord> >::~list<GraveMarkers::GraveRecord,std::allocator<GraveMarkers::GraveRecord> >, COMDAT
; _this$ = ecx

; 769  : 		{	// destroy the object

	push	ebp
	mov	ebp, esp
	push	-1
	push	__ehhandler$??1?$list@UGraveRecord@GraveMarkers@@V?$allocator@UGraveRecord@GraveMarkers@@@std@@@std@@QAE@XZ
	mov	eax, DWORD PTR fs:0
	push	eax
	push	ecx
	mov	DWORD PTR [ebp-16], -858993460		; ccccccccH
	mov	eax, DWORD PTR ___security_cookie
	xor	eax, ebp
	push	eax
	lea	eax, DWORD PTR __$EHRec$[ebp]
	mov	DWORD PTR fs:0, eax
	mov	DWORD PTR _this$[ebp], ecx
	mov	DWORD PTR __$EHRec$[ebp+8], 0

; 770  : 		_Tidy();

	mov	ecx, DWORD PTR _this$[ebp]
	call	?_Tidy@?$list@UGraveRecord@GraveMarkers@@V?$allocator@UGraveRecord@GraveMarkers@@@std@@@std@@QAEXXZ ; std::list<GraveMarkers::GraveRecord,std::allocator<GraveMarkers::GraveRecord> >::_Tidy

; 771  : 		}

	mov	DWORD PTR __$EHRec$[ebp+8], -1
	mov	ecx, DWORD PTR _this$[ebp]
	call	??1?$_List_val@UGraveRecord@GraveMarkers@@V?$allocator@UGraveRecord@GraveMarkers@@@std@@@std@@QAE@XZ ; std::_List_val<GraveMarkers::GraveRecord,std::allocator<GraveMarkers::GraveRecord> >::~_List_val<GraveMarkers::GraveRecord,std::allocator<GraveMarkers::GraveRecord> >
	mov	ecx, DWORD PTR __$EHRec$[ebp]
	mov	DWORD PTR fs:0, ecx
	pop	ecx
	add	esp, 16					; 00000010H
	cmp	ebp, esp
	call	__RTC_CheckEsp
	mov	esp, ebp
	pop	ebp
	ret	0
_TEXT	ENDS
;	COMDAT text$x
text$x	SEGMENT
__unwindfunclet$??1?$list@UGraveRecord@GraveMarkers@@V?$allocator@UGraveRecord@GraveMarkers@@@std@@@std@@QAE@XZ$0:
	mov	ecx, DWORD PTR _this$[ebp]
	jmp	??1?$_List_val@UGraveRecord@GraveMarkers@@V?$allocator@UGraveRecord@GraveMarkers@@@std@@@std@@QAE@XZ ; std::_List_val<GraveMarkers::GraveRecord,std::allocator<GraveMarkers::GraveRecord> >::~_List_val<GraveMarkers::GraveRecord,std::allocator<GraveMarkers::GraveRecord> >
__ehhandler$??1?$list@UGraveRecord@GraveMarkers@@V?$allocator@UGraveRecord@GraveMarkers@@@std@@@std@@QAE@XZ:
	mov	edx, DWORD PTR [esp+8]
	lea	eax, DWORD PTR [edx+12]
	mov	ecx, DWORD PTR [edx-8]
	xor	ecx, eax
	call	@__security_check_cookie@4
	mov	eax, OFFSET __ehfuncinfo$??1?$list@UGraveRecord@GraveMarkers@@V?$allocator@UGraveRecord@GraveMarkers@@@std@@@std@@QAE@XZ
	jmp	___CxxFrameHandler3
text$x	ENDS
??1?$list@UGraveRecord@GraveMarkers@@V?$allocator@UGraveRecord@GraveMarkers@@@std@@@std@@QAE@XZ ENDP ; std::list<GraveMarkers::GraveRecord,std::allocator<GraveMarkers::GraveRecord> >::~list<GraveMarkers::GraveRecord,std::allocator<GraveMarkers::GraveRecord> >
PUBLIC	??0?$_List_iterator@V?$_List_val@UGraveRecord@GraveMarkers@@V?$allocator@UGraveRecord@GraveMarkers@@@std@@@std@@@std@@QAE@PAU_Node@?$_List_nod@UGraveRecord@GraveMarkers@@V?$allocator@UGraveRecord@GraveMarkers@@@std@@@1@PBV?$_List_val@UGraveRecord@GraveMarkers@@V?$allocator@UGraveRecord@GraveMarkers@@@std@@@1@@Z ; std::_List_iterator<std::_List_val<GraveMarkers::GraveRecord,std::allocator<GraveMarkers::GraveRecord> > >::_List_iterator<std::_List_val<GraveMarkers::GraveRecord,std::allocator<GraveMarkers::GraveRecord> > >
PUBLIC	?_Nextnode@?$_List_val@UGraveRecord@GraveMarkers@@V?$allocator@UGraveRecord@GraveMarkers@@@std@@@std@@SAAAPAU_Node@?$_List_nod@UGraveRecord@GraveMarkers@@V?$allocator@UGraveRecord@GraveMarkers@@@std@@@2@PAU342@@Z ; std::_List_val<GraveMarkers::GraveRecord,std::allocator<GraveMarkers::GraveRecord> >::_Nextnode
; Function compile flags: /Odtp /RTCsu
;	COMDAT ?begin@?$list@UGraveRecord@GraveMarkers@@V?$allocator@UGraveRecord@GraveMarkers@@@std@@@std@@QAE?AV?$_List_iterator@V?$_List_val@UGraveRecord@GraveMarkers@@V?$allocator@UGraveRecord@GraveMarkers@@@std@@@std@@@2@XZ
_TEXT	SEGMENT
$T135071 = -8						; size = 4
_this$ = -4						; size = 4
___$ReturnUdt$ = 8					; size = 4
?begin@?$list@UGraveRecord@GraveMarkers@@V?$allocator@UGraveRecord@GraveMarkers@@@std@@@std@@QAE?AV?$_List_iterator@V?$_List_val@UGraveRecord@GraveMarkers@@V?$allocator@UGraveRecord@GraveMarkers@@@std@@@std@@@2@XZ PROC ; std::list<GraveMarkers::GraveRecord,std::allocator<GraveMarkers::GraveRecord> >::begin, COMDAT
; _this$ = ecx

; 781  : 		{	// return iterator for beginning of mutable sequence

	push	ebp
	mov	ebp, esp
	sub	esp, 8
	mov	DWORD PTR [ebp-8], -858993460		; ccccccccH
	mov	DWORD PTR [ebp-4], -858993460		; ccccccccH
	mov	DWORD PTR _this$[ebp], ecx
	mov	DWORD PTR $T135071[ebp], 0

; 782  : 		return (iterator(this->_Nextnode(this->_Myhead), this));

	mov	eax, DWORD PTR _this$[ebp]
	push	eax
	mov	ecx, DWORD PTR _this$[ebp]
	mov	edx, DWORD PTR [ecx+4]
	push	edx
	call	?_Nextnode@?$_List_val@UGraveRecord@GraveMarkers@@V?$allocator@UGraveRecord@GraveMarkers@@@std@@@std@@SAAAPAU_Node@?$_List_nod@UGraveRecord@GraveMarkers@@V?$allocator@UGraveRecord@GraveMarkers@@@std@@@2@PAU342@@Z ; std::_List_val<GraveMarkers::GraveRecord,std::allocator<GraveMarkers::GraveRecord> >::_Nextnode
	add	esp, 4
	mov	eax, DWORD PTR [eax]
	push	eax
	mov	ecx, DWORD PTR ___$ReturnUdt$[ebp]
	call	??0?$_List_iterator@V?$_List_val@UGraveRecord@GraveMarkers@@V?$allocator@UGraveRecord@GraveMarkers@@@std@@@std@@@std@@QAE@PAU_Node@?$_List_nod@UGraveRecord@GraveMarkers@@V?$allocator@UGraveRecord@GraveMarkers@@@std@@@1@PBV?$_List_val@UGraveRecord@GraveMarkers@@V?$allocator@UGraveRecord@GraveMarkers@@@std@@@1@@Z ; std::_List_iterator<std::_List_val<GraveMarkers::GraveRecord,std::allocator<GraveMarkers::GraveRecord> > >::_List_iterator<std::_List_val<GraveMarkers::GraveRecord,std::allocator<GraveMarkers::GraveRecord> > >
	mov	ecx, DWORD PTR $T135071[ebp]
	or	ecx, 1
	mov	DWORD PTR $T135071[ebp], ecx
	mov	eax, DWORD PTR ___$ReturnUdt$[ebp]

; 783  : 		}

	add	esp, 8
	cmp	ebp, esp
	call	__RTC_CheckEsp
	mov	esp, ebp
	pop	ebp
	ret	4
?begin@?$list@UGraveRecord@GraveMarkers@@V?$allocator@UGraveRecord@GraveMarkers@@@std@@@std@@QAE?AV?$_List_iterator@V?$_List_val@UGraveRecord@GraveMarkers@@V?$allocator@UGraveRecord@GraveMarkers@@@std@@@std@@@2@XZ ENDP ; std::list<GraveMarkers::GraveRecord,std::allocator<GraveMarkers::GraveRecord> >::begin
; Function compile flags: /Odtp /RTCsu
_TEXT	ENDS
;	COMDAT ?end@?$list@UGraveRecord@GraveMarkers@@V?$allocator@UGraveRecord@GraveMarkers@@@std@@@std@@QAE?AV?$_List_iterator@V?$_List_val@UGraveRecord@GraveMarkers@@V?$allocator@UGraveRecord@GraveMarkers@@@std@@@std@@@2@XZ
_TEXT	SEGMENT
$T135076 = -8						; size = 4
_this$ = -4						; size = 4
___$ReturnUdt$ = 8					; size = 4
?end@?$list@UGraveRecord@GraveMarkers@@V?$allocator@UGraveRecord@GraveMarkers@@@std@@@std@@QAE?AV?$_List_iterator@V?$_List_val@UGraveRecord@GraveMarkers@@V?$allocator@UGraveRecord@GraveMarkers@@@std@@@std@@@2@XZ PROC ; std::list<GraveMarkers::GraveRecord,std::allocator<GraveMarkers::GraveRecord> >::end, COMDAT
; _this$ = ecx

; 791  : 		{	// return iterator for end of mutable sequence

	push	ebp
	mov	ebp, esp
	sub	esp, 8
	mov	DWORD PTR [ebp-8], -858993460		; ccccccccH
	mov	DWORD PTR [ebp-4], -858993460		; ccccccccH
	mov	DWORD PTR _this$[ebp], ecx
	mov	DWORD PTR $T135076[ebp], 0

; 792  : 		return (iterator(this->_Myhead, this));

	mov	eax, DWORD PTR _this$[ebp]
	push	eax
	mov	ecx, DWORD PTR _this$[ebp]
	mov	edx, DWORD PTR [ecx+4]
	push	edx
	mov	ecx, DWORD PTR ___$ReturnUdt$[ebp]
	call	??0?$_List_iterator@V?$_List_val@UGraveRecord@GraveMarkers@@V?$allocator@UGraveRecord@GraveMarkers@@@std@@@std@@@std@@QAE@PAU_Node@?$_List_nod@UGraveRecord@GraveMarkers@@V?$allocator@UGraveRecord@GraveMarkers@@@std@@@1@PBV?$_List_val@UGraveRecord@GraveMarkers@@V?$allocator@UGraveRecord@GraveMarkers@@@std@@@1@@Z ; std::_List_iterator<std::_List_val<GraveMarkers::GraveRecord,std::allocator<GraveMarkers::GraveRecord> > >::_List_iterator<std::_List_val<GraveMarkers::GraveRecord,std::allocator<GraveMarkers::GraveRecord> > >
	mov	eax, DWORD PTR $T135076[ebp]
	or	eax, 1
	mov	DWORD PTR $T135076[ebp], eax
	mov	eax, DWORD PTR ___$ReturnUdt$[ebp]

; 793  : 		}

	add	esp, 8
	cmp	ebp, esp
	call	__RTC_CheckEsp
	mov	esp, ebp
	pop	ebp
	ret	4
?end@?$list@UGraveRecord@GraveMarkers@@V?$allocator@UGraveRecord@GraveMarkers@@@std@@@std@@QAE?AV?$_List_iterator@V?$_List_val@UGraveRecord@GraveMarkers@@V?$allocator@UGraveRecord@GraveMarkers@@@std@@@std@@@2@XZ ENDP ; std::list<GraveMarkers::GraveRecord,std::allocator<GraveMarkers::GraveRecord> >::end
_TEXT	ENDS
PUBLIC	?_Make_iter@?$list@UGraveRecord@GraveMarkers@@V?$allocator@UGraveRecord@GraveMarkers@@@std@@@std@@QBE?AV?$_List_iterator@V?$_List_val@UGraveRecord@GraveMarkers@@V?$allocator@UGraveRecord@GraveMarkers@@@std@@@std@@@2@V?$_List_const_iterator@V?$_List_val@UGraveRecord@GraveMarkers@@V?$allocator@UGraveRecord@GraveMarkers@@@std@@@std@@@2@@Z ; std::list<GraveMarkers::GraveRecord,std::allocator<GraveMarkers::GraveRecord> >::_Make_iter
PUBLIC	?deallocate@?$allocator@U_Node@?$_List_nod@UGraveRecord@GraveMarkers@@V?$allocator@UGraveRecord@GraveMarkers@@@std@@@std@@@std@@QAEXPAU_Node@?$_List_nod@UGraveRecord@GraveMarkers@@V?$allocator@UGraveRecord@GraveMarkers@@@std@@@2@I@Z ; std::allocator<std::_List_nod<GraveMarkers::GraveRecord,std::allocator<GraveMarkers::GraveRecord> >::_Node>::deallocate
PUBLIC	??$_Dest_val@V?$allocator@U_Node@?$_List_nod@UGraveRecord@GraveMarkers@@V?$allocator@UGraveRecord@GraveMarkers@@@std@@@std@@@std@@U_Node@?$_List_nod@UGraveRecord@GraveMarkers@@V?$allocator@UGraveRecord@GraveMarkers@@@std@@@2@@std@@YAXAAV?$allocator@U_Node@?$_List_nod@UGraveRecord@GraveMarkers@@V?$allocator@UGraveRecord@GraveMarkers@@@std@@@std@@@0@PAU_Node@?$_List_nod@UGraveRecord@GraveMarkers@@V?$allocator@UGraveRecord@GraveMarkers@@@std@@@0@@Z ; std::_Dest_val<std::allocator<std::_List_nod<GraveMarkers::GraveRecord,std::allocator<GraveMarkers::GraveRecord> >::_Node>,std::_List_nod<GraveMarkers::GraveRecord,std::allocator<GraveMarkers::GraveRecord> >::_Node>
PUBLIC	?_Prevnode@?$_List_val@UGraveRecord@GraveMarkers@@V?$allocator@UGraveRecord@GraveMarkers@@@std@@@std@@SAAAPAU_Node@?$_List_nod@UGraveRecord@GraveMarkers@@V?$allocator@UGraveRecord@GraveMarkers@@@std@@@2@PAU342@@Z ; std::_List_val<GraveMarkers::GraveRecord,std::allocator<GraveMarkers::GraveRecord> >::_Prevnode
PUBLIC	?_Orphan_ptr@?$list@UGraveRecord@GraveMarkers@@V?$allocator@UGraveRecord@GraveMarkers@@@std@@@std@@QBEXAAV12@PAU_Node@?$_List_nod@UGraveRecord@GraveMarkers@@V?$allocator@UGraveRecord@GraveMarkers@@@std@@@2@@Z ; std::list<GraveMarkers::GraveRecord,std::allocator<GraveMarkers::GraveRecord> >::_Orphan_ptr
PUBLIC	?_Mynode@?$_List_unchecked_const_iterator@V?$_List_val@UGraveRecord@GraveMarkers@@V?$allocator@UGraveRecord@GraveMarkers@@@std@@@std@@U_Iterator_base12@2@@std@@QBEPAU_Node@?$_List_nod@UGraveRecord@GraveMarkers@@V?$allocator@UGraveRecord@GraveMarkers@@@std@@@2@XZ ; std::_List_unchecked_const_iterator<std::_List_val<GraveMarkers::GraveRecord,std::allocator<GraveMarkers::GraveRecord> >,std::_Iterator_base12>::_Mynode
PUBLIC	??E?$_List_const_iterator@V?$_List_val@UGraveRecord@GraveMarkers@@V?$allocator@UGraveRecord@GraveMarkers@@@std@@@std@@@std@@QAE?AV01@H@Z ; std::_List_const_iterator<std::_List_val<GraveMarkers::GraveRecord,std::allocator<GraveMarkers::GraveRecord> > >::operator++
PUBLIC	??_C@_1EE@BBMFLDOC@?$AAl?$AAi?$AAs?$AAt?$AA?5?$AAe?$AAr?$AAa?$AAs?$AAe?$AA?5?$AAi?$AAt?$AAe?$AAr?$AAa?$AAt?$AAo?$AAr?$AA?5?$AAo?$AAu?$AAt?$AAs?$AAi?$AAd?$AAe?$AA?5?$AAr?$AAa?$AAn?$AAg@ ; `string'
PUBLIC	??_C@_1II@KCMIDAEO@?$AAc?$AA?3?$AA?2?$AAP?$AAr?$AAo?$AAg?$AAr?$AAa?$AAm?$AA?5?$AAF?$AAi?$AAl?$AAe?$AAs?$AA?5?$AA?$CI?$AAx?$AA8?$AA6?$AA?$CJ?$AA?2?$AAM?$AAi?$AAc?$AAr?$AAo?$AAs?$AAo?$AAf?$AAt@ ; `string'
PUBLIC	?_Getcont@_Iterator_base12@std@@QBEPBU_Container_base12@2@XZ ; std::_Iterator_base12::_Getcont
;	COMDAT ??_C@_1EE@BBMFLDOC@?$AAl?$AAi?$AAs?$AAt?$AA?5?$AAe?$AAr?$AAa?$AAs?$AAe?$AA?5?$AAi?$AAt?$AAe?$AAr?$AAa?$AAt?$AAo?$AAr?$AA?5?$AAo?$AAu?$AAt?$AAs?$AAi?$AAd?$AAe?$AA?5?$AAr?$AAa?$AAn?$AAg@
CONST	SEGMENT
??_C@_1EE@BBMFLDOC@?$AAl?$AAi?$AAs?$AAt?$AA?5?$AAe?$AAr?$AAa?$AAs?$AAe?$AA?5?$AAi?$AAt?$AAe?$AAr?$AAa?$AAt?$AAo?$AAr?$AA?5?$AAo?$AAu?$AAt?$AAs?$AAi?$AAd?$AAe?$AA?5?$AAr?$AAa?$AAn?$AAg@ DB 'l'
	DB	00H, 'i', 00H, 's', 00H, 't', 00H, ' ', 00H, 'e', 00H, 'r', 00H
	DB	'a', 00H, 's', 00H, 'e', 00H, ' ', 00H, 'i', 00H, 't', 00H, 'e'
	DB	00H, 'r', 00H, 'a', 00H, 't', 00H, 'o', 00H, 'r', 00H, ' ', 00H
	DB	'o', 00H, 'u', 00H, 't', 00H, 's', 00H, 'i', 00H, 'd', 00H, 'e'
	DB	00H, ' ', 00H, 'r', 00H, 'a', 00H, 'n', 00H, 'g', 00H, 'e', 00H
	DB	00H, 00H					; `string'
CONST	ENDS
;	COMDAT ??_C@_1II@KCMIDAEO@?$AAc?$AA?3?$AA?2?$AAP?$AAr?$AAo?$AAg?$AAr?$AAa?$AAm?$AA?5?$AAF?$AAi?$AAl?$AAe?$AAs?$AA?5?$AA?$CI?$AAx?$AA8?$AA6?$AA?$CJ?$AA?2?$AAM?$AAi?$AAc?$AAr?$AAo?$AAs?$AAo?$AAf?$AAt@
CONST	SEGMENT
??_C@_1II@KCMIDAEO@?$AAc?$AA?3?$AA?2?$AAP?$AAr?$AAo?$AAg?$AAr?$AAa?$AAm?$AA?5?$AAF?$AAi?$AAl?$AAe?$AAs?$AA?5?$AA?$CI?$AAx?$AA8?$AA6?$AA?$CJ?$AA?2?$AAM?$AAi?$AAc?$AAr?$AAo?$AAs?$AAo?$AAf?$AAt@ DB 'c'
	DB	00H, ':', 00H, '\', 00H, 'P', 00H, 'r', 00H, 'o', 00H, 'g', 00H
	DB	'r', 00H, 'a', 00H, 'm', 00H, ' ', 00H, 'F', 00H, 'i', 00H, 'l'
	DB	00H, 'e', 00H, 's', 00H, ' ', 00H, '(', 00H, 'x', 00H, '8', 00H
	DB	'6', 00H, ')', 00H, '\', 00H, 'M', 00H, 'i', 00H, 'c', 00H, 'r'
	DB	00H, 'o', 00H, 's', 00H, 'o', 00H, 'f', 00H, 't', 00H, ' ', 00H
	DB	'V', 00H, 'i', 00H, 's', 00H, 'u', 00H, 'a', 00H, 'l', 00H, ' '
	DB	00H, 'S', 00H, 't', 00H, 'u', 00H, 'd', 00H, 'i', 00H, 'o', 00H
	DB	' ', 00H, '1', 00H, '0', 00H, '.', 00H, '0', 00H, '\', 00H, 'V'
	DB	00H, 'C', 00H, '\', 00H, 'i', 00H, 'n', 00H, 'c', 00H, 'l', 00H
	DB	'u', 00H, 'd', 00H, 'e', 00H, '\', 00H, 'l', 00H, 'i', 00H, 's'
	DB	00H, 't', 00H, 00H, 00H			; `string'
CONST	ENDS
;	COMDAT xdata$x
xdata$x	SEGMENT
__unwindtable$?erase@?$list@UGraveRecord@GraveMarkers@@V?$allocator@UGraveRecord@GraveMarkers@@@std@@@std@@QAE?AV?$_List_iterator@V?$_List_val@UGraveRecord@GraveMarkers@@V?$allocator@UGraveRecord@GraveMarkers@@@std@@@std@@@2@V?$_List_const_iterator@V?$_List_val@UGraveRecord@GraveMarkers@@V?$allocator@UGraveRecord@GraveMarkers@@@std@@@std@@@2@@Z DD 0ffffffffH
	DD	FLAT:__unwindfunclet$?erase@?$list@UGraveRecord@GraveMarkers@@V?$allocator@UGraveRecord@GraveMarkers@@@std@@@std@@QAE?AV?$_List_iterator@V?$_List_val@UGraveRecord@GraveMarkers@@V?$allocator@UGraveRecord@GraveMarkers@@@std@@@std@@@2@V?$_List_const_iterator@V?$_List_val@UGraveRecord@GraveMarkers@@V?$allocator@UGraveRecord@GraveMarkers@@@std@@@std@@@2@@Z$3
	DD	00H
	DD	FLAT:__unwindfunclet$?erase@?$list@UGraveRecord@GraveMarkers@@V?$allocator@UGraveRecord@GraveMarkers@@@std@@@std@@QAE?AV?$_List_iterator@V?$_List_val@UGraveRecord@GraveMarkers@@V?$allocator@UGraveRecord@GraveMarkers@@@std@@@std@@@2@V?$_List_const_iterator@V?$_List_val@UGraveRecord@GraveMarkers@@V?$allocator@UGraveRecord@GraveMarkers@@@std@@@std@@@2@@Z$0
	DD	01H
	DD	FLAT:__unwindfunclet$?erase@?$list@UGraveRecord@GraveMarkers@@V?$allocator@UGraveRecord@GraveMarkers@@@std@@@std@@QAE?AV?$_List_iterator@V?$_List_val@UGraveRecord@GraveMarkers@@V?$allocator@UGraveRecord@GraveMarkers@@@std@@@std@@@2@V?$_List_const_iterator@V?$_List_val@UGraveRecord@GraveMarkers@@V?$allocator@UGraveRecord@GraveMarkers@@@std@@@std@@@2@@Z$1
__ehfuncinfo$?erase@?$list@UGraveRecord@GraveMarkers@@V?$allocator@UGraveRecord@GraveMarkers@@@std@@@std@@QAE?AV?$_List_iterator@V?$_List_val@UGraveRecord@GraveMarkers@@V?$allocator@UGraveRecord@GraveMarkers@@@std@@@std@@@2@V?$_List_const_iterator@V?$_List_val@UGraveRecord@GraveMarkers@@V?$allocator@UGraveRecord@GraveMarkers@@@std@@@std@@@2@@Z DD 019930522H
	DD	03H
	DD	FLAT:__unwindtable$?erase@?$list@UGraveRecord@GraveMarkers@@V?$allocator@UGraveRecord@GraveMarkers@@@std@@@std@@QAE?AV?$_List_iterator@V?$_List_val@UGraveRecord@GraveMarkers@@V?$allocator@UGraveRecord@GraveMarkers@@@std@@@std@@@2@V?$_List_const_iterator@V?$_List_val@UGraveRecord@GraveMarkers@@V?$allocator@UGraveRecord@GraveMarkers@@@std@@@std@@@2@@Z
	DD	2 DUP(00H)
	DD	2 DUP(00H)
	DD	00H
	DD	01H
; Function compile flags: /Odtp /RTCsu
xdata$x	ENDS
;	COMDAT ?erase@?$list@UGraveRecord@GraveMarkers@@V?$allocator@UGraveRecord@GraveMarkers@@@std@@@std@@QAE?AV?$_List_iterator@V?$_List_val@UGraveRecord@GraveMarkers@@V?$allocator@UGraveRecord@GraveMarkers@@@std@@@std@@@2@V?$_List_const_iterator@V?$_List_val@UGraveRecord@GraveMarkers@@V?$allocator@UGraveRecord@GraveMarkers@@@std@@@std@@@2@@Z
_TEXT	SEGMENT
tv200 = -56						; size = 4
tv199 = -52						; size = 4
tv197 = -48						; size = 4
tv206 = -44						; size = 4
$T135086 = -40						; size = 4
$T135081 = -36						; size = 4
$T135080 = -32						; size = 12
__Pnode$ = -20						; size = 4
_this$ = -16						; size = 4
__$EHRec$ = -12						; size = 12
___$ReturnUdt$ = 8					; size = 4
__Where$ = 12						; size = 12
?erase@?$list@UGraveRecord@GraveMarkers@@V?$allocator@UGraveRecord@GraveMarkers@@@std@@@std@@QAE?AV?$_List_iterator@V?$_List_val@UGraveRecord@GraveMarkers@@V?$allocator@UGraveRecord@GraveMarkers@@@std@@@std@@@2@V?$_List_const_iterator@V?$_List_val@UGraveRecord@GraveMarkers@@V?$allocator@UGraveRecord@GraveMarkers@@@std@@@std@@@2@@Z PROC ; std::list<GraveMarkers::GraveRecord,std::allocator<GraveMarkers::GraveRecord> >::erase, COMDAT
; _this$ = ecx

; 1054 : 		{	// erase element at _Where

	push	ebp
	mov	ebp, esp
	push	-1
	push	__ehhandler$?erase@?$list@UGraveRecord@GraveMarkers@@V?$allocator@UGraveRecord@GraveMarkers@@@std@@@std@@QAE?AV?$_List_iterator@V?$_List_val@UGraveRecord@GraveMarkers@@V?$allocator@UGraveRecord@GraveMarkers@@@std@@@std@@@2@V?$_List_const_iterator@V?$_List_val@UGraveRecord@GraveMarkers@@V?$allocator@UGraveRecord@GraveMarkers@@@std@@@std@@@2@@Z
	mov	eax, DWORD PTR fs:0
	push	eax
	sub	esp, 44					; 0000002cH
	push	esi
	push	edi
	push	ecx
	lea	edi, DWORD PTR [ebp-56]
	mov	ecx, 11					; 0000000bH
	mov	eax, -858993460				; ccccccccH
	rep stosd
	pop	ecx
	mov	eax, DWORD PTR ___security_cookie
	xor	eax, ebp
	push	eax
	lea	eax, DWORD PTR __$EHRec$[ebp]
	mov	DWORD PTR fs:0, eax
	mov	DWORD PTR _this$[ebp], ecx
	mov	DWORD PTR $T135086[ebp], 0
	mov	DWORD PTR __$EHRec$[ebp+8], 1

; 1055 :  #if _ITERATOR_DEBUG_LEVEL == 2
; 1056 : 		if (_Where._Getcont() != this || _Where._Ptr == this->_Myhead)

	lea	ecx, DWORD PTR __Where$[ebp]
	call	?_Getcont@_Iterator_base12@std@@QBEPBU_Container_base12@2@XZ ; std::_Iterator_base12::_Getcont
	cmp	eax, DWORD PTR _this$[ebp]
	jne	SHORT $LN2@erase
	mov	eax, DWORD PTR _this$[ebp]
	mov	ecx, DWORD PTR __Where$[ebp+8]
	cmp	ecx, DWORD PTR [eax+4]
	jne	SHORT $LN3@erase
$LN2@erase:

; 1057 : 			_DEBUG_ERROR("list erase iterator outside range");

	push	1057					; 00000421H
	push	OFFSET ??_C@_1II@KCMIDAEO@?$AAc?$AA?3?$AA?2?$AAP?$AAr?$AAo?$AAg?$AAr?$AAa?$AAm?$AA?5?$AAF?$AAi?$AAl?$AAe?$AAs?$AA?5?$AA?$CI?$AAx?$AA8?$AA6?$AA?$CJ?$AA?2?$AAM?$AAi?$AAc?$AAr?$AAo?$AAs?$AAo?$AAf?$AAt@
	push	OFFSET ??_C@_1EE@BBMFLDOC@?$AAl?$AAi?$AAs?$AAt?$AA?5?$AAe?$AAr?$AAa?$AAs?$AAe?$AA?5?$AAi?$AAt?$AAe?$AAr?$AAa?$AAt?$AAo?$AAr?$AA?5?$AAo?$AAu?$AAt?$AAs?$AAi?$AAd?$AAe?$AA?5?$AAr?$AAa?$AAn?$AAg@
	call	?_Debug_message@std@@YAXPB_W0I@Z	; std::_Debug_message
	add	esp, 12					; 0000000cH
$LN3@erase:

; 1058 : 		_Nodeptr _Pnode = (_Where++)._Mynode();

	push	0
	lea	edx, DWORD PTR $T135080[ebp]
	push	edx
	lea	ecx, DWORD PTR __Where$[ebp]
	call	??E?$_List_const_iterator@V?$_List_val@UGraveRecord@GraveMarkers@@V?$allocator@UGraveRecord@GraveMarkers@@@std@@@std@@@std@@QAE?AV01@H@Z ; std::_List_const_iterator<std::_List_val<GraveMarkers::GraveRecord,std::allocator<GraveMarkers::GraveRecord> > >::operator++
	mov	DWORD PTR tv206[ebp], eax
	mov	eax, DWORD PTR tv206[ebp]
	mov	DWORD PTR tv197[ebp], eax
	mov	BYTE PTR __$EHRec$[ebp+8], 2
	mov	ecx, DWORD PTR tv197[ebp]
	call	?_Mynode@?$_List_unchecked_const_iterator@V?$_List_val@UGraveRecord@GraveMarkers@@V?$allocator@UGraveRecord@GraveMarkers@@@std@@@std@@U_Iterator_base12@2@@std@@QBEPAU_Node@?$_List_nod@UGraveRecord@GraveMarkers@@V?$allocator@UGraveRecord@GraveMarkers@@@std@@@2@XZ ; std::_List_unchecked_const_iterator<std::_List_val<GraveMarkers::GraveRecord,std::allocator<GraveMarkers::GraveRecord> >,std::_Iterator_base12>::_Mynode
	mov	DWORD PTR __Pnode$[ebp], eax
	mov	BYTE PTR __$EHRec$[ebp+8], 1
	lea	ecx, DWORD PTR $T135080[ebp]
	call	??1?$_List_const_iterator@V?$_List_val@UGraveRecord@GraveMarkers@@V?$allocator@UGraveRecord@GraveMarkers@@@std@@@std@@@std@@QAE@XZ

; 1059 : 		_Orphan_ptr(*this, _Pnode);

	mov	ecx, DWORD PTR __Pnode$[ebp]
	push	ecx
	mov	edx, DWORD PTR _this$[ebp]
	push	edx
	mov	ecx, DWORD PTR _this$[ebp]
	call	?_Orphan_ptr@?$list@UGraveRecord@GraveMarkers@@V?$allocator@UGraveRecord@GraveMarkers@@@std@@@std@@QBEXAAV12@PAU_Node@?$_List_nod@UGraveRecord@GraveMarkers@@V?$allocator@UGraveRecord@GraveMarkers@@@std@@@2@@Z ; std::list<GraveMarkers::GraveRecord,std::allocator<GraveMarkers::GraveRecord> >::_Orphan_ptr

; 1060 : 
; 1061 :  #else /* _ITERATOR_DEBUG_LEVEL == 2 */
; 1062 : 		_Nodeptr _Pnode = (_Where++)._Mynode();
; 1063 :  #endif /* _ITERATOR_DEBUG_LEVEL == 2 */
; 1064 : 
; 1065 : 		if (_Pnode != this->_Myhead)

	mov	eax, DWORD PTR _this$[ebp]
	mov	ecx, DWORD PTR __Pnode$[ebp]
	cmp	ecx, DWORD PTR [eax+4]
	je	$LN1@erase

; 1066 : 			{	// not list head, safe to erase
; 1067 : 			this->_Nextnode(this->_Prevnode(_Pnode)) =
; 1068 : 				this->_Nextnode(_Pnode);

	mov	edx, DWORD PTR __Pnode$[ebp]
	push	edx
	call	?_Nextnode@?$_List_val@UGraveRecord@GraveMarkers@@V?$allocator@UGraveRecord@GraveMarkers@@@std@@@std@@SAAAPAU_Node@?$_List_nod@UGraveRecord@GraveMarkers@@V?$allocator@UGraveRecord@GraveMarkers@@@std@@@2@PAU342@@Z ; std::_List_val<GraveMarkers::GraveRecord,std::allocator<GraveMarkers::GraveRecord> >::_Nextnode
	add	esp, 4
	mov	esi, eax
	mov	eax, DWORD PTR __Pnode$[ebp]
	push	eax
	call	?_Prevnode@?$_List_val@UGraveRecord@GraveMarkers@@V?$allocator@UGraveRecord@GraveMarkers@@@std@@@std@@SAAAPAU_Node@?$_List_nod@UGraveRecord@GraveMarkers@@V?$allocator@UGraveRecord@GraveMarkers@@@std@@@2@PAU342@@Z ; std::_List_val<GraveMarkers::GraveRecord,std::allocator<GraveMarkers::GraveRecord> >::_Prevnode
	add	esp, 4
	mov	ecx, DWORD PTR [eax]
	push	ecx
	call	?_Nextnode@?$_List_val@UGraveRecord@GraveMarkers@@V?$allocator@UGraveRecord@GraveMarkers@@@std@@@std@@SAAAPAU_Node@?$_List_nod@UGraveRecord@GraveMarkers@@V?$allocator@UGraveRecord@GraveMarkers@@@std@@@2@PAU342@@Z ; std::_List_val<GraveMarkers::GraveRecord,std::allocator<GraveMarkers::GraveRecord> >::_Nextnode
	add	esp, 4
	mov	edx, DWORD PTR [esi]
	mov	DWORD PTR [eax], edx

; 1069 : 			this->_Prevnode(this->_Nextnode(_Pnode)) =
; 1070 : 				this->_Prevnode(_Pnode);

	mov	eax, DWORD PTR __Pnode$[ebp]
	push	eax
	call	?_Prevnode@?$_List_val@UGraveRecord@GraveMarkers@@V?$allocator@UGraveRecord@GraveMarkers@@@std@@@std@@SAAAPAU_Node@?$_List_nod@UGraveRecord@GraveMarkers@@V?$allocator@UGraveRecord@GraveMarkers@@@std@@@2@PAU342@@Z ; std::_List_val<GraveMarkers::GraveRecord,std::allocator<GraveMarkers::GraveRecord> >::_Prevnode
	add	esp, 4
	mov	esi, eax
	mov	ecx, DWORD PTR __Pnode$[ebp]
	push	ecx
	call	?_Nextnode@?$_List_val@UGraveRecord@GraveMarkers@@V?$allocator@UGraveRecord@GraveMarkers@@@std@@@std@@SAAAPAU_Node@?$_List_nod@UGraveRecord@GraveMarkers@@V?$allocator@UGraveRecord@GraveMarkers@@@std@@@2@PAU342@@Z ; std::_List_val<GraveMarkers::GraveRecord,std::allocator<GraveMarkers::GraveRecord> >::_Nextnode
	add	esp, 4
	mov	edx, DWORD PTR [eax]
	push	edx
	call	?_Prevnode@?$_List_val@UGraveRecord@GraveMarkers@@V?$allocator@UGraveRecord@GraveMarkers@@@std@@@std@@SAAAPAU_Node@?$_List_nod@UGraveRecord@GraveMarkers@@V?$allocator@UGraveRecord@GraveMarkers@@@std@@@2@PAU342@@Z ; std::_List_val<GraveMarkers::GraveRecord,std::allocator<GraveMarkers::GraveRecord> >::_Prevnode
	add	esp, 4
	mov	ecx, DWORD PTR [esi]
	mov	DWORD PTR [eax], ecx

; 1071 : 
; 1072 : 			_Dest_val(this->_Alnod, _Pnode);

	mov	edx, DWORD PTR __Pnode$[ebp]
	push	edx
	mov	eax, DWORD PTR _this$[ebp]
	add	eax, 12					; 0000000cH
	push	eax
	call	??$_Dest_val@V?$allocator@U_Node@?$_List_nod@UGraveRecord@GraveMarkers@@V?$allocator@UGraveRecord@GraveMarkers@@@std@@@std@@@std@@U_Node@?$_List_nod@UGraveRecord@GraveMarkers@@V?$allocator@UGraveRecord@GraveMarkers@@@std@@@2@@std@@YAXAAV?$allocator@U_Node@?$_List_nod@UGraveRecord@GraveMarkers@@V?$allocator@UGraveRecord@GraveMarkers@@@std@@@std@@@0@PAU_Node@?$_List_nod@UGraveRecord@GraveMarkers@@V?$allocator@UGraveRecord@GraveMarkers@@@std@@@0@@Z ; std::_Dest_val<std::allocator<std::_List_nod<GraveMarkers::GraveRecord,std::allocator<GraveMarkers::GraveRecord> >::_Node>,std::_List_nod<GraveMarkers::GraveRecord,std::allocator<GraveMarkers::GraveRecord> >::_Node>
	add	esp, 8

; 1073 : 			this->_Alnod.deallocate(_Pnode, 1);

	push	1
	mov	ecx, DWORD PTR __Pnode$[ebp]
	push	ecx
	mov	ecx, DWORD PTR _this$[ebp]
	add	ecx, 12					; 0000000cH
	call	?deallocate@?$allocator@U_Node@?$_List_nod@UGraveRecord@GraveMarkers@@V?$allocator@UGraveRecord@GraveMarkers@@@std@@@std@@@std@@QAEXPAU_Node@?$_List_nod@UGraveRecord@GraveMarkers@@V?$allocator@UGraveRecord@GraveMarkers@@@std@@@2@I@Z ; std::allocator<std::_List_nod<GraveMarkers::GraveRecord,std::allocator<GraveMarkers::GraveRecord> >::_Node>::deallocate

; 1074 : 
; 1075 : 			--this->_Mysize;

	mov	edx, DWORD PTR _this$[ebp]
	mov	eax, DWORD PTR [edx+8]
	sub	eax, 1
	mov	ecx, DWORD PTR _this$[ebp]
	mov	DWORD PTR [ecx+8], eax
$LN1@erase:

; 1076 : 			}
; 1077 : 		return (_Make_iter(_Where));

	sub	esp, 12					; 0000000cH
	mov	ecx, esp
	mov	DWORD PTR $T135081[ebp], esp
	lea	edx, DWORD PTR __Where$[ebp]
	push	edx
	call	??0?$_List_const_iterator@V?$_List_val@UGraveRecord@GraveMarkers@@V?$allocator@UGraveRecord@GraveMarkers@@@std@@@std@@@std@@QAE@ABV01@@Z
	mov	DWORD PTR tv199[ebp], eax
	mov	eax, DWORD PTR ___$ReturnUdt$[ebp]
	push	eax
	mov	ecx, DWORD PTR _this$[ebp]
	call	?_Make_iter@?$list@UGraveRecord@GraveMarkers@@V?$allocator@UGraveRecord@GraveMarkers@@@std@@@std@@QBE?AV?$_List_iterator@V?$_List_val@UGraveRecord@GraveMarkers@@V?$allocator@UGraveRecord@GraveMarkers@@@std@@@std@@@2@V?$_List_const_iterator@V?$_List_val@UGraveRecord@GraveMarkers@@V?$allocator@UGraveRecord@GraveMarkers@@@std@@@std@@@2@@Z ; std::list<GraveMarkers::GraveRecord,std::allocator<GraveMarkers::GraveRecord> >::_Make_iter
	mov	DWORD PTR tv200[ebp], eax
	mov	ecx, DWORD PTR $T135086[ebp]
	or	ecx, 1
	mov	DWORD PTR $T135086[ebp], ecx
	mov	BYTE PTR __$EHRec$[ebp+8], 0
	lea	ecx, DWORD PTR __Where$[ebp]
	call	??1?$_List_const_iterator@V?$_List_val@UGraveRecord@GraveMarkers@@V?$allocator@UGraveRecord@GraveMarkers@@@std@@@std@@@std@@QAE@XZ
	mov	eax, DWORD PTR ___$ReturnUdt$[ebp]

; 1078 : 		}

	mov	ecx, DWORD PTR __$EHRec$[ebp]
	mov	DWORD PTR fs:0, ecx
	pop	ecx
	pop	edi
	pop	esi
	add	esp, 56					; 00000038H
	cmp	ebp, esp
	call	__RTC_CheckEsp
	mov	esp, ebp
	pop	ebp
	ret	16					; 00000010H
_TEXT	ENDS
;	COMDAT text$x
text$x	SEGMENT
__unwindfunclet$?erase@?$list@UGraveRecord@GraveMarkers@@V?$allocator@UGraveRecord@GraveMarkers@@@std@@@std@@QAE?AV?$_List_iterator@V?$_List_val@UGraveRecord@GraveMarkers@@V?$allocator@UGraveRecord@GraveMarkers@@@std@@@std@@@2@V?$_List_const_iterator@V?$_List_val@UGraveRecord@GraveMarkers@@V?$allocator@UGraveRecord@GraveMarkers@@@std@@@std@@@2@@Z$0:
	lea	ecx, DWORD PTR __Where$[ebp]
	jmp	??1?$_List_const_iterator@V?$_List_val@UGraveRecord@GraveMarkers@@V?$allocator@UGraveRecord@GraveMarkers@@@std@@@std@@@std@@QAE@XZ
__unwindfunclet$?erase@?$list@UGraveRecord@GraveMarkers@@V?$allocator@UGraveRecord@GraveMarkers@@@std@@@std@@QAE?AV?$_List_iterator@V?$_List_val@UGraveRecord@GraveMarkers@@V?$allocator@UGraveRecord@GraveMarkers@@@std@@@std@@@2@V?$_List_const_iterator@V?$_List_val@UGraveRecord@GraveMarkers@@V?$allocator@UGraveRecord@GraveMarkers@@@std@@@std@@@2@@Z$1:
	lea	ecx, DWORD PTR $T135080[ebp]
	jmp	??1?$_List_const_iterator@V?$_List_val@UGraveRecord@GraveMarkers@@V?$allocator@UGraveRecord@GraveMarkers@@@std@@@std@@@std@@QAE@XZ
__unwindfunclet$?erase@?$list@UGraveRecord@GraveMarkers@@V?$allocator@UGraveRecord@GraveMarkers@@@std@@@std@@QAE?AV?$_List_iterator@V?$_List_val@UGraveRecord@GraveMarkers@@V?$allocator@UGraveRecord@GraveMarkers@@@std@@@std@@@2@V?$_List_const_iterator@V?$_List_val@UGraveRecord@GraveMarkers@@V?$allocator@UGraveRecord@GraveMarkers@@@std@@@std@@@2@@Z$3:
	mov	eax, DWORD PTR $T135086[ebp]
	and	eax, 1
	je	$LN10@erase
	and	DWORD PTR $T135086[ebp], -2		; fffffffeH
	mov	ecx, DWORD PTR ___$ReturnUdt$[ebp]
	jmp	??1?$_List_iterator@V?$_List_val@UGraveRecord@GraveMarkers@@V?$allocator@UGraveRecord@GraveMarkers@@@std@@@std@@@std@@QAE@XZ
$LN10@erase:
	ret	0
__ehhandler$?erase@?$list@UGraveRecord@GraveMarkers@@V?$allocator@UGraveRecord@GraveMarkers@@@std@@@std@@QAE?AV?$_List_iterator@V?$_List_val@UGraveRecord@GraveMarkers@@V?$allocator@UGraveRecord@GraveMarkers@@@std@@@std@@@2@V?$_List_const_iterator@V?$_List_val@UGraveRecord@GraveMarkers@@V?$allocator@UGraveRecord@GraveMarkers@@@std@@@std@@@2@@Z:
	mov	edx, DWORD PTR [esp+8]
	lea	eax, DWORD PTR [edx+12]
	mov	ecx, DWORD PTR [edx-56]
	xor	ecx, eax
	call	@__security_check_cookie@4
	mov	eax, OFFSET __ehfuncinfo$?erase@?$list@UGraveRecord@GraveMarkers@@V?$allocator@UGraveRecord@GraveMarkers@@@std@@@std@@QAE?AV?$_List_iterator@V?$_List_val@UGraveRecord@GraveMarkers@@V?$allocator@UGraveRecord@GraveMarkers@@@std@@@std@@@2@V?$_List_const_iterator@V?$_List_val@UGraveRecord@GraveMarkers@@V?$allocator@UGraveRecord@GraveMarkers@@@std@@@std@@@2@@Z
	jmp	___CxxFrameHandler3
text$x	ENDS
?erase@?$list@UGraveRecord@GraveMarkers@@V?$allocator@UGraveRecord@GraveMarkers@@@std@@@std@@QAE?AV?$_List_iterator@V?$_List_val@UGraveRecord@GraveMarkers@@V?$allocator@UGraveRecord@GraveMarkers@@@std@@@std@@@2@V?$_List_const_iterator@V?$_List_val@UGraveRecord@GraveMarkers@@V?$allocator@UGraveRecord@GraveMarkers@@@std@@@std@@@2@@Z ENDP ; std::list<GraveMarkers::GraveRecord,std::allocator<GraveMarkers::GraveRecord> >::erase
; Function compile flags: /Odtp /RTCsu
; File c:\program files (x86)\microsoft visual studio 10.0\vc\include\xutility
;	COMDAT ?_Getcont@_Iterator_base12@std@@QBEPBU_Container_base12@2@XZ
_TEXT	SEGMENT
tv66 = -8						; size = 4
_this$ = -4						; size = 4
?_Getcont@_Iterator_base12@std@@QBEPBU_Container_base12@2@XZ PROC ; std::_Iterator_base12::_Getcont, COMDAT
; _this$ = ecx

; 174  : 		{	// get owning container

	push	ebp
	mov	ebp, esp
	sub	esp, 8
	mov	DWORD PTR [ebp-8], -858993460		; ccccccccH
	mov	DWORD PTR [ebp-4], -858993460		; ccccccccH
	mov	DWORD PTR _this$[ebp], ecx

; 175  : 		return (_Myproxy == 0 ? 0 : _Myproxy->_Mycont);

	mov	eax, DWORD PTR _this$[ebp]
	cmp	DWORD PTR [eax], 0
	jne	SHORT $LN3@Getcont
	mov	DWORD PTR tv66[ebp], 0
	jmp	SHORT $LN4@Getcont
$LN3@Getcont:
	mov	ecx, DWORD PTR _this$[ebp]
	mov	edx, DWORD PTR [ecx]
	mov	eax, DWORD PTR [edx]
	mov	DWORD PTR tv66[ebp], eax
$LN4@Getcont:
	mov	eax, DWORD PTR tv66[ebp]

; 176  : 		}

	mov	esp, ebp
	pop	ebp
	ret	0
?_Getcont@_Iterator_base12@std@@QBEPBU_Container_base12@2@XZ ENDP ; std::_Iterator_base12::_Getcont
_TEXT	ENDS
PUBLIC	??D?$_List_iterator@V?$_List_val@UGraveRecord@GraveMarkers@@V?$allocator@UGraveRecord@GraveMarkers@@@std@@@std@@@std@@QBEAAUGraveRecord@GraveMarkers@@XZ ; std::_List_iterator<std::_List_val<GraveMarkers::GraveRecord,std::allocator<GraveMarkers::GraveRecord> > >::operator*
; Function compile flags: /Odtp /RTCsu
; File c:\program files (x86)\microsoft visual studio 10.0\vc\include\list
;	COMDAT ??C?$_List_iterator@V?$_List_val@UGraveRecord@GraveMarkers@@V?$allocator@UGraveRecord@GraveMarkers@@@std@@@std@@@std@@QBEPAUGraveRecord@GraveMarkers@@XZ
_TEXT	SEGMENT
_this$ = -4						; size = 4
??C?$_List_iterator@V?$_List_val@UGraveRecord@GraveMarkers@@V?$allocator@UGraveRecord@GraveMarkers@@@std@@@std@@@std@@QBEPAUGraveRecord@GraveMarkers@@XZ PROC ; std::_List_iterator<std::_List_val<GraveMarkers::GraveRecord,std::allocator<GraveMarkers::GraveRecord> > >::operator->, COMDAT
; _this$ = ecx

; 364  : 		{	// return pointer to class object

	push	ebp
	mov	ebp, esp
	push	ecx
	mov	DWORD PTR [ebp-4], -858993460		; ccccccccH
	mov	DWORD PTR _this$[ebp], ecx

; 365  : 		return (&**this);

	mov	ecx, DWORD PTR _this$[ebp]
	call	??D?$_List_iterator@V?$_List_val@UGraveRecord@GraveMarkers@@V?$allocator@UGraveRecord@GraveMarkers@@@std@@@std@@@std@@QBEAAUGraveRecord@GraveMarkers@@XZ ; std::_List_iterator<std::_List_val<GraveMarkers::GraveRecord,std::allocator<GraveMarkers::GraveRecord> > >::operator*

; 366  : 		}

	add	esp, 4
	cmp	ebp, esp
	call	__RTC_CheckEsp
	mov	esp, ebp
	pop	ebp
	ret	0
??C?$_List_iterator@V?$_List_val@UGraveRecord@GraveMarkers@@V?$allocator@UGraveRecord@GraveMarkers@@@std@@@std@@@std@@QBEPAUGraveRecord@GraveMarkers@@XZ ENDP ; std::_List_iterator<std::_List_val<GraveMarkers::GraveRecord,std::allocator<GraveMarkers::GraveRecord> > >::operator->
_TEXT	ENDS
PUBLIC	??E?$_List_const_iterator@V?$_List_val@UGraveRecord@GraveMarkers@@V?$allocator@UGraveRecord@GraveMarkers@@@std@@@std@@@std@@QAEAAV01@XZ ; std::_List_const_iterator<std::_List_val<GraveMarkers::GraveRecord,std::allocator<GraveMarkers::GraveRecord> > >::operator++
; Function compile flags: /Odtp /RTCsu
;	COMDAT ??E?$_List_iterator@V?$_List_val@UGraveRecord@GraveMarkers@@V?$allocator@UGraveRecord@GraveMarkers@@@std@@@std@@@std@@QAEAAV01@XZ
_TEXT	SEGMENT
_this$ = -4						; size = 4
??E?$_List_iterator@V?$_List_val@UGraveRecord@GraveMarkers@@V?$allocator@UGraveRecord@GraveMarkers@@@std@@@std@@@std@@QAEAAV01@XZ PROC ; std::_List_iterator<std::_List_val<GraveMarkers::GraveRecord,std::allocator<GraveMarkers::GraveRecord> > >::operator++, COMDAT
; _this$ = ecx

; 369  : 		{	// preincrement

	push	ebp
	mov	ebp, esp
	push	ecx
	mov	DWORD PTR [ebp-4], -858993460		; ccccccccH
	mov	DWORD PTR _this$[ebp], ecx

; 370  : 		++(*(_Mybase *)this);

	mov	ecx, DWORD PTR _this$[ebp]
	call	??E?$_List_const_iterator@V?$_List_val@UGraveRecord@GraveMarkers@@V?$allocator@UGraveRecord@GraveMarkers@@@std@@@std@@@std@@QAEAAV01@XZ ; std::_List_const_iterator<std::_List_val<GraveMarkers::GraveRecord,std::allocator<GraveMarkers::GraveRecord> > >::operator++

; 371  : 		return (*this);

	mov	eax, DWORD PTR _this$[ebp]

; 372  : 		}

	add	esp, 4
	cmp	ebp, esp
	call	__RTC_CheckEsp
	mov	esp, ebp
	pop	ebp
	ret	0
??E?$_List_iterator@V?$_List_val@UGraveRecord@GraveMarkers@@V?$allocator@UGraveRecord@GraveMarkers@@@std@@@std@@@std@@QAEAAV01@XZ ENDP ; std::_List_iterator<std::_List_val<GraveMarkers::GraveRecord,std::allocator<GraveMarkers::GraveRecord> > >::operator++
_TEXT	ENDS
PUBLIC	??8?$_List_const_iterator@V?$_List_val@UGraveRecord@GraveMarkers@@V?$allocator@UGraveRecord@GraveMarkers@@@std@@@std@@@std@@QBE_NABV01@@Z ; std::_List_const_iterator<std::_List_val<GraveMarkers::GraveRecord,std::allocator<GraveMarkers::GraveRecord> > >::operator==
; Function compile flags: /Odtp /RTCsu
;	COMDAT ??9?$_List_const_iterator@V?$_List_val@UGraveRecord@GraveMarkers@@V?$allocator@UGraveRecord@GraveMarkers@@@std@@@std@@@std@@QBE_NABV01@@Z
_TEXT	SEGMENT
_this$ = -4						; size = 4
__Right$ = 8						; size = 4
??9?$_List_const_iterator@V?$_List_val@UGraveRecord@GraveMarkers@@V?$allocator@UGraveRecord@GraveMarkers@@@std@@@std@@@std@@QBE_NABV01@@Z PROC ; std::_List_const_iterator<std::_List_val<GraveMarkers::GraveRecord,std::allocator<GraveMarkers::GraveRecord> > >::operator!=, COMDAT
; _this$ = ecx

; 299  : 		{	// test for iterator inequality

	push	ebp
	mov	ebp, esp
	push	ecx
	mov	DWORD PTR [ebp-4], -858993460		; ccccccccH
	mov	DWORD PTR _this$[ebp], ecx

; 300  : 		return (!(*this == _Right));

	mov	eax, DWORD PTR __Right$[ebp]
	push	eax
	mov	ecx, DWORD PTR _this$[ebp]
	call	??8?$_List_const_iterator@V?$_List_val@UGraveRecord@GraveMarkers@@V?$allocator@UGraveRecord@GraveMarkers@@@std@@@std@@@std@@QBE_NABV01@@Z ; std::_List_const_iterator<std::_List_val<GraveMarkers::GraveRecord,std::allocator<GraveMarkers::GraveRecord> > >::operator==
	movzx	eax, al
	neg	eax
	sbb	eax, eax
	add	eax, 1

; 301  : 		}

	add	esp, 4
	cmp	ebp, esp
	call	__RTC_CheckEsp
	mov	esp, ebp
	pop	ebp
	ret	4
??9?$_List_const_iterator@V?$_List_val@UGraveRecord@GraveMarkers@@V?$allocator@UGraveRecord@GraveMarkers@@@std@@@std@@@std@@QBE_NABV01@@Z ENDP ; std::_List_const_iterator<std::_List_val<GraveMarkers::GraveRecord,std::allocator<GraveMarkers::GraveRecord> > >::operator!=
_TEXT	ENDS
PUBLIC	??1?$_Iterator012@Urandom_access_iterator_tag@std@@UVector2D@@HPBU3@ABU3@U_Iterator_base12@2@@std@@QAE@XZ ; std::_Iterator012<std::random_access_iterator_tag,Vector2D,int,Vector2D const *,Vector2D const &,std::_Iterator_base12>::~_Iterator012<std::random_access_iterator_tag,Vector2D,int,Vector2D const *,Vector2D const &,std::_Iterator_base12>
; Function compile flags: /Odtp /RTCsu
;	COMDAT ??1?$_Vector_const_iterator@V?$_Vector_val@UVector2D@@V?$allocator@UVector2D@@@std@@@std@@@std@@QAE@XZ
_TEXT	SEGMENT
_this$ = -4						; size = 4
??1?$_Vector_const_iterator@V?$_Vector_val@UVector2D@@V?$allocator@UVector2D@@@std@@@std@@@std@@QAE@XZ PROC ; std::_Vector_const_iterator<std::_Vector_val<Vector2D,std::allocator<Vector2D> > >::~_Vector_const_iterator<std::_Vector_val<Vector2D,std::allocator<Vector2D> > >, COMDAT
; _this$ = ecx
	push	ebp
	mov	ebp, esp
	push	ecx
	mov	DWORD PTR [ebp-4], -858993460		; ccccccccH
	mov	DWORD PTR _this$[ebp], ecx
	mov	ecx, DWORD PTR _this$[ebp]
