; Listing generated by Microsoft (R) Optimizing Compiler Version 16.00.40219.01 

	TITLE	C:\Users\Teaja\Documents\Artificial-Fun\LabRavenProjectTest\Raven\Raven_SensoryMemory.cpp
	.686P
	.XMM
	include listing.inc
	.model	flat

INCLUDELIB LIBCMTD
INCLUDELIB OLDNAMES

PUBLIC	?has_denorm@_Num_base@std@@2W4float_denorm_style@2@B ; std::_Num_base::has_denorm
PUBLIC	?has_denorm_loss@_Num_base@std@@2_NB		; std::_Num_base::has_denorm_loss
PUBLIC	?has_infinity@_Num_base@std@@2_NB		; std::_Num_base::has_infinity
PUBLIC	?has_quiet_NaN@_Num_base@std@@2_NB		; std::_Num_base::has_quiet_NaN
PUBLIC	?has_signaling_NaN@_Num_base@std@@2_NB		; std::_Num_base::has_signaling_NaN
PUBLIC	?is_bounded@_Num_base@std@@2_NB			; std::_Num_base::is_bounded
PUBLIC	?is_exact@_Num_base@std@@2_NB			; std::_Num_base::is_exact
PUBLIC	?is_iec559@_Num_base@std@@2_NB			; std::_Num_base::is_iec559
PUBLIC	?is_integer@_Num_base@std@@2_NB			; std::_Num_base::is_integer
PUBLIC	?is_modulo@_Num_base@std@@2_NB			; std::_Num_base::is_modulo
PUBLIC	?is_signed@_Num_base@std@@2_NB			; std::_Num_base::is_signed
PUBLIC	?is_specialized@_Num_base@std@@2_NB		; std::_Num_base::is_specialized
PUBLIC	?tinyness_before@_Num_base@std@@2_NB		; std::_Num_base::tinyness_before
PUBLIC	?traps@_Num_base@std@@2_NB			; std::_Num_base::traps
PUBLIC	?round_style@_Num_base@std@@2W4float_round_style@2@B ; std::_Num_base::round_style
PUBLIC	?digits@_Num_base@std@@2HB			; std::_Num_base::digits
PUBLIC	?digits10@_Num_base@std@@2HB			; std::_Num_base::digits10
PUBLIC	?max_digits10@_Num_base@std@@2HB		; std::_Num_base::max_digits10
PUBLIC	?max_exponent@_Num_base@std@@2HB		; std::_Num_base::max_exponent
PUBLIC	?max_exponent10@_Num_base@std@@2HB		; std::_Num_base::max_exponent10
PUBLIC	?min_exponent@_Num_base@std@@2HB		; std::_Num_base::min_exponent
PUBLIC	?min_exponent10@_Num_base@std@@2HB		; std::_Num_base::min_exponent10
PUBLIC	?radix@_Num_base@std@@2HB			; std::_Num_base::radix
PUBLIC	?is_bounded@_Num_int_base@std@@2_NB		; std::_Num_int_base::is_bounded
PUBLIC	?is_exact@_Num_int_base@std@@2_NB		; std::_Num_int_base::is_exact
PUBLIC	?is_integer@_Num_int_base@std@@2_NB		; std::_Num_int_base::is_integer
PUBLIC	?is_modulo@_Num_int_base@std@@2_NB		; std::_Num_int_base::is_modulo
PUBLIC	?is_specialized@_Num_int_base@std@@2_NB		; std::_Num_int_base::is_specialized
PUBLIC	?radix@_Num_int_base@std@@2HB			; std::_Num_int_base::radix
PUBLIC	?has_denorm@_Num_float_base@std@@2W4float_denorm_style@2@B ; std::_Num_float_base::has_denorm
PUBLIC	?has_denorm_loss@_Num_float_base@std@@2_NB	; std::_Num_float_base::has_denorm_loss
PUBLIC	?has_infinity@_Num_float_base@std@@2_NB		; std::_Num_float_base::has_infinity
PUBLIC	?has_quiet_NaN@_Num_float_base@std@@2_NB	; std::_Num_float_base::has_quiet_NaN
PUBLIC	?has_signaling_NaN@_Num_float_base@std@@2_NB	; std::_Num_float_base::has_signaling_NaN
PUBLIC	?is_bounded@_Num_float_base@std@@2_NB		; std::_Num_float_base::is_bounded
PUBLIC	?is_exact@_Num_float_base@std@@2_NB		; std::_Num_float_base::is_exact
PUBLIC	?is_iec559@_Num_float_base@std@@2_NB		; std::_Num_float_base::is_iec559
PUBLIC	?is_integer@_Num_float_base@std@@2_NB		; std::_Num_float_base::is_integer
PUBLIC	?is_modulo@_Num_float_base@std@@2_NB		; std::_Num_float_base::is_modulo
PUBLIC	?is_signed@_Num_float_base@std@@2_NB		; std::_Num_float_base::is_signed
PUBLIC	?is_specialized@_Num_float_base@std@@2_NB	; std::_Num_float_base::is_specialized
PUBLIC	?tinyness_before@_Num_float_base@std@@2_NB	; std::_Num_float_base::tinyness_before
PUBLIC	?traps@_Num_float_base@std@@2_NB		; std::_Num_float_base::traps
PUBLIC	?round_style@_Num_float_base@std@@2W4float_round_style@2@B ; std::_Num_float_base::round_style
PUBLIC	?radix@_Num_float_base@std@@2HB			; std::_Num_float_base::radix
PUBLIC	?is_signed@?$numeric_limits@D@std@@2_NB		; std::numeric_limits<char>::is_signed
PUBLIC	?digits@?$numeric_limits@D@std@@2HB		; std::numeric_limits<char>::digits
PUBLIC	?digits10@?$numeric_limits@D@std@@2HB		; std::numeric_limits<char>::digits10
PUBLIC	?max_digits10@?$numeric_limits@D@std@@2HB	; std::numeric_limits<char>::max_digits10
PUBLIC	?is_signed@?$numeric_limits@_W@std@@2_NB	; std::numeric_limits<wchar_t>::is_signed
PUBLIC	?digits@?$numeric_limits@_W@std@@2HB		; std::numeric_limits<wchar_t>::digits
PUBLIC	?digits10@?$numeric_limits@_W@std@@2HB		; std::numeric_limits<wchar_t>::digits10
PUBLIC	?max_digits10@?$numeric_limits@_W@std@@2HB	; std::numeric_limits<wchar_t>::max_digits10
PUBLIC	?is_modulo@?$numeric_limits@_N@std@@2_NB	; std::numeric_limits<bool>::is_modulo
PUBLIC	?is_signed@?$numeric_limits@_N@std@@2_NB	; std::numeric_limits<bool>::is_signed
PUBLIC	?digits@?$numeric_limits@_N@std@@2HB		; std::numeric_limits<bool>::digits
PUBLIC	?digits10@?$numeric_limits@_N@std@@2HB		; std::numeric_limits<bool>::digits10
PUBLIC	?max_digits10@?$numeric_limits@_N@std@@2HB	; std::numeric_limits<bool>::max_digits10
PUBLIC	?is_signed@?$numeric_limits@C@std@@2_NB		; std::numeric_limits<signed char>::is_signed
PUBLIC	?digits@?$numeric_limits@C@std@@2HB		; std::numeric_limits<signed char>::digits
PUBLIC	?digits10@?$numeric_limits@C@std@@2HB		; std::numeric_limits<signed char>::digits10
PUBLIC	?max_digits10@?$numeric_limits@C@std@@2HB	; std::numeric_limits<signed char>::max_digits10
PUBLIC	?is_signed@?$numeric_limits@E@std@@2_NB		; std::numeric_limits<unsigned char>::is_signed
PUBLIC	?digits@?$numeric_limits@E@std@@2HB		; std::numeric_limits<unsigned char>::digits
PUBLIC	?digits10@?$numeric_limits@E@std@@2HB		; std::numeric_limits<unsigned char>::digits10
PUBLIC	?max_digits10@?$numeric_limits@E@std@@2HB	; std::numeric_limits<unsigned char>::max_digits10
PUBLIC	?is_signed@?$numeric_limits@F@std@@2_NB		; std::numeric_limits<short>::is_signed
PUBLIC	?digits@?$numeric_limits@F@std@@2HB		; std::numeric_limits<short>::digits
PUBLIC	?digits10@?$numeric_limits@F@std@@2HB		; std::numeric_limits<short>::digits10
PUBLIC	?max_digits10@?$numeric_limits@F@std@@2HB	; std::numeric_limits<short>::max_digits10
PUBLIC	?is_signed@?$numeric_limits@G@std@@2_NB		; std::numeric_limits<unsigned short>::is_signed
PUBLIC	?digits@?$numeric_limits@G@std@@2HB		; std::numeric_limits<unsigned short>::digits
PUBLIC	?digits10@?$numeric_limits@G@std@@2HB		; std::numeric_limits<unsigned short>::digits10
PUBLIC	?max_digits10@?$numeric_limits@G@std@@2HB	; std::numeric_limits<unsigned short>::max_digits10
PUBLIC	?is_signed@?$numeric_limits@H@std@@2_NB		; std::numeric_limits<int>::is_signed
PUBLIC	?digits@?$numeric_limits@H@std@@2HB		; std::numeric_limits<int>::digits
PUBLIC	?digits10@?$numeric_limits@H@std@@2HB		; std::numeric_limits<int>::digits10
PUBLIC	?max_digits10@?$numeric_limits@H@std@@2HB	; std::numeric_limits<int>::max_digits10
PUBLIC	?is_signed@?$numeric_limits@I@std@@2_NB		; std::numeric_limits<unsigned int>::is_signed
PUBLIC	?digits@?$numeric_limits@I@std@@2HB		; std::numeric_limits<unsigned int>::digits
PUBLIC	?digits10@?$numeric_limits@I@std@@2HB		; std::numeric_limits<unsigned int>::digits10
PUBLIC	?max_digits10@?$numeric_limits@I@std@@2HB	; std::numeric_limits<unsigned int>::max_digits10
PUBLIC	?is_signed@?$numeric_limits@J@std@@2_NB		; std::numeric_limits<long>::is_signed
PUBLIC	?digits@?$numeric_limits@J@std@@2HB		; std::numeric_limits<long>::digits
PUBLIC	?digits10@?$numeric_limits@J@std@@2HB		; std::numeric_limits<long>::digits10
PUBLIC	?max_digits10@?$numeric_limits@J@std@@2HB	; std::numeric_limits<long>::max_digits10
PUBLIC	?is_signed@?$numeric_limits@K@std@@2_NB		; std::numeric_limits<unsigned long>::is_signed
PUBLIC	?digits@?$numeric_limits@K@std@@2HB		; std::numeric_limits<unsigned long>::digits
PUBLIC	?digits10@?$numeric_limits@K@std@@2HB		; std::numeric_limits<unsigned long>::digits10
PUBLIC	?max_digits10@?$numeric_limits@K@std@@2HB	; std::numeric_limits<unsigned long>::max_digits10
PUBLIC	?is_signed@?$numeric_limits@_J@std@@2_NB	; std::numeric_limits<__int64>::is_signed
PUBLIC	?digits@?$numeric_limits@_J@std@@2HB		; std::numeric_limits<__int64>::digits
PUBLIC	?digits10@?$numeric_limits@_J@std@@2HB		; std::numeric_limits<__int64>::digits10
PUBLIC	?max_digits10@?$numeric_limits@_J@std@@2HB	; std::numeric_limits<__int64>::max_digits10
PUBLIC	?is_signed@?$numeric_limits@_K@std@@2_NB	; std::numeric_limits<unsigned __int64>::is_signed
PUBLIC	?digits@?$numeric_limits@_K@std@@2HB		; std::numeric_limits<unsigned __int64>::digits
PUBLIC	?digits10@?$numeric_limits@_K@std@@2HB		; std::numeric_limits<unsigned __int64>::digits10
PUBLIC	?max_digits10@?$numeric_limits@_K@std@@2HB	; std::numeric_limits<unsigned __int64>::max_digits10
PUBLIC	?digits@?$numeric_limits@M@std@@2HB		; std::numeric_limits<float>::digits
PUBLIC	?digits10@?$numeric_limits@M@std@@2HB		; std::numeric_limits<float>::digits10
PUBLIC	?max_digits10@?$numeric_limits@M@std@@2HB	; std::numeric_limits<float>::max_digits10
PUBLIC	?max_exponent@?$numeric_limits@M@std@@2HB	; std::numeric_limits<float>::max_exponent
PUBLIC	?max_exponent10@?$numeric_limits@M@std@@2HB	; std::numeric_limits<float>::max_exponent10
PUBLIC	?min_exponent@?$numeric_limits@M@std@@2HB	; std::numeric_limits<float>::min_exponent
PUBLIC	?min_exponent10@?$numeric_limits@M@std@@2HB	; std::numeric_limits<float>::min_exponent10
PUBLIC	?digits@?$numeric_limits@N@std@@2HB		; std::numeric_limits<double>::digits
PUBLIC	?digits10@?$numeric_limits@N@std@@2HB		; std::numeric_limits<double>::digits10
PUBLIC	?max_digits10@?$numeric_limits@N@std@@2HB	; std::numeric_limits<double>::max_digits10
PUBLIC	?max_exponent@?$numeric_limits@N@std@@2HB	; std::numeric_limits<double>::max_exponent
PUBLIC	?max_exponent10@?$numeric_limits@N@std@@2HB	; std::numeric_limits<double>::max_exponent10
PUBLIC	?min_exponent@?$numeric_limits@N@std@@2HB	; std::numeric_limits<double>::min_exponent
PUBLIC	?min_exponent10@?$numeric_limits@N@std@@2HB	; std::numeric_limits<double>::min_exponent10
PUBLIC	?digits@?$numeric_limits@O@std@@2HB		; std::numeric_limits<long double>::digits
PUBLIC	?digits10@?$numeric_limits@O@std@@2HB		; std::numeric_limits<long double>::digits10
PUBLIC	?max_digits10@?$numeric_limits@O@std@@2HB	; std::numeric_limits<long double>::max_digits10
PUBLIC	?max_exponent@?$numeric_limits@O@std@@2HB	; std::numeric_limits<long double>::max_exponent
PUBLIC	?max_exponent10@?$numeric_limits@O@std@@2HB	; std::numeric_limits<long double>::max_exponent10
PUBLIC	?min_exponent@?$numeric_limits@O@std@@2HB	; std::numeric_limits<long double>::min_exponent
PUBLIC	?min_exponent10@?$numeric_limits@O@std@@2HB	; std::numeric_limits<long double>::min_exponent10
PUBLIC	?value@?$integral_constant@_N$0A@@tr1@std@@2_NB	; std::tr1::integral_constant<bool,0>::value
PUBLIC	?value@?$integral_constant@_N$00@tr1@std@@2_NB	; std::tr1::integral_constant<bool,1>::value
PUBLIC	?value@?$integral_constant@I$0A@@tr1@std@@2IB	; std::tr1::integral_constant<unsigned int,0>::value
PUBLIC	?_Rank@?$_Arithmetic_traits@_N@std@@2HB		; std::_Arithmetic_traits<bool>::_Rank
PUBLIC	?_Rank@?$_Arithmetic_traits@D@std@@2HB		; std::_Arithmetic_traits<char>::_Rank
PUBLIC	?_Rank@?$_Arithmetic_traits@C@std@@2HB		; std::_Arithmetic_traits<signed char>::_Rank
PUBLIC	?_Rank@?$_Arithmetic_traits@E@std@@2HB		; std::_Arithmetic_traits<unsigned char>::_Rank
PUBLIC	?_Rank@?$_Arithmetic_traits@F@std@@2HB		; std::_Arithmetic_traits<short>::_Rank
PUBLIC	?_Rank@?$_Arithmetic_traits@G@std@@2HB		; std::_Arithmetic_traits<unsigned short>::_Rank
PUBLIC	?_Rank@?$_Arithmetic_traits@H@std@@2HB		; std::_Arithmetic_traits<int>::_Rank
PUBLIC	?_Rank@?$_Arithmetic_traits@I@std@@2HB		; std::_Arithmetic_traits<unsigned int>::_Rank
PUBLIC	?_Rank@?$_Arithmetic_traits@J@std@@2HB		; std::_Arithmetic_traits<long>::_Rank
PUBLIC	?_Rank@?$_Arithmetic_traits@K@std@@2HB		; std::_Arithmetic_traits<unsigned long>::_Rank
PUBLIC	?_Rank@?$_Arithmetic_traits@_J@std@@2HB		; std::_Arithmetic_traits<__int64>::_Rank
PUBLIC	?_Rank@?$_Arithmetic_traits@_K@std@@2HB		; std::_Arithmetic_traits<unsigned __int64>::_Rank
PUBLIC	?_Rank@?$_Arithmetic_traits@M@std@@2HB		; std::_Arithmetic_traits<float>::_Rank
PUBLIC	?_Rank@?$_Arithmetic_traits@N@std@@2HB		; std::_Arithmetic_traits<double>::_Rank
PUBLIC	?_Rank@?$_Arithmetic_traits@O@std@@2HB		; std::_Arithmetic_traits<long double>::_Rank
PUBLIC	?collate@?$_Locbase@H@std@@2HB			; std::_Locbase<int>::collate
PUBLIC	?ctype@?$_Locbase@H@std@@2HB			; std::_Locbase<int>::ctype
PUBLIC	?monetary@?$_Locbase@H@std@@2HB			; std::_Locbase<int>::monetary
PUBLIC	?numeric@?$_Locbase@H@std@@2HB			; std::_Locbase<int>::numeric
PUBLIC	?time@?$_Locbase@H@std@@2HB			; std::_Locbase<int>::time
PUBLIC	?messages@?$_Locbase@H@std@@2HB			; std::_Locbase<int>::messages
PUBLIC	?all@?$_Locbase@H@std@@2HB			; std::_Locbase<int>::all
PUBLIC	?none@?$_Locbase@H@std@@2HB			; std::_Locbase<int>::none
PUBLIC	?table_size@?$ctype@D@std@@2IB			; std::ctype<char>::table_size
PUBLIC	?skipws@?$_Iosb@H@std@@2W4_Fmtflags@12@B	; std::_Iosb<int>::skipws
PUBLIC	?unitbuf@?$_Iosb@H@std@@2W4_Fmtflags@12@B	; std::_Iosb<int>::unitbuf
PUBLIC	?uppercase@?$_Iosb@H@std@@2W4_Fmtflags@12@B	; std::_Iosb<int>::uppercase
PUBLIC	?showbase@?$_Iosb@H@std@@2W4_Fmtflags@12@B	; std::_Iosb<int>::showbase
PUBLIC	?showpoint@?$_Iosb@H@std@@2W4_Fmtflags@12@B	; std::_Iosb<int>::showpoint
PUBLIC	?showpos@?$_Iosb@H@std@@2W4_Fmtflags@12@B	; std::_Iosb<int>::showpos
PUBLIC	?left@?$_Iosb@H@std@@2W4_Fmtflags@12@B		; std::_Iosb<int>::left
PUBLIC	?right@?$_Iosb@H@std@@2W4_Fmtflags@12@B		; std::_Iosb<int>::right
PUBLIC	?internal@?$_Iosb@H@std@@2W4_Fmtflags@12@B	; std::_Iosb<int>::internal
PUBLIC	?dec@?$_Iosb@H@std@@2W4_Fmtflags@12@B		; std::_Iosb<int>::dec
PUBLIC	?oct@?$_Iosb@H@std@@2W4_Fmtflags@12@B		; std::_Iosb<int>::oct
PUBLIC	?hex@?$_Iosb@H@std@@2W4_Fmtflags@12@B		; std::_Iosb<int>::hex
PUBLIC	?scientific@?$_Iosb@H@std@@2W4_Fmtflags@12@B	; std::_Iosb<int>::scientific
PUBLIC	?fixed@?$_Iosb@H@std@@2W4_Fmtflags@12@B		; std::_Iosb<int>::fixed
PUBLIC	?hexfloat@?$_Iosb@H@std@@2W4_Fmtflags@12@B	; std::_Iosb<int>::hexfloat
PUBLIC	?boolalpha@?$_Iosb@H@std@@2W4_Fmtflags@12@B	; std::_Iosb<int>::boolalpha
PUBLIC	?_Stdio@?$_Iosb@H@std@@2W4_Fmtflags@12@B	; std::_Iosb<int>::_Stdio
PUBLIC	?adjustfield@?$_Iosb@H@std@@2W4_Fmtflags@12@B	; std::_Iosb<int>::adjustfield
PUBLIC	?basefield@?$_Iosb@H@std@@2W4_Fmtflags@12@B	; std::_Iosb<int>::basefield
PUBLIC	?floatfield@?$_Iosb@H@std@@2W4_Fmtflags@12@B	; std::_Iosb<int>::floatfield
PUBLIC	?goodbit@?$_Iosb@H@std@@2W4_Iostate@12@B	; std::_Iosb<int>::goodbit
PUBLIC	?eofbit@?$_Iosb@H@std@@2W4_Iostate@12@B		; std::_Iosb<int>::eofbit
PUBLIC	?failbit@?$_Iosb@H@std@@2W4_Iostate@12@B	; std::_Iosb<int>::failbit
PUBLIC	?badbit@?$_Iosb@H@std@@2W4_Iostate@12@B		; std::_Iosb<int>::badbit
PUBLIC	?_Hardfail@?$_Iosb@H@std@@2W4_Iostate@12@B	; std::_Iosb<int>::_Hardfail
PUBLIC	?in@?$_Iosb@H@std@@2W4_Openmode@12@B		; std::_Iosb<int>::in
PUBLIC	?out@?$_Iosb@H@std@@2W4_Openmode@12@B		; std::_Iosb<int>::out
PUBLIC	?ate@?$_Iosb@H@std@@2W4_Openmode@12@B		; std::_Iosb<int>::ate
PUBLIC	?app@?$_Iosb@H@std@@2W4_Openmode@12@B		; std::_Iosb<int>::app
PUBLIC	?trunc@?$_Iosb@H@std@@2W4_Openmode@12@B		; std::_Iosb<int>::trunc
PUBLIC	?_Nocreate@?$_Iosb@H@std@@2W4_Openmode@12@B	; std::_Iosb<int>::_Nocreate
PUBLIC	?_Noreplace@?$_Iosb@H@std@@2W4_Openmode@12@B	; std::_Iosb<int>::_Noreplace
PUBLIC	?binary@?$_Iosb@H@std@@2W4_Openmode@12@B	; std::_Iosb<int>::binary
PUBLIC	?beg@?$_Iosb@H@std@@2W4_Seekdir@12@B		; std::_Iosb<int>::beg
PUBLIC	?cur@?$_Iosb@H@std@@2W4_Seekdir@12@B		; std::_Iosb<int>::cur
PUBLIC	?end@?$_Iosb@H@std@@2W4_Seekdir@12@B		; std::_Iosb<int>::end
CONST	SEGMENT
_Pi	DQ	0400921f9f01b866er		; 3.14159
_colors	DD	0ffH
	DD	0ff0000H
	DD	0ff00H
	DD	00H
	DD	0c8c8ffH
	DD	0c8c8c8H
	DD	0ffffH
	DD	0aaffH
	DD	0aa00ffH
	DD	05a85H
	DD	0ffffffH
	DD	06400H
	DD	0ffff00H
	DD	0c8c8c8H
	DD	0e6e6ffH
	ORG $+4
_pi	DQ	0400921f9f01b866er		; 3.14159
$SG134077 DB	'< Raven_SensoryMemory::GetLastRecordedPositionOfOpponent'
	DB	'>: Attempting to get position of unrecorded bot', 00H
CONST	ENDS
;	COMDAT ?end@?$_Iosb@H@std@@2W4_Seekdir@12@B
CONST	SEGMENT
?end@?$_Iosb@H@std@@2W4_Seekdir@12@B DD 02H		; std::_Iosb<int>::end
CONST	ENDS
;	COMDAT ?cur@?$_Iosb@H@std@@2W4_Seekdir@12@B
CONST	SEGMENT
?cur@?$_Iosb@H@std@@2W4_Seekdir@12@B DD 01H		; std::_Iosb<int>::cur
CONST	ENDS
;	COMDAT ?beg@?$_Iosb@H@std@@2W4_Seekdir@12@B
CONST	SEGMENT
?beg@?$_Iosb@H@std@@2W4_Seekdir@12@B DD 00H		; std::_Iosb<int>::beg
CONST	ENDS
;	COMDAT ?binary@?$_Iosb@H@std@@2W4_Openmode@12@B
CONST	SEGMENT
?binary@?$_Iosb@H@std@@2W4_Openmode@12@B DD 020H	; std::_Iosb<int>::binary
CONST	ENDS
;	COMDAT ?_Noreplace@?$_Iosb@H@std@@2W4_Openmode@12@B
CONST	SEGMENT
?_Noreplace@?$_Iosb@H@std@@2W4_Openmode@12@B DD 080H	; std::_Iosb<int>::_Noreplace
CONST	ENDS
;	COMDAT ?_Nocreate@?$_Iosb@H@std@@2W4_Openmode@12@B
CONST	SEGMENT
?_Nocreate@?$_Iosb@H@std@@2W4_Openmode@12@B DD 040H	; std::_Iosb<int>::_Nocreate
CONST	ENDS
;	COMDAT ?trunc@?$_Iosb@H@std@@2W4_Openmode@12@B
CONST	SEGMENT
?trunc@?$_Iosb@H@std@@2W4_Openmode@12@B DD 010H		; std::_Iosb<int>::trunc
CONST	ENDS
;	COMDAT ?app@?$_Iosb@H@std@@2W4_Openmode@12@B
CONST	SEGMENT
?app@?$_Iosb@H@std@@2W4_Openmode@12@B DD 08H		; std::_Iosb<int>::app
CONST	ENDS
;	COMDAT ?ate@?$_Iosb@H@std@@2W4_Openmode@12@B
CONST	SEGMENT
?ate@?$_Iosb@H@std@@2W4_Openmode@12@B DD 04H		; std::_Iosb<int>::ate
CONST	ENDS
;	COMDAT ?out@?$_Iosb@H@std@@2W4_Openmode@12@B
CONST	SEGMENT
?out@?$_Iosb@H@std@@2W4_Openmode@12@B DD 02H		; std::_Iosb<int>::out
CONST	ENDS
;	COMDAT ?in@?$_Iosb@H@std@@2W4_Openmode@12@B
CONST	SEGMENT
?in@?$_Iosb@H@std@@2W4_Openmode@12@B DD 01H		; std::_Iosb<int>::in
CONST	ENDS
;	COMDAT ?_Hardfail@?$_Iosb@H@std@@2W4_Iostate@12@B
CONST	SEGMENT
?_Hardfail@?$_Iosb@H@std@@2W4_Iostate@12@B DD 010H	; std::_Iosb<int>::_Hardfail
CONST	ENDS
;	COMDAT ?badbit@?$_Iosb@H@std@@2W4_Iostate@12@B
CONST	SEGMENT
?badbit@?$_Iosb@H@std@@2W4_Iostate@12@B DD 04H		; std::_Iosb<int>::badbit
CONST	ENDS
;	COMDAT ?failbit@?$_Iosb@H@std@@2W4_Iostate@12@B
CONST	SEGMENT
?failbit@?$_Iosb@H@std@@2W4_Iostate@12@B DD 02H		; std::_Iosb<int>::failbit
CONST	ENDS
;	COMDAT ?eofbit@?$_Iosb@H@std@@2W4_Iostate@12@B
CONST	SEGMENT
?eofbit@?$_Iosb@H@std@@2W4_Iostate@12@B DD 01H		; std::_Iosb<int>::eofbit
CONST	ENDS
;	COMDAT ?goodbit@?$_Iosb@H@std@@2W4_Iostate@12@B
CONST	SEGMENT
?goodbit@?$_Iosb@H@std@@2W4_Iostate@12@B DD 00H		; std::_Iosb<int>::goodbit
CONST	ENDS
;	COMDAT ?floatfield@?$_Iosb@H@std@@2W4_Fmtflags@12@B
CONST	SEGMENT
?floatfield@?$_Iosb@H@std@@2W4_Fmtflags@12@B DD 03000H	; std::_Iosb<int>::floatfield
CONST	ENDS
;	COMDAT ?basefield@?$_Iosb@H@std@@2W4_Fmtflags@12@B
CONST	SEGMENT
?basefield@?$_Iosb@H@std@@2W4_Fmtflags@12@B DD 0e00H	; std::_Iosb<int>::basefield
CONST	ENDS
;	COMDAT ?adjustfield@?$_Iosb@H@std@@2W4_Fmtflags@12@B
CONST	SEGMENT
?adjustfield@?$_Iosb@H@std@@2W4_Fmtflags@12@B DD 01c0H	; std::_Iosb<int>::adjustfield
CONST	ENDS
;	COMDAT ?_Stdio@?$_Iosb@H@std@@2W4_Fmtflags@12@B
CONST	SEGMENT
?_Stdio@?$_Iosb@H@std@@2W4_Fmtflags@12@B DD 08000H	; std::_Iosb<int>::_Stdio
CONST	ENDS
;	COMDAT ?boolalpha@?$_Iosb@H@std@@2W4_Fmtflags@12@B
CONST	SEGMENT
?boolalpha@?$_Iosb@H@std@@2W4_Fmtflags@12@B DD 04000H	; std::_Iosb<int>::boolalpha
CONST	ENDS
;	COMDAT ?hexfloat@?$_Iosb@H@std@@2W4_Fmtflags@12@B
CONST	SEGMENT
?hexfloat@?$_Iosb@H@std@@2W4_Fmtflags@12@B DD 03000H	; std::_Iosb<int>::hexfloat
CONST	ENDS
;	COMDAT ?fixed@?$_Iosb@H@std@@2W4_Fmtflags@12@B
CONST	SEGMENT
?fixed@?$_Iosb@H@std@@2W4_Fmtflags@12@B DD 02000H	; std::_Iosb<int>::fixed
CONST	ENDS
;	COMDAT ?scientific@?$_Iosb@H@std@@2W4_Fmtflags@12@B
CONST	SEGMENT
?scientific@?$_Iosb@H@std@@2W4_Fmtflags@12@B DD 01000H	; std::_Iosb<int>::scientific
CONST	ENDS
;	COMDAT ?hex@?$_Iosb@H@std@@2W4_Fmtflags@12@B
CONST	SEGMENT
?hex@?$_Iosb@H@std@@2W4_Fmtflags@12@B DD 0800H		; std::_Iosb<int>::hex
CONST	ENDS
;	COMDAT ?oct@?$_Iosb@H@std@@2W4_Fmtflags@12@B
CONST	SEGMENT
?oct@?$_Iosb@H@std@@2W4_Fmtflags@12@B DD 0400H		; std::_Iosb<int>::oct
CONST	ENDS
;	COMDAT ?dec@?$_Iosb@H@std@@2W4_Fmtflags@12@B
CONST	SEGMENT
?dec@?$_Iosb@H@std@@2W4_Fmtflags@12@B DD 0200H		; std::_Iosb<int>::dec
CONST	ENDS
;	COMDAT ?internal@?$_Iosb@H@std@@2W4_Fmtflags@12@B
CONST	SEGMENT
?internal@?$_Iosb@H@std@@2W4_Fmtflags@12@B DD 0100H	; std::_Iosb<int>::internal
CONST	ENDS
;	COMDAT ?right@?$_Iosb@H@std@@2W4_Fmtflags@12@B
CONST	SEGMENT
?right@?$_Iosb@H@std@@2W4_Fmtflags@12@B DD 080H		; std::_Iosb<int>::right
CONST	ENDS
;	COMDAT ?left@?$_Iosb@H@std@@2W4_Fmtflags@12@B
CONST	SEGMENT
?left@?$_Iosb@H@std@@2W4_Fmtflags@12@B DD 040H		; std::_Iosb<int>::left
CONST	ENDS
;	COMDAT ?showpos@?$_Iosb@H@std@@2W4_Fmtflags@12@B
CONST	SEGMENT
?showpos@?$_Iosb@H@std@@2W4_Fmtflags@12@B DD 020H	; std::_Iosb<int>::showpos
CONST	ENDS
;	COMDAT ?showpoint@?$_Iosb@H@std@@2W4_Fmtflags@12@B
CONST	SEGMENT
?showpoint@?$_Iosb@H@std@@2W4_Fmtflags@12@B DD 010H	; std::_Iosb<int>::showpoint
CONST	ENDS
;	COMDAT ?showbase@?$_Iosb@H@std@@2W4_Fmtflags@12@B
CONST	SEGMENT
?showbase@?$_Iosb@H@std@@2W4_Fmtflags@12@B DD 08H	; std::_Iosb<int>::showbase
CONST	ENDS
;	COMDAT ?uppercase@?$_Iosb@H@std@@2W4_Fmtflags@12@B
CONST	SEGMENT
?uppercase@?$_Iosb@H@std@@2W4_Fmtflags@12@B DD 04H	; std::_Iosb<int>::uppercase
CONST	ENDS
;	COMDAT ?unitbuf@?$_Iosb@H@std@@2W4_Fmtflags@12@B
CONST	SEGMENT
?unitbuf@?$_Iosb@H@std@@2W4_Fmtflags@12@B DD 02H	; std::_Iosb<int>::unitbuf
CONST	ENDS
;	COMDAT ?skipws@?$_Iosb@H@std@@2W4_Fmtflags@12@B
CONST	SEGMENT
?skipws@?$_Iosb@H@std@@2W4_Fmtflags@12@B DD 01H		; std::_Iosb<int>::skipws
CONST	ENDS
;	COMDAT ?table_size@?$ctype@D@std@@2IB
CONST	SEGMENT
?table_size@?$ctype@D@std@@2IB DD 0100H			; std::ctype<char>::table_size
CONST	ENDS
;	COMDAT ?none@?$_Locbase@H@std@@2HB
CONST	SEGMENT
?none@?$_Locbase@H@std@@2HB DD 00H			; std::_Locbase<int>::none
CONST	ENDS
;	COMDAT ?all@?$_Locbase@H@std@@2HB
CONST	SEGMENT
?all@?$_Locbase@H@std@@2HB DD 03fH			; std::_Locbase<int>::all
CONST	ENDS
;	COMDAT ?messages@?$_Locbase@H@std@@2HB
CONST	SEGMENT
?messages@?$_Locbase@H@std@@2HB DD 020H			; std::_Locbase<int>::messages
CONST	ENDS
;	COMDAT ?time@?$_Locbase@H@std@@2HB
CONST	SEGMENT
?time@?$_Locbase@H@std@@2HB DD 010H			; std::_Locbase<int>::time
CONST	ENDS
;	COMDAT ?numeric@?$_Locbase@H@std@@2HB
CONST	SEGMENT
?numeric@?$_Locbase@H@std@@2HB DD 08H			; std::_Locbase<int>::numeric
CONST	ENDS
;	COMDAT ?monetary@?$_Locbase@H@std@@2HB
CONST	SEGMENT
?monetary@?$_Locbase@H@std@@2HB DD 04H			; std::_Locbase<int>::monetary
CONST	ENDS
;	COMDAT ?ctype@?$_Locbase@H@std@@2HB
CONST	SEGMENT
?ctype@?$_Locbase@H@std@@2HB DD 02H			; std::_Locbase<int>::ctype
CONST	ENDS
;	COMDAT ?collate@?$_Locbase@H@std@@2HB
CONST	SEGMENT
?collate@?$_Locbase@H@std@@2HB DD 01H			; std::_Locbase<int>::collate
CONST	ENDS
;	COMDAT ?_Rank@?$_Arithmetic_traits@O@std@@2HB
CONST	SEGMENT
?_Rank@?$_Arithmetic_traits@O@std@@2HB DD 09H		; std::_Arithmetic_traits<long double>::_Rank
CONST	ENDS
;	COMDAT ?_Rank@?$_Arithmetic_traits@N@std@@2HB
CONST	SEGMENT
?_Rank@?$_Arithmetic_traits@N@std@@2HB DD 08H		; std::_Arithmetic_traits<double>::_Rank
CONST	ENDS
;	COMDAT ?_Rank@?$_Arithmetic_traits@M@std@@2HB
CONST	SEGMENT
?_Rank@?$_Arithmetic_traits@M@std@@2HB DD 07H		; std::_Arithmetic_traits<float>::_Rank
CONST	ENDS
;	COMDAT ?_Rank@?$_Arithmetic_traits@_K@std@@2HB
CONST	SEGMENT
?_Rank@?$_Arithmetic_traits@_K@std@@2HB DD 06H		; std::_Arithmetic_traits<unsigned __int64>::_Rank
CONST	ENDS
;	COMDAT ?_Rank@?$_Arithmetic_traits@_J@std@@2HB
CONST	SEGMENT
?_Rank@?$_Arithmetic_traits@_J@std@@2HB DD 06H		; std::_Arithmetic_traits<__int64>::_Rank
CONST	ENDS
;	COMDAT ?_Rank@?$_Arithmetic_traits@K@std@@2HB
CONST	SEGMENT
?_Rank@?$_Arithmetic_traits@K@std@@2HB DD 05H		; std::_Arithmetic_traits<unsigned long>::_Rank
CONST	ENDS
;	COMDAT ?_Rank@?$_Arithmetic_traits@J@std@@2HB
CONST	SEGMENT
?_Rank@?$_Arithmetic_traits@J@std@@2HB DD 05H		; std::_Arithmetic_traits<long>::_Rank
CONST	ENDS
;	COMDAT ?_Rank@?$_Arithmetic_traits@I@std@@2HB
CONST	SEGMENT
?_Rank@?$_Arithmetic_traits@I@std@@2HB DD 04H		; std::_Arithmetic_traits<unsigned int>::_Rank
CONST	ENDS
;	COMDAT ?_Rank@?$_Arithmetic_traits@H@std@@2HB
CONST	SEGMENT
?_Rank@?$_Arithmetic_traits@H@std@@2HB DD 04H		; std::_Arithmetic_traits<int>::_Rank
CONST	ENDS
;	COMDAT ?_Rank@?$_Arithmetic_traits@G@std@@2HB
CONST	SEGMENT
?_Rank@?$_Arithmetic_traits@G@std@@2HB DD 03H		; std::_Arithmetic_traits<unsigned short>::_Rank
CONST	ENDS
;	COMDAT ?_Rank@?$_Arithmetic_traits@F@std@@2HB
CONST	SEGMENT
?_Rank@?$_Arithmetic_traits@F@std@@2HB DD 03H		; std::_Arithmetic_traits<short>::_Rank
CONST	ENDS
;	COMDAT ?_Rank@?$_Arithmetic_traits@E@std@@2HB
CONST	SEGMENT
?_Rank@?$_Arithmetic_traits@E@std@@2HB DD 02H		; std::_Arithmetic_traits<unsigned char>::_Rank
CONST	ENDS
;	COMDAT ?_Rank@?$_Arithmetic_traits@C@std@@2HB
CONST	SEGMENT
?_Rank@?$_Arithmetic_traits@C@std@@2HB DD 02H		; std::_Arithmetic_traits<signed char>::_Rank
CONST	ENDS
;	COMDAT ?_Rank@?$_Arithmetic_traits@D@std@@2HB
CONST	SEGMENT
?_Rank@?$_Arithmetic_traits@D@std@@2HB DD 02H		; std::_Arithmetic_traits<char>::_Rank
CONST	ENDS
;	COMDAT ?_Rank@?$_Arithmetic_traits@_N@std@@2HB
CONST	SEGMENT
?_Rank@?$_Arithmetic_traits@_N@std@@2HB DD 01H		; std::_Arithmetic_traits<bool>::_Rank
CONST	ENDS
;	COMDAT ?value@?$integral_constant@I$0A@@tr1@std@@2IB
CONST	SEGMENT
?value@?$integral_constant@I$0A@@tr1@std@@2IB DD 00H	; std::tr1::integral_constant<unsigned int,0>::value
CONST	ENDS
;	COMDAT ?value@?$integral_constant@_N$00@tr1@std@@2_NB
CONST	SEGMENT
?value@?$integral_constant@_N$00@tr1@std@@2_NB DB 01H	; std::tr1::integral_constant<bool,1>::value
CONST	ENDS
;	COMDAT ?value@?$integral_constant@_N$0A@@tr1@std@@2_NB
CONST	SEGMENT
?value@?$integral_constant@_N$0A@@tr1@std@@2_NB DB 00H	; std::tr1::integral_constant<bool,0>::value
CONST	ENDS
;	COMDAT ?min_exponent10@?$numeric_limits@O@std@@2HB
CONST	SEGMENT
?min_exponent10@?$numeric_limits@O@std@@2HB DD 0fffffecdH ; std::numeric_limits<long double>::min_exponent10
CONST	ENDS
;	COMDAT ?min_exponent@?$numeric_limits@O@std@@2HB
CONST	SEGMENT
?min_exponent@?$numeric_limits@O@std@@2HB DD 0fffffc03H	; std::numeric_limits<long double>::min_exponent
CONST	ENDS
;	COMDAT ?max_exponent10@?$numeric_limits@O@std@@2HB
CONST	SEGMENT
?max_exponent10@?$numeric_limits@O@std@@2HB DD 0134H	; std::numeric_limits<long double>::max_exponent10
CONST	ENDS
;	COMDAT ?max_exponent@?$numeric_limits@O@std@@2HB
CONST	SEGMENT
?max_exponent@?$numeric_limits@O@std@@2HB DD 0400H	; std::numeric_limits<long double>::max_exponent
CONST	ENDS
;	COMDAT ?max_digits10@?$numeric_limits@O@std@@2HB
CONST	SEGMENT
?max_digits10@?$numeric_limits@O@std@@2HB DD 011H	; std::numeric_limits<long double>::max_digits10
CONST	ENDS
;	COMDAT ?digits10@?$numeric_limits@O@std@@2HB
CONST	SEGMENT
?digits10@?$numeric_limits@O@std@@2HB DD 0fH		; std::numeric_limits<long double>::digits10
CONST	ENDS
;	COMDAT ?digits@?$numeric_limits@O@std@@2HB
CONST	SEGMENT
?digits@?$numeric_limits@O@std@@2HB DD 035H		; std::numeric_limits<long double>::digits
CONST	ENDS
;	COMDAT ?min_exponent10@?$numeric_limits@N@std@@2HB
CONST	SEGMENT
?min_exponent10@?$numeric_limits@N@std@@2HB DD 0fffffecdH ; std::numeric_limits<double>::min_exponent10
CONST	ENDS
;	COMDAT ?min_exponent@?$numeric_limits@N@std@@2HB
CONST	SEGMENT
?min_exponent@?$numeric_limits@N@std@@2HB DD 0fffffc03H	; std::numeric_limits<double>::min_exponent
CONST	ENDS
;	COMDAT ?max_exponent10@?$numeric_limits@N@std@@2HB
CONST	SEGMENT
?max_exponent10@?$numeric_limits@N@std@@2HB DD 0134H	; std::numeric_limits<double>::max_exponent10
CONST	ENDS
;	COMDAT ?max_exponent@?$numeric_limits@N@std@@2HB
CONST	SEGMENT
?max_exponent@?$numeric_limits@N@std@@2HB DD 0400H	; std::numeric_limits<double>::max_exponent
CONST	ENDS
;	COMDAT ?max_digits10@?$numeric_limits@N@std@@2HB
CONST	SEGMENT
?max_digits10@?$numeric_limits@N@std@@2HB DD 011H	; std::numeric_limits<double>::max_digits10
CONST	ENDS
;	COMDAT ?digits10@?$numeric_limits@N@std@@2HB
CONST	SEGMENT
?digits10@?$numeric_limits@N@std@@2HB DD 0fH		; std::numeric_limits<double>::digits10
CONST	ENDS
;	COMDAT ?digits@?$numeric_limits@N@std@@2HB
CONST	SEGMENT
?digits@?$numeric_limits@N@std@@2HB DD 035H		; std::numeric_limits<double>::digits
CONST	ENDS
;	COMDAT ?min_exponent10@?$numeric_limits@M@std@@2HB
CONST	SEGMENT
?min_exponent10@?$numeric_limits@M@std@@2HB DD 0ffffffdbH ; std::numeric_limits<float>::min_exponent10
CONST	ENDS
;	COMDAT ?min_exponent@?$numeric_limits@M@std@@2HB
CONST	SEGMENT
?min_exponent@?$numeric_limits@M@std@@2HB DD 0ffffff83H	; std::numeric_limits<float>::min_exponent
CONST	ENDS
;	COMDAT ?max_exponent10@?$numeric_limits@M@std@@2HB
CONST	SEGMENT
?max_exponent10@?$numeric_limits@M@std@@2HB DD 026H	; std::numeric_limits<float>::max_exponent10
CONST	ENDS
;	COMDAT ?max_exponent@?$numeric_limits@M@std@@2HB
CONST	SEGMENT
?max_exponent@?$numeric_limits@M@std@@2HB DD 080H	; std::numeric_limits<float>::max_exponent
CONST	ENDS
;	COMDAT ?max_digits10@?$numeric_limits@M@std@@2HB
CONST	SEGMENT
?max_digits10@?$numeric_limits@M@std@@2HB DD 08H	; std::numeric_limits<float>::max_digits10
CONST	ENDS
;	COMDAT ?digits10@?$numeric_limits@M@std@@2HB
CONST	SEGMENT
?digits10@?$numeric_limits@M@std@@2HB DD 06H		; std::numeric_limits<float>::digits10
CONST	ENDS
;	COMDAT ?digits@?$numeric_limits@M@std@@2HB
CONST	SEGMENT
?digits@?$numeric_limits@M@std@@2HB DD 018H		; std::numeric_limits<float>::digits
CONST	ENDS
;	COMDAT ?max_digits10@?$numeric_limits@_K@std@@2HB
CONST	SEGMENT
?max_digits10@?$numeric_limits@_K@std@@2HB DD 015H	; std::numeric_limits<unsigned __int64>::max_digits10
CONST	ENDS
;	COMDAT ?digits10@?$numeric_limits@_K@std@@2HB
CONST	SEGMENT
?digits10@?$numeric_limits@_K@std@@2HB DD 013H		; std::numeric_limits<unsigned __int64>::digits10
CONST	ENDS
;	COMDAT ?digits@?$numeric_limits@_K@std@@2HB
CONST	SEGMENT
?digits@?$numeric_limits@_K@std@@2HB DD 040H		; std::numeric_limits<unsigned __int64>::digits
CONST	ENDS
;	COMDAT ?is_signed@?$numeric_limits@_K@std@@2_NB
CONST	SEGMENT
?is_signed@?$numeric_limits@_K@std@@2_NB DB 00H		; std::numeric_limits<unsigned __int64>::is_signed
CONST	ENDS
;	COMDAT ?max_digits10@?$numeric_limits@_J@std@@2HB
CONST	SEGMENT
?max_digits10@?$numeric_limits@_J@std@@2HB DD 014H	; std::numeric_limits<__int64>::max_digits10
CONST	ENDS
;	COMDAT ?digits10@?$numeric_limits@_J@std@@2HB
CONST	SEGMENT
?digits10@?$numeric_limits@_J@std@@2HB DD 012H		; std::numeric_limits<__int64>::digits10
CONST	ENDS
;	COMDAT ?digits@?$numeric_limits@_J@std@@2HB
CONST	SEGMENT
?digits@?$numeric_limits@_J@std@@2HB DD 03fH		; std::numeric_limits<__int64>::digits
CONST	ENDS
;	COMDAT ?is_signed@?$numeric_limits@_J@std@@2_NB
CONST	SEGMENT
?is_signed@?$numeric_limits@_J@std@@2_NB DB 01H		; std::numeric_limits<__int64>::is_signed
CONST	ENDS
;	COMDAT ?max_digits10@?$numeric_limits@K@std@@2HB
CONST	SEGMENT
?max_digits10@?$numeric_limits@K@std@@2HB DD 0bH	; std::numeric_limits<unsigned long>::max_digits10
CONST	ENDS
;	COMDAT ?digits10@?$numeric_limits@K@std@@2HB
CONST	SEGMENT
?digits10@?$numeric_limits@K@std@@2HB DD 09H		; std::numeric_limits<unsigned long>::digits10
CONST	ENDS
;	COMDAT ?digits@?$numeric_limits@K@std@@2HB
CONST	SEGMENT
?digits@?$numeric_limits@K@std@@2HB DD 020H		; std::numeric_limits<unsigned long>::digits
CONST	ENDS
;	COMDAT ?is_signed@?$numeric_limits@K@std@@2_NB
CONST	SEGMENT
?is_signed@?$numeric_limits@K@std@@2_NB DB 00H		; std::numeric_limits<unsigned long>::is_signed
CONST	ENDS
;	COMDAT ?max_digits10@?$numeric_limits@J@std@@2HB
CONST	SEGMENT
?max_digits10@?$numeric_limits@J@std@@2HB DD 0bH	; std::numeric_limits<long>::max_digits10
CONST	ENDS
;	COMDAT ?digits10@?$numeric_limits@J@std@@2HB
CONST	SEGMENT
?digits10@?$numeric_limits@J@std@@2HB DD 09H		; std::numeric_limits<long>::digits10
CONST	ENDS
;	COMDAT ?digits@?$numeric_limits@J@std@@2HB
CONST	SEGMENT
?digits@?$numeric_limits@J@std@@2HB DD 01fH		; std::numeric_limits<long>::digits
CONST	ENDS
;	COMDAT ?is_signed@?$numeric_limits@J@std@@2_NB
CONST	SEGMENT
?is_signed@?$numeric_limits@J@std@@2_NB DB 01H		; std::numeric_limits<long>::is_signed
CONST	ENDS
;	COMDAT ?max_digits10@?$numeric_limits@I@std@@2HB
CONST	SEGMENT
?max_digits10@?$numeric_limits@I@std@@2HB DD 0bH	; std::numeric_limits<unsigned int>::max_digits10
CONST	ENDS
;	COMDAT ?digits10@?$numeric_limits@I@std@@2HB
CONST	SEGMENT
?digits10@?$numeric_limits@I@std@@2HB DD 09H		; std::numeric_limits<unsigned int>::digits10
CONST	ENDS
;	COMDAT ?digits@?$numeric_limits@I@std@@2HB
CONST	SEGMENT
?digits@?$numeric_limits@I@std@@2HB DD 020H		; std::numeric_limits<unsigned int>::digits
CONST	ENDS
;	COMDAT ?is_signed@?$numeric_limits@I@std@@2_NB
CONST	SEGMENT
?is_signed@?$numeric_limits@I@std@@2_NB DB 00H		; std::numeric_limits<unsigned int>::is_signed
CONST	ENDS
;	COMDAT ?max_digits10@?$numeric_limits@H@std@@2HB
CONST	SEGMENT
?max_digits10@?$numeric_limits@H@std@@2HB DD 0bH	; std::numeric_limits<int>::max_digits10
CONST	ENDS
;	COMDAT ?digits10@?$numeric_limits@H@std@@2HB
CONST	SEGMENT
?digits10@?$numeric_limits@H@std@@2HB DD 09H		; std::numeric_limits<int>::digits10
CONST	ENDS
;	COMDAT ?digits@?$numeric_limits@H@std@@2HB
CONST	SEGMENT
?digits@?$numeric_limits@H@std@@2HB DD 01fH		; std::numeric_limits<int>::digits
CONST	ENDS
;	COMDAT ?is_signed@?$numeric_limits@H@std@@2_NB
CONST	SEGMENT
?is_signed@?$numeric_limits@H@std@@2_NB DB 01H		; std::numeric_limits<int>::is_signed
CONST	ENDS
;	COMDAT ?max_digits10@?$numeric_limits@G@std@@2HB
CONST	SEGMENT
?max_digits10@?$numeric_limits@G@std@@2HB DD 06H	; std::numeric_limits<unsigned short>::max_digits10
CONST	ENDS
;	COMDAT ?digits10@?$numeric_limits@G@std@@2HB
CONST	SEGMENT
?digits10@?$numeric_limits@G@std@@2HB DD 04H		; std::numeric_limits<unsigned short>::digits10
CONST	ENDS
;	COMDAT ?digits@?$numeric_limits@G@std@@2HB
CONST	SEGMENT
?digits@?$numeric_limits@G@std@@2HB DD 010H		; std::numeric_limits<unsigned short>::digits
CONST	ENDS
;	COMDAT ?is_signed@?$numeric_limits@G@std@@2_NB
CONST	SEGMENT
?is_signed@?$numeric_limits@G@std@@2_NB DB 00H		; std::numeric_limits<unsigned short>::is_signed
CONST	ENDS
;	COMDAT ?max_digits10@?$numeric_limits@F@std@@2HB
CONST	SEGMENT
?max_digits10@?$numeric_limits@F@std@@2HB DD 06H	; std::numeric_limits<short>::max_digits10
CONST	ENDS
;	COMDAT ?digits10@?$numeric_limits@F@std@@2HB
CONST	SEGMENT
?digits10@?$numeric_limits@F@std@@2HB DD 04H		; std::numeric_limits<short>::digits10
CONST	ENDS
;	COMDAT ?digits@?$numeric_limits@F@std@@2HB
CONST	SEGMENT
?digits@?$numeric_limits@F@std@@2HB DD 0fH		; std::numeric_limits<short>::digits
CONST	ENDS
;	COMDAT ?is_signed@?$numeric_limits@F@std@@2_NB
CONST	SEGMENT
?is_signed@?$numeric_limits@F@std@@2_NB DB 01H		; std::numeric_limits<short>::is_signed
CONST	ENDS
;	COMDAT ?max_digits10@?$numeric_limits@E@std@@2HB
CONST	SEGMENT
?max_digits10@?$numeric_limits@E@std@@2HB DD 04H	; std::numeric_limits<unsigned char>::max_digits10
CONST	ENDS
;	COMDAT ?digits10@?$numeric_limits@E@std@@2HB
CONST	SEGMENT
?digits10@?$numeric_limits@E@std@@2HB DD 02H		; std::numeric_limits<unsigned char>::digits10
CONST	ENDS
;	COMDAT ?digits@?$numeric_limits@E@std@@2HB
CONST	SEGMENT
?digits@?$numeric_limits@E@std@@2HB DD 08H		; std::numeric_limits<unsigned char>::digits
CONST	ENDS
;	COMDAT ?is_signed@?$numeric_limits@E@std@@2_NB
CONST	SEGMENT
?is_signed@?$numeric_limits@E@std@@2_NB DB 00H		; std::numeric_limits<unsigned char>::is_signed
CONST	ENDS
;	COMDAT ?max_digits10@?$numeric_limits@C@std@@2HB
CONST	SEGMENT
?max_digits10@?$numeric_limits@C@std@@2HB DD 04H	; std::numeric_limits<signed char>::max_digits10
CONST	ENDS
;	COMDAT ?digits10@?$numeric_limits@C@std@@2HB
CONST	SEGMENT
?digits10@?$numeric_limits@C@std@@2HB DD 02H		; std::numeric_limits<signed char>::digits10
CONST	ENDS
;	COMDAT ?digits@?$numeric_limits@C@std@@2HB
CONST	SEGMENT
?digits@?$numeric_limits@C@std@@2HB DD 07H		; std::numeric_limits<signed char>::digits
CONST	ENDS
;	COMDAT ?is_signed@?$numeric_limits@C@std@@2_NB
CONST	SEGMENT
?is_signed@?$numeric_limits@C@std@@2_NB DB 01H		; std::numeric_limits<signed char>::is_signed
CONST	ENDS
;	COMDAT ?max_digits10@?$numeric_limits@_N@std@@2HB
CONST	SEGMENT
?max_digits10@?$numeric_limits@_N@std@@2HB DD 00H	; std::numeric_limits<bool>::max_digits10
CONST	ENDS
;	COMDAT ?digits10@?$numeric_limits@_N@std@@2HB
CONST	SEGMENT
?digits10@?$numeric_limits@_N@std@@2HB DD 00H		; std::numeric_limits<bool>::digits10
CONST	ENDS
;	COMDAT ?digits@?$numeric_limits@_N@std@@2HB
CONST	SEGMENT
?digits@?$numeric_limits@_N@std@@2HB DD 01H		; std::numeric_limits<bool>::digits
CONST	ENDS
;	COMDAT ?is_signed@?$numeric_limits@_N@std@@2_NB
CONST	SEGMENT
?is_signed@?$numeric_limits@_N@std@@2_NB DB 00H		; std::numeric_limits<bool>::is_signed
CONST	ENDS
;	COMDAT ?is_modulo@?$numeric_limits@_N@std@@2_NB
CONST	SEGMENT
?is_modulo@?$numeric_limits@_N@std@@2_NB DB 00H		; std::numeric_limits<bool>::is_modulo
CONST	ENDS
;	COMDAT ?max_digits10@?$numeric_limits@_W@std@@2HB
CONST	SEGMENT
?max_digits10@?$numeric_limits@_W@std@@2HB DD 06H	; std::numeric_limits<wchar_t>::max_digits10
CONST	ENDS
;	COMDAT ?digits10@?$numeric_limits@_W@std@@2HB
CONST	SEGMENT
?digits10@?$numeric_limits@_W@std@@2HB DD 04H		; std::numeric_limits<wchar_t>::digits10
CONST	ENDS
;	COMDAT ?digits@?$numeric_limits@_W@std@@2HB
CONST	SEGMENT
?digits@?$numeric_limits@_W@std@@2HB DD 010H		; std::numeric_limits<wchar_t>::digits
CONST	ENDS
;	COMDAT ?is_signed@?$numeric_limits@_W@std@@2_NB
CONST	SEGMENT
?is_signed@?$numeric_limits@_W@std@@2_NB DB 00H		; std::numeric_limits<wchar_t>::is_signed
CONST	ENDS
;	COMDAT ?max_digits10@?$numeric_limits@D@std@@2HB
CONST	SEGMENT
?max_digits10@?$numeric_limits@D@std@@2HB DD 04H	; std::numeric_limits<char>::max_digits10
CONST	ENDS
;	COMDAT ?digits10@?$numeric_limits@D@std@@2HB
CONST	SEGMENT
?digits10@?$numeric_limits@D@std@@2HB DD 02H		; std::numeric_limits<char>::digits10
CONST	ENDS
;	COMDAT ?digits@?$numeric_limits@D@std@@2HB
CONST	SEGMENT
?digits@?$numeric_limits@D@std@@2HB DD 07H		; std::numeric_limits<char>::digits
CONST	ENDS
;	COMDAT ?is_signed@?$numeric_limits@D@std@@2_NB
CONST	SEGMENT
?is_signed@?$numeric_limits@D@std@@2_NB DB 01H		; std::numeric_limits<char>::is_signed
CONST	ENDS
;	COMDAT ?radix@_Num_float_base@std@@2HB
CONST	SEGMENT
?radix@_Num_float_base@std@@2HB DD 02H			; std::_Num_float_base::radix
CONST	ENDS
;	COMDAT ?round_style@_Num_float_base@std@@2W4float_round_style@2@B
CONST	SEGMENT
?round_style@_Num_float_base@std@@2W4float_round_style@2@B DD 01H ; std::_Num_float_base::round_style
CONST	ENDS
;	COMDAT ?traps@_Num_float_base@std@@2_NB
CONST	SEGMENT
?traps@_Num_float_base@std@@2_NB DB 01H			; std::_Num_float_base::traps
CONST	ENDS
;	COMDAT ?tinyness_before@_Num_float_base@std@@2_NB
CONST	SEGMENT
?tinyness_before@_Num_float_base@std@@2_NB DB 01H	; std::_Num_float_base::tinyness_before
CONST	ENDS
;	COMDAT ?is_specialized@_Num_float_base@std@@2_NB
CONST	SEGMENT
?is_specialized@_Num_float_base@std@@2_NB DB 01H	; std::_Num_float_base::is_specialized
CONST	ENDS
;	COMDAT ?is_signed@_Num_float_base@std@@2_NB
CONST	SEGMENT
?is_signed@_Num_float_base@std@@2_NB DB 01H		; std::_Num_float_base::is_signed
CONST	ENDS
;	COMDAT ?is_modulo@_Num_float_base@std@@2_NB
CONST	SEGMENT
?is_modulo@_Num_float_base@std@@2_NB DB 00H		; std::_Num_float_base::is_modulo
CONST	ENDS
;	COMDAT ?is_integer@_Num_float_base@std@@2_NB
CONST	SEGMENT
?is_integer@_Num_float_base@std@@2_NB DB 00H		; std::_Num_float_base::is_integer
CONST	ENDS
;	COMDAT ?is_iec559@_Num_float_base@std@@2_NB
CONST	SEGMENT
?is_iec559@_Num_float_base@std@@2_NB DB 01H		; std::_Num_float_base::is_iec559
CONST	ENDS
;	COMDAT ?is_exact@_Num_float_base@std@@2_NB
CONST	SEGMENT
?is_exact@_Num_float_base@std@@2_NB DB 00H		; std::_Num_float_base::is_exact
CONST	ENDS
;	COMDAT ?is_bounded@_Num_float_base@std@@2_NB
CONST	SEGMENT
?is_bounded@_Num_float_base@std@@2_NB DB 01H		; std::_Num_float_base::is_bounded
CONST	ENDS
;	COMDAT ?has_signaling_NaN@_Num_float_base@std@@2_NB
CONST	SEGMENT
?has_signaling_NaN@_Num_float_base@std@@2_NB DB 01H	; std::_Num_float_base::has_signaling_NaN
CONST	ENDS
;	COMDAT ?has_quiet_NaN@_Num_float_base@std@@2_NB
CONST	SEGMENT
?has_quiet_NaN@_Num_float_base@std@@2_NB DB 01H		; std::_Num_float_base::has_quiet_NaN
CONST	ENDS
;	COMDAT ?has_infinity@_Num_float_base@std@@2_NB
CONST	SEGMENT
?has_infinity@_Num_float_base@std@@2_NB DB 01H		; std::_Num_float_base::has_infinity
CONST	ENDS
;	COMDAT ?has_denorm_loss@_Num_float_base@std@@2_NB
CONST	SEGMENT
?has_denorm_loss@_Num_float_base@std@@2_NB DB 01H	; std::_Num_float_base::has_denorm_loss
CONST	ENDS
;	COMDAT ?has_denorm@_Num_float_base@std@@2W4float_denorm_style@2@B
CONST	SEGMENT
?has_denorm@_Num_float_base@std@@2W4float_denorm_style@2@B DD 01H ; std::_Num_float_base::has_denorm
CONST	ENDS
;	COMDAT ?radix@_Num_int_base@std@@2HB
CONST	SEGMENT
?radix@_Num_int_base@std@@2HB DD 02H			; std::_Num_int_base::radix
CONST	ENDS
;	COMDAT ?is_specialized@_Num_int_base@std@@2_NB
CONST	SEGMENT
?is_specialized@_Num_int_base@std@@2_NB DB 01H		; std::_Num_int_base::is_specialized
CONST	ENDS
;	COMDAT ?is_modulo@_Num_int_base@std@@2_NB
CONST	SEGMENT
?is_modulo@_Num_int_base@std@@2_NB DB 01H		; std::_Num_int_base::is_modulo
CONST	ENDS
;	COMDAT ?is_integer@_Num_int_base@std@@2_NB
CONST	SEGMENT
?is_integer@_Num_int_base@std@@2_NB DB 01H		; std::_Num_int_base::is_integer
CONST	ENDS
;	COMDAT ?is_exact@_Num_int_base@std@@2_NB
CONST	SEGMENT
?is_exact@_Num_int_base@std@@2_NB DB 01H		; std::_Num_int_base::is_exact
CONST	ENDS
;	COMDAT ?is_bounded@_Num_int_base@std@@2_NB
CONST	SEGMENT
?is_bounded@_Num_int_base@std@@2_NB DB 01H		; std::_Num_int_base::is_bounded
CONST	ENDS
;	COMDAT ?radix@_Num_base@std@@2HB
CONST	SEGMENT
?radix@_Num_base@std@@2HB DD 00H			; std::_Num_base::radix
CONST	ENDS
;	COMDAT ?min_exponent10@_Num_base@std@@2HB
CONST	SEGMENT
?min_exponent10@_Num_base@std@@2HB DD 00H		; std::_Num_base::min_exponent10
CONST	ENDS
;	COMDAT ?min_exponent@_Num_base@std@@2HB
CONST	SEGMENT
?min_exponent@_Num_base@std@@2HB DD 00H			; std::_Num_base::min_exponent
CONST	ENDS
;	COMDAT ?max_exponent10@_Num_base@std@@2HB
CONST	SEGMENT
?max_exponent10@_Num_base@std@@2HB DD 00H		; std::_Num_base::max_exponent10
CONST	ENDS
;	COMDAT ?max_exponent@_Num_base@std@@2HB
CONST	SEGMENT
?max_exponent@_Num_base@std@@2HB DD 00H			; std::_Num_base::max_exponent
CONST	ENDS
;	COMDAT ?max_digits10@_Num_base@std@@2HB
CONST	SEGMENT
?max_digits10@_Num_base@std@@2HB DD 00H			; std::_Num_base::max_digits10
CONST	ENDS
;	COMDAT ?digits10@_Num_base@std@@2HB
CONST	SEGMENT
?digits10@_Num_base@std@@2HB DD 00H			; std::_Num_base::digits10
CONST	ENDS
;	COMDAT ?digits@_Num_base@std@@2HB
CONST	SEGMENT
?digits@_Num_base@std@@2HB DD 00H			; std::_Num_base::digits
CONST	ENDS
;	COMDAT ?round_style@_Num_base@std@@2W4float_round_style@2@B
CONST	SEGMENT
?round_style@_Num_base@std@@2W4float_round_style@2@B DD 00H ; std::_Num_base::round_style
CONST	ENDS
;	COMDAT ?traps@_Num_base@std@@2_NB
CONST	SEGMENT
?traps@_Num_base@std@@2_NB DB 00H			; std::_Num_base::traps
CONST	ENDS
;	COMDAT ?tinyness_before@_Num_base@std@@2_NB
CONST	SEGMENT
?tinyness_before@_Num_base@std@@2_NB DB 00H		; std::_Num_base::tinyness_before
CONST	ENDS
;	COMDAT ?is_specialized@_Num_base@std@@2_NB
CONST	SEGMENT
?is_specialized@_Num_base@std@@2_NB DB 00H		; std::_Num_base::is_specialized
CONST	ENDS
;	COMDAT ?is_signed@_Num_base@std@@2_NB
CONST	SEGMENT
?is_signed@_Num_base@std@@2_NB DB 00H			; std::_Num_base::is_signed
CONST	ENDS
;	COMDAT ?is_modulo@_Num_base@std@@2_NB
CONST	SEGMENT
?is_modulo@_Num_base@std@@2_NB DB 00H			; std::_Num_base::is_modulo
CONST	ENDS
;	COMDAT ?is_integer@_Num_base@std@@2_NB
CONST	SEGMENT
?is_integer@_Num_base@std@@2_NB DB 00H			; std::_Num_base::is_integer
CONST	ENDS
;	COMDAT ?is_iec559@_Num_base@std@@2_NB
CONST	SEGMENT
?is_iec559@_Num_base@std@@2_NB DB 00H			; std::_Num_base::is_iec559
CONST	ENDS
;	COMDAT ?is_exact@_Num_base@std@@2_NB
CONST	SEGMENT
?is_exact@_Num_base@std@@2_NB DB 00H			; std::_Num_base::is_exact
CONST	ENDS
;	COMDAT ?is_bounded@_Num_base@std@@2_NB
CONST	SEGMENT
?is_bounded@_Num_base@std@@2_NB DB 00H			; std::_Num_base::is_bounded
CONST	ENDS
;	COMDAT ?has_signaling_NaN@_Num_base@std@@2_NB
CONST	SEGMENT
?has_signaling_NaN@_Num_base@std@@2_NB DB 00H		; std::_Num_base::has_signaling_NaN
CONST	ENDS
;	COMDAT ?has_quiet_NaN@_Num_base@std@@2_NB
CONST	SEGMENT
?has_quiet_NaN@_Num_base@std@@2_NB DB 00H		; std::_Num_base::has_quiet_NaN
CONST	ENDS
;	COMDAT ?has_infinity@_Num_base@std@@2_NB
CONST	SEGMENT
?has_infinity@_Num_base@std@@2_NB DB 00H		; std::_Num_base::has_infinity
CONST	ENDS
;	COMDAT ?has_denorm_loss@_Num_base@std@@2_NB
CONST	SEGMENT
?has_denorm_loss@_Num_base@std@@2_NB DB 00H		; std::_Num_base::has_denorm_loss
CONST	ENDS
;	COMDAT ?has_denorm@_Num_base@std@@2W4float_denorm_style@2@B
CONST	SEGMENT
?has_denorm@_Num_base@std@@2W4float_denorm_style@2@B DD 00H ; std::_Num_base::has_denorm
CONST	ENDS
PUBLIC	??0?$map@PAVAbstRaven_Bot@@VMemoryRecord@@U?$less@PAVAbstRaven_Bot@@@std@@V?$allocator@U?$pair@QAVAbstRaven_Bot@@VMemoryRecord@@@std@@@4@@std@@QAE@XZ ; std::map<AbstRaven_Bot *,MemoryRecord,std::less<AbstRaven_Bot *>,std::allocator<std::pair<AbstRaven_Bot * const,MemoryRecord> > >::map<AbstRaven_Bot *,MemoryRecord,std::less<AbstRaven_Bot *>,std::allocator<std::pair<AbstRaven_Bot * const,MemoryRecord> > >
PUBLIC	??0Raven_SensoryMemory@@QAE@PAVAbstRaven_Bot@@N@Z ; Raven_SensoryMemory::Raven_SensoryMemory
EXTRN	__fltused:DWORD
EXTRN	__RTC_CheckEsp:PROC
EXTRN	__RTC_Shutdown:PROC
EXTRN	__RTC_InitBase:PROC
;	COMDAT rtc$TMZ
; File c:\users\teaja\documents\artificial-fun\labravenprojecttest\raven\raven_sensorymemory.cpp
rtc$TMZ	SEGMENT
__RTC_Shutdown.rtc$TMZ DD FLAT:__RTC_Shutdown
rtc$TMZ	ENDS
;	COMDAT rtc$IMZ
rtc$IMZ	SEGMENT
__RTC_InitBase.rtc$IMZ DD FLAT:__RTC_InitBase
; Function compile flags: /Odtp /RTCsu
rtc$IMZ	ENDS
_TEXT	SEGMENT
_this$ = -4						; size = 4
_owner$ = 8						; size = 4
_MemorySpan$ = 12					; size = 8
??0Raven_SensoryMemory@@QAE@PAVAbstRaven_Bot@@N@Z PROC	; Raven_SensoryMemory::Raven_SensoryMemory
; _this$ = ecx

; 13   : {}

	push	ebp
	mov	ebp, esp
	push	ecx
	mov	DWORD PTR [ebp-4], -858993460		; ccccccccH
	mov	DWORD PTR _this$[ebp], ecx
	mov	eax, DWORD PTR _this$[ebp]
	mov	ecx, DWORD PTR _owner$[ebp]
	mov	DWORD PTR [eax], ecx
	mov	ecx, DWORD PTR _this$[ebp]
	add	ecx, 4
	call	??0?$map@PAVAbstRaven_Bot@@VMemoryRecord@@U?$less@PAVAbstRaven_Bot@@@std@@V?$allocator@U?$pair@QAVAbstRaven_Bot@@VMemoryRecord@@@std@@@4@@std@@QAE@XZ ; std::map<AbstRaven_Bot *,MemoryRecord,std::less<AbstRaven_Bot *>,std::allocator<std::pair<AbstRaven_Bot * const,MemoryRecord> > >::map<AbstRaven_Bot *,MemoryRecord,std::less<AbstRaven_Bot *>,std::allocator<std::pair<AbstRaven_Bot * const,MemoryRecord> > >
	mov	edx, DWORD PTR _this$[ebp]
	fld	QWORD PTR _MemorySpan$[ebp]
	fstp	QWORD PTR [edx+24]
	mov	eax, DWORD PTR _this$[ebp]
	add	esp, 4
	cmp	ebp, esp
	call	__RTC_CheckEsp
	mov	esp, ebp
	pop	ebp
	ret	12					; 0000000cH
??0Raven_SensoryMemory@@QAE@PAVAbstRaven_Bot@@N@Z ENDP	; Raven_SensoryMemory::Raven_SensoryMemory
_TEXT	ENDS
PUBLIC	??A?$map@PAVAbstRaven_Bot@@VMemoryRecord@@U?$less@PAVAbstRaven_Bot@@@std@@V?$allocator@U?$pair@QAVAbstRaven_Bot@@VMemoryRecord@@@std@@@4@@std@@QAEAAVMemoryRecord@@ABQAVAbstRaven_Bot@@@Z ; std::map<AbstRaven_Bot *,MemoryRecord,std::less<AbstRaven_Bot *>,std::allocator<std::pair<AbstRaven_Bot * const,MemoryRecord> > >::operator[]
PUBLIC	??0MemoryRecord@@QAE@XZ				; MemoryRecord::MemoryRecord
PUBLIC	??1?$_Tree_iterator@V?$_Tree_val@V?$_Tmap_traits@PAVAbstRaven_Bot@@VMemoryRecord@@U?$less@PAVAbstRaven_Bot@@@std@@V?$allocator@U?$pair@QAVAbstRaven_Bot@@VMemoryRecord@@@std@@@4@$0A@@std@@@std@@@std@@QAE@XZ ; std::_Tree_iterator<std::_Tree_val<std::_Tmap_traits<AbstRaven_Bot *,MemoryRecord,std::less<AbstRaven_Bot *>,std::allocator<std::pair<AbstRaven_Bot * const,MemoryRecord> >,0> > >::~_Tree_iterator<std::_Tree_val<std::_Tmap_traits<AbstRaven_Bot *,MemoryRecord,std::less<AbstRaven_Bot *>,std::allocator<std::pair<AbstRaven_Bot * const,MemoryRecord> >,0> > >
PUBLIC	??8?$_Tree_const_iterator@V?$_Tree_val@V?$_Tmap_traits@PAVAbstRaven_Bot@@VMemoryRecord@@U?$less@PAVAbstRaven_Bot@@@std@@V?$allocator@U?$pair@QAVAbstRaven_Bot@@VMemoryRecord@@@std@@@4@$0A@@std@@@std@@@std@@QBE_NABV01@@Z ; std::_Tree_const_iterator<std::_Tree_val<std::_Tmap_traits<AbstRaven_Bot *,MemoryRecord,std::less<AbstRaven_Bot *>,std::allocator<std::pair<AbstRaven_Bot * const,MemoryRecord> >,0> > >::operator==
PUBLIC	?find@?$_Tree@V?$_Tmap_traits@PAVAbstRaven_Bot@@VMemoryRecord@@U?$less@PAVAbstRaven_Bot@@@std@@V?$allocator@U?$pair@QAVAbstRaven_Bot@@VMemoryRecord@@@std@@@4@$0A@@std@@@std@@QAE?AV?$_Tree_iterator@V?$_Tree_val@V?$_Tmap_traits@PAVAbstRaven_Bot@@VMemoryRecord@@U?$less@PAVAbstRaven_Bot@@@std@@V?$allocator@U?$pair@QAVAbstRaven_Bot@@VMemoryRecord@@@std@@@4@$0A@@std@@@std@@@2@ABQAVAbstRaven_Bot@@@Z ; std::_Tree<std::_Tmap_traits<AbstRaven_Bot *,MemoryRecord,std::less<AbstRaven_Bot *>,std::allocator<std::pair<AbstRaven_Bot * const,MemoryRecord> >,0> >::find
PUBLIC	?end@?$_Tree@V?$_Tmap_traits@PAVAbstRaven_Bot@@VMemoryRecord@@U?$less@PAVAbstRaven_Bot@@@std@@V?$allocator@U?$pair@QAVAbstRaven_Bot@@VMemoryRecord@@@std@@@4@$0A@@std@@@std@@QAE?AV?$_Tree_iterator@V?$_Tree_val@V?$_Tmap_traits@PAVAbstRaven_Bot@@VMemoryRecord@@U?$less@PAVAbstRaven_Bot@@@std@@V?$allocator@U?$pair@QAVAbstRaven_Bot@@VMemoryRecord@@@std@@@4@$0A@@std@@@std@@@2@XZ ; std::_Tree<std::_Tmap_traits<AbstRaven_Bot *,MemoryRecord,std::less<AbstRaven_Bot *>,std::allocator<std::pair<AbstRaven_Bot * const,MemoryRecord> >,0> >::end
PUBLIC	?MakeNewRecordIfNotAlreadyPresent@Raven_SensoryMemory@@AAEXPAVAbstRaven_Bot@@@Z ; Raven_SensoryMemory::MakeNewRecordIfNotAlreadyPresent
EXTRN	___security_cookie:DWORD
EXTRN	___CxxFrameHandler3:PROC
EXTRN	@__security_check_cookie@4:PROC
xdata$x	SEGMENT
__unwindtable$?MakeNewRecordIfNotAlreadyPresent@Raven_SensoryMemory@@AAEXPAVAbstRaven_Bot@@@Z DD 0ffffffffH
	DD	FLAT:__unwindfunclet$?MakeNewRecordIfNotAlreadyPresent@Raven_SensoryMemory@@AAEXPAVAbstRaven_Bot@@@Z$0
	DD	00H
	DD	FLAT:__unwindfunclet$?MakeNewRecordIfNotAlreadyPresent@Raven_SensoryMemory@@AAEXPAVAbstRaven_Bot@@@Z$1
__ehfuncinfo$?MakeNewRecordIfNotAlreadyPresent@Raven_SensoryMemory@@AAEXPAVAbstRaven_Bot@@@Z DD 019930522H
	DD	02H
	DD	FLAT:__unwindtable$?MakeNewRecordIfNotAlreadyPresent@Raven_SensoryMemory@@AAEXPAVAbstRaven_Bot@@@Z
	DD	2 DUP(00H)
	DD	2 DUP(00H)
	DD	00H
	DD	01H
; Function compile flags: /Odtp /RTCsu
xdata$x	ENDS
_TEXT	SEGMENT
tv140 = -108						; size = 4
tv142 = -104						; size = 4
tv138 = -100						; size = 4
tv141 = -96						; size = 4
$T143298 = -92						; size = 48
$T143297 = -44						; size = 12
$T143296 = -32						; size = 12
$T143295 = -17						; size = 1
_this$ = -16						; size = 4
__$EHRec$ = -12						; size = 12
_pOpponent$ = 8						; size = 4
?MakeNewRecordIfNotAlreadyPresent@Raven_SensoryMemory@@AAEXPAVAbstRaven_Bot@@@Z PROC ; Raven_SensoryMemory::MakeNewRecordIfNotAlreadyPresent
; _this$ = ecx

; 18   : {

	push	ebp
	mov	ebp, esp
	push	-1
	push	__ehhandler$?MakeNewRecordIfNotAlreadyPresent@Raven_SensoryMemory@@AAEXPAVAbstRaven_Bot@@@Z
	mov	eax, DWORD PTR fs:0
	push	eax
	sub	esp, 96					; 00000060H
	push	esi
	push	edi
	push	ecx
	lea	edi, DWORD PTR [ebp-108]
	mov	ecx, 24					; 00000018H
	mov	eax, -858993460				; ccccccccH
	rep stosd
	pop	ecx
	mov	eax, DWORD PTR ___security_cookie
	xor	eax, ebp
	push	eax
	lea	eax, DWORD PTR __$EHRec$[ebp]
	mov	DWORD PTR fs:0, eax
	mov	DWORD PTR _this$[ebp], ecx

; 19   :   //else check to see if this Opponent already exists in the memory. If it doesn't,
; 20   :   //create a new record
; 21   :   if (m_MemoryMap.find(pOpponent) == m_MemoryMap.end())

	lea	eax, DWORD PTR $T143297[ebp]
	push	eax
	mov	ecx, DWORD PTR _this$[ebp]
	add	ecx, 4
	call	?end@?$_Tree@V?$_Tmap_traits@PAVAbstRaven_Bot@@VMemoryRecord@@U?$less@PAVAbstRaven_Bot@@@std@@V?$allocator@U?$pair@QAVAbstRaven_Bot@@VMemoryRecord@@@std@@@4@$0A@@std@@@std@@QAE?AV?$_Tree_iterator@V?$_Tree_val@V?$_Tmap_traits@PAVAbstRaven_Bot@@VMemoryRecord@@U?$less@PAVAbstRaven_Bot@@@std@@V?$allocator@U?$pair@QAVAbstRaven_Bot@@VMemoryRecord@@@std@@@4@$0A@@std@@@std@@@2@XZ ; std::_Tree<std::_Tmap_traits<AbstRaven_Bot *,MemoryRecord,std::less<AbstRaven_Bot *>,std::allocator<std::pair<AbstRaven_Bot * const,MemoryRecord> >,0> >::end
	mov	DWORD PTR tv141[ebp], eax
	mov	ecx, DWORD PTR tv141[ebp]
	mov	DWORD PTR tv138[ebp], ecx
	mov	DWORD PTR __$EHRec$[ebp+8], 0
	mov	edx, DWORD PTR tv138[ebp]
	push	edx
	lea	eax, DWORD PTR _pOpponent$[ebp]
	push	eax
	lea	ecx, DWORD PTR $T143296[ebp]
	push	ecx
	mov	ecx, DWORD PTR _this$[ebp]
	add	ecx, 4
	call	?find@?$_Tree@V?$_Tmap_traits@PAVAbstRaven_Bot@@VMemoryRecord@@U?$less@PAVAbstRaven_Bot@@@std@@V?$allocator@U?$pair@QAVAbstRaven_Bot@@VMemoryRecord@@@std@@@4@$0A@@std@@@std@@QAE?AV?$_Tree_iterator@V?$_Tree_val@V?$_Tmap_traits@PAVAbstRaven_Bot@@VMemoryRecord@@U?$less@PAVAbstRaven_Bot@@@std@@V?$allocator@U?$pair@QAVAbstRaven_Bot@@VMemoryRecord@@@std@@@4@$0A@@std@@@std@@@2@ABQAVAbstRaven_Bot@@@Z ; std::_Tree<std::_Tmap_traits<AbstRaven_Bot *,MemoryRecord,std::less<AbstRaven_Bot *>,std::allocator<std::pair<AbstRaven_Bot * const,MemoryRecord> >,0> >::find
	mov	DWORD PTR tv142[ebp], eax
	mov	edx, DWORD PTR tv142[ebp]
	mov	DWORD PTR tv140[ebp], edx
	mov	BYTE PTR __$EHRec$[ebp+8], 1
	mov	ecx, DWORD PTR tv140[ebp]
	call	??8?$_Tree_const_iterator@V?$_Tree_val@V?$_Tmap_traits@PAVAbstRaven_Bot@@VMemoryRecord@@U?$less@PAVAbstRaven_Bot@@@std@@V?$allocator@U?$pair@QAVAbstRaven_Bot@@VMemoryRecord@@@std@@@4@$0A@@std@@@std@@@std@@QBE_NABV01@@Z ; std::_Tree_const_iterator<std::_Tree_val<std::_Tmap_traits<AbstRaven_Bot *,MemoryRecord,std::less<AbstRaven_Bot *>,std::allocator<std::pair<AbstRaven_Bot * const,MemoryRecord> >,0> > >::operator==
	mov	BYTE PTR $T143295[ebp], al
	mov	BYTE PTR __$EHRec$[ebp+8], 0
	lea	ecx, DWORD PTR $T143296[ebp]
	call	??1?$_Tree_iterator@V?$_Tree_val@V?$_Tmap_traits@PAVAbstRaven_Bot@@VMemoryRecord@@U?$less@PAVAbstRaven_Bot@@@std@@V?$allocator@U?$pair@QAVAbstRaven_Bot@@VMemoryRecord@@@std@@@4@$0A@@std@@@std@@@std@@QAE@XZ
	mov	DWORD PTR __$EHRec$[ebp+8], -1
	lea	ecx, DWORD PTR $T143297[ebp]
	call	??1?$_Tree_iterator@V?$_Tree_val@V?$_Tmap_traits@PAVAbstRaven_Bot@@VMemoryRecord@@U?$less@PAVAbstRaven_Bot@@@std@@V?$allocator@U?$pair@QAVAbstRaven_Bot@@VMemoryRecord@@@std@@@4@$0A@@std@@@std@@@std@@QAE@XZ
	movzx	eax, BYTE PTR $T143295[ebp]
	test	eax, eax
	je	SHORT $LN2@MakeNewRec

; 22   :   {
; 23   :     m_MemoryMap[pOpponent] = MemoryRecord();

	lea	ecx, DWORD PTR $T143298[ebp]
	call	??0MemoryRecord@@QAE@XZ			; MemoryRecord::MemoryRecord
	mov	esi, eax
	lea	ecx, DWORD PTR _pOpponent$[ebp]
	push	ecx
	mov	ecx, DWORD PTR _this$[ebp]
	add	ecx, 4
	call	??A?$map@PAVAbstRaven_Bot@@VMemoryRecord@@U?$less@PAVAbstRaven_Bot@@@std@@V?$allocator@U?$pair@QAVAbstRaven_Bot@@VMemoryRecord@@@std@@@4@@std@@QAEAAVMemoryRecord@@ABQAVAbstRaven_Bot@@@Z ; std::map<AbstRaven_Bot *,MemoryRecord,std::less<AbstRaven_Bot *>,std::allocator<std::pair<AbstRaven_Bot * const,MemoryRecord> > >::operator[]
	mov	ecx, 12					; 0000000cH
	mov	edi, eax
	rep movsd
$LN2@MakeNewRec:

; 24   :   }
; 25   : }

	mov	ecx, DWORD PTR __$EHRec$[ebp]
	mov	DWORD PTR fs:0, ecx
	pop	ecx
	pop	edi
	pop	esi
	add	esp, 108				; 0000006cH
	cmp	ebp, esp
	call	__RTC_CheckEsp
	mov	esp, ebp
	pop	ebp
	ret	4
_TEXT	ENDS
text$x	SEGMENT
__unwindfunclet$?MakeNewRecordIfNotAlreadyPresent@Raven_SensoryMemory@@AAEXPAVAbstRaven_Bot@@@Z$0:
	lea	ecx, DWORD PTR $T143297[ebp]
	jmp	??1?$_Tree_iterator@V?$_Tree_val@V?$_Tmap_traits@PAVAbstRaven_Bot@@VMemoryRecord@@U?$less@PAVAbstRaven_Bot@@@std@@V?$allocator@U?$pair@QAVAbstRaven_Bot@@VMemoryRecord@@@std@@@4@$0A@@std@@@std@@@std@@QAE@XZ
__unwindfunclet$?MakeNewRecordIfNotAlreadyPresent@Raven_SensoryMemory@@AAEXPAVAbstRaven_Bot@@@Z$1:
	lea	ecx, DWORD PTR $T143296[ebp]
	jmp	??1?$_Tree_iterator@V?$_Tree_val@V?$_Tmap_traits@PAVAbstRaven_Bot@@VMemoryRecord@@U?$less@PAVAbstRaven_Bot@@@std@@V?$allocator@U?$pair@QAVAbstRaven_Bot@@VMemoryRecord@@@std@@@4@$0A@@std@@@std@@@std@@QAE@XZ
__ehhandler$?MakeNewRecordIfNotAlreadyPresent@Raven_SensoryMemory@@AAEXPAVAbstRaven_Bot@@@Z:
	mov	edx, DWORD PTR [esp+8]
	lea	eax, DWORD PTR [edx+12]
	mov	ecx, DWORD PTR [edx-108]
	xor	ecx, eax
	call	@__security_check_cookie@4
	mov	eax, OFFSET __ehfuncinfo$?MakeNewRecordIfNotAlreadyPresent@Raven_SensoryMemory@@AAEXPAVAbstRaven_Bot@@@Z
	jmp	___CxxFrameHandler3
text$x	ENDS
?MakeNewRecordIfNotAlreadyPresent@Raven_SensoryMemory@@AAEXPAVAbstRaven_Bot@@@Z ENDP ; Raven_SensoryMemory::MakeNewRecordIfNotAlreadyPresent
PUBLIC	??0Vector2D@@QAE@XZ				; Vector2D::Vector2D
PUBLIC	__real@0000000000000000
PUBLIC	__real@c08f380000000000
;	COMDAT __real@0000000000000000
; File c:\users\teaja\documents\artificial-fun\labravenprojecttest\raven\raven_sensorymemory.h
CONST	SEGMENT
__real@0000000000000000 DQ 00000000000000000r	; 0
CONST	ENDS
;	COMDAT __real@c08f380000000000
CONST	SEGMENT
__real@c08f380000000000 DQ 0c08f380000000000r	; -999
; Function compile flags: /Odtp /RTCsu
CONST	ENDS
;	COMDAT ??0MemoryRecord@@QAE@XZ
_TEXT	SEGMENT
_this$ = -4						; size = 4
??0MemoryRecord@@QAE@XZ PROC				; MemoryRecord::MemoryRecord, COMDAT
; _this$ = ecx

; 60   :   {}

	push	ebp
	mov	ebp, esp
	push	ecx
	mov	DWORD PTR [ebp-4], -858993460		; ccccccccH
	mov	DWORD PTR _this$[ebp], ecx
	mov	eax, DWORD PTR _this$[ebp]
	fld	QWORD PTR __real@c08f380000000000
	fstp	QWORD PTR [eax]
	mov	ecx, DWORD PTR _this$[ebp]
	fld	QWORD PTR __real@c08f380000000000
	fstp	QWORD PTR [ecx+8]
	mov	edx, DWORD PTR _this$[ebp]
	fldz
	fstp	QWORD PTR [edx+16]
	mov	ecx, DWORD PTR _this$[ebp]
	add	ecx, 24					; 00000018H
	call	??0Vector2D@@QAE@XZ			; Vector2D::Vector2D
	mov	eax, DWORD PTR _this$[ebp]
	mov	BYTE PTR [eax+40], 0
	mov	ecx, DWORD PTR _this$[ebp]
	mov	BYTE PTR [ecx+41], 0
	mov	edx, DWORD PTR _this$[ebp]
	mov	DWORD PTR [edx+44], 0
	mov	eax, DWORD PTR _this$[ebp]
	add	esp, 4
	cmp	ebp, esp
	call	__RTC_CheckEsp
	mov	esp, ebp
	pop	ebp
	ret	0
??0MemoryRecord@@QAE@XZ ENDP				; MemoryRecord::MemoryRecord
; Function compile flags: /Odtp /RTCsu
; File c:\users\teaja\documents\artificial-fun\labravenprojecttest\common\2d\vector2d.h
_TEXT	ENDS
;	COMDAT ??0Vector2D@@QAE@XZ
_TEXT	SEGMENT
_this$ = -4						; size = 4
??0Vector2D@@QAE@XZ PROC				; Vector2D::Vector2D, COMDAT
; _this$ = ecx

; 24   :   Vector2D():x(0.0),y(0.0){}

	push	ebp
	mov	ebp, esp
	push	ecx
	mov	DWORD PTR [ebp-4], -858993460		; ccccccccH
	mov	DWORD PTR _this$[ebp], ecx
	mov	eax, DWORD PTR _this$[ebp]
	fldz
	fstp	QWORD PTR [eax]
	mov	ecx, DWORD PTR _this$[ebp]
	fldz
	fstp	QWORD PTR [ecx+8]
	mov	eax, DWORD PTR _this$[ebp]
	mov	esp, ebp
	pop	ebp
	ret	0
??0Vector2D@@QAE@XZ ENDP				; Vector2D::Vector2D
_TEXT	ENDS
PUBLIC	??1?$_Tree_const_iterator@V?$_Tree_val@V?$_Tmap_traits@PAVAbstRaven_Bot@@VMemoryRecord@@U?$less@PAVAbstRaven_Bot@@@std@@V?$allocator@U?$pair@QAVAbstRaven_Bot@@VMemoryRecord@@@std@@@4@$0A@@std@@@std@@@std@@QAE@XZ ; std::_Tree_const_iterator<std::_Tree_val<std::_Tmap_traits<AbstRaven_Bot *,MemoryRecord,std::less<AbstRaven_Bot *>,std::allocator<std::pair<AbstRaven_Bot * const,MemoryRecord> >,0> > >::~_Tree_const_iterator<std::_Tree_val<std::_Tmap_traits<AbstRaven_Bot *,MemoryRecord,std::less<AbstRaven_Bot *>,std::allocator<std::pair<AbstRaven_Bot * const,MemoryRecord> >,0> > >
; Function compile flags: /Odtp /RTCsu
;	COMDAT ??1?$_Tree_iterator@V?$_Tree_val@V?$_Tmap_traits@PAVAbstRaven_Bot@@VMemoryRecord@@U?$less@PAVAbstRaven_Bot@@@std@@V?$allocator@U?$pair@QAVAbstRaven_Bot@@VMemoryRecord@@@std@@@4@$0A@@std@@@std@@@std@@QAE@XZ
_TEXT	SEGMENT
_this$ = -4						; size = 4
??1?$_Tree_iterator@V?$_Tree_val@V?$_Tmap_traits@PAVAbstRaven_Bot@@VMemoryRecord@@U?$less@PAVAbstRaven_Bot@@@std@@V?$allocator@U?$pair@QAVAbstRaven_Bot@@VMemoryRecord@@@std@@@4@$0A@@std@@@std@@@std@@QAE@XZ PROC ; std::_Tree_iterator<std::_Tree_val<std::_Tmap_traits<AbstRaven_Bot *,MemoryRecord,std::less<AbstRaven_Bot *>,std::allocator<std::pair<AbstRaven_Bot * const,MemoryRecord> >,0> > >::~_Tree_iterator<std::_Tree_val<std::_Tmap_traits<AbstRaven_Bot *,MemoryRecord,std::less<AbstRaven_Bot *>,std::allocator<std::pair<AbstRaven_Bot * const,MemoryRecord> >,0> > >, COMDAT
; _this$ = ecx
	push	ebp
	mov	ebp, esp
	push	ecx
	mov	DWORD PTR [ebp-4], -858993460		; ccccccccH
	mov	DWORD PTR _this$[ebp], ecx
	mov	ecx, DWORD PTR _this$[ebp]
	call	??1?$_Tree_const_iterator@V?$_Tree_val@V?$_Tmap_traits@PAVAbstRaven_Bot@@VMemoryRecord@@U?$less@PAVAbstRaven_Bot@@@std@@V?$allocator@U?$pair@QAVAbstRaven_Bot@@VMemoryRecord@@@std@@@4@$0A@@std@@@std@@@std@@QAE@XZ
	add	esp, 4
	cmp	ebp, esp
	call	__RTC_CheckEsp
	mov	esp, ebp
	pop	ebp
	ret	0
??1?$_Tree_iterator@V?$_Tree_val@V?$_Tmap_traits@PAVAbstRaven_Bot@@VMemoryRecord@@U?$less@PAVAbstRaven_Bot@@@std@@V?$allocator@U?$pair@QAVAbstRaven_Bot@@VMemoryRecord@@@std@@@4@$0A@@std@@@std@@@std@@QAE@XZ ENDP ; std::_Tree_iterator<std::_Tree_val<std::_Tmap_traits<AbstRaven_Bot *,MemoryRecord,std::less<AbstRaven_Bot *>,std::allocator<std::pair<AbstRaven_Bot * const,MemoryRecord> >,0> > >::~_Tree_iterator<std::_Tree_val<std::_Tmap_traits<AbstRaven_Bot *,MemoryRecord,std::less<AbstRaven_Bot *>,std::allocator<std::pair<AbstRaven_Bot * const,MemoryRecord> >,0> > >
_TEXT	ENDS
PUBLIC	??1?$_Tree_unchecked_const_iterator@V?$_Tree_val@V?$_Tmap_traits@PAVAbstRaven_Bot@@VMemoryRecord@@U?$less@PAVAbstRaven_Bot@@@std@@V?$allocator@U?$pair@QAVAbstRaven_Bot@@VMemoryRecord@@@std@@@4@$0A@@std@@@std@@U_Iterator_base12@2@@std@@QAE@XZ ; std::_Tree_unchecked_const_iterator<std::_Tree_val<std::_Tmap_traits<AbstRaven_Bot *,MemoryRecord,std::less<AbstRaven_Bot *>,std::allocator<std::pair<AbstRaven_Bot * const,MemoryRecord> >,0> >,std::_Iterator_base12>::~_Tree_unchecked_const_iterator<std::_Tree_val<std::_Tmap_traits<AbstRaven_Bot *,MemoryRecord,std::less<AbstRaven_Bot *>,std::allocator<std::pair<AbstRaven_Bot * const,MemoryRecord> >,0> >,std::_Iterator_base12>
; Function compile flags: /Odtp /RTCsu
;	COMDAT ??1?$_Tree_const_iterator@V?$_Tree_val@V?$_Tmap_traits@PAVAbstRaven_Bot@@VMemoryRecord@@U?$less@PAVAbstRaven_Bot@@@std@@V?$allocator@U?$pair@QAVAbstRaven_Bot@@VMemoryRecord@@@std@@@4@$0A@@std@@@std@@@std@@QAE@XZ
_TEXT	SEGMENT
_this$ = -4						; size = 4
??1?$_Tree_const_iterator@V?$_Tree_val@V?$_Tmap_traits@PAVAbstRaven_Bot@@VMemoryRecord@@U?$less@PAVAbstRaven_Bot@@@std@@V?$allocator@U?$pair@QAVAbstRaven_Bot@@VMemoryRecord@@@std@@@4@$0A@@std@@@std@@@std@@QAE@XZ PROC ; std::_Tree_const_iterator<std::_Tree_val<std::_Tmap_traits<AbstRaven_Bot *,MemoryRecord,std::less<AbstRaven_Bot *>,std::allocator<std::pair<AbstRaven_Bot * const,MemoryRecord> >,0> > >::~_Tree_const_iterator<std::_Tree_val<std::_Tmap_traits<AbstRaven_Bot *,MemoryRecord,std::less<AbstRaven_Bot *>,std::allocator<std::pair<AbstRaven_Bot * const,MemoryRecord> >,0> > >, COMDAT
; _this$ = ecx
	push	ebp
	mov	ebp, esp
	push	ecx
	mov	DWORD PTR [ebp-4], -858993460		; ccccccccH
	mov	DWORD PTR _this$[ebp], ecx
	mov	ecx, DWORD PTR _this$[ebp]
	call	??1?$_Tree_unchecked_const_iterator@V?$_Tree_val@V?$_Tmap_traits@PAVAbstRaven_Bot@@VMemoryRecord@@U?$less@PAVAbstRaven_Bot@@@std@@V?$allocator@U?$pair@QAVAbstRaven_Bot@@VMemoryRecord@@@std@@@4@$0A@@std@@@std@@U_Iterator_base12@2@@std@@QAE@XZ
	add	esp, 4
	cmp	ebp, esp
	call	__RTC_CheckEsp
	mov	esp, ebp
	pop	ebp
	ret	0
??1?$_Tree_const_iterator@V?$_Tree_val@V?$_Tmap_traits@PAVAbstRaven_Bot@@VMemoryRecord@@U?$less@PAVAbstRaven_Bot@@@std@@V?$allocator@U?$pair@QAVAbstRaven_Bot@@VMemoryRecord@@@std@@@4@$0A@@std@@@std@@@std@@QAE@XZ ENDP ; std::_Tree_const_iterator<std::_Tree_val<std::_Tmap_traits<AbstRaven_Bot *,MemoryRecord,std::less<AbstRaven_Bot *>,std::allocator<std::pair<AbstRaven_Bot * const,MemoryRecord> >,0> > >::~_Tree_const_iterator<std::_Tree_val<std::_Tmap_traits<AbstRaven_Bot *,MemoryRecord,std::less<AbstRaven_Bot *>,std::allocator<std::pair<AbstRaven_Bot * const,MemoryRecord> >,0> > >
_TEXT	ENDS
PUBLIC	??1?$_Iterator012@Ubidirectional_iterator_tag@std@@U?$pair@QAVAbstRaven_Bot@@VMemoryRecord@@@2@HPBU32@ABU32@U_Iterator_base12@2@@std@@QAE@XZ ; std::_Iterator012<std::bidirectional_iterator_tag,std::pair<AbstRaven_Bot * const,MemoryRecord>,int,std::pair<AbstRaven_Bot * const,MemoryRecord> const *,std::pair<AbstRaven_Bot * const,MemoryRecord> const &,std::_Iterator_base12>::~_Iterator012<std::bidirectional_iterator_tag,std::pair<AbstRaven_Bot * const,MemoryRecord>,int,std::pair<AbstRaven_Bot * const,MemoryRecord> const *,std::pair<AbstRaven_Bot * const,MemoryRecord> const &,std::_Iterator_base12>
; Function compile flags: /Odtp /RTCsu
;	COMDAT ??1?$_Tree_unchecked_const_iterator@V?$_Tree_val@V?$_Tmap_traits@PAVAbstRaven_Bot@@VMemoryRecord@@U?$less@PAVAbstRaven_Bot@@@std@@V?$allocator@U?$pair@QAVAbstRaven_Bot@@VMemoryRecord@@@std@@@4@$0A@@std@@@std@@U_Iterator_base12@2@@std@@QAE@XZ
_TEXT	SEGMENT
_this$ = -4						; size = 4
??1?$_Tree_unchecked_const_iterator@V?$_Tree_val@V?$_Tmap_traits@PAVAbstRaven_Bot@@VMemoryRecord@@U?$less@PAVAbstRaven_Bot@@@std@@V?$allocator@U?$pair@QAVAbstRaven_Bot@@VMemoryRecord@@@std@@@4@$0A@@std@@@std@@U_Iterator_base12@2@@std@@QAE@XZ PROC ; std::_Tree_unchecked_const_iterator<std::_Tree_val<std::_Tmap_traits<AbstRaven_Bot *,MemoryRecord,std::less<AbstRaven_Bot *>,std::allocator<std::pair<AbstRaven_Bot * const,MemoryRecord> >,0> >,std::_Iterator_base12>::~_Tree_unchecked_const_iterator<std::_Tree_val<std::_Tmap_traits<AbstRaven_Bot *,MemoryRecord,std::less<AbstRaven_Bot *>,std::allocator<std::pair<AbstRaven_Bot * const,MemoryRecord> >,0> >,std::_Iterator_base12>, COMDAT
; _this$ = ecx
	push	ebp
	mov	ebp, esp
	push	ecx
	mov	DWORD PTR [ebp-4], -858993460		; ccccccccH
	mov	DWORD PTR _this$[ebp], ecx
	mov	ecx, DWORD PTR _this$[ebp]
	call	??1?$_Iterator012@Ubidirectional_iterator_tag@std@@U?$pair@QAVAbstRaven_Bot@@VMemoryRecord@@@2@HPBU32@ABU32@U_Iterator_base12@2@@std@@QAE@XZ
	add	esp, 4
	cmp	ebp, esp
	call	__RTC_CheckEsp
	mov	esp, ebp
	pop	ebp
	ret	0
??1?$_Tree_unchecked_const_iterator@V?$_Tree_val@V?$_Tmap_traits@PAVAbstRaven_Bot@@VMemoryRecord@@U?$less@PAVAbstRaven_Bot@@@std@@V?$allocator@U?$pair@QAVAbstRaven_Bot@@VMemoryRecord@@@std@@@4@$0A@@std@@@std@@U_Iterator_base12@2@@std@@QAE@XZ ENDP ; std::_Tree_unchecked_const_iterator<std::_Tree_val<std::_Tmap_traits<AbstRaven_Bot *,MemoryRecord,std::less<AbstRaven_Bot *>,std::allocator<std::pair<AbstRaven_Bot * const,MemoryRecord> >,0> >,std::_Iterator_base12>::~_Tree_unchecked_const_iterator<std::_Tree_val<std::_Tmap_traits<AbstRaven_Bot *,MemoryRecord,std::less<AbstRaven_Bot *>,std::allocator<std::pair<AbstRaven_Bot * const,MemoryRecord> >,0> >,std::_Iterator_base12>
_TEXT	ENDS
PUBLIC	??1_Iterator_base12@std@@QAE@XZ			; std::_Iterator_base12::~_Iterator_base12
; Function compile flags: /Odtp /RTCsu
;	COMDAT ??1?$_Iterator012@Ubidirectional_iterator_tag@std@@U?$pair@QAVAbstRaven_Bot@@VMemoryRecord@@@2@HPBU32@ABU32@U_Iterator_base12@2@@std@@QAE@XZ
_TEXT	SEGMENT
_this$ = -4						; size = 4
??1?$_Iterator012@Ubidirectional_iterator_tag@std@@U?$pair@QAVAbstRaven_Bot@@VMemoryRecord@@@2@HPBU32@ABU32@U_Iterator_base12@2@@std@@QAE@XZ PROC ; std::_Iterator012<std::bidirectional_iterator_tag,std::pair<AbstRaven_Bot * const,MemoryRecord>,int,std::pair<AbstRaven_Bot * const,MemoryRecord> const *,std::pair<AbstRaven_Bot * const,MemoryRecord> const &,std::_Iterator_base12>::~_Iterator012<std::bidirectional_iterator_tag,std::pair<AbstRaven_Bot * const,MemoryRecord>,int,std::pair<AbstRaven_Bot * const,MemoryRecord> const *,std::pair<AbstRaven_Bot * const,MemoryRecord> const &,std::_Iterator_base12>, COMDAT
; _this$ = ecx
	push	ebp
	mov	ebp, esp
	push	ecx
	mov	DWORD PTR [ebp-4], -858993460		; ccccccccH
	mov	DWORD PTR _this$[ebp], ecx
	mov	ecx, DWORD PTR _this$[ebp]
	call	??1_Iterator_base12@std@@QAE@XZ		; std::_Iterator_base12::~_Iterator_base12
	add	esp, 4
	cmp	ebp, esp
	call	__RTC_CheckEsp
	mov	esp, ebp
	pop	ebp
	ret	0
??1?$_Iterator012@Ubidirectional_iterator_tag@std@@U?$pair@QAVAbstRaven_Bot@@VMemoryRecord@@@2@HPBU32@ABU32@U_Iterator_base12@2@@std@@QAE@XZ ENDP ; std::_Iterator012<std::bidirectional_iterator_tag,std::pair<AbstRaven_Bot * const,MemoryRecord>,int,std::pair<AbstRaven_Bot * const,MemoryRecord> const *,std::pair<AbstRaven_Bot * const,MemoryRecord> const &,std::_Iterator_base12>::~_Iterator012<std::bidirectional_iterator_tag,std::pair<AbstRaven_Bot * const,MemoryRecord>,int,std::pair<AbstRaven_Bot * const,MemoryRecord> const *,std::pair<AbstRaven_Bot * const,MemoryRecord> const &,std::_Iterator_base12>
_TEXT	ENDS
PUBLIC	?_Orphan_me@_Iterator_base12@std@@QAEXXZ	; std::_Iterator_base12::_Orphan_me
EXTRN	??1_Lockit@std@@QAE@XZ:PROC			; std::_Lockit::~_Lockit
EXTRN	??0_Lockit@std@@QAE@H@Z:PROC			; std::_Lockit::_Lockit
EXTRN	@_RTC_CheckStackVars@8:PROC
;	COMDAT xdata$x
; File c:\program files (x86)\microsoft visual studio 10.0\vc\include\xutility
xdata$x	SEGMENT
__unwindtable$??1_Iterator_base12@std@@QAE@XZ DD 0ffffffffH
	DD	FLAT:__unwindfunclet$??1_Iterator_base12@std@@QAE@XZ$0
__ehfuncinfo$??1_Iterator_base12@std@@QAE@XZ DD 019930522H
	DD	01H
	DD	FLAT:__unwindtable$??1_Iterator_base12@std@@QAE@XZ
	DD	2 DUP(00H)
	DD	2 DUP(00H)
	DD	00H
	DD	01H
; Function compile flags: /Odtp /RTCsu
xdata$x	ENDS
;	COMDAT ??1_Iterator_base12@std@@QAE@XZ
_TEXT	SEGMENT
__Lock$ = -24						; size = 4
_this$ = -16						; size = 4
__$EHRec$ = -12						; size = 12
??1_Iterator_base12@std@@QAE@XZ PROC			; std::_Iterator_base12::~_Iterator_base12, COMDAT
; _this$ = ecx

; 135  : 		{	// destroy the iterator

	push	ebp
	mov	ebp, esp
	push	-1
	push	__ehhandler$??1_Iterator_base12@std@@QAE@XZ
	mov	eax, DWORD PTR fs:0
	push	eax
	sub	esp, 16					; 00000010H
	mov	eax, -858993460				; ccccccccH
	mov	DWORD PTR [ebp-28], eax
	mov	DWORD PTR [ebp-24], eax
	mov	DWORD PTR [ebp-20], eax
	mov	DWORD PTR [ebp-16], eax
	mov	eax, DWORD PTR ___security_cookie
	xor	eax, ebp
	push	eax
	lea	eax, DWORD PTR __$EHRec$[ebp]
	mov	DWORD PTR fs:0, eax
	mov	DWORD PTR _this$[ebp], ecx

; 136  :  #if _ITERATOR_DEBUG_LEVEL == 2
; 137  : 		_Lockit _Lock(_LOCK_DEBUG);

	push	3
	lea	ecx, DWORD PTR __Lock$[ebp]
	call	??0_Lockit@std@@QAE@H@Z			; std::_Lockit::_Lockit
	mov	DWORD PTR __$EHRec$[ebp+8], 0

; 138  : 		_Orphan_me();

	mov	ecx, DWORD PTR _this$[ebp]
	call	?_Orphan_me@_Iterator_base12@std@@QAEXXZ ; std::_Iterator_base12::_Orphan_me

; 139  :  #endif /* _ITERATOR_DEBUG_LEVEL == 2 */
; 140  : 		}

	mov	DWORD PTR __$EHRec$[ebp+8], -1
	lea	ecx, DWORD PTR __Lock$[ebp]
	call	??1_Lockit@std@@QAE@XZ			; std::_Lockit::~_Lockit
	push	edx
	mov	ecx, ebp
	push	eax
	lea	edx, DWORD PTR $LN7@Iterator_b
	call	@_RTC_CheckStackVars@8
	pop	eax
	pop	edx
	mov	ecx, DWORD PTR __$EHRec$[ebp]
	mov	DWORD PTR fs:0, ecx
	pop	ecx
	add	esp, 28					; 0000001cH
	cmp	ebp, esp
	call	__RTC_CheckEsp
	mov	esp, ebp
	pop	ebp
	ret	0
	npad	1
$LN7@Iterator_b:
	DD	1
	DD	$LN6@Iterator_b
$LN6@Iterator_b:
	DD	-24					; ffffffe8H
	DD	4
	DD	$LN4@Iterator_b
$LN4@Iterator_b:
	DB	95					; 0000005fH
	DB	76					; 0000004cH
	DB	111					; 0000006fH
	DB	99					; 00000063H
	DB	107					; 0000006bH
	DB	0
_TEXT	ENDS
;	COMDAT text$x
text$x	SEGMENT
__unwindfunclet$??1_Iterator_base12@std@@QAE@XZ$0:
	lea	ecx, DWORD PTR __Lock$[ebp]
	jmp	??1_Lockit@std@@QAE@XZ			; std::_Lockit::~_Lockit
__ehhandler$??1_Iterator_base12@std@@QAE@XZ:
	mov	edx, DWORD PTR [esp+8]
	lea	eax, DWORD PTR [edx+12]
	mov	ecx, DWORD PTR [edx-20]
	xor	ecx, eax
	call	@__security_check_cookie@4
	mov	eax, OFFSET __ehfuncinfo$??1_Iterator_base12@std@@QAE@XZ
	jmp	___CxxFrameHandler3
text$x	ENDS
??1_Iterator_base12@std@@QAE@XZ ENDP			; std::_Iterator_base12::~_Iterator_base12
PUBLIC	??_C@_1DC@POOIKBAO@?$AAI?$AAT?$AAE?$AAR?$AAA?$AAT?$AAO?$AAR?$AA?5?$AAL?$AAI?$AAS?$AAT?$AA?5?$AAC?$AAO?$AAR?$AAR?$AAU?$AAP?$AAT?$AAE?$AAD?$AA?$CB?$AA?$AA@ ; `string'
PUBLIC	??_C@_1JA@HCKHPKJH@?$AAc?$AA?3?$AA?2?$AAP?$AAr?$AAo?$AAg?$AAr?$AAa?$AAm?$AA?5?$AAF?$AAi?$AAl?$AAe?$AAs?$AA?5?$AA?$CI?$AAx?$AA8?$AA6?$AA?$CJ?$AA?2?$AAM?$AAi?$AAc?$AAr?$AAo?$AAs?$AAo?$AAf?$AAt@ ; `string'
EXTRN	?_Debug_message@std@@YAXPB_W0I@Z:PROC		; std::_Debug_message
;	COMDAT ??_C@_1DC@POOIKBAO@?$AAI?$AAT?$AAE?$AAR?$AAA?$AAT?$AAO?$AAR?$AA?5?$AAL?$AAI?$AAS?$AAT?$AA?5?$AAC?$AAO?$AAR?$AAR?$AAU?$AAP?$AAT?$AAE?$AAD?$AA?$CB?$AA?$AA@
CONST	SEGMENT
??_C@_1DC@POOIKBAO@?$AAI?$AAT?$AAE?$AAR?$AAA?$AAT?$AAO?$AAR?$AA?5?$AAL?$AAI?$AAS?$AAT?$AA?5?$AAC?$AAO?$AAR?$AAR?$AAU?$AAP?$AAT?$AAE?$AAD?$AA?$CB?$AA?$AA@ DB 'I'
	DB	00H, 'T', 00H, 'E', 00H, 'R', 00H, 'A', 00H, 'T', 00H, 'O', 00H
	DB	'R', 00H, ' ', 00H, 'L', 00H, 'I', 00H, 'S', 00H, 'T', 00H, ' '
	DB	00H, 'C', 00H, 'O', 00H, 'R', 00H, 'R', 00H, 'U', 00H, 'P', 00H
	DB	'T', 00H, 'E', 00H, 'D', 00H, '!', 00H, 00H, 00H ; `string'
CONST	ENDS
;	COMDAT ??_C@_1JA@HCKHPKJH@?$AAc?$AA?3?$AA?2?$AAP?$AAr?$AAo?$AAg?$AAr?$AAa?$AAm?$AA?5?$AAF?$AAi?$AAl?$AAe?$AAs?$AA?5?$AA?$CI?$AAx?$AA8?$AA6?$AA?$CJ?$AA?2?$AAM?$AAi?$AAc?$AAr?$AAo?$AAs?$AAo?$AAf?$AAt@
CONST	SEGMENT
??_C@_1JA@HCKHPKJH@?$AAc?$AA?3?$AA?2?$AAP?$AAr?$AAo?$AAg?$AAr?$AAa?$AAm?$AA?5?$AAF?$AAi?$AAl?$AAe?$AAs?$AA?5?$AA?$CI?$AAx?$AA8?$AA6?$AA?$CJ?$AA?2?$AAM?$AAi?$AAc?$AAr?$AAo?$AAs?$AAo?$AAf?$AAt@ DB 'c'
	DB	00H, ':', 00H, '\', 00H, 'P', 00H, 'r', 00H, 'o', 00H, 'g', 00H
	DB	'r', 00H, 'a', 00H, 'm', 00H, ' ', 00H, 'F', 00H, 'i', 00H, 'l'
	DB	00H, 'e', 00H, 's', 00H, ' ', 00H, '(', 00H, 'x', 00H, '8', 00H
	DB	'6', 00H, ')', 00H, '\', 00H, 'M', 00H, 'i', 00H, 'c', 00H, 'r'
	DB	00H, 'o', 00H, 's', 00H, 'o', 00H, 'f', 00H, 't', 00H, ' ', 00H
	DB	'V', 00H, 'i', 00H, 's', 00H, 'u', 00H, 'a', 00H, 'l', 00H, ' '
	DB	00H, 'S', 00H, 't', 00H, 'u', 00H, 'd', 00H, 'i', 00H, 'o', 00H
	DB	' ', 00H, '1', 00H, '0', 00H, '.', 00H, '0', 00H, '\', 00H, 'V'
	DB	00H, 'C', 00H, '\', 00H, 'i', 00H, 'n', 00H, 'c', 00H, 'l', 00H
	DB	'u', 00H, 'd', 00H, 'e', 00H, '\', 00H, 'x', 00H, 'u', 00H, 't'
	DB	00H, 'i', 00H, 'l', 00H, 'i', 00H, 't', 00H, 'y', 00H, 00H, 00H ; `string'
; Function compile flags: /Odtp /RTCsu
CONST	ENDS
;	COMDAT ?_Orphan_me@_Iterator_base12@std@@QAEXXZ
_TEXT	SEGMENT
__Pnext$15159 = -8					; size = 4
_this$ = -4						; size = 4
?_Orphan_me@_Iterator_base12@std@@QAEXXZ PROC		; std::_Iterator_base12::_Orphan_me, COMDAT
; _this$ = ecx

; 184  : 		{	// cut ties with parent

	push	ebp
	mov	ebp, esp
	sub	esp, 8
	mov	DWORD PTR [ebp-8], -858993460		; ccccccccH
	mov	DWORD PTR [ebp-4], -858993460		; ccccccccH
	mov	DWORD PTR _this$[ebp], ecx

; 185  :  #if _ITERATOR_DEBUG_LEVEL == 2
; 186  : 		if (_Myproxy != 0)

	mov	eax, DWORD PTR _this$[ebp]
	cmp	DWORD PTR [eax], 0
	je	SHORT $LN5@Orphan_me

; 187  : 			{	// adopted, remove self from list
; 188  : 			_Iterator_base12 **_Pnext = &_Myproxy->_Myfirstiter;

	mov	ecx, DWORD PTR _this$[ebp]
	mov	edx, DWORD PTR [ecx]
	add	edx, 4
	mov	DWORD PTR __Pnext$15159[ebp], edx
$LN3@Orphan_me:

; 189  : 			while (*_Pnext != 0 && *_Pnext != this)

	mov	eax, DWORD PTR __Pnext$15159[ebp]
	cmp	DWORD PTR [eax], 0
	je	SHORT $LN2@Orphan_me
	mov	ecx, DWORD PTR __Pnext$15159[ebp]
	mov	edx, DWORD PTR [ecx]
	cmp	edx, DWORD PTR _this$[ebp]
	je	SHORT $LN2@Orphan_me

; 190  : 				_Pnext = &(*_Pnext)->_Mynextiter;

	mov	eax, DWORD PTR __Pnext$15159[ebp]
	mov	ecx, DWORD PTR [eax]
	add	ecx, 4
	mov	DWORD PTR __Pnext$15159[ebp], ecx
	jmp	SHORT $LN3@Orphan_me
$LN2@Orphan_me:

; 191  : 
; 192  : 			if (*_Pnext == 0)

	mov	edx, DWORD PTR __Pnext$15159[ebp]
	cmp	DWORD PTR [edx], 0
	jne	SHORT $LN1@Orphan_me

; 193  : 				_DEBUG_ERROR("ITERATOR LIST CORRUPTED!");

	push	193					; 000000c1H
	push	OFFSET ??_C@_1JA@HCKHPKJH@?$AAc?$AA?3?$AA?2?$AAP?$AAr?$AAo?$AAg?$AAr?$AAa?$AAm?$AA?5?$AAF?$AAi?$AAl?$AAe?$AAs?$AA?5?$AA?$CI?$AAx?$AA8?$AA6?$AA?$CJ?$AA?2?$AAM?$AAi?$AAc?$AAr?$AAo?$AAs?$AAo?$AAf?$AAt@
	push	OFFSET ??_C@_1DC@POOIKBAO@?$AAI?$AAT?$AAE?$AAR?$AAA?$AAT?$AAO?$AAR?$AA?5?$AAL?$AAI?$AAS?$AAT?$AA?5?$AAC?$AAO?$AAR?$AAR?$AAU?$AAP?$AAT?$AAE?$AAD?$AA?$CB?$AA?$AA@
	call	?_Debug_message@std@@YAXPB_W0I@Z	; std::_Debug_message
	add	esp, 12					; 0000000cH
$LN1@Orphan_me:

; 194  : 			*_Pnext = _Mynextiter;

	mov	eax, DWORD PTR __Pnext$15159[ebp]
	mov	ecx, DWORD PTR _this$[ebp]
	mov	edx, DWORD PTR [ecx+4]
	mov	DWORD PTR [eax], edx

; 195  : 			_Myproxy = 0;

	mov	eax, DWORD PTR _this$[ebp]
	mov	DWORD PTR [eax], 0
$LN5@Orphan_me:

; 196  : 			}
; 197  :  #endif /* _ITERATOR_DEBUG_LEVEL == 2 */
; 198  : 		}

	add	esp, 8
	cmp	ebp, esp
	call	__RTC_CheckEsp
	mov	esp, ebp
	pop	ebp
	ret	0
?_Orphan_me@_Iterator_base12@std@@QAEXXZ ENDP		; std::_Iterator_base12::_Orphan_me
_TEXT	ENDS
PUBLIC	?erase@?$_Tree@V?$_Tmap_traits@PAVAbstRaven_Bot@@VMemoryRecord@@U?$less@PAVAbstRaven_Bot@@@std@@V?$allocator@U?$pair@QAVAbstRaven_Bot@@VMemoryRecord@@@std@@@4@$0A@@std@@@std@@QAE?AV?$_Tree_iterator@V?$_Tree_val@V?$_Tmap_traits@PAVAbstRaven_Bot@@VMemoryRecord@@U?$less@PAVAbstRaven_Bot@@@std@@V?$allocator@U?$pair@QAVAbstRaven_Bot@@VMemoryRecord@@@std@@@4@$0A@@std@@@std@@@2@V?$_Tree_const_iterator@V?$_Tree_val@V?$_Tmap_traits@PAVAbstRaven_Bot@@VMemoryRecord@@U?$less@PAVAbstRaven_Bot@@@std@@V?$allocator@U?$pair@QAVAbstRaven_Bot@@VMemoryRecord@@@std@@@4@$0A@@std@@@std@@@2@@Z ; std::_Tree<std::_Tmap_traits<AbstRaven_Bot *,MemoryRecord,std::less<AbstRaven_Bot *>,std::allocator<std::pair<AbstRaven_Bot * const,MemoryRecord> >,0> >::erase
PUBLIC	??0?$_Tree_const_iterator@V?$_Tree_val@V?$_Tmap_traits@PAVAbstRaven_Bot@@VMemoryRecord@@U?$less@PAVAbstRaven_Bot@@@std@@V?$allocator@U?$pair@QAVAbstRaven_Bot@@VMemoryRecord@@@std@@@4@$0A@@std@@@std@@@std@@QAE@ABV01@@Z ; std::_Tree_const_iterator<std::_Tree_val<std::_Tmap_traits<AbstRaven_Bot *,MemoryRecord,std::less<AbstRaven_Bot *>,std::allocator<std::pair<AbstRaven_Bot * const,MemoryRecord> >,0> > >::_Tree_const_iterator<std::_Tree_val<std::_Tmap_traits<AbstRaven_Bot *,MemoryRecord,std::less<AbstRaven_Bot *>,std::allocator<std::pair<AbstRaven_Bot * const,MemoryRecord> >,0> > >
PUBLIC	??9?$_Tree_const_iterator@V?$_Tree_val@V?$_Tmap_traits@PAVAbstRaven_Bot@@VMemoryRecord@@U?$less@PAVAbstRaven_Bot@@@std@@V?$allocator@U?$pair@QAVAbstRaven_Bot@@VMemoryRecord@@@std@@@4@$0A@@std@@@std@@@std@@QBE_NABV01@@Z ; std::_Tree_const_iterator<std::_Tree_val<std::_Tmap_traits<AbstRaven_Bot *,MemoryRecord,std::less<AbstRaven_Bot *>,std::allocator<std::pair<AbstRaven_Bot * const,MemoryRecord> >,0> > >::operator!=
PUBLIC	?RemoveBotFromMemory@Raven_SensoryMemory@@QAEXPAVAbstRaven_Bot@@@Z ; Raven_SensoryMemory::RemoveBotFromMemory
xdata$x	SEGMENT
__unwindtable$?RemoveBotFromMemory@Raven_SensoryMemory@@QAEXPAVAbstRaven_Bot@@@Z DD 0ffffffffH
	DD	FLAT:__unwindfunclet$?RemoveBotFromMemory@Raven_SensoryMemory@@QAEXPAVAbstRaven_Bot@@@Z$0
	DD	00H
	DD	FLAT:__unwindfunclet$?RemoveBotFromMemory@Raven_SensoryMemory@@QAEXPAVAbstRaven_Bot@@@Z$1
__ehfuncinfo$?RemoveBotFromMemory@Raven_SensoryMemory@@QAEXPAVAbstRaven_Bot@@@Z DD 019930522H
	DD	02H
	DD	FLAT:__unwindtable$?RemoveBotFromMemory@Raven_SensoryMemory@@QAEXPAVAbstRaven_Bot@@@Z
	DD	2 DUP(00H)
	DD	2 DUP(00H)
	DD	00H
	DD	01H
; Function compile flags: /Odtp /RTCsu
; File c:\users\teaja\documents\artificial-fun\labravenprojecttest\raven\raven_sensorymemory.cpp
xdata$x	ENDS
_TEXT	SEGMENT
tv161 = -84						; size = 4
tv160 = -80						; size = 4
tv158 = -76						; size = 4
tv70 = -72						; size = 4
$T143349 = -68						; size = 12
$T143348 = -56						; size = 4
$T143347 = -52						; size = 12
$T143346 = -37						; size = 1
_record$ = -32						; size = 12
_this$ = -16						; size = 4
__$EHRec$ = -12						; size = 12
_pBot$ = 8						; size = 4
?RemoveBotFromMemory@Raven_SensoryMemory@@QAEXPAVAbstRaven_Bot@@@Z PROC ; Raven_SensoryMemory::RemoveBotFromMemory
; _this$ = ecx

; 32   : {

	push	ebp
	mov	ebp, esp
	push	-1
	push	__ehhandler$?RemoveBotFromMemory@Raven_SensoryMemory@@QAEXPAVAbstRaven_Bot@@@Z
	mov	eax, DWORD PTR fs:0
	push	eax
	sub	esp, 72					; 00000048H
	push	edi
	push	ecx
	lea	edi, DWORD PTR [ebp-84]
	mov	ecx, 18					; 00000012H
	mov	eax, -858993460				; ccccccccH
	rep stosd
	pop	ecx
	mov	eax, DWORD PTR ___security_cookie
	xor	eax, ebp
	push	eax
	lea	eax, DWORD PTR __$EHRec$[ebp]
	mov	DWORD PTR fs:0, eax
	mov	DWORD PTR _this$[ebp], ecx

; 33   :   MemoryMap::iterator record = m_MemoryMap.find(pBot);

	lea	eax, DWORD PTR _pBot$[ebp]
	push	eax
	lea	ecx, DWORD PTR _record$[ebp]
	push	ecx
	mov	ecx, DWORD PTR _this$[ebp]
	add	ecx, 4
	call	?find@?$_Tree@V?$_Tmap_traits@PAVAbstRaven_Bot@@VMemoryRecord@@U?$less@PAVAbstRaven_Bot@@@std@@V?$allocator@U?$pair@QAVAbstRaven_Bot@@VMemoryRecord@@@std@@@4@$0A@@std@@@std@@QAE?AV?$_Tree_iterator@V?$_Tree_val@V?$_Tmap_traits@PAVAbstRaven_Bot@@VMemoryRecord@@U?$less@PAVAbstRaven_Bot@@@std@@V?$allocator@U?$pair@QAVAbstRaven_Bot@@VMemoryRecord@@@std@@@4@$0A@@std@@@std@@@2@ABQAVAbstRaven_Bot@@@Z ; std::_Tree<std::_Tmap_traits<AbstRaven_Bot *,MemoryRecord,std::less<AbstRaven_Bot *>,std::allocator<std::pair<AbstRaven_Bot * const,MemoryRecord> >,0> >::find
	mov	DWORD PTR __$EHRec$[ebp+8], 0

; 34   :   
; 35   :   if (record != m_MemoryMap.end())

	lea	edx, DWORD PTR $T143347[ebp]
	push	edx
	mov	ecx, DWORD PTR _this$[ebp]
	add	ecx, 4
	call	?end@?$_Tree@V?$_Tmap_traits@PAVAbstRaven_Bot@@VMemoryRecord@@U?$less@PAVAbstRaven_Bot@@@std@@V?$allocator@U?$pair@QAVAbstRaven_Bot@@VMemoryRecord@@@std@@@4@$0A@@std@@@std@@QAE?AV?$_Tree_iterator@V?$_Tree_val@V?$_Tmap_traits@PAVAbstRaven_Bot@@VMemoryRecord@@U?$less@PAVAbstRaven_Bot@@@std@@V?$allocator@U?$pair@QAVAbstRaven_Bot@@VMemoryRecord@@@std@@@4@$0A@@std@@@std@@@2@XZ ; std::_Tree<std::_Tmap_traits<AbstRaven_Bot *,MemoryRecord,std::less<AbstRaven_Bot *>,std::allocator<std::pair<AbstRaven_Bot * const,MemoryRecord> >,0> >::end
	mov	DWORD PTR tv70[ebp], eax
	mov	eax, DWORD PTR tv70[ebp]
	mov	DWORD PTR tv158[ebp], eax
	mov	BYTE PTR __$EHRec$[ebp+8], 1
	mov	ecx, DWORD PTR tv158[ebp]
	push	ecx
	lea	ecx, DWORD PTR _record$[ebp]
	call	??9?$_Tree_const_iterator@V?$_Tree_val@V?$_Tmap_traits@PAVAbstRaven_Bot@@VMemoryRecord@@U?$less@PAVAbstRaven_Bot@@@std@@V?$allocator@U?$pair@QAVAbstRaven_Bot@@VMemoryRecord@@@std@@@4@$0A@@std@@@std@@@std@@QBE_NABV01@@Z ; std::_Tree_const_iterator<std::_Tree_val<std::_Tmap_traits<AbstRaven_Bot *,MemoryRecord,std::less<AbstRaven_Bot *>,std::allocator<std::pair<AbstRaven_Bot * const,MemoryRecord> >,0> > >::operator!=
	mov	BYTE PTR $T143346[ebp], al
	mov	BYTE PTR __$EHRec$[ebp+8], 0
	lea	ecx, DWORD PTR $T143347[ebp]
	call	??1?$_Tree_iterator@V?$_Tree_val@V?$_Tmap_traits@PAVAbstRaven_Bot@@VMemoryRecord@@U?$less@PAVAbstRaven_Bot@@@std@@V?$allocator@U?$pair@QAVAbstRaven_Bot@@VMemoryRecord@@@std@@@4@$0A@@std@@@std@@@std@@QAE@XZ
	movzx	edx, BYTE PTR $T143346[ebp]
	test	edx, edx
	je	SHORT $LN1@RemoveBotF

; 36   :   {
; 37   :     m_MemoryMap.erase(record);

	sub	esp, 12					; 0000000cH
	mov	ecx, esp
	mov	DWORD PTR $T143348[ebp], esp
	lea	eax, DWORD PTR _record$[ebp]
	push	eax
	call	??0?$_Tree_const_iterator@V?$_Tree_val@V?$_Tmap_traits@PAVAbstRaven_Bot@@VMemoryRecord@@U?$less@PAVAbstRaven_Bot@@@std@@V?$allocator@U?$pair@QAVAbstRaven_Bot@@VMemoryRecord@@@std@@@4@$0A@@std@@@std@@@std@@QAE@ABV01@@Z
	mov	DWORD PTR tv160[ebp], eax
	lea	ecx, DWORD PTR $T143349[ebp]
	push	ecx
	mov	ecx, DWORD PTR _this$[ebp]
	add	ecx, 4
	call	?erase@?$_Tree@V?$_Tmap_traits@PAVAbstRaven_Bot@@VMemoryRecord@@U?$less@PAVAbstRaven_Bot@@@std@@V?$allocator@U?$pair@QAVAbstRaven_Bot@@VMemoryRecord@@@std@@@4@$0A@@std@@@std@@QAE?AV?$_Tree_iterator@V?$_Tree_val@V?$_Tmap_traits@PAVAbstRaven_Bot@@VMemoryRecord@@U?$less@PAVAbstRaven_Bot@@@std@@V?$allocator@U?$pair@QAVAbstRaven_Bot@@VMemoryRecord@@@std@@@4@$0A@@std@@@std@@@2@V?$_Tree_const_iterator@V?$_Tree_val@V?$_Tmap_traits@PAVAbstRaven_Bot@@VMemoryRecord@@U?$less@PAVAbstRaven_Bot@@@std@@V?$allocator@U?$pair@QAVAbstRaven_Bot@@VMemoryRecord@@@std@@@4@$0A@@std@@@std@@@2@@Z ; std::_Tree<std::_Tmap_traits<AbstRaven_Bot *,MemoryRecord,std::less<AbstRaven_Bot *>,std::allocator<std::pair<AbstRaven_Bot * const,MemoryRecord> >,0> >::erase
	mov	DWORD PTR tv161[ebp], eax
	lea	ecx, DWORD PTR $T143349[ebp]
	call	??1?$_Tree_iterator@V?$_Tree_val@V?$_Tmap_traits@PAVAbstRaven_Bot@@VMemoryRecord@@U?$less@PAVAbstRaven_Bot@@@std@@V?$allocator@U?$pair@QAVAbstRaven_Bot@@VMemoryRecord@@@std@@@4@$0A@@std@@@std@@@std@@QAE@XZ
$LN1@RemoveBotF:

; 38   :   }
; 39   : }

	mov	DWORD PTR __$EHRec$[ebp+8], -1
	lea	ecx, DWORD PTR _record$[ebp]
	call	??1?$_Tree_iterator@V?$_Tree_val@V?$_Tmap_traits@PAVAbstRaven_Bot@@VMemoryRecord@@U?$less@PAVAbstRaven_Bot@@@std@@V?$allocator@U?$pair@QAVAbstRaven_Bot@@VMemoryRecord@@@std@@@4@$0A@@std@@@std@@@std@@QAE@XZ
	push	edx
	mov	ecx, ebp
	push	eax
	lea	edx, DWORD PTR $LN11@RemoveBotF
	call	@_RTC_CheckStackVars@8
	pop	eax
	pop	edx
	mov	ecx, DWORD PTR __$EHRec$[ebp]
	mov	DWORD PTR fs:0, ecx
	pop	ecx
	pop	edi
	add	esp, 84					; 00000054H
	cmp	ebp, esp
	call	__RTC_CheckEsp
	mov	esp, ebp
	pop	ebp
	ret	4
	npad	3
$LN11@RemoveBotF:
	DD	1
	DD	$LN10@RemoveBotF
$LN10@RemoveBotF:
	DD	-32					; ffffffe0H
	DD	12					; 0000000cH
	DD	$LN8@RemoveBotF
$LN8@RemoveBotF:
	DB	114					; 00000072H
	DB	101					; 00000065H
	DB	99					; 00000063H
	DB	111					; 0000006fH
	DB	114					; 00000072H
	DB	100					; 00000064H
	DB	0
_TEXT	ENDS
text$x	SEGMENT
__unwindfunclet$?RemoveBotFromMemory@Raven_SensoryMemory@@QAEXPAVAbstRaven_Bot@@@Z$0:
	lea	ecx, DWORD PTR _record$[ebp]
	jmp	??1?$_Tree_iterator@V?$_Tree_val@V?$_Tmap_traits@PAVAbstRaven_Bot@@VMemoryRecord@@U?$less@PAVAbstRaven_Bot@@@std@@V?$allocator@U?$pair@QAVAbstRaven_Bot@@VMemoryRecord@@@std@@@4@$0A@@std@@@std@@@std@@QAE@XZ
__unwindfunclet$?RemoveBotFromMemory@Raven_SensoryMemory@@QAEXPAVAbstRaven_Bot@@@Z$1:
	lea	ecx, DWORD PTR $T143347[ebp]
	jmp	??1?$_Tree_iterator@V?$_Tree_val@V?$_Tmap_traits@PAVAbstRaven_Bot@@VMemoryRecord@@U?$less@PAVAbstRaven_Bot@@@std@@V?$allocator@U?$pair@QAVAbstRaven_Bot@@VMemoryRecord@@@std@@@4@$0A@@std@@@std@@@std@@QAE@XZ
__ehhandler$?RemoveBotFromMemory@Raven_SensoryMemory@@QAEXPAVAbstRaven_Bot@@@Z:
	mov	edx, DWORD PTR [esp+8]
	lea	eax, DWORD PTR [edx+12]
	mov	ecx, DWORD PTR [edx-80]
	xor	ecx, eax
	call	@__security_check_cookie@4
	mov	eax, OFFSET __ehfuncinfo$?RemoveBotFromMemory@Raven_SensoryMemory@@QAEXPAVAbstRaven_Bot@@@Z
	jmp	___CxxFrameHandler3
text$x	ENDS
?RemoveBotFromMemory@Raven_SensoryMemory@@QAEXPAVAbstRaven_Bot@@@Z ENDP ; Raven_SensoryMemory::RemoveBotFromMemory
PUBLIC	??0?$_Tree_unchecked_const_iterator@V?$_Tree_val@V?$_Tmap_traits@PAVAbstRaven_Bot@@VMemoryRecord@@U?$less@PAVAbstRaven_Bot@@@std@@V?$allocator@U?$pair@QAVAbstRaven_Bot@@VMemoryRecord@@@std@@@4@$0A@@std@@@std@@U_Iterator_base12@2@@std@@QAE@ABV01@@Z ; std::_Tree_unchecked_const_iterator<std::_Tree_val<std::_Tmap_traits<AbstRaven_Bot *,MemoryRecord,std::less<AbstRaven_Bot *>,std::allocator<std::pair<AbstRaven_Bot * const,MemoryRecord> >,0> >,std::_Iterator_base12>::_Tree_unchecked_const_iterator<std::_Tree_val<std::_Tmap_traits<AbstRaven_Bot *,MemoryRecord,std::less<AbstRaven_Bot *>,std::allocator<std::pair<AbstRaven_Bot * const,MemoryRecord> >,0> >,std::_Iterator_base12>
; Function compile flags: /Odtp /RTCsu
;	COMDAT ??0?$_Tree_const_iterator@V?$_Tree_val@V?$_Tmap_traits@PAVAbstRaven_Bot@@VMemoryRecord@@U?$less@PAVAbstRaven_Bot@@@std@@V?$allocator@U?$pair@QAVAbstRaven_Bot@@VMemoryRecord@@@std@@@4@$0A@@std@@@std@@@std@@QAE@ABV01@@Z
_TEXT	SEGMENT
_this$ = -4						; size = 4
___that$ = 8						; size = 4
??0?$_Tree_const_iterator@V?$_Tree_val@V?$_Tmap_traits@PAVAbstRaven_Bot@@VMemoryRecord@@U?$less@PAVAbstRaven_Bot@@@std@@V?$allocator@U?$pair@QAVAbstRaven_Bot@@VMemoryRecord@@@std@@@4@$0A@@std@@@std@@@std@@QAE@ABV01@@Z PROC ; std::_Tree_const_iterator<std::_Tree_val<std::_Tmap_traits<AbstRaven_Bot *,MemoryRecord,std::less<AbstRaven_Bot *>,std::allocator<std::pair<AbstRaven_Bot * const,MemoryRecord> >,0> > >::_Tree_const_iterator<std::_Tree_val<std::_Tmap_traits<AbstRaven_Bot *,MemoryRecord,std::less<AbstRaven_Bot *>,std::allocator<std::pair<AbstRaven_Bot * const,MemoryRecord> >,0> > >, COMDAT
; _this$ = ecx
	push	ebp
	mov	ebp, esp
	push	ecx
	mov	DWORD PTR [ebp-4], -858993460		; ccccccccH
	mov	DWORD PTR _this$[ebp], ecx
	mov	eax, DWORD PTR ___that$[ebp]
	push	eax
	mov	ecx, DWORD PTR _this$[ebp]
	call	??0?$_Tree_unchecked_const_iterator@V?$_Tree_val@V?$_Tmap_traits@PAVAbstRaven_Bot@@VMemoryRecord@@U?$less@PAVAbstRaven_Bot@@@std@@V?$allocator@U?$pair@QAVAbstRaven_Bot@@VMemoryRecord@@@std@@@4@$0A@@std@@@std@@U_Iterator_base12@2@@std@@QAE@ABV01@@Z
	mov	eax, DWORD PTR _this$[ebp]
	add	esp, 4
	cmp	ebp, esp
	call	__RTC_CheckEsp
	mov	esp, ebp
	pop	ebp
	ret	4
??0?$_Tree_const_iterator@V?$_Tree_val@V?$_Tmap_traits@PAVAbstRaven_Bot@@VMemoryRecord@@U?$less@PAVAbstRaven_Bot@@@std@@V?$allocator@U?$pair@QAVAbstRaven_Bot@@VMemoryRecord@@@std@@@4@$0A@@std@@@std@@@std@@QAE@ABV01@@Z ENDP ; std::_Tree_const_iterator<std::_Tree_val<std::_Tmap_traits<AbstRaven_Bot *,MemoryRecord,std::less<AbstRaven_Bot *>,std::allocator<std::pair<AbstRaven_Bot * const,MemoryRecord> >,0> > >::_Tree_const_iterator<std::_Tree_val<std::_Tmap_traits<AbstRaven_Bot *,MemoryRecord,std::less<AbstRaven_Bot *>,std::allocator<std::pair<AbstRaven_Bot * const,MemoryRecord> >,0> > >
_TEXT	ENDS
PUBLIC	??0?$_Iterator012@Ubidirectional_iterator_tag@std@@U?$pair@QAVAbstRaven_Bot@@VMemoryRecord@@@2@HPBU32@ABU32@U_Iterator_base12@2@@std@@QAE@ABU01@@Z ; std::_Iterator012<std::bidirectional_iterator_tag,std::pair<AbstRaven_Bot * const,MemoryRecord>,int,std::pair<AbstRaven_Bot * const,MemoryRecord> const *,std::pair<AbstRaven_Bot * const,MemoryRecord> const &,std::_Iterator_base12>::_Iterator012<std::bidirectional_iterator_tag,std::pair<AbstRaven_Bot * const,MemoryRecord>,int,std::pair<AbstRaven_Bot * const,MemoryRecord> const *,std::pair<AbstRaven_Bot * const,MemoryRecord> const &,std::_Iterator_base12>
; Function compile flags: /Odtp /RTCsu
;	COMDAT ??0?$_Tree_unchecked_const_iterator@V?$_Tree_val@V?$_Tmap_traits@PAVAbstRaven_Bot@@VMemoryRecord@@U?$less@PAVAbstRaven_Bot@@@std@@V?$allocator@U?$pair@QAVAbstRaven_Bot@@VMemoryRecord@@@std@@@4@$0A@@std@@@std@@U_Iterator_base12@2@@std@@QAE@ABV01@@Z
_TEXT	SEGMENT
_this$ = -4						; size = 4
___that$ = 8						; size = 4
??0?$_Tree_unchecked_const_iterator@V?$_Tree_val@V?$_Tmap_traits@PAVAbstRaven_Bot@@VMemoryRecord@@U?$less@PAVAbstRaven_Bot@@@std@@V?$allocator@U?$pair@QAVAbstRaven_Bot@@VMemoryRecord@@@std@@@4@$0A@@std@@@std@@U_Iterator_base12@2@@std@@QAE@ABV01@@Z PROC ; std::_Tree_unchecked_const_iterator<std::_Tree_val<std::_Tmap_traits<AbstRaven_Bot *,MemoryRecord,std::less<AbstRaven_Bot *>,std::allocator<std::pair<AbstRaven_Bot * const,MemoryRecord> >,0> >,std::_Iterator_base12>::_Tree_unchecked_const_iterator<std::_Tree_val<std::_Tmap_traits<AbstRaven_Bot *,MemoryRecord,std::less<AbstRaven_Bot *>,std::allocator<std::pair<AbstRaven_Bot * const,MemoryRecord> >,0> >,std::_Iterator_base12>, COMDAT
; _this$ = ecx
	push	ebp
	mov	ebp, esp
	push	ecx
	mov	DWORD PTR [ebp-4], -858993460		; ccccccccH
	mov	DWORD PTR _this$[ebp], ecx
	mov	eax, DWORD PTR ___that$[ebp]
	push	eax
	mov	ecx, DWORD PTR _this$[ebp]
	call	??0?$_Iterator012@Ubidirectional_iterator_tag@std@@U?$pair@QAVAbstRaven_Bot@@VMemoryRecord@@@2@HPBU32@ABU32@U_Iterator_base12@2@@std@@QAE@ABU01@@Z
	mov	ecx, DWORD PTR _this$[ebp]
	mov	edx, DWORD PTR ___that$[ebp]
	mov	eax, DWORD PTR [edx+8]
	mov	DWORD PTR [ecx+8], eax
	mov	eax, DWORD PTR _this$[ebp]
	add	esp, 4
	cmp	ebp, esp
	call	__RTC_CheckEsp
	mov	esp, ebp
	pop	ebp
	ret	4
??0?$_Tree_unchecked_const_iterator@V?$_Tree_val@V?$_Tmap_traits@PAVAbstRaven_Bot@@VMemoryRecord@@U?$less@PAVAbstRaven_Bot@@@std@@V?$allocator@U?$pair@QAVAbstRaven_Bot@@VMemoryRecord@@@std@@@4@$0A@@std@@@std@@U_Iterator_base12@2@@std@@QAE@ABV01@@Z ENDP ; std::_Tree_unchecked_const_iterator<std::_Tree_val<std::_Tmap_traits<AbstRaven_Bot *,MemoryRecord,std::less<AbstRaven_Bot *>,std::allocator<std::pair<AbstRaven_Bot * const,MemoryRecord> >,0> >,std::_Iterator_base12>::_Tree_unchecked_const_iterator<std::_Tree_val<std::_Tmap_traits<AbstRaven_Bot *,MemoryRecord,std::less<AbstRaven_Bot *>,std::allocator<std::pair<AbstRaven_Bot * const,MemoryRecord> >,0> >,std::_Iterator_base12>
_TEXT	ENDS
PUBLIC	??0_Iterator_base12@std@@QAE@ABU01@@Z		; std::_Iterator_base12::_Iterator_base12
; Function compile flags: /Odtp /RTCsu
;	COMDAT ??0?$_Iterator012@Ubidirectional_iterator_tag@std@@U?$pair@QAVAbstRaven_Bot@@VMemoryRecord@@@2@HPBU32@ABU32@U_Iterator_base12@2@@std@@QAE@ABU01@@Z
_TEXT	SEGMENT
_this$ = -4						; size = 4
___that$ = 8						; size = 4
??0?$_Iterator012@Ubidirectional_iterator_tag@std@@U?$pair@QAVAbstRaven_Bot@@VMemoryRecord@@@2@HPBU32@ABU32@U_Iterator_base12@2@@std@@QAE@ABU01@@Z PROC ; std::_Iterator012<std::bidirectional_iterator_tag,std::pair<AbstRaven_Bot * const,MemoryRecord>,int,std::pair<AbstRaven_Bot * const,MemoryRecord> const *,std::pair<AbstRaven_Bot * const,MemoryRecord> const &,std::_Iterator_base12>::_Iterator012<std::bidirectional_iterator_tag,std::pair<AbstRaven_Bot * const,MemoryRecord>,int,std::pair<AbstRaven_Bot * const,MemoryRecord> const *,std::pair<AbstRaven_Bot * const,MemoryRecord> const &,std::_Iterator_base12>, COMDAT
; _this$ = ecx
	push	ebp
	mov	ebp, esp
	push	ecx
	mov	DWORD PTR [ebp-4], -858993460		; ccccccccH
	mov	DWORD PTR _this$[ebp], ecx
	mov	eax, DWORD PTR ___that$[ebp]
	push	eax
	mov	ecx, DWORD PTR _this$[ebp]
	call	??0_Iterator_base12@std@@QAE@ABU01@@Z	; std::_Iterator_base12::_Iterator_base12
	mov	eax, DWORD PTR _this$[ebp]
	add	esp, 4
	cmp	ebp, esp
	call	__RTC_CheckEsp
	mov	esp, ebp
	pop	ebp
	ret	4
??0?$_Iterator012@Ubidirectional_iterator_tag@std@@U?$pair@QAVAbstRaven_Bot@@VMemoryRecord@@@2@HPBU32@ABU32@U_Iterator_base12@2@@std@@QAE@ABU01@@Z ENDP ; std::_Iterator012<std::bidirectional_iterator_tag,std::pair<AbstRaven_Bot * const,MemoryRecord>,int,std::pair<AbstRaven_Bot * const,MemoryRecord> const *,std::pair<AbstRaven_Bot * const,MemoryRecord> const &,std::_Iterator_base12>::_Iterator012<std::bidirectional_iterator_tag,std::pair<AbstRaven_Bot * const,MemoryRecord>,int,std::pair<AbstRaven_Bot * const,MemoryRecord> const *,std::pair<AbstRaven_Bot * const,MemoryRecord> const &,std::_Iterator_base12>
_TEXT	ENDS
PUBLIC	??4_Iterator_base12@std@@QAEAAU01@ABU01@@Z	; std::_Iterator_base12::operator=
; Function compile flags: /Odtp /RTCsu
; File c:\program files (x86)\microsoft visual studio 10.0\vc\include\xutility
;	COMDAT ??0_Iterator_base12@std@@QAE@ABU01@@Z
_TEXT	SEGMENT
_this$ = -4						; size = 4
__Right$ = 8						; size = 4
??0_Iterator_base12@std@@QAE@ABU01@@Z PROC		; std::_Iterator_base12::_Iterator_base12, COMDAT
; _this$ = ecx

; 116  : 		{	// copy an iterator

	push	ebp
	mov	ebp, esp
	push	ecx
	mov	DWORD PTR [ebp-4], -858993460		; ccccccccH
	mov	DWORD PTR _this$[ebp], ecx
	mov	eax, DWORD PTR _this$[ebp]
	mov	DWORD PTR [eax], 0
	mov	ecx, DWORD PTR _this$[ebp]
	mov	DWORD PTR [ecx+4], 0

; 117  : 		*this = _Right;

	mov	edx, DWORD PTR __Right$[ebp]
	push	edx
	mov	ecx, DWORD PTR _this$[ebp]
	call	??4_Iterator_base12@std@@QAEAAU01@ABU01@@Z ; std::_Iterator_base12::operator=

; 118  : 		}

	mov	eax, DWORD PTR _this$[ebp]
	add	esp, 4
	cmp	ebp, esp
	call	__RTC_CheckEsp
	mov	esp, ebp
	pop	ebp
	ret	4
??0_Iterator_base12@std@@QAE@ABU01@@Z ENDP		; std::_Iterator_base12::_Iterator_base12
_TEXT	ENDS
PUBLIC	?_Adopt@_Iterator_base12@std@@QAEXPBU_Container_base12@2@@Z ; std::_Iterator_base12::_Adopt
;	COMDAT xdata$x
xdata$x	SEGMENT
__unwindtable$??4_Iterator_base12@std@@QAEAAU01@ABU01@@Z DD 0ffffffffH
	DD	FLAT:__unwindfunclet$??4_Iterator_base12@std@@QAEAAU01@ABU01@@Z$0
__ehfuncinfo$??4_Iterator_base12@std@@QAEAAU01@ABU01@@Z DD 019930522H
	DD	01H
	DD	FLAT:__unwindtable$??4_Iterator_base12@std@@QAEAAU01@ABU01@@Z
	DD	2 DUP(00H)
	DD	2 DUP(00H)
	DD	00H
	DD	01H
; Function compile flags: /Odtp /RTCsu
xdata$x	ENDS
;	COMDAT ??4_Iterator_base12@std@@QAEAAU01@ABU01@@Z
_TEXT	SEGMENT
__Lock$15138 = -24					; size = 4
_this$ = -16						; size = 4
__$EHRec$ = -12						; size = 12
__Right$ = 8						; size = 4
??4_Iterator_base12@std@@QAEAAU01@ABU01@@Z PROC		; std::_Iterator_base12::operator=, COMDAT
; _this$ = ecx

; 121  : 		{	// assign an iterator

	push	ebp
	mov	ebp, esp
	push	-1
	push	__ehhandler$??4_Iterator_base12@std@@QAEAAU01@ABU01@@Z
	mov	eax, DWORD PTR fs:0
	push	eax
	sub	esp, 16					; 00000010H
	mov	eax, -858993460				; ccccccccH
	mov	DWORD PTR [ebp-28], eax
	mov	DWORD PTR [ebp-24], eax
	mov	DWORD PTR [ebp-20], eax
	mov	DWORD PTR [ebp-16], eax
	mov	eax, DWORD PTR ___security_cookie
	xor	eax, ebp
	push	eax
	lea	eax, DWORD PTR __$EHRec$[ebp]
	mov	DWORD PTR fs:0, eax
	mov	DWORD PTR _this$[ebp], ecx

; 122  : 		if (_Myproxy == _Right._Myproxy)

	mov	eax, DWORD PTR _this$[ebp]
	mov	ecx, DWORD PTR __Right$[ebp]
	mov	edx, DWORD PTR [eax]
	cmp	edx, DWORD PTR [ecx]
	jne	SHORT $LN4@operator
	jmp	SHORT $LN3@operator
$LN4@operator:

; 123  : 			;
; 124  : 		else if (_Right._Myproxy != 0)

	mov	eax, DWORD PTR __Right$[ebp]
	cmp	DWORD PTR [eax], 0
	je	SHORT $LN2@operator

; 125  : 			_Adopt(_Right._Myproxy->_Mycont);

	mov	ecx, DWORD PTR __Right$[ebp]
	mov	edx, DWORD PTR [ecx]
	mov	eax, DWORD PTR [edx]
	push	eax
	mov	ecx, DWORD PTR _this$[ebp]
	call	?_Adopt@_Iterator_base12@std@@QAEXPBU_Container_base12@2@@Z ; std::_Iterator_base12::_Adopt

; 126  : 		else

	jmp	SHORT $LN3@operator
$LN2@operator:

; 127  : 			{	// becoming invalid, disown current parent
; 128  : 			_Lockit _Lock(_LOCK_DEBUG);

	push	3
	lea	ecx, DWORD PTR __Lock$15138[ebp]
	call	??0_Lockit@std@@QAE@H@Z			; std::_Lockit::_Lockit
	mov	DWORD PTR __$EHRec$[ebp+8], 0

; 129  : 			_Orphan_me();

	mov	ecx, DWORD PTR _this$[ebp]
	call	?_Orphan_me@_Iterator_base12@std@@QAEXXZ ; std::_Iterator_base12::_Orphan_me

; 130  : 			}

	mov	DWORD PTR __$EHRec$[ebp+8], -1
	lea	ecx, DWORD PTR __Lock$15138[ebp]
	call	??1_Lockit@std@@QAE@XZ			; std::_Lockit::~_Lockit
$LN3@operator:

; 131  : 		return (*this);

	mov	eax, DWORD PTR _this$[ebp]

; 132  : 		}

	push	edx
	mov	ecx, ebp
	push	eax
	lea	edx, DWORD PTR $LN11@operator
	call	@_RTC_CheckStackVars@8
	pop	eax
	pop	edx
	mov	ecx, DWORD PTR __$EHRec$[ebp]
	mov	DWORD PTR fs:0, ecx
	pop	ecx
	add	esp, 28					; 0000001cH
	cmp	ebp, esp
	call	__RTC_CheckEsp
	mov	esp, ebp
	pop	ebp
	ret	4
$LN11@operator:
	DD	1
	DD	$LN10@operator
$LN10@operator:
	DD	-24					; ffffffe8H
	DD	4
	DD	$LN8@operator
$LN8@operator:
	DB	95					; 0000005fH
	DB	76					; 0000004cH
	DB	111					; 0000006fH
	DB	99					; 00000063H
	DB	107					; 0000006bH
	DB	0
_TEXT	ENDS
;	COMDAT text$x
text$x	SEGMENT
__unwindfunclet$??4_Iterator_base12@std@@QAEAAU01@ABU01@@Z$0:
	lea	ecx, DWORD PTR __Lock$15138[ebp]
	jmp	??1_Lockit@std@@QAE@XZ			; std::_Lockit::~_Lockit
__ehhandler$??4_Iterator_base12@std@@QAEAAU01@ABU01@@Z:
	mov	edx, DWORD PTR [esp+8]
	lea	eax, DWORD PTR [edx+12]
	mov	ecx, DWORD PTR [edx-20]
	xor	ecx, eax
	call	@__security_check_cookie@4
	mov	eax, OFFSET __ehfuncinfo$??4_Iterator_base12@std@@QAEAAU01@ABU01@@Z
	jmp	___CxxFrameHandler3
text$x	ENDS
??4_Iterator_base12@std@@QAEAAU01@ABU01@@Z ENDP		; std::_Iterator_base12::operator=
;	COMDAT xdata$x
xdata$x	SEGMENT
__unwindtable$?_Adopt@_Iterator_base12@std@@QAEXPBU_Container_base12@2@@Z DD 0ffffffffH
	DD	FLAT:__unwindfunclet$?_Adopt@_Iterator_base12@std@@QAEXPBU_Container_base12@2@@Z$0
	DD	0ffffffffH
	DD	FLAT:__unwindfunclet$?_Adopt@_Iterator_base12@std@@QAEXPBU_Container_base12@2@@Z$1
__ehfuncinfo$?_Adopt@_Iterator_base12@std@@QAEXPBU_Container_base12@2@@Z DD 019930522H
	DD	02H
	DD	FLAT:__unwindtable$?_Adopt@_Iterator_base12@std@@QAEXPBU_Container_base12@2@@Z
	DD	2 DUP(00H)
	DD	2 DUP(00H)
	DD	00H
	DD	01H
; Function compile flags: /Odtp /RTCsu
xdata$x	ENDS
;	COMDAT ?_Adopt@_Iterator_base12@std@@QAEXPBU_Container_base12@2@@Z
_TEXT	SEGMENT
__Lock$15149 = -40					; size = 4
__Parent_proxy$15147 = -32				; size = 4
__Lock$15145 = -24					; size = 4
_this$ = -16						; size = 4
__$EHRec$ = -12						; size = 12
__Parent$ = 8						; size = 4
?_Adopt@_Iterator_base12@std@@QAEXPBU_Container_base12@2@@Z PROC ; std::_Iterator_base12::_Adopt, COMDAT
; _this$ = ecx

; 143  : 		{	// adopt this iterator by parent

	push	ebp
	mov	ebp, esp
	push	-1
	push	__ehhandler$?_Adopt@_Iterator_base12@std@@QAEXPBU_Container_base12@2@@Z
	mov	eax, DWORD PTR fs:0
	push	eax
	sub	esp, 32					; 00000020H
	mov	eax, -858993460				; ccccccccH
	mov	DWORD PTR [ebp-44], eax
	mov	DWORD PTR [ebp-40], eax
	mov	DWORD PTR [ebp-36], eax
	mov	DWORD PTR [ebp-32], eax
	mov	DWORD PTR [ebp-28], eax
	mov	DWORD PTR [ebp-24], eax
	mov	DWORD PTR [ebp-20], eax
	mov	DWORD PTR [ebp-16], eax
	mov	eax, DWORD PTR ___security_cookie
	xor	eax, ebp
	push	eax
	lea	eax, DWORD PTR __$EHRec$[ebp]
	mov	DWORD PTR fs:0, eax
	mov	DWORD PTR _this$[ebp], ecx

; 144  : 		if (_Parent == 0)

	cmp	DWORD PTR __Parent$[ebp], 0
	jne	SHORT $LN3@Adopt

; 145  : 			{	// no future parent, just disown current parent
; 146  : 			_Lockit _Lock(_LOCK_DEBUG);

	push	3
	lea	ecx, DWORD PTR __Lock$15145[ebp]
	call	??0_Lockit@std@@QAE@H@Z			; std::_Lockit::_Lockit
	mov	DWORD PTR __$EHRec$[ebp+8], 0

; 147  : 			_Orphan_me();

	mov	ecx, DWORD PTR _this$[ebp]
	call	?_Orphan_me@_Iterator_base12@std@@QAEXXZ ; std::_Iterator_base12::_Orphan_me

; 148  : 			}

	mov	DWORD PTR __$EHRec$[ebp+8], -1
	lea	ecx, DWORD PTR __Lock$15145[ebp]
	call	??1_Lockit@std@@QAE@XZ			; std::_Lockit::~_Lockit

; 149  : 		else

	jmp	SHORT $LN4@Adopt
$LN3@Adopt:

; 150  : 			{	// have a parent, do adoption
; 151  : 			_Container_proxy *_Parent_proxy = _Parent->_Myproxy;

	mov	eax, DWORD PTR __Parent$[ebp]
	mov	ecx, DWORD PTR [eax]
	mov	DWORD PTR __Parent_proxy$15147[ebp], ecx

; 152  : 
; 153  :  #if _ITERATOR_DEBUG_LEVEL == 2
; 154  : 			if (_Myproxy != _Parent_proxy)

	mov	edx, DWORD PTR _this$[ebp]
	mov	eax, DWORD PTR [edx]
	cmp	eax, DWORD PTR __Parent_proxy$15147[ebp]
	je	SHORT $LN4@Adopt

; 155  : 				{	// change parentage
; 156  : 				_Lockit _Lock(_LOCK_DEBUG);

	push	3
	lea	ecx, DWORD PTR __Lock$15149[ebp]
	call	??0_Lockit@std@@QAE@H@Z			; std::_Lockit::_Lockit
	mov	DWORD PTR __$EHRec$[ebp+8], 1

; 157  : 				_Orphan_me();

	mov	ecx, DWORD PTR _this$[ebp]
	call	?_Orphan_me@_Iterator_base12@std@@QAEXXZ ; std::_Iterator_base12::_Orphan_me

; 158  : 				_Mynextiter = _Parent_proxy->_Myfirstiter;

	mov	ecx, DWORD PTR _this$[ebp]
	mov	edx, DWORD PTR __Parent_proxy$15147[ebp]
	mov	eax, DWORD PTR [edx+4]
	mov	DWORD PTR [ecx+4], eax

; 159  : 				_Parent_proxy->_Myfirstiter = this;

	mov	ecx, DWORD PTR __Parent_proxy$15147[ebp]
	mov	edx, DWORD PTR _this$[ebp]
	mov	DWORD PTR [ecx+4], edx

; 160  : 				_Myproxy = _Parent_proxy;

	mov	eax, DWORD PTR _this$[ebp]
	mov	ecx, DWORD PTR __Parent_proxy$15147[ebp]
	mov	DWORD PTR [eax], ecx

; 161  : 				}

	mov	DWORD PTR __$EHRec$[ebp+8], -1
	lea	ecx, DWORD PTR __Lock$15149[ebp]
	call	??1_Lockit@std@@QAE@XZ			; std::_Lockit::~_Lockit
$LN4@Adopt:

; 162  :  #else /* _ITERATOR_DEBUG_LEVEL == 2 */
; 163  : 			_Myproxy = _Parent_proxy;
; 164  :  #endif /* _ITERATOR_DEBUG_LEVEL == 2 */
; 165  : 			}
; 166  : 		}

	push	edx
	mov	ecx, ebp
	push	eax
	lea	edx, DWORD PTR $LN12@Adopt
	call	@_RTC_CheckStackVars@8
	pop	eax
	pop	edx
	mov	ecx, DWORD PTR __$EHRec$[ebp]
	mov	DWORD PTR fs:0, ecx
	pop	ecx
	add	esp, 44					; 0000002cH
	cmp	ebp, esp
	call	__RTC_CheckEsp
	mov	esp, ebp
	pop	ebp
	ret	4
$LN12@Adopt:
	DD	2
	DD	$LN11@Adopt
$LN11@Adopt:
	DD	-24					; ffffffe8H
	DD	4
	DD	$LN8@Adopt
	DD	-40					; ffffffd8H
	DD	4
	DD	$LN9@Adopt
$LN9@Adopt:
	DB	95					; 0000005fH
	DB	76					; 0000004cH
	DB	111					; 0000006fH
	DB	99					; 00000063H
	DB	107					; 0000006bH
	DB	0
$LN8@Adopt:
	DB	95					; 0000005fH
	DB	76					; 0000004cH
	DB	111					; 0000006fH
	DB	99					; 00000063H
	DB	107					; 0000006bH
	DB	0
_TEXT	ENDS
;	COMDAT text$x
text$x	SEGMENT
__unwindfunclet$?_Adopt@_Iterator_base12@std@@QAEXPBU_Container_base12@2@@Z$0:
	lea	ecx, DWORD PTR __Lock$15145[ebp]
	jmp	??1_Lockit@std@@QAE@XZ			; std::_Lockit::~_Lockit
__unwindfunclet$?_Adopt@_Iterator_base12@std@@QAEXPBU_Container_base12@2@@Z$1:
	lea	ecx, DWORD PTR __Lock$15149[ebp]
	jmp	??1_Lockit@std@@QAE@XZ			; std::_Lockit::~_Lockit
__ehhandler$?_Adopt@_Iterator_base12@std@@QAEXPBU_Container_base12@2@@Z:
	mov	edx, DWORD PTR [esp+8]
	lea	eax, DWORD PTR [edx+12]
	mov	ecx, DWORD PTR [edx-36]
	xor	ecx, eax
	call	@__security_check_cookie@4
	mov	eax, OFFSET __ehfuncinfo$?_Adopt@_Iterator_base12@std@@QAEXPBU_Container_base12@2@@Z
	jmp	___CxxFrameHandler3
text$x	ENDS
?_Adopt@_Iterator_base12@std@@QAEXPBU_Container_base12@2@@Z ENDP ; std::_Iterator_base12::_Adopt
PUBLIC	?GetTickCount@CrudeTimer@@QAENXZ		; CrudeTimer::GetTickCount
PUBLIC	?GetWorld@AbstRaven_Bot@@QAEQAVRaven_Game@@XZ	; AbstRaven_Bot::GetWorld
PUBLIC	?Pos@BaseGameEntity@@QBE?AUVector2D@@XZ		; BaseGameEntity::Pos
PUBLIC	?UpdateWithSoundSource@Raven_SensoryMemory@@QAEXPAVAbstRaven_Bot@@@Z ; Raven_SensoryMemory::UpdateWithSoundSource
EXTRN	?Instance@CrudeTimer@@SAPAV1@XZ:PROC		; CrudeTimer::Instance
EXTRN	?isLOSOkay@Raven_Game@@QBE_NUVector2D@@0@Z:PROC	; Raven_Game::isLOSOkay
; Function compile flags: /Odtp /RTCsu
; File c:\users\teaja\documents\artificial-fun\labravenprojecttest\raven\raven_sensorymemory.cpp
_TEXT	SEGMENT
$T143401 = -56						; size = 16
$T143400 = -40						; size = 16
$T143399 = -24						; size = 16
_info$133658 = -8					; size = 4
_this$ = -4						; size = 4
_pNoiseMaker$ = 8					; size = 4
?UpdateWithSoundSource@Raven_SensoryMemory@@QAEXPAVAbstRaven_Bot@@@Z PROC ; Raven_SensoryMemory::UpdateWithSoundSource
; _this$ = ecx

; 48   : {

	push	ebp
	mov	ebp, esp
	sub	esp, 56					; 00000038H
	push	edi
	push	ecx
	lea	edi, DWORD PTR [ebp-56]
	mov	ecx, 14					; 0000000eH
	mov	eax, -858993460				; ccccccccH
	rep stosd
	pop	ecx
	mov	DWORD PTR _this$[ebp], ecx

; 49   :   //make sure the bot being examined is not this bot
; 50   :   if (m_pOwner != pNoiseMaker)

	mov	eax, DWORD PTR _this$[ebp]
	mov	ecx, DWORD PTR [eax]
	cmp	ecx, DWORD PTR _pNoiseMaker$[ebp]
	je	$LN3@UpdateWith

; 51   :   {
; 52   :     //if the bot is already part of the memory then update its data, else
; 53   :     //create a new memory record and add it to the memory
; 54   :     MakeNewRecordIfNotAlreadyPresent(pNoiseMaker);

	mov	edx, DWORD PTR _pNoiseMaker$[ebp]
	push	edx
	mov	ecx, DWORD PTR _this$[ebp]
	call	?MakeNewRecordIfNotAlreadyPresent@Raven_SensoryMemory@@AAEXPAVAbstRaven_Bot@@@Z ; Raven_SensoryMemory::MakeNewRecordIfNotAlreadyPresent

; 55   : 
; 56   :     MemoryRecord& info = m_MemoryMap[pNoiseMaker];

	lea	eax, DWORD PTR _pNoiseMaker$[ebp]
	push	eax
	mov	ecx, DWORD PTR _this$[ebp]
	add	ecx, 4
	call	??A?$map@PAVAbstRaven_Bot@@VMemoryRecord@@U?$less@PAVAbstRaven_Bot@@@std@@V?$allocator@U?$pair@QAVAbstRaven_Bot@@VMemoryRecord@@@std@@@4@@std@@QAEAAVMemoryRecord@@ABQAVAbstRaven_Bot@@@Z ; std::map<AbstRaven_Bot *,MemoryRecord,std::less<AbstRaven_Bot *>,std::allocator<std::pair<AbstRaven_Bot * const,MemoryRecord> > >::operator[]
	mov	DWORD PTR _info$133658[ebp], eax

; 57   : 
; 58   :     //test if there is LOS between bots 
; 59   :     if (m_pOwner->GetWorld()->isLOSOkay(m_pOwner->Pos(), pNoiseMaker->Pos()))

	lea	ecx, DWORD PTR $T143399[ebp]
	push	ecx
	mov	ecx, DWORD PTR _pNoiseMaker$[ebp]
	call	?Pos@BaseGameEntity@@QBE?AUVector2D@@XZ	; BaseGameEntity::Pos
	sub	esp, 16					; 00000010H
	mov	edx, esp
	mov	ecx, DWORD PTR [eax]
	mov	DWORD PTR [edx], ecx
	mov	ecx, DWORD PTR [eax+4]
	mov	DWORD PTR [edx+4], ecx
	mov	ecx, DWORD PTR [eax+8]
	mov	DWORD PTR [edx+8], ecx
	mov	eax, DWORD PTR [eax+12]
	mov	DWORD PTR [edx+12], eax
	lea	ecx, DWORD PTR $T143400[ebp]
	push	ecx
	mov	edx, DWORD PTR _this$[ebp]
	mov	ecx, DWORD PTR [edx]
	call	?Pos@BaseGameEntity@@QBE?AUVector2D@@XZ	; BaseGameEntity::Pos
	sub	esp, 16					; 00000010H
	mov	ecx, esp
	mov	edx, DWORD PTR [eax]
	mov	DWORD PTR [ecx], edx
	mov	edx, DWORD PTR [eax+4]
	mov	DWORD PTR [ecx+4], edx
	mov	edx, DWORD PTR [eax+8]
	mov	DWORD PTR [ecx+8], edx
	mov	eax, DWORD PTR [eax+12]
	mov	DWORD PTR [ecx+12], eax
	mov	ecx, DWORD PTR _this$[ebp]
	mov	ecx, DWORD PTR [ecx]
	call	?GetWorld@AbstRaven_Bot@@QAEQAVRaven_Game@@XZ ; AbstRaven_Bot::GetWorld
	mov	ecx, eax
	call	?isLOSOkay@Raven_Game@@QBE_NUVector2D@@0@Z ; Raven_Game::isLOSOkay
	movzx	edx, al
	test	edx, edx
	je	SHORT $LN2@UpdateWith

; 60   :     {
; 61   :       info.bShootable = true;

	mov	eax, DWORD PTR _info$133658[ebp]
	mov	BYTE PTR [eax+41], 1

; 62   :       
; 63   :      //record the position of the bot
; 64   :       info.vLastSensedPosition = pNoiseMaker->Pos();

	lea	ecx, DWORD PTR $T143401[ebp]
	push	ecx
	mov	ecx, DWORD PTR _pNoiseMaker$[ebp]
	call	?Pos@BaseGameEntity@@QBE?AUVector2D@@XZ	; BaseGameEntity::Pos
	mov	edx, DWORD PTR _info$133658[ebp]
	add	edx, 24					; 00000018H
	mov	ecx, DWORD PTR [eax]
	mov	DWORD PTR [edx], ecx
	mov	ecx, DWORD PTR [eax+4]
	mov	DWORD PTR [edx+4], ecx
	mov	ecx, DWORD PTR [eax+8]
	mov	DWORD PTR [edx+8], ecx
	mov	eax, DWORD PTR [eax+12]
	mov	DWORD PTR [edx+12], eax

; 65   :     }
; 66   :     else

	jmp	SHORT $LN1@UpdateWith
$LN2@UpdateWith:

; 67   :     {
; 68   :       info.bShootable = false;

	mov	ecx, DWORD PTR _info$133658[ebp]
	mov	BYTE PTR [ecx+41], 0
$LN1@UpdateWith:

; 69   :     }
; 70   :     
; 71   :     //record the time it was sensed
; 72   :     info.fTimeLastSensed = (double)Clock->GetCurrentTime();

	call	?Instance@CrudeTimer@@SAPAV1@XZ		; CrudeTimer::Instance
	mov	ecx, eax
	call	?GetTickCount@CrudeTimer@@QAENXZ	; CrudeTimer::GetTickCount
	mov	edx, DWORD PTR _info$133658[ebp]
	fstp	QWORD PTR [edx]
$LN3@UpdateWith:

; 73   :   }
; 74   : }

	pop	edi
	add	esp, 56					; 00000038H
	cmp	ebp, esp
	call	__RTC_CheckEsp
	mov	esp, ebp
	pop	ebp
	ret	4
?UpdateWithSoundSource@Raven_SensoryMemory@@QAEXPAVAbstRaven_Bot@@@Z ENDP ; Raven_SensoryMemory::UpdateWithSoundSource
; Function compile flags: /Odtp /RTCsu
; File c:\users\teaja\documents\artificial-fun\labravenprojecttest\common\game\basegameentity.h
_TEXT	ENDS
;	COMDAT ?Pos@BaseGameEntity@@QBE?AUVector2D@@XZ
_TEXT	SEGMENT
_this$ = -4						; size = 4
___$ReturnUdt$ = 8					; size = 4
?Pos@BaseGameEntity@@QBE?AUVector2D@@XZ PROC		; BaseGameEntity::Pos, COMDAT
; _this$ = ecx

; 89   :   Vector2D     Pos()const{return m_vPosition;}

	push	ebp
	mov	ebp, esp
	push	ecx
	mov	DWORD PTR [ebp-4], -858993460		; ccccccccH
	mov	DWORD PTR _this$[ebp], ecx
	mov	eax, DWORD PTR _this$[ebp]
	add	eax, 24					; 00000018H
	mov	ecx, DWORD PTR ___$ReturnUdt$[ebp]
	mov	edx, DWORD PTR [eax]
	mov	DWORD PTR [ecx], edx
	mov	edx, DWORD PTR [eax+4]
	mov	DWORD PTR [ecx+4], edx
	mov	edx, DWORD PTR [eax+8]
	mov	DWORD PTR [ecx+8], edx
	mov	eax, DWORD PTR [eax+12]
	mov	DWORD PTR [ecx+12], eax
	mov	eax, DWORD PTR ___$ReturnUdt$[ebp]
	mov	esp, ebp
	pop	ebp
	ret	4
?Pos@BaseGameEntity@@QBE?AUVector2D@@XZ ENDP		; BaseGameEntity::Pos
; Function compile flags: /Odtp /RTCsu
; File c:\users\teaja\documents\artificial-fun\labravenprojecttest\raven\abstraven_bot.h
_TEXT	ENDS
;	COMDAT ?GetWorld@AbstRaven_Bot@@QAEQAVRaven_Game@@XZ
_TEXT	SEGMENT
_this$ = -4						; size = 4
?GetWorld@AbstRaven_Bot@@QAEQAVRaven_Game@@XZ PROC	; AbstRaven_Bot::GetWorld, COMDAT
; _this$ = ecx

; 217  :   Raven_Game* const                  GetWorld(){return m_pWorld;} 

	push	ebp
	mov	ebp, esp
	push	ecx
	mov	DWORD PTR [ebp-4], -858993460		; ccccccccH
	mov	DWORD PTR _this$[ebp], ecx
	mov	eax, DWORD PTR _this$[ebp]
	mov	eax, DWORD PTR [eax+156]
	mov	esp, ebp
	pop	ebp
	ret	0
?GetWorld@AbstRaven_Bot@@QAEQAVRaven_Game@@XZ ENDP	; AbstRaven_Bot::GetWorld
_TEXT	ENDS
PUBLIC	__real@3f50624dd2f1a9fc
EXTRN	__imp__timeGetTime@0:PROC
;	COMDAT __real@3f50624dd2f1a9fc
; File c:\users\teaja\documents\artificial-fun\labravenprojecttest\common\time\crudetimer.h
CONST	SEGMENT
__real@3f50624dd2f1a9fc DQ 03f50624dd2f1a9fcr	; 0.001
; Function compile flags: /Odtp /RTCsu
CONST	ENDS
;	COMDAT ?GetTickCount@CrudeTimer@@QAENXZ
_TEXT	SEGMENT
tv71 = -12						; size = 8
_this$ = -4						; size = 4
?GetTickCount@CrudeTimer@@QAENXZ PROC			; CrudeTimer::GetTickCount, COMDAT
; _this$ = ecx

; 42   :   double GetCurrentTime(){return timeGetTime() * 0.001 - m_dStartTime;}

	push	ebp
	mov	ebp, esp
	sub	esp, 12					; 0000000cH
	push	esi
	mov	DWORD PTR [ebp-12], -858993460		; ccccccccH
	mov	DWORD PTR [ebp-8], -858993460		; ccccccccH
	mov	DWORD PTR [ebp-4], -858993460		; ccccccccH
	mov	DWORD PTR _this$[ebp], ecx
	mov	esi, esp
	call	DWORD PTR __imp__timeGetTime@0
	cmp	esi, esp
	call	__RTC_CheckEsp
	mov	DWORD PTR tv71[ebp], eax
	mov	DWORD PTR tv71[ebp+4], 0
	fild	QWORD PTR tv71[ebp]
	fmul	QWORD PTR __real@3f50624dd2f1a9fc
	mov	eax, DWORD PTR _this$[ebp]
	fsub	QWORD PTR [eax]
	pop	esi
	add	esp, 12					; 0000000cH
	cmp	ebp, esp
	call	__RTC_CheckEsp
	mov	esp, ebp
	pop	ebp
	ret	0
?GetTickCount@CrudeTimer@@QAENXZ ENDP			; CrudeTimer::GetTickCount
_TEXT	ENDS
PUBLIC	?UpdateWithDamageSource@Raven_SensoryMemory@@QAEXPAVAbstRaven_Bot@@H@Z ; Raven_SensoryMemory::UpdateWithDamageSource
; Function compile flags: /Odtp /RTCsu
; File c:\users\teaja\documents\artificial-fun\labravenprojecttest\raven\raven_sensorymemory.cpp
_TEXT	SEGMENT
$T143413 = -56						; size = 16
$T143412 = -40						; size = 16
$T143411 = -24						; size = 16
_info$133671 = -8					; size = 4
_this$ = -4						; size = 4
_pShooter$ = 8						; size = 4
_damage$ = 12						; size = 4
?UpdateWithDamageSource@Raven_SensoryMemory@@QAEXPAVAbstRaven_Bot@@H@Z PROC ; Raven_SensoryMemory::UpdateWithDamageSource
; _this$ = ecx

; 83   : {

	push	ebp
	mov	ebp, esp
	sub	esp, 56					; 00000038H
	push	edi
	push	ecx
	lea	edi, DWORD PTR [ebp-56]
	mov	ecx, 14					; 0000000eH
	mov	eax, -858993460				; ccccccccH
	rep stosd
	pop	ecx
	mov	DWORD PTR _this$[ebp], ecx

; 84   :   //make sure the bot being examined is not this bot
; 85   :   if (m_pOwner != pShooter) // probably not possible

	mov	eax, DWORD PTR _this$[ebp]
	mov	ecx, DWORD PTR [eax]
	cmp	ecx, DWORD PTR _pShooter$[ebp]
	je	$LN3@UpdateWith@2

; 86   :   {
; 87   :     //if the bot is already part of the memory then update its data, else
; 88   :     //create a new memory record and add it to the memory
; 89   :     MakeNewRecordIfNotAlreadyPresent(pShooter);

	mov	edx, DWORD PTR _pShooter$[ebp]
	push	edx
	mov	ecx, DWORD PTR _this$[ebp]
	call	?MakeNewRecordIfNotAlreadyPresent@Raven_SensoryMemory@@AAEXPAVAbstRaven_Bot@@@Z ; Raven_SensoryMemory::MakeNewRecordIfNotAlreadyPresent

; 90   : 
; 91   :     MemoryRecord& info = m_MemoryMap[pShooter];

	lea	eax, DWORD PTR _pShooter$[ebp]
	push	eax
	mov	ecx, DWORD PTR _this$[ebp]
	add	ecx, 4
	call	??A?$map@PAVAbstRaven_Bot@@VMemoryRecord@@U?$less@PAVAbstRaven_Bot@@@std@@V?$allocator@U?$pair@QAVAbstRaven_Bot@@VMemoryRecord@@@std@@@4@@std@@QAEAAVMemoryRecord@@ABQAVAbstRaven_Bot@@@Z ; std::map<AbstRaven_Bot *,MemoryRecord,std::less<AbstRaven_Bot *>,std::allocator<std::pair<AbstRaven_Bot * const,MemoryRecord> > >::operator[]
	mov	DWORD PTR _info$133671[ebp], eax

; 92   : 
; 93   : 	info.iRecentDamage += damage;

	mov	ecx, DWORD PTR _info$133671[ebp]
	mov	edx, DWORD PTR [ecx+44]
	add	edx, DWORD PTR _damage$[ebp]
	mov	eax, DWORD PTR _info$133671[ebp]
	mov	DWORD PTR [eax+44], edx

; 94   : 
; 95   :     //test if there is LOS between bots 
; 96   :     if (m_pOwner->GetWorld()->isLOSOkay(m_pOwner->Pos(), pShooter->Pos()))

	lea	ecx, DWORD PTR $T143411[ebp]
	push	ecx
	mov	ecx, DWORD PTR _pShooter$[ebp]
	call	?Pos@BaseGameEntity@@QBE?AUVector2D@@XZ	; BaseGameEntity::Pos
	sub	esp, 16					; 00000010H
	mov	edx, esp
	mov	ecx, DWORD PTR [eax]
	mov	DWORD PTR [edx], ecx
	mov	ecx, DWORD PTR [eax+4]
	mov	DWORD PTR [edx+4], ecx
	mov	ecx, DWORD PTR [eax+8]
	mov	DWORD PTR [edx+8], ecx
	mov	eax, DWORD PTR [eax+12]
	mov	DWORD PTR [edx+12], eax
	lea	ecx, DWORD PTR $T143412[ebp]
	push	ecx
	mov	edx, DWORD PTR _this$[ebp]
	mov	ecx, DWORD PTR [edx]
	call	?Pos@BaseGameEntity@@QBE?AUVector2D@@XZ	; BaseGameEntity::Pos
	sub	esp, 16					; 00000010H
	mov	ecx, esp
	mov	edx, DWORD PTR [eax]
	mov	DWORD PTR [ecx], edx
	mov	edx, DWORD PTR [eax+4]
	mov	DWORD PTR [ecx+4], edx
	mov	edx, DWORD PTR [eax+8]
	mov	DWORD PTR [ecx+8], edx
	mov	eax, DWORD PTR [eax+12]
	mov	DWORD PTR [ecx+12], eax
	mov	ecx, DWORD PTR _this$[ebp]
	mov	ecx, DWORD PTR [ecx]
	call	?GetWorld@AbstRaven_Bot@@QAEQAVRaven_Game@@XZ ; AbstRaven_Bot::GetWorld
	mov	ecx, eax
	call	?isLOSOkay@Raven_Game@@QBE_NUVector2D@@0@Z ; Raven_Game::isLOSOkay
	movzx	edx, al
	test	edx, edx
	je	SHORT $LN2@UpdateWith@2

; 97   :     {
; 98   :       info.bShootable = true;

	mov	eax, DWORD PTR _info$133671[ebp]
	mov	BYTE PTR [eax+41], 1

; 99   :       
; 100  :      //record the position of the bot
; 101  :       info.vLastSensedPosition = pShooter->Pos();

	lea	ecx, DWORD PTR $T143413[ebp]
	push	ecx
	mov	ecx, DWORD PTR _pShooter$[ebp]
	call	?Pos@BaseGameEntity@@QBE?AUVector2D@@XZ	; BaseGameEntity::Pos
	mov	edx, DWORD PTR _info$133671[ebp]
	add	edx, 24					; 00000018H
	mov	ecx, DWORD PTR [eax]
	mov	DWORD PTR [edx], ecx
	mov	ecx, DWORD PTR [eax+4]
	mov	DWORD PTR [edx+4], ecx
	mov	ecx, DWORD PTR [eax+8]
	mov	DWORD PTR [edx+8], ecx
	mov	eax, DWORD PTR [eax+12]
	mov	DWORD PTR [edx+12], eax

; 102  :     }
; 103  :     else

	jmp	SHORT $LN1@UpdateWith@2
$LN2@UpdateWith@2:

; 104  :     {
; 105  :       info.bShootable = false;

	mov	ecx, DWORD PTR _info$133671[ebp]
	mov	BYTE PTR [ecx+41], 0
$LN1@UpdateWith@2:

; 106  :     }
; 107  :     
; 108  :     //record the time it was sensed
; 109  :     info.fTimeLastSensed = (double)Clock->GetCurrentTime();

	call	?Instance@CrudeTimer@@SAPAV1@XZ		; CrudeTimer::Instance
	mov	ecx, eax
	call	?GetTickCount@CrudeTimer@@QAENXZ	; CrudeTimer::GetTickCount
	mov	edx, DWORD PTR _info$133671[ebp]
	fstp	QWORD PTR [edx]
$LN3@UpdateWith@2:

; 110  :   }
; 111  : }

	pop	edi
	add	esp, 56					; 00000038H
	cmp	ebp, esp
	call	__RTC_CheckEsp
	mov	esp, ebp
	pop	ebp
	ret	8
?UpdateWithDamageSource@Raven_SensoryMemory@@QAEXPAVAbstRaven_Bot@@H@Z ENDP ; Raven_SensoryMemory::UpdateWithDamageSource
_TEXT	ENDS
PUBLIC	?isSecondInFOVOfFirst@@YA_NUVector2D@@00N@Z	; isSecondInFOVOfFirst
PUBLIC	?Facing@AbstRaven_Bot@@QBE?AUVector2D@@XZ	; AbstRaven_Bot::Facing
PUBLIC	?FieldOfView@AbstRaven_Bot@@QBENXZ		; AbstRaven_Bot::FieldOfView
PUBLIC	??D?$_List_const_iterator@V?$_List_val@PAVAbstRaven_Bot@@V?$allocator@PAVAbstRaven_Bot@@@std@@@std@@@std@@QBEABQAVAbstRaven_Bot@@XZ ; std::_List_const_iterator<std::_List_val<AbstRaven_Bot *,std::allocator<AbstRaven_Bot *> > >::operator*
PUBLIC	??9?$_List_const_iterator@V?$_List_val@PAVAbstRaven_Bot@@V?$allocator@PAVAbstRaven_Bot@@@std@@@std@@@std@@QBE_NABV01@@Z ; std::_List_const_iterator<std::_List_val<AbstRaven_Bot *,std::allocator<AbstRaven_Bot *> > >::operator!=
PUBLIC	?end@?$list@PAVAbstRaven_Bot@@V?$allocator@PAVAbstRaven_Bot@@@std@@@std@@QBE?AV?$_List_const_iterator@V?$_List_val@PAVAbstRaven_Bot@@V?$allocator@PAVAbstRaven_Bot@@@std@@@std@@@2@XZ ; std::list<AbstRaven_Bot *,std::allocator<AbstRaven_Bot *> >::end
PUBLIC	??E?$_List_const_iterator@V?$_List_val@PAVAbstRaven_Bot@@V?$allocator@PAVAbstRaven_Bot@@@std@@@std@@@std@@QAEAAV01@XZ ; std::_List_const_iterator<std::_List_val<AbstRaven_Bot *,std::allocator<AbstRaven_Bot *> > >::operator++
PUBLIC	??1?$_List_const_iterator@V?$_List_val@PAVAbstRaven_Bot@@V?$allocator@PAVAbstRaven_Bot@@@std@@@std@@@std@@QAE@XZ ; std::_List_const_iterator<std::_List_val<AbstRaven_Bot *,std::allocator<AbstRaven_Bot *> > >::~_List_const_iterator<std::_List_val<AbstRaven_Bot *,std::allocator<AbstRaven_Bot *> > >
PUBLIC	??4?$_List_const_iterator@V?$_List_val@PAVAbstRaven_Bot@@V?$allocator@PAVAbstRaven_Bot@@@std@@@std@@@std@@QAEAAV01@ABV01@@Z ; std::_List_const_iterator<std::_List_val<AbstRaven_Bot *,std::allocator<AbstRaven_Bot *> > >::operator=
PUBLIC	?begin@?$list@PAVAbstRaven_Bot@@V?$allocator@PAVAbstRaven_Bot@@@std@@@std@@QBE?AV?$_List_const_iterator@V?$_List_val@PAVAbstRaven_Bot@@V?$allocator@PAVAbstRaven_Bot@@@std@@@std@@@2@XZ ; std::list<AbstRaven_Bot *,std::allocator<AbstRaven_Bot *> >::begin
PUBLIC	??0?$_List_const_iterator@V?$_List_val@PAVAbstRaven_Bot@@V?$allocator@PAVAbstRaven_Bot@@@std@@@std@@@std@@QAE@XZ ; std::_List_const_iterator<std::_List_val<AbstRaven_Bot *,std::allocator<AbstRaven_Bot *> > >::_List_const_iterator<std::_List_val<AbstRaven_Bot *,std::allocator<AbstRaven_Bot *> > >
PUBLIC	?GetAllBots@Raven_Game@@QBEABV?$list@PAVAbstRaven_Bot@@V?$allocator@PAVAbstRaven_Bot@@@std@@@std@@XZ ; Raven_Game::GetAllBots
PUBLIC	?UpdateVision@Raven_SensoryMemory@@QAEXXZ	; Raven_SensoryMemory::UpdateVision
xdata$x	SEGMENT
__unwindtable$?UpdateVision@Raven_SensoryMemory@@QAEXXZ DD 0ffffffffH
	DD	FLAT:__unwindfunclet$?UpdateVision@Raven_SensoryMemory@@QAEXXZ$0
	DD	00H
	DD	FLAT:__unwindfunclet$?UpdateVision@Raven_SensoryMemory@@QAEXXZ$1
	DD	00H
	DD	FLAT:__unwindfunclet$?UpdateVision@Raven_SensoryMemory@@QAEXXZ$2
__ehfuncinfo$?UpdateVision@Raven_SensoryMemory@@QAEXXZ DD 019930522H
	DD	03H
	DD	FLAT:__unwindtable$?UpdateVision@Raven_SensoryMemory@@QAEXXZ
	DD	2 DUP(00H)
	DD	2 DUP(00H)
	DD	00H
	DD	01H
; Function compile flags: /Odtp /RTCsu
xdata$x	ENDS
_TEXT	SEGMENT
tv217 = -184						; size = 4
tv218 = -180						; size = 4
tv215 = -176						; size = 4
tv69 = -172						; size = 4
$T143423 = -168						; size = 16
$T143422 = -152						; size = 16
$T143421 = -136						; size = 16
$T143420 = -120						; size = 16
$T143419 = -104						; size = 16
$T143418 = -88						; size = 16
$T143417 = -72						; size = 12
$T143416 = -57						; size = 1
$T143415 = -56						; size = 12
_info$133828 = -44					; size = 4
_curBot$ = -36						; size = 12
_bots$ = -20						; size = 4
_this$ = -16						; size = 4
__$EHRec$ = -12						; size = 12
?UpdateVision@Raven_SensoryMemory@@QAEXXZ PROC		; Raven_SensoryMemory::UpdateVision
; _this$ = ecx

; 120  : {

	push	ebp
	mov	ebp, esp
	push	-1
	push	__ehhandler$?UpdateVision@Raven_SensoryMemory@@QAEXXZ
	mov	eax, DWORD PTR fs:0
	push	eax
	sub	esp, 172				; 000000acH
	push	edi
	push	ecx
	lea	edi, DWORD PTR [ebp-184]
	mov	ecx, 43					; 0000002bH
	mov	eax, -858993460				; ccccccccH
	rep stosd
	pop	ecx
	mov	eax, DWORD PTR ___security_cookie
	xor	eax, ebp
	push	eax
	lea	eax, DWORD PTR __$EHRec$[ebp]
	mov	DWORD PTR fs:0, eax
	mov	DWORD PTR _this$[ebp], ecx

; 121  :   //for each bot in the world test to see if it is visible to the owner of
; 122  :   //this class
; 123  :   const std::list<AbstRaven_Bot*>& bots = m_pOwner->GetWorld()->GetAllBots();

	mov	eax, DWORD PTR _this$[ebp]
	mov	ecx, DWORD PTR [eax]
	call	?GetWorld@AbstRaven_Bot@@QAEQAVRaven_Game@@XZ ; AbstRaven_Bot::GetWorld
	mov	ecx, eax
	call	?GetAllBots@Raven_Game@@QBEABV?$list@PAVAbstRaven_Bot@@V?$allocator@PAVAbstRaven_Bot@@@std@@@std@@XZ ; Raven_Game::GetAllBots
	mov	DWORD PTR _bots$[ebp], eax

; 124  :   std::list<AbstRaven_Bot*>::const_iterator curBot;

	lea	ecx, DWORD PTR _curBot$[ebp]
	call	??0?$_List_const_iterator@V?$_List_val@PAVAbstRaven_Bot@@V?$allocator@PAVAbstRaven_Bot@@@std@@@std@@@std@@QAE@XZ ; std::_List_const_iterator<std::_List_val<AbstRaven_Bot *,std::allocator<AbstRaven_Bot *> > >::_List_const_iterator<std::_List_val<AbstRaven_Bot *,std::allocator<AbstRaven_Bot *> > >
	mov	DWORD PTR __$EHRec$[ebp+8], 0

; 125  :   for (curBot = bots.begin(); curBot!=bots.end(); ++curBot)

	lea	ecx, DWORD PTR $T143415[ebp]
	push	ecx
	mov	ecx, DWORD PTR _bots$[ebp]
	call	?begin@?$list@PAVAbstRaven_Bot@@V?$allocator@PAVAbstRaven_Bot@@@std@@@std@@QBE?AV?$_List_const_iterator@V?$_List_val@PAVAbstRaven_Bot@@V?$allocator@PAVAbstRaven_Bot@@@std@@@std@@@2@XZ ; std::list<AbstRaven_Bot *,std::allocator<AbstRaven_Bot *> >::begin
	mov	DWORD PTR tv69[ebp], eax
	mov	edx, DWORD PTR tv69[ebp]
	mov	DWORD PTR tv215[ebp], edx
	mov	BYTE PTR __$EHRec$[ebp+8], 1
	mov	eax, DWORD PTR tv215[ebp]
	push	eax
	lea	ecx, DWORD PTR _curBot$[ebp]
	call	??4?$_List_const_iterator@V?$_List_val@PAVAbstRaven_Bot@@V?$allocator@PAVAbstRaven_Bot@@@std@@@std@@@std@@QAEAAV01@ABV01@@Z
	mov	BYTE PTR __$EHRec$[ebp+8], 0
	lea	ecx, DWORD PTR $T143415[ebp]
	call	??1?$_List_const_iterator@V?$_List_val@PAVAbstRaven_Bot@@V?$allocator@PAVAbstRaven_Bot@@@std@@@std@@@std@@QAE@XZ
	jmp	SHORT $LN9@UpdateVisi
$LN8@UpdateVisi:
	lea	ecx, DWORD PTR _curBot$[ebp]
	call	??E?$_List_const_iterator@V?$_List_val@PAVAbstRaven_Bot@@V?$allocator@PAVAbstRaven_Bot@@@std@@@std@@@std@@QAEAAV01@XZ ; std::_List_const_iterator<std::_List_val<AbstRaven_Bot *,std::allocator<AbstRaven_Bot *> > >::operator++
$LN9@UpdateVisi:
	lea	ecx, DWORD PTR $T143417[ebp]
	push	ecx
	mov	ecx, DWORD PTR _bots$[ebp]
	call	?end@?$list@PAVAbstRaven_Bot@@V?$allocator@PAVAbstRaven_Bot@@@std@@@std@@QBE?AV?$_List_const_iterator@V?$_List_val@PAVAbstRaven_Bot@@V?$allocator@PAVAbstRaven_Bot@@@std@@@std@@@2@XZ ; std::list<AbstRaven_Bot *,std::allocator<AbstRaven_Bot *> >::end
	mov	DWORD PTR tv218[ebp], eax
	mov	edx, DWORD PTR tv218[ebp]
	mov	DWORD PTR tv217[ebp], edx
	mov	BYTE PTR __$EHRec$[ebp+8], 2
	mov	eax, DWORD PTR tv217[ebp]
	push	eax
	lea	ecx, DWORD PTR _curBot$[ebp]
	call	??9?$_List_const_iterator@V?$_List_val@PAVAbstRaven_Bot@@V?$allocator@PAVAbstRaven_Bot@@@std@@@std@@@std@@QBE_NABV01@@Z ; std::_List_const_iterator<std::_List_val<AbstRaven_Bot *,std::allocator<AbstRaven_Bot *> > >::operator!=
	mov	BYTE PTR $T143416[ebp], al
	mov	BYTE PTR __$EHRec$[ebp+8], 0
	lea	ecx, DWORD PTR $T143417[ebp]
	call	??1?$_List_const_iterator@V?$_List_val@PAVAbstRaven_Bot@@V?$allocator@PAVAbstRaven_Bot@@@std@@@std@@@std@@QAE@XZ
	movzx	ecx, BYTE PTR $T143416[ebp]
	test	ecx, ecx
	je	$LN7@UpdateVisi

; 126  :   {
; 127  :     //make sure the bot being examined is not this bot
; 128  :     if (m_pOwner != *curBot)

	lea	ecx, DWORD PTR _curBot$[ebp]
	call	??D?$_List_const_iterator@V?$_List_val@PAVAbstRaven_Bot@@V?$allocator@PAVAbstRaven_Bot@@@std@@@std@@@std@@QBEABQAVAbstRaven_Bot@@XZ ; std::_List_const_iterator<std::_List_val<AbstRaven_Bot *,std::allocator<AbstRaven_Bot *> > >::operator*
	mov	edx, DWORD PTR _this$[ebp]
	mov	ecx, DWORD PTR [edx]
	cmp	ecx, DWORD PTR [eax]
	je	$LN1@UpdateVisi

; 129  :     {
; 130  :       //make sure it is part of the memory map
; 131  :       MakeNewRecordIfNotAlreadyPresent(*curBot);

	lea	ecx, DWORD PTR _curBot$[ebp]
	call	??D?$_List_const_iterator@V?$_List_val@PAVAbstRaven_Bot@@V?$allocator@PAVAbstRaven_Bot@@@std@@@std@@@std@@QBEABQAVAbstRaven_Bot@@XZ ; std::_List_const_iterator<std::_List_val<AbstRaven_Bot *,std::allocator<AbstRaven_Bot *> > >::operator*
	mov	edx, DWORD PTR [eax]
	push	edx
	mov	ecx, DWORD PTR _this$[ebp]
	call	?MakeNewRecordIfNotAlreadyPresent@Raven_SensoryMemory@@AAEXPAVAbstRaven_Bot@@@Z ; Raven_SensoryMemory::MakeNewRecordIfNotAlreadyPresent

; 132  : 
; 133  :       //get a reference to this bot's data
; 134  :       MemoryRecord& info = m_MemoryMap[*curBot];

	lea	ecx, DWORD PTR _curBot$[ebp]
	call	??D?$_List_const_iterator@V?$_List_val@PAVAbstRaven_Bot@@V?$allocator@PAVAbstRaven_Bot@@@std@@@std@@@std@@QBEABQAVAbstRaven_Bot@@XZ ; std::_List_const_iterator<std::_List_val<AbstRaven_Bot *,std::allocator<AbstRaven_Bot *> > >::operator*
	push	eax
	mov	ecx, DWORD PTR _this$[ebp]
	add	ecx, 4
	call	??A?$map@PAVAbstRaven_Bot@@VMemoryRecord@@U?$less@PAVAbstRaven_Bot@@@std@@V?$allocator@U?$pair@QAVAbstRaven_Bot@@VMemoryRecord@@@std@@@4@@std@@QAEAAVMemoryRecord@@ABQAVAbstRaven_Bot@@@Z ; std::map<AbstRaven_Bot *,MemoryRecord,std::less<AbstRaven_Bot *>,std::allocator<std::pair<AbstRaven_Bot * const,MemoryRecord> > >::operator[]
	mov	DWORD PTR _info$133828[ebp], eax

; 135  : 
; 136  :       //test if there is LOS between bots 
; 137  :       if (m_pOwner->GetWorld()->isLOSOkay(m_pOwner->Pos(), (*curBot)->Pos()))

	lea	eax, DWORD PTR $T143418[ebp]
	push	eax
	lea	ecx, DWORD PTR _curBot$[ebp]
	call	??D?$_List_const_iterator@V?$_List_val@PAVAbstRaven_Bot@@V?$allocator@PAVAbstRaven_Bot@@@std@@@std@@@std@@QBEABQAVAbstRaven_Bot@@XZ ; std::_List_const_iterator<std::_List_val<AbstRaven_Bot *,std::allocator<AbstRaven_Bot *> > >::operator*
	mov	ecx, DWORD PTR [eax]
	call	?Pos@BaseGameEntity@@QBE?AUVector2D@@XZ	; BaseGameEntity::Pos
	sub	esp, 16					; 00000010H
	mov	ecx, esp
	mov	edx, DWORD PTR [eax]
	mov	DWORD PTR [ecx], edx
	mov	edx, DWORD PTR [eax+4]
	mov	DWORD PTR [ecx+4], edx
	mov	edx, DWORD PTR [eax+8]
	mov	DWORD PTR [ecx+8], edx
	mov	eax, DWORD PTR [eax+12]
	mov	DWORD PTR [ecx+12], eax
	lea	ecx, DWORD PTR $T143419[ebp]
	push	ecx
	mov	edx, DWORD PTR _this$[ebp]
	mov	ecx, DWORD PTR [edx]
	call	?Pos@BaseGameEntity@@QBE?AUVector2D@@XZ	; BaseGameEntity::Pos
	sub	esp, 16					; 00000010H
	mov	ecx, esp
	mov	edx, DWORD PTR [eax]
	mov	DWORD PTR [ecx], edx
	mov	edx, DWORD PTR [eax+4]
	mov	DWORD PTR [ecx+4], edx
	mov	edx, DWORD PTR [eax+8]
	mov	DWORD PTR [ecx+8], edx
	mov	eax, DWORD PTR [eax+12]
	mov	DWORD PTR [ecx+12], eax
	mov	ecx, DWORD PTR _this$[ebp]
	mov	ecx, DWORD PTR [ecx]
	call	?GetWorld@AbstRaven_Bot@@QAEQAVRaven_Game@@XZ ; AbstRaven_Bot::GetWorld
	mov	ecx, eax
	call	?isLOSOkay@Raven_Game@@QBE_NUVector2D@@0@Z ; Raven_Game::isLOSOkay
	movzx	edx, al
	test	edx, edx
	je	$LN5@UpdateVisi

; 138  :       {
; 139  :         info.bShootable = true;

	mov	eax, DWORD PTR _info$133828[ebp]
	mov	BYTE PTR [eax+41], 1

; 140  : 
; 141  :               //test if the bot is within FOV
; 142  :         if (isSecondInFOVOfFirst(m_pOwner->Pos(),
; 143  :                                  m_pOwner->Facing(),
; 144  :                                  (*curBot)->Pos(),
; 145  :                                   m_pOwner->FieldOfView()))

	mov	ecx, DWORD PTR _this$[ebp]
	mov	ecx, DWORD PTR [ecx]
	call	?FieldOfView@AbstRaven_Bot@@QBENXZ	; AbstRaven_Bot::FieldOfView
	sub	esp, 8
	fstp	QWORD PTR [esp]
	lea	edx, DWORD PTR $T143420[ebp]
	push	edx
	lea	ecx, DWORD PTR _curBot$[ebp]
	call	??D?$_List_const_iterator@V?$_List_val@PAVAbstRaven_Bot@@V?$allocator@PAVAbstRaven_Bot@@@std@@@std@@@std@@QBEABQAVAbstRaven_Bot@@XZ ; std::_List_const_iterator<std::_List_val<AbstRaven_Bot *,std::allocator<AbstRaven_Bot *> > >::operator*
	mov	ecx, DWORD PTR [eax]
	call	?Pos@BaseGameEntity@@QBE?AUVector2D@@XZ	; BaseGameEntity::Pos
	sub	esp, 16					; 00000010H
	mov	ecx, esp
	mov	edx, DWORD PTR [eax]
	mov	DWORD PTR [ecx], edx
	mov	edx, DWORD PTR [eax+4]
	mov	DWORD PTR [ecx+4], edx
	mov	edx, DWORD PTR [eax+8]
	mov	DWORD PTR [ecx+8], edx
	mov	eax, DWORD PTR [eax+12]
	mov	DWORD PTR [ecx+12], eax
	lea	ecx, DWORD PTR $T143421[ebp]
	push	ecx
	mov	edx, DWORD PTR _this$[ebp]
	mov	ecx, DWORD PTR [edx]
	call	?Facing@AbstRaven_Bot@@QBE?AUVector2D@@XZ ; AbstRaven_Bot::Facing
	sub	esp, 16					; 00000010H
	mov	ecx, esp
	mov	edx, DWORD PTR [eax]
	mov	DWORD PTR [ecx], edx
	mov	edx, DWORD PTR [eax+4]
	mov	DWORD PTR [ecx+4], edx
	mov	edx, DWORD PTR [eax+8]
	mov	DWORD PTR [ecx+8], edx
	mov	eax, DWORD PTR [eax+12]
	mov	DWORD PTR [ecx+12], eax
	lea	ecx, DWORD PTR $T143422[ebp]
	push	ecx
	mov	edx, DWORD PTR _this$[ebp]
	mov	ecx, DWORD PTR [edx]
	call	?Pos@BaseGameEntity@@QBE?AUVector2D@@XZ	; BaseGameEntity::Pos
	sub	esp, 16					; 00000010H
	mov	ecx, esp
	mov	edx, DWORD PTR [eax]
	mov	DWORD PTR [ecx], edx
	mov	edx, DWORD PTR [eax+4]
	mov	DWORD PTR [ecx+4], edx
	mov	edx, DWORD PTR [eax+8]
	mov	DWORD PTR [ecx+8], edx
	mov	eax, DWORD PTR [eax+12]
	mov	DWORD PTR [ecx+12], eax
	call	?isSecondInFOVOfFirst@@YA_NUVector2D@@00N@Z ; isSecondInFOVOfFirst
	add	esp, 56					; 00000038H
	movzx	ecx, al
	test	ecx, ecx
	je	SHORT $LN4@UpdateVisi

; 146  :         {
; 147  :           info.fTimeLastSensed     = Clock->GetCurrentTime();

	call	?Instance@CrudeTimer@@SAPAV1@XZ		; CrudeTimer::Instance
	mov	ecx, eax
	call	?GetTickCount@CrudeTimer@@QAENXZ	; CrudeTimer::GetTickCount
	mov	edx, DWORD PTR _info$133828[ebp]
	fstp	QWORD PTR [edx]

; 148  :           info.vLastSensedPosition = (*curBot)->Pos();

	lea	eax, DWORD PTR $T143423[ebp]
	push	eax
	lea	ecx, DWORD PTR _curBot$[ebp]
	call	??D?$_List_const_iterator@V?$_List_val@PAVAbstRaven_Bot@@V?$allocator@PAVAbstRaven_Bot@@@std@@@std@@@std@@QBEABQAVAbstRaven_Bot@@XZ ; std::_List_const_iterator<std::_List_val<AbstRaven_Bot *,std::allocator<AbstRaven_Bot *> > >::operator*
	mov	ecx, DWORD PTR [eax]
	call	?Pos@BaseGameEntity@@QBE?AUVector2D@@XZ	; BaseGameEntity::Pos
	mov	ecx, DWORD PTR _info$133828[ebp]
	add	ecx, 24					; 00000018H
	mov	edx, DWORD PTR [eax]
	mov	DWORD PTR [ecx], edx
	mov	edx, DWORD PTR [eax+4]
	mov	DWORD PTR [ecx+4], edx
	mov	edx, DWORD PTR [eax+8]
	mov	DWORD PTR [ecx+8], edx
	mov	eax, DWORD PTR [eax+12]
	mov	DWORD PTR [ecx+12], eax

; 149  :           info.fTimeLastVisible    = Clock->GetCurrentTime();

	call	?Instance@CrudeTimer@@SAPAV1@XZ		; CrudeTimer::Instance
	mov	ecx, eax
	call	?GetTickCount@CrudeTimer@@QAENXZ	; CrudeTimer::GetTickCount
	mov	ecx, DWORD PTR _info$133828[ebp]
	fstp	QWORD PTR [ecx+16]

; 150  : 
; 151  :           if (info.bWithinFOV == false)

	mov	edx, DWORD PTR _info$133828[ebp]
	movzx	eax, BYTE PTR [edx+40]
	test	eax, eax
	jne	SHORT $LN3@UpdateVisi

; 152  :           {
; 153  :             info.bWithinFOV           = true;

	mov	ecx, DWORD PTR _info$133828[ebp]
	mov	BYTE PTR [ecx+40], 1

; 154  :             info.fTimeBecameVisible    = info.fTimeLastSensed;

	mov	edx, DWORD PTR _info$133828[ebp]
	mov	eax, DWORD PTR _info$133828[ebp]
	fld	QWORD PTR [eax]
	fstp	QWORD PTR [edx+8]
$LN3@UpdateVisi:

; 155  :           
; 156  :           }
; 157  :         }
; 158  : 
; 159  :         else

	jmp	SHORT $LN2@UpdateVisi
$LN4@UpdateVisi:

; 160  :         {
; 161  :           info.bWithinFOV = false;         

	mov	ecx, DWORD PTR _info$133828[ebp]
	mov	BYTE PTR [ecx+40], 0
$LN2@UpdateVisi:

; 162  :         }
; 163  :       }
; 164  : 
; 165  :       else

	jmp	SHORT $LN1@UpdateVisi
$LN5@UpdateVisi:

; 166  :       {
; 167  :         info.bShootable = false;

	mov	edx, DWORD PTR _info$133828[ebp]
	mov	BYTE PTR [edx+41], 0

; 168  :         info.bWithinFOV = false;

	mov	eax, DWORD PTR _info$133828[ebp]
	mov	BYTE PTR [eax+40], 0
$LN1@UpdateVisi:

; 169  :       }
; 170  :     }
; 171  :   }//next bot

	jmp	$LN8@UpdateVisi
$LN7@UpdateVisi:

; 172  : }

	mov	DWORD PTR __$EHRec$[ebp+8], -1
	lea	ecx, DWORD PTR _curBot$[ebp]
	call	??1?$_List_const_iterator@V?$_List_val@PAVAbstRaven_Bot@@V?$allocator@PAVAbstRaven_Bot@@@std@@@std@@@std@@QAE@XZ
	push	edx
	mov	ecx, ebp
	push	eax
	lea	edx, DWORD PTR $LN18@UpdateVisi
	call	@_RTC_CheckStackVars@8
	pop	eax
	pop	edx
	mov	ecx, DWORD PTR __$EHRec$[ebp]
	mov	DWORD PTR fs:0, ecx
	pop	ecx
	pop	edi
	add	esp, 184				; 000000b8H
	cmp	ebp, esp
	call	__RTC_CheckEsp
	mov	esp, ebp
	pop	ebp
	ret	0
	npad	3
$LN18@UpdateVisi:
	DD	1
	DD	$LN17@UpdateVisi
$LN17@UpdateVisi:
	DD	-36					; ffffffdcH
	DD	12					; 0000000cH
	DD	$LN15@UpdateVisi
$LN15@UpdateVisi:
	DB	99					; 00000063H
	DB	117					; 00000075H
	DB	114					; 00000072H
	DB	66					; 00000042H
	DB	111					; 0000006fH
	DB	116					; 00000074H
	DB	0
_TEXT	ENDS
text$x	SEGMENT
__unwindfunclet$?UpdateVision@Raven_SensoryMemory@@QAEXXZ$0:
	lea	ecx, DWORD PTR _curBot$[ebp]
	jmp	??1?$_List_const_iterator@V?$_List_val@PAVAbstRaven_Bot@@V?$allocator@PAVAbstRaven_Bot@@@std@@@std@@@std@@QAE@XZ
__unwindfunclet$?UpdateVision@Raven_SensoryMemory@@QAEXXZ$1:
	lea	ecx, DWORD PTR $T143415[ebp]
	jmp	??1?$_List_const_iterator@V?$_List_val@PAVAbstRaven_Bot@@V?$allocator@PAVAbstRaven_Bot@@@std@@@std@@@std@@QAE@XZ
__unwindfunclet$?UpdateVision@Raven_SensoryMemory@@QAEXXZ$2:
	lea	ecx, DWORD PTR $T143417[ebp]
	jmp	??1?$_List_const_iterator@V?$_List_val@PAVAbstRaven_Bot@@V?$allocator@PAVAbstRaven_Bot@@@std@@@std@@@std@@QAE@XZ
__ehhandler$?UpdateVision@Raven_SensoryMemory@@QAEXXZ:
	mov	edx, DWORD PTR [esp+8]
	lea	eax, DWORD PTR [edx+12]
	mov	ecx, DWORD PTR [edx-180]
	xor	ecx, eax
	call	@__security_check_cookie@4
	mov	eax, OFFSET __ehfuncinfo$?UpdateVision@Raven_SensoryMemory@@QAEXXZ
	jmp	___CxxFrameHandler3
text$x	ENDS
?UpdateVision@Raven_SensoryMemory@@QAEXXZ ENDP		; Raven_SensoryMemory::UpdateVision
PUBLIC	__real@4000000000000000
PUBLIC	?Dot@Vector2D@@QBENABU1@@Z			; Vector2D::Dot
PUBLIC	?Vec2DNormalize@@YA?AUVector2D@@ABU1@@Z		; Vec2DNormalize
PUBLIC	??G@YA?AUVector2D@@ABU0@0@Z			; operator-
EXTRN	_cos:PROC
;	COMDAT __real@4000000000000000
; File c:\users\teaja\documents\artificial-fun\labravenprojecttest\common\2d\vector2d.h
CONST	SEGMENT
__real@4000000000000000 DQ 04000000000000000r	; 2
; Function compile flags: /Odtp /RTCsu
CONST	ENDS
;	COMDAT ?isSecondInFOVOfFirst@@YA_NUVector2D@@00N@Z
_TEXT	SEGMENT
tv77 = -52						; size = 4
tv128 = -48						; size = 8
$T143435 = -40						; size = 16
_toTarget$ = -20					; size = 16
_posFirst$ = 8						; size = 16
_facingFirst$ = 24					; size = 16
_posSecond$ = 40					; size = 16
_fov$ = 56						; size = 8
?isSecondInFOVOfFirst@@YA_NUVector2D@@00N@Z PROC	; isSecondInFOVOfFirst, COMDAT

; 424  : {

	push	ebp
	mov	ebp, esp
	sub	esp, 52					; 00000034H
	push	edi
	lea	edi, DWORD PTR [ebp-52]
	mov	ecx, 13					; 0000000dH
	mov	eax, -858993460				; ccccccccH
	rep stosd

; 425  :   Vector2D toTarget = Vec2DNormalize(posSecond - posFirst);

	lea	eax, DWORD PTR _posFirst$[ebp]
	push	eax
	lea	ecx, DWORD PTR _posSecond$[ebp]
	push	ecx
	lea	edx, DWORD PTR $T143435[ebp]
	push	edx
	call	??G@YA?AUVector2D@@ABU0@0@Z		; operator-
	add	esp, 12					; 0000000cH
	push	eax
	lea	eax, DWORD PTR _toTarget$[ebp]
	push	eax
	call	?Vec2DNormalize@@YA?AUVector2D@@ABU1@@Z	; Vec2DNormalize
	add	esp, 8

; 426  : 
; 427  :   return facingFirst.Dot(toTarget) >= cos(fov/2.0);

	lea	ecx, DWORD PTR _toTarget$[ebp]
	push	ecx
	lea	ecx, DWORD PTR _facingFirst$[ebp]
	call	?Dot@Vector2D@@QBENABU1@@Z		; Vector2D::Dot
	fld	QWORD PTR _fov$[ebp]
	fdiv	QWORD PTR __real@4000000000000000
	sub	esp, 8
	fstp	QWORD PTR [esp]
	fstp	QWORD PTR tv128[ebp]
	call	_cos
	add	esp, 8
	fcomp	QWORD PTR tv128[ebp]
	fnstsw	ax
	test	ah, 65					; 00000041H
	jp	SHORT $LN3@isSecondIn
	mov	DWORD PTR tv77[ebp], 1
	jmp	SHORT $LN4@isSecondIn
$LN3@isSecondIn:
	mov	DWORD PTR tv77[ebp], 0
$LN4@isSecondIn:
	mov	al, BYTE PTR tv77[ebp]

; 428  : }

	push	edx
	mov	ecx, ebp
	push	eax
	lea	edx, DWORD PTR $LN7@isSecondIn
	call	@_RTC_CheckStackVars@8
	pop	eax
	pop	edx
	pop	edi
	add	esp, 52					; 00000034H
	cmp	ebp, esp
	call	__RTC_CheckEsp
	mov	esp, ebp
	pop	ebp
	ret	0
	npad	2
$LN7@isSecondIn:
	DD	1
	DD	$LN6@isSecondIn
$LN6@isSecondIn:
	DD	-20					; ffffffecH
	DD	16					; 00000010H
	DD	$LN5@isSecondIn
$LN5@isSecondIn:
	DB	116					; 00000074H
	DB	111					; 0000006fH
	DB	84					; 00000054H
	DB	97					; 00000061H
	DB	114					; 00000072H
	DB	103					; 00000067H
	DB	101					; 00000065H
	DB	116					; 00000074H
	DB	0
?isSecondInFOVOfFirst@@YA_NUVector2D@@00N@Z ENDP	; isSecondInFOVOfFirst
; Function compile flags: /Odtp /RTCsu
_TEXT	ENDS
;	COMDAT ?Dot@Vector2D@@QBENABU1@@Z
_TEXT	SEGMENT
_this$ = -4						; size = 4
_v2$ = 8						; size = 4
?Dot@Vector2D@@QBENABU1@@Z PROC				; Vector2D::Dot, COMDAT
; _this$ = ecx

; 148  : {

	push	ebp
	mov	ebp, esp
	push	ecx
	mov	DWORD PTR [ebp-4], -858993460		; ccccccccH
	mov	DWORD PTR _this$[ebp], ecx

; 149  :   return x*v2.x + y*v2.y;

	mov	eax, DWORD PTR _this$[ebp]
	mov	ecx, DWORD PTR _v2$[ebp]
	fld	QWORD PTR [eax]
	fmul	QWORD PTR [ecx]
	mov	edx, DWORD PTR _this$[ebp]
	mov	eax, DWORD PTR _v2$[ebp]
	fld	QWORD PTR [edx+8]
	fmul	QWORD PTR [eax+8]
	faddp	ST(1), ST(0)

; 150  : }

	mov	esp, ebp
	pop	ebp
	ret	4
?Dot@Vector2D@@QBENABU1@@Z ENDP				; Vector2D::Dot
_TEXT	ENDS
PUBLIC	?epsilon@?$numeric_limits@N@std@@SANXZ		; std::numeric_limits<double>::epsilon
PUBLIC	?Length@Vector2D@@QBENXZ			; Vector2D::Length
; Function compile flags: /Odtp /RTCsu
;	COMDAT ?Vec2DNormalize@@YA?AUVector2D@@ABU1@@Z
_TEXT	SEGMENT
_vector_length$ = -32					; size = 8
_vec$ = -20						; size = 16
___$ReturnUdt$ = 8					; size = 4
_v$ = 12						; size = 4
?Vec2DNormalize@@YA?AUVector2D@@ABU1@@Z PROC		; Vec2DNormalize, COMDAT

; 258  : {

	push	ebp
	mov	ebp, esp
	sub	esp, 32					; 00000020H
	mov	eax, -858993460				; ccccccccH
	mov	DWORD PTR [ebp-32], eax
	mov	DWORD PTR [ebp-28], eax
	mov	DWORD PTR [ebp-24], eax
	mov	DWORD PTR [ebp-20], eax
	mov	DWORD PTR [ebp-16], eax
	mov	DWORD PTR [ebp-12], eax
	mov	DWORD PTR [ebp-8], eax
	mov	DWORD PTR [ebp-4], eax

; 259  :   Vector2D vec = v;

	mov	eax, DWORD PTR _v$[ebp]
	fld	QWORD PTR [eax]
	fstp	QWORD PTR _vec$[ebp]
	fld	QWORD PTR [eax+8]
	fstp	QWORD PTR _vec$[ebp+8]

; 260  : 
; 261  :   double vector_length = vec.Length();

	lea	ecx, DWORD PTR _vec$[ebp]
	call	?Length@Vector2D@@QBENXZ		; Vector2D::Length
	fstp	QWORD PTR _vector_length$[ebp]

; 262  : 
; 263  :   if (vector_length > std::numeric_limits<double>::epsilon())

	call	?epsilon@?$numeric_limits@N@std@@SANXZ	; std::numeric_limits<double>::epsilon
	fcomp	QWORD PTR _vector_length$[ebp]
	fnstsw	ax
	test	ah, 5
	jp	SHORT $LN1@Vec2DNorma

; 264  :   {
; 265  :     vec.x /= vector_length;

	fld	QWORD PTR _vec$[ebp]
	fdiv	QWORD PTR _vector_length$[ebp]
	fstp	QWORD PTR _vec$[ebp]

; 266  :     vec.y /= vector_length;

	fld	QWORD PTR _vec$[ebp+8]
	fdiv	QWORD PTR _vector_length$[ebp]
	fstp	QWORD PTR _vec$[ebp+8]
$LN1@Vec2DNorma:

; 267  :   }
; 268  : 
; 269  :   return vec;

	mov	ecx, DWORD PTR ___$ReturnUdt$[ebp]
	fld	QWORD PTR _vec$[ebp]
	fstp	QWORD PTR [ecx]
	fld	QWORD PTR _vec$[ebp+8]
	fstp	QWORD PTR [ecx+8]
	mov	eax, DWORD PTR ___$ReturnUdt$[ebp]

; 270  : }

	push	edx
	mov	ecx, ebp
	push	eax
	lea	edx, DWORD PTR $LN6@Vec2DNorma
	call	@_RTC_CheckStackVars@8
	pop	eax
	pop	edx
	add	esp, 32					; 00000020H
	cmp	ebp, esp
	call	__RTC_CheckEsp
	mov	esp, ebp
	pop	ebp
	ret	0
	npad	3
$LN6@Vec2DNorma:
	DD	1
	DD	$LN5@Vec2DNorma
$LN5@Vec2DNorma:
	DD	-20					; ffffffecH
	DD	16					; 00000010H
	DD	$LN4@Vec2DNorma
$LN4@Vec2DNorma:
	DB	118					; 00000076H
	DB	101					; 00000065H
	DB	99					; 00000063H
	DB	0
?Vec2DNormalize@@YA?AUVector2D@@ABU1@@Z ENDP		; Vec2DNormalize
_TEXT	ENDS
PUBLIC	__real@3cb0000000000000
;	COMDAT __real@3cb0000000000000
; File c:\program files (x86)\microsoft visual studio 10.0\vc\include\limits
CONST	SEGMENT
__real@3cb0000000000000 DQ 03cb0000000000000r	; 2.22045e-016
; Function compile flags: /Odtp /RTCsu
CONST	ENDS
;	COMDAT ?epsilon@?$numeric_limits@N@std@@SANXZ
_TEXT	SEGMENT
?epsilon@?$numeric_limits@N@std@@SANXZ PROC		; std::numeric_limits<double>::epsilon, COMDAT

; 1246 : 		{	// return smallest effective increment from 1.0

	push	ebp
	mov	ebp, esp

; 1247 : 		return (DBL_EPSILON);

	fld	QWORD PTR __real@3cb0000000000000

; 1248 : 		}

	pop	ebp
	ret	0
?epsilon@?$numeric_limits@N@std@@SANXZ ENDP		; std::numeric_limits<double>::epsilon
_TEXT	ENDS
EXTRN	_sqrt:PROC
; Function compile flags: /Odtp /RTCsu
; File c:\users\teaja\documents\artificial-fun\labravenprojecttest\common\2d\vector2d.h
;	COMDAT ?Length@Vector2D@@QBENXZ
_TEXT	SEGMENT
_this$ = -4						; size = 4
?Length@Vector2D@@QBENXZ PROC				; Vector2D::Length, COMDAT
; _this$ = ecx

; 128  : {

	push	ebp
	mov	ebp, esp
	push	ecx
	mov	DWORD PTR [ebp-4], -858993460		; ccccccccH
	mov	DWORD PTR _this$[ebp], ecx

; 129  :   return sqrt(x * x + y * y);

	mov	eax, DWORD PTR _this$[ebp]
	mov	ecx, DWORD PTR _this$[ebp]
	fld	QWORD PTR [eax]
	fmul	QWORD PTR [ecx]
	mov	edx, DWORD PTR _this$[ebp]
	mov	eax, DWORD PTR _this$[ebp]
	fld	QWORD PTR [edx+8]
	fmul	QWORD PTR [eax+8]
	faddp	ST(1), ST(0)
	sub	esp, 8
	fstp	QWORD PTR [esp]
	call	_sqrt
	add	esp, 8

; 130  : }

	add	esp, 4
	cmp	ebp, esp
	call	__RTC_CheckEsp
	mov	esp, ebp
	pop	ebp
	ret	0
?Length@Vector2D@@QBENXZ ENDP				; Vector2D::Length
; Function compile flags: /Odtp /RTCsu
_TEXT	ENDS
;	COMDAT ??G@YA?AUVector2D@@ABU0@0@Z
_TEXT	SEGMENT
_result$ = -20						; size = 16
___$ReturnUdt$ = 8					; size = 4
_lhs$ = 12						; size = 4
_rhs$ = 16						; size = 4
??G@YA?AUVector2D@@ABU0@0@Z PROC			; operator-, COMDAT

; 349  : {

	push	ebp
	mov	ebp, esp
	sub	esp, 24					; 00000018H
	mov	eax, -858993460				; ccccccccH
	mov	DWORD PTR [ebp-24], eax
	mov	DWORD PTR [ebp-20], eax
	mov	DWORD PTR [ebp-16], eax
	mov	DWORD PTR [ebp-12], eax
	mov	DWORD PTR [ebp-8], eax
	mov	DWORD PTR [ebp-4], eax

; 350  :   Vector2D result(lhs);

	mov	eax, DWORD PTR _lhs$[ebp]
	fld	QWORD PTR [eax]
	fstp	QWORD PTR _result$[ebp]
	fld	QWORD PTR [eax+8]
	fstp	QWORD PTR _result$[ebp+8]

; 351  :   result.x -= rhs.x;

	mov	ecx, DWORD PTR _rhs$[ebp]
	fld	QWORD PTR _result$[ebp]
	fsub	QWORD PTR [ecx]
	fstp	QWORD PTR _result$[ebp]

; 352  :   result.y -= rhs.y;

	mov	edx, DWORD PTR _rhs$[ebp]
	fld	QWORD PTR _result$[ebp+8]
	fsub	QWORD PTR [edx+8]
	fstp	QWORD PTR _result$[ebp+8]

; 353  :   
; 354  :   return result;

	mov	eax, DWORD PTR ___$ReturnUdt$[ebp]
	fld	QWORD PTR _result$[ebp]
	fstp	QWORD PTR [eax]
	fld	QWORD PTR _result$[ebp+8]
	fstp	QWORD PTR [eax+8]
	mov	eax, DWORD PTR ___$ReturnUdt$[ebp]

; 355  : }

	push	edx
	mov	ecx, ebp
	push	eax
	lea	edx, DWORD PTR $LN5@operator@2
	call	@_RTC_CheckStackVars@8
	pop	eax
	pop	edx
	mov	esp, ebp
	pop	ebp
	ret	0
$LN5@operator@2:
	DD	1
	DD	$LN4@operator@2
$LN4@operator@2:
	DD	-20					; ffffffecH
	DD	16					; 00000010H
	DD	$LN3@operator@2
$LN3@operator@2:
	DB	114					; 00000072H
	DB	101					; 00000065H
	DB	115					; 00000073H
	DB	117					; 00000075H
	DB	108					; 0000006cH
	DB	116					; 00000074H
	DB	0
??G@YA?AUVector2D@@ABU0@0@Z ENDP			; operator-
; Function compile flags: /Odtp /RTCsu
; File c:\users\teaja\documents\artificial-fun\labravenprojecttest\raven\abstraven_bot.h
_TEXT	ENDS
;	COMDAT ?Facing@AbstRaven_Bot@@QBE?AUVector2D@@XZ
_TEXT	SEGMENT
_this$ = -4						; size = 4
___$ReturnUdt$ = 8					; size = 4
?Facing@AbstRaven_Bot@@QBE?AUVector2D@@XZ PROC		; AbstRaven_Bot::Facing, COMDAT
; _this$ = ecx

; 161  :   Vector2D      Facing()const{return m_vFacing;}

	push	ebp
	mov	ebp, esp
	push	ecx
	mov	DWORD PTR [ebp-4], -858993460		; ccccccccH
	mov	DWORD PTR _this$[ebp], ecx
	mov	eax, DWORD PTR _this$[ebp]
	add	eax, 224				; 000000e0H
	mov	ecx, DWORD PTR ___$ReturnUdt$[ebp]
	mov	edx, DWORD PTR [eax]
	mov	DWORD PTR [ecx], edx
	mov	edx, DWORD PTR [eax+4]
	mov	DWORD PTR [ecx+4], edx
	mov	edx, DWORD PTR [eax+8]
	mov	DWORD PTR [ecx+8], edx
	mov	eax, DWORD PTR [eax+12]
	mov	DWORD PTR [ecx+12], eax
	mov	eax, DWORD PTR ___$ReturnUdt$[ebp]
	mov	esp, ebp
	pop	ebp
	ret	4
?Facing@AbstRaven_Bot@@QBE?AUVector2D@@XZ ENDP		; AbstRaven_Bot::Facing
; Function compile flags: /Odtp /RTCsu
_TEXT	ENDS
;	COMDAT ?FieldOfView@AbstRaven_Bot@@QBENXZ
_TEXT	SEGMENT
_this$ = -4						; size = 4
?FieldOfView@AbstRaven_Bot@@QBENXZ PROC			; AbstRaven_Bot::FieldOfView, COMDAT
; _this$ = ecx

; 162  :   double        FieldOfView()const{return m_dFieldOfView;}

	push	ebp
	mov	ebp, esp
	push	ecx
	mov	DWORD PTR [ebp-4], -858993460		; ccccccccH
	mov	DWORD PTR _this$[ebp], ecx
	mov	eax, DWORD PTR _this$[ebp]
	fld	QWORD PTR [eax+240]
	mov	esp, ebp
	pop	ebp
	ret	0
?FieldOfView@AbstRaven_Bot@@QBENXZ ENDP			; AbstRaven_Bot::FieldOfView
; Function compile flags: /Odtp /RTCsu
; File c:\users\teaja\documents\artificial-fun\labravenprojecttest\raven\raven_game.h
_TEXT	ENDS
;	COMDAT ?GetAllBots@Raven_Game@@QBEABV?$list@PAVAbstRaven_Bot@@V?$allocator@PAVAbstRaven_Bot@@@std@@@std@@XZ
_TEXT	SEGMENT
_this$ = -4						; size = 4
?GetAllBots@Raven_Game@@QBEABV?$list@PAVAbstRaven_Bot@@V?$allocator@PAVAbstRaven_Bot@@@std@@@std@@XZ PROC ; Raven_Game::GetAllBots, COMDAT
; _this$ = ecx

; 167  :   const std::list<AbstRaven_Bot*>&             GetAllBots()const{return m_Bots;}

	push	ebp
	mov	ebp, esp
	push	ecx
	mov	DWORD PTR [ebp-4], -858993460		; ccccccccH
	mov	DWORD PTR _this$[ebp], ecx
	mov	eax, DWORD PTR _this$[ebp]
	add	eax, 16					; 00000010H
	mov	esp, ebp
	pop	ebp
	ret	0
?GetAllBots@Raven_Game@@QBEABV?$list@PAVAbstRaven_Bot@@V?$allocator@PAVAbstRaven_Bot@@@std@@@std@@XZ ENDP ; Raven_Game::GetAllBots
_TEXT	ENDS
PUBLIC	??1?$_List_unchecked_const_iterator@V?$_List_val@PAVAbstRaven_Bot@@V?$allocator@PAVAbstRaven_Bot@@@std@@@std@@U_Iterator_base12@2@@std@@QAE@XZ ; std::_List_unchecked_const_iterator<std::_List_val<AbstRaven_Bot *,std::allocator<AbstRaven_Bot *> >,std::_Iterator_base12>::~_List_unchecked_const_iterator<std::_List_val<AbstRaven_Bot *,std::allocator<AbstRaven_Bot *> >,std::_Iterator_base12>
; Function compile flags: /Odtp /RTCsu
;	COMDAT ??1?$_List_const_iterator@V?$_List_val@PAVAbstRaven_Bot@@V?$allocator@PAVAbstRaven_Bot@@@std@@@std@@@std@@QAE@XZ
_TEXT	SEGMENT
_this$ = -4						; size = 4
??1?$_List_const_iterator@V?$_List_val@PAVAbstRaven_Bot@@V?$allocator@PAVAbstRaven_Bot@@@std@@@std@@@std@@QAE@XZ PROC ; std::_List_const_iterator<std::_List_val<AbstRaven_Bot *,std::allocator<AbstRaven_Bot *> > >::~_List_const_iterator<std::_List_val<AbstRaven_Bot *,std::allocator<AbstRaven_Bot *> > >, COMDAT
; _this$ = ecx
	push	ebp
	mov	ebp, esp
	push	ecx
	mov	DWORD PTR [ebp-4], -858993460		; ccccccccH
	mov	DWORD PTR _this$[ebp], ecx
	mov	ecx, DWORD PTR _this$[ebp]
	call	??1?$_List_unchecked_const_iterator@V?$_List_val@PAVAbstRaven_Bot@@V?$allocator@PAVAbstRaven_Bot@@@std@@@std@@U_Iterator_base12@2@@std@@QAE@XZ
	add	esp, 4
	cmp	ebp, esp
	call	__RTC_CheckEsp
	mov	esp, ebp
	pop	ebp
	ret	0
??1?$_List_const_iterator@V?$_List_val@PAVAbstRaven_Bot@@V?$allocator@PAVAbstRaven_Bot@@@std@@@std@@@std@@QAE@XZ ENDP ; std::_List_const_iterator<std::_List_val<AbstRaven_Bot *,std::allocator<AbstRaven_Bot *> > >::~_List_const_iterator<std::_List_val<AbstRaven_Bot *,std::allocator<AbstRaven_Bot *> > >
_TEXT	ENDS
PUBLIC	??4?$_List_unchecked_const_iterator@V?$_List_val@PAVAbstRaven_Bot@@V?$allocator@PAVAbstRaven_Bot@@@std@@@std@@U_Iterator_base12@2@@std@@QAEAAV01@ABV01@@Z ; std::_List_unchecked_const_iterator<std::_List_val<AbstRaven_Bot *,std::allocator<AbstRaven_Bot *> >,std::_Iterator_base12>::operator=
; Function compile flags: /Odtp /RTCsu
;	COMDAT ??4?$_List_const_iterator@V?$_List_val@PAVAbstRaven_Bot@@V?$allocator@PAVAbstRaven_Bot@@@std@@@std@@@std@@QAEAAV01@ABV01@@Z
_TEXT	SEGMENT
_this$ = -4						; size = 4
___that$ = 8						; size = 4
??4?$_List_const_iterator@V?$_List_val@PAVAbstRaven_Bot@@V?$allocator@PAVAbstRaven_Bot@@@std@@@std@@@std@@QAEAAV01@ABV01@@Z PROC ; std::_List_const_iterator<std::_List_val<AbstRaven_Bot *,std::allocator<AbstRaven_Bot *> > >::operator=, COMDAT
; _this$ = ecx
	push	ebp
	mov	ebp, esp
	push	ecx
	mov	DWORD PTR [ebp-4], -858993460		; ccccccccH
	mov	DWORD PTR _this$[ebp], ecx
	mov	eax, DWORD PTR ___that$[ebp]
	push	eax
	mov	ecx, DWORD PTR _this$[ebp]
	call	??4?$_List_unchecked_const_iterator@V?$_List_val@PAVAbstRaven_Bot@@V?$allocator@PAVAbstRaven_Bot@@@std@@@std@@U_Iterator_base12@2@@std@@QAEAAV01@ABV01@@Z
	mov	eax, DWORD PTR _this$[ebp]
	add	esp, 4
	cmp	ebp, esp
	call	__RTC_CheckEsp
	mov	esp, ebp
	pop	ebp
	ret	4
??4?$_List_const_iterator@V?$_List_val@PAVAbstRaven_Bot@@V?$allocator@PAVAbstRaven_Bot@@@std@@@std@@@std@@QAEAAV01@ABV01@@Z ENDP ; std::_List_const_iterator<std::_List_val<AbstRaven_Bot *,std::allocator<AbstRaven_Bot *> > >::operator=
_TEXT	ENDS
PUBLIC	??1?$_Iterator012@Ubidirectional_iterator_tag@std@@PAVAbstRaven_Bot@@HPBQAV3@ABQAV3@U_Iterator_base12@2@@std@@QAE@XZ ; std::_Iterator012<std::bidirectional_iterator_tag,AbstRaven_Bot *,int,AbstRaven_Bot * const *,AbstRaven_Bot * const &,std::_Iterator_base12>::~_Iterator012<std::bidirectional_iterator_tag,AbstRaven_Bot *,int,AbstRaven_Bot * const *,AbstRaven_Bot * const &,std::_Iterator_base12>
; Function compile flags: /Odtp /RTCsu
;	COMDAT ??1?$_List_unchecked_const_iterator@V?$_List_val@PAVAbstRaven_Bot@@V?$allocator@PAVAbstRaven_Bot@@@std@@@std@@U_Iterator_base12@2@@std@@QAE@XZ
_TEXT	SEGMENT
_this$ = -4						; size = 4
??1?$_List_unchecked_const_iterator@V?$_List_val@PAVAbstRaven_Bot@@V?$allocator@PAVAbstRaven_Bot@@@std@@@std@@U_Iterator_base12@2@@std@@QAE@XZ PROC ; std::_List_unchecked_const_iterator<std::_List_val<AbstRaven_Bot *,std::allocator<AbstRaven_Bot *> >,std::_Iterator_base12>::~_List_unchecked_const_iterator<std::_List_val<AbstRaven_Bot *,std::allocator<AbstRaven_Bot *> >,std::_Iterator_base12>, COMDAT
; _this$ = ecx
	push	ebp
	mov	ebp, esp
	push	ecx
	mov	DWORD PTR [ebp-4], -858993460		; ccccccccH
	mov	DWORD PTR _this$[ebp], ecx
	mov	ecx, DWORD PTR _this$[ebp]
	call	??1?$_Iterator012@Ubidirectional_iterator_tag@std@@PAVAbstRaven_Bot@@HPBQAV3@ABQAV3@U_Iterator_base12@2@@std@@QAE@XZ
	add	esp, 4
	cmp	ebp, esp
	call	__RTC_CheckEsp
	mov	esp, ebp
	pop	ebp
	ret	0
??1?$_List_unchecked_const_iterator@V?$_List_val@PAVAbstRaven_Bot@@V?$allocator@PAVAbstRaven_Bot@@@std@@@std@@U_Iterator_base12@2@@std@@QAE@XZ ENDP ; std::_List_unchecked_const_iterator<std::_List_val<AbstRaven_Bot *,std::allocator<AbstRaven_Bot *> >,std::_Iterator_base12>::~_List_unchecked_const_iterator<std::_List_val<AbstRaven_Bot *,std::allocator<AbstRaven_Bot *> >,std::_Iterator_base12>
_TEXT	ENDS
PUBLIC	??4?$_Iterator012@Ubidirectional_iterator_tag@std@@PAVAbstRaven_Bot@@HPBQAV3@ABQAV3@U_Iterator_base12@2@@std@@QAEAAU01@ABU01@@Z ; std::_Iterator012<std::bidirectional_iterator_tag,AbstRaven_Bot *,int,AbstRaven_Bot * const *,AbstRaven_Bot * const &,std::_Iterator_base12>::operator=
; Function compile flags: /Odtp /RTCsu
;	COMDAT ??4?$_List_unchecked_const_iterator@V?$_List_val@PAVAbstRaven_Bot@@V?$allocator@PAVAbstRaven_Bot@@@std@@@std@@U_Iterator_base12@2@@std@@QAEAAV01@ABV01@@Z
_TEXT	SEGMENT
_this$ = -4						; size = 4
___that$ = 8						; size = 4
??4?$_List_unchecked_const_iterator@V?$_List_val@PAVAbstRaven_Bot@@V?$allocator@PAVAbstRaven_Bot@@@std@@@std@@U_Iterator_base12@2@@std@@QAEAAV01@ABV01@@Z PROC ; std::_List_unchecked_const_iterator<std::_List_val<AbstRaven_Bot *,std::allocator<AbstRaven_Bot *> >,std::_Iterator_base12>::operator=, COMDAT
; _this$ = ecx
	push	ebp
	mov	ebp, esp
	push	ecx
	mov	DWORD PTR [ebp-4], -858993460		; ccccccccH
	mov	DWORD PTR _this$[ebp], ecx
	mov	eax, DWORD PTR ___that$[ebp]
	push	eax
	mov	ecx, DWORD PTR _this$[ebp]
	call	??4?$_Iterator012@Ubidirectional_iterator_tag@std@@PAVAbstRaven_Bot@@HPBQAV3@ABQAV3@U_Iterator_base12@2@@std@@QAEAAU01@ABU01@@Z
	mov	ecx, DWORD PTR _this$[ebp]
	mov	edx, DWORD PTR ___that$[ebp]
	mov	eax, DWORD PTR [edx+8]
	mov	DWORD PTR [ecx+8], eax
	mov	eax, DWORD PTR _this$[ebp]
	add	esp, 4
	cmp	ebp, esp
	call	__RTC_CheckEsp
	mov	esp, ebp
	pop	ebp
	ret	4
??4?$_List_unchecked_const_iterator@V?$_List_val@PAVAbstRaven_Bot@@V?$allocator@PAVAbstRaven_Bot@@@std@@@std@@U_Iterator_base12@2@@std@@QAEAAV01@ABV01@@Z ENDP ; std::_List_unchecked_const_iterator<std::_List_val<AbstRaven_Bot *,std::allocator<AbstRaven_Bot *> >,std::_Iterator_base12>::operator=
; Function compile flags: /Odtp /RTCsu
_TEXT	ENDS
;	COMDAT ??1?$_Iterator012@Ubidirectional_iterator_tag@std@@PAVAbstRaven_Bot@@HPBQAV3@ABQAV3@U_Iterator_base12@2@@std@@QAE@XZ
_TEXT	SEGMENT
_this$ = -4						; size = 4
??1?$_Iterator012@Ubidirectional_iterator_tag@std@@PAVAbstRaven_Bot@@HPBQAV3@ABQAV3@U_Iterator_base12@2@@std@@QAE@XZ PROC ; std::_Iterator012<std::bidirectional_iterator_tag,AbstRaven_Bot *,int,AbstRaven_Bot * const *,AbstRaven_Bot * const &,std::_Iterator_base12>::~_Iterator012<std::bidirectional_iterator_tag,AbstRaven_Bot *,int,AbstRaven_Bot * const *,AbstRaven_Bot * const &,std::_Iterator_base12>, COMDAT
; _this$ = ecx
	push	ebp
	mov	ebp, esp
	push	ecx
	mov	DWORD PTR [ebp-4], -858993460		; ccccccccH
	mov	DWORD PTR _this$[ebp], ecx
	mov	ecx, DWORD PTR _this$[ebp]
	call	??1_Iterator_base12@std@@QAE@XZ		; std::_Iterator_base12::~_Iterator_base12
	add	esp, 4
	cmp	ebp, esp
	call	__RTC_CheckEsp
	mov	esp, ebp
	pop	ebp
	ret	0
??1?$_Iterator012@Ubidirectional_iterator_tag@std@@PAVAbstRaven_Bot@@HPBQAV3@ABQAV3@U_Iterator_base12@2@@std@@QAE@XZ ENDP ; std::_Iterator012<std::bidirectional_iterator_tag,AbstRaven_Bot *,int,AbstRaven_Bot * const *,AbstRaven_Bot * const &,std::_Iterator_base12>::~_Iterator012<std::bidirectional_iterator_tag,AbstRaven_Bot *,int,AbstRaven_Bot * const *,AbstRaven_Bot * const &,std::_Iterator_base12>
; Function compile flags: /Odtp /RTCsu
_TEXT	ENDS
;	COMDAT ??4?$_Iterator012@Ubidirectional_iterator_tag@std@@PAVAbstRaven_Bot@@HPBQAV3@ABQAV3@U_Iterator_base12@2@@std@@QAEAAU01@ABU01@@Z
_TEXT	SEGMENT
_this$ = -4						; size = 4
___that$ = 8						; size = 4
??4?$_Iterator012@Ubidirectional_iterator_tag@std@@PAVAbstRaven_Bot@@HPBQAV3@ABQAV3@U_Iterator_base12@2@@std@@QAEAAU01@ABU01@@Z PROC ; std::_Iterator012<std::bidirectional_iterator_tag,AbstRaven_Bot *,int,AbstRaven_Bot * const *,AbstRaven_Bot * const &,std::_Iterator_base12>::operator=, COMDAT
; _this$ = ecx
	push	ebp
	mov	ebp, esp
	push	ecx
	mov	DWORD PTR [ebp-4], -858993460		; ccccccccH
	mov	DWORD PTR _this$[ebp], ecx
	mov	eax, DWORD PTR ___that$[ebp]
	push	eax
	mov	ecx, DWORD PTR _this$[ebp]
	call	??4_Iterator_base12@std@@QAEAAU01@ABU01@@Z ; std::_Iterator_base12::operator=
	mov	eax, DWORD PTR _this$[ebp]
	add	esp, 4
	cmp	ebp, esp
	call	__RTC_CheckEsp
	mov	esp, ebp
	pop	ebp
	ret	4
??4?$_Iterator012@Ubidirectional_iterator_tag@std@@PAVAbstRaven_Bot@@HPBQAV3@ABQAV3@U_Iterator_base12@2@@std@@QAEAAU01@ABU01@@Z ENDP ; std::_Iterator012<std::bidirectional_iterator_tag,AbstRaven_Bot *,int,AbstRaven_Bot * const *,AbstRaven_Bot * const &,std::_Iterator_base12>::operator=
_TEXT	ENDS
PUBLIC	??1?$list@PAVAbstRaven_Bot@@V?$allocator@PAVAbstRaven_Bot@@@std@@@std@@QAE@XZ ; std::list<AbstRaven_Bot *,std::allocator<AbstRaven_Bot *> >::~list<AbstRaven_Bot *,std::allocator<AbstRaven_Bot *> >
PUBLIC	??0?$list@PAVAbstRaven_Bot@@V?$allocator@PAVAbstRaven_Bot@@@std@@@std@@QAE@$$QAV01@@Z ; std::list<AbstRaven_Bot *,std::allocator<AbstRaven_Bot *> >::list<AbstRaven_Bot *,std::allocator<AbstRaven_Bot *> >
PUBLIC	?push_back@?$list@PAVAbstRaven_Bot@@V?$allocator@PAVAbstRaven_Bot@@@std@@@std@@QAEXABQAVAbstRaven_Bot@@@Z ; std::list<AbstRaven_Bot *,std::allocator<AbstRaven_Bot *> >::push_back
PUBLIC	??C?$_Tree_unchecked_const_iterator@V?$_Tree_val@V?$_Tmap_traits@PAVAbstRaven_Bot@@VMemoryRecord@@U?$less@PAVAbstRaven_Bot@@@std@@V?$allocator@U?$pair@QAVAbstRaven_Bot@@VMemoryRecord@@@std@@@4@$0A@@std@@@std@@U_Iterator_base12@2@@std@@QBEPBU?$pair@QAVAbstRaven_Bot@@VMemoryRecord@@@1@XZ ; std::_Tree_unchecked_const_iterator<std::_Tree_val<std::_Tmap_traits<AbstRaven_Bot *,MemoryRecord,std::less<AbstRaven_Bot *>,std::allocator<std::pair<AbstRaven_Bot * const,MemoryRecord> >,0> >,std::_Iterator_base12>::operator->
PUBLIC	?end@?$_Tree@V?$_Tmap_traits@PAVAbstRaven_Bot@@VMemoryRecord@@U?$less@PAVAbstRaven_Bot@@@std@@V?$allocator@U?$pair@QAVAbstRaven_Bot@@VMemoryRecord@@@std@@@4@$0A@@std@@@std@@QBE?AV?$_Tree_const_iterator@V?$_Tree_val@V?$_Tmap_traits@PAVAbstRaven_Bot@@VMemoryRecord@@U?$less@PAVAbstRaven_Bot@@@std@@V?$allocator@U?$pair@QAVAbstRaven_Bot@@VMemoryRecord@@@std@@@4@$0A@@std@@@std@@@2@XZ ; std::_Tree<std::_Tmap_traits<AbstRaven_Bot *,MemoryRecord,std::less<AbstRaven_Bot *>,std::allocator<std::pair<AbstRaven_Bot * const,MemoryRecord> >,0> >::end
PUBLIC	??E?$_Tree_const_iterator@V?$_Tree_val@V?$_Tmap_traits@PAVAbstRaven_Bot@@VMemoryRecord@@U?$less@PAVAbstRaven_Bot@@@std@@V?$allocator@U?$pair@QAVAbstRaven_Bot@@VMemoryRecord@@@std@@@4@$0A@@std@@@std@@@std@@QAEAAV01@XZ ; std::_Tree_const_iterator<std::_Tree_val<std::_Tmap_traits<AbstRaven_Bot *,MemoryRecord,std::less<AbstRaven_Bot *>,std::allocator<std::pair<AbstRaven_Bot * const,MemoryRecord> >,0> > >::operator++
PUBLIC	?begin@?$_Tree@V?$_Tmap_traits@PAVAbstRaven_Bot@@VMemoryRecord@@U?$less@PAVAbstRaven_Bot@@@std@@V?$allocator@U?$pair@QAVAbstRaven_Bot@@VMemoryRecord@@@std@@@4@$0A@@std@@@std@@QBE?AV?$_Tree_const_iterator@V?$_Tree_val@V?$_Tmap_traits@PAVAbstRaven_Bot@@VMemoryRecord@@U?$less@PAVAbstRaven_Bot@@@std@@V?$allocator@U?$pair@QAVAbstRaven_Bot@@VMemoryRecord@@@std@@@4@$0A@@std@@@std@@@2@XZ ; std::_Tree<std::_Tmap_traits<AbstRaven_Bot *,MemoryRecord,std::less<AbstRaven_Bot *>,std::allocator<std::pair<AbstRaven_Bot * const,MemoryRecord> >,0> >::begin
PUBLIC	??0?$list@PAVAbstRaven_Bot@@V?$allocator@PAVAbstRaven_Bot@@@std@@@std@@QAE@XZ ; std::list<AbstRaven_Bot *,std::allocator<AbstRaven_Bot *> >::list<AbstRaven_Bot *,std::allocator<AbstRaven_Bot *> >
PUBLIC	?GetListOfRecentlySensedOpponents@Raven_SensoryMemory@@QBE?AV?$list@PAVAbstRaven_Bot@@V?$allocator@PAVAbstRaven_Bot@@@std@@@std@@XZ ; Raven_SensoryMemory::GetListOfRecentlySensedOpponents
xdata$x	SEGMENT
__unwindtable$?GetListOfRecentlySensedOpponents@Raven_SensoryMemory@@QBE?AV?$list@PAVAbstRaven_Bot@@V?$allocator@PAVAbstRaven_Bot@@@std@@@std@@XZ DD 0ffffffffH
	DD	FLAT:__unwindfunclet$?GetListOfRecentlySensedOpponents@Raven_SensoryMemory@@QBE?AV?$list@PAVAbstRaven_Bot@@V?$allocator@PAVAbstRaven_Bot@@@std@@@std@@XZ$3
	DD	00H
	DD	FLAT:__unwindfunclet$?GetListOfRecentlySensedOpponents@Raven_SensoryMemory@@QBE?AV?$list@PAVAbstRaven_Bot@@V?$allocator@PAVAbstRaven_Bot@@@std@@@std@@XZ$0
	DD	01H
	DD	FLAT:__unwindfunclet$?GetListOfRecentlySensedOpponents@Raven_SensoryMemory@@QBE?AV?$list@PAVAbstRaven_Bot@@V?$allocator@PAVAbstRaven_Bot@@@std@@@std@@XZ$1
	DD	02H
	DD	FLAT:__unwindfunclet$?GetListOfRecentlySensedOpponents@Raven_SensoryMemory@@QBE?AV?$list@PAVAbstRaven_Bot@@V?$allocator@PAVAbstRaven_Bot@@@std@@@std@@XZ$2
__ehfuncinfo$?GetListOfRecentlySensedOpponents@Raven_SensoryMemory@@QBE?AV?$list@PAVAbstRaven_Bot@@V?$allocator@PAVAbstRaven_Bot@@@std@@@std@@XZ DD 019930522H
	DD	04H
	DD	FLAT:__unwindtable$?GetListOfRecentlySensedOpponents@Raven_SensoryMemory@@QBE?AV?$list@PAVAbstRaven_Bot@@V?$allocator@PAVAbstRaven_Bot@@@std@@@std@@XZ
	DD	2 DUP(00H)
	DD	2 DUP(00H)
	DD	00H
	DD	01H
; Function compile flags: /Odtp /RTCsu
; File c:\users\teaja\documents\artificial-fun\labravenprojecttest\raven\raven_sensorymemory.cpp
xdata$x	ENDS
_TEXT	SEGMENT
tv163 = -96						; size = 4
tv76 = -92						; size = 4
$T143490 = -88						; size = 4
$T143485 = -84						; size = 12
$T143484 = -69						; size = 1
_curRecord$ = -64					; size = 12
_CurrentTime$ = -48					; size = 8
_opponents$ = -36					; size = 16
_this$ = -16						; size = 4
__$EHRec$ = -12						; size = 12
___$ReturnUdt$ = 8					; size = 4
?GetListOfRecentlySensedOpponents@Raven_SensoryMemory@@QBE?AV?$list@PAVAbstRaven_Bot@@V?$allocator@PAVAbstRaven_Bot@@@std@@@std@@XZ PROC ; Raven_SensoryMemory::GetListOfRecentlySensedOpponents
; _this$ = ecx

; 181  : {

	push	ebp
	mov	ebp, esp
	push	-1
	push	__ehhandler$?GetListOfRecentlySensedOpponents@Raven_SensoryMemory@@QBE?AV?$list@PAVAbstRaven_Bot@@V?$allocator@PAVAbstRaven_Bot@@@std@@@std@@XZ
	mov	eax, DWORD PTR fs:0
	push	eax
	sub	esp, 84					; 00000054H
	push	edi
	push	ecx
	lea	edi, DWORD PTR [ebp-96]
	mov	ecx, 21					; 00000015H
	mov	eax, -858993460				; ccccccccH
	rep stosd
	pop	ecx
	mov	eax, DWORD PTR ___security_cookie
	xor	eax, ebp
	push	eax
	lea	eax, DWORD PTR __$EHRec$[ebp]
	mov	DWORD PTR fs:0, eax
	mov	DWORD PTR _this$[ebp], ecx
	mov	DWORD PTR $T143490[ebp], 0

; 182  :   //this will store all the opponents the bot can remember
; 183  :   std::list<AbstRaven_Bot*> opponents;

	lea	ecx, DWORD PTR _opponents$[ebp]
	call	??0?$list@PAVAbstRaven_Bot@@V?$allocator@PAVAbstRaven_Bot@@@std@@@std@@QAE@XZ ; std::list<AbstRaven_Bot *,std::allocator<AbstRaven_Bot *> >::list<AbstRaven_Bot *,std::allocator<AbstRaven_Bot *> >
	mov	DWORD PTR __$EHRec$[ebp+8], 1

; 184  : 
; 185  :   double CurrentTime = Clock->GetCurrentTime();

	call	?Instance@CrudeTimer@@SAPAV1@XZ		; CrudeTimer::Instance
	mov	ecx, eax
	call	?GetTickCount@CrudeTimer@@QAENXZ	; CrudeTimer::GetTickCount
	fstp	QWORD PTR _CurrentTime$[ebp]

; 186  : 
; 187  :   MemoryMap::const_iterator curRecord = m_MemoryMap.begin();

	lea	eax, DWORD PTR _curRecord$[ebp]
	push	eax
	mov	ecx, DWORD PTR _this$[ebp]
	add	ecx, 4
	call	?begin@?$_Tree@V?$_Tmap_traits@PAVAbstRaven_Bot@@VMemoryRecord@@U?$less@PAVAbstRaven_Bot@@@std@@V?$allocator@U?$pair@QAVAbstRaven_Bot@@VMemoryRecord@@@std@@@4@$0A@@std@@@std@@QBE?AV?$_Tree_const_iterator@V?$_Tree_val@V?$_Tmap_traits@PAVAbstRaven_Bot@@VMemoryRecord@@U?$less@PAVAbstRaven_Bot@@@std@@V?$allocator@U?$pair@QAVAbstRaven_Bot@@VMemoryRecord@@@std@@@4@$0A@@std@@@std@@@2@XZ ; std::_Tree<std::_Tmap_traits<AbstRaven_Bot *,MemoryRecord,std::less<AbstRaven_Bot *>,std::allocator<std::pair<AbstRaven_Bot * const,MemoryRecord> >,0> >::begin
	mov	BYTE PTR __$EHRec$[ebp+8], 2
	jmp	SHORT $LN4@GetListOfR
$LN3@GetListOfR:

; 188  :   for (curRecord; curRecord!=m_MemoryMap.end(); ++curRecord)

	lea	ecx, DWORD PTR _curRecord$[ebp]
	call	??E?$_Tree_const_iterator@V?$_Tree_val@V?$_Tmap_traits@PAVAbstRaven_Bot@@VMemoryRecord@@U?$less@PAVAbstRaven_Bot@@@std@@V?$allocator@U?$pair@QAVAbstRaven_Bot@@VMemoryRecord@@@std@@@4@$0A@@std@@@std@@@std@@QAEAAV01@XZ ; std::_Tree_const_iterator<std::_Tree_val<std::_Tmap_traits<AbstRaven_Bot *,MemoryRecord,std::less<AbstRaven_Bot *>,std::allocator<std::pair<AbstRaven_Bot * const,MemoryRecord> >,0> > >::operator++
$LN4@GetListOfR:
	lea	ecx, DWORD PTR $T143485[ebp]
	push	ecx
	mov	ecx, DWORD PTR _this$[ebp]
	add	ecx, 4
	call	?end@?$_Tree@V?$_Tmap_traits@PAVAbstRaven_Bot@@VMemoryRecord@@U?$less@PAVAbstRaven_Bot@@@std@@V?$allocator@U?$pair@QAVAbstRaven_Bot@@VMemoryRecord@@@std@@@4@$0A@@std@@@std@@QBE?AV?$_Tree_const_iterator@V?$_Tree_val@V?$_Tmap_traits@PAVAbstRaven_Bot@@VMemoryRecord@@U?$less@PAVAbstRaven_Bot@@@std@@V?$allocator@U?$pair@QAVAbstRaven_Bot@@VMemoryRecord@@@std@@@4@$0A@@std@@@std@@@2@XZ ; std::_Tree<std::_Tmap_traits<AbstRaven_Bot *,MemoryRecord,std::less<AbstRaven_Bot *>,std::allocator<std::pair<AbstRaven_Bot * const,MemoryRecord> >,0> >::end
	mov	DWORD PTR tv76[ebp], eax
	mov	edx, DWORD PTR tv76[ebp]
	mov	DWORD PTR tv163[ebp], edx
	mov	BYTE PTR __$EHRec$[ebp+8], 3
	mov	eax, DWORD PTR tv163[ebp]
	push	eax
	lea	ecx, DWORD PTR _curRecord$[ebp]
	call	??9?$_Tree_const_iterator@V?$_Tree_val@V?$_Tmap_traits@PAVAbstRaven_Bot@@VMemoryRecord@@U?$less@PAVAbstRaven_Bot@@@std@@V?$allocator@U?$pair@QAVAbstRaven_Bot@@VMemoryRecord@@@std@@@4@$0A@@std@@@std@@@std@@QBE_NABV01@@Z ; std::_Tree_const_iterator<std::_Tree_val<std::_Tmap_traits<AbstRaven_Bot *,MemoryRecord,std::less<AbstRaven_Bot *>,std::allocator<std::pair<AbstRaven_Bot * const,MemoryRecord> >,0> > >::operator!=
	mov	BYTE PTR $T143484[ebp], al
	mov	BYTE PTR __$EHRec$[ebp+8], 2
	lea	ecx, DWORD PTR $T143485[ebp]
	call	??1?$_Tree_const_iterator@V?$_Tree_val@V?$_Tmap_traits@PAVAbstRaven_Bot@@VMemoryRecord@@U?$less@PAVAbstRaven_Bot@@@std@@V?$allocator@U?$pair@QAVAbstRaven_Bot@@VMemoryRecord@@@std@@@4@$0A@@std@@@std@@@std@@QAE@XZ
	movzx	ecx, BYTE PTR $T143484[ebp]
	test	ecx, ecx
	je	SHORT $LN2@GetListOfR

; 189  :   {
; 190  :     //if this bot has been updated in the memory recently, add to list
; 191  :     if ( (CurrentTime - curRecord->second.fTimeLastSensed) <= m_dMemorySpan)

	lea	ecx, DWORD PTR _curRecord$[ebp]
	call	??C?$_Tree_unchecked_const_iterator@V?$_Tree_val@V?$_Tmap_traits@PAVAbstRaven_Bot@@VMemoryRecord@@U?$less@PAVAbstRaven_Bot@@@std@@V?$allocator@U?$pair@QAVAbstRaven_Bot@@VMemoryRecord@@@std@@@4@$0A@@std@@@std@@U_Iterator_base12@2@@std@@QBEPBU?$pair@QAVAbstRaven_Bot@@VMemoryRecord@@@1@XZ ; std::_Tree_unchecked_const_iterator<std::_Tree_val<std::_Tmap_traits<AbstRaven_Bot *,MemoryRecord,std::less<AbstRaven_Bot *>,std::allocator<std::pair<AbstRaven_Bot * const,MemoryRecord> >,0> >,std::_Iterator_base12>::operator->
	fld	QWORD PTR _CurrentTime$[ebp]
	fsub	QWORD PTR [eax+8]
	mov	edx, DWORD PTR _this$[ebp]
	fcomp	QWORD PTR [edx+24]
	fnstsw	ax
	test	ah, 65					; 00000041H
	jp	SHORT $LN1@GetListOfR

; 192  :     {
; 193  :       opponents.push_back(curRecord->first);

	lea	ecx, DWORD PTR _curRecord$[ebp]
	call	??C?$_Tree_unchecked_const_iterator@V?$_Tree_val@V?$_Tmap_traits@PAVAbstRaven_Bot@@VMemoryRecord@@U?$less@PAVAbstRaven_Bot@@@std@@V?$allocator@U?$pair@QAVAbstRaven_Bot@@VMemoryRecord@@@std@@@4@$0A@@std@@@std@@U_Iterator_base12@2@@std@@QBEPBU?$pair@QAVAbstRaven_Bot@@VMemoryRecord@@@1@XZ ; std::_Tree_unchecked_const_iterator<std::_Tree_val<std::_Tmap_traits<AbstRaven_Bot *,MemoryRecord,std::less<AbstRaven_Bot *>,std::allocator<std::pair<AbstRaven_Bot * const,MemoryRecord> >,0> >,std::_Iterator_base12>::operator->
	push	eax
	lea	ecx, DWORD PTR _opponents$[ebp]
	call	?push_back@?$list@PAVAbstRaven_Bot@@V?$allocator@PAVAbstRaven_Bot@@@std@@@std@@QAEXABQAVAbstRaven_Bot@@@Z ; std::list<AbstRaven_Bot *,std::allocator<AbstRaven_Bot *> >::push_back
$LN1@GetListOfR:

; 194  :     }
; 195  :   }

	jmp	SHORT $LN3@GetListOfR
$LN2@GetListOfR:

; 196  : 
; 197  :   return opponents;

	lea	eax, DWORD PTR _opponents$[ebp]
	push	eax
	mov	ecx, DWORD PTR ___$ReturnUdt$[ebp]
	call	??0?$list@PAVAbstRaven_Bot@@V?$allocator@PAVAbstRaven_Bot@@@std@@@std@@QAE@$$QAV01@@Z ; std::list<AbstRaven_Bot *,std::allocator<AbstRaven_Bot *> >::list<AbstRaven_Bot *,std::allocator<AbstRaven_Bot *> >
	mov	ecx, DWORD PTR $T143490[ebp]
	or	ecx, 1
	mov	DWORD PTR $T143490[ebp], ecx
	mov	BYTE PTR __$EHRec$[ebp+8], 1
	lea	ecx, DWORD PTR _curRecord$[ebp]
	call	??1?$_Tree_const_iterator@V?$_Tree_val@V?$_Tmap_traits@PAVAbstRaven_Bot@@VMemoryRecord@@U?$less@PAVAbstRaven_Bot@@@std@@V?$allocator@U?$pair@QAVAbstRaven_Bot@@VMemoryRecord@@@std@@@4@$0A@@std@@@std@@@std@@QAE@XZ
	mov	BYTE PTR __$EHRec$[ebp+8], 0
	lea	ecx, DWORD PTR _opponents$[ebp]
	call	??1?$list@PAVAbstRaven_Bot@@V?$allocator@PAVAbstRaven_Bot@@@std@@@std@@QAE@XZ ; std::list<AbstRaven_Bot *,std::allocator<AbstRaven_Bot *> >::~list<AbstRaven_Bot *,std::allocator<AbstRaven_Bot *> >
	mov	eax, DWORD PTR ___$ReturnUdt$[ebp]

; 198  : }

	push	edx
	mov	ecx, ebp
	push	eax
	lea	edx, DWORD PTR $LN16@GetListOfR
	call	@_RTC_CheckStackVars@8
	pop	eax
	pop	edx
	mov	ecx, DWORD PTR __$EHRec$[ebp]
	mov	DWORD PTR fs:0, ecx
	pop	ecx
	pop	edi
	add	esp, 96					; 00000060H
	cmp	ebp, esp
	call	__RTC_CheckEsp
	mov	esp, ebp
	pop	ebp
	ret	4
	npad	2
$LN16@GetListOfR:
	DD	2
	DD	$LN15@GetListOfR
$LN15@GetListOfR:
	DD	-36					; ffffffdcH
	DD	16					; 00000010H
	DD	$LN12@GetListOfR
	DD	-64					; ffffffc0H
	DD	12					; 0000000cH
	DD	$LN13@GetListOfR
$LN13@GetListOfR:
	DB	99					; 00000063H
	DB	117					; 00000075H
	DB	114					; 00000072H
	DB	82					; 00000052H
	DB	101					; 00000065H
	DB	99					; 00000063H
	DB	111					; 0000006fH
	DB	114					; 00000072H
	DB	100					; 00000064H
	DB	0
$LN12@GetListOfR:
	DB	111					; 0000006fH
	DB	112					; 00000070H
	DB	112					; 00000070H
	DB	111					; 0000006fH
	DB	110					; 0000006eH
	DB	101					; 00000065H
	DB	110					; 0000006eH
	DB	116					; 00000074H
	DB	115					; 00000073H
	DB	0
_TEXT	ENDS
text$x	SEGMENT
__unwindfunclet$?GetListOfRecentlySensedOpponents@Raven_SensoryMemory@@QBE?AV?$list@PAVAbstRaven_Bot@@V?$allocator@PAVAbstRaven_Bot@@@std@@@std@@XZ$0:
	lea	ecx, DWORD PTR _opponents$[ebp]
	jmp	??1?$list@PAVAbstRaven_Bot@@V?$allocator@PAVAbstRaven_Bot@@@std@@@std@@QAE@XZ ; std::list<AbstRaven_Bot *,std::allocator<AbstRaven_Bot *> >::~list<AbstRaven_Bot *,std::allocator<AbstRaven_Bot *> >
__unwindfunclet$?GetListOfRecentlySensedOpponents@Raven_SensoryMemory@@QBE?AV?$list@PAVAbstRaven_Bot@@V?$allocator@PAVAbstRaven_Bot@@@std@@@std@@XZ$1:
	lea	ecx, DWORD PTR _curRecord$[ebp]
	jmp	??1?$_Tree_const_iterator@V?$_Tree_val@V?$_Tmap_traits@PAVAbstRaven_Bot@@VMemoryRecord@@U?$less@PAVAbstRaven_Bot@@@std@@V?$allocator@U?$pair@QAVAbstRaven_Bot@@VMemoryRecord@@@std@@@4@$0A@@std@@@std@@@std@@QAE@XZ
__unwindfunclet$?GetListOfRecentlySensedOpponents@Raven_SensoryMemory@@QBE?AV?$list@PAVAbstRaven_Bot@@V?$allocator@PAVAbstRaven_Bot@@@std@@@std@@XZ$2:
	lea	ecx, DWORD PTR $T143485[ebp]
	jmp	??1?$_Tree_const_iterator@V?$_Tree_val@V?$_Tmap_traits@PAVAbstRaven_Bot@@VMemoryRecord@@U?$less@PAVAbstRaven_Bot@@@std@@V?$allocator@U?$pair@QAVAbstRaven_Bot@@VMemoryRecord@@@std@@@4@$0A@@std@@@std@@@std@@QAE@XZ
__unwindfunclet$?GetListOfRecentlySensedOpponents@Raven_SensoryMemory@@QBE?AV?$list@PAVAbstRaven_Bot@@V?$allocator@PAVAbstRaven_Bot@@@std@@@std@@XZ$3:
	mov	eax, DWORD PTR $T143490[ebp]
	and	eax, 1
	je	$LN11@GetListOfR
	and	DWORD PTR $T143490[ebp], -2		; fffffffeH
	mov	ecx, DWORD PTR ___$ReturnUdt$[ebp]
	jmp	??1?$list@PAVAbstRaven_Bot@@V?$allocator@PAVAbstRaven_Bot@@@std@@@std@@QAE@XZ ; std::list<AbstRaven_Bot *,std::allocator<AbstRaven_Bot *> >::~list<AbstRaven_Bot *,std::allocator<AbstRaven_Bot *> >
$LN11@GetListOfR:
	ret	0
__ehhandler$?GetListOfRecentlySensedOpponents@Raven_SensoryMemory@@QBE?AV?$list@PAVAbstRaven_Bot@@V?$allocator@PAVAbstRaven_Bot@@@std@@@std@@XZ:
	mov	edx, DWORD PTR [esp+8]
	lea	eax, DWORD PTR [edx+12]
	mov	ecx, DWORD PTR [edx-92]
	xor	ecx, eax
	call	@__security_check_cookie@4
	mov	eax, OFFSET __ehfuncinfo$?GetListOfRecentlySensedOpponents@Raven_SensoryMemory@@QBE?AV?$list@PAVAbstRaven_Bot@@V?$allocator@PAVAbstRaven_Bot@@@std@@@std@@XZ
	jmp	___CxxFrameHandler3
text$x	ENDS
?GetListOfRecentlySensedOpponents@Raven_SensoryMemory@@QBE?AV?$list@PAVAbstRaven_Bot@@V?$allocator@PAVAbstRaven_Bot@@@std@@@std@@XZ ENDP ; Raven_SensoryMemory::GetListOfRecentlySensedOpponents
PUBLIC	?find@?$_Tree@V?$_Tmap_traits@PAVAbstRaven_Bot@@VMemoryRecord@@U?$less@PAVAbstRaven_Bot@@@std@@V?$allocator@U?$pair@QAVAbstRaven_Bot@@VMemoryRecord@@@std@@@4@$0A@@std@@@std@@QBE?AV?$_Tree_const_iterator@V?$_Tree_val@V?$_Tmap_traits@PAVAbstRaven_Bot@@VMemoryRecord@@U?$less@PAVAbstRaven_Bot@@@std@@V?$allocator@U?$pair@QAVAbstRaven_Bot@@VMemoryRecord@@@std@@@4@$0A@@std@@@std@@@2@ABQAVAbstRaven_Bot@@@Z ; std::_Tree<std::_Tmap_traits<AbstRaven_Bot *,MemoryRecord,std::less<AbstRaven_Bot *>,std::allocator<std::pair<AbstRaven_Bot * const,MemoryRecord> >,0> >::find
PUBLIC	?isOpponentShootable@Raven_SensoryMemory@@QBE_NPAVAbstRaven_Bot@@@Z ; Raven_SensoryMemory::isOpponentShootable
xdata$x	SEGMENT
__unwindtable$?isOpponentShootable@Raven_SensoryMemory@@QBE_NPAVAbstRaven_Bot@@@Z DD 0ffffffffH
	DD	FLAT:__unwindfunclet$?isOpponentShootable@Raven_SensoryMemory@@QBE_NPAVAbstRaven_Bot@@@Z$0
	DD	00H
	DD	FLAT:__unwindfunclet$?isOpponentShootable@Raven_SensoryMemory@@QBE_NPAVAbstRaven_Bot@@@Z$1
__ehfuncinfo$?isOpponentShootable@Raven_SensoryMemory@@QBE_NPAVAbstRaven_Bot@@@Z DD 019930522H
	DD	02H
	DD	FLAT:__unwindtable$?isOpponentShootable@Raven_SensoryMemory@@QBE_NPAVAbstRaven_Bot@@@Z
	DD	2 DUP(00H)
	DD	2 DUP(00H)
	DD	00H
	DD	01H
; Function compile flags: /Odtp /RTCsu
xdata$x	ENDS
_TEXT	SEGMENT
tv135 = -64						; size = 4
tv70 = -60						; size = 4
$T143504 = -54						; size = 1
$T143503 = -53						; size = 1
$T143502 = -52						; size = 12
$T143501 = -37						; size = 1
_it$ = -32						; size = 12
_this$ = -16						; size = 4
__$EHRec$ = -12						; size = 12
_pOpponent$ = 8						; size = 4
?isOpponentShootable@Raven_SensoryMemory@@QBE_NPAVAbstRaven_Bot@@@Z PROC ; Raven_SensoryMemory::isOpponentShootable
; _this$ = ecx

; 206  : {

	push	ebp
	mov	ebp, esp
	push	-1
	push	__ehhandler$?isOpponentShootable@Raven_SensoryMemory@@QBE_NPAVAbstRaven_Bot@@@Z
	mov	eax, DWORD PTR fs:0
	push	eax
	sub	esp, 52					; 00000034H
	push	edi
	push	ecx
	lea	edi, DWORD PTR [ebp-64]
	mov	ecx, 13					; 0000000dH
	mov	eax, -858993460				; ccccccccH
	rep stosd
	pop	ecx
	mov	eax, DWORD PTR ___security_cookie
	xor	eax, ebp
	push	eax
	lea	eax, DWORD PTR __$EHRec$[ebp]
	mov	DWORD PTR fs:0, eax
	mov	DWORD PTR _this$[ebp], ecx

; 207  :   MemoryMap::const_iterator it = m_MemoryMap.find(pOpponent);

	lea	eax, DWORD PTR _pOpponent$[ebp]
	push	eax
	lea	ecx, DWORD PTR _it$[ebp]
	push	ecx
	mov	ecx, DWORD PTR _this$[ebp]
	add	ecx, 4
	call	?find@?$_Tree@V?$_Tmap_traits@PAVAbstRaven_Bot@@VMemoryRecord@@U?$less@PAVAbstRaven_Bot@@@std@@V?$allocator@U?$pair@QAVAbstRaven_Bot@@VMemoryRecord@@@std@@@4@$0A@@std@@@std@@QBE?AV?$_Tree_const_iterator@V?$_Tree_val@V?$_Tmap_traits@PAVAbstRaven_Bot@@VMemoryRecord@@U?$less@PAVAbstRaven_Bot@@@std@@V?$allocator@U?$pair@QAVAbstRaven_Bot@@VMemoryRecord@@@std@@@4@$0A@@std@@@std@@@2@ABQAVAbstRaven_Bot@@@Z ; std::_Tree<std::_Tmap_traits<AbstRaven_Bot *,MemoryRecord,std::less<AbstRaven_Bot *>,std::allocator<std::pair<AbstRaven_Bot * const,MemoryRecord> >,0> >::find
	mov	DWORD PTR __$EHRec$[ebp+8], 0

; 208  :  
; 209  :   if (it != m_MemoryMap.end())

	lea	edx, DWORD PTR $T143502[ebp]
	push	edx
	mov	ecx, DWORD PTR _this$[ebp]
	add	ecx, 4
	call	?end@?$_Tree@V?$_Tmap_traits@PAVAbstRaven_Bot@@VMemoryRecord@@U?$less@PAVAbstRaven_Bot@@@std@@V?$allocator@U?$pair@QAVAbstRaven_Bot@@VMemoryRecord@@@std@@@4@$0A@@std@@@std@@QBE?AV?$_Tree_const_iterator@V?$_Tree_val@V?$_Tmap_traits@PAVAbstRaven_Bot@@VMemoryRecord@@U?$less@PAVAbstRaven_Bot@@@std@@V?$allocator@U?$pair@QAVAbstRaven_Bot@@VMemoryRecord@@@std@@@4@$0A@@std@@@std@@@2@XZ ; std::_Tree<std::_Tmap_traits<AbstRaven_Bot *,MemoryRecord,std::less<AbstRaven_Bot *>,std::allocator<std::pair<AbstRaven_Bot * const,MemoryRecord> >,0> >::end
	mov	DWORD PTR tv70[ebp], eax
	mov	eax, DWORD PTR tv70[ebp]
	mov	DWORD PTR tv135[ebp], eax
	mov	BYTE PTR __$EHRec$[ebp+8], 1
	mov	ecx, DWORD PTR tv135[ebp]
	push	ecx
	lea	ecx, DWORD PTR _it$[ebp]
	call	??9?$_Tree_const_iterator@V?$_Tree_val@V?$_Tmap_traits@PAVAbstRaven_Bot@@VMemoryRecord@@U?$less@PAVAbstRaven_Bot@@@std@@V?$allocator@U?$pair@QAVAbstRaven_Bot@@VMemoryRecord@@@std@@@4@$0A@@std@@@std@@@std@@QBE_NABV01@@Z ; std::_Tree_const_iterator<std::_Tree_val<std::_Tmap_traits<AbstRaven_Bot *,MemoryRecord,std::less<AbstRaven_Bot *>,std::allocator<std::pair<AbstRaven_Bot * const,MemoryRecord> >,0> > >::operator!=
	mov	BYTE PTR $T143501[ebp], al
	mov	BYTE PTR __$EHRec$[ebp+8], 0
	lea	ecx, DWORD PTR $T143502[ebp]
	call	??1?$_Tree_const_iterator@V?$_Tree_val@V?$_Tmap_traits@PAVAbstRaven_Bot@@VMemoryRecord@@U?$less@PAVAbstRaven_Bot@@@std@@V?$allocator@U?$pair@QAVAbstRaven_Bot@@VMemoryRecord@@@std@@@4@$0A@@std@@@std@@@std@@QAE@XZ
	movzx	edx, BYTE PTR $T143501[ebp]
	test	edx, edx
	je	SHORT $LN1@isOpponent

; 210  :   {
; 211  :     return it->second.bShootable;

	lea	ecx, DWORD PTR _it$[ebp]
	call	??C?$_Tree_unchecked_const_iterator@V?$_Tree_val@V?$_Tmap_traits@PAVAbstRaven_Bot@@VMemoryRecord@@U?$less@PAVAbstRaven_Bot@@@std@@V?$allocator@U?$pair@QAVAbstRaven_Bot@@VMemoryRecord@@@std@@@4@$0A@@std@@@std@@U_Iterator_base12@2@@std@@QBEPBU?$pair@QAVAbstRaven_Bot@@VMemoryRecord@@@1@XZ ; std::_Tree_unchecked_const_iterator<std::_Tree_val<std::_Tmap_traits<AbstRaven_Bot *,MemoryRecord,std::less<AbstRaven_Bot *>,std::allocator<std::pair<AbstRaven_Bot * const,MemoryRecord> >,0> >,std::_Iterator_base12>::operator->
	mov	al, BYTE PTR [eax+49]
	mov	BYTE PTR $T143503[ebp], al
	mov	DWORD PTR __$EHRec$[ebp+8], -1
	lea	ecx, DWORD PTR _it$[ebp]
	call	??1?$_Tree_const_iterator@V?$_Tree_val@V?$_Tmap_traits@PAVAbstRaven_Bot@@VMemoryRecord@@U?$less@PAVAbstRaven_Bot@@@std@@V?$allocator@U?$pair@QAVAbstRaven_Bot@@VMemoryRecord@@@std@@@4@$0A@@std@@@std@@@std@@QAE@XZ
	mov	al, BYTE PTR $T143503[ebp]
	jmp	SHORT $LN2@isOpponent
$LN1@isOpponent:

; 212  :   }
; 213  : 
; 214  :   return false;

	mov	BYTE PTR $T143504[ebp], 0
	mov	DWORD PTR __$EHRec$[ebp+8], -1
	lea	ecx, DWORD PTR _it$[ebp]
	call	??1?$_Tree_const_iterator@V?$_Tree_val@V?$_Tmap_traits@PAVAbstRaven_Bot@@VMemoryRecord@@U?$less@PAVAbstRaven_Bot@@@std@@V?$allocator@U?$pair@QAVAbstRaven_Bot@@VMemoryRecord@@@std@@@4@$0A@@std@@@std@@@std@@QAE@XZ
	mov	al, BYTE PTR $T143504[ebp]
$LN2@isOpponent:

; 215  : }

	push	edx
	mov	ecx, ebp
	push	eax
	lea	edx, DWORD PTR $LN9@isOpponent
	call	@_RTC_CheckStackVars@8
	pop	eax
	pop	edx
	mov	ecx, DWORD PTR __$EHRec$[ebp]
	mov	DWORD PTR fs:0, ecx
	pop	ecx
	pop	edi
	add	esp, 64					; 00000040H
	cmp	ebp, esp
	call	__RTC_CheckEsp
	mov	esp, ebp
	pop	ebp
	ret	4
$LN9@isOpponent:
	DD	1
	DD	$LN8@isOpponent
$LN8@isOpponent:
	DD	-32					; ffffffe0H
	DD	12					; 0000000cH
	DD	$LN6@isOpponent
$LN6@isOpponent:
	DB	105					; 00000069H
	DB	116					; 00000074H
	DB	0
_TEXT	ENDS
text$x	SEGMENT
__unwindfunclet$?isOpponentShootable@Raven_SensoryMemory@@QBE_NPAVAbstRaven_Bot@@@Z$0:
	lea	ecx, DWORD PTR _it$[ebp]
	jmp	??1?$_Tree_const_iterator@V?$_Tree_val@V?$_Tmap_traits@PAVAbstRaven_Bot@@VMemoryRecord@@U?$less@PAVAbstRaven_Bot@@@std@@V?$allocator@U?$pair@QAVAbstRaven_Bot@@VMemoryRecord@@@std@@@4@$0A@@std@@@std@@@std@@QAE@XZ
__unwindfunclet$?isOpponentShootable@Raven_SensoryMemory@@QBE_NPAVAbstRaven_Bot@@@Z$1:
	lea	ecx, DWORD PTR $T143502[ebp]
	jmp	??1?$_Tree_const_iterator@V?$_Tree_val@V?$_Tmap_traits@PAVAbstRaven_Bot@@VMemoryRecord@@U?$less@PAVAbstRaven_Bot@@@std@@V?$allocator@U?$pair@QAVAbstRaven_Bot@@VMemoryRecord@@@std@@@4@$0A@@std@@@std@@@std@@QAE@XZ
__ehhandler$?isOpponentShootable@Raven_SensoryMemory@@QBE_NPAVAbstRaven_Bot@@@Z:
	mov	edx, DWORD PTR [esp+8]
	lea	eax, DWORD PTR [edx+12]
	mov	ecx, DWORD PTR [edx-60]
	xor	ecx, eax
	call	@__security_check_cookie@4
	mov	eax, OFFSET __ehfuncinfo$?isOpponentShootable@Raven_SensoryMemory@@QBE_NPAVAbstRaven_Bot@@@Z
	jmp	___CxxFrameHandler3
text$x	ENDS
?isOpponentShootable@Raven_SensoryMemory@@QBE_NPAVAbstRaven_Bot@@@Z ENDP ; Raven_SensoryMemory::isOpponentShootable
PUBLIC	?isOpponentWithinFOV@Raven_SensoryMemory@@QBE_NPAVAbstRaven_Bot@@@Z ; Raven_SensoryMemory::isOpponentWithinFOV
xdata$x	SEGMENT
__unwindtable$?isOpponentWithinFOV@Raven_SensoryMemory@@QBE_NPAVAbstRaven_Bot@@@Z DD 0ffffffffH
	DD	FLAT:__unwindfunclet$?isOpponentWithinFOV@Raven_SensoryMemory@@QBE_NPAVAbstRaven_Bot@@@Z$0
	DD	00H
	DD	FLAT:__unwindfunclet$?isOpponentWithinFOV@Raven_SensoryMemory@@QBE_NPAVAbstRaven_Bot@@@Z$1
__ehfuncinfo$?isOpponentWithinFOV@Raven_SensoryMemory@@QBE_NPAVAbstRaven_Bot@@@Z DD 019930522H
	DD	02H
	DD	FLAT:__unwindtable$?isOpponentWithinFOV@Raven_SensoryMemory@@QBE_NPAVAbstRaven_Bot@@@Z
	DD	2 DUP(00H)
	DD	2 DUP(00H)
	DD	00H
	DD	01H
; Function compile flags: /Odtp /RTCsu
xdata$x	ENDS
_TEXT	SEGMENT
tv135 = -64						; size = 4
tv70 = -60						; size = 4
$T143518 = -54						; size = 1
$T143517 = -53						; size = 1
$T143516 = -52						; size = 12
$T143515 = -37						; size = 1
_it$ = -32						; size = 12
_this$ = -16						; size = 4
__$EHRec$ = -12						; size = 12
_pOpponent$ = 8						; size = 4
?isOpponentWithinFOV@Raven_SensoryMemory@@QBE_NPAVAbstRaven_Bot@@@Z PROC ; Raven_SensoryMemory::isOpponentWithinFOV
; _this$ = ecx

; 222  : {

	push	ebp
	mov	ebp, esp
	push	-1
	push	__ehhandler$?isOpponentWithinFOV@Raven_SensoryMemory@@QBE_NPAVAbstRaven_Bot@@@Z
	mov	eax, DWORD PTR fs:0
	push	eax
	sub	esp, 52					; 00000034H
	push	edi
	push	ecx
	lea	edi, DWORD PTR [ebp-64]
	mov	ecx, 13					; 0000000dH
	mov	eax, -858993460				; ccccccccH
	rep stosd
	pop	ecx
	mov	eax, DWORD PTR ___security_cookie
	xor	eax, ebp
	push	eax
	lea	eax, DWORD PTR __$EHRec$[ebp]
	mov	DWORD PTR fs:0, eax
	mov	DWORD PTR _this$[ebp], ecx

; 223  :   MemoryMap::const_iterator it = m_MemoryMap.find(pOpponent);

	lea	eax, DWORD PTR _pOpponent$[ebp]
	push	eax
	lea	ecx, DWORD PTR _it$[ebp]
	push	ecx
	mov	ecx, DWORD PTR _this$[ebp]
	add	ecx, 4
	call	?find@?$_Tree@V?$_Tmap_traits@PAVAbstRaven_Bot@@VMemoryRecord@@U?$less@PAVAbstRaven_Bot@@@std@@V?$allocator@U?$pair@QAVAbstRaven_Bot@@VMemoryRecord@@@std@@@4@$0A@@std@@@std@@QBE?AV?$_Tree_const_iterator@V?$_Tree_val@V?$_Tmap_traits@PAVAbstRaven_Bot@@VMemoryRecord@@U?$less@PAVAbstRaven_Bot@@@std@@V?$allocator@U?$pair@QAVAbstRaven_Bot@@VMemoryRecord@@@std@@@4@$0A@@std@@@std@@@2@ABQAVAbstRaven_Bot@@@Z ; std::_Tree<std::_Tmap_traits<AbstRaven_Bot *,MemoryRecord,std::less<AbstRaven_Bot *>,std::allocator<std::pair<AbstRaven_Bot * const,MemoryRecord> >,0> >::find
	mov	DWORD PTR __$EHRec$[ebp+8], 0

; 224  :  
; 225  :   if (it != m_MemoryMap.end())

	lea	edx, DWORD PTR $T143516[ebp]
	push	edx
	mov	ecx, DWORD PTR _this$[ebp]
	add	ecx, 4
	call	?end@?$_Tree@V?$_Tmap_traits@PAVAbstRaven_Bot@@VMemoryRecord@@U?$less@PAVAbstRaven_Bot@@@std@@V?$allocator@U?$pair@QAVAbstRaven_Bot@@VMemoryRecord@@@std@@@4@$0A@@std@@@std@@QBE?AV?$_Tree_const_iterator@V?$_Tree_val@V?$_Tmap_traits@PAVAbstRaven_Bot@@VMemoryRecord@@U?$less@PAVAbstRaven_Bot@@@std@@V?$allocator@U?$pair@QAVAbstRaven_Bot@@VMemoryRecord@@@std@@@4@$0A@@std@@@std@@@2@XZ ; std::_Tree<std::_Tmap_traits<AbstRaven_Bot *,MemoryRecord,std::less<AbstRaven_Bot *>,std::allocator<std::pair<AbstRaven_Bot * const,MemoryRecord> >,0> >::end
	mov	DWORD PTR tv70[ebp], eax
	mov	eax, DWORD PTR tv70[ebp]
	mov	DWORD PTR tv135[ebp], eax
	mov	BYTE PTR __$EHRec$[ebp+8], 1
	mov	ecx, DWORD PTR tv135[ebp]
	push	ecx
	lea	ecx, DWORD PTR _it$[ebp]
	call	??9?$_Tree_const_iterator@V?$_Tree_val@V?$_Tmap_traits@PAVAbstRaven_Bot@@VMemoryRecord@@U?$less@PAVAbstRaven_Bot@@@std@@V?$allocator@U?$pair@QAVAbstRaven_Bot@@VMemoryRecord@@@std@@@4@$0A@@std@@@std@@@std@@QBE_NABV01@@Z ; std::_Tree_const_iterator<std::_Tree_val<std::_Tmap_traits<AbstRaven_Bot *,MemoryRecord,std::less<AbstRaven_Bot *>,std::allocator<std::pair<AbstRaven_Bot * const,MemoryRecord> >,0> > >::operator!=
	mov	BYTE PTR $T143515[ebp], al
	mov	BYTE PTR __$EHRec$[ebp+8], 0
	lea	ecx, DWORD PTR $T143516[ebp]
	call	??1?$_Tree_const_iterator@V?$_Tree_val@V?$_Tmap_traits@PAVAbstRaven_Bot@@VMemoryRecord@@U?$less@PAVAbstRaven_Bot@@@std@@V?$allocator@U?$pair@QAVAbstRaven_Bot@@VMemoryRecord@@@std@@@4@$0A@@std@@@std@@@std@@QAE@XZ
	movzx	edx, BYTE PTR $T143515[ebp]
	test	edx, edx
	je	SHORT $LN1@isOpponent@2

; 226  :   {
; 227  :     return it->second.bWithinFOV;

	lea	ecx, DWORD PTR _it$[ebp]
	call	??C?$_Tree_unchecked_const_iterator@V?$_Tree_val@V?$_Tmap_traits@PAVAbstRaven_Bot@@VMemoryRecord@@U?$less@PAVAbstRaven_Bot@@@std@@V?$allocator@U?$pair@QAVAbstRaven_Bot@@VMemoryRecord@@@std@@@4@$0A@@std@@@std@@U_Iterator_base12@2@@std@@QBEPBU?$pair@QAVAbstRaven_Bot@@VMemoryRecord@@@1@XZ ; std::_Tree_unchecked_const_iterator<std::_Tree_val<std::_Tmap_traits<AbstRaven_Bot *,MemoryRecord,std::less<AbstRaven_Bot *>,std::allocator<std::pair<AbstRaven_Bot * const,MemoryRecord> >,0> >,std::_Iterator_base12>::operator->
	mov	al, BYTE PTR [eax+48]
	mov	BYTE PTR $T143517[ebp], al
	mov	DWORD PTR __$EHRec$[ebp+8], -1
	lea	ecx, DWORD PTR _it$[ebp]
	call	??1?$_Tree_const_iterator@V?$_Tree_val@V?$_Tmap_traits@PAVAbstRaven_Bot@@VMemoryRecord@@U?$less@PAVAbstRaven_Bot@@@std@@V?$allocator@U?$pair@QAVAbstRaven_Bot@@VMemoryRecord@@@std@@@4@$0A@@std@@@std@@@std@@QAE@XZ
	mov	al, BYTE PTR $T143517[ebp]
	jmp	SHORT $LN2@isOpponent@2
$LN1@isOpponent@2:

; 228  :   }
; 229  : 
; 230  :   return false;

	mov	BYTE PTR $T143518[ebp], 0
	mov	DWORD PTR __$EHRec$[ebp+8], -1
	lea	ecx, DWORD PTR _it$[ebp]
	call	??1?$_Tree_const_iterator@V?$_Tree_val@V?$_Tmap_traits@PAVAbstRaven_Bot@@VMemoryRecord@@U?$less@PAVAbstRaven_Bot@@@std@@V?$allocator@U?$pair@QAVAbstRaven_Bot@@VMemoryRecord@@@std@@@4@$0A@@std@@@std@@@std@@QAE@XZ
	mov	al, BYTE PTR $T143518[ebp]
$LN2@isOpponent@2:

; 231  : }

	push	edx
	mov	ecx, ebp
	push	eax
	lea	edx, DWORD PTR $LN9@isOpponent@2
	call	@_RTC_CheckStackVars@8
	pop	eax
	pop	edx
	mov	ecx, DWORD PTR __$EHRec$[ebp]
	mov	DWORD PTR fs:0, ecx
	pop	ecx
	pop	edi
	add	esp, 64					; 00000040H
	cmp	ebp, esp
	call	__RTC_CheckEsp
	mov	esp, ebp
	pop	ebp
	ret	4
$LN9@isOpponent@2:
	DD	1
	DD	$LN8@isOpponent@2
$LN8@isOpponent@2:
	DD	-32					; ffffffe0H
	DD	12					; 0000000cH
	DD	$LN6@isOpponent@2
$LN6@isOpponent@2:
	DB	105					; 00000069H
	DB	116					; 00000074H
	DB	0
_TEXT	ENDS
text$x	SEGMENT
__unwindfunclet$?isOpponentWithinFOV@Raven_SensoryMemory@@QBE_NPAVAbstRaven_Bot@@@Z$0:
	lea	ecx, DWORD PTR _it$[ebp]
	jmp	??1?$_Tree_const_iterator@V?$_Tree_val@V?$_Tmap_traits@PAVAbstRaven_Bot@@VMemoryRecord@@U?$less@PAVAbstRaven_Bot@@@std@@V?$allocator@U?$pair@QAVAbstRaven_Bot@@VMemoryRecord@@@std@@@4@$0A@@std@@@std@@@std@@QAE@XZ
__unwindfunclet$?isOpponentWithinFOV@Raven_SensoryMemory@@QBE_NPAVAbstRaven_Bot@@@Z$1:
	lea	ecx, DWORD PTR $T143516[ebp]
	jmp	??1?$_Tree_const_iterator@V?$_Tree_val@V?$_Tmap_traits@PAVAbstRaven_Bot@@VMemoryRecord@@U?$less@PAVAbstRaven_Bot@@@std@@V?$allocator@U?$pair@QAVAbstRaven_Bot@@VMemoryRecord@@@std@@@4@$0A@@std@@@std@@@std@@QAE@XZ
__ehhandler$?isOpponentWithinFOV@Raven_SensoryMemory@@QBE_NPAVAbstRaven_Bot@@@Z:
	mov	edx, DWORD PTR [esp+8]
	lea	eax, DWORD PTR [edx+12]
	mov	ecx, DWORD PTR [edx-60]
	xor	ecx, eax
	call	@__security_check_cookie@4
	mov	eax, OFFSET __ehfuncinfo$?isOpponentWithinFOV@Raven_SensoryMemory@@QBE_NPAVAbstRaven_Bot@@@Z
	jmp	___CxxFrameHandler3
text$x	ENDS
?isOpponentWithinFOV@Raven_SensoryMemory@@QBE_NPAVAbstRaven_Bot@@@Z ENDP ; Raven_SensoryMemory::isOpponentWithinFOV
PUBLIC	__TI2?AVruntime_error@std@@
PUBLIC	??0runtime_error@std@@QAE@PBD@Z			; std::runtime_error::runtime_error
PUBLIC	?GetLastRecordedPositionOfOpponent@Raven_SensoryMemory@@QBE?AUVector2D@@PAVAbstRaven_Bot@@@Z ; Raven_SensoryMemory::GetLastRecordedPositionOfOpponent
PUBLIC	??1runtime_error@std@@UAE@XZ			; std::runtime_error::~runtime_error
PUBLIC	__CTA2?AVruntime_error@std@@
PUBLIC	__CT??_R0?AVruntime_error@std@@@8??0runtime_error@std@@QAE@ABV01@@Z12
PUBLIC	??_R0?AVruntime_error@std@@@8			; std::runtime_error `RTTI Type Descriptor'
PUBLIC	??0runtime_error@std@@QAE@ABV01@@Z		; std::runtime_error::runtime_error
PUBLIC	__CT??_R0?AVexception@std@@@8??0exception@std@@QAE@ABV01@@Z12
PUBLIC	??_R0?AVexception@std@@@8			; std::exception `RTTI Type Descriptor'
EXTRN	__CxxThrowException@8:PROC
EXTRN	??_7type_info@@6B@:QWORD			; type_info::`vftable'
EXTRN	??0exception@std@@QAE@ABV01@@Z:PROC		; std::exception::exception
;	COMDAT ??_R0?AVexception@std@@@8
_DATA	SEGMENT
??_R0?AVexception@std@@@8 DD FLAT:??_7type_info@@6B@	; std::exception `RTTI Type Descriptor'
	DD	00H
	DB	'.?AVexception@std@@', 00H
_DATA	ENDS
;	COMDAT __CT??_R0?AVexception@std@@@8??0exception@std@@QAE@ABV01@@Z12
xdata$x	SEGMENT
__CT??_R0?AVexception@std@@@8??0exception@std@@QAE@ABV01@@Z12 DD 00H
	DD	FLAT:??_R0?AVexception@std@@@8
	DD	00H
	DD	0ffffffffH
	ORG $+4
	DD	0cH
	DD	FLAT:??0exception@std@@QAE@ABV01@@Z
xdata$x	ENDS
;	COMDAT ??_R0?AVruntime_error@std@@@8
_DATA	SEGMENT
??_R0?AVruntime_error@std@@@8 DD FLAT:??_7type_info@@6B@ ; std::runtime_error `RTTI Type Descriptor'
	DD	00H
	DB	'.?AVruntime_error@std@@', 00H
_DATA	ENDS
;	COMDAT __CT??_R0?AVruntime_error@std@@@8??0runtime_error@std@@QAE@ABV01@@Z12
xdata$x	SEGMENT
__CT??_R0?AVruntime_error@std@@@8??0runtime_error@std@@QAE@ABV01@@Z12 DD 00H
	DD	FLAT:??_R0?AVruntime_error@std@@@8
	DD	00H
	DD	0ffffffffH
	ORG $+4
	DD	0cH
	DD	FLAT:??0runtime_error@std@@QAE@ABV01@@Z
xdata$x	ENDS
;	COMDAT __CTA2?AVruntime_error@std@@
xdata$x	SEGMENT
__CTA2?AVruntime_error@std@@ DD 02H
	DD	FLAT:__CT??_R0?AVruntime_error@std@@@8??0runtime_error@std@@QAE@ABV01@@Z12
	DD	FLAT:__CT??_R0?AVexception@std@@@8??0exception@std@@QAE@ABV01@@Z12
xdata$x	ENDS
;	COMDAT __TI2?AVruntime_error@std@@
xdata$x	SEGMENT
__TI2?AVruntime_error@std@@ DD 00H
	DD	FLAT:??1runtime_error@std@@UAE@XZ
	DD	00H
	DD	FLAT:__CTA2?AVruntime_error@std@@
xdata$x	ENDS
xdata$x	SEGMENT
__unwindtable$?GetLastRecordedPositionOfOpponent@Raven_SensoryMemory@@QBE?AUVector2D@@PAVAbstRaven_Bot@@@Z DD 0ffffffffH
	DD	FLAT:__unwindfunclet$?GetLastRecordedPositionOfOpponent@Raven_SensoryMemory@@QBE?AUVector2D@@PAVAbstRaven_Bot@@@Z$0
	DD	00H
	DD	FLAT:__unwindfunclet$?GetLastRecordedPositionOfOpponent@Raven_SensoryMemory@@QBE?AUVector2D@@PAVAbstRaven_Bot@@@Z$1
__ehfuncinfo$?GetLastRecordedPositionOfOpponent@Raven_SensoryMemory@@QBE?AUVector2D@@PAVAbstRaven_Bot@@@Z DD 019930522H
	DD	02H
	DD	FLAT:__unwindtable$?GetLastRecordedPositionOfOpponent@Raven_SensoryMemory@@QBE?AUVector2D@@PAVAbstRaven_Bot@@@Z
	DD	2 DUP(00H)
	DD	2 DUP(00H)
	DD	00H
	DD	01H
; Function compile flags: /Odtp /RTCsu
xdata$x	ENDS
_TEXT	SEGMENT
tv140 = -72						; size = 4
tv70 = -68						; size = 4
$T143531 = -64						; size = 12
$T143530 = -52						; size = 12
$T143529 = -37						; size = 1
_it$ = -32						; size = 12
_this$ = -16						; size = 4
__$EHRec$ = -12						; size = 12
___$ReturnUdt$ = 8					; size = 4
_pOpponent$ = 12					; size = 4
?GetLastRecordedPositionOfOpponent@Raven_SensoryMemory@@QBE?AUVector2D@@PAVAbstRaven_Bot@@@Z PROC ; Raven_SensoryMemory::GetLastRecordedPositionOfOpponent
; _this$ = ecx

; 238  : {

	push	ebp
	mov	ebp, esp
	push	-1
	push	__ehhandler$?GetLastRecordedPositionOfOpponent@Raven_SensoryMemory@@QBE?AUVector2D@@PAVAbstRaven_Bot@@@Z
	mov	eax, DWORD PTR fs:0
	push	eax
	sub	esp, 60					; 0000003cH
	push	edi
	push	ecx
	lea	edi, DWORD PTR [ebp-72]
	mov	ecx, 15					; 0000000fH
	mov	eax, -858993460				; ccccccccH
	rep stosd
	pop	ecx
	mov	eax, DWORD PTR ___security_cookie
	xor	eax, ebp
	push	eax
	lea	eax, DWORD PTR __$EHRec$[ebp]
	mov	DWORD PTR fs:0, eax
	mov	DWORD PTR _this$[ebp], ecx

; 239  :   MemoryMap::const_iterator it = m_MemoryMap.find(pOpponent);

	lea	eax, DWORD PTR _pOpponent$[ebp]
	push	eax
	lea	ecx, DWORD PTR _it$[ebp]
	push	ecx
	mov	ecx, DWORD PTR _this$[ebp]
	add	ecx, 4
	call	?find@?$_Tree@V?$_Tmap_traits@PAVAbstRaven_Bot@@VMemoryRecord@@U?$less@PAVAbstRaven_Bot@@@std@@V?$allocator@U?$pair@QAVAbstRaven_Bot@@VMemoryRecord@@@std@@@4@$0A@@std@@@std@@QBE?AV?$_Tree_const_iterator@V?$_Tree_val@V?$_Tmap_traits@PAVAbstRaven_Bot@@VMemoryRecord@@U?$less@PAVAbstRaven_Bot@@@std@@V?$allocator@U?$pair@QAVAbstRaven_Bot@@VMemoryRecord@@@std@@@4@$0A@@std@@@std@@@2@ABQAVAbstRaven_Bot@@@Z ; std::_Tree<std::_Tmap_traits<AbstRaven_Bot *,MemoryRecord,std::less<AbstRaven_Bot *>,std::allocator<std::pair<AbstRaven_Bot * const,MemoryRecord> >,0> >::find
	mov	DWORD PTR __$EHRec$[ebp+8], 0

; 240  :  
; 241  :   if (it != m_MemoryMap.end())

	lea	edx, DWORD PTR $T143530[ebp]
	push	edx
	mov	ecx, DWORD PTR _this$[ebp]
	add	ecx, 4
	call	?end@?$_Tree@V?$_Tmap_traits@PAVAbstRaven_Bot@@VMemoryRecord@@U?$less@PAVAbstRaven_Bot@@@std@@V?$allocator@U?$pair@QAVAbstRaven_Bot@@VMemoryRecord@@@std@@@4@$0A@@std@@@std@@QBE?AV?$_Tree_const_iterator@V?$_Tree_val@V?$_Tmap_traits@PAVAbstRaven_Bot@@VMemoryRecord@@U?$less@PAVAbstRaven_Bot@@@std@@V?$allocator@U?$pair@QAVAbstRaven_Bot@@VMemoryRecord@@@std@@@4@$0A@@std@@@std@@@2@XZ ; std::_Tree<std::_Tmap_traits<AbstRaven_Bot *,MemoryRecord,std::less<AbstRaven_Bot *>,std::allocator<std::pair<AbstRaven_Bot * const,MemoryRecord> >,0> >::end
	mov	DWORD PTR tv70[ebp], eax
	mov	eax, DWORD PTR tv70[ebp]
	mov	DWORD PTR tv140[ebp], eax
	mov	BYTE PTR __$EHRec$[ebp+8], 1
	mov	ecx, DWORD PTR tv140[ebp]
	push	ecx
	lea	ecx, DWORD PTR _it$[ebp]
	call	??9?$_Tree_const_iterator@V?$_Tree_val@V?$_Tmap_traits@PAVAbstRaven_Bot@@VMemoryRecord@@U?$less@PAVAbstRaven_Bot@@@std@@V?$allocator@U?$pair@QAVAbstRaven_Bot@@VMemoryRecord@@@std@@@4@$0A@@std@@@std@@@std@@QBE_NABV01@@Z ; std::_Tree_const_iterator<std::_Tree_val<std::_Tmap_traits<AbstRaven_Bot *,MemoryRecord,std::less<AbstRaven_Bot *>,std::allocator<std::pair<AbstRaven_Bot * const,MemoryRecord> >,0> > >::operator!=
	mov	BYTE PTR $T143529[ebp], al
	mov	BYTE PTR __$EHRec$[ebp+8], 0
	lea	ecx, DWORD PTR $T143530[ebp]
	call	??1?$_Tree_const_iterator@V?$_Tree_val@V?$_Tmap_traits@PAVAbstRaven_Bot@@VMemoryRecord@@U?$less@PAVAbstRaven_Bot@@@std@@V?$allocator@U?$pair@QAVAbstRaven_Bot@@VMemoryRecord@@@std@@@4@$0A@@std@@@std@@@std@@QAE@XZ
	movzx	edx, BYTE PTR $T143529[ebp]
	test	edx, edx
	je	SHORT $LN1@GetLastRec

; 242  :   {
; 243  :     return it->second.vLastSensedPosition;

	lea	ecx, DWORD PTR _it$[ebp]
	call	??C?$_Tree_unchecked_const_iterator@V?$_Tree_val@V?$_Tmap_traits@PAVAbstRaven_Bot@@VMemoryRecord@@U?$less@PAVAbstRaven_Bot@@@std@@V?$allocator@U?$pair@QAVAbstRaven_Bot@@VMemoryRecord@@@std@@@4@$0A@@std@@@std@@U_Iterator_base12@2@@std@@QBEPBU?$pair@QAVAbstRaven_Bot@@VMemoryRecord@@@1@XZ ; std::_Tree_unchecked_const_iterator<std::_Tree_val<std::_Tmap_traits<AbstRaven_Bot *,MemoryRecord,std::less<AbstRaven_Bot *>,std::allocator<std::pair<AbstRaven_Bot * const,MemoryRecord> >,0> >,std::_Iterator_base12>::operator->
	add	eax, 32					; 00000020H
	mov	ecx, DWORD PTR ___$ReturnUdt$[ebp]
	mov	edx, DWORD PTR [eax]
	mov	DWORD PTR [ecx], edx
	mov	edx, DWORD PTR [eax+4]
	mov	DWORD PTR [ecx+4], edx
	mov	edx, DWORD PTR [eax+8]
	mov	DWORD PTR [ecx+8], edx
	mov	eax, DWORD PTR [eax+12]
	mov	DWORD PTR [ecx+12], eax
	mov	DWORD PTR __$EHRec$[ebp+8], -1
	lea	ecx, DWORD PTR _it$[ebp]
	call	??1?$_Tree_const_iterator@V?$_Tree_val@V?$_Tmap_traits@PAVAbstRaven_Bot@@VMemoryRecord@@U?$less@PAVAbstRaven_Bot@@@std@@V?$allocator@U?$pair@QAVAbstRaven_Bot@@VMemoryRecord@@@std@@@4@$0A@@std@@@std@@@std@@QAE@XZ
	mov	eax, DWORD PTR ___$ReturnUdt$[ebp]
	jmp	SHORT $LN3@GetLastRec
$LN1@GetLastRec:

; 244  :   }
; 245  : 
; 246  :   throw std::runtime_error("< Raven_SensoryMemory::GetLastRecordedPositionOfOpponent>: Attempting to get position of unrecorded bot");

	push	OFFSET $SG134077
	lea	ecx, DWORD PTR $T143531[ebp]
	call	??0runtime_error@std@@QAE@PBD@Z		; std::runtime_error::runtime_error
	push	OFFSET __TI2?AVruntime_error@std@@
	lea	ecx, DWORD PTR $T143531[ebp]
	push	ecx
	call	__CxxThrowException@8

; 247  : }

	mov	DWORD PTR __$EHRec$[ebp+8], -1
	lea	ecx, DWORD PTR _it$[ebp]
	call	??1?$_Tree_const_iterator@V?$_Tree_val@V?$_Tmap_traits@PAVAbstRaven_Bot@@VMemoryRecord@@U?$less@PAVAbstRaven_Bot@@@std@@V?$allocator@U?$pair@QAVAbstRaven_Bot@@VMemoryRecord@@@std@@@4@$0A@@std@@@std@@@std@@QAE@XZ
$LN3@GetLastRec:
	push	edx
	mov	ecx, ebp
	push	eax
	lea	edx, DWORD PTR $LN9@GetLastRec
	call	@_RTC_CheckStackVars@8
	pop	eax
	pop	edx
	mov	ecx, DWORD PTR __$EHRec$[ebp]
	mov	DWORD PTR fs:0, ecx
	pop	ecx
	pop	edi
	add	esp, 72					; 00000048H
	cmp	ebp, esp
	call	__RTC_CheckEsp
	mov	esp, ebp
	pop	ebp
	ret	8
	npad	2
$LN9@GetLastRec:
	DD	1
	DD	$LN8@GetLastRec
$LN8@GetLastRec:
	DD	-32					; ffffffe0H
	DD	12					; 0000000cH
	DD	$LN6@GetLastRec
$LN6@GetLastRec:
	DB	105					; 00000069H
	DB	116					; 00000074H
	DB	0
_TEXT	ENDS
text$x	SEGMENT
__unwindfunclet$?GetLastRecordedPositionOfOpponent@Raven_SensoryMemory@@QBE?AUVector2D@@PAVAbstRaven_Bot@@@Z$0:
	lea	ecx, DWORD PTR _it$[ebp]
	jmp	??1?$_Tree_const_iterator@V?$_Tree_val@V?$_Tmap_traits@PAVAbstRaven_Bot@@VMemoryRecord@@U?$less@PAVAbstRaven_Bot@@@std@@V?$allocator@U?$pair@QAVAbstRaven_Bot@@VMemoryRecord@@@std@@@4@$0A@@std@@@std@@@std@@QAE@XZ
__unwindfunclet$?GetLastRecordedPositionOfOpponent@Raven_SensoryMemory@@QBE?AUVector2D@@PAVAbstRaven_Bot@@@Z$1:
	lea	ecx, DWORD PTR $T143530[ebp]
	jmp	??1?$_Tree_const_iterator@V?$_Tree_val@V?$_Tmap_traits@PAVAbstRaven_Bot@@VMemoryRecord@@U?$less@PAVAbstRaven_Bot@@@std@@V?$allocator@U?$pair@QAVAbstRaven_Bot@@VMemoryRecord@@@std@@@4@$0A@@std@@@std@@@std@@QAE@XZ
__ehhandler$?GetLastRecordedPositionOfOpponent@Raven_SensoryMemory@@QBE?AUVector2D@@PAVAbstRaven_Bot@@@Z:
	mov	edx, DWORD PTR [esp+8]
	lea	eax, DWORD PTR [edx+12]
	mov	ecx, DWORD PTR [edx-68]
	xor	ecx, eax
	call	@__security_check_cookie@4
	mov	eax, OFFSET __ehfuncinfo$?GetLastRecordedPositionOfOpponent@Raven_SensoryMemory@@QBE?AUVector2D@@PAVAbstRaven_Bot@@@Z
	jmp	___CxxFrameHandler3
text$x	ENDS
?GetLastRecordedPositionOfOpponent@Raven_SensoryMemory@@QBE?AUVector2D@@PAVAbstRaven_Bot@@@Z ENDP ; Raven_SensoryMemory::GetLastRecordedPositionOfOpponent
PUBLIC	??_7runtime_error@std@@6B@			; std::runtime_error::`vftable'
PUBLIC	??_R4runtime_error@std@@6B@			; std::runtime_error::`RTTI Complete Object Locator'
PUBLIC	??_R3runtime_error@std@@8			; std::runtime_error::`RTTI Class Hierarchy Descriptor'
PUBLIC	??_R2runtime_error@std@@8			; std::runtime_error::`RTTI Base Class Array'
PUBLIC	??_R1A@?0A@EA@runtime_error@std@@8		; std::runtime_error::`RTTI Base Class Descriptor at (0,-1,0,64)'
PUBLIC	??_R1A@?0A@EA@exception@std@@8			; std::exception::`RTTI Base Class Descriptor at (0,-1,0,64)'
PUBLIC	??_R3exception@std@@8				; std::exception::`RTTI Class Hierarchy Descriptor'
PUBLIC	??_R2exception@std@@8				; std::exception::`RTTI Base Class Array'
EXTRN	??0exception@std@@QAE@ABQBD@Z:PROC		; std::exception::exception
EXTRN	??_Eruntime_error@std@@UAEPAXI@Z:PROC		; std::runtime_error::`vector deleting destructor'
EXTRN	?what@exception@std@@UBEPBDXZ:PROC		; std::exception::what
;	COMDAT ??_R2exception@std@@8
; File c:\program files (x86)\microsoft visual studio 10.0\vc\include\stdexcept
rdata$r	SEGMENT
??_R2exception@std@@8 DD FLAT:??_R1A@?0A@EA@exception@std@@8 ; std::exception::`RTTI Base Class Array'
rdata$r	ENDS
;	COMDAT ??_R3exception@std@@8
rdata$r	SEGMENT
??_R3exception@std@@8 DD 00H				; std::exception::`RTTI Class Hierarchy Descriptor'
	DD	00H
	DD	01H
	DD	FLAT:??_R2exception@std@@8
rdata$r	ENDS
;	COMDAT ??_R1A@?0A@EA@exception@std@@8
rdata$r	SEGMENT
??_R1A@?0A@EA@exception@std@@8 DD FLAT:??_R0?AVexception@std@@@8 ; std::exception::`RTTI Base Class Descriptor at (0,-1,0,64)'
	DD	00H
	DD	00H
	DD	0ffffffffH
	DD	00H
	DD	040H
	DD	FLAT:??_R3exception@std@@8
rdata$r	ENDS
;	COMDAT ??_R1A@?0A@EA@runtime_error@std@@8
rdata$r	SEGMENT
??_R1A@?0A@EA@runtime_error@std@@8 DD FLAT:??_R0?AVruntime_error@std@@@8 ; std::runtime_error::`RTTI Base Class Descriptor at (0,-1,0,64)'
	DD	01H
	DD	00H
	DD	0ffffffffH
	DD	00H
	DD	040H
	DD	FLAT:??_R3runtime_error@std@@8
rdata$r	ENDS
;	COMDAT ??_R2runtime_error@std@@8
rdata$r	SEGMENT
??_R2runtime_error@std@@8 DD FLAT:??_R1A@?0A@EA@runtime_error@std@@8 ; std::runtime_error::`RTTI Base Class Array'
	DD	FLAT:??_R1A@?0A@EA@exception@std@@8
rdata$r	ENDS
;	COMDAT ??_R3runtime_error@std@@8
rdata$r	SEGMENT
??_R3runtime_error@std@@8 DD 00H			; std::runtime_error::`RTTI Class Hierarchy Descriptor'
	DD	00H
	DD	02H
	DD	FLAT:??_R2runtime_error@std@@8
rdata$r	ENDS
;	COMDAT ??_R4runtime_error@std@@6B@
rdata$r	SEGMENT
??_R4runtime_error@std@@6B@ DD 00H			; std::runtime_error::`RTTI Complete Object Locator'
	DD	00H
	DD	00H
	DD	FLAT:??_R0?AVruntime_error@std@@@8
	DD	FLAT:??_R3runtime_error@std@@8
rdata$r	ENDS
;	COMDAT ??_7runtime_error@std@@6B@
CONST	SEGMENT
??_7runtime_error@std@@6B@ DD FLAT:??_R4runtime_error@std@@6B@ ; std::runtime_error::`vftable'
	DD	FLAT:??_Eruntime_error@std@@UAEPAXI@Z
	DD	FLAT:?what@exception@std@@UBEPBDXZ
; Function compile flags: /Odtp /RTCsu
CONST	ENDS
;	COMDAT ??0runtime_error@std@@QAE@PBD@Z
_TEXT	SEGMENT
_this$ = -4						; size = 4
__Message$ = 8						; size = 4
??0runtime_error@std@@QAE@PBD@Z PROC			; std::runtime_error::runtime_error, COMDAT
; _this$ = ecx

; 170  : 		{	// construct from message string

	push	ebp
	mov	ebp, esp
	push	ecx
	mov	DWORD PTR [ebp-4], -858993460		; ccccccccH
	mov	DWORD PTR _this$[ebp], ecx
	lea	eax, DWORD PTR __Message$[ebp]
	push	eax
	mov	ecx, DWORD PTR _this$[ebp]
	call	??0exception@std@@QAE@ABQBD@Z		; std::exception::exception
	mov	ecx, DWORD PTR _this$[ebp]
	mov	DWORD PTR [ecx], OFFSET ??_7runtime_error@std@@6B@

; 171  : 		}

	mov	eax, DWORD PTR _this$[ebp]
	add	esp, 4
	cmp	ebp, esp
	call	__RTC_CheckEsp
	mov	esp, ebp
	pop	ebp
	ret	4
??0runtime_error@std@@QAE@PBD@Z ENDP			; std::runtime_error::runtime_error
_TEXT	ENDS
EXTRN	??3@YAXPAX@Z:PROC				; operator delete
; Function compile flags: /Odtp /RTCsu
;	COMDAT ??_Gruntime_error@std@@UAEPAXI@Z
_TEXT	SEGMENT
_this$ = -4						; size = 4
___flags$ = 8						; size = 4
??_Gruntime_error@std@@UAEPAXI@Z PROC			; std::runtime_error::`scalar deleting destructor', COMDAT
; _this$ = ecx
	push	ebp
	mov	ebp, esp
	push	ecx
	mov	DWORD PTR [ebp-4], -858993460		; ccccccccH
	mov	DWORD PTR _this$[ebp], ecx
	mov	ecx, DWORD PTR _this$[ebp]
	call	??1runtime_error@std@@UAE@XZ
	mov	eax, DWORD PTR ___flags$[ebp]
	and	eax, 1
	je	SHORT $LN1@scalar
	mov	ecx, DWORD PTR _this$[ebp]
	push	ecx
	call	??3@YAXPAX@Z				; operator delete
	add	esp, 4
$LN1@scalar:
	mov	eax, DWORD PTR _this$[ebp]
	add	esp, 4
	cmp	ebp, esp
	call	__RTC_CheckEsp
	mov	esp, ebp
	pop	ebp
	ret	4
??_Gruntime_error@std@@UAEPAXI@Z ENDP			; std::runtime_error::`scalar deleting destructor'
_TEXT	ENDS
EXTRN	??1exception@std@@UAE@XZ:PROC			; std::exception::~exception
; Function compile flags: /Odtp /RTCsu
;	COMDAT ??1runtime_error@std@@UAE@XZ
_TEXT	SEGMENT
_this$ = -4						; size = 4
??1runtime_error@std@@UAE@XZ PROC			; std::runtime_error::~runtime_error, COMDAT
; _this$ = ecx
	push	ebp
	mov	ebp, esp
	push	ecx
	mov	DWORD PTR [ebp-4], -858993460		; ccccccccH
	mov	DWORD PTR _this$[ebp], ecx
	mov	ecx, DWORD PTR _this$[ebp]
	call	??1exception@std@@UAE@XZ		; std::exception::~exception
	add	esp, 4
	cmp	ebp, esp
	call	__RTC_CheckEsp
	mov	esp, ebp
	pop	ebp
	ret	0
??1runtime_error@std@@UAE@XZ ENDP			; std::runtime_error::~runtime_error
; Function compile flags: /Odtp /RTCsu
_TEXT	ENDS
;	COMDAT ??0runtime_error@std@@QAE@ABV01@@Z
_TEXT	SEGMENT
_this$ = -4						; size = 4
___that$ = 8						; size = 4
??0runtime_error@std@@QAE@ABV01@@Z PROC			; std::runtime_error::runtime_error, COMDAT
; _this$ = ecx
	push	ebp
	mov	ebp, esp
	push	ecx
	mov	DWORD PTR [ebp-4], -858993460		; ccccccccH
	mov	DWORD PTR _this$[ebp], ecx
	mov	eax, DWORD PTR ___that$[ebp]
	push	eax
	mov	ecx, DWORD PTR _this$[ebp]
	call	??0exception@std@@QAE@ABV01@@Z		; std::exception::exception
	mov	ecx, DWORD PTR _this$[ebp]
	mov	DWORD PTR [ecx], OFFSET ??_7runtime_error@std@@6B@
	mov	eax, DWORD PTR _this$[ebp]
	add	esp, 4
	cmp	ebp, esp
	call	__RTC_CheckEsp
	mov	esp, ebp
	pop	ebp
	ret	4
??0runtime_error@std@@QAE@ABV01@@Z ENDP			; std::runtime_error::runtime_error
_TEXT	ENDS
PUBLIC	?GetTimeOpponentHasBeenVisible@Raven_SensoryMemory@@QBENPAVAbstRaven_Bot@@@Z ; Raven_SensoryMemory::GetTimeOpponentHasBeenVisible
xdata$x	SEGMENT
__unwindtable$?GetTimeOpponentHasBeenVisible@Raven_SensoryMemory@@QBENPAVAbstRaven_Bot@@@Z DD 0ffffffffH
	DD	FLAT:__unwindfunclet$?GetTimeOpponentHasBeenVisible@Raven_SensoryMemory@@QBENPAVAbstRaven_Bot@@@Z$0
	DD	00H
	DD	FLAT:__unwindfunclet$?GetTimeOpponentHasBeenVisible@Raven_SensoryMemory@@QBENPAVAbstRaven_Bot@@@Z$1
__ehfuncinfo$?GetTimeOpponentHasBeenVisible@Raven_SensoryMemory@@QBENPAVAbstRaven_Bot@@@Z DD 019930522H
	DD	02H
	DD	FLAT:__unwindtable$?GetTimeOpponentHasBeenVisible@Raven_SensoryMemory@@QBENPAVAbstRaven_Bot@@@Z
	DD	2 DUP(00H)
	DD	2 DUP(00H)
	DD	00H
	DD	01H
; Function compile flags: /Odtp /RTCsu
; File c:\users\teaja\documents\artificial-fun\labravenprojecttest\raven\raven_sensorymemory.cpp
xdata$x	ENDS
_TEXT	SEGMENT
tv188 = -92						; size = 8
tv135 = -84						; size = 4
tv160 = -80						; size = 4
tv70 = -76						; size = 4
$T143561 = -72						; size = 4
$T143559 = -68						; size = 8
$T143558 = -60						; size = 8
$T143555 = -52						; size = 12
$T143554 = -37						; size = 1
_it$ = -32						; size = 12
_this$ = -16						; size = 4
__$EHRec$ = -12						; size = 12
_pOpponent$ = 8						; size = 4
?GetTimeOpponentHasBeenVisible@Raven_SensoryMemory@@QBENPAVAbstRaven_Bot@@@Z PROC ; Raven_SensoryMemory::GetTimeOpponentHasBeenVisible
; _this$ = ecx

; 254  : {

	push	ebp
	mov	ebp, esp
	push	-1
	push	__ehhandler$?GetTimeOpponentHasBeenVisible@Raven_SensoryMemory@@QBENPAVAbstRaven_Bot@@@Z
	mov	eax, DWORD PTR fs:0
	push	eax
	sub	esp, 80					; 00000050H
	push	edi
	push	ecx
	lea	edi, DWORD PTR [ebp-92]
	mov	ecx, 20					; 00000014H
	mov	eax, -858993460				; ccccccccH
	rep stosd
	pop	ecx
	mov	eax, DWORD PTR ___security_cookie
	xor	eax, ebp
	push	eax
	lea	eax, DWORD PTR __$EHRec$[ebp]
	mov	DWORD PTR fs:0, eax
	mov	DWORD PTR _this$[ebp], ecx
	mov	DWORD PTR $T143561[ebp], 0

; 255  :   MemoryMap::const_iterator it = m_MemoryMap.find(pOpponent);

	lea	eax, DWORD PTR _pOpponent$[ebp]
	push	eax
	lea	ecx, DWORD PTR _it$[ebp]
	push	ecx
	mov	ecx, DWORD PTR _this$[ebp]
	add	ecx, 4
	call	?find@?$_Tree@V?$_Tmap_traits@PAVAbstRaven_Bot@@VMemoryRecord@@U?$less@PAVAbstRaven_Bot@@@std@@V?$allocator@U?$pair@QAVAbstRaven_Bot@@VMemoryRecord@@@std@@@4@$0A@@std@@@std@@QBE?AV?$_Tree_const_iterator@V?$_Tree_val@V?$_Tmap_traits@PAVAbstRaven_Bot@@VMemoryRecord@@U?$less@PAVAbstRaven_Bot@@@std@@V?$allocator@U?$pair@QAVAbstRaven_Bot@@VMemoryRecord@@@std@@@4@$0A@@std@@@std@@@2@ABQAVAbstRaven_Bot@@@Z ; std::_Tree<std::_Tmap_traits<AbstRaven_Bot *,MemoryRecord,std::less<AbstRaven_Bot *>,std::allocator<std::pair<AbstRaven_Bot * const,MemoryRecord> >,0> >::find
	mov	DWORD PTR __$EHRec$[ebp+8], 0

; 256  :  
; 257  :   if (it != m_MemoryMap.end() && it->second.bWithinFOV)

	lea	edx, DWORD PTR $T143555[ebp]
	push	edx
	mov	ecx, DWORD PTR _this$[ebp]
	add	ecx, 4
	call	?end@?$_Tree@V?$_Tmap_traits@PAVAbstRaven_Bot@@VMemoryRecord@@U?$less@PAVAbstRaven_Bot@@@std@@V?$allocator@U?$pair@QAVAbstRaven_Bot@@VMemoryRecord@@@std@@@4@$0A@@std@@@std@@QBE?AV?$_Tree_const_iterator@V?$_Tree_val@V?$_Tmap_traits@PAVAbstRaven_Bot@@VMemoryRecord@@U?$less@PAVAbstRaven_Bot@@@std@@V?$allocator@U?$pair@QAVAbstRaven_Bot@@VMemoryRecord@@@std@@@4@$0A@@std@@@std@@@2@XZ ; std::_Tree<std::_Tmap_traits<AbstRaven_Bot *,MemoryRecord,std::less<AbstRaven_Bot *>,std::allocator<std::pair<AbstRaven_Bot * const,MemoryRecord> >,0> >::end
	mov	DWORD PTR tv70[ebp], eax
	mov	eax, DWORD PTR tv70[ebp]
	mov	DWORD PTR tv160[ebp], eax
	mov	BYTE PTR __$EHRec$[ebp+8], 1
	mov	ecx, DWORD PTR $T143561[ebp]
	or	ecx, 1
	mov	DWORD PTR $T143561[ebp], ecx
	mov	edx, DWORD PTR tv160[ebp]
	push	edx
	lea	ecx, DWORD PTR _it$[ebp]
	call	??9?$_Tree_const_iterator@V?$_Tree_val@V?$_Tmap_traits@PAVAbstRaven_Bot@@VMemoryRecord@@U?$less@PAVAbstRaven_Bot@@@std@@V?$allocator@U?$pair@QAVAbstRaven_Bot@@VMemoryRecord@@@std@@@4@$0A@@std@@@std@@@std@@QBE_NABV01@@Z ; std::_Tree_const_iterator<std::_Tree_val<std::_Tmap_traits<AbstRaven_Bot *,MemoryRecord,std::less<AbstRaven_Bot *>,std::allocator<std::pair<AbstRaven_Bot * const,MemoryRecord> >,0> > >::operator!=
	movzx	eax, al
	test	eax, eax
	je	SHORT $LN4@GetTimeOpp
	lea	ecx, DWORD PTR _it$[ebp]
	call	??C?$_Tree_unchecked_const_iterator@V?$_Tree_val@V?$_Tmap_traits@PAVAbstRaven_Bot@@VMemoryRecord@@U?$less@PAVAbstRaven_Bot@@@std@@V?$allocator@U?$pair@QAVAbstRaven_Bot@@VMemoryRecord@@@std@@@4@$0A@@std@@@std@@U_Iterator_base12@2@@std@@QBEPBU?$pair@QAVAbstRaven_Bot@@VMemoryRecord@@@1@XZ ; std::_Tree_unchecked_const_iterator<std::_Tree_val<std::_Tmap_traits<AbstRaven_Bot *,MemoryRecord,std::less<AbstRaven_Bot *>,std::allocator<std::pair<AbstRaven_Bot * const,MemoryRecord> >,0> >,std::_Iterator_base12>::operator->
	movzx	ecx, BYTE PTR [eax+48]
	test	ecx, ecx
	je	SHORT $LN4@GetTimeOpp
	mov	DWORD PTR tv135[ebp], 1
	jmp	SHORT $LN5@GetTimeOpp
$LN4@GetTimeOpp:
	mov	DWORD PTR tv135[ebp], 0
$LN5@GetTimeOpp:
	mov	dl, BYTE PTR tv135[ebp]
	mov	BYTE PTR $T143554[ebp], dl
	mov	DWORD PTR __$EHRec$[ebp+8], 0
	mov	eax, DWORD PTR $T143561[ebp]
	and	eax, 1
	je	SHORT $LN9@GetTimeOpp
	and	DWORD PTR $T143561[ebp], -2		; fffffffeH
	lea	ecx, DWORD PTR $T143555[ebp]
	call	??1?$_Tree_const_iterator@V?$_Tree_val@V?$_Tmap_traits@PAVAbstRaven_Bot@@VMemoryRecord@@U?$less@PAVAbstRaven_Bot@@@std@@V?$allocator@U?$pair@QAVAbstRaven_Bot@@VMemoryRecord@@@std@@@4@$0A@@std@@@std@@@std@@QAE@XZ
$LN9@GetTimeOpp:
	movzx	ecx, BYTE PTR $T143554[ebp]
	test	ecx, ecx
	je	SHORT $LN1@GetTimeOpp

; 258  :   {
; 259  :     return Clock->GetCurrentTime() - it->second.fTimeBecameVisible;

	call	?Instance@CrudeTimer@@SAPAV1@XZ		; CrudeTimer::Instance
	mov	ecx, eax
	call	?GetTickCount@CrudeTimer@@QAENXZ	; CrudeTimer::GetTickCount
	lea	ecx, DWORD PTR _it$[ebp]
	fstp	QWORD PTR tv188[ebp]
	call	??C?$_Tree_unchecked_const_iterator@V?$_Tree_val@V?$_Tmap_traits@PAVAbstRaven_Bot@@VMemoryRecord@@U?$less@PAVAbstRaven_Bot@@@std@@V?$allocator@U?$pair@QAVAbstRaven_Bot@@VMemoryRecord@@@std@@@4@$0A@@std@@@std@@U_Iterator_base12@2@@std@@QBEPBU?$pair@QAVAbstRaven_Bot@@VMemoryRecord@@@1@XZ ; std::_Tree_unchecked_const_iterator<std::_Tree_val<std::_Tmap_traits<AbstRaven_Bot *,MemoryRecord,std::less<AbstRaven_Bot *>,std::allocator<std::pair<AbstRaven_Bot * const,MemoryRecord> >,0> >,std::_Iterator_base12>::operator->
	fld	QWORD PTR tv188[ebp]
	fsub	QWORD PTR [eax+16]
	fstp	QWORD PTR $T143558[ebp]
	mov	DWORD PTR __$EHRec$[ebp+8], -1
	lea	ecx, DWORD PTR _it$[ebp]
	call	??1?$_Tree_const_iterator@V?$_Tree_val@V?$_Tmap_traits@PAVAbstRaven_Bot@@VMemoryRecord@@U?$less@PAVAbstRaven_Bot@@@std@@V?$allocator@U?$pair@QAVAbstRaven_Bot@@VMemoryRecord@@@std@@@4@$0A@@std@@@std@@@std@@QAE@XZ
	fld	QWORD PTR $T143558[ebp]
	jmp	SHORT $LN2@GetTimeOpp
$LN1@GetTimeOpp:

; 260  :   }
; 261  : 
; 262  :   return 0;

	fldz
	fstp	QWORD PTR $T143559[ebp]
	mov	DWORD PTR __$EHRec$[ebp+8], -1
	lea	ecx, DWORD PTR _it$[ebp]
	call	??1?$_Tree_const_iterator@V?$_Tree_val@V?$_Tmap_traits@PAVAbstRaven_Bot@@VMemoryRecord@@U?$less@PAVAbstRaven_Bot@@@std@@V?$allocator@U?$pair@QAVAbstRaven_Bot@@VMemoryRecord@@@std@@@4@$0A@@std@@@std@@@std@@QAE@XZ
	fld	QWORD PTR $T143559[ebp]
$LN2@GetTimeOpp:

; 263  : }

	push	edx
	mov	ecx, ebp
	push	eax
	lea	edx, DWORD PTR $LN13@GetTimeOpp
	call	@_RTC_CheckStackVars@8
	pop	eax
	pop	edx
	mov	ecx, DWORD PTR __$EHRec$[ebp]
	mov	DWORD PTR fs:0, ecx
	pop	ecx
	pop	edi
	add	esp, 92					; 0000005cH
	cmp	ebp, esp
	call	__RTC_CheckEsp
	mov	esp, ebp
	pop	ebp
	ret	4
$LN13@GetTimeOpp:
	DD	1
	DD	$LN12@GetTimeOpp
$LN12@GetTimeOpp:
	DD	-32					; ffffffe0H
	DD	12					; 0000000cH
	DD	$LN10@GetTimeOpp
$LN10@GetTimeOpp:
	DB	105					; 00000069H
	DB	116					; 00000074H
	DB	0
_TEXT	ENDS
text$x	SEGMENT
__unwindfunclet$?GetTimeOpponentHasBeenVisible@Raven_SensoryMemory@@QBENPAVAbstRaven_Bot@@@Z$0:
	lea	ecx, DWORD PTR _it$[ebp]
	jmp	??1?$_Tree_const_iterator@V?$_Tree_val@V?$_Tmap_traits@PAVAbstRaven_Bot@@VMemoryRecord@@U?$less@PAVAbstRaven_Bot@@@std@@V?$allocator@U?$pair@QAVAbstRaven_Bot@@VMemoryRecord@@@std@@@4@$0A@@std@@@std@@@std@@QAE@XZ
__unwindfunclet$?GetTimeOpponentHasBeenVisible@Raven_SensoryMemory@@QBENPAVAbstRaven_Bot@@@Z$1:
	mov	eax, DWORD PTR $T143561[ebp]
	and	eax, 1
	je	$LN8@GetTimeOpp
	and	DWORD PTR $T143561[ebp], -2		; fffffffeH
	lea	ecx, DWORD PTR $T143555[ebp]
	jmp	??1?$_Tree_const_iterator@V?$_Tree_val@V?$_Tmap_traits@PAVAbstRaven_Bot@@VMemoryRecord@@U?$less@PAVAbstRaven_Bot@@@std@@V?$allocator@U?$pair@QAVAbstRaven_Bot@@VMemoryRecord@@@std@@@4@$0A@@std@@@std@@@std@@QAE@XZ
$LN8@GetTimeOpp:
	ret	0
__ehhandler$?GetTimeOpponentHasBeenVisible@Raven_SensoryMemory@@QBENPAVAbstRaven_Bot@@@Z:
	mov	edx, DWORD PTR [esp+8]
	lea	eax, DWORD PTR [edx+12]
	mov	ecx, DWORD PTR [edx-88]
	xor	ecx, eax
	call	@__security_check_cookie@4
	mov	eax, OFFSET __ehfuncinfo$?GetTimeOpponentHasBeenVisible@Raven_SensoryMemory@@QBENPAVAbstRaven_Bot@@@Z
	jmp	___CxxFrameHandler3
text$x	ENDS
?GetTimeOpponentHasBeenVisible@Raven_SensoryMemory@@QBENPAVAbstRaven_Bot@@@Z ENDP ; Raven_SensoryMemory::GetTimeOpponentHasBeenVisible
PUBLIC	?GetDamage@Raven_SensoryMemory@@QBEHPAVAbstRaven_Bot@@@Z ; Raven_SensoryMemory::GetDamage
xdata$x	SEGMENT
__unwindtable$?GetDamage@Raven_SensoryMemory@@QBEHPAVAbstRaven_Bot@@@Z DD 0ffffffffH
	DD	FLAT:__unwindfunclet$?GetDamage@Raven_SensoryMemory@@QBEHPAVAbstRaven_Bot@@@Z$0
	DD	00H
	DD	FLAT:__unwindfunclet$?GetDamage@Raven_SensoryMemory@@QBEHPAVAbstRaven_Bot@@@Z$1
__ehfuncinfo$?GetDamage@Raven_SensoryMemory@@QBEHPAVAbstRaven_Bot@@@Z DD 019930522H
	DD	02H
	DD	FLAT:__unwindtable$?GetDamage@Raven_SensoryMemory@@QBEHPAVAbstRaven_Bot@@@Z
	DD	2 DUP(00H)
	DD	2 DUP(00H)
	DD	00H
	DD	01H
; Function compile flags: /Odtp /RTCsu
xdata$x	ENDS
_TEXT	SEGMENT
tv135 = -68						; size = 4
tv70 = -64						; size = 4
$T143576 = -60						; size = 4
$T143575 = -56						; size = 4
$T143574 = -52						; size = 12
$T143573 = -37						; size = 1
_it$ = -32						; size = 12
_this$ = -16						; size = 4
__$EHRec$ = -12						; size = 12
_pOpponent$ = 8						; size = 4
?GetDamage@Raven_SensoryMemory@@QBEHPAVAbstRaven_Bot@@@Z PROC ; Raven_SensoryMemory::GetDamage
; _this$ = ecx

; 266  : {

	push	ebp
	mov	ebp, esp
	push	-1
	push	__ehhandler$?GetDamage@Raven_SensoryMemory@@QBEHPAVAbstRaven_Bot@@@Z
	mov	eax, DWORD PTR fs:0
	push	eax
	sub	esp, 56					; 00000038H
	push	edi
	push	ecx
	lea	edi, DWORD PTR [ebp-68]
	mov	ecx, 14					; 0000000eH
	mov	eax, -858993460				; ccccccccH
	rep stosd
	pop	ecx
	mov	eax, DWORD PTR ___security_cookie
	xor	eax, ebp
	push	eax
	lea	eax, DWORD PTR __$EHRec$[ebp]
	mov	DWORD PTR fs:0, eax
	mov	DWORD PTR _this$[ebp], ecx

; 267  :   MemoryMap::const_iterator it = m_MemoryMap.find(pOpponent);

	lea	eax, DWORD PTR _pOpponent$[ebp]
	push	eax
	lea	ecx, DWORD PTR _it$[ebp]
	push	ecx
	mov	ecx, DWORD PTR _this$[ebp]
	add	ecx, 4
	call	?find@?$_Tree@V?$_Tmap_traits@PAVAbstRaven_Bot@@VMemoryRecord@@U?$less@PAVAbstRaven_Bot@@@std@@V?$allocator@U?$pair@QAVAbstRaven_Bot@@VMemoryRecord@@@std@@@4@$0A@@std@@@std@@QBE?AV?$_Tree_const_iterator@V?$_Tree_val@V?$_Tmap_traits@PAVAbstRaven_Bot@@VMemoryRecord@@U?$less@PAVAbstRaven_Bot@@@std@@V?$allocator@U?$pair@QAVAbstRaven_Bot@@VMemoryRecord@@@std@@@4@$0A@@std@@@std@@@2@ABQAVAbstRaven_Bot@@@Z ; std::_Tree<std::_Tmap_traits<AbstRaven_Bot *,MemoryRecord,std::less<AbstRaven_Bot *>,std::allocator<std::pair<AbstRaven_Bot * const,MemoryRecord> >,0> >::find
	mov	DWORD PTR __$EHRec$[ebp+8], 0

; 268  :  
; 269  :   if (it != m_MemoryMap.end())

	lea	edx, DWORD PTR $T143574[ebp]
	push	edx
	mov	ecx, DWORD PTR _this$[ebp]
	add	ecx, 4
	call	?end@?$_Tree@V?$_Tmap_traits@PAVAbstRaven_Bot@@VMemoryRecord@@U?$less@PAVAbstRaven_Bot@@@std@@V?$allocator@U?$pair@QAVAbstRaven_Bot@@VMemoryRecord@@@std@@@4@$0A@@std@@@std@@QBE?AV?$_Tree_const_iterator@V?$_Tree_val@V?$_Tmap_traits@PAVAbstRaven_Bot@@VMemoryRecord@@U?$less@PAVAbstRaven_Bot@@@std@@V?$allocator@U?$pair@QAVAbstRaven_Bot@@VMemoryRecord@@@std@@@4@$0A@@std@@@std@@@2@XZ ; std::_Tree<std::_Tmap_traits<AbstRaven_Bot *,MemoryRecord,std::less<AbstRaven_Bot *>,std::allocator<std::pair<AbstRaven_Bot * const,MemoryRecord> >,0> >::end
	mov	DWORD PTR tv70[ebp], eax
	mov	eax, DWORD PTR tv70[ebp]
	mov	DWORD PTR tv135[ebp], eax
	mov	BYTE PTR __$EHRec$[ebp+8], 1
	mov	ecx, DWORD PTR tv135[ebp]
	push	ecx
	lea	ecx, DWORD PTR _it$[ebp]
	call	??9?$_Tree_const_iterator@V?$_Tree_val@V?$_Tmap_traits@PAVAbstRaven_Bot@@VMemoryRecord@@U?$less@PAVAbstRaven_Bot@@@std@@V?$allocator@U?$pair@QAVAbstRaven_Bot@@VMemoryRecord@@@std@@@4@$0A@@std@@@std@@@std@@QBE_NABV01@@Z ; std::_Tree_const_iterator<std::_Tree_val<std::_Tmap_traits<AbstRaven_Bot *,MemoryRecord,std::less<AbstRaven_Bot *>,std::allocator<std::pair<AbstRaven_Bot * const,MemoryRecord> >,0> > >::operator!=
	mov	BYTE PTR $T143573[ebp], al
	mov	BYTE PTR __$EHRec$[ebp+8], 0
	lea	ecx, DWORD PTR $T143574[ebp]
	call	??1?$_Tree_const_iterator@V?$_Tree_val@V?$_Tmap_traits@PAVAbstRaven_Bot@@VMemoryRecord@@U?$less@PAVAbstRaven_Bot@@@std@@V?$allocator@U?$pair@QAVAbstRaven_Bot@@VMemoryRecord@@@std@@@4@$0A@@std@@@std@@@std@@QAE@XZ
	movzx	edx, BYTE PTR $T143573[ebp]
	test	edx, edx
	je	SHORT $LN1@GetDamage

; 270  :   {
; 271  :     return it->second.iRecentDamage;

	lea	ecx, DWORD PTR _it$[ebp]
	call	??C?$_Tree_unchecked_const_iterator@V?$_Tree_val@V?$_Tmap_traits@PAVAbstRaven_Bot@@VMemoryRecord@@U?$less@PAVAbstRaven_Bot@@@std@@V?$allocator@U?$pair@QAVAbstRaven_Bot@@VMemoryRecord@@@std@@@4@$0A@@std@@@std@@U_Iterator_base12@2@@std@@QBEPBU?$pair@QAVAbstRaven_Bot@@VMemoryRecord@@@1@XZ ; std::_Tree_unchecked_const_iterator<std::_Tree_val<std::_Tmap_traits<AbstRaven_Bot *,MemoryRecord,std::less<AbstRaven_Bot *>,std::allocator<std::pair<AbstRaven_Bot * const,MemoryRecord> >,0> >,std::_Iterator_base12>::operator->
	mov	eax, DWORD PTR [eax+52]
	mov	DWORD PTR $T143575[ebp], eax
	mov	DWORD PTR __$EHRec$[ebp+8], -1
	lea	ecx, DWORD PTR _it$[ebp]
	call	??1?$_Tree_const_iterator@V?$_Tree_val@V?$_Tmap_traits@PAVAbstRaven_Bot@@VMemoryRecord@@U?$less@PAVAbstRaven_Bot@@@std@@V?$allocator@U?$pair@QAVAbstRaven_Bot@@VMemoryRecord@@@std@@@4@$0A@@std@@@std@@@std@@QAE@XZ
	mov	eax, DWORD PTR $T143575[ebp]
	jmp	SHORT $LN2@GetDamage
$LN1@GetDamage:

; 272  :   }
; 273  : 
; 274  :   return 0;

	mov	DWORD PTR $T143576[ebp], 0
	mov	DWORD PTR __$EHRec$[ebp+8], -1
	lea	ecx, DWORD PTR _it$[ebp]
	call	??1?$_Tree_const_iterator@V?$_Tree_val@V?$_Tmap_traits@PAVAbstRaven_Bot@@VMemoryRecord@@U?$less@PAVAbstRaven_Bot@@@std@@V?$allocator@U?$pair@QAVAbstRaven_Bot@@VMemoryRecord@@@std@@@4@$0A@@std@@@std@@@std@@QAE@XZ
	mov	eax, DWORD PTR $T143576[ebp]
$LN2@GetDamage:

; 275  : }

	push	edx
	mov	ecx, ebp
	push	eax
	lea	edx, DWORD PTR $LN9@GetDamage
	call	@_RTC_CheckStackVars@8
	pop	eax
	pop	edx
	mov	ecx, DWORD PTR __$EHRec$[ebp]
	mov	DWORD PTR fs:0, ecx
	pop	ecx
	pop	edi
	add	esp, 68					; 00000044H
	cmp	ebp, esp
	call	__RTC_CheckEsp
	mov	esp, ebp
	pop	ebp
	ret	4
	npad	1
$LN9@GetDamage:
	DD	1
	DD	$LN8@GetDamage
$LN8@GetDamage:
	DD	-32					; ffffffe0H
	DD	12					; 0000000cH
	DD	$LN6@GetDamage
$LN6@GetDamage:
	DB	105					; 00000069H
	DB	116					; 00000074H
	DB	0
_TEXT	ENDS
text$x	SEGMENT
__unwindfunclet$?GetDamage@Raven_SensoryMemory@@QBEHPAVAbstRaven_Bot@@@Z$0:
	lea	ecx, DWORD PTR _it$[ebp]
	jmp	??1?$_Tree_const_iterator@V?$_Tree_val@V?$_Tmap_traits@PAVAbstRaven_Bot@@VMemoryRecord@@U?$less@PAVAbstRaven_Bot@@@std@@V?$allocator@U?$pair@QAVAbstRaven_Bot@@VMemoryRecord@@@std@@@4@$0A@@std@@@std@@@std@@QAE@XZ
__unwindfunclet$?GetDamage@Raven_SensoryMemory@@QBEHPAVAbstRaven_Bot@@@Z$1:
	lea	ecx, DWORD PTR $T143574[ebp]
	jmp	??1?$_Tree_const_iterator@V?$_Tree_val@V?$_Tmap_traits@PAVAbstRaven_Bot@@VMemoryRecord@@U?$less@PAVAbstRaven_Bot@@@std@@V?$allocator@U?$pair@QAVAbstRaven_Bot@@VMemoryRecord@@@std@@@4@$0A@@std@@@std@@@std@@QAE@XZ
__ehhandler$?GetDamage@Raven_SensoryMemory@@QBEHPAVAbstRaven_Bot@@@Z:
	mov	edx, DWORD PTR [esp+8]
	lea	eax, DWORD PTR [edx+12]
	mov	ecx, DWORD PTR [edx-64]
	xor	ecx, eax
	call	@__security_check_cookie@4
	mov	eax, OFFSET __ehfuncinfo$?GetDamage@Raven_SensoryMemory@@QBEHPAVAbstRaven_Bot@@@Z
	jmp	___CxxFrameHandler3
text$x	ENDS
?GetDamage@Raven_SensoryMemory@@QBEHPAVAbstRaven_Bot@@@Z ENDP ; Raven_SensoryMemory::GetDamage
PUBLIC	?GetTimeOpponentHasBeenOutOfView@Raven_SensoryMemory@@QBENPAVAbstRaven_Bot@@@Z ; Raven_SensoryMemory::GetTimeOpponentHasBeenOutOfView
xdata$x	SEGMENT
__unwindtable$?GetTimeOpponentHasBeenOutOfView@Raven_SensoryMemory@@QBENPAVAbstRaven_Bot@@@Z DD 0ffffffffH
	DD	FLAT:__unwindfunclet$?GetTimeOpponentHasBeenOutOfView@Raven_SensoryMemory@@QBENPAVAbstRaven_Bot@@@Z$0
	DD	00H
	DD	FLAT:__unwindfunclet$?GetTimeOpponentHasBeenOutOfView@Raven_SensoryMemory@@QBENPAVAbstRaven_Bot@@@Z$1
__ehfuncinfo$?GetTimeOpponentHasBeenOutOfView@Raven_SensoryMemory@@QBENPAVAbstRaven_Bot@@@Z DD 019930522H
	DD	02H
	DD	FLAT:__unwindtable$?GetTimeOpponentHasBeenOutOfView@Raven_SensoryMemory@@QBENPAVAbstRaven_Bot@@@Z
	DD	2 DUP(00H)
	DD	2 DUP(00H)
	DD	00H
	DD	01H
; Function compile flags: /Odtp /RTCsu
xdata$x	ENDS
_TEXT	SEGMENT
tv160 = -84						; size = 8
tv139 = -76						; size = 4
tv70 = -72						; size = 4
$T143590 = -68						; size = 8
$T143589 = -60						; size = 8
$T143588 = -52						; size = 12
$T143587 = -37						; size = 1
_it$ = -32						; size = 12
_this$ = -16						; size = 4
__$EHRec$ = -12						; size = 12
_pOpponent$ = 8						; size = 4
?GetTimeOpponentHasBeenOutOfView@Raven_SensoryMemory@@QBENPAVAbstRaven_Bot@@@Z PROC ; Raven_SensoryMemory::GetTimeOpponentHasBeenOutOfView
; _this$ = ecx

; 283  : {

	push	ebp
	mov	ebp, esp
	push	-1
	push	__ehhandler$?GetTimeOpponentHasBeenOutOfView@Raven_SensoryMemory@@QBENPAVAbstRaven_Bot@@@Z
	mov	eax, DWORD PTR fs:0
	push	eax
	sub	esp, 72					; 00000048H
	push	edi
	push	ecx
	lea	edi, DWORD PTR [ebp-84]
	mov	ecx, 18					; 00000012H
	mov	eax, -858993460				; ccccccccH
	rep stosd
	pop	ecx
	mov	eax, DWORD PTR ___security_cookie
	xor	eax, ebp
	push	eax
	lea	eax, DWORD PTR __$EHRec$[ebp]
	mov	DWORD PTR fs:0, eax
	mov	DWORD PTR _this$[ebp], ecx

; 284  :   MemoryMap::const_iterator it = m_MemoryMap.find(pOpponent);

	lea	eax, DWORD PTR _pOpponent$[ebp]
	push	eax
	lea	ecx, DWORD PTR _it$[ebp]
	push	ecx
	mov	ecx, DWORD PTR _this$[ebp]
	add	ecx, 4
	call	?find@?$_Tree@V?$_Tmap_traits@PAVAbstRaven_Bot@@VMemoryRecord@@U?$less@PAVAbstRaven_Bot@@@std@@V?$allocator@U?$pair@QAVAbstRaven_Bot@@VMemoryRecord@@@std@@@4@$0A@@std@@@std@@QBE?AV?$_Tree_const_iterator@V?$_Tree_val@V?$_Tmap_traits@PAVAbstRaven_Bot@@VMemoryRecord@@U?$less@PAVAbstRaven_Bot@@@std@@V?$allocator@U?$pair@QAVAbstRaven_Bot@@VMemoryRecord@@@std@@@4@$0A@@std@@@std@@@2@ABQAVAbstRaven_Bot@@@Z ; std::_Tree<std::_Tmap_traits<AbstRaven_Bot *,MemoryRecord,std::less<AbstRaven_Bot *>,std::allocator<std::pair<AbstRaven_Bot * const,MemoryRecord> >,0> >::find
	mov	DWORD PTR __$EHRec$[ebp+8], 0

; 285  :  
; 286  :   if (it != m_MemoryMap.end())

	lea	edx, DWORD PTR $T143588[ebp]
	push	edx
	mov	ecx, DWORD PTR _this$[ebp]
	add	ecx, 4
	call	?end@?$_Tree@V?$_Tmap_traits@PAVAbstRaven_Bot@@VMemoryRecord@@U?$less@PAVAbstRaven_Bot@@@std@@V?$allocator@U?$pair@QAVAbstRaven_Bot@@VMemoryRecord@@@std@@@4@$0A@@std@@@std@@QBE?AV?$_Tree_const_iterator@V?$_Tree_val@V?$_Tmap_traits@PAVAbstRaven_Bot@@VMemoryRecord@@U?$less@PAVAbstRaven_Bot@@@std@@V?$allocator@U?$pair@QAVAbstRaven_Bot@@VMemoryRecord@@@std@@@4@$0A@@std@@@std@@@2@XZ ; std::_Tree<std::_Tmap_traits<AbstRaven_Bot *,MemoryRecord,std::less<AbstRaven_Bot *>,std::allocator<std::pair<AbstRaven_Bot * const,MemoryRecord> >,0> >::end
	mov	DWORD PTR tv70[ebp], eax
	mov	eax, DWORD PTR tv70[ebp]
	mov	DWORD PTR tv139[ebp], eax
	mov	BYTE PTR __$EHRec$[ebp+8], 1
	mov	ecx, DWORD PTR tv139[ebp]
	push	ecx
	lea	ecx, DWORD PTR _it$[ebp]
	call	??9?$_Tree_const_iterator@V?$_Tree_val@V?$_Tmap_traits@PAVAbstRaven_Bot@@VMemoryRecord@@U?$less@PAVAbstRaven_Bot@@@std@@V?$allocator@U?$pair@QAVAbstRaven_Bot@@VMemoryRecord@@@std@@@4@$0A@@std@@@std@@@std@@QBE_NABV01@@Z ; std::_Tree_const_iterator<std::_Tree_val<std::_Tmap_traits<AbstRaven_Bot *,MemoryRecord,std::less<AbstRaven_Bot *>,std::allocator<std::pair<AbstRaven_Bot * const,MemoryRecord> >,0> > >::operator!=
	mov	BYTE PTR $T143587[ebp], al
	mov	BYTE PTR __$EHRec$[ebp+8], 0
	lea	ecx, DWORD PTR $T143588[ebp]
	call	??1?$_Tree_const_iterator@V?$_Tree_val@V?$_Tmap_traits@PAVAbstRaven_Bot@@VMemoryRecord@@U?$less@PAVAbstRaven_Bot@@@std@@V?$allocator@U?$pair@QAVAbstRaven_Bot@@VMemoryRecord@@@std@@@4@$0A@@std@@@std@@@std@@QAE@XZ
	movzx	edx, BYTE PTR $T143587[ebp]
	test	edx, edx
	je	SHORT $LN1@GetTimeOpp@2

; 287  :   {
; 288  :     return Clock->GetCurrentTime() - it->second.fTimeLastVisible;

	call	?Instance@CrudeTimer@@SAPAV1@XZ		; CrudeTimer::Instance
	mov	ecx, eax
	call	?GetTickCount@CrudeTimer@@QAENXZ	; CrudeTimer::GetTickCount
	lea	ecx, DWORD PTR _it$[ebp]
	fstp	QWORD PTR tv160[ebp]
	call	??C?$_Tree_unchecked_const_iterator@V?$_Tree_val@V?$_Tmap_traits@PAVAbstRaven_Bot@@VMemoryRecord@@U?$less@PAVAbstRaven_Bot@@@std@@V?$allocator@U?$pair@QAVAbstRaven_Bot@@VMemoryRecord@@@std@@@4@$0A@@std@@@std@@U_Iterator_base12@2@@std@@QBEPBU?$pair@QAVAbstRaven_Bot@@VMemoryRecord@@@1@XZ ; std::_Tree_unchecked_const_iterator<std::_Tree_val<std::_Tmap_traits<AbstRaven_Bot *,MemoryRecord,std::less<AbstRaven_Bot *>,std::allocator<std::pair<AbstRaven_Bot * const,MemoryRecord> >,0> >,std::_Iterator_base12>::operator->
	fld	QWORD PTR tv160[ebp]
	fsub	QWORD PTR [eax+24]
	fstp	QWORD PTR $T143589[ebp]
	mov	DWORD PTR __$EHRec$[ebp+8], -1
	lea	ecx, DWORD PTR _it$[ebp]
	call	??1?$_Tree_const_iterator@V?$_Tree_val@V?$_Tmap_traits@PAVAbstRaven_Bot@@VMemoryRecord@@U?$less@PAVAbstRaven_Bot@@@std@@V?$allocator@U?$pair@QAVAbstRaven_Bot@@VMemoryRecord@@@std@@@4@$0A@@std@@@std@@@std@@QAE@XZ
	fld	QWORD PTR $T143589[ebp]
	jmp	SHORT $LN2@GetTimeOpp@2
$LN1@GetTimeOpp@2:

; 289  :   }
; 290  : 
; 291  :   return MaxDouble;

	fld	QWORD PTR _MaxDouble
	fstp	QWORD PTR $T143590[ebp]
	mov	DWORD PTR __$EHRec$[ebp+8], -1
	lea	ecx, DWORD PTR _it$[ebp]
	call	??1?$_Tree_const_iterator@V?$_Tree_val@V?$_Tmap_traits@PAVAbstRaven_Bot@@VMemoryRecord@@U?$less@PAVAbstRaven_Bot@@@std@@V?$allocator@U?$pair@QAVAbstRaven_Bot@@VMemoryRecord@@@std@@@4@$0A@@std@@@std@@@std@@QAE@XZ
	fld	QWORD PTR $T143590[ebp]
$LN2@GetTimeOpp@2:

; 292  : }

	push	edx
	mov	ecx, ebp
	push	eax
	lea	edx, DWORD PTR $LN9@GetTimeOpp@2
	call	@_RTC_CheckStackVars@8
	pop	eax
	pop	edx
	mov	ecx, DWORD PTR __$EHRec$[ebp]
	mov	DWORD PTR fs:0, ecx
	pop	ecx
	pop	edi
	add	esp, 84					; 00000054H
	cmp	ebp, esp
	call	__RTC_CheckEsp
	mov	esp, ebp
	pop	ebp
	ret	4
	npad	1
$LN9@GetTimeOpp@2:
	DD	1
	DD	$LN8@GetTimeOpp@2
$LN8@GetTimeOpp@2:
	DD	-32					; ffffffe0H
	DD	12					; 0000000cH
	DD	$LN6@GetTimeOpp@2
$LN6@GetTimeOpp@2:
	DB	105					; 00000069H
	DB	116					; 00000074H
	DB	0
_TEXT	ENDS
text$x	SEGMENT
__unwindfunclet$?GetTimeOpponentHasBeenOutOfView@Raven_SensoryMemory@@QBENPAVAbstRaven_Bot@@@Z$0:
	lea	ecx, DWORD PTR _it$[ebp]
	jmp	??1?$_Tree_const_iterator@V?$_Tree_val@V?$_Tmap_traits@PAVAbstRaven_Bot@@VMemoryRecord@@U?$less@PAVAbstRaven_Bot@@@std@@V?$allocator@U?$pair@QAVAbstRaven_Bot@@VMemoryRecord@@@std@@@4@$0A@@std@@@std@@@std@@QAE@XZ
__unwindfunclet$?GetTimeOpponentHasBeenOutOfView@Raven_SensoryMemory@@QBENPAVAbstRaven_Bot@@@Z$1:
	lea	ecx, DWORD PTR $T143588[ebp]
	jmp	??1?$_Tree_const_iterator@V?$_Tree_val@V?$_Tmap_traits@PAVAbstRaven_Bot@@VMemoryRecord@@U?$less@PAVAbstRaven_Bot@@@std@@V?$allocator@U?$pair@QAVAbstRaven_Bot@@VMemoryRecord@@@std@@@4@$0A@@std@@@std@@@std@@QAE@XZ
__ehhandler$?GetTimeOpponentHasBeenOutOfView@Raven_SensoryMemory@@QBENPAVAbstRaven_Bot@@@Z:
	mov	edx, DWORD PTR [esp+8]
	lea	eax, DWORD PTR [edx+12]
	mov	ecx, DWORD PTR [edx-80]
	xor	ecx, eax
	call	@__security_check_cookie@4
	mov	eax, OFFSET __ehfuncinfo$?GetTimeOpponentHasBeenOutOfView@Raven_SensoryMemory@@QBENPAVAbstRaven_Bot@@@Z
	jmp	___CxxFrameHandler3
text$x	ENDS
?GetTimeOpponentHasBeenOutOfView@Raven_SensoryMemory@@QBENPAVAbstRaven_Bot@@@Z ENDP ; Raven_SensoryMemory::GetTimeOpponentHasBeenOutOfView
PUBLIC	?GetTimeSinceLastSensed@Raven_SensoryMemory@@QBENPAVAbstRaven_Bot@@@Z ; Raven_SensoryMemory::GetTimeSinceLastSensed
xdata$x	SEGMENT
__unwindtable$?GetTimeSinceLastSensed@Raven_SensoryMemory@@QBENPAVAbstRaven_Bot@@@Z DD 0ffffffffH
	DD	FLAT:__unwindfunclet$?GetTimeSinceLastSensed@Raven_SensoryMemory@@QBENPAVAbstRaven_Bot@@@Z$0
	DD	00H
	DD	FLAT:__unwindfunclet$?GetTimeSinceLastSensed@Raven_SensoryMemory@@QBENPAVAbstRaven_Bot@@@Z$1
__ehfuncinfo$?GetTimeSinceLastSensed@Raven_SensoryMemory@@QBENPAVAbstRaven_Bot@@@Z DD 019930522H
	DD	02H
	DD	FLAT:__unwindtable$?GetTimeSinceLastSensed@Raven_SensoryMemory@@QBENPAVAbstRaven_Bot@@@Z
	DD	2 DUP(00H)
	DD	2 DUP(00H)
	DD	00H
	DD	01H
; Function compile flags: /Odtp /RTCsu
xdata$x	ENDS
_TEXT	SEGMENT
tv188 = -92						; size = 8
tv135 = -84						; size = 4
tv160 = -80						; size = 4
tv70 = -76						; size = 4
$T143608 = -72						; size = 4
$T143606 = -68						; size = 8
$T143605 = -60						; size = 8
$T143602 = -52						; size = 12
$T143601 = -37						; size = 1
_it$ = -32						; size = 12
_this$ = -16						; size = 4
__$EHRec$ = -12						; size = 12
_pOpponent$ = 8						; size = 4
?GetTimeSinceLastSensed@Raven_SensoryMemory@@QBENPAVAbstRaven_Bot@@@Z PROC ; Raven_SensoryMemory::GetTimeSinceLastSensed
; _this$ = ecx

; 299  : {

	push	ebp
	mov	ebp, esp
	push	-1
	push	__ehhandler$?GetTimeSinceLastSensed@Raven_SensoryMemory@@QBENPAVAbstRaven_Bot@@@Z
	mov	eax, DWORD PTR fs:0
	push	eax
	sub	esp, 80					; 00000050H
	push	edi
	push	ecx
	lea	edi, DWORD PTR [ebp-92]
	mov	ecx, 20					; 00000014H
	mov	eax, -858993460				; ccccccccH
	rep stosd
	pop	ecx
	mov	eax, DWORD PTR ___security_cookie
	xor	eax, ebp
	push	eax
	lea	eax, DWORD PTR __$EHRec$[ebp]
	mov	DWORD PTR fs:0, eax
	mov	DWORD PTR _this$[ebp], ecx
	mov	DWORD PTR $T143608[ebp], 0

; 300  :   MemoryMap::const_iterator it = m_MemoryMap.find(pOpponent);

	lea	eax, DWORD PTR _pOpponent$[ebp]
	push	eax
	lea	ecx, DWORD PTR _it$[ebp]
	push	ecx
	mov	ecx, DWORD PTR _this$[ebp]
	add	ecx, 4
	call	?find@?$_Tree@V?$_Tmap_traits@PAVAbstRaven_Bot@@VMemoryRecord@@U?$less@PAVAbstRaven_Bot@@@std@@V?$allocator@U?$pair@QAVAbstRaven_Bot@@VMemoryRecord@@@std@@@4@$0A@@std@@@std@@QBE?AV?$_Tree_const_iterator@V?$_Tree_val@V?$_Tmap_traits@PAVAbstRaven_Bot@@VMemoryRecord@@U?$less@PAVAbstRaven_Bot@@@std@@V?$allocator@U?$pair@QAVAbstRaven_Bot@@VMemoryRecord@@@std@@@4@$0A@@std@@@std@@@2@ABQAVAbstRaven_Bot@@@Z ; std::_Tree<std::_Tmap_traits<AbstRaven_Bot *,MemoryRecord,std::less<AbstRaven_Bot *>,std::allocator<std::pair<AbstRaven_Bot * const,MemoryRecord> >,0> >::find
	mov	DWORD PTR __$EHRec$[ebp+8], 0

; 301  :  
; 302  :   if (it != m_MemoryMap.end() && it->second.bWithinFOV)

	lea	edx, DWORD PTR $T143602[ebp]
	push	edx
	mov	ecx, DWORD PTR _this$[ebp]
	add	ecx, 4
	call	?end@?$_Tree@V?$_Tmap_traits@PAVAbstRaven_Bot@@VMemoryRecord@@U?$less@PAVAbstRaven_Bot@@@std@@V?$allocator@U?$pair@QAVAbstRaven_Bot@@VMemoryRecord@@@std@@@4@$0A@@std@@@std@@QBE?AV?$_Tree_const_iterator@V?$_Tree_val@V?$_Tmap_traits@PAVAbstRaven_Bot@@VMemoryRecord@@U?$less@PAVAbstRaven_Bot@@@std@@V?$allocator@U?$pair@QAVAbstRaven_Bot@@VMemoryRecord@@@std@@@4@$0A@@std@@@std@@@2@XZ ; std::_Tree<std::_Tmap_traits<AbstRaven_Bot *,MemoryRecord,std::less<AbstRaven_Bot *>,std::allocator<std::pair<AbstRaven_Bot * const,MemoryRecord> >,0> >::end
	mov	DWORD PTR tv70[ebp], eax
	mov	eax, DWORD PTR tv70[ebp]
	mov	DWORD PTR tv160[ebp], eax
	mov	BYTE PTR __$EHRec$[ebp+8], 1
	mov	ecx, DWORD PTR $T143608[ebp]
	or	ecx, 1
	mov	DWORD PTR $T143608[ebp], ecx
	mov	edx, DWORD PTR tv160[ebp]
	push	edx
	lea	ecx, DWORD PTR _it$[ebp]
	call	??9?$_Tree_const_iterator@V?$_Tree_val@V?$_Tmap_traits@PAVAbstRaven_Bot@@VMemoryRecord@@U?$less@PAVAbstRaven_Bot@@@std@@V?$allocator@U?$pair@QAVAbstRaven_Bot@@VMemoryRecord@@@std@@@4@$0A@@std@@@std@@@std@@QBE_NABV01@@Z ; std::_Tree_const_iterator<std::_Tree_val<std::_Tmap_traits<AbstRaven_Bot *,MemoryRecord,std::less<AbstRaven_Bot *>,std::allocator<std::pair<AbstRaven_Bot * const,MemoryRecord> >,0> > >::operator!=
	movzx	eax, al
	test	eax, eax
	je	SHORT $LN4@GetTimeSin
	lea	ecx, DWORD PTR _it$[ebp]
	call	??C?$_Tree_unchecked_const_iterator@V?$_Tree_val@V?$_Tmap_traits@PAVAbstRaven_Bot@@VMemoryRecord@@U?$less@PAVAbstRaven_Bot@@@std@@V?$allocator@U?$pair@QAVAbstRaven_Bot@@VMemoryRecord@@@std@@@4@$0A@@std@@@std@@U_Iterator_base12@2@@std@@QBEPBU?$pair@QAVAbstRaven_Bot@@VMemoryRecord@@@1@XZ ; std::_Tree_unchecked_const_iterator<std::_Tree_val<std::_Tmap_traits<AbstRaven_Bot *,MemoryRecord,std::less<AbstRaven_Bot *>,std::allocator<std::pair<AbstRaven_Bot * const,MemoryRecord> >,0> >,std::_Iterator_base12>::operator->
	movzx	ecx, BYTE PTR [eax+48]
	test	ecx, ecx
	je	SHORT $LN4@GetTimeSin
	mov	DWORD PTR tv135[ebp], 1
	jmp	SHORT $LN5@GetTimeSin
$LN4@GetTimeSin:
	mov	DWORD PTR tv135[ebp], 0
$LN5@GetTimeSin:
	mov	dl, BYTE PTR tv135[ebp]
	mov	BYTE PTR $T143601[ebp], dl
	mov	DWORD PTR __$EHRec$[ebp+8], 0
	mov	eax, DWORD PTR $T143608[ebp]
	and	eax, 1
	je	SHORT $LN9@GetTimeSin
	and	DWORD PTR $T143608[ebp], -2		; fffffffeH
	lea	ecx, DWORD PTR $T143602[ebp]
	call	??1?$_Tree_const_iterator@V?$_Tree_val@V?$_Tmap_traits@PAVAbstRaven_Bot@@VMemoryRecord@@U?$less@PAVAbstRaven_Bot@@@std@@V?$allocator@U?$pair@QAVAbstRaven_Bot@@VMemoryRecord@@@std@@@4@$0A@@std@@@std@@@std@@QAE@XZ
$LN9@GetTimeSin:
	movzx	ecx, BYTE PTR $T143601[ebp]
	test	ecx, ecx
	je	SHORT $LN1@GetTimeSin

; 303  :   {
; 304  :     return Clock->GetCurrentTime() - it->second.fTimeLastSensed;

	call	?Instance@CrudeTimer@@SAPAV1@XZ		; CrudeTimer::Instance
	mov	ecx, eax
	call	?GetTickCount@CrudeTimer@@QAENXZ	; CrudeTimer::GetTickCount
	lea	ecx, DWORD PTR _it$[ebp]
	fstp	QWORD PTR tv188[ebp]
	call	??C?$_Tree_unchecked_const_iterator@V?$_Tree_val@V?$_Tmap_traits@PAVAbstRaven_Bot@@VMemoryRecord@@U?$less@PAVAbstRaven_Bot@@@std@@V?$allocator@U?$pair@QAVAbstRaven_Bot@@VMemoryRecord@@@std@@@4@$0A@@std@@@std@@U_Iterator_base12@2@@std@@QBEPBU?$pair@QAVAbstRaven_Bot@@VMemoryRecord@@@1@XZ ; std::_Tree_unchecked_const_iterator<std::_Tree_val<std::_Tmap_traits<AbstRaven_Bot *,MemoryRecord,std::less<AbstRaven_Bot *>,std::allocator<std::pair<AbstRaven_Bot * const,MemoryRecord> >,0> >,std::_Iterator_base12>::operator->
	fld	QWORD PTR tv188[ebp]
	fsub	QWORD PTR [eax+8]
	fstp	QWORD PTR $T143605[ebp]
	mov	DWORD PTR __$EHRec$[ebp+8], -1
	lea	ecx, DWORD PTR _it$[ebp]
	call	??1?$_Tree_const_iterator@V?$_Tree_val@V?$_Tmap_traits@PAVAbstRaven_Bot@@VMemoryRecord@@U?$less@PAVAbstRaven_Bot@@@std@@V?$allocator@U?$pair@QAVAbstRaven_Bot@@VMemoryRecord@@@std@@@4@$0A@@std@@@std@@@std@@QAE@XZ
	fld	QWORD PTR $T143605[ebp]
	jmp	SHORT $LN2@GetTimeSin
$LN1@GetTimeSin:

; 305  :   }
; 306  : 
; 307  :   return 0;

	fldz
	fstp	QWORD PTR $T143606[ebp]
	mov	DWORD PTR __$EHRec$[ebp+8], -1
	lea	ecx, DWORD PTR _it$[ebp]
	call	??1?$_Tree_const_iterator@V?$_Tree_val@V?$_Tmap_traits@PAVAbstRaven_Bot@@VMemoryRecord@@U?$less@PAVAbstRaven_Bot@@@std@@V?$allocator@U?$pair@QAVAbstRaven_Bot@@VMemoryRecord@@@std@@@4@$0A@@std@@@std@@@std@@QAE@XZ
	fld	QWORD PTR $T143606[ebp]
$LN2@GetTimeSin:

; 308  : }

	push	edx
	mov	ecx, ebp
	push	eax
	lea	edx, DWORD PTR $LN13@GetTimeSin
	call	@_RTC_CheckStackVars@8
	pop	eax
	pop	edx
	mov	ecx, DWORD PTR __$EHRec$[ebp]
	mov	DWORD PTR fs:0, ecx
	pop	ecx
	pop	edi
	add	esp, 92					; 0000005cH
	cmp	ebp, esp
	call	__RTC_CheckEsp
	mov	esp, ebp
	pop	ebp
	ret	4
$LN13@GetTimeSin:
	DD	1
	DD	$LN12@GetTimeSin
$LN12@GetTimeSin:
	DD	-32					; ffffffe0H
	DD	12					; 0000000cH
	DD	$LN10@GetTimeSin
$LN10@GetTimeSin:
	DB	105					; 00000069H
	DB	116					; 00000074H
	DB	0
_TEXT	ENDS
text$x	SEGMENT
__unwindfunclet$?GetTimeSinceLastSensed@Raven_SensoryMemory@@QBENPAVAbstRaven_Bot@@@Z$0:
	lea	ecx, DWORD PTR _it$[ebp]
	jmp	??1?$_Tree_const_iterator@V?$_Tree_val@V?$_Tmap_traits@PAVAbstRaven_Bot@@VMemoryRecord@@U?$less@PAVAbstRaven_Bot@@@std@@V?$allocator@U?$pair@QAVAbstRaven_Bot@@VMemoryRecord@@@std@@@4@$0A@@std@@@std@@@std@@QAE@XZ
__unwindfunclet$?GetTimeSinceLastSensed@Raven_SensoryMemory@@QBENPAVAbstRaven_Bot@@@Z$1:
	mov	eax, DWORD PTR $T143608[ebp]
	and	eax, 1
	je	$LN8@GetTimeSin
	and	DWORD PTR $T143608[ebp], -2		; fffffffeH
	lea	ecx, DWORD PTR $T143602[ebp]
	jmp	??1?$_Tree_const_iterator@V?$_Tree_val@V?$_Tmap_traits@PAVAbstRaven_Bot@@VMemoryRecord@@U?$less@PAVAbstRaven_Bot@@@std@@V?$allocator@U?$pair@QAVAbstRaven_Bot@@VMemoryRecord@@@std@@@4@$0A@@std@@@std@@@std@@QAE@XZ
$LN8@GetTimeSin:
	ret	0
__ehhandler$?GetTimeSinceLastSensed@Raven_SensoryMemory@@QBENPAVAbstRaven_Bot@@@Z:
	mov	edx, DWORD PTR [esp+8]
	lea	eax, DWORD PTR [edx+12]
	mov	ecx, DWORD PTR [edx-88]
	xor	ecx, eax
	call	@__security_check_cookie@4
	mov	eax, OFFSET __ehfuncinfo$?GetTimeSinceLastSensed@Raven_SensoryMemory@@QBENPAVAbstRaven_Bot@@@Z
	jmp	___CxxFrameHandler3
text$x	ENDS
?GetTimeSinceLastSensed@Raven_SensoryMemory@@QBENPAVAbstRaven_Bot@@@Z ENDP ; Raven_SensoryMemory::GetTimeSinceLastSensed
PUBLIC	?Line@Cgdi@@QAEXNNNN@Z				; Cgdi::Line
PUBLIC	?BRadius@BaseGameEntity@@QBENXZ			; BaseGameEntity::BRadius
PUBLIC	?OrangePen@Cgdi@@QAEXXZ				; Cgdi::OrangePen
PUBLIC	?end@?$list@PAVAbstRaven_Bot@@V?$allocator@PAVAbstRaven_Bot@@@std@@@std@@QAE?AV?$_List_iterator@V?$_List_val@PAVAbstRaven_Bot@@V?$allocator@PAVAbstRaven_Bot@@@std@@@std@@@2@XZ ; std::list<AbstRaven_Bot *,std::allocator<AbstRaven_Bot *> >::end
PUBLIC	??1?$_List_iterator@V?$_List_val@PAVAbstRaven_Bot@@V?$allocator@PAVAbstRaven_Bot@@@std@@@std@@@std@@QAE@XZ ; std::_List_iterator<std::_List_val<AbstRaven_Bot *,std::allocator<AbstRaven_Bot *> > >::~_List_iterator<std::_List_val<AbstRaven_Bot *,std::allocator<AbstRaven_Bot *> > >
PUBLIC	?begin@?$list@PAVAbstRaven_Bot@@V?$allocator@PAVAbstRaven_Bot@@@std@@@std@@QAE?AV?$_List_iterator@V?$_List_val@PAVAbstRaven_Bot@@V?$allocator@PAVAbstRaven_Bot@@@std@@@std@@@2@XZ ; std::list<AbstRaven_Bot *,std::allocator<AbstRaven_Bot *> >::begin
PUBLIC	?RenderBoxesAroundRecentlySensed@Raven_SensoryMemory@@QBEXXZ ; Raven_SensoryMemory::RenderBoxesAroundRecentlySensed
EXTRN	?Instance@Cgdi@@SAPAV1@XZ:PROC			; Cgdi::Instance
xdata$x	SEGMENT
__unwindtable$?RenderBoxesAroundRecentlySensed@Raven_SensoryMemory@@QBEXXZ DD 0ffffffffH
	DD	FLAT:__unwindfunclet$?RenderBoxesAroundRecentlySensed@Raven_SensoryMemory@@QBEXXZ$0
	DD	00H
	DD	FLAT:__unwindfunclet$?RenderBoxesAroundRecentlySensed@Raven_SensoryMemory@@QBEXXZ$1
	DD	01H
	DD	FLAT:__unwindfunclet$?RenderBoxesAroundRecentlySensed@Raven_SensoryMemory@@QBEXXZ$2
	DD	01H
	DD	FLAT:__unwindfunclet$?RenderBoxesAroundRecentlySensed@Raven_SensoryMemory@@QBEXXZ$3
__ehfuncinfo$?RenderBoxesAroundRecentlySensed@Raven_SensoryMemory@@QBEXXZ DD 019930522H
	DD	04H
	DD	FLAT:__unwindtable$?RenderBoxesAroundRecentlySensed@Raven_SensoryMemory@@QBEXXZ
	DD	2 DUP(00H)
	DD	2 DUP(00H)
	DD	00H
	DD	01H
; Function compile flags: /Odtp /RTCsu
xdata$x	ENDS
_TEXT	SEGMENT
tv192 = -136						; size = 4
tv65 = -132						; size = 4
tv190 = -128						; size = 4
tv69 = -124						; size = 4
$T143622 = -120						; size = 12
$T143621 = -105						; size = 1
$T143620 = -104						; size = 12
_b$134183 = -92						; size = 8
_p$134181 = -80						; size = 16
_it$ = -56						; size = 12
_opponents$ = -36					; size = 16
_this$ = -16						; size = 4
__$EHRec$ = -12						; size = 12
?RenderBoxesAroundRecentlySensed@Raven_SensoryMemory@@QBEXXZ PROC ; Raven_SensoryMemory::RenderBoxesAroundRecentlySensed
; _this$ = ecx

; 315  : {

	push	ebp
	mov	ebp, esp
	push	-1
	push	__ehhandler$?RenderBoxesAroundRecentlySensed@Raven_SensoryMemory@@QBEXXZ
	mov	eax, DWORD PTR fs:0
	push	eax
	sub	esp, 124				; 0000007cH
	push	edi
	push	ecx
	lea	edi, DWORD PTR [ebp-136]
	mov	ecx, 31					; 0000001fH
	mov	eax, -858993460				; ccccccccH
	rep stosd
	pop	ecx
	mov	eax, DWORD PTR ___security_cookie
	xor	eax, ebp
	push	eax
	lea	eax, DWORD PTR __$EHRec$[ebp]
	mov	DWORD PTR fs:0, eax
	mov	DWORD PTR _this$[ebp], ecx

; 316  :   std::list<AbstRaven_Bot*> opponents = GetListOfRecentlySensedOpponents();

	lea	eax, DWORD PTR _opponents$[ebp]
	push	eax
	mov	ecx, DWORD PTR _this$[ebp]
	call	?GetListOfRecentlySensedOpponents@Raven_SensoryMemory@@QBE?AV?$list@PAVAbstRaven_Bot@@V?$allocator@PAVAbstRaven_Bot@@@std@@@std@@XZ ; Raven_SensoryMemory::GetListOfRecentlySensedOpponents
	mov	DWORD PTR __$EHRec$[ebp+8], 0

; 317  :   std::list<AbstRaven_Bot*>::const_iterator it;

	lea	ecx, DWORD PTR _it$[ebp]
	call	??0?$_List_const_iterator@V?$_List_val@PAVAbstRaven_Bot@@V?$allocator@PAVAbstRaven_Bot@@@std@@@std@@@std@@QAE@XZ ; std::_List_const_iterator<std::_List_val<AbstRaven_Bot *,std::allocator<AbstRaven_Bot *> > >::_List_const_iterator<std::_List_val<AbstRaven_Bot *,std::allocator<AbstRaven_Bot *> > >
	mov	BYTE PTR __$EHRec$[ebp+8], 1

; 318  :   for (it = opponents.begin(); it != opponents.end(); ++it)

	lea	ecx, DWORD PTR $T143620[ebp]
	push	ecx
	lea	ecx, DWORD PTR _opponents$[ebp]
	call	?begin@?$list@PAVAbstRaven_Bot@@V?$allocator@PAVAbstRaven_Bot@@@std@@@std@@QAE?AV?$_List_iterator@V?$_List_val@PAVAbstRaven_Bot@@V?$allocator@PAVAbstRaven_Bot@@@std@@@std@@@2@XZ ; std::list<AbstRaven_Bot *,std::allocator<AbstRaven_Bot *> >::begin
	mov	DWORD PTR tv69[ebp], eax
	mov	edx, DWORD PTR tv69[ebp]
	mov	DWORD PTR tv190[ebp], edx
	mov	BYTE PTR __$EHRec$[ebp+8], 2
	mov	eax, DWORD PTR tv190[ebp]
	push	eax
	lea	ecx, DWORD PTR _it$[ebp]
	call	??4?$_List_const_iterator@V?$_List_val@PAVAbstRaven_Bot@@V?$allocator@PAVAbstRaven_Bot@@@std@@@std@@@std@@QAEAAV01@ABV01@@Z
	mov	BYTE PTR __$EHRec$[ebp+8], 1
	lea	ecx, DWORD PTR $T143620[ebp]
	call	??1?$_List_iterator@V?$_List_val@PAVAbstRaven_Bot@@V?$allocator@PAVAbstRaven_Bot@@@std@@@std@@@std@@QAE@XZ
	jmp	SHORT $LN3@RenderBoxe
$LN2@RenderBoxe:
	lea	ecx, DWORD PTR _it$[ebp]
	call	??E?$_List_const_iterator@V?$_List_val@PAVAbstRaven_Bot@@V?$allocator@PAVAbstRaven_Bot@@@std@@@std@@@std@@QAEAAV01@XZ ; std::_List_const_iterator<std::_List_val<AbstRaven_Bot *,std::allocator<AbstRaven_Bot *> > >::operator++
$LN3@RenderBoxe:
	lea	ecx, DWORD PTR $T143622[ebp]
	push	ecx
	lea	ecx, DWORD PTR _opponents$[ebp]
	call	?end@?$list@PAVAbstRaven_Bot@@V?$allocator@PAVAbstRaven_Bot@@@std@@@std@@QAE?AV?$_List_iterator@V?$_List_val@PAVAbstRaven_Bot@@V?$allocator@PAVAbstRaven_Bot@@@std@@@std@@@2@XZ ; std::list<AbstRaven_Bot *,std::allocator<AbstRaven_Bot *> >::end
	mov	DWORD PTR tv65[ebp], eax
	mov	edx, DWORD PTR tv65[ebp]
	mov	DWORD PTR tv192[ebp], edx
	mov	BYTE PTR __$EHRec$[ebp+8], 3
	mov	eax, DWORD PTR tv192[ebp]
	push	eax
	lea	ecx, DWORD PTR _it$[ebp]
	call	??9?$_List_const_iterator@V?$_List_val@PAVAbstRaven_Bot@@V?$allocator@PAVAbstRaven_Bot@@@std@@@std@@@std@@QBE_NABV01@@Z ; std::_List_const_iterator<std::_List_val<AbstRaven_Bot *,std::allocator<AbstRaven_Bot *> > >::operator!=
	mov	BYTE PTR $T143621[ebp], al
	mov	BYTE PTR __$EHRec$[ebp+8], 1
	lea	ecx, DWORD PTR $T143622[ebp]
	call	??1?$_List_iterator@V?$_List_val@PAVAbstRaven_Bot@@V?$allocator@PAVAbstRaven_Bot@@@std@@@std@@@std@@QAE@XZ
	movzx	ecx, BYTE PTR $T143621[ebp]
	test	ecx, ecx
	je	$LN1@RenderBoxe

; 319  :   {
; 320  :     gdi->OrangePen();

	call	?Instance@Cgdi@@SAPAV1@XZ		; Cgdi::Instance
	mov	ecx, eax
	call	?OrangePen@Cgdi@@QAEXXZ			; Cgdi::OrangePen

; 321  :     Vector2D p = (*it)->Pos();

	lea	edx, DWORD PTR _p$134181[ebp]
	push	edx
	lea	ecx, DWORD PTR _it$[ebp]
	call	??D?$_List_const_iterator@V?$_List_val@PAVAbstRaven_Bot@@V?$allocator@PAVAbstRaven_Bot@@@std@@@std@@@std@@QBEABQAVAbstRaven_Bot@@XZ ; std::_List_const_iterator<std::_List_val<AbstRaven_Bot *,std::allocator<AbstRaven_Bot *> > >::operator*
	mov	ecx, DWORD PTR [eax]
	call	?Pos@BaseGameEntity@@QBE?AUVector2D@@XZ	; BaseGameEntity::Pos

; 322  :     double   b = (*it)->BRadius();

	lea	ecx, DWORD PTR _it$[ebp]
	call	??D?$_List_const_iterator@V?$_List_val@PAVAbstRaven_Bot@@V?$allocator@PAVAbstRaven_Bot@@@std@@@std@@@std@@QBEABQAVAbstRaven_Bot@@XZ ; std::_List_const_iterator<std::_List_val<AbstRaven_Bot *,std::allocator<AbstRaven_Bot *> > >::operator*
	mov	ecx, DWORD PTR [eax]
	call	?BRadius@BaseGameEntity@@QBENXZ		; BaseGameEntity::BRadius
	fstp	QWORD PTR _b$134183[ebp]

; 323  :       
; 324  :     gdi->Line(p.x-b, p.y-b, p.x+b, p.y-b);

	fld	QWORD PTR _p$134181[ebp+8]
	fsub	QWORD PTR _b$134183[ebp]
	sub	esp, 8
	fstp	QWORD PTR [esp]
	fld	QWORD PTR _p$134181[ebp]
	fadd	QWORD PTR _b$134183[ebp]
	sub	esp, 8
	fstp	QWORD PTR [esp]
	fld	QWORD PTR _p$134181[ebp+8]
	fsub	QWORD PTR _b$134183[ebp]
	sub	esp, 8
	fstp	QWORD PTR [esp]
	fld	QWORD PTR _p$134181[ebp]
	fsub	QWORD PTR _b$134183[ebp]
	sub	esp, 8
	fstp	QWORD PTR [esp]
	call	?Instance@Cgdi@@SAPAV1@XZ		; Cgdi::Instance
	mov	ecx, eax
	call	?Line@Cgdi@@QAEXNNNN@Z			; Cgdi::Line

; 325  :     gdi->Line(p.x+b, p.y-b, p.x+b, p.y+b);

	fld	QWORD PTR _p$134181[ebp+8]
	fadd	QWORD PTR _b$134183[ebp]
	sub	esp, 8
	fstp	QWORD PTR [esp]
	fld	QWORD PTR _p$134181[ebp]
	fadd	QWORD PTR _b$134183[ebp]
	sub	esp, 8
	fstp	QWORD PTR [esp]
	fld	QWORD PTR _p$134181[ebp+8]
	fsub	QWORD PTR _b$134183[ebp]
	sub	esp, 8
	fstp	QWORD PTR [esp]
	fld	QWORD PTR _p$134181[ebp]
	fadd	QWORD PTR _b$134183[ebp]
	sub	esp, 8
	fstp	QWORD PTR [esp]
	call	?Instance@Cgdi@@SAPAV1@XZ		; Cgdi::Instance
	mov	ecx, eax
	call	?Line@Cgdi@@QAEXNNNN@Z			; Cgdi::Line

; 326  :     gdi->Line(p.x+b, p.y+b, p.x-b, p.y+b);

	fld	QWORD PTR _p$134181[ebp+8]
	fadd	QWORD PTR _b$134183[ebp]
	sub	esp, 8
	fstp	QWORD PTR [esp]
	fld	QWORD PTR _p$134181[ebp]
	fsub	QWORD PTR _b$134183[ebp]
	sub	esp, 8
	fstp	QWORD PTR [esp]
	fld	QWORD PTR _p$134181[ebp+8]
	fadd	QWORD PTR _b$134183[ebp]
	sub	esp, 8
	fstp	QWORD PTR [esp]
	fld	QWORD PTR _p$134181[ebp]
	fadd	QWORD PTR _b$134183[ebp]
	sub	esp, 8
	fstp	QWORD PTR [esp]
	call	?Instance@Cgdi@@SAPAV1@XZ		; Cgdi::Instance
	mov	ecx, eax
	call	?Line@Cgdi@@QAEXNNNN@Z			; Cgdi::Line

; 327  :     gdi->Line(p.x-b, p.y+b, p.x-b, p.y-b);

	fld	QWORD PTR _p$134181[ebp+8]
	fsub	QWORD PTR _b$134183[ebp]
	sub	esp, 8
	fstp	QWORD PTR [esp]
	fld	QWORD PTR _p$134181[ebp]
	fsub	QWORD PTR _b$134183[ebp]
	sub	esp, 8
	fstp	QWORD PTR [esp]
	fld	QWORD PTR _p$134181[ebp+8]
	fadd	QWORD PTR _b$134183[ebp]
	sub	esp, 8
	fstp	QWORD PTR [esp]
	fld	QWORD PTR _p$134181[ebp]
	fsub	QWORD PTR _b$134183[ebp]
	sub	esp, 8
	fstp	QWORD PTR [esp]
	call	?Instance@Cgdi@@SAPAV1@XZ		; Cgdi::Instance
	mov	ecx, eax
	call	?Line@Cgdi@@QAEXNNNN@Z			; Cgdi::Line

; 328  :   }

	jmp	$LN2@RenderBoxe
$LN1@RenderBoxe:

; 329  : 
; 330  : }

	mov	BYTE PTR __$EHRec$[ebp+8], 0
	lea	ecx, DWORD PTR _it$[ebp]
	call	??1?$_List_const_iterator@V?$_List_val@PAVAbstRaven_Bot@@V?$allocator@PAVAbstRaven_Bot@@@std@@@std@@@std@@QAE@XZ
	mov	DWORD PTR __$EHRec$[ebp+8], -1
	lea	ecx, DWORD PTR _opponents$[ebp]
	call	??1?$list@PAVAbstRaven_Bot@@V?$allocator@PAVAbstRaven_Bot@@@std@@@std@@QAE@XZ ; std::list<AbstRaven_Bot *,std::allocator<AbstRaven_Bot *> >::~list<AbstRaven_Bot *,std::allocator<AbstRaven_Bot *> >
	push	edx
	mov	ecx, ebp
	push	eax
	lea	edx, DWORD PTR $LN15@RenderBoxe
	call	@_RTC_CheckStackVars@8
	pop	eax
	pop	edx
	mov	ecx, DWORD PTR __$EHRec$[ebp]
	mov	DWORD PTR fs:0, ecx
	pop	ecx
	pop	edi
	add	esp, 136				; 00000088H
	cmp	ebp, esp
	call	__RTC_CheckEsp
	mov	esp, ebp
	pop	ebp
	ret	0
	npad	2
$LN15@RenderBoxe:
	DD	3
	DD	$LN14@RenderBoxe
$LN14@RenderBoxe:
	DD	-36					; ffffffdcH
	DD	16					; 00000010H
	DD	$LN10@RenderBoxe
	DD	-56					; ffffffc8H
	DD	12					; 0000000cH
	DD	$LN11@RenderBoxe
	DD	-80					; ffffffb0H
	DD	16					; 00000010H
	DD	$LN12@RenderBoxe
$LN12@RenderBoxe:
	DB	112					; 00000070H
	DB	0
$LN11@RenderBoxe:
	DB	105					; 00000069H
	DB	116					; 00000074H
	DB	0
$LN10@RenderBoxe:
	DB	111					; 0000006fH
	DB	112					; 00000070H
	DB	112					; 00000070H
	DB	111					; 0000006fH
	DB	110					; 0000006eH
	DB	101					; 00000065H
	DB	110					; 0000006eH
	DB	116					; 00000074H
	DB	115					; 00000073H
	DB	0
_TEXT	ENDS
text$x	SEGMENT
__unwindfunclet$?RenderBoxesAroundRecentlySensed@Raven_SensoryMemory@@QBEXXZ$0:
	lea	ecx, DWORD PTR _opponents$[ebp]
	jmp	??1?$list@PAVAbstRaven_Bot@@V?$allocator@PAVAbstRaven_Bot@@@std@@@std@@QAE@XZ ; std::list<AbstRaven_Bot *,std::allocator<AbstRaven_Bot *> >::~list<AbstRaven_Bot *,std::allocator<AbstRaven_Bot *> >
__unwindfunclet$?RenderBoxesAroundRecentlySensed@Raven_SensoryMemory@@QBEXXZ$1:
	lea	ecx, DWORD PTR _it$[ebp]
	jmp	??1?$_List_const_iterator@V?$_List_val@PAVAbstRaven_Bot@@V?$allocator@PAVAbstRaven_Bot@@@std@@@std@@@std@@QAE@XZ
__unwindfunclet$?RenderBoxesAroundRecentlySensed@Raven_SensoryMemory@@QBEXXZ$2:
	lea	ecx, DWORD PTR $T143620[ebp]
	jmp	??1?$_List_iterator@V?$_List_val@PAVAbstRaven_Bot@@V?$allocator@PAVAbstRaven_Bot@@@std@@@std@@@std@@QAE@XZ
__unwindfunclet$?RenderBoxesAroundRecentlySensed@Raven_SensoryMemory@@QBEXXZ$3:
	lea	ecx, DWORD PTR $T143622[ebp]
	jmp	??1?$_List_iterator@V?$_List_val@PAVAbstRaven_Bot@@V?$allocator@PAVAbstRaven_Bot@@@std@@@std@@@std@@QAE@XZ
__ehhandler$?RenderBoxesAroundRecentlySensed@Raven_SensoryMemory@@QBEXXZ:
	mov	edx, DWORD PTR [esp+8]
	lea	eax, DWORD PTR [edx+12]
	mov	ecx, DWORD PTR [edx-132]
	xor	ecx, eax
	call	@__security_check_cookie@4
	mov	eax, OFFSET __ehfuncinfo$?RenderBoxesAroundRecentlySensed@Raven_SensoryMemory@@QBEXXZ
	jmp	___CxxFrameHandler3
text$x	ENDS
?RenderBoxesAroundRecentlySensed@Raven_SensoryMemory@@QBEXXZ ENDP ; Raven_SensoryMemory::RenderBoxesAroundRecentlySensed
EXTRN	__imp__SelectObject@8:PROC
; Function compile flags: /Odtp /RTCsu
; File c:\users\teaja\documents\artificial-fun\labravenprojecttest\common\misc\cgdi.h
;	COMDAT ?OrangePen@Cgdi@@QAEXXZ
_TEXT	SEGMENT
_this$ = -4						; size = 4
?OrangePen@Cgdi@@QAEXXZ PROC				; Cgdi::OrangePen, COMDAT
; _this$ = ecx

; 144  :   void OrangePen() {if(m_hdc){SelectObject(m_hdc, m_OrangePen);}}

	push	ebp
	mov	ebp, esp
	push	ecx
	push	esi
	mov	DWORD PTR [ebp-4], -858993460		; ccccccccH
	mov	DWORD PTR _this$[ebp], ecx
	mov	eax, DWORD PTR _this$[ebp]
	cmp	DWORD PTR [eax+124], 0
	je	SHORT $LN2@OrangePen
	mov	esi, esp
	mov	ecx, DWORD PTR _this$[ebp]
	mov	edx, DWORD PTR [ecx+32]
	push	edx
	mov	eax, DWORD PTR _this$[ebp]
	mov	ecx, DWORD PTR [eax+124]
	push	ecx
	call	DWORD PTR __imp__SelectObject@8
	cmp	esi, esp
	call	__RTC_CheckEsp
$LN2@OrangePen:
	pop	esi
	add	esp, 4
	cmp	ebp, esp
	call	__RTC_CheckEsp
	mov	esp, ebp
	pop	ebp
	ret	0
?OrangePen@Cgdi@@QAEXXZ ENDP				; Cgdi::OrangePen
_TEXT	ENDS
EXTRN	__imp__LineTo@12:PROC
EXTRN	__imp__MoveToEx@16:PROC
EXTRN	__ftol2_sse:PROC
; Function compile flags: /Odtp /RTCsu
;	COMDAT ?Line@Cgdi@@QAEXNNNN@Z
_TEXT	SEGMENT
_this$ = -4						; size = 4
_a$ = 8							; size = 8
_b$ = 16						; size = 8
_x$ = 24						; size = 8
_y$ = 32						; size = 8
?Line@Cgdi@@QAEXNNNN@Z PROC				; Cgdi::Line, COMDAT
; _this$ = ecx

; 256  :   {

	push	ebp
	mov	ebp, esp
	push	ecx
	push	esi
	mov	DWORD PTR [ebp-4], -858993460		; ccccccccH
	mov	DWORD PTR _this$[ebp], ecx

; 257  :     MoveToEx(m_hdc, (int)a, (int)b, NULL);

	mov	esi, esp
	push	0
	fld	QWORD PTR _b$[ebp]
	call	__ftol2_sse
	push	eax
	fld	QWORD PTR _a$[ebp]
	call	__ftol2_sse
	push	eax
	mov	eax, DWORD PTR _this$[ebp]
	mov	ecx, DWORD PTR [eax+124]
	push	ecx
	call	DWORD PTR __imp__MoveToEx@16
	cmp	esi, esp
	call	__RTC_CheckEsp

; 258  :     LineTo(m_hdc, (int)x, (int)y);

	fld	QWORD PTR _y$[ebp]
	call	__ftol2_sse
	mov	esi, esp
	push	eax
	fld	QWORD PTR _x$[ebp]
	call	__ftol2_sse
	push	eax
	mov	edx, DWORD PTR _this$[ebp]
	mov	eax, DWORD PTR [edx+124]
	push	eax
	call	DWORD PTR __imp__LineTo@12
	cmp	esi, esp
	call	__RTC_CheckEsp

; 259  :   }

	pop	esi
	add	esp, 4
	cmp	ebp, esp
	call	__RTC_CheckEsp
	mov	esp, ebp
	pop	ebp
	ret	32					; 00000020H
?Line@Cgdi@@QAEXNNNN@Z ENDP				; Cgdi::Line
; Function compile flags: /Odtp /RTCsu
; File c:\users\teaja\documents\artificial-fun\labravenprojecttest\common\game\basegameentity.h
_TEXT	ENDS
;	COMDAT ?BRadius@BaseGameEntity@@QBENXZ
_TEXT	SEGMENT
_this$ = -4						; size = 4
?BRadius@BaseGameEntity@@QBENXZ PROC			; BaseGameEntity::BRadius, COMDAT
; _this$ = ecx

