; Listing generated by Microsoft (R) Optimizing Compiler Version 16.00.40219.01 

	TITLE	C:\Users\Teaja\Documents\Artificial-Fun\LabRavenProjectTest\Raven\Bots\RBBot\RBGoal_Think.cpp
	.686P
	.XMM
	include listing.inc
	.model	flat

INCLUDELIB LIBCMTD
INCLUDELIB OLDNAMES

PUBLIC	?has_denorm@_Num_base@std@@2W4float_denorm_style@2@B ; std::_Num_base::has_denorm
PUBLIC	?has_denorm_loss@_Num_base@std@@2_NB		; std::_Num_base::has_denorm_loss
PUBLIC	?has_infinity@_Num_base@std@@2_NB		; std::_Num_base::has_infinity
PUBLIC	?has_quiet_NaN@_Num_base@std@@2_NB		; std::_Num_base::has_quiet_NaN
PUBLIC	?has_signaling_NaN@_Num_base@std@@2_NB		; std::_Num_base::has_signaling_NaN
PUBLIC	?is_bounded@_Num_base@std@@2_NB			; std::_Num_base::is_bounded
PUBLIC	?is_exact@_Num_base@std@@2_NB			; std::_Num_base::is_exact
PUBLIC	?is_iec559@_Num_base@std@@2_NB			; std::_Num_base::is_iec559
PUBLIC	?is_integer@_Num_base@std@@2_NB			; std::_Num_base::is_integer
PUBLIC	?is_modulo@_Num_base@std@@2_NB			; std::_Num_base::is_modulo
PUBLIC	?is_signed@_Num_base@std@@2_NB			; std::_Num_base::is_signed
PUBLIC	?is_specialized@_Num_base@std@@2_NB		; std::_Num_base::is_specialized
PUBLIC	?tinyness_before@_Num_base@std@@2_NB		; std::_Num_base::tinyness_before
PUBLIC	?traps@_Num_base@std@@2_NB			; std::_Num_base::traps
PUBLIC	?round_style@_Num_base@std@@2W4float_round_style@2@B ; std::_Num_base::round_style
PUBLIC	?digits@_Num_base@std@@2HB			; std::_Num_base::digits
PUBLIC	?digits10@_Num_base@std@@2HB			; std::_Num_base::digits10
PUBLIC	?max_digits10@_Num_base@std@@2HB		; std::_Num_base::max_digits10
PUBLIC	?max_exponent@_Num_base@std@@2HB		; std::_Num_base::max_exponent
PUBLIC	?max_exponent10@_Num_base@std@@2HB		; std::_Num_base::max_exponent10
PUBLIC	?min_exponent@_Num_base@std@@2HB		; std::_Num_base::min_exponent
PUBLIC	?min_exponent10@_Num_base@std@@2HB		; std::_Num_base::min_exponent10
PUBLIC	?radix@_Num_base@std@@2HB			; std::_Num_base::radix
PUBLIC	?is_bounded@_Num_int_base@std@@2_NB		; std::_Num_int_base::is_bounded
PUBLIC	?is_exact@_Num_int_base@std@@2_NB		; std::_Num_int_base::is_exact
PUBLIC	?is_integer@_Num_int_base@std@@2_NB		; std::_Num_int_base::is_integer
PUBLIC	?is_modulo@_Num_int_base@std@@2_NB		; std::_Num_int_base::is_modulo
PUBLIC	?is_specialized@_Num_int_base@std@@2_NB		; std::_Num_int_base::is_specialized
PUBLIC	?radix@_Num_int_base@std@@2HB			; std::_Num_int_base::radix
PUBLIC	?has_denorm@_Num_float_base@std@@2W4float_denorm_style@2@B ; std::_Num_float_base::has_denorm
PUBLIC	?has_denorm_loss@_Num_float_base@std@@2_NB	; std::_Num_float_base::has_denorm_loss
PUBLIC	?has_infinity@_Num_float_base@std@@2_NB		; std::_Num_float_base::has_infinity
PUBLIC	?has_quiet_NaN@_Num_float_base@std@@2_NB	; std::_Num_float_base::has_quiet_NaN
PUBLIC	?has_signaling_NaN@_Num_float_base@std@@2_NB	; std::_Num_float_base::has_signaling_NaN
PUBLIC	?is_bounded@_Num_float_base@std@@2_NB		; std::_Num_float_base::is_bounded
PUBLIC	?is_exact@_Num_float_base@std@@2_NB		; std::_Num_float_base::is_exact
PUBLIC	?is_iec559@_Num_float_base@std@@2_NB		; std::_Num_float_base::is_iec559
PUBLIC	?is_integer@_Num_float_base@std@@2_NB		; std::_Num_float_base::is_integer
PUBLIC	?is_modulo@_Num_float_base@std@@2_NB		; std::_Num_float_base::is_modulo
PUBLIC	?is_signed@_Num_float_base@std@@2_NB		; std::_Num_float_base::is_signed
PUBLIC	?is_specialized@_Num_float_base@std@@2_NB	; std::_Num_float_base::is_specialized
PUBLIC	?tinyness_before@_Num_float_base@std@@2_NB	; std::_Num_float_base::tinyness_before
PUBLIC	?traps@_Num_float_base@std@@2_NB		; std::_Num_float_base::traps
PUBLIC	?round_style@_Num_float_base@std@@2W4float_round_style@2@B ; std::_Num_float_base::round_style
PUBLIC	?radix@_Num_float_base@std@@2HB			; std::_Num_float_base::radix
PUBLIC	?is_signed@?$numeric_limits@D@std@@2_NB		; std::numeric_limits<char>::is_signed
PUBLIC	?digits@?$numeric_limits@D@std@@2HB		; std::numeric_limits<char>::digits
PUBLIC	?digits10@?$numeric_limits@D@std@@2HB		; std::numeric_limits<char>::digits10
PUBLIC	?max_digits10@?$numeric_limits@D@std@@2HB	; std::numeric_limits<char>::max_digits10
PUBLIC	?is_signed@?$numeric_limits@_W@std@@2_NB	; std::numeric_limits<wchar_t>::is_signed
PUBLIC	?digits@?$numeric_limits@_W@std@@2HB		; std::numeric_limits<wchar_t>::digits
PUBLIC	?digits10@?$numeric_limits@_W@std@@2HB		; std::numeric_limits<wchar_t>::digits10
PUBLIC	?max_digits10@?$numeric_limits@_W@std@@2HB	; std::numeric_limits<wchar_t>::max_digits10
PUBLIC	?is_modulo@?$numeric_limits@_N@std@@2_NB	; std::numeric_limits<bool>::is_modulo
PUBLIC	?is_signed@?$numeric_limits@_N@std@@2_NB	; std::numeric_limits<bool>::is_signed
PUBLIC	?digits@?$numeric_limits@_N@std@@2HB		; std::numeric_limits<bool>::digits
PUBLIC	?digits10@?$numeric_limits@_N@std@@2HB		; std::numeric_limits<bool>::digits10
PUBLIC	?max_digits10@?$numeric_limits@_N@std@@2HB	; std::numeric_limits<bool>::max_digits10
PUBLIC	?is_signed@?$numeric_limits@C@std@@2_NB		; std::numeric_limits<signed char>::is_signed
PUBLIC	?digits@?$numeric_limits@C@std@@2HB		; std::numeric_limits<signed char>::digits
PUBLIC	?digits10@?$numeric_limits@C@std@@2HB		; std::numeric_limits<signed char>::digits10
PUBLIC	?max_digits10@?$numeric_limits@C@std@@2HB	; std::numeric_limits<signed char>::max_digits10
PUBLIC	?is_signed@?$numeric_limits@E@std@@2_NB		; std::numeric_limits<unsigned char>::is_signed
PUBLIC	?digits@?$numeric_limits@E@std@@2HB		; std::numeric_limits<unsigned char>::digits
PUBLIC	?digits10@?$numeric_limits@E@std@@2HB		; std::numeric_limits<unsigned char>::digits10
PUBLIC	?max_digits10@?$numeric_limits@E@std@@2HB	; std::numeric_limits<unsigned char>::max_digits10
PUBLIC	?is_signed@?$numeric_limits@F@std@@2_NB		; std::numeric_limits<short>::is_signed
PUBLIC	?digits@?$numeric_limits@F@std@@2HB		; std::numeric_limits<short>::digits
PUBLIC	?digits10@?$numeric_limits@F@std@@2HB		; std::numeric_limits<short>::digits10
PUBLIC	?max_digits10@?$numeric_limits@F@std@@2HB	; std::numeric_limits<short>::max_digits10
PUBLIC	?is_signed@?$numeric_limits@G@std@@2_NB		; std::numeric_limits<unsigned short>::is_signed
PUBLIC	?digits@?$numeric_limits@G@std@@2HB		; std::numeric_limits<unsigned short>::digits
PUBLIC	?digits10@?$numeric_limits@G@std@@2HB		; std::numeric_limits<unsigned short>::digits10
PUBLIC	?max_digits10@?$numeric_limits@G@std@@2HB	; std::numeric_limits<unsigned short>::max_digits10
PUBLIC	?is_signed@?$numeric_limits@H@std@@2_NB		; std::numeric_limits<int>::is_signed
PUBLIC	?digits@?$numeric_limits@H@std@@2HB		; std::numeric_limits<int>::digits
PUBLIC	?digits10@?$numeric_limits@H@std@@2HB		; std::numeric_limits<int>::digits10
PUBLIC	?max_digits10@?$numeric_limits@H@std@@2HB	; std::numeric_limits<int>::max_digits10
PUBLIC	?is_signed@?$numeric_limits@I@std@@2_NB		; std::numeric_limits<unsigned int>::is_signed
PUBLIC	?digits@?$numeric_limits@I@std@@2HB		; std::numeric_limits<unsigned int>::digits
PUBLIC	?digits10@?$numeric_limits@I@std@@2HB		; std::numeric_limits<unsigned int>::digits10
PUBLIC	?max_digits10@?$numeric_limits@I@std@@2HB	; std::numeric_limits<unsigned int>::max_digits10
PUBLIC	?is_signed@?$numeric_limits@J@std@@2_NB		; std::numeric_limits<long>::is_signed
PUBLIC	?digits@?$numeric_limits@J@std@@2HB		; std::numeric_limits<long>::digits
PUBLIC	?digits10@?$numeric_limits@J@std@@2HB		; std::numeric_limits<long>::digits10
PUBLIC	?max_digits10@?$numeric_limits@J@std@@2HB	; std::numeric_limits<long>::max_digits10
PUBLIC	?is_signed@?$numeric_limits@K@std@@2_NB		; std::numeric_limits<unsigned long>::is_signed
PUBLIC	?digits@?$numeric_limits@K@std@@2HB		; std::numeric_limits<unsigned long>::digits
PUBLIC	?digits10@?$numeric_limits@K@std@@2HB		; std::numeric_limits<unsigned long>::digits10
PUBLIC	?max_digits10@?$numeric_limits@K@std@@2HB	; std::numeric_limits<unsigned long>::max_digits10
PUBLIC	?is_signed@?$numeric_limits@_J@std@@2_NB	; std::numeric_limits<__int64>::is_signed
PUBLIC	?digits@?$numeric_limits@_J@std@@2HB		; std::numeric_limits<__int64>::digits
PUBLIC	?digits10@?$numeric_limits@_J@std@@2HB		; std::numeric_limits<__int64>::digits10
PUBLIC	?max_digits10@?$numeric_limits@_J@std@@2HB	; std::numeric_limits<__int64>::max_digits10
PUBLIC	?is_signed@?$numeric_limits@_K@std@@2_NB	; std::numeric_limits<unsigned __int64>::is_signed
PUBLIC	?digits@?$numeric_limits@_K@std@@2HB		; std::numeric_limits<unsigned __int64>::digits
PUBLIC	?digits10@?$numeric_limits@_K@std@@2HB		; std::numeric_limits<unsigned __int64>::digits10
PUBLIC	?max_digits10@?$numeric_limits@_K@std@@2HB	; std::numeric_limits<unsigned __int64>::max_digits10
PUBLIC	?digits@?$numeric_limits@M@std@@2HB		; std::numeric_limits<float>::digits
PUBLIC	?digits10@?$numeric_limits@M@std@@2HB		; std::numeric_limits<float>::digits10
PUBLIC	?max_digits10@?$numeric_limits@M@std@@2HB	; std::numeric_limits<float>::max_digits10
PUBLIC	?max_exponent@?$numeric_limits@M@std@@2HB	; std::numeric_limits<float>::max_exponent
PUBLIC	?max_exponent10@?$numeric_limits@M@std@@2HB	; std::numeric_limits<float>::max_exponent10
PUBLIC	?min_exponent@?$numeric_limits@M@std@@2HB	; std::numeric_limits<float>::min_exponent
PUBLIC	?min_exponent10@?$numeric_limits@M@std@@2HB	; std::numeric_limits<float>::min_exponent10
PUBLIC	?digits@?$numeric_limits@N@std@@2HB		; std::numeric_limits<double>::digits
PUBLIC	?digits10@?$numeric_limits@N@std@@2HB		; std::numeric_limits<double>::digits10
PUBLIC	?max_digits10@?$numeric_limits@N@std@@2HB	; std::numeric_limits<double>::max_digits10
PUBLIC	?max_exponent@?$numeric_limits@N@std@@2HB	; std::numeric_limits<double>::max_exponent
PUBLIC	?max_exponent10@?$numeric_limits@N@std@@2HB	; std::numeric_limits<double>::max_exponent10
PUBLIC	?min_exponent@?$numeric_limits@N@std@@2HB	; std::numeric_limits<double>::min_exponent
PUBLIC	?min_exponent10@?$numeric_limits@N@std@@2HB	; std::numeric_limits<double>::min_exponent10
PUBLIC	?digits@?$numeric_limits@O@std@@2HB		; std::numeric_limits<long double>::digits
PUBLIC	?digits10@?$numeric_limits@O@std@@2HB		; std::numeric_limits<long double>::digits10
PUBLIC	?max_digits10@?$numeric_limits@O@std@@2HB	; std::numeric_limits<long double>::max_digits10
PUBLIC	?max_exponent@?$numeric_limits@O@std@@2HB	; std::numeric_limits<long double>::max_exponent
PUBLIC	?max_exponent10@?$numeric_limits@O@std@@2HB	; std::numeric_limits<long double>::max_exponent10
PUBLIC	?min_exponent@?$numeric_limits@O@std@@2HB	; std::numeric_limits<long double>::min_exponent
PUBLIC	?min_exponent10@?$numeric_limits@O@std@@2HB	; std::numeric_limits<long double>::min_exponent10
PUBLIC	?value@?$integral_constant@_N$0A@@tr1@std@@2_NB	; std::tr1::integral_constant<bool,0>::value
PUBLIC	?value@?$integral_constant@_N$00@tr1@std@@2_NB	; std::tr1::integral_constant<bool,1>::value
PUBLIC	?value@?$integral_constant@I$0A@@tr1@std@@2IB	; std::tr1::integral_constant<unsigned int,0>::value
PUBLIC	?_Rank@?$_Arithmetic_traits@_N@std@@2HB		; std::_Arithmetic_traits<bool>::_Rank
PUBLIC	?_Rank@?$_Arithmetic_traits@D@std@@2HB		; std::_Arithmetic_traits<char>::_Rank
PUBLIC	?_Rank@?$_Arithmetic_traits@C@std@@2HB		; std::_Arithmetic_traits<signed char>::_Rank
PUBLIC	?_Rank@?$_Arithmetic_traits@E@std@@2HB		; std::_Arithmetic_traits<unsigned char>::_Rank
PUBLIC	?_Rank@?$_Arithmetic_traits@F@std@@2HB		; std::_Arithmetic_traits<short>::_Rank
PUBLIC	?_Rank@?$_Arithmetic_traits@G@std@@2HB		; std::_Arithmetic_traits<unsigned short>::_Rank
PUBLIC	?_Rank@?$_Arithmetic_traits@H@std@@2HB		; std::_Arithmetic_traits<int>::_Rank
PUBLIC	?_Rank@?$_Arithmetic_traits@I@std@@2HB		; std::_Arithmetic_traits<unsigned int>::_Rank
PUBLIC	?_Rank@?$_Arithmetic_traits@J@std@@2HB		; std::_Arithmetic_traits<long>::_Rank
PUBLIC	?_Rank@?$_Arithmetic_traits@K@std@@2HB		; std::_Arithmetic_traits<unsigned long>::_Rank
PUBLIC	?_Rank@?$_Arithmetic_traits@_J@std@@2HB		; std::_Arithmetic_traits<__int64>::_Rank
PUBLIC	?_Rank@?$_Arithmetic_traits@_K@std@@2HB		; std::_Arithmetic_traits<unsigned __int64>::_Rank
PUBLIC	?_Rank@?$_Arithmetic_traits@M@std@@2HB		; std::_Arithmetic_traits<float>::_Rank
PUBLIC	?_Rank@?$_Arithmetic_traits@N@std@@2HB		; std::_Arithmetic_traits<double>::_Rank
PUBLIC	?_Rank@?$_Arithmetic_traits@O@std@@2HB		; std::_Arithmetic_traits<long double>::_Rank
PUBLIC	?collate@?$_Locbase@H@std@@2HB			; std::_Locbase<int>::collate
PUBLIC	?ctype@?$_Locbase@H@std@@2HB			; std::_Locbase<int>::ctype
PUBLIC	?monetary@?$_Locbase@H@std@@2HB			; std::_Locbase<int>::monetary
PUBLIC	?numeric@?$_Locbase@H@std@@2HB			; std::_Locbase<int>::numeric
PUBLIC	?time@?$_Locbase@H@std@@2HB			; std::_Locbase<int>::time
PUBLIC	?messages@?$_Locbase@H@std@@2HB			; std::_Locbase<int>::messages
PUBLIC	?all@?$_Locbase@H@std@@2HB			; std::_Locbase<int>::all
PUBLIC	?none@?$_Locbase@H@std@@2HB			; std::_Locbase<int>::none
PUBLIC	?table_size@?$ctype@D@std@@2IB			; std::ctype<char>::table_size
PUBLIC	?skipws@?$_Iosb@H@std@@2W4_Fmtflags@12@B	; std::_Iosb<int>::skipws
PUBLIC	?unitbuf@?$_Iosb@H@std@@2W4_Fmtflags@12@B	; std::_Iosb<int>::unitbuf
PUBLIC	?uppercase@?$_Iosb@H@std@@2W4_Fmtflags@12@B	; std::_Iosb<int>::uppercase
PUBLIC	?showbase@?$_Iosb@H@std@@2W4_Fmtflags@12@B	; std::_Iosb<int>::showbase
PUBLIC	?showpoint@?$_Iosb@H@std@@2W4_Fmtflags@12@B	; std::_Iosb<int>::showpoint
PUBLIC	?showpos@?$_Iosb@H@std@@2W4_Fmtflags@12@B	; std::_Iosb<int>::showpos
PUBLIC	?left@?$_Iosb@H@std@@2W4_Fmtflags@12@B		; std::_Iosb<int>::left
PUBLIC	?right@?$_Iosb@H@std@@2W4_Fmtflags@12@B		; std::_Iosb<int>::right
PUBLIC	?internal@?$_Iosb@H@std@@2W4_Fmtflags@12@B	; std::_Iosb<int>::internal
PUBLIC	?dec@?$_Iosb@H@std@@2W4_Fmtflags@12@B		; std::_Iosb<int>::dec
PUBLIC	?oct@?$_Iosb@H@std@@2W4_Fmtflags@12@B		; std::_Iosb<int>::oct
PUBLIC	?hex@?$_Iosb@H@std@@2W4_Fmtflags@12@B		; std::_Iosb<int>::hex
PUBLIC	?scientific@?$_Iosb@H@std@@2W4_Fmtflags@12@B	; std::_Iosb<int>::scientific
PUBLIC	?fixed@?$_Iosb@H@std@@2W4_Fmtflags@12@B		; std::_Iosb<int>::fixed
PUBLIC	?hexfloat@?$_Iosb@H@std@@2W4_Fmtflags@12@B	; std::_Iosb<int>::hexfloat
PUBLIC	?boolalpha@?$_Iosb@H@std@@2W4_Fmtflags@12@B	; std::_Iosb<int>::boolalpha
PUBLIC	?_Stdio@?$_Iosb@H@std@@2W4_Fmtflags@12@B	; std::_Iosb<int>::_Stdio
PUBLIC	?adjustfield@?$_Iosb@H@std@@2W4_Fmtflags@12@B	; std::_Iosb<int>::adjustfield
PUBLIC	?basefield@?$_Iosb@H@std@@2W4_Fmtflags@12@B	; std::_Iosb<int>::basefield
PUBLIC	?floatfield@?$_Iosb@H@std@@2W4_Fmtflags@12@B	; std::_Iosb<int>::floatfield
PUBLIC	?goodbit@?$_Iosb@H@std@@2W4_Iostate@12@B	; std::_Iosb<int>::goodbit
PUBLIC	?eofbit@?$_Iosb@H@std@@2W4_Iostate@12@B		; std::_Iosb<int>::eofbit
PUBLIC	?failbit@?$_Iosb@H@std@@2W4_Iostate@12@B	; std::_Iosb<int>::failbit
PUBLIC	?badbit@?$_Iosb@H@std@@2W4_Iostate@12@B		; std::_Iosb<int>::badbit
PUBLIC	?_Hardfail@?$_Iosb@H@std@@2W4_Iostate@12@B	; std::_Iosb<int>::_Hardfail
PUBLIC	?in@?$_Iosb@H@std@@2W4_Openmode@12@B		; std::_Iosb<int>::in
PUBLIC	?out@?$_Iosb@H@std@@2W4_Openmode@12@B		; std::_Iosb<int>::out
PUBLIC	?ate@?$_Iosb@H@std@@2W4_Openmode@12@B		; std::_Iosb<int>::ate
PUBLIC	?app@?$_Iosb@H@std@@2W4_Openmode@12@B		; std::_Iosb<int>::app
PUBLIC	?trunc@?$_Iosb@H@std@@2W4_Openmode@12@B		; std::_Iosb<int>::trunc
PUBLIC	?_Nocreate@?$_Iosb@H@std@@2W4_Openmode@12@B	; std::_Iosb<int>::_Nocreate
PUBLIC	?_Noreplace@?$_Iosb@H@std@@2W4_Openmode@12@B	; std::_Iosb<int>::_Noreplace
PUBLIC	?binary@?$_Iosb@H@std@@2W4_Openmode@12@B	; std::_Iosb<int>::binary
PUBLIC	?beg@?$_Iosb@H@std@@2W4_Seekdir@12@B		; std::_Iosb<int>::beg
PUBLIC	?cur@?$_Iosb@H@std@@2W4_Seekdir@12@B		; std::_Iosb<int>::cur
PUBLIC	?end@?$_Iosb@H@std@@2W4_Seekdir@12@B		; std::_Iosb<int>::end
CONST	SEGMENT
_Pi	DQ	0400921f9f01b866er		; 3.14159
_colors	DD	0ffH
	DD	0ff0000H
	DD	0ff00H
	DD	00H
	DD	0c8c8ffH
	DD	0c8c8c8H
	DD	0ffffH
	DD	0aaffH
	DD	0aa00ffH
	DD	05a85H
	DD	0ffffffH
	DD	06400H
	DD	0ffff00H
	DD	0c8c8c8H
	DD	0e6e6ffH
$SG132772 DB	'Bot_RocketLauncherTweaker', 00H
	ORG $+2
_pi	DQ	0400921f9f01b866er		; 3.14159
$SG132768 DB	'Bot_HealthGoalTweaker', 00H
	ORG $+2
$SG132770 DB	'Bot_ShotgunGoalTweaker', 00H
	ORG $+1
$SG132774 DB	'Bot_RailgunGoalTweaker', 00H
	ORG $+1
$SG132776 DB	'Bot_ExploreTweaker', 00H
	ORG $+1
$SG132778 DB	'Bot_AggroGoalTweaker', 00H
CONST	ENDS
;	COMDAT ?end@?$_Iosb@H@std@@2W4_Seekdir@12@B
CONST	SEGMENT
?end@?$_Iosb@H@std@@2W4_Seekdir@12@B DD 02H		; std::_Iosb<int>::end
CONST	ENDS
;	COMDAT ?cur@?$_Iosb@H@std@@2W4_Seekdir@12@B
CONST	SEGMENT
?cur@?$_Iosb@H@std@@2W4_Seekdir@12@B DD 01H		; std::_Iosb<int>::cur
CONST	ENDS
;	COMDAT ?beg@?$_Iosb@H@std@@2W4_Seekdir@12@B
CONST	SEGMENT
?beg@?$_Iosb@H@std@@2W4_Seekdir@12@B DD 00H		; std::_Iosb<int>::beg
CONST	ENDS
;	COMDAT ?binary@?$_Iosb@H@std@@2W4_Openmode@12@B
CONST	SEGMENT
?binary@?$_Iosb@H@std@@2W4_Openmode@12@B DD 020H	; std::_Iosb<int>::binary
CONST	ENDS
;	COMDAT ?_Noreplace@?$_Iosb@H@std@@2W4_Openmode@12@B
CONST	SEGMENT
?_Noreplace@?$_Iosb@H@std@@2W4_Openmode@12@B DD 080H	; std::_Iosb<int>::_Noreplace
CONST	ENDS
;	COMDAT ?_Nocreate@?$_Iosb@H@std@@2W4_Openmode@12@B
CONST	SEGMENT
?_Nocreate@?$_Iosb@H@std@@2W4_Openmode@12@B DD 040H	; std::_Iosb<int>::_Nocreate
CONST	ENDS
;	COMDAT ?trunc@?$_Iosb@H@std@@2W4_Openmode@12@B
CONST	SEGMENT
?trunc@?$_Iosb@H@std@@2W4_Openmode@12@B DD 010H		; std::_Iosb<int>::trunc
CONST	ENDS
;	COMDAT ?app@?$_Iosb@H@std@@2W4_Openmode@12@B
CONST	SEGMENT
?app@?$_Iosb@H@std@@2W4_Openmode@12@B DD 08H		; std::_Iosb<int>::app
CONST	ENDS
;	COMDAT ?ate@?$_Iosb@H@std@@2W4_Openmode@12@B
CONST	SEGMENT
?ate@?$_Iosb@H@std@@2W4_Openmode@12@B DD 04H		; std::_Iosb<int>::ate
CONST	ENDS
;	COMDAT ?out@?$_Iosb@H@std@@2W4_Openmode@12@B
CONST	SEGMENT
?out@?$_Iosb@H@std@@2W4_Openmode@12@B DD 02H		; std::_Iosb<int>::out
CONST	ENDS
;	COMDAT ?in@?$_Iosb@H@std@@2W4_Openmode@12@B
CONST	SEGMENT
?in@?$_Iosb@H@std@@2W4_Openmode@12@B DD 01H		; std::_Iosb<int>::in
CONST	ENDS
;	COMDAT ?_Hardfail@?$_Iosb@H@std@@2W4_Iostate@12@B
CONST	SEGMENT
?_Hardfail@?$_Iosb@H@std@@2W4_Iostate@12@B DD 010H	; std::_Iosb<int>::_Hardfail
CONST	ENDS
;	COMDAT ?badbit@?$_Iosb@H@std@@2W4_Iostate@12@B
CONST	SEGMENT
?badbit@?$_Iosb@H@std@@2W4_Iostate@12@B DD 04H		; std::_Iosb<int>::badbit
CONST	ENDS
;	COMDAT ?failbit@?$_Iosb@H@std@@2W4_Iostate@12@B
CONST	SEGMENT
?failbit@?$_Iosb@H@std@@2W4_Iostate@12@B DD 02H		; std::_Iosb<int>::failbit
CONST	ENDS
;	COMDAT ?eofbit@?$_Iosb@H@std@@2W4_Iostate@12@B
CONST	SEGMENT
?eofbit@?$_Iosb@H@std@@2W4_Iostate@12@B DD 01H		; std::_Iosb<int>::eofbit
CONST	ENDS
;	COMDAT ?goodbit@?$_Iosb@H@std@@2W4_Iostate@12@B
CONST	SEGMENT
?goodbit@?$_Iosb@H@std@@2W4_Iostate@12@B DD 00H		; std::_Iosb<int>::goodbit
CONST	ENDS
;	COMDAT ?floatfield@?$_Iosb@H@std@@2W4_Fmtflags@12@B
CONST	SEGMENT
?floatfield@?$_Iosb@H@std@@2W4_Fmtflags@12@B DD 03000H	; std::_Iosb<int>::floatfield
CONST	ENDS
;	COMDAT ?basefield@?$_Iosb@H@std@@2W4_Fmtflags@12@B
CONST	SEGMENT
?basefield@?$_Iosb@H@std@@2W4_Fmtflags@12@B DD 0e00H	; std::_Iosb<int>::basefield
CONST	ENDS
;	COMDAT ?adjustfield@?$_Iosb@H@std@@2W4_Fmtflags@12@B
CONST	SEGMENT
?adjustfield@?$_Iosb@H@std@@2W4_Fmtflags@12@B DD 01c0H	; std::_Iosb<int>::adjustfield
CONST	ENDS
;	COMDAT ?_Stdio@?$_Iosb@H@std@@2W4_Fmtflags@12@B
CONST	SEGMENT
?_Stdio@?$_Iosb@H@std@@2W4_Fmtflags@12@B DD 08000H	; std::_Iosb<int>::_Stdio
CONST	ENDS
;	COMDAT ?boolalpha@?$_Iosb@H@std@@2W4_Fmtflags@12@B
CONST	SEGMENT
?boolalpha@?$_Iosb@H@std@@2W4_Fmtflags@12@B DD 04000H	; std::_Iosb<int>::boolalpha
CONST	ENDS
;	COMDAT ?hexfloat@?$_Iosb@H@std@@2W4_Fmtflags@12@B
CONST	SEGMENT
?hexfloat@?$_Iosb@H@std@@2W4_Fmtflags@12@B DD 03000H	; std::_Iosb<int>::hexfloat
CONST	ENDS
;	COMDAT ?fixed@?$_Iosb@H@std@@2W4_Fmtflags@12@B
CONST	SEGMENT
?fixed@?$_Iosb@H@std@@2W4_Fmtflags@12@B DD 02000H	; std::_Iosb<int>::fixed
CONST	ENDS
;	COMDAT ?scientific@?$_Iosb@H@std@@2W4_Fmtflags@12@B
CONST	SEGMENT
?scientific@?$_Iosb@H@std@@2W4_Fmtflags@12@B DD 01000H	; std::_Iosb<int>::scientific
CONST	ENDS
;	COMDAT ?hex@?$_Iosb@H@std@@2W4_Fmtflags@12@B
CONST	SEGMENT
?hex@?$_Iosb@H@std@@2W4_Fmtflags@12@B DD 0800H		; std::_Iosb<int>::hex
CONST	ENDS
;	COMDAT ?oct@?$_Iosb@H@std@@2W4_Fmtflags@12@B
CONST	SEGMENT
?oct@?$_Iosb@H@std@@2W4_Fmtflags@12@B DD 0400H		; std::_Iosb<int>::oct
CONST	ENDS
;	COMDAT ?dec@?$_Iosb@H@std@@2W4_Fmtflags@12@B
CONST	SEGMENT
?dec@?$_Iosb@H@std@@2W4_Fmtflags@12@B DD 0200H		; std::_Iosb<int>::dec
CONST	ENDS
;	COMDAT ?internal@?$_Iosb@H@std@@2W4_Fmtflags@12@B
CONST	SEGMENT
?internal@?$_Iosb@H@std@@2W4_Fmtflags@12@B DD 0100H	; std::_Iosb<int>::internal
CONST	ENDS
;	COMDAT ?right@?$_Iosb@H@std@@2W4_Fmtflags@12@B
CONST	SEGMENT
?right@?$_Iosb@H@std@@2W4_Fmtflags@12@B DD 080H		; std::_Iosb<int>::right
CONST	ENDS
;	COMDAT ?left@?$_Iosb@H@std@@2W4_Fmtflags@12@B
CONST	SEGMENT
?left@?$_Iosb@H@std@@2W4_Fmtflags@12@B DD 040H		; std::_Iosb<int>::left
CONST	ENDS
;	COMDAT ?showpos@?$_Iosb@H@std@@2W4_Fmtflags@12@B
CONST	SEGMENT
?showpos@?$_Iosb@H@std@@2W4_Fmtflags@12@B DD 020H	; std::_Iosb<int>::showpos
CONST	ENDS
;	COMDAT ?showpoint@?$_Iosb@H@std@@2W4_Fmtflags@12@B
CONST	SEGMENT
?showpoint@?$_Iosb@H@std@@2W4_Fmtflags@12@B DD 010H	; std::_Iosb<int>::showpoint
CONST	ENDS
;	COMDAT ?showbase@?$_Iosb@H@std@@2W4_Fmtflags@12@B
CONST	SEGMENT
?showbase@?$_Iosb@H@std@@2W4_Fmtflags@12@B DD 08H	; std::_Iosb<int>::showbase
CONST	ENDS
;	COMDAT ?uppercase@?$_Iosb@H@std@@2W4_Fmtflags@12@B
CONST	SEGMENT
?uppercase@?$_Iosb@H@std@@2W4_Fmtflags@12@B DD 04H	; std::_Iosb<int>::uppercase
CONST	ENDS
;	COMDAT ?unitbuf@?$_Iosb@H@std@@2W4_Fmtflags@12@B
CONST	SEGMENT
?unitbuf@?$_Iosb@H@std@@2W4_Fmtflags@12@B DD 02H	; std::_Iosb<int>::unitbuf
CONST	ENDS
;	COMDAT ?skipws@?$_Iosb@H@std@@2W4_Fmtflags@12@B
CONST	SEGMENT
?skipws@?$_Iosb@H@std@@2W4_Fmtflags@12@B DD 01H		; std::_Iosb<int>::skipws
CONST	ENDS
;	COMDAT ?table_size@?$ctype@D@std@@2IB
CONST	SEGMENT
?table_size@?$ctype@D@std@@2IB DD 0100H			; std::ctype<char>::table_size
CONST	ENDS
;	COMDAT ?none@?$_Locbase@H@std@@2HB
CONST	SEGMENT
?none@?$_Locbase@H@std@@2HB DD 00H			; std::_Locbase<int>::none
CONST	ENDS
;	COMDAT ?all@?$_Locbase@H@std@@2HB
CONST	SEGMENT
?all@?$_Locbase@H@std@@2HB DD 03fH			; std::_Locbase<int>::all
CONST	ENDS
;	COMDAT ?messages@?$_Locbase@H@std@@2HB
CONST	SEGMENT
?messages@?$_Locbase@H@std@@2HB DD 020H			; std::_Locbase<int>::messages
CONST	ENDS
;	COMDAT ?time@?$_Locbase@H@std@@2HB
CONST	SEGMENT
?time@?$_Locbase@H@std@@2HB DD 010H			; std::_Locbase<int>::time
CONST	ENDS
;	COMDAT ?numeric@?$_Locbase@H@std@@2HB
CONST	SEGMENT
?numeric@?$_Locbase@H@std@@2HB DD 08H			; std::_Locbase<int>::numeric
CONST	ENDS
;	COMDAT ?monetary@?$_Locbase@H@std@@2HB
CONST	SEGMENT
?monetary@?$_Locbase@H@std@@2HB DD 04H			; std::_Locbase<int>::monetary
CONST	ENDS
;	COMDAT ?ctype@?$_Locbase@H@std@@2HB
CONST	SEGMENT
?ctype@?$_Locbase@H@std@@2HB DD 02H			; std::_Locbase<int>::ctype
CONST	ENDS
;	COMDAT ?collate@?$_Locbase@H@std@@2HB
CONST	SEGMENT
?collate@?$_Locbase@H@std@@2HB DD 01H			; std::_Locbase<int>::collate
CONST	ENDS
;	COMDAT ?_Rank@?$_Arithmetic_traits@O@std@@2HB
CONST	SEGMENT
?_Rank@?$_Arithmetic_traits@O@std@@2HB DD 09H		; std::_Arithmetic_traits<long double>::_Rank
CONST	ENDS
;	COMDAT ?_Rank@?$_Arithmetic_traits@N@std@@2HB
CONST	SEGMENT
?_Rank@?$_Arithmetic_traits@N@std@@2HB DD 08H		; std::_Arithmetic_traits<double>::_Rank
CONST	ENDS
;	COMDAT ?_Rank@?$_Arithmetic_traits@M@std@@2HB
CONST	SEGMENT
?_Rank@?$_Arithmetic_traits@M@std@@2HB DD 07H		; std::_Arithmetic_traits<float>::_Rank
CONST	ENDS
;	COMDAT ?_Rank@?$_Arithmetic_traits@_K@std@@2HB
CONST	SEGMENT
?_Rank@?$_Arithmetic_traits@_K@std@@2HB DD 06H		; std::_Arithmetic_traits<unsigned __int64>::_Rank
CONST	ENDS
;	COMDAT ?_Rank@?$_Arithmetic_traits@_J@std@@2HB
CONST	SEGMENT
?_Rank@?$_Arithmetic_traits@_J@std@@2HB DD 06H		; std::_Arithmetic_traits<__int64>::_Rank
CONST	ENDS
;	COMDAT ?_Rank@?$_Arithmetic_traits@K@std@@2HB
CONST	SEGMENT
?_Rank@?$_Arithmetic_traits@K@std@@2HB DD 05H		; std::_Arithmetic_traits<unsigned long>::_Rank
CONST	ENDS
;	COMDAT ?_Rank@?$_Arithmetic_traits@J@std@@2HB
CONST	SEGMENT
?_Rank@?$_Arithmetic_traits@J@std@@2HB DD 05H		; std::_Arithmetic_traits<long>::_Rank
CONST	ENDS
;	COMDAT ?_Rank@?$_Arithmetic_traits@I@std@@2HB
CONST	SEGMENT
?_Rank@?$_Arithmetic_traits@I@std@@2HB DD 04H		; std::_Arithmetic_traits<unsigned int>::_Rank
CONST	ENDS
;	COMDAT ?_Rank@?$_Arithmetic_traits@H@std@@2HB
CONST	SEGMENT
?_Rank@?$_Arithmetic_traits@H@std@@2HB DD 04H		; std::_Arithmetic_traits<int>::_Rank
CONST	ENDS
;	COMDAT ?_Rank@?$_Arithmetic_traits@G@std@@2HB
CONST	SEGMENT
?_Rank@?$_Arithmetic_traits@G@std@@2HB DD 03H		; std::_Arithmetic_traits<unsigned short>::_Rank
CONST	ENDS
;	COMDAT ?_Rank@?$_Arithmetic_traits@F@std@@2HB
CONST	SEGMENT
?_Rank@?$_Arithmetic_traits@F@std@@2HB DD 03H		; std::_Arithmetic_traits<short>::_Rank
CONST	ENDS
;	COMDAT ?_Rank@?$_Arithmetic_traits@E@std@@2HB
CONST	SEGMENT
?_Rank@?$_Arithmetic_traits@E@std@@2HB DD 02H		; std::_Arithmetic_traits<unsigned char>::_Rank
CONST	ENDS
;	COMDAT ?_Rank@?$_Arithmetic_traits@C@std@@2HB
CONST	SEGMENT
?_Rank@?$_Arithmetic_traits@C@std@@2HB DD 02H		; std::_Arithmetic_traits<signed char>::_Rank
CONST	ENDS
;	COMDAT ?_Rank@?$_Arithmetic_traits@D@std@@2HB
CONST	SEGMENT
?_Rank@?$_Arithmetic_traits@D@std@@2HB DD 02H		; std::_Arithmetic_traits<char>::_Rank
CONST	ENDS
;	COMDAT ?_Rank@?$_Arithmetic_traits@_N@std@@2HB
CONST	SEGMENT
?_Rank@?$_Arithmetic_traits@_N@std@@2HB DD 01H		; std::_Arithmetic_traits<bool>::_Rank
CONST	ENDS
;	COMDAT ?value@?$integral_constant@I$0A@@tr1@std@@2IB
CONST	SEGMENT
?value@?$integral_constant@I$0A@@tr1@std@@2IB DD 00H	; std::tr1::integral_constant<unsigned int,0>::value
CONST	ENDS
;	COMDAT ?value@?$integral_constant@_N$00@tr1@std@@2_NB
CONST	SEGMENT
?value@?$integral_constant@_N$00@tr1@std@@2_NB DB 01H	; std::tr1::integral_constant<bool,1>::value
CONST	ENDS
;	COMDAT ?value@?$integral_constant@_N$0A@@tr1@std@@2_NB
CONST	SEGMENT
?value@?$integral_constant@_N$0A@@tr1@std@@2_NB DB 00H	; std::tr1::integral_constant<bool,0>::value
CONST	ENDS
;	COMDAT ?min_exponent10@?$numeric_limits@O@std@@2HB
CONST	SEGMENT
?min_exponent10@?$numeric_limits@O@std@@2HB DD 0fffffecdH ; std::numeric_limits<long double>::min_exponent10
CONST	ENDS
;	COMDAT ?min_exponent@?$numeric_limits@O@std@@2HB
CONST	SEGMENT
?min_exponent@?$numeric_limits@O@std@@2HB DD 0fffffc03H	; std::numeric_limits<long double>::min_exponent
CONST	ENDS
;	COMDAT ?max_exponent10@?$numeric_limits@O@std@@2HB
CONST	SEGMENT
?max_exponent10@?$numeric_limits@O@std@@2HB DD 0134H	; std::numeric_limits<long double>::max_exponent10
CONST	ENDS
;	COMDAT ?max_exponent@?$numeric_limits@O@std@@2HB
CONST	SEGMENT
?max_exponent@?$numeric_limits@O@std@@2HB DD 0400H	; std::numeric_limits<long double>::max_exponent
CONST	ENDS
;	COMDAT ?max_digits10@?$numeric_limits@O@std@@2HB
CONST	SEGMENT
?max_digits10@?$numeric_limits@O@std@@2HB DD 011H	; std::numeric_limits<long double>::max_digits10
CONST	ENDS
;	COMDAT ?digits10@?$numeric_limits@O@std@@2HB
CONST	SEGMENT
?digits10@?$numeric_limits@O@std@@2HB DD 0fH		; std::numeric_limits<long double>::digits10
CONST	ENDS
;	COMDAT ?digits@?$numeric_limits@O@std@@2HB
CONST	SEGMENT
?digits@?$numeric_limits@O@std@@2HB DD 035H		; std::numeric_limits<long double>::digits
CONST	ENDS
;	COMDAT ?min_exponent10@?$numeric_limits@N@std@@2HB
CONST	SEGMENT
?min_exponent10@?$numeric_limits@N@std@@2HB DD 0fffffecdH ; std::numeric_limits<double>::min_exponent10
CONST	ENDS
;	COMDAT ?min_exponent@?$numeric_limits@N@std@@2HB
CONST	SEGMENT
?min_exponent@?$numeric_limits@N@std@@2HB DD 0fffffc03H	; std::numeric_limits<double>::min_exponent
CONST	ENDS
;	COMDAT ?max_exponent10@?$numeric_limits@N@std@@2HB
CONST	SEGMENT
?max_exponent10@?$numeric_limits@N@std@@2HB DD 0134H	; std::numeric_limits<double>::max_exponent10
CONST	ENDS
;	COMDAT ?max_exponent@?$numeric_limits@N@std@@2HB
CONST	SEGMENT
?max_exponent@?$numeric_limits@N@std@@2HB DD 0400H	; std::numeric_limits<double>::max_exponent
CONST	ENDS
;	COMDAT ?max_digits10@?$numeric_limits@N@std@@2HB
CONST	SEGMENT
?max_digits10@?$numeric_limits@N@std@@2HB DD 011H	; std::numeric_limits<double>::max_digits10
CONST	ENDS
;	COMDAT ?digits10@?$numeric_limits@N@std@@2HB
CONST	SEGMENT
?digits10@?$numeric_limits@N@std@@2HB DD 0fH		; std::numeric_limits<double>::digits10
CONST	ENDS
;	COMDAT ?digits@?$numeric_limits@N@std@@2HB
CONST	SEGMENT
?digits@?$numeric_limits@N@std@@2HB DD 035H		; std::numeric_limits<double>::digits
CONST	ENDS
;	COMDAT ?min_exponent10@?$numeric_limits@M@std@@2HB
CONST	SEGMENT
?min_exponent10@?$numeric_limits@M@std@@2HB DD 0ffffffdbH ; std::numeric_limits<float>::min_exponent10
CONST	ENDS
;	COMDAT ?min_exponent@?$numeric_limits@M@std@@2HB
CONST	SEGMENT
?min_exponent@?$numeric_limits@M@std@@2HB DD 0ffffff83H	; std::numeric_limits<float>::min_exponent
CONST	ENDS
;	COMDAT ?max_exponent10@?$numeric_limits@M@std@@2HB
CONST	SEGMENT
?max_exponent10@?$numeric_limits@M@std@@2HB DD 026H	; std::numeric_limits<float>::max_exponent10
CONST	ENDS
;	COMDAT ?max_exponent@?$numeric_limits@M@std@@2HB
CONST	SEGMENT
?max_exponent@?$numeric_limits@M@std@@2HB DD 080H	; std::numeric_limits<float>::max_exponent
CONST	ENDS
;	COMDAT ?max_digits10@?$numeric_limits@M@std@@2HB
CONST	SEGMENT
?max_digits10@?$numeric_limits@M@std@@2HB DD 08H	; std::numeric_limits<float>::max_digits10
CONST	ENDS
;	COMDAT ?digits10@?$numeric_limits@M@std@@2HB
CONST	SEGMENT
?digits10@?$numeric_limits@M@std@@2HB DD 06H		; std::numeric_limits<float>::digits10
CONST	ENDS
;	COMDAT ?digits@?$numeric_limits@M@std@@2HB
CONST	SEGMENT
?digits@?$numeric_limits@M@std@@2HB DD 018H		; std::numeric_limits<float>::digits
CONST	ENDS
;	COMDAT ?max_digits10@?$numeric_limits@_K@std@@2HB
CONST	SEGMENT
?max_digits10@?$numeric_limits@_K@std@@2HB DD 015H	; std::numeric_limits<unsigned __int64>::max_digits10
CONST	ENDS
;	COMDAT ?digits10@?$numeric_limits@_K@std@@2HB
CONST	SEGMENT
?digits10@?$numeric_limits@_K@std@@2HB DD 013H		; std::numeric_limits<unsigned __int64>::digits10
CONST	ENDS
;	COMDAT ?digits@?$numeric_limits@_K@std@@2HB
CONST	SEGMENT
?digits@?$numeric_limits@_K@std@@2HB DD 040H		; std::numeric_limits<unsigned __int64>::digits
CONST	ENDS
;	COMDAT ?is_signed@?$numeric_limits@_K@std@@2_NB
CONST	SEGMENT
?is_signed@?$numeric_limits@_K@std@@2_NB DB 00H		; std::numeric_limits<unsigned __int64>::is_signed
CONST	ENDS
;	COMDAT ?max_digits10@?$numeric_limits@_J@std@@2HB
CONST	SEGMENT
?max_digits10@?$numeric_limits@_J@std@@2HB DD 014H	; std::numeric_limits<__int64>::max_digits10
CONST	ENDS
;	COMDAT ?digits10@?$numeric_limits@_J@std@@2HB
CONST	SEGMENT
?digits10@?$numeric_limits@_J@std@@2HB DD 012H		; std::numeric_limits<__int64>::digits10
CONST	ENDS
;	COMDAT ?digits@?$numeric_limits@_J@std@@2HB
CONST	SEGMENT
?digits@?$numeric_limits@_J@std@@2HB DD 03fH		; std::numeric_limits<__int64>::digits
CONST	ENDS
;	COMDAT ?is_signed@?$numeric_limits@_J@std@@2_NB
CONST	SEGMENT
?is_signed@?$numeric_limits@_J@std@@2_NB DB 01H		; std::numeric_limits<__int64>::is_signed
CONST	ENDS
;	COMDAT ?max_digits10@?$numeric_limits@K@std@@2HB
CONST	SEGMENT
?max_digits10@?$numeric_limits@K@std@@2HB DD 0bH	; std::numeric_limits<unsigned long>::max_digits10
CONST	ENDS
;	COMDAT ?digits10@?$numeric_limits@K@std@@2HB
CONST	SEGMENT
?digits10@?$numeric_limits@K@std@@2HB DD 09H		; std::numeric_limits<unsigned long>::digits10
CONST	ENDS
;	COMDAT ?digits@?$numeric_limits@K@std@@2HB
CONST	SEGMENT
?digits@?$numeric_limits@K@std@@2HB DD 020H		; std::numeric_limits<unsigned long>::digits
CONST	ENDS
;	COMDAT ?is_signed@?$numeric_limits@K@std@@2_NB
CONST	SEGMENT
?is_signed@?$numeric_limits@K@std@@2_NB DB 00H		; std::numeric_limits<unsigned long>::is_signed
CONST	ENDS
;	COMDAT ?max_digits10@?$numeric_limits@J@std@@2HB
CONST	SEGMENT
?max_digits10@?$numeric_limits@J@std@@2HB DD 0bH	; std::numeric_limits<long>::max_digits10
CONST	ENDS
;	COMDAT ?digits10@?$numeric_limits@J@std@@2HB
CONST	SEGMENT
?digits10@?$numeric_limits@J@std@@2HB DD 09H		; std::numeric_limits<long>::digits10
CONST	ENDS
;	COMDAT ?digits@?$numeric_limits@J@std@@2HB
CONST	SEGMENT
?digits@?$numeric_limits@J@std@@2HB DD 01fH		; std::numeric_limits<long>::digits
CONST	ENDS
;	COMDAT ?is_signed@?$numeric_limits@J@std@@2_NB
CONST	SEGMENT
?is_signed@?$numeric_limits@J@std@@2_NB DB 01H		; std::numeric_limits<long>::is_signed
CONST	ENDS
;	COMDAT ?max_digits10@?$numeric_limits@I@std@@2HB
CONST	SEGMENT
?max_digits10@?$numeric_limits@I@std@@2HB DD 0bH	; std::numeric_limits<unsigned int>::max_digits10
CONST	ENDS
;	COMDAT ?digits10@?$numeric_limits@I@std@@2HB
CONST	SEGMENT
?digits10@?$numeric_limits@I@std@@2HB DD 09H		; std::numeric_limits<unsigned int>::digits10
CONST	ENDS
;	COMDAT ?digits@?$numeric_limits@I@std@@2HB
CONST	SEGMENT
?digits@?$numeric_limits@I@std@@2HB DD 020H		; std::numeric_limits<unsigned int>::digits
CONST	ENDS
;	COMDAT ?is_signed@?$numeric_limits@I@std@@2_NB
CONST	SEGMENT
?is_signed@?$numeric_limits@I@std@@2_NB DB 00H		; std::numeric_limits<unsigned int>::is_signed
CONST	ENDS
;	COMDAT ?max_digits10@?$numeric_limits@H@std@@2HB
CONST	SEGMENT
?max_digits10@?$numeric_limits@H@std@@2HB DD 0bH	; std::numeric_limits<int>::max_digits10
CONST	ENDS
;	COMDAT ?digits10@?$numeric_limits@H@std@@2HB
CONST	SEGMENT
?digits10@?$numeric_limits@H@std@@2HB DD 09H		; std::numeric_limits<int>::digits10
CONST	ENDS
;	COMDAT ?digits@?$numeric_limits@H@std@@2HB
CONST	SEGMENT
?digits@?$numeric_limits@H@std@@2HB DD 01fH		; std::numeric_limits<int>::digits
CONST	ENDS
;	COMDAT ?is_signed@?$numeric_limits@H@std@@2_NB
CONST	SEGMENT
?is_signed@?$numeric_limits@H@std@@2_NB DB 01H		; std::numeric_limits<int>::is_signed
CONST	ENDS
;	COMDAT ?max_digits10@?$numeric_limits@G@std@@2HB
CONST	SEGMENT
?max_digits10@?$numeric_limits@G@std@@2HB DD 06H	; std::numeric_limits<unsigned short>::max_digits10
CONST	ENDS
;	COMDAT ?digits10@?$numeric_limits@G@std@@2HB
CONST	SEGMENT
?digits10@?$numeric_limits@G@std@@2HB DD 04H		; std::numeric_limits<unsigned short>::digits10
CONST	ENDS
;	COMDAT ?digits@?$numeric_limits@G@std@@2HB
CONST	SEGMENT
?digits@?$numeric_limits@G@std@@2HB DD 010H		; std::numeric_limits<unsigned short>::digits
CONST	ENDS
;	COMDAT ?is_signed@?$numeric_limits@G@std@@2_NB
CONST	SEGMENT
?is_signed@?$numeric_limits@G@std@@2_NB DB 00H		; std::numeric_limits<unsigned short>::is_signed
CONST	ENDS
;	COMDAT ?max_digits10@?$numeric_limits@F@std@@2HB
CONST	SEGMENT
?max_digits10@?$numeric_limits@F@std@@2HB DD 06H	; std::numeric_limits<short>::max_digits10
CONST	ENDS
;	COMDAT ?digits10@?$numeric_limits@F@std@@2HB
CONST	SEGMENT
?digits10@?$numeric_limits@F@std@@2HB DD 04H		; std::numeric_limits<short>::digits10
CONST	ENDS
;	COMDAT ?digits@?$numeric_limits@F@std@@2HB
CONST	SEGMENT
?digits@?$numeric_limits@F@std@@2HB DD 0fH		; std::numeric_limits<short>::digits
CONST	ENDS
;	COMDAT ?is_signed@?$numeric_limits@F@std@@2_NB
CONST	SEGMENT
?is_signed@?$numeric_limits@F@std@@2_NB DB 01H		; std::numeric_limits<short>::is_signed
CONST	ENDS
;	COMDAT ?max_digits10@?$numeric_limits@E@std@@2HB
CONST	SEGMENT
?max_digits10@?$numeric_limits@E@std@@2HB DD 04H	; std::numeric_limits<unsigned char>::max_digits10
CONST	ENDS
;	COMDAT ?digits10@?$numeric_limits@E@std@@2HB
CONST	SEGMENT
?digits10@?$numeric_limits@E@std@@2HB DD 02H		; std::numeric_limits<unsigned char>::digits10
CONST	ENDS
;	COMDAT ?digits@?$numeric_limits@E@std@@2HB
CONST	SEGMENT
?digits@?$numeric_limits@E@std@@2HB DD 08H		; std::numeric_limits<unsigned char>::digits
CONST	ENDS
;	COMDAT ?is_signed@?$numeric_limits@E@std@@2_NB
CONST	SEGMENT
?is_signed@?$numeric_limits@E@std@@2_NB DB 00H		; std::numeric_limits<unsigned char>::is_signed
CONST	ENDS
;	COMDAT ?max_digits10@?$numeric_limits@C@std@@2HB
CONST	SEGMENT
?max_digits10@?$numeric_limits@C@std@@2HB DD 04H	; std::numeric_limits<signed char>::max_digits10
CONST	ENDS
;	COMDAT ?digits10@?$numeric_limits@C@std@@2HB
CONST	SEGMENT
?digits10@?$numeric_limits@C@std@@2HB DD 02H		; std::numeric_limits<signed char>::digits10
CONST	ENDS
;	COMDAT ?digits@?$numeric_limits@C@std@@2HB
CONST	SEGMENT
?digits@?$numeric_limits@C@std@@2HB DD 07H		; std::numeric_limits<signed char>::digits
CONST	ENDS
;	COMDAT ?is_signed@?$numeric_limits@C@std@@2_NB
CONST	SEGMENT
?is_signed@?$numeric_limits@C@std@@2_NB DB 01H		; std::numeric_limits<signed char>::is_signed
CONST	ENDS
;	COMDAT ?max_digits10@?$numeric_limits@_N@std@@2HB
CONST	SEGMENT
?max_digits10@?$numeric_limits@_N@std@@2HB DD 00H	; std::numeric_limits<bool>::max_digits10
CONST	ENDS
;	COMDAT ?digits10@?$numeric_limits@_N@std@@2HB
CONST	SEGMENT
?digits10@?$numeric_limits@_N@std@@2HB DD 00H		; std::numeric_limits<bool>::digits10
CONST	ENDS
;	COMDAT ?digits@?$numeric_limits@_N@std@@2HB
CONST	SEGMENT
?digits@?$numeric_limits@_N@std@@2HB DD 01H		; std::numeric_limits<bool>::digits
CONST	ENDS
;	COMDAT ?is_signed@?$numeric_limits@_N@std@@2_NB
CONST	SEGMENT
?is_signed@?$numeric_limits@_N@std@@2_NB DB 00H		; std::numeric_limits<bool>::is_signed
CONST	ENDS
;	COMDAT ?is_modulo@?$numeric_limits@_N@std@@2_NB
CONST	SEGMENT
?is_modulo@?$numeric_limits@_N@std@@2_NB DB 00H		; std::numeric_limits<bool>::is_modulo
CONST	ENDS
;	COMDAT ?max_digits10@?$numeric_limits@_W@std@@2HB
CONST	SEGMENT
?max_digits10@?$numeric_limits@_W@std@@2HB DD 06H	; std::numeric_limits<wchar_t>::max_digits10
CONST	ENDS
;	COMDAT ?digits10@?$numeric_limits@_W@std@@2HB
CONST	SEGMENT
?digits10@?$numeric_limits@_W@std@@2HB DD 04H		; std::numeric_limits<wchar_t>::digits10
CONST	ENDS
;	COMDAT ?digits@?$numeric_limits@_W@std@@2HB
CONST	SEGMENT
?digits@?$numeric_limits@_W@std@@2HB DD 010H		; std::numeric_limits<wchar_t>::digits
CONST	ENDS
;	COMDAT ?is_signed@?$numeric_limits@_W@std@@2_NB
CONST	SEGMENT
?is_signed@?$numeric_limits@_W@std@@2_NB DB 00H		; std::numeric_limits<wchar_t>::is_signed
CONST	ENDS
;	COMDAT ?max_digits10@?$numeric_limits@D@std@@2HB
CONST	SEGMENT
?max_digits10@?$numeric_limits@D@std@@2HB DD 04H	; std::numeric_limits<char>::max_digits10
CONST	ENDS
;	COMDAT ?digits10@?$numeric_limits@D@std@@2HB
CONST	SEGMENT
?digits10@?$numeric_limits@D@std@@2HB DD 02H		; std::numeric_limits<char>::digits10
CONST	ENDS
;	COMDAT ?digits@?$numeric_limits@D@std@@2HB
CONST	SEGMENT
?digits@?$numeric_limits@D@std@@2HB DD 07H		; std::numeric_limits<char>::digits
CONST	ENDS
;	COMDAT ?is_signed@?$numeric_limits@D@std@@2_NB
CONST	SEGMENT
?is_signed@?$numeric_limits@D@std@@2_NB DB 01H		; std::numeric_limits<char>::is_signed
CONST	ENDS
;	COMDAT ?radix@_Num_float_base@std@@2HB
CONST	SEGMENT
?radix@_Num_float_base@std@@2HB DD 02H			; std::_Num_float_base::radix
CONST	ENDS
;	COMDAT ?round_style@_Num_float_base@std@@2W4float_round_style@2@B
CONST	SEGMENT
?round_style@_Num_float_base@std@@2W4float_round_style@2@B DD 01H ; std::_Num_float_base::round_style
CONST	ENDS
;	COMDAT ?traps@_Num_float_base@std@@2_NB
CONST	SEGMENT
?traps@_Num_float_base@std@@2_NB DB 01H			; std::_Num_float_base::traps
CONST	ENDS
;	COMDAT ?tinyness_before@_Num_float_base@std@@2_NB
CONST	SEGMENT
?tinyness_before@_Num_float_base@std@@2_NB DB 01H	; std::_Num_float_base::tinyness_before
CONST	ENDS
;	COMDAT ?is_specialized@_Num_float_base@std@@2_NB
CONST	SEGMENT
?is_specialized@_Num_float_base@std@@2_NB DB 01H	; std::_Num_float_base::is_specialized
CONST	ENDS
;	COMDAT ?is_signed@_Num_float_base@std@@2_NB
CONST	SEGMENT
?is_signed@_Num_float_base@std@@2_NB DB 01H		; std::_Num_float_base::is_signed
CONST	ENDS
;	COMDAT ?is_modulo@_Num_float_base@std@@2_NB
CONST	SEGMENT
?is_modulo@_Num_float_base@std@@2_NB DB 00H		; std::_Num_float_base::is_modulo
CONST	ENDS
;	COMDAT ?is_integer@_Num_float_base@std@@2_NB
CONST	SEGMENT
?is_integer@_Num_float_base@std@@2_NB DB 00H		; std::_Num_float_base::is_integer
CONST	ENDS
;	COMDAT ?is_iec559@_Num_float_base@std@@2_NB
CONST	SEGMENT
?is_iec559@_Num_float_base@std@@2_NB DB 01H		; std::_Num_float_base::is_iec559
CONST	ENDS
;	COMDAT ?is_exact@_Num_float_base@std@@2_NB
CONST	SEGMENT
?is_exact@_Num_float_base@std@@2_NB DB 00H		; std::_Num_float_base::is_exact
CONST	ENDS
;	COMDAT ?is_bounded@_Num_float_base@std@@2_NB
CONST	SEGMENT
?is_bounded@_Num_float_base@std@@2_NB DB 01H		; std::_Num_float_base::is_bounded
CONST	ENDS
;	COMDAT ?has_signaling_NaN@_Num_float_base@std@@2_NB
CONST	SEGMENT
?has_signaling_NaN@_Num_float_base@std@@2_NB DB 01H	; std::_Num_float_base::has_signaling_NaN
CONST	ENDS
;	COMDAT ?has_quiet_NaN@_Num_float_base@std@@2_NB
CONST	SEGMENT
?has_quiet_NaN@_Num_float_base@std@@2_NB DB 01H		; std::_Num_float_base::has_quiet_NaN
CONST	ENDS
;	COMDAT ?has_infinity@_Num_float_base@std@@2_NB
CONST	SEGMENT
?has_infinity@_Num_float_base@std@@2_NB DB 01H		; std::_Num_float_base::has_infinity
CONST	ENDS
;	COMDAT ?has_denorm_loss@_Num_float_base@std@@2_NB
CONST	SEGMENT
?has_denorm_loss@_Num_float_base@std@@2_NB DB 01H	; std::_Num_float_base::has_denorm_loss
CONST	ENDS
;	COMDAT ?has_denorm@_Num_float_base@std@@2W4float_denorm_style@2@B
CONST	SEGMENT
?has_denorm@_Num_float_base@std@@2W4float_denorm_style@2@B DD 01H ; std::_Num_float_base::has_denorm
CONST	ENDS
;	COMDAT ?radix@_Num_int_base@std@@2HB
CONST	SEGMENT
?radix@_Num_int_base@std@@2HB DD 02H			; std::_Num_int_base::radix
CONST	ENDS
;	COMDAT ?is_specialized@_Num_int_base@std@@2_NB
CONST	SEGMENT
?is_specialized@_Num_int_base@std@@2_NB DB 01H		; std::_Num_int_base::is_specialized
CONST	ENDS
;	COMDAT ?is_modulo@_Num_int_base@std@@2_NB
CONST	SEGMENT
?is_modulo@_Num_int_base@std@@2_NB DB 01H		; std::_Num_int_base::is_modulo
CONST	ENDS
;	COMDAT ?is_integer@_Num_int_base@std@@2_NB
CONST	SEGMENT
?is_integer@_Num_int_base@std@@2_NB DB 01H		; std::_Num_int_base::is_integer
CONST	ENDS
;	COMDAT ?is_exact@_Num_int_base@std@@2_NB
CONST	SEGMENT
?is_exact@_Num_int_base@std@@2_NB DB 01H		; std::_Num_int_base::is_exact
CONST	ENDS
;	COMDAT ?is_bounded@_Num_int_base@std@@2_NB
CONST	SEGMENT
?is_bounded@_Num_int_base@std@@2_NB DB 01H		; std::_Num_int_base::is_bounded
CONST	ENDS
;	COMDAT ?radix@_Num_base@std@@2HB
CONST	SEGMENT
?radix@_Num_base@std@@2HB DD 00H			; std::_Num_base::radix
CONST	ENDS
;	COMDAT ?min_exponent10@_Num_base@std@@2HB
CONST	SEGMENT
?min_exponent10@_Num_base@std@@2HB DD 00H		; std::_Num_base::min_exponent10
CONST	ENDS
;	COMDAT ?min_exponent@_Num_base@std@@2HB
CONST	SEGMENT
?min_exponent@_Num_base@std@@2HB DD 00H			; std::_Num_base::min_exponent
CONST	ENDS
;	COMDAT ?max_exponent10@_Num_base@std@@2HB
CONST	SEGMENT
?max_exponent10@_Num_base@std@@2HB DD 00H		; std::_Num_base::max_exponent10
CONST	ENDS
;	COMDAT ?max_exponent@_Num_base@std@@2HB
CONST	SEGMENT
?max_exponent@_Num_base@std@@2HB DD 00H			; std::_Num_base::max_exponent
CONST	ENDS
;	COMDAT ?max_digits10@_Num_base@std@@2HB
CONST	SEGMENT
?max_digits10@_Num_base@std@@2HB DD 00H			; std::_Num_base::max_digits10
CONST	ENDS
;	COMDAT ?digits10@_Num_base@std@@2HB
CONST	SEGMENT
?digits10@_Num_base@std@@2HB DD 00H			; std::_Num_base::digits10
CONST	ENDS
;	COMDAT ?digits@_Num_base@std@@2HB
CONST	SEGMENT
?digits@_Num_base@std@@2HB DD 00H			; std::_Num_base::digits
CONST	ENDS
;	COMDAT ?round_style@_Num_base@std@@2W4float_round_style@2@B
CONST	SEGMENT
?round_style@_Num_base@std@@2W4float_round_style@2@B DD 00H ; std::_Num_base::round_style
CONST	ENDS
;	COMDAT ?traps@_Num_base@std@@2_NB
CONST	SEGMENT
?traps@_Num_base@std@@2_NB DB 00H			; std::_Num_base::traps
CONST	ENDS
;	COMDAT ?tinyness_before@_Num_base@std@@2_NB
CONST	SEGMENT
?tinyness_before@_Num_base@std@@2_NB DB 00H		; std::_Num_base::tinyness_before
CONST	ENDS
;	COMDAT ?is_specialized@_Num_base@std@@2_NB
CONST	SEGMENT
?is_specialized@_Num_base@std@@2_NB DB 00H		; std::_Num_base::is_specialized
CONST	ENDS
;	COMDAT ?is_signed@_Num_base@std@@2_NB
CONST	SEGMENT
?is_signed@_Num_base@std@@2_NB DB 00H			; std::_Num_base::is_signed
CONST	ENDS
;	COMDAT ?is_modulo@_Num_base@std@@2_NB
CONST	SEGMENT
?is_modulo@_Num_base@std@@2_NB DB 00H			; std::_Num_base::is_modulo
CONST	ENDS
;	COMDAT ?is_integer@_Num_base@std@@2_NB
CONST	SEGMENT
?is_integer@_Num_base@std@@2_NB DB 00H			; std::_Num_base::is_integer
CONST	ENDS
;	COMDAT ?is_iec559@_Num_base@std@@2_NB
CONST	SEGMENT
?is_iec559@_Num_base@std@@2_NB DB 00H			; std::_Num_base::is_iec559
CONST	ENDS
;	COMDAT ?is_exact@_Num_base@std@@2_NB
CONST	SEGMENT
?is_exact@_Num_base@std@@2_NB DB 00H			; std::_Num_base::is_exact
CONST	ENDS
;	COMDAT ?is_bounded@_Num_base@std@@2_NB
CONST	SEGMENT
?is_bounded@_Num_base@std@@2_NB DB 00H			; std::_Num_base::is_bounded
CONST	ENDS
;	COMDAT ?has_signaling_NaN@_Num_base@std@@2_NB
CONST	SEGMENT
?has_signaling_NaN@_Num_base@std@@2_NB DB 00H		; std::_Num_base::has_signaling_NaN
CONST	ENDS
;	COMDAT ?has_quiet_NaN@_Num_base@std@@2_NB
CONST	SEGMENT
?has_quiet_NaN@_Num_base@std@@2_NB DB 00H		; std::_Num_base::has_quiet_NaN
CONST	ENDS
;	COMDAT ?has_infinity@_Num_base@std@@2_NB
CONST	SEGMENT
?has_infinity@_Num_base@std@@2_NB DB 00H		; std::_Num_base::has_infinity
CONST	ENDS
;	COMDAT ?has_denorm_loss@_Num_base@std@@2_NB
CONST	SEGMENT
?has_denorm_loss@_Num_base@std@@2_NB DB 00H		; std::_Num_base::has_denorm_loss
CONST	ENDS
;	COMDAT ?has_denorm@_Num_base@std@@2W4float_denorm_style@2@B
CONST	SEGMENT
?has_denorm@_Num_base@std@@2W4float_denorm_style@2@B DD 00H ; std::_Num_base::has_denorm
CONST	ENDS
PUBLIC	??0GetWeaponGoal_Evaluator@@QAE@NH@Z		; GetWeaponGoal_Evaluator::GetWeaponGoal_Evaluator
PUBLIC	??0AttackTargetGoal_Evaluator@@QAE@N@Z		; AttackTargetGoal_Evaluator::AttackTargetGoal_Evaluator
PUBLIC	??0ExploreGoal_Evaluator@@QAE@N@Z		; ExploreGoal_Evaluator::ExploreGoal_Evaluator
PUBLIC	?push_back@?$vector@PAVGoal_Evaluator@@V?$allocator@PAVGoal_Evaluator@@@std@@@std@@QAEX$$QAPAVGoal_Evaluator@@@Z ; std::vector<Goal_Evaluator *,std::allocator<Goal_Evaluator *> >::push_back
PUBLIC	??0GetHealthGoal_Evaluator@@QAE@N@Z		; GetHealthGoal_Evaluator::GetHealthGoal_Evaluator
PUBLIC	?clear@?$vector@PAVGoal_Evaluator@@V?$allocator@PAVGoal_Evaluator@@@std@@@std@@QAEXXZ ; std::vector<Goal_Evaluator *,std::allocator<Goal_Evaluator *> >::clear
PUBLIC	?GetDouble@Scriptor@@QAENPAD@Z			; Scriptor::GetDouble
PUBLIC	??_7RBGoal_Think@@6B@				; RBGoal_Think::`vftable'
PUBLIC	??0RBGoal_Think@@QAE@PAVAbstRaven_Bot@@@Z	; RBGoal_Think::RBGoal_Think
PUBLIC	??_R4RBGoal_Think@@6B@				; RBGoal_Think::`RTTI Complete Object Locator'
PUBLIC	??_R0?AVRBGoal_Think@@@8			; RBGoal_Think `RTTI Type Descriptor'
PUBLIC	??_R3RBGoal_Think@@8				; RBGoal_Think::`RTTI Class Hierarchy Descriptor'
PUBLIC	??_R2RBGoal_Think@@8				; RBGoal_Think::`RTTI Base Class Array'
PUBLIC	??_R1A@?0A@EA@RBGoal_Think@@8			; RBGoal_Think::`RTTI Base Class Descriptor at (0,-1,0,64)'
PUBLIC	??_R1A@?0A@EA@Goal_Think@@8			; Goal_Think::`RTTI Base Class Descriptor at (0,-1,0,64)'
PUBLIC	??_R0?AVGoal_Think@@@8				; Goal_Think `RTTI Type Descriptor'
PUBLIC	??_R3Goal_Think@@8				; Goal_Think::`RTTI Class Hierarchy Descriptor'
PUBLIC	??_R2Goal_Think@@8				; Goal_Think::`RTTI Base Class Array'
PUBLIC	??_R1A@?0A@EA@?$Goal_Composite@VAbstRaven_Bot@@@@8 ; Goal_Composite<AbstRaven_Bot>::`RTTI Base Class Descriptor at (0,-1,0,64)'
PUBLIC	??_R0?AV?$Goal_Composite@VAbstRaven_Bot@@@@@8	; Goal_Composite<AbstRaven_Bot> `RTTI Type Descriptor'
PUBLIC	??_R3?$Goal_Composite@VAbstRaven_Bot@@@@8	; Goal_Composite<AbstRaven_Bot>::`RTTI Class Hierarchy Descriptor'
PUBLIC	??_R2?$Goal_Composite@VAbstRaven_Bot@@@@8	; Goal_Composite<AbstRaven_Bot>::`RTTI Base Class Array'
PUBLIC	??_R1A@?0A@EA@?$Goal@VAbstRaven_Bot@@@@8	; Goal<AbstRaven_Bot>::`RTTI Base Class Descriptor at (0,-1,0,64)'
PUBLIC	??_R0?AV?$Goal@VAbstRaven_Bot@@@@@8		; Goal<AbstRaven_Bot> `RTTI Type Descriptor'
PUBLIC	??_R3?$Goal@VAbstRaven_Bot@@@@8			; Goal<AbstRaven_Bot>::`RTTI Class Hierarchy Descriptor'
PUBLIC	??_R2?$Goal@VAbstRaven_Bot@@@@8			; Goal<AbstRaven_Bot>::`RTTI Base Class Array'
PUBLIC	?Terminate@Goal_Think@@UAEXXZ			; Goal_Think::Terminate
PUBLIC	?HandleMessage@?$Goal_Composite@VAbstRaven_Bot@@@@UAE_NABUTelegram@@@Z ; Goal_Composite<AbstRaven_Bot>::HandleMessage
PUBLIC	?AddSubgoal@?$Goal_Composite@VAbstRaven_Bot@@@@UAEXPAV?$Goal@VAbstRaven_Bot@@@@@Z ; Goal_Composite<AbstRaven_Bot>::AddSubgoal
PUBLIC	?RenderAtPos@?$Goal_Composite@VAbstRaven_Bot@@@@UBEXAAUVector2D@@PAVTypeToString@@@Z ; Goal_Composite<AbstRaven_Bot>::RenderAtPos
EXTRN	??3@YAXPAX@Z:PROC				; operator delete
EXTRN	??1Goal_Think@@UAE@XZ:PROC			; Goal_Think::~Goal_Think
EXTRN	??2@YAPAXI@Z:PROC				; operator new
EXTRN	?Instance@RB_BotScriptor@@SAPAV1@XZ:PROC	; RB_BotScriptor::Instance
EXTRN	??0Goal_Think@@QAE@PAVAbstRaven_Bot@@@Z:PROC	; Goal_Think::Goal_Think
EXTRN	___security_cookie:DWORD
EXTRN	___CxxFrameHandler3:PROC
EXTRN	@__security_check_cookie@4:PROC
EXTRN	__fltused:DWORD
EXTRN	__RTC_CheckEsp:PROC
EXTRN	__RTC_Shutdown:PROC
EXTRN	__RTC_InitBase:PROC
EXTRN	??_7type_info@@6B@:QWORD			; type_info::`vftable'
EXTRN	??_ERBGoal_Think@@UAEPAXI@Z:PROC		; RBGoal_Think::`vector deleting destructor'
EXTRN	?Activate@Goal_Think@@UAEXXZ:PROC		; Goal_Think::Activate
EXTRN	?Process@Goal_Think@@UAEHXZ:PROC		; Goal_Think::Process
EXTRN	?Render@Goal_Think@@UAEXXZ:PROC			; Goal_Think::Render
EXTRN	?Arbitrate@Goal_Think@@UAEXXZ:PROC		; Goal_Think::Arbitrate
EXTRN	?AddGoal_MoveToPosition@Goal_Think@@UAEXUVector2D@@@Z:PROC ; Goal_Think::AddGoal_MoveToPosition
EXTRN	?AddGoal_GetItem@Goal_Think@@UAEXI@Z:PROC	; Goal_Think::AddGoal_GetItem
EXTRN	?AddGoal_Explore@Goal_Think@@UAEXXZ:PROC	; Goal_Think::AddGoal_Explore
EXTRN	?AddGoal_AttackTarget@Goal_Think@@UAEXXZ:PROC	; Goal_Think::AddGoal_AttackTarget
EXTRN	?QueueGoal_MoveToPosition@Goal_Think@@UAEXUVector2D@@@Z:PROC ; Goal_Think::QueueGoal_MoveToPosition
;	COMDAT ??_R2?$Goal@VAbstRaven_Bot@@@@8
; File c:\users\teaja\documents\artificial-fun\labravenprojecttest\raven\bots\rbbot\rbgoal_think.cpp
rdata$r	SEGMENT
??_R2?$Goal@VAbstRaven_Bot@@@@8 DD FLAT:??_R1A@?0A@EA@?$Goal@VAbstRaven_Bot@@@@8 ; Goal<AbstRaven_Bot>::`RTTI Base Class Array'
rdata$r	ENDS
;	COMDAT ??_R3?$Goal@VAbstRaven_Bot@@@@8
rdata$r	SEGMENT
??_R3?$Goal@VAbstRaven_Bot@@@@8 DD 00H			; Goal<AbstRaven_Bot>::`RTTI Class Hierarchy Descriptor'
	DD	00H
	DD	01H
	DD	FLAT:??_R2?$Goal@VAbstRaven_Bot@@@@8
rdata$r	ENDS
;	COMDAT ??_R0?AV?$Goal@VAbstRaven_Bot@@@@@8
_DATA	SEGMENT
??_R0?AV?$Goal@VAbstRaven_Bot@@@@@8 DD FLAT:??_7type_info@@6B@ ; Goal<AbstRaven_Bot> `RTTI Type Descriptor'
	DD	00H
	DB	'.?AV?$Goal@VAbstRaven_Bot@@@@', 00H
_DATA	ENDS
;	COMDAT ??_R1A@?0A@EA@?$Goal@VAbstRaven_Bot@@@@8
rdata$r	SEGMENT
??_R1A@?0A@EA@?$Goal@VAbstRaven_Bot@@@@8 DD FLAT:??_R0?AV?$Goal@VAbstRaven_Bot@@@@@8 ; Goal<AbstRaven_Bot>::`RTTI Base Class Descriptor at (0,-1,0,64)'
	DD	00H
	DD	00H
	DD	0ffffffffH
	DD	00H
	DD	040H
	DD	FLAT:??_R3?$Goal@VAbstRaven_Bot@@@@8
rdata$r	ENDS
;	COMDAT ??_R2?$Goal_Composite@VAbstRaven_Bot@@@@8
rdata$r	SEGMENT
??_R2?$Goal_Composite@VAbstRaven_Bot@@@@8 DD FLAT:??_R1A@?0A@EA@?$Goal_Composite@VAbstRaven_Bot@@@@8 ; Goal_Composite<AbstRaven_Bot>::`RTTI Base Class Array'
	DD	FLAT:??_R1A@?0A@EA@?$Goal@VAbstRaven_Bot@@@@8
rdata$r	ENDS
;	COMDAT ??_R3?$Goal_Composite@VAbstRaven_Bot@@@@8
rdata$r	SEGMENT
??_R3?$Goal_Composite@VAbstRaven_Bot@@@@8 DD 00H	; Goal_Composite<AbstRaven_Bot>::`RTTI Class Hierarchy Descriptor'
	DD	00H
	DD	02H
	DD	FLAT:??_R2?$Goal_Composite@VAbstRaven_Bot@@@@8
rdata$r	ENDS
;	COMDAT ??_R0?AV?$Goal_Composite@VAbstRaven_Bot@@@@@8
_DATA	SEGMENT
??_R0?AV?$Goal_Composite@VAbstRaven_Bot@@@@@8 DD FLAT:??_7type_info@@6B@ ; Goal_Composite<AbstRaven_Bot> `RTTI Type Descriptor'
	DD	00H
	DB	'.?AV?$Goal_Composite@VAbstRaven_Bot@@@@', 00H
_DATA	ENDS
;	COMDAT ??_R1A@?0A@EA@?$Goal_Composite@VAbstRaven_Bot@@@@8
rdata$r	SEGMENT
??_R1A@?0A@EA@?$Goal_Composite@VAbstRaven_Bot@@@@8 DD FLAT:??_R0?AV?$Goal_Composite@VAbstRaven_Bot@@@@@8 ; Goal_Composite<AbstRaven_Bot>::`RTTI Base Class Descriptor at (0,-1,0,64)'
	DD	01H
	DD	00H
	DD	0ffffffffH
	DD	00H
	DD	040H
	DD	FLAT:??_R3?$Goal_Composite@VAbstRaven_Bot@@@@8
rdata$r	ENDS
;	COMDAT ??_R2Goal_Think@@8
rdata$r	SEGMENT
??_R2Goal_Think@@8 DD FLAT:??_R1A@?0A@EA@Goal_Think@@8	; Goal_Think::`RTTI Base Class Array'
	DD	FLAT:??_R1A@?0A@EA@?$Goal_Composite@VAbstRaven_Bot@@@@8
	DD	FLAT:??_R1A@?0A@EA@?$Goal@VAbstRaven_Bot@@@@8
rdata$r	ENDS
;	COMDAT ??_R3Goal_Think@@8
rdata$r	SEGMENT
??_R3Goal_Think@@8 DD 00H				; Goal_Think::`RTTI Class Hierarchy Descriptor'
	DD	00H
	DD	03H
	DD	FLAT:??_R2Goal_Think@@8
rdata$r	ENDS
;	COMDAT ??_R0?AVGoal_Think@@@8
_DATA	SEGMENT
??_R0?AVGoal_Think@@@8 DD FLAT:??_7type_info@@6B@	; Goal_Think `RTTI Type Descriptor'
	DD	00H
	DB	'.?AVGoal_Think@@', 00H
_DATA	ENDS
;	COMDAT ??_R1A@?0A@EA@Goal_Think@@8
rdata$r	SEGMENT
??_R1A@?0A@EA@Goal_Think@@8 DD FLAT:??_R0?AVGoal_Think@@@8 ; Goal_Think::`RTTI Base Class Descriptor at (0,-1,0,64)'
	DD	02H
	DD	00H
	DD	0ffffffffH
	DD	00H
	DD	040H
	DD	FLAT:??_R3Goal_Think@@8
rdata$r	ENDS
;	COMDAT ??_R1A@?0A@EA@RBGoal_Think@@8
rdata$r	SEGMENT
??_R1A@?0A@EA@RBGoal_Think@@8 DD FLAT:??_R0?AVRBGoal_Think@@@8 ; RBGoal_Think::`RTTI Base Class Descriptor at (0,-1,0,64)'
	DD	03H
	DD	00H
	DD	0ffffffffH
	DD	00H
	DD	040H
	DD	FLAT:??_R3RBGoal_Think@@8
rdata$r	ENDS
;	COMDAT ??_R2RBGoal_Think@@8
rdata$r	SEGMENT
??_R2RBGoal_Think@@8 DD FLAT:??_R1A@?0A@EA@RBGoal_Think@@8 ; RBGoal_Think::`RTTI Base Class Array'
	DD	FLAT:??_R1A@?0A@EA@Goal_Think@@8
	DD	FLAT:??_R1A@?0A@EA@?$Goal_Composite@VAbstRaven_Bot@@@@8
	DD	FLAT:??_R1A@?0A@EA@?$Goal@VAbstRaven_Bot@@@@8
rdata$r	ENDS
;	COMDAT ??_R3RBGoal_Think@@8
rdata$r	SEGMENT
??_R3RBGoal_Think@@8 DD 00H				; RBGoal_Think::`RTTI Class Hierarchy Descriptor'
	DD	00H
	DD	04H
	DD	FLAT:??_R2RBGoal_Think@@8
rdata$r	ENDS
;	COMDAT ??_R0?AVRBGoal_Think@@@8
_DATA	SEGMENT
??_R0?AVRBGoal_Think@@@8 DD FLAT:??_7type_info@@6B@	; RBGoal_Think `RTTI Type Descriptor'
	DD	00H
	DB	'.?AVRBGoal_Think@@', 00H
_DATA	ENDS
;	COMDAT ??_R4RBGoal_Think@@6B@
rdata$r	SEGMENT
??_R4RBGoal_Think@@6B@ DD 00H				; RBGoal_Think::`RTTI Complete Object Locator'
	DD	00H
	DD	00H
	DD	FLAT:??_R0?AVRBGoal_Think@@@8
	DD	FLAT:??_R3RBGoal_Think@@8
rdata$r	ENDS
;	COMDAT ??_7RBGoal_Think@@6B@
CONST	SEGMENT
??_7RBGoal_Think@@6B@ DD FLAT:??_R4RBGoal_Think@@6B@	; RBGoal_Think::`vftable'
	DD	FLAT:??_ERBGoal_Think@@UAEPAXI@Z
	DD	FLAT:?Activate@Goal_Think@@UAEXXZ
	DD	FLAT:?Process@Goal_Think@@UAEHXZ
	DD	FLAT:?Terminate@Goal_Think@@UAEXXZ
	DD	FLAT:?HandleMessage@?$Goal_Composite@VAbstRaven_Bot@@@@UAE_NABUTelegram@@@Z
	DD	FLAT:?AddSubgoal@?$Goal_Composite@VAbstRaven_Bot@@@@UAEXPAV?$Goal@VAbstRaven_Bot@@@@@Z
	DD	FLAT:?RenderAtPos@?$Goal_Composite@VAbstRaven_Bot@@@@UBEXAAUVector2D@@PAVTypeToString@@@Z
	DD	FLAT:?Render@Goal_Think@@UAEXXZ
	DD	FLAT:?Arbitrate@Goal_Think@@UAEXXZ
	DD	FLAT:?AddGoal_MoveToPosition@Goal_Think@@UAEXUVector2D@@@Z
	DD	FLAT:?AddGoal_GetItem@Goal_Think@@UAEXI@Z
	DD	FLAT:?AddGoal_Explore@Goal_Think@@UAEXXZ
	DD	FLAT:?AddGoal_AttackTarget@Goal_Think@@UAEXXZ
	DD	FLAT:?QueueGoal_MoveToPosition@Goal_Think@@UAEXUVector2D@@@Z
CONST	ENDS
xdata$x	SEGMENT
__ehfuncinfo$??0RBGoal_Think@@QAE@PAVAbstRaven_Bot@@@Z DD 019930522H
	DD	07H
	DD	FLAT:__unwindtable$??0RBGoal_Think@@QAE@PAVAbstRaven_Bot@@@Z
	DD	2 DUP(00H)
	DD	2 DUP(00H)
	DD	00H
	DD	01H
__unwindtable$??0RBGoal_Think@@QAE@PAVAbstRaven_Bot@@@Z DD 0ffffffffH
	DD	FLAT:__unwindfunclet$??0RBGoal_Think@@QAE@PAVAbstRaven_Bot@@@Z$0
	DD	00H
	DD	FLAT:__unwindfunclet$??0RBGoal_Think@@QAE@PAVAbstRaven_Bot@@@Z$1
	DD	00H
	DD	FLAT:__unwindfunclet$??0RBGoal_Think@@QAE@PAVAbstRaven_Bot@@@Z$2
	DD	00H
	DD	FLAT:__unwindfunclet$??0RBGoal_Think@@QAE@PAVAbstRaven_Bot@@@Z$3
	DD	00H
	DD	FLAT:__unwindfunclet$??0RBGoal_Think@@QAE@PAVAbstRaven_Bot@@@Z$4
	DD	00H
	DD	FLAT:__unwindfunclet$??0RBGoal_Think@@QAE@PAVAbstRaven_Bot@@@Z$5
	DD	00H
	DD	FLAT:__unwindfunclet$??0RBGoal_Think@@QAE@PAVAbstRaven_Bot@@@Z$6
xdata$x	ENDS
;	COMDAT rtc$TMZ
rtc$TMZ	SEGMENT
__RTC_Shutdown.rtc$TMZ DD FLAT:__RTC_Shutdown
rtc$TMZ	ENDS
;	COMDAT rtc$IMZ
rtc$IMZ	SEGMENT
__RTC_InitBase.rtc$IMZ DD FLAT:__RTC_InitBase
; Function compile flags: /Odtp /RTCsu
rtc$IMZ	ENDS
_TEXT	SEGMENT
tv277 = -164						; size = 4
tv257 = -160						; size = 4
tv237 = -156						; size = 4
tv217 = -152						; size = 4
tv198 = -148						; size = 4
tv179 = -144						; size = 4
$T141659 = -140						; size = 4
$T141658 = -136						; size = 4
$T141657 = -132						; size = 4
$T141654 = -128						; size = 4
$T141653 = -124						; size = 4
$T141652 = -120						; size = 4
$T141649 = -116						; size = 4
$T141648 = -112						; size = 4
$T141647 = -108						; size = 4
$T141644 = -104						; size = 4
$T141643 = -100						; size = 4
$T141642 = -96						; size = 4
$T141639 = -92						; size = 4
$T141638 = -88						; size = 4
$T141637 = -84						; size = 4
$T141634 = -80						; size = 4
$T141633 = -76						; size = 4
$T141632 = -72						; size = 4
_AttackBias$ = -68					; size = 8
_ExploreBias$ = -60					; size = 8
_RailgunBias$ = -52					; size = 8
_RocketLauncherBias$ = -44				; size = 8
_ShotgunBias$ = -36					; size = 8
_HealthBias$ = -28					; size = 8
_pMyScript$ = -20					; size = 4
_this$ = -16						; size = 4
__$EHRec$ = -12						; size = 12
_pBot$ = 8						; size = 4
??0RBGoal_Think@@QAE@PAVAbstRaven_Bot@@@Z PROC		; RBGoal_Think::RBGoal_Think
; _this$ = ecx

; 23   : {

	push	ebp
	mov	ebp, esp
	push	-1
	push	__ehhandler$??0RBGoal_Think@@QAE@PAVAbstRaven_Bot@@@Z
	mov	eax, DWORD PTR fs:0
	push	eax
	sub	esp, 152				; 00000098H
	push	edi
	push	ecx
	lea	edi, DWORD PTR [ebp-164]
	mov	ecx, 38					; 00000026H
	mov	eax, -858993460				; ccccccccH
	rep stosd
	pop	ecx
	mov	eax, DWORD PTR ___security_cookie
	xor	eax, ebp
	push	eax
	lea	eax, DWORD PTR __$EHRec$[ebp]
	mov	DWORD PTR fs:0, eax
	mov	DWORD PTR _this$[ebp], ecx
	mov	eax, DWORD PTR _pBot$[ebp]
	push	eax
	mov	ecx, DWORD PTR _this$[ebp]
	call	??0Goal_Think@@QAE@PAVAbstRaven_Bot@@@Z	; Goal_Think::Goal_Think
	mov	DWORD PTR __$EHRec$[ebp+8], 0
	mov	ecx, DWORD PTR _this$[ebp]
	mov	DWORD PTR [ecx], OFFSET ??_7RBGoal_Think@@6B@

; 24   :   // load priorities from script
; 25   : 	RB_BotScriptor* pMyScript = RB_BotScriptor::Instance();

	call	?Instance@RB_BotScriptor@@SAPAV1@XZ	; RB_BotScriptor::Instance
	mov	DWORD PTR _pMyScript$[ebp], eax

; 26   :   double HealthBias = pMyScript->GetDouble("Bot_HealthGoalTweaker");

	push	OFFSET $SG132768
	mov	ecx, DWORD PTR _pMyScript$[ebp]
	call	?GetDouble@Scriptor@@QAENPAD@Z		; Scriptor::GetDouble
	fstp	QWORD PTR _HealthBias$[ebp]

; 27   :   double ShotgunBias = pMyScript->GetDouble("Bot_ShotgunGoalTweaker");

	push	OFFSET $SG132770
	mov	ecx, DWORD PTR _pMyScript$[ebp]
	call	?GetDouble@Scriptor@@QAENPAD@Z		; Scriptor::GetDouble
	fstp	QWORD PTR _ShotgunBias$[ebp]

; 28   :   double RocketLauncherBias = pMyScript->GetDouble("Bot_RocketLauncherTweaker");

	push	OFFSET $SG132772
	mov	ecx, DWORD PTR _pMyScript$[ebp]
	call	?GetDouble@Scriptor@@QAENPAD@Z		; Scriptor::GetDouble
	fstp	QWORD PTR _RocketLauncherBias$[ebp]

; 29   :   double RailgunBias = pMyScript->GetDouble("Bot_RailgunGoalTweaker");

	push	OFFSET $SG132774
	mov	ecx, DWORD PTR _pMyScript$[ebp]
	call	?GetDouble@Scriptor@@QAENPAD@Z		; Scriptor::GetDouble
	fstp	QWORD PTR _RailgunBias$[ebp]

; 30   :   double ExploreBias = pMyScript->GetDouble("Bot_ExploreTweaker");

	push	OFFSET $SG132776
	mov	ecx, DWORD PTR _pMyScript$[ebp]
	call	?GetDouble@Scriptor@@QAENPAD@Z		; Scriptor::GetDouble
	fstp	QWORD PTR _ExploreBias$[ebp]

; 31   :   double AttackBias = pMyScript->GetDouble("Bot_AggroGoalTweaker");

	push	OFFSET $SG132778
	mov	ecx, DWORD PTR _pMyScript$[ebp]
	call	?GetDouble@Scriptor@@QAENPAD@Z		; Scriptor::GetDouble
	fstp	QWORD PTR _AttackBias$[ebp]

; 32   : 
; 33   :   // get rid of the evaluators added by the superclass
; 34   :   m_Evaluators.clear();

	mov	ecx, DWORD PTR _this$[ebp]
	add	ecx, 32					; 00000020H
	call	?clear@?$vector@PAVGoal_Evaluator@@V?$allocator@PAVGoal_Evaluator@@@std@@@std@@QAEXXZ ; std::vector<Goal_Evaluator *,std::allocator<Goal_Evaluator *> >::clear

; 35   : 
; 36   :   //create the evaluator objects
; 37   :   m_Evaluators.push_back(new GetHealthGoal_Evaluator(HealthBias));

	push	16					; 00000010H
	call	??2@YAPAXI@Z				; operator new
	add	esp, 4
	mov	DWORD PTR $T141634[ebp], eax
	mov	BYTE PTR __$EHRec$[ebp+8], 1
	cmp	DWORD PTR $T141634[ebp], 0
	je	SHORT $LN3@RBGoal_Thi
	sub	esp, 8
	fld	QWORD PTR _HealthBias$[ebp]
	fstp	QWORD PTR [esp]
	mov	ecx, DWORD PTR $T141634[ebp]
	call	??0GetHealthGoal_Evaluator@@QAE@N@Z	; GetHealthGoal_Evaluator::GetHealthGoal_Evaluator
	mov	DWORD PTR tv179[ebp], eax
	jmp	SHORT $LN4@RBGoal_Thi
$LN3@RBGoal_Thi:
	mov	DWORD PTR tv179[ebp], 0
$LN4@RBGoal_Thi:
	mov	edx, DWORD PTR tv179[ebp]
	mov	DWORD PTR $T141633[ebp], edx
	mov	BYTE PTR __$EHRec$[ebp+8], 0
	mov	eax, DWORD PTR $T141633[ebp]
	mov	DWORD PTR $T141632[ebp], eax
	lea	ecx, DWORD PTR $T141632[ebp]
	push	ecx
	mov	ecx, DWORD PTR _this$[ebp]
	add	ecx, 32					; 00000020H
	call	?push_back@?$vector@PAVGoal_Evaluator@@V?$allocator@PAVGoal_Evaluator@@@std@@@std@@QAEX$$QAPAVGoal_Evaluator@@@Z ; std::vector<Goal_Evaluator *,std::allocator<Goal_Evaluator *> >::push_back

; 38   :   m_Evaluators.push_back(new ExploreGoal_Evaluator(ExploreBias));

	push	16					; 00000010H
	call	??2@YAPAXI@Z				; operator new
	add	esp, 4
	mov	DWORD PTR $T141639[ebp], eax
	mov	BYTE PTR __$EHRec$[ebp+8], 2
	cmp	DWORD PTR $T141639[ebp], 0
	je	SHORT $LN5@RBGoal_Thi
	sub	esp, 8
	fld	QWORD PTR _ExploreBias$[ebp]
	fstp	QWORD PTR [esp]
	mov	ecx, DWORD PTR $T141639[ebp]
	call	??0ExploreGoal_Evaluator@@QAE@N@Z	; ExploreGoal_Evaluator::ExploreGoal_Evaluator
	mov	DWORD PTR tv198[ebp], eax
	jmp	SHORT $LN6@RBGoal_Thi
$LN5@RBGoal_Thi:
	mov	DWORD PTR tv198[ebp], 0
$LN6@RBGoal_Thi:
	mov	edx, DWORD PTR tv198[ebp]
	mov	DWORD PTR $T141638[ebp], edx
	mov	BYTE PTR __$EHRec$[ebp+8], 0
	mov	eax, DWORD PTR $T141638[ebp]
	mov	DWORD PTR $T141637[ebp], eax
	lea	ecx, DWORD PTR $T141637[ebp]
	push	ecx
	mov	ecx, DWORD PTR _this$[ebp]
	add	ecx, 32					; 00000020H
	call	?push_back@?$vector@PAVGoal_Evaluator@@V?$allocator@PAVGoal_Evaluator@@@std@@@std@@QAEX$$QAPAVGoal_Evaluator@@@Z ; std::vector<Goal_Evaluator *,std::allocator<Goal_Evaluator *> >::push_back

; 39   :   m_Evaluators.push_back(new AttackTargetGoal_Evaluator(AttackBias));

	push	16					; 00000010H
	call	??2@YAPAXI@Z				; operator new
	add	esp, 4
	mov	DWORD PTR $T141644[ebp], eax
	mov	BYTE PTR __$EHRec$[ebp+8], 3
	cmp	DWORD PTR $T141644[ebp], 0
	je	SHORT $LN7@RBGoal_Thi
	sub	esp, 8
	fld	QWORD PTR _AttackBias$[ebp]
	fstp	QWORD PTR [esp]
	mov	ecx, DWORD PTR $T141644[ebp]
	call	??0AttackTargetGoal_Evaluator@@QAE@N@Z	; AttackTargetGoal_Evaluator::AttackTargetGoal_Evaluator
	mov	DWORD PTR tv217[ebp], eax
	jmp	SHORT $LN8@RBGoal_Thi
$LN7@RBGoal_Thi:
	mov	DWORD PTR tv217[ebp], 0
$LN8@RBGoal_Thi:
	mov	edx, DWORD PTR tv217[ebp]
	mov	DWORD PTR $T141643[ebp], edx
	mov	BYTE PTR __$EHRec$[ebp+8], 0
	mov	eax, DWORD PTR $T141643[ebp]
	mov	DWORD PTR $T141642[ebp], eax
	lea	ecx, DWORD PTR $T141642[ebp]
	push	ecx
	mov	ecx, DWORD PTR _this$[ebp]
	add	ecx, 32					; 00000020H
	call	?push_back@?$vector@PAVGoal_Evaluator@@V?$allocator@PAVGoal_Evaluator@@@std@@@std@@QAEX$$QAPAVGoal_Evaluator@@@Z ; std::vector<Goal_Evaluator *,std::allocator<Goal_Evaluator *> >::push_back

; 40   :   m_Evaluators.push_back(new GetWeaponGoal_Evaluator(ShotgunBias,
; 41   :                                                      type_shotgun));

	push	24					; 00000018H
	call	??2@YAPAXI@Z				; operator new
	add	esp, 4
	mov	DWORD PTR $T141649[ebp], eax
	mov	BYTE PTR __$EHRec$[ebp+8], 4
	cmp	DWORD PTR $T141649[ebp], 0
	je	SHORT $LN9@RBGoal_Thi
	push	8
	sub	esp, 8
	fld	QWORD PTR _ShotgunBias$[ebp]
	fstp	QWORD PTR [esp]
	mov	ecx, DWORD PTR $T141649[ebp]
	call	??0GetWeaponGoal_Evaluator@@QAE@NH@Z	; GetWeaponGoal_Evaluator::GetWeaponGoal_Evaluator
	mov	DWORD PTR tv237[ebp], eax
	jmp	SHORT $LN10@RBGoal_Thi
$LN9@RBGoal_Thi:
	mov	DWORD PTR tv237[ebp], 0
$LN10@RBGoal_Thi:
	mov	edx, DWORD PTR tv237[ebp]
	mov	DWORD PTR $T141648[ebp], edx
	mov	BYTE PTR __$EHRec$[ebp+8], 0
	mov	eax, DWORD PTR $T141648[ebp]
	mov	DWORD PTR $T141647[ebp], eax
	lea	ecx, DWORD PTR $T141647[ebp]
	push	ecx
	mov	ecx, DWORD PTR _this$[ebp]
	add	ecx, 32					; 00000020H
	call	?push_back@?$vector@PAVGoal_Evaluator@@V?$allocator@PAVGoal_Evaluator@@@std@@@std@@QAEX$$QAPAVGoal_Evaluator@@@Z ; std::vector<Goal_Evaluator *,std::allocator<Goal_Evaluator *> >::push_back

; 42   :   m_Evaluators.push_back(new GetWeaponGoal_Evaluator(RailgunBias,
; 43   :                                                      type_rail_gun));

	push	24					; 00000018H
	call	??2@YAPAXI@Z				; operator new
	add	esp, 4
	mov	DWORD PTR $T141654[ebp], eax
	mov	BYTE PTR __$EHRec$[ebp+8], 5
	cmp	DWORD PTR $T141654[ebp], 0
	je	SHORT $LN11@RBGoal_Thi
	push	6
	sub	esp, 8
	fld	QWORD PTR _RailgunBias$[ebp]
	fstp	QWORD PTR [esp]
	mov	ecx, DWORD PTR $T141654[ebp]
	call	??0GetWeaponGoal_Evaluator@@QAE@NH@Z	; GetWeaponGoal_Evaluator::GetWeaponGoal_Evaluator
	mov	DWORD PTR tv257[ebp], eax
	jmp	SHORT $LN12@RBGoal_Thi
$LN11@RBGoal_Thi:
	mov	DWORD PTR tv257[ebp], 0
$LN12@RBGoal_Thi:
	mov	edx, DWORD PTR tv257[ebp]
	mov	DWORD PTR $T141653[ebp], edx
	mov	BYTE PTR __$EHRec$[ebp+8], 0
	mov	eax, DWORD PTR $T141653[ebp]
	mov	DWORD PTR $T141652[ebp], eax
	lea	ecx, DWORD PTR $T141652[ebp]
	push	ecx
	mov	ecx, DWORD PTR _this$[ebp]
	add	ecx, 32					; 00000020H
	call	?push_back@?$vector@PAVGoal_Evaluator@@V?$allocator@PAVGoal_Evaluator@@@std@@@std@@QAEX$$QAPAVGoal_Evaluator@@@Z ; std::vector<Goal_Evaluator *,std::allocator<Goal_Evaluator *> >::push_back

; 44   :   m_Evaluators.push_back(new GetWeaponGoal_Evaluator(RocketLauncherBias,
; 45   :                                                      type_rocket_launcher));

	push	24					; 00000018H
	call	??2@YAPAXI@Z				; operator new
	add	esp, 4
	mov	DWORD PTR $T141659[ebp], eax
	mov	BYTE PTR __$EHRec$[ebp+8], 6
	cmp	DWORD PTR $T141659[ebp], 0
	je	SHORT $LN13@RBGoal_Thi
	push	7
	sub	esp, 8
	fld	QWORD PTR _RocketLauncherBias$[ebp]
	fstp	QWORD PTR [esp]
	mov	ecx, DWORD PTR $T141659[ebp]
	call	??0GetWeaponGoal_Evaluator@@QAE@NH@Z	; GetWeaponGoal_Evaluator::GetWeaponGoal_Evaluator
	mov	DWORD PTR tv277[ebp], eax
	jmp	SHORT $LN14@RBGoal_Thi
$LN13@RBGoal_Thi:
	mov	DWORD PTR tv277[ebp], 0
$LN14@RBGoal_Thi:
	mov	edx, DWORD PTR tv277[ebp]
	mov	DWORD PTR $T141658[ebp], edx
	mov	BYTE PTR __$EHRec$[ebp+8], 0
	mov	eax, DWORD PTR $T141658[ebp]
	mov	DWORD PTR $T141657[ebp], eax
	lea	ecx, DWORD PTR $T141657[ebp]
	push	ecx
	mov	ecx, DWORD PTR _this$[ebp]
	add	ecx, 32					; 00000020H
	call	?push_back@?$vector@PAVGoal_Evaluator@@V?$allocator@PAVGoal_Evaluator@@@std@@@std@@QAEX$$QAPAVGoal_Evaluator@@@Z ; std::vector<Goal_Evaluator *,std::allocator<Goal_Evaluator *> >::push_back

; 46   : }

	mov	DWORD PTR __$EHRec$[ebp+8], -1
	mov	eax, DWORD PTR _this$[ebp]
	mov	ecx, DWORD PTR __$EHRec$[ebp]
	mov	DWORD PTR fs:0, ecx
	pop	ecx
	pop	edi
	add	esp, 164				; 000000a4H
	cmp	ebp, esp
	call	__RTC_CheckEsp
	mov	esp, ebp
	pop	ebp
	ret	4
_TEXT	ENDS
text$x	SEGMENT
__unwindfunclet$??0RBGoal_Think@@QAE@PAVAbstRaven_Bot@@@Z$0:
	mov	ecx, DWORD PTR _this$[ebp]
	jmp	??1Goal_Think@@UAE@XZ			; Goal_Think::~Goal_Think
__unwindfunclet$??0RBGoal_Think@@QAE@PAVAbstRaven_Bot@@@Z$1:
	mov	eax, DWORD PTR $T141634[ebp]
	push	eax
	call	??3@YAXPAX@Z				; operator delete
	pop	ecx
	ret	0
__unwindfunclet$??0RBGoal_Think@@QAE@PAVAbstRaven_Bot@@@Z$2:
	mov	eax, DWORD PTR $T141639[ebp]
	push	eax
	call	??3@YAXPAX@Z				; operator delete
	pop	ecx
	ret	0
__unwindfunclet$??0RBGoal_Think@@QAE@PAVAbstRaven_Bot@@@Z$3:
	mov	eax, DWORD PTR $T141644[ebp]
	push	eax
	call	??3@YAXPAX@Z				; operator delete
	pop	ecx
	ret	0
__unwindfunclet$??0RBGoal_Think@@QAE@PAVAbstRaven_Bot@@@Z$4:
	mov	eax, DWORD PTR $T141649[ebp]
	push	eax
	call	??3@YAXPAX@Z				; operator delete
	pop	ecx
	ret	0
__unwindfunclet$??0RBGoal_Think@@QAE@PAVAbstRaven_Bot@@@Z$5:
	mov	eax, DWORD PTR $T141654[ebp]
	push	eax
	call	??3@YAXPAX@Z				; operator delete
	pop	ecx
	ret	0
__unwindfunclet$??0RBGoal_Think@@QAE@PAVAbstRaven_Bot@@@Z$6:
	mov	eax, DWORD PTR $T141659[ebp]
	push	eax
	call	??3@YAXPAX@Z				; operator delete
	pop	ecx
	ret	0
__ehhandler$??0RBGoal_Think@@QAE@PAVAbstRaven_Bot@@@Z:
	mov	edx, DWORD PTR [esp+8]
	lea	eax, DWORD PTR [edx+12]
	mov	ecx, DWORD PTR [edx-160]
	xor	ecx, eax
	call	@__security_check_cookie@4
	mov	eax, OFFSET __ehfuncinfo$??0RBGoal_Think@@QAE@PAVAbstRaven_Bot@@@Z
	jmp	___CxxFrameHandler3
text$x	ENDS
??0RBGoal_Think@@QAE@PAVAbstRaven_Bot@@@Z ENDP		; RBGoal_Think::RBGoal_Think
; Function compile flags: /Odtp /RTCsu
; File c:\users\teaja\documents\artificial-fun\labravenprojecttest\raven\goals\goal_think.h
;	COMDAT ?Terminate@Goal_Think@@UAEXXZ
_TEXT	SEGMENT
_this$ = -4						; size = 4
?Terminate@Goal_Think@@UAEXXZ PROC			; Goal_Think::Terminate, COMDAT
; _this$ = ecx

; 45   :   virtual void Terminate(){}

	push	ebp
	mov	ebp, esp
	push	ecx
	mov	DWORD PTR [ebp-4], -858993460		; ccccccccH
	mov	DWORD PTR _this$[ebp], ecx
	mov	esp, ebp
	pop	ebp
	ret	0
?Terminate@Goal_Think@@UAEXXZ ENDP			; Goal_Think::Terminate
_TEXT	ENDS
PUBLIC	??$PopLuaNumber@N@@YANPAUlua_State@@PBD@Z	; PopLuaNumber<double>
; Function compile flags: /Odtp /RTCsu
; File c:\users\teaja\documents\artificial-fun\labravenprojecttest\common\script\scriptor.h
;	COMDAT ?GetDouble@Scriptor@@QAENPAD@Z
_TEXT	SEGMENT
_this$ = -4						; size = 4
_VariableName$ = 8					; size = 4
?GetDouble@Scriptor@@QAENPAD@Z PROC			; Scriptor::GetDouble, COMDAT
; _this$ = ecx

; 61   :   {

	push	ebp
	mov	ebp, esp
	push	ecx
	mov	DWORD PTR [ebp-4], -858993460		; ccccccccH
	mov	DWORD PTR _this$[ebp], ecx

; 62   :     return PopLuaNumber<double>(m_pLuaState, VariableName);

	mov	eax, DWORD PTR _VariableName$[ebp]
	push	eax
	mov	ecx, DWORD PTR _this$[ebp]
	mov	edx, DWORD PTR [ecx]
	push	edx
	call	??$PopLuaNumber@N@@YANPAUlua_State@@PBD@Z ; PopLuaNumber<double>
	add	esp, 8

; 63   :   }

	add	esp, 4
	cmp	ebp, esp
	call	__RTC_CheckEsp
	mov	esp, ebp
	pop	ebp
	ret	4
?GetDouble@Scriptor@@QAENPAD@Z ENDP			; Scriptor::GetDouble
_TEXT	ENDS
PUBLIC	??_7GetWeaponGoal_Evaluator@@6B@		; GetWeaponGoal_Evaluator::`vftable'
PUBLIC	??0Goal_Evaluator@@QAE@N@Z			; Goal_Evaluator::Goal_Evaluator
PUBLIC	??_R4GetWeaponGoal_Evaluator@@6B@		; GetWeaponGoal_Evaluator::`RTTI Complete Object Locator'
PUBLIC	??_R0?AVGetWeaponGoal_Evaluator@@@8		; GetWeaponGoal_Evaluator `RTTI Type Descriptor'
PUBLIC	??_R3GetWeaponGoal_Evaluator@@8			; GetWeaponGoal_Evaluator::`RTTI Class Hierarchy Descriptor'
PUBLIC	??_R2GetWeaponGoal_Evaluator@@8			; GetWeaponGoal_Evaluator::`RTTI Base Class Array'
PUBLIC	??_R1A@?0A@EA@GetWeaponGoal_Evaluator@@8	; GetWeaponGoal_Evaluator::`RTTI Base Class Descriptor at (0,-1,0,64)'
PUBLIC	??_R1A@?0A@EA@Goal_Evaluator@@8			; Goal_Evaluator::`RTTI Base Class Descriptor at (0,-1,0,64)'
PUBLIC	??_R0?AVGoal_Evaluator@@@8			; Goal_Evaluator `RTTI Type Descriptor'
PUBLIC	??_R3Goal_Evaluator@@8				; Goal_Evaluator::`RTTI Class Hierarchy Descriptor'
PUBLIC	??_R2Goal_Evaluator@@8				; Goal_Evaluator::`RTTI Base Class Array'
EXTRN	??_EGetWeaponGoal_Evaluator@@UAEPAXI@Z:PROC	; GetWeaponGoal_Evaluator::`vector deleting destructor'
EXTRN	?CalculateDesirability@GetWeaponGoal_Evaluator@@UAENPAVAbstRaven_Bot@@@Z:PROC ; GetWeaponGoal_Evaluator::CalculateDesirability
EXTRN	?SetGoal@GetWeaponGoal_Evaluator@@UAEXPAVAbstRaven_Bot@@@Z:PROC ; GetWeaponGoal_Evaluator::SetGoal
EXTRN	?RenderInfo@GetWeaponGoal_Evaluator@@UAEXUVector2D@@PAVAbstRaven_Bot@@@Z:PROC ; GetWeaponGoal_Evaluator::RenderInfo
;	COMDAT ??_R2Goal_Evaluator@@8
; File c:\users\teaja\documents\artificial-fun\labravenprojecttest\raven\goals\getweapongoal_evaluator.h
rdata$r	SEGMENT
??_R2Goal_Evaluator@@8 DD FLAT:??_R1A@?0A@EA@Goal_Evaluator@@8 ; Goal_Evaluator::`RTTI Base Class Array'
rdata$r	ENDS
;	COMDAT ??_R3Goal_Evaluator@@8
rdata$r	SEGMENT
??_R3Goal_Evaluator@@8 DD 00H				; Goal_Evaluator::`RTTI Class Hierarchy Descriptor'
	DD	00H
	DD	01H
	DD	FLAT:??_R2Goal_Evaluator@@8
rdata$r	ENDS
;	COMDAT ??_R0?AVGoal_Evaluator@@@8
_DATA	SEGMENT
??_R0?AVGoal_Evaluator@@@8 DD FLAT:??_7type_info@@6B@	; Goal_Evaluator `RTTI Type Descriptor'
	DD	00H
	DB	'.?AVGoal_Evaluator@@', 00H
_DATA	ENDS
;	COMDAT ??_R1A@?0A@EA@Goal_Evaluator@@8
rdata$r	SEGMENT
??_R1A@?0A@EA@Goal_Evaluator@@8 DD FLAT:??_R0?AVGoal_Evaluator@@@8 ; Goal_Evaluator::`RTTI Base Class Descriptor at (0,-1,0,64)'
	DD	00H
	DD	00H
	DD	0ffffffffH
	DD	00H
	DD	040H
	DD	FLAT:??_R3Goal_Evaluator@@8
rdata$r	ENDS
;	COMDAT ??_R1A@?0A@EA@GetWeaponGoal_Evaluator@@8
rdata$r	SEGMENT
??_R1A@?0A@EA@GetWeaponGoal_Evaluator@@8 DD FLAT:??_R0?AVGetWeaponGoal_Evaluator@@@8 ; GetWeaponGoal_Evaluator::`RTTI Base Class Descriptor at (0,-1,0,64)'
	DD	01H
	DD	00H
	DD	0ffffffffH
	DD	00H
	DD	040H
	DD	FLAT:??_R3GetWeaponGoal_Evaluator@@8
rdata$r	ENDS
;	COMDAT ??_R2GetWeaponGoal_Evaluator@@8
rdata$r	SEGMENT
??_R2GetWeaponGoal_Evaluator@@8 DD FLAT:??_R1A@?0A@EA@GetWeaponGoal_Evaluator@@8 ; GetWeaponGoal_Evaluator::`RTTI Base Class Array'
	DD	FLAT:??_R1A@?0A@EA@Goal_Evaluator@@8
rdata$r	ENDS
;	COMDAT ??_R3GetWeaponGoal_Evaluator@@8
rdata$r	SEGMENT
??_R3GetWeaponGoal_Evaluator@@8 DD 00H			; GetWeaponGoal_Evaluator::`RTTI Class Hierarchy Descriptor'
	DD	00H
	DD	02H
	DD	FLAT:??_R2GetWeaponGoal_Evaluator@@8
rdata$r	ENDS
;	COMDAT ??_R0?AVGetWeaponGoal_Evaluator@@@8
_DATA	SEGMENT
??_R0?AVGetWeaponGoal_Evaluator@@@8 DD FLAT:??_7type_info@@6B@ ; GetWeaponGoal_Evaluator `RTTI Type Descriptor'
	DD	00H
	DB	'.?AVGetWeaponGoal_Evaluator@@', 00H
_DATA	ENDS
;	COMDAT ??_R4GetWeaponGoal_Evaluator@@6B@
rdata$r	SEGMENT
??_R4GetWeaponGoal_Evaluator@@6B@ DD 00H		; GetWeaponGoal_Evaluator::`RTTI Complete Object Locator'
	DD	00H
	DD	00H
	DD	FLAT:??_R0?AVGetWeaponGoal_Evaluator@@@8
	DD	FLAT:??_R3GetWeaponGoal_Evaluator@@8
rdata$r	ENDS
;	COMDAT ??_7GetWeaponGoal_Evaluator@@6B@
CONST	SEGMENT
??_7GetWeaponGoal_Evaluator@@6B@ DD FLAT:??_R4GetWeaponGoal_Evaluator@@6B@ ; GetWeaponGoal_Evaluator::`vftable'
	DD	FLAT:??_EGetWeaponGoal_Evaluator@@UAEPAXI@Z
	DD	FLAT:?CalculateDesirability@GetWeaponGoal_Evaluator@@UAENPAVAbstRaven_Bot@@@Z
	DD	FLAT:?SetGoal@GetWeaponGoal_Evaluator@@UAEXPAVAbstRaven_Bot@@@Z
	DD	FLAT:?RenderInfo@GetWeaponGoal_Evaluator@@UAEXUVector2D@@PAVAbstRaven_Bot@@@Z
; Function compile flags: /Odtp /RTCsu
CONST	ENDS
;	COMDAT ??0GetWeaponGoal_Evaluator@@QAE@NH@Z
_TEXT	SEGMENT
_this$ = -4						; size = 4
_bias$ = 8						; size = 8
_WeaponType$ = 16					; size = 4
??0GetWeaponGoal_Evaluator@@QAE@NH@Z PROC		; GetWeaponGoal_Evaluator::GetWeaponGoal_Evaluator, COMDAT
; _this$ = ecx

; 27   :   {}

	push	ebp
	mov	ebp, esp
	push	ecx
	mov	DWORD PTR [ebp-4], -858993460		; ccccccccH
	mov	DWORD PTR _this$[ebp], ecx
	sub	esp, 8
	fld	QWORD PTR _bias$[ebp]
	fstp	QWORD PTR [esp]
	mov	ecx, DWORD PTR _this$[ebp]
	call	??0Goal_Evaluator@@QAE@N@Z		; Goal_Evaluator::Goal_Evaluator
	mov	eax, DWORD PTR _this$[ebp]
	mov	DWORD PTR [eax], OFFSET ??_7GetWeaponGoal_Evaluator@@6B@
	mov	ecx, DWORD PTR _this$[ebp]
	mov	edx, DWORD PTR _WeaponType$[ebp]
	mov	DWORD PTR [ecx+16], edx
	mov	eax, DWORD PTR _this$[ebp]
	add	esp, 4
	cmp	ebp, esp
	call	__RTC_CheckEsp
	mov	esp, ebp
	pop	ebp
	ret	12					; 0000000cH
??0GetWeaponGoal_Evaluator@@QAE@NH@Z ENDP		; GetWeaponGoal_Evaluator::GetWeaponGoal_Evaluator
_TEXT	ENDS
PUBLIC	??_7Goal_Evaluator@@6B@				; Goal_Evaluator::`vftable'
PUBLIC	??_R4Goal_Evaluator@@6B@			; Goal_Evaluator::`RTTI Complete Object Locator'
EXTRN	??_EGoal_Evaluator@@UAEPAXI@Z:PROC		; Goal_Evaluator::`vector deleting destructor'
EXTRN	__purecall:PROC
;	COMDAT ??_R4Goal_Evaluator@@6B@
; File c:\users\teaja\documents\artificial-fun\labravenprojecttest\raven\goals\goal_evaluator.h
rdata$r	SEGMENT
??_R4Goal_Evaluator@@6B@ DD 00H				; Goal_Evaluator::`RTTI Complete Object Locator'
	DD	00H
	DD	00H
	DD	FLAT:??_R0?AVGoal_Evaluator@@@8
	DD	FLAT:??_R3Goal_Evaluator@@8
rdata$r	ENDS
;	COMDAT ??_7Goal_Evaluator@@6B@
CONST	SEGMENT
??_7Goal_Evaluator@@6B@ DD FLAT:??_R4Goal_Evaluator@@6B@ ; Goal_Evaluator::`vftable'
	DD	FLAT:??_EGoal_Evaluator@@UAEPAXI@Z
	DD	FLAT:__purecall
	DD	FLAT:__purecall
	DD	FLAT:__purecall
; Function compile flags: /Odtp /RTCsu
CONST	ENDS
;	COMDAT ??0Goal_Evaluator@@QAE@N@Z
_TEXT	SEGMENT
_this$ = -4						; size = 4
_CharacterBias$ = 8					; size = 8
??0Goal_Evaluator@@QAE@N@Z PROC				; Goal_Evaluator::Goal_Evaluator, COMDAT
; _this$ = ecx

; 28   :   Goal_Evaluator(double CharacterBias):m_dCharacterBias(CharacterBias){}

	push	ebp
	mov	ebp, esp
	push	ecx
	mov	DWORD PTR [ebp-4], -858993460		; ccccccccH
	mov	DWORD PTR _this$[ebp], ecx
	mov	eax, DWORD PTR _this$[ebp]
	mov	DWORD PTR [eax], OFFSET ??_7Goal_Evaluator@@6B@
	mov	ecx, DWORD PTR _this$[ebp]
	fld	QWORD PTR _CharacterBias$[ebp]
	fstp	QWORD PTR [ecx+8]
	mov	eax, DWORD PTR _this$[ebp]
	mov	esp, ebp
	pop	ebp
	ret	8
??0Goal_Evaluator@@QAE@N@Z ENDP				; Goal_Evaluator::Goal_Evaluator
_TEXT	ENDS
PUBLIC	??1Goal_Evaluator@@UAE@XZ			; Goal_Evaluator::~Goal_Evaluator
; Function compile flags: /Odtp /RTCsu
;	COMDAT ??_GGoal_Evaluator@@UAEPAXI@Z
_TEXT	SEGMENT
_this$ = -4						; size = 4
___flags$ = 8						; size = 4
??_GGoal_Evaluator@@UAEPAXI@Z PROC			; Goal_Evaluator::`scalar deleting destructor', COMDAT
; _this$ = ecx
	push	ebp
	mov	ebp, esp
	push	ecx
	mov	DWORD PTR [ebp-4], -858993460		; ccccccccH
	mov	DWORD PTR _this$[ebp], ecx
	mov	ecx, DWORD PTR _this$[ebp]
	call	??1Goal_Evaluator@@UAE@XZ		; Goal_Evaluator::~Goal_Evaluator
	mov	eax, DWORD PTR ___flags$[ebp]
	and	eax, 1
	je	SHORT $LN1@scalar
	mov	ecx, DWORD PTR _this$[ebp]
	push	ecx
	call	??3@YAXPAX@Z				; operator delete
	add	esp, 4
$LN1@scalar:
	mov	eax, DWORD PTR _this$[ebp]
	add	esp, 4
	cmp	ebp, esp
	call	__RTC_CheckEsp
	mov	esp, ebp
	pop	ebp
	ret	4
??_GGoal_Evaluator@@UAEPAXI@Z ENDP			; Goal_Evaluator::`scalar deleting destructor'
; Function compile flags: /Odtp /RTCsu
_TEXT	ENDS
;	COMDAT ??1Goal_Evaluator@@UAE@XZ
_TEXT	SEGMENT
_this$ = -4						; size = 4
??1Goal_Evaluator@@UAE@XZ PROC				; Goal_Evaluator::~Goal_Evaluator, COMDAT
; _this$ = ecx

; 30   :   virtual ~Goal_Evaluator(){}

	push	ebp
	mov	ebp, esp
	push	ecx
	mov	DWORD PTR [ebp-4], -858993460		; ccccccccH
	mov	DWORD PTR _this$[ebp], ecx
	mov	eax, DWORD PTR _this$[ebp]
	mov	DWORD PTR [eax], OFFSET ??_7Goal_Evaluator@@6B@
	mov	esp, ebp
	pop	ebp
	ret	0
??1Goal_Evaluator@@UAE@XZ ENDP				; Goal_Evaluator::~Goal_Evaluator
_TEXT	ENDS
PUBLIC	??1GetWeaponGoal_Evaluator@@UAE@XZ		; GetWeaponGoal_Evaluator::~GetWeaponGoal_Evaluator
; Function compile flags: /Odtp /RTCsu
;	COMDAT ??_GGetWeaponGoal_Evaluator@@UAEPAXI@Z
_TEXT	SEGMENT
_this$ = -4						; size = 4
___flags$ = 8						; size = 4
??_GGetWeaponGoal_Evaluator@@UAEPAXI@Z PROC		; GetWeaponGoal_Evaluator::`scalar deleting destructor', COMDAT
; _this$ = ecx
	push	ebp
	mov	ebp, esp
	push	ecx
	mov	DWORD PTR [ebp-4], -858993460		; ccccccccH
	mov	DWORD PTR _this$[ebp], ecx
	mov	ecx, DWORD PTR _this$[ebp]
	call	??1GetWeaponGoal_Evaluator@@UAE@XZ
	mov	eax, DWORD PTR ___flags$[ebp]
	and	eax, 1
	je	SHORT $LN1@scalar@2
	mov	ecx, DWORD PTR _this$[ebp]
	push	ecx
	call	??3@YAXPAX@Z				; operator delete
	add	esp, 4
$LN1@scalar@2:
	mov	eax, DWORD PTR _this$[ebp]
	add	esp, 4
	cmp	ebp, esp
	call	__RTC_CheckEsp
	mov	esp, ebp
	pop	ebp
	ret	4
??_GGetWeaponGoal_Evaluator@@UAEPAXI@Z ENDP		; GetWeaponGoal_Evaluator::`scalar deleting destructor'
; Function compile flags: /Odtp /RTCsu
_TEXT	ENDS
;	COMDAT ??1GetWeaponGoal_Evaluator@@UAE@XZ
_TEXT	SEGMENT
_this$ = -4						; size = 4
??1GetWeaponGoal_Evaluator@@UAE@XZ PROC			; GetWeaponGoal_Evaluator::~GetWeaponGoal_Evaluator, COMDAT
; _this$ = ecx
	push	ebp
	mov	ebp, esp
	push	ecx
	mov	DWORD PTR [ebp-4], -858993460		; ccccccccH
	mov	DWORD PTR _this$[ebp], ecx
	mov	ecx, DWORD PTR _this$[ebp]
	call	??1Goal_Evaluator@@UAE@XZ		; Goal_Evaluator::~Goal_Evaluator
	add	esp, 4
	cmp	ebp, esp
	call	__RTC_CheckEsp
	mov	esp, ebp
	pop	ebp
	ret	0
??1GetWeaponGoal_Evaluator@@UAE@XZ ENDP			; GetWeaponGoal_Evaluator::~GetWeaponGoal_Evaluator
_TEXT	ENDS
PUBLIC	??_7GetHealthGoal_Evaluator@@6B@		; GetHealthGoal_Evaluator::`vftable'
PUBLIC	??_R4GetHealthGoal_Evaluator@@6B@		; GetHealthGoal_Evaluator::`RTTI Complete Object Locator'
PUBLIC	??_R0?AVGetHealthGoal_Evaluator@@@8		; GetHealthGoal_Evaluator `RTTI Type Descriptor'
PUBLIC	??_R3GetHealthGoal_Evaluator@@8			; GetHealthGoal_Evaluator::`RTTI Class Hierarchy Descriptor'
PUBLIC	??_R2GetHealthGoal_Evaluator@@8			; GetHealthGoal_Evaluator::`RTTI Base Class Array'
PUBLIC	??_R1A@?0A@EA@GetHealthGoal_Evaluator@@8	; GetHealthGoal_Evaluator::`RTTI Base Class Descriptor at (0,-1,0,64)'
EXTRN	??_EGetHealthGoal_Evaluator@@UAEPAXI@Z:PROC	; GetHealthGoal_Evaluator::`vector deleting destructor'
EXTRN	?CalculateDesirability@GetHealthGoal_Evaluator@@UAENPAVAbstRaven_Bot@@@Z:PROC ; GetHealthGoal_Evaluator::CalculateDesirability
EXTRN	?SetGoal@GetHealthGoal_Evaluator@@UAEXPAVAbstRaven_Bot@@@Z:PROC ; GetHealthGoal_Evaluator::SetGoal
EXTRN	?RenderInfo@GetHealthGoal_Evaluator@@UAEXUVector2D@@PAVAbstRaven_Bot@@@Z:PROC ; GetHealthGoal_Evaluator::RenderInfo
;	COMDAT ??_R1A@?0A@EA@GetHealthGoal_Evaluator@@8
; File c:\users\teaja\documents\artificial-fun\labravenprojecttest\raven\goals\gethealthgoal_evaluator.h
rdata$r	SEGMENT
??_R1A@?0A@EA@GetHealthGoal_Evaluator@@8 DD FLAT:??_R0?AVGetHealthGoal_Evaluator@@@8 ; GetHealthGoal_Evaluator::`RTTI Base Class Descriptor at (0,-1,0,64)'
	DD	01H
	DD	00H
	DD	0ffffffffH
	DD	00H
	DD	040H
	DD	FLAT:??_R3GetHealthGoal_Evaluator@@8
rdata$r	ENDS
;	COMDAT ??_R2GetHealthGoal_Evaluator@@8
rdata$r	SEGMENT
??_R2GetHealthGoal_Evaluator@@8 DD FLAT:??_R1A@?0A@EA@GetHealthGoal_Evaluator@@8 ; GetHealthGoal_Evaluator::`RTTI Base Class Array'
	DD	FLAT:??_R1A@?0A@EA@Goal_Evaluator@@8
rdata$r	ENDS
;	COMDAT ??_R3GetHealthGoal_Evaluator@@8
rdata$r	SEGMENT
??_R3GetHealthGoal_Evaluator@@8 DD 00H			; GetHealthGoal_Evaluator::`RTTI Class Hierarchy Descriptor'
	DD	00H
	DD	02H
	DD	FLAT:??_R2GetHealthGoal_Evaluator@@8
rdata$r	ENDS
;	COMDAT ??_R0?AVGetHealthGoal_Evaluator@@@8
_DATA	SEGMENT
??_R0?AVGetHealthGoal_Evaluator@@@8 DD FLAT:??_7type_info@@6B@ ; GetHealthGoal_Evaluator `RTTI Type Descriptor'
	DD	00H
	DB	'.?AVGetHealthGoal_Evaluator@@', 00H
_DATA	ENDS
;	COMDAT ??_R4GetHealthGoal_Evaluator@@6B@
rdata$r	SEGMENT
??_R4GetHealthGoal_Evaluator@@6B@ DD 00H		; GetHealthGoal_Evaluator::`RTTI Complete Object Locator'
	DD	00H
	DD	00H
	DD	FLAT:??_R0?AVGetHealthGoal_Evaluator@@@8
	DD	FLAT:??_R3GetHealthGoal_Evaluator@@8
rdata$r	ENDS
;	COMDAT ??_7GetHealthGoal_Evaluator@@6B@
CONST	SEGMENT
??_7GetHealthGoal_Evaluator@@6B@ DD FLAT:??_R4GetHealthGoal_Evaluator@@6B@ ; GetHealthGoal_Evaluator::`vftable'
	DD	FLAT:??_EGetHealthGoal_Evaluator@@UAEPAXI@Z
	DD	FLAT:?CalculateDesirability@GetHealthGoal_Evaluator@@UAENPAVAbstRaven_Bot@@@Z
	DD	FLAT:?SetGoal@GetHealthGoal_Evaluator@@UAEXPAVAbstRaven_Bot@@@Z
	DD	FLAT:?RenderInfo@GetHealthGoal_Evaluator@@UAEXUVector2D@@PAVAbstRaven_Bot@@@Z
; Function compile flags: /Odtp /RTCsu
CONST	ENDS
;	COMDAT ??0GetHealthGoal_Evaluator@@QAE@N@Z
_TEXT	SEGMENT
_this$ = -4						; size = 4
_bias$ = 8						; size = 8
??0GetHealthGoal_Evaluator@@QAE@N@Z PROC		; GetHealthGoal_Evaluator::GetHealthGoal_Evaluator, COMDAT
; _this$ = ecx

; 21   :   GetHealthGoal_Evaluator(double bias):Goal_Evaluator(bias){}

	push	ebp
	mov	ebp, esp
	push	ecx
	mov	DWORD PTR [ebp-4], -858993460		; ccccccccH
	mov	DWORD PTR _this$[ebp], ecx
	sub	esp, 8
	fld	QWORD PTR _bias$[ebp]
	fstp	QWORD PTR [esp]
	mov	ecx, DWORD PTR _this$[ebp]
	call	??0Goal_Evaluator@@QAE@N@Z		; Goal_Evaluator::Goal_Evaluator
	mov	eax, DWORD PTR _this$[ebp]
	mov	DWORD PTR [eax], OFFSET ??_7GetHealthGoal_Evaluator@@6B@
	mov	eax, DWORD PTR _this$[ebp]
	add	esp, 4
	cmp	ebp, esp
	call	__RTC_CheckEsp
	mov	esp, ebp
	pop	ebp
	ret	8
??0GetHealthGoal_Evaluator@@QAE@N@Z ENDP		; GetHealthGoal_Evaluator::GetHealthGoal_Evaluator
_TEXT	ENDS
PUBLIC	??1GetHealthGoal_Evaluator@@UAE@XZ		; GetHealthGoal_Evaluator::~GetHealthGoal_Evaluator
; Function compile flags: /Odtp /RTCsu
;	COMDAT ??_GGetHealthGoal_Evaluator@@UAEPAXI@Z
_TEXT	SEGMENT
_this$ = -4						; size = 4
___flags$ = 8						; size = 4
??_GGetHealthGoal_Evaluator@@UAEPAXI@Z PROC		; GetHealthGoal_Evaluator::`scalar deleting destructor', COMDAT
; _this$ = ecx
	push	ebp
	mov	ebp, esp
	push	ecx
	mov	DWORD PTR [ebp-4], -858993460		; ccccccccH
	mov	DWORD PTR _this$[ebp], ecx
	mov	ecx, DWORD PTR _this$[ebp]
	call	??1GetHealthGoal_Evaluator@@UAE@XZ
	mov	eax, DWORD PTR ___flags$[ebp]
	and	eax, 1
	je	SHORT $LN1@scalar@3
	mov	ecx, DWORD PTR _this$[ebp]
	push	ecx
	call	??3@YAXPAX@Z				; operator delete
	add	esp, 4
$LN1@scalar@3:
	mov	eax, DWORD PTR _this$[ebp]
	add	esp, 4
	cmp	ebp, esp
	call	__RTC_CheckEsp
	mov	esp, ebp
	pop	ebp
	ret	4
??_GGetHealthGoal_Evaluator@@UAEPAXI@Z ENDP		; GetHealthGoal_Evaluator::`scalar deleting destructor'
; Function compile flags: /Odtp /RTCsu
_TEXT	ENDS
;	COMDAT ??1GetHealthGoal_Evaluator@@UAE@XZ
_TEXT	SEGMENT
_this$ = -4						; size = 4
??1GetHealthGoal_Evaluator@@UAE@XZ PROC			; GetHealthGoal_Evaluator::~GetHealthGoal_Evaluator, COMDAT
; _this$ = ecx
	push	ebp
	mov	ebp, esp
	push	ecx
	mov	DWORD PTR [ebp-4], -858993460		; ccccccccH
	mov	DWORD PTR _this$[ebp], ecx
	mov	ecx, DWORD PTR _this$[ebp]
	call	??1Goal_Evaluator@@UAE@XZ		; Goal_Evaluator::~Goal_Evaluator
	add	esp, 4
	cmp	ebp, esp
	call	__RTC_CheckEsp
	mov	esp, ebp
	pop	ebp
	ret	0
??1GetHealthGoal_Evaluator@@UAE@XZ ENDP			; GetHealthGoal_Evaluator::~GetHealthGoal_Evaluator
_TEXT	ENDS
PUBLIC	??_7ExploreGoal_Evaluator@@6B@			; ExploreGoal_Evaluator::`vftable'
PUBLIC	??_R4ExploreGoal_Evaluator@@6B@			; ExploreGoal_Evaluator::`RTTI Complete Object Locator'
PUBLIC	??_R0?AVExploreGoal_Evaluator@@@8		; ExploreGoal_Evaluator `RTTI Type Descriptor'
PUBLIC	??_R3ExploreGoal_Evaluator@@8			; ExploreGoal_Evaluator::`RTTI Class Hierarchy Descriptor'
PUBLIC	??_R2ExploreGoal_Evaluator@@8			; ExploreGoal_Evaluator::`RTTI Base Class Array'
PUBLIC	??_R1A@?0A@EA@ExploreGoal_Evaluator@@8		; ExploreGoal_Evaluator::`RTTI Base Class Descriptor at (0,-1,0,64)'
EXTRN	??_EExploreGoal_Evaluator@@UAEPAXI@Z:PROC	; ExploreGoal_Evaluator::`vector deleting destructor'
EXTRN	?CalculateDesirability@ExploreGoal_Evaluator@@UAENPAVAbstRaven_Bot@@@Z:PROC ; ExploreGoal_Evaluator::CalculateDesirability
EXTRN	?SetGoal@ExploreGoal_Evaluator@@UAEXPAVAbstRaven_Bot@@@Z:PROC ; ExploreGoal_Evaluator::SetGoal
EXTRN	?RenderInfo@ExploreGoal_Evaluator@@UAEXUVector2D@@PAVAbstRaven_Bot@@@Z:PROC ; ExploreGoal_Evaluator::RenderInfo
;	COMDAT ??_R1A@?0A@EA@ExploreGoal_Evaluator@@8
; File c:\users\teaja\documents\artificial-fun\labravenprojecttest\raven\goals\exploregoal_evaluator.h
rdata$r	SEGMENT
??_R1A@?0A@EA@ExploreGoal_Evaluator@@8 DD FLAT:??_R0?AVExploreGoal_Evaluator@@@8 ; ExploreGoal_Evaluator::`RTTI Base Class Descriptor at (0,-1,0,64)'
	DD	01H
	DD	00H
	DD	0ffffffffH
	DD	00H
	DD	040H
	DD	FLAT:??_R3ExploreGoal_Evaluator@@8
rdata$r	ENDS
;	COMDAT ??_R2ExploreGoal_Evaluator@@8
rdata$r	SEGMENT
??_R2ExploreGoal_Evaluator@@8 DD FLAT:??_R1A@?0A@EA@ExploreGoal_Evaluator@@8 ; ExploreGoal_Evaluator::`RTTI Base Class Array'
	DD	FLAT:??_R1A@?0A@EA@Goal_Evaluator@@8
rdata$r	ENDS
;	COMDAT ??_R3ExploreGoal_Evaluator@@8
rdata$r	SEGMENT
??_R3ExploreGoal_Evaluator@@8 DD 00H			; ExploreGoal_Evaluator::`RTTI Class Hierarchy Descriptor'
	DD	00H
	DD	02H
	DD	FLAT:??_R2ExploreGoal_Evaluator@@8
rdata$r	ENDS
;	COMDAT ??_R0?AVExploreGoal_Evaluator@@@8
_DATA	SEGMENT
??_R0?AVExploreGoal_Evaluator@@@8 DD FLAT:??_7type_info@@6B@ ; ExploreGoal_Evaluator `RTTI Type Descriptor'
	DD	00H
	DB	'.?AVExploreGoal_Evaluator@@', 00H
_DATA	ENDS
;	COMDAT ??_R4ExploreGoal_Evaluator@@6B@
rdata$r	SEGMENT
??_R4ExploreGoal_Evaluator@@6B@ DD 00H			; ExploreGoal_Evaluator::`RTTI Complete Object Locator'
	DD	00H
	DD	00H
	DD	FLAT:??_R0?AVExploreGoal_Evaluator@@@8
	DD	FLAT:??_R3ExploreGoal_Evaluator@@8
rdata$r	ENDS
;	COMDAT ??_7ExploreGoal_Evaluator@@6B@
CONST	SEGMENT
??_7ExploreGoal_Evaluator@@6B@ DD FLAT:??_R4ExploreGoal_Evaluator@@6B@ ; ExploreGoal_Evaluator::`vftable'
	DD	FLAT:??_EExploreGoal_Evaluator@@UAEPAXI@Z
	DD	FLAT:?CalculateDesirability@ExploreGoal_Evaluator@@UAENPAVAbstRaven_Bot@@@Z
	DD	FLAT:?SetGoal@ExploreGoal_Evaluator@@UAEXPAVAbstRaven_Bot@@@Z
	DD	FLAT:?RenderInfo@ExploreGoal_Evaluator@@UAEXUVector2D@@PAVAbstRaven_Bot@@@Z
; Function compile flags: /Odtp /RTCsu
CONST	ENDS
;	COMDAT ??0ExploreGoal_Evaluator@@QAE@N@Z
_TEXT	SEGMENT
_this$ = -4						; size = 4
_bias$ = 8						; size = 8
??0ExploreGoal_Evaluator@@QAE@N@Z PROC			; ExploreGoal_Evaluator::ExploreGoal_Evaluator, COMDAT
; _this$ = ecx

; 21   :   ExploreGoal_Evaluator(double bias):Goal_Evaluator(bias){}

	push	ebp
	mov	ebp, esp
	push	ecx
	mov	DWORD PTR [ebp-4], -858993460		; ccccccccH
	mov	DWORD PTR _this$[ebp], ecx
	sub	esp, 8
	fld	QWORD PTR _bias$[ebp]
	fstp	QWORD PTR [esp]
	mov	ecx, DWORD PTR _this$[ebp]
	call	??0Goal_Evaluator@@QAE@N@Z		; Goal_Evaluator::Goal_Evaluator
	mov	eax, DWORD PTR _this$[ebp]
	mov	DWORD PTR [eax], OFFSET ??_7ExploreGoal_Evaluator@@6B@
	mov	eax, DWORD PTR _this$[ebp]
	add	esp, 4
	cmp	ebp, esp
	call	__RTC_CheckEsp
	mov	esp, ebp
	pop	ebp
	ret	8
??0ExploreGoal_Evaluator@@QAE@N@Z ENDP			; ExploreGoal_Evaluator::ExploreGoal_Evaluator
_TEXT	ENDS
PUBLIC	??1ExploreGoal_Evaluator@@UAE@XZ		; ExploreGoal_Evaluator::~ExploreGoal_Evaluator
; Function compile flags: /Odtp /RTCsu
;	COMDAT ??_GExploreGoal_Evaluator@@UAEPAXI@Z
_TEXT	SEGMENT
_this$ = -4						; size = 4
___flags$ = 8						; size = 4
??_GExploreGoal_Evaluator@@UAEPAXI@Z PROC		; ExploreGoal_Evaluator::`scalar deleting destructor', COMDAT
; _this$ = ecx
	push	ebp
	mov	ebp, esp
	push	ecx
	mov	DWORD PTR [ebp-4], -858993460		; ccccccccH
	mov	DWORD PTR _this$[ebp], ecx
	mov	ecx, DWORD PTR _this$[ebp]
	call	??1ExploreGoal_Evaluator@@UAE@XZ
	mov	eax, DWORD PTR ___flags$[ebp]
	and	eax, 1
	je	SHORT $LN1@scalar@4
	mov	ecx, DWORD PTR _this$[ebp]
	push	ecx
	call	??3@YAXPAX@Z				; operator delete
	add	esp, 4
$LN1@scalar@4:
	mov	eax, DWORD PTR _this$[ebp]
	add	esp, 4
	cmp	ebp, esp
	call	__RTC_CheckEsp
	mov	esp, ebp
	pop	ebp
	ret	4
??_GExploreGoal_Evaluator@@UAEPAXI@Z ENDP		; ExploreGoal_Evaluator::`scalar deleting destructor'
; Function compile flags: /Odtp /RTCsu
_TEXT	ENDS
;	COMDAT ??1ExploreGoal_Evaluator@@UAE@XZ
_TEXT	SEGMENT
_this$ = -4						; size = 4
??1ExploreGoal_Evaluator@@UAE@XZ PROC			; ExploreGoal_Evaluator::~ExploreGoal_Evaluator, COMDAT
; _this$ = ecx
	push	ebp
	mov	ebp, esp
	push	ecx
	mov	DWORD PTR [ebp-4], -858993460		; ccccccccH
	mov	DWORD PTR _this$[ebp], ecx
	mov	ecx, DWORD PTR _this$[ebp]
	call	??1Goal_Evaluator@@UAE@XZ		; Goal_Evaluator::~Goal_Evaluator
	add	esp, 4
	cmp	ebp, esp
	call	__RTC_CheckEsp
	mov	esp, ebp
	pop	ebp
	ret	0
??1ExploreGoal_Evaluator@@UAE@XZ ENDP			; ExploreGoal_Evaluator::~ExploreGoal_Evaluator
_TEXT	ENDS
PUBLIC	??_7AttackTargetGoal_Evaluator@@6B@		; AttackTargetGoal_Evaluator::`vftable'
PUBLIC	??_R4AttackTargetGoal_Evaluator@@6B@		; AttackTargetGoal_Evaluator::`RTTI Complete Object Locator'
PUBLIC	??_R0?AVAttackTargetGoal_Evaluator@@@8		; AttackTargetGoal_Evaluator `RTTI Type Descriptor'
PUBLIC	??_R3AttackTargetGoal_Evaluator@@8		; AttackTargetGoal_Evaluator::`RTTI Class Hierarchy Descriptor'
PUBLIC	??_R2AttackTargetGoal_Evaluator@@8		; AttackTargetGoal_Evaluator::`RTTI Base Class Array'
PUBLIC	??_R1A@?0A@EA@AttackTargetGoal_Evaluator@@8	; AttackTargetGoal_Evaluator::`RTTI Base Class Descriptor at (0,-1,0,64)'
EXTRN	??_EAttackTargetGoal_Evaluator@@UAEPAXI@Z:PROC	; AttackTargetGoal_Evaluator::`vector deleting destructor'
EXTRN	?CalculateDesirability@AttackTargetGoal_Evaluator@@UAENPAVAbstRaven_Bot@@@Z:PROC ; AttackTargetGoal_Evaluator::CalculateDesirability
EXTRN	?SetGoal@AttackTargetGoal_Evaluator@@UAEXPAVAbstRaven_Bot@@@Z:PROC ; AttackTargetGoal_Evaluator::SetGoal
EXTRN	?RenderInfo@AttackTargetGoal_Evaluator@@UAEXUVector2D@@PAVAbstRaven_Bot@@@Z:PROC ; AttackTargetGoal_Evaluator::RenderInfo
;	COMDAT ??_R1A@?0A@EA@AttackTargetGoal_Evaluator@@8
; File c:\users\teaja\documents\artificial-fun\labravenprojecttest\raven\goals\attacktargetgoal_evaluator.h
rdata$r	SEGMENT
??_R1A@?0A@EA@AttackTargetGoal_Evaluator@@8 DD FLAT:??_R0?AVAttackTargetGoal_Evaluator@@@8 ; AttackTargetGoal_Evaluator::`RTTI Base Class Descriptor at (0,-1,0,64)'
	DD	01H
	DD	00H
	DD	0ffffffffH
	DD	00H
	DD	040H
	DD	FLAT:??_R3AttackTargetGoal_Evaluator@@8
rdata$r	ENDS
;	COMDAT ??_R2AttackTargetGoal_Evaluator@@8
rdata$r	SEGMENT
??_R2AttackTargetGoal_Evaluator@@8 DD FLAT:??_R1A@?0A@EA@AttackTargetGoal_Evaluator@@8 ; AttackTargetGoal_Evaluator::`RTTI Base Class Array'
	DD	FLAT:??_R1A@?0A@EA@Goal_Evaluator@@8
rdata$r	ENDS
;	COMDAT ??_R3AttackTargetGoal_Evaluator@@8
rdata$r	SEGMENT
??_R3AttackTargetGoal_Evaluator@@8 DD 00H		; AttackTargetGoal_Evaluator::`RTTI Class Hierarchy Descriptor'
	DD	00H
	DD	02H
	DD	FLAT:??_R2AttackTargetGoal_Evaluator@@8
rdata$r	ENDS
;	COMDAT ??_R0?AVAttackTargetGoal_Evaluator@@@8
_DATA	SEGMENT
??_R0?AVAttackTargetGoal_Evaluator@@@8 DD FLAT:??_7type_info@@6B@ ; AttackTargetGoal_Evaluator `RTTI Type Descriptor'
	DD	00H
	DB	'.?AVAttackTargetGoal_Evaluator@@', 00H
_DATA	ENDS
;	COMDAT ??_R4AttackTargetGoal_Evaluator@@6B@
rdata$r	SEGMENT
??_R4AttackTargetGoal_Evaluator@@6B@ DD 00H		; AttackTargetGoal_Evaluator::`RTTI Complete Object Locator'
	DD	00H
	DD	00H
	DD	FLAT:??_R0?AVAttackTargetGoal_Evaluator@@@8
	DD	FLAT:??_R3AttackTargetGoal_Evaluator@@8
rdata$r	ENDS
;	COMDAT ??_7AttackTargetGoal_Evaluator@@6B@
CONST	SEGMENT
??_7AttackTargetGoal_Evaluator@@6B@ DD FLAT:??_R4AttackTargetGoal_Evaluator@@6B@ ; AttackTargetGoal_Evaluator::`vftable'
	DD	FLAT:??_EAttackTargetGoal_Evaluator@@UAEPAXI@Z
	DD	FLAT:?CalculateDesirability@AttackTargetGoal_Evaluator@@UAENPAVAbstRaven_Bot@@@Z
	DD	FLAT:?SetGoal@AttackTargetGoal_Evaluator@@UAEXPAVAbstRaven_Bot@@@Z
	DD	FLAT:?RenderInfo@AttackTargetGoal_Evaluator@@UAEXUVector2D@@PAVAbstRaven_Bot@@@Z
; Function compile flags: /Odtp /RTCsu
CONST	ENDS
;	COMDAT ??0AttackTargetGoal_Evaluator@@QAE@N@Z
_TEXT	SEGMENT
_this$ = -4						; size = 4
_bias$ = 8						; size = 8
??0AttackTargetGoal_Evaluator@@QAE@N@Z PROC		; AttackTargetGoal_Evaluator::AttackTargetGoal_Evaluator, COMDAT
; _this$ = ecx

; 22   :   AttackTargetGoal_Evaluator(double bias):Goal_Evaluator(bias){}

	push	ebp
	mov	ebp, esp
	push	ecx
	mov	DWORD PTR [ebp-4], -858993460		; ccccccccH
	mov	DWORD PTR _this$[ebp], ecx
	sub	esp, 8
	fld	QWORD PTR _bias$[ebp]
	fstp	QWORD PTR [esp]
	mov	ecx, DWORD PTR _this$[ebp]
	call	??0Goal_Evaluator@@QAE@N@Z		; Goal_Evaluator::Goal_Evaluator
	mov	eax, DWORD PTR _this$[ebp]
	mov	DWORD PTR [eax], OFFSET ??_7AttackTargetGoal_Evaluator@@6B@
	mov	eax, DWORD PTR _this$[ebp]
	add	esp, 4
	cmp	ebp, esp
	call	__RTC_CheckEsp
	mov	esp, ebp
	pop	ebp
	ret	8
??0AttackTargetGoal_Evaluator@@QAE@N@Z ENDP		; AttackTargetGoal_Evaluator::AttackTargetGoal_Evaluator
_TEXT	ENDS
PUBLIC	??1AttackTargetGoal_Evaluator@@UAE@XZ		; AttackTargetGoal_Evaluator::~AttackTargetGoal_Evaluator
; Function compile flags: /Odtp /RTCsu
;	COMDAT ??_GAttackTargetGoal_Evaluator@@UAEPAXI@Z
_TEXT	SEGMENT
_this$ = -4						; size = 4
___flags$ = 8						; size = 4
??_GAttackTargetGoal_Evaluator@@UAEPAXI@Z PROC		; AttackTargetGoal_Evaluator::`scalar deleting destructor', COMDAT
; _this$ = ecx
	push	ebp
	mov	ebp, esp
	push	ecx
	mov	DWORD PTR [ebp-4], -858993460		; ccccccccH
	mov	DWORD PTR _this$[ebp], ecx
	mov	ecx, DWORD PTR _this$[ebp]
	call	??1AttackTargetGoal_Evaluator@@UAE@XZ
	mov	eax, DWORD PTR ___flags$[ebp]
	and	eax, 1
	je	SHORT $LN1@scalar@5
	mov	ecx, DWORD PTR _this$[ebp]
	push	ecx
	call	??3@YAXPAX@Z				; operator delete
	add	esp, 4
$LN1@scalar@5:
	mov	eax, DWORD PTR _this$[ebp]
	add	esp, 4
	cmp	ebp, esp
	call	__RTC_CheckEsp
	mov	esp, ebp
	pop	ebp
	ret	4
??_GAttackTargetGoal_Evaluator@@UAEPAXI@Z ENDP		; AttackTargetGoal_Evaluator::`scalar deleting destructor'
; Function compile flags: /Odtp /RTCsu
_TEXT	ENDS
;	COMDAT ??1AttackTargetGoal_Evaluator@@UAE@XZ
_TEXT	SEGMENT
_this$ = -4						; size = 4
??1AttackTargetGoal_Evaluator@@UAE@XZ PROC		; AttackTargetGoal_Evaluator::~AttackTargetGoal_Evaluator, COMDAT
; _this$ = ecx
	push	ebp
	mov	ebp, esp
	push	ecx
	mov	DWORD PTR [ebp-4], -858993460		; ccccccccH
	mov	DWORD PTR _this$[ebp], ecx
	mov	ecx, DWORD PTR _this$[ebp]
	call	??1Goal_Evaluator@@UAE@XZ		; Goal_Evaluator::~Goal_Evaluator
	add	esp, 4
	cmp	ebp, esp
	call	__RTC_CheckEsp
	mov	esp, ebp
	pop	ebp
	ret	0
??1AttackTargetGoal_Evaluator@@UAE@XZ ENDP		; AttackTargetGoal_Evaluator::~AttackTargetGoal_Evaluator
_TEXT	ENDS
PUBLIC	??1RBGoal_Think@@UAE@XZ				; RBGoal_Think::~RBGoal_Think
; Function compile flags: /Odtp /RTCsu
;	COMDAT ??_GRBGoal_Think@@UAEPAXI@Z
_TEXT	SEGMENT
_this$ = -4						; size = 4
___flags$ = 8						; size = 4
??_GRBGoal_Think@@UAEPAXI@Z PROC			; RBGoal_Think::`scalar deleting destructor', COMDAT
; _this$ = ecx
	push	ebp
	mov	ebp, esp
	push	ecx
	mov	DWORD PTR [ebp-4], -858993460		; ccccccccH
	mov	DWORD PTR _this$[ebp], ecx
	mov	ecx, DWORD PTR _this$[ebp]
	call	??1RBGoal_Think@@UAE@XZ			; RBGoal_Think::~RBGoal_Think
	mov	eax, DWORD PTR ___flags$[ebp]
	and	eax, 1
	je	SHORT $LN1@scalar@6
	mov	ecx, DWORD PTR _this$[ebp]
	push	ecx
	call	??3@YAXPAX@Z				; operator delete
	add	esp, 4
$LN1@scalar@6:
	mov	eax, DWORD PTR _this$[ebp]
	add	esp, 4
	cmp	ebp, esp
	call	__RTC_CheckEsp
	mov	esp, ebp
	pop	ebp
	ret	4
??_GRBGoal_Think@@UAEPAXI@Z ENDP			; RBGoal_Think::`scalar deleting destructor'
; Function compile flags: /Odtp /RTCsu
; File c:\users\teaja\documents\artificial-fun\labravenprojecttest\raven\bots\rbbot\rbgoal_think.cpp
_TEXT	ENDS
_TEXT	SEGMENT
_this$ = -4						; size = 4
??1RBGoal_Think@@UAE@XZ PROC				; RBGoal_Think::~RBGoal_Think
; _this$ = ecx

; 51   : {

	push	ebp
	mov	ebp, esp
	push	ecx
	mov	DWORD PTR [ebp-4], -858993460		; ccccccccH
	mov	DWORD PTR _this$[ebp], ecx
	mov	eax, DWORD PTR _this$[ebp]
	mov	DWORD PTR [eax], OFFSET ??_7RBGoal_Think@@6B@

; 52   : 
; 53   : }

	mov	ecx, DWORD PTR _this$[ebp]
	call	??1Goal_Think@@UAE@XZ			; Goal_Think::~Goal_Think
	add	esp, 4
	cmp	ebp, esp
	call	__RTC_CheckEsp
	mov	esp, ebp
	pop	ebp
	ret	0
??1RBGoal_Think@@UAE@XZ ENDP				; RBGoal_Think::~RBGoal_Think
_TEXT	ENDS
PUBLIC	?ForwardMessageToFrontMostSubgoal@?$Goal_Composite@VAbstRaven_Bot@@@@IAE_NABUTelegram@@@Z ; Goal_Composite<AbstRaven_Bot>::ForwardMessageToFrontMostSubgoal
; Function compile flags: /Odtp /RTCsu
; File c:\users\teaja\documents\artificial-fun\labravenprojecttest\common\goals\goal_composite.h
;	COMDAT ?HandleMessage@?$Goal_Composite@VAbstRaven_Bot@@@@UAE_NABUTelegram@@@Z
_TEXT	SEGMENT
_this$ = -4						; size = 4
_msg$ = 8						; size = 4
?HandleMessage@?$Goal_Composite@VAbstRaven_Bot@@@@UAE_NABUTelegram@@@Z PROC ; Goal_Composite<AbstRaven_Bot>::HandleMessage, COMDAT
; _this$ = ecx

; 56   :   { return ForwardMessageToFrontMostSubgoal(msg);}

	push	ebp
	mov	ebp, esp
	push	ecx
	mov	DWORD PTR [ebp-4], -858993460		; ccccccccH
	mov	DWORD PTR _this$[ebp], ecx
	mov	eax, DWORD PTR _msg$[ebp]
	push	eax
	mov	ecx, DWORD PTR _this$[ebp]
	call	?ForwardMessageToFrontMostSubgoal@?$Goal_Composite@VAbstRaven_Bot@@@@IAE_NABUTelegram@@@Z ; Goal_Composite<AbstRaven_Bot>::ForwardMessageToFrontMostSubgoal
	add	esp, 4
	cmp	ebp, esp
	call	__RTC_CheckEsp
	mov	esp, ebp
	pop	ebp
	ret	4
?HandleMessage@?$Goal_Composite@VAbstRaven_Bot@@@@UAE_NABUTelegram@@@Z ENDP ; Goal_Composite<AbstRaven_Bot>::HandleMessage
_TEXT	ENDS
PUBLIC	??$_Cons_val@V?$allocator@PAVGoal_Evaluator@@@std@@PAVGoal_Evaluator@@PAV3@@std@@YAXAAV?$allocator@PAVGoal_Evaluator@@@0@PAPAVGoal_Evaluator@@$$QAPAV2@@Z ; std::_Cons_val<std::allocator<Goal_Evaluator *>,Goal_Evaluator *,Goal_Evaluator *>
PUBLIC	??$forward@PAVGoal_Evaluator@@@std@@YA$$QAPAVGoal_Evaluator@@AAPAV1@@Z ; std::forward<Goal_Evaluator *>
PUBLIC	?_Orphan_range@?$vector@PAVGoal_Evaluator@@V?$allocator@PAVGoal_Evaluator@@@std@@@std@@IBEXPAPAVGoal_Evaluator@@0@Z ; std::vector<Goal_Evaluator *,std::allocator<Goal_Evaluator *> >::_Orphan_range
PUBLIC	?_Reserve@?$vector@PAVGoal_Evaluator@@V?$allocator@PAVGoal_Evaluator@@@std@@@std@@IAEXI@Z ; std::vector<Goal_Evaluator *,std::allocator<Goal_Evaluator *> >::_Reserve
PUBLIC	?_Inside@?$vector@PAVGoal_Evaluator@@V?$allocator@PAVGoal_Evaluator@@@std@@@std@@IBE_NPBQAVGoal_Evaluator@@@Z ; std::vector<Goal_Evaluator *,std::allocator<Goal_Evaluator *> >::_Inside
PUBLIC	??$addressof@PAVGoal_Evaluator@@@std@@YAPAPAVGoal_Evaluator@@AAPAV1@@Z ; std::addressof<Goal_Evaluator *>
; Function compile flags: /Odtp /RTCsu
; File c:\program files (x86)\microsoft visual studio 10.0\vc\include\vector
;	COMDAT ?push_back@?$vector@PAVGoal_Evaluator@@V?$allocator@PAVGoal_Evaluator@@@std@@@std@@QAEX$$QAPAVGoal_Evaluator@@@Z
_TEXT	SEGMENT
__Idx$133775 = -8					; size = 4
_this$ = -4						; size = 4
__Val$ = 8						; size = 4
?push_back@?$vector@PAVGoal_Evaluator@@V?$allocator@PAVGoal_Evaluator@@@std@@@std@@QAEX$$QAPAVGoal_Evaluator@@@Z PROC ; std::vector<Goal_Evaluator *,std::allocator<Goal_Evaluator *> >::push_back, COMDAT
; _this$ = ecx

; 631  : 		{	// insert element at end

	push	ebp
	mov	ebp, esp
	sub	esp, 8
	mov	DWORD PTR [ebp-8], -858993460		; ccccccccH
	mov	DWORD PTR [ebp-4], -858993460		; ccccccccH
	mov	DWORD PTR _this$[ebp], ecx

; 632  : 		if (_Inside(_STD addressof(_Val)))

	mov	eax, DWORD PTR __Val$[ebp]
	push	eax
	call	??$addressof@PAVGoal_Evaluator@@@std@@YAPAPAVGoal_Evaluator@@AAPAV1@@Z ; std::addressof<Goal_Evaluator *>
	add	esp, 4
	push	eax
	mov	ecx, DWORD PTR _this$[ebp]
	call	?_Inside@?$vector@PAVGoal_Evaluator@@V?$allocator@PAVGoal_Evaluator@@@std@@@std@@IBE_NPBQAVGoal_Evaluator@@@Z ; std::vector<Goal_Evaluator *,std::allocator<Goal_Evaluator *> >::_Inside
	movzx	ecx, al
	test	ecx, ecx
	je	$LN4@push_back

; 633  : 			{	// push back an element
; 634  : 			size_type _Idx = _STD addressof(_Val) - this->_Myfirst;

	mov	edx, DWORD PTR __Val$[ebp]
	push	edx
	call	??$addressof@PAVGoal_Evaluator@@@std@@YAPAPAVGoal_Evaluator@@AAPAV1@@Z ; std::addressof<Goal_Evaluator *>
	add	esp, 4
	mov	ecx, DWORD PTR _this$[ebp]
	sub	eax, DWORD PTR [ecx+4]
	sar	eax, 2
	mov	DWORD PTR __Idx$133775[ebp], eax

; 635  : 			if (this->_Mylast == this->_Myend)

	mov	edx, DWORD PTR _this$[ebp]
	mov	eax, DWORD PTR _this$[ebp]
	mov	ecx, DWORD PTR [edx+8]
	cmp	ecx, DWORD PTR [eax+12]
	jne	SHORT $LN3@push_back

; 636  : 				_Reserve(1);

	push	1
	mov	ecx, DWORD PTR _this$[ebp]
	call	?_Reserve@?$vector@PAVGoal_Evaluator@@V?$allocator@PAVGoal_Evaluator@@@std@@@std@@IAEXI@Z ; std::vector<Goal_Evaluator *,std::allocator<Goal_Evaluator *> >::_Reserve
$LN3@push_back:

; 637  : 			_Orphan_range(this->_Mylast, this->_Mylast);

	mov	edx, DWORD PTR _this$[ebp]
	mov	eax, DWORD PTR [edx+8]
	push	eax
	mov	ecx, DWORD PTR _this$[ebp]
	mov	edx, DWORD PTR [ecx+8]
	push	edx
	mov	ecx, DWORD PTR _this$[ebp]
	call	?_Orphan_range@?$vector@PAVGoal_Evaluator@@V?$allocator@PAVGoal_Evaluator@@@std@@@std@@IBEXPAPAVGoal_Evaluator@@0@Z ; std::vector<Goal_Evaluator *,std::allocator<Goal_Evaluator *> >::_Orphan_range

; 638  : 			_Cons_val(this->_Alval,
; 639  : 				this->_Mylast,
; 640  : 				_STD forward<_Ty>(this->_Myfirst[_Idx]));

	mov	eax, DWORD PTR _this$[ebp]
	mov	ecx, DWORD PTR [eax+4]
	mov	edx, DWORD PTR __Idx$133775[ebp]
	lea	eax, DWORD PTR [ecx+edx*4]
	push	eax
	call	??$forward@PAVGoal_Evaluator@@@std@@YA$$QAPAVGoal_Evaluator@@AAPAV1@@Z ; std::forward<Goal_Evaluator *>
	add	esp, 4
	push	eax
	mov	ecx, DWORD PTR _this$[ebp]
	mov	edx, DWORD PTR [ecx+8]
	push	edx
	mov	eax, DWORD PTR _this$[ebp]
	add	eax, 16					; 00000010H
	push	eax
	call	??$_Cons_val@V?$allocator@PAVGoal_Evaluator@@@std@@PAVGoal_Evaluator@@PAV3@@std@@YAXAAV?$allocator@PAVGoal_Evaluator@@@0@PAPAVGoal_Evaluator@@$$QAPAV2@@Z ; std::_Cons_val<std::allocator<Goal_Evaluator *>,Goal_Evaluator *,Goal_Evaluator *>
	add	esp, 12					; 0000000cH

; 641  : 			++this->_Mylast;

	mov	ecx, DWORD PTR _this$[ebp]
	mov	edx, DWORD PTR [ecx+8]
	add	edx, 4
	mov	eax, DWORD PTR _this$[ebp]
	mov	DWORD PTR [eax+8], edx

; 642  : 			}
; 643  : 		else

	jmp	SHORT $LN5@push_back
$LN4@push_back:

; 644  : 			{	// push back a non-element
; 645  : 			if (this->_Mylast == this->_Myend)

	mov	ecx, DWORD PTR _this$[ebp]
	mov	edx, DWORD PTR _this$[ebp]
	mov	eax, DWORD PTR [ecx+8]
	cmp	eax, DWORD PTR [edx+12]
	jne	SHORT $LN1@push_back

; 646  : 				_Reserve(1);

	push	1
	mov	ecx, DWORD PTR _this$[ebp]
	call	?_Reserve@?$vector@PAVGoal_Evaluator@@V?$allocator@PAVGoal_Evaluator@@@std@@@std@@IAEXI@Z ; std::vector<Goal_Evaluator *,std::allocator<Goal_Evaluator *> >::_Reserve
$LN1@push_back:

; 647  : 			_Orphan_range(this->_Mylast, this->_Mylast);

	mov	ecx, DWORD PTR _this$[ebp]
	mov	edx, DWORD PTR [ecx+8]
	push	edx
	mov	eax, DWORD PTR _this$[ebp]
	mov	ecx, DWORD PTR [eax+8]
	push	ecx
	mov	ecx, DWORD PTR _this$[ebp]
	call	?_Orphan_range@?$vector@PAVGoal_Evaluator@@V?$allocator@PAVGoal_Evaluator@@@std@@@std@@IBEXPAPAVGoal_Evaluator@@0@Z ; std::vector<Goal_Evaluator *,std::allocator<Goal_Evaluator *> >::_Orphan_range

; 648  : 			_Cons_val(this->_Alval,
; 649  : 				this->_Mylast,
; 650  : 				_STD forward<_Ty>(_Val));

	mov	edx, DWORD PTR __Val$[ebp]
	push	edx
	call	??$forward@PAVGoal_Evaluator@@@std@@YA$$QAPAVGoal_Evaluator@@AAPAV1@@Z ; std::forward<Goal_Evaluator *>
	add	esp, 4
	push	eax
	mov	eax, DWORD PTR _this$[ebp]
	mov	ecx, DWORD PTR [eax+8]
	push	ecx
	mov	edx, DWORD PTR _this$[ebp]
	add	edx, 16					; 00000010H
	push	edx
	call	??$_Cons_val@V?$allocator@PAVGoal_Evaluator@@@std@@PAVGoal_Evaluator@@PAV3@@std@@YAXAAV?$allocator@PAVGoal_Evaluator@@@0@PAPAVGoal_Evaluator@@$$QAPAV2@@Z ; std::_Cons_val<std::allocator<Goal_Evaluator *>,Goal_Evaluator *,Goal_Evaluator *>
	add	esp, 12					; 0000000cH

; 651  : 			++this->_Mylast;

	mov	eax, DWORD PTR _this$[ebp]
	mov	ecx, DWORD PTR [eax+8]
	add	ecx, 4
	mov	edx, DWORD PTR _this$[ebp]
	mov	DWORD PTR [edx+8], ecx
$LN5@push_back:

; 652  : 			}
; 653  : 		}

	add	esp, 8
	cmp	ebp, esp
	call	__RTC_CheckEsp
	mov	esp, ebp
	pop	ebp
	ret	4
?push_back@?$vector@PAVGoal_Evaluator@@V?$allocator@PAVGoal_Evaluator@@@std@@@std@@QAEX$$QAPAVGoal_Evaluator@@@Z ENDP ; std::vector<Goal_Evaluator *,std::allocator<Goal_Evaluator *> >::push_back
_TEXT	ENDS
PUBLIC	??1?$_Vector_const_iterator@V?$_Vector_val@PAVGoal_Evaluator@@V?$allocator@PAVGoal_Evaluator@@@std@@@std@@@std@@QAE@XZ ; std::_Vector_const_iterator<std::_Vector_val<Goal_Evaluator *,std::allocator<Goal_Evaluator *> > >::~_Vector_const_iterator<std::_Vector_val<Goal_Evaluator *,std::allocator<Goal_Evaluator *> > >
PUBLIC	??1?$_Vector_iterator@V?$_Vector_val@PAVGoal_Evaluator@@V?$allocator@PAVGoal_Evaluator@@@std@@@std@@@std@@QAE@XZ ; std::_Vector_iterator<std::_Vector_val<Goal_Evaluator *,std::allocator<Goal_Evaluator *> > >::~_Vector_iterator<std::_Vector_val<Goal_Evaluator *,std::allocator<Goal_Evaluator *> > >
PUBLIC	?erase@?$vector@PAVGoal_Evaluator@@V?$allocator@PAVGoal_Evaluator@@@std@@@std@@QAE?AV?$_Vector_iterator@V?$_Vector_val@PAVGoal_Evaluator@@V?$allocator@PAVGoal_Evaluator@@@std@@@std@@@2@V?$_Vector_const_iterator@V?$_Vector_val@PAVGoal_Evaluator@@V?$allocator@PAVGoal_Evaluator@@@std@@@std@@@2@0@Z ; std::vector<Goal_Evaluator *,std::allocator<Goal_Evaluator *> >::erase
PUBLIC	?begin@?$vector@PAVGoal_Evaluator@@V?$allocator@PAVGoal_Evaluator@@@std@@@std@@QAE?AV?$_Vector_iterator@V?$_Vector_val@PAVGoal_Evaluator@@V?$allocator@PAVGoal_Evaluator@@@std@@@std@@@2@XZ ; std::vector<Goal_Evaluator *,std::allocator<Goal_Evaluator *> >::begin
PUBLIC	??0?$_Vector_const_iterator@V?$_Vector_val@PAVGoal_Evaluator@@V?$allocator@PAVGoal_Evaluator@@@std@@@std@@@std@@QAE@ABV01@@Z ; std::_Vector_const_iterator<std::_Vector_val<Goal_Evaluator *,std::allocator<Goal_Evaluator *> > >::_Vector_const_iterator<std::_Vector_val<Goal_Evaluator *,std::allocator<Goal_Evaluator *> > >
PUBLIC	?end@?$vector@PAVGoal_Evaluator@@V?$allocator@PAVGoal_Evaluator@@@std@@@std@@QAE?AV?$_Vector_iterator@V?$_Vector_val@PAVGoal_Evaluator@@V?$allocator@PAVGoal_Evaluator@@@std@@@std@@@2@XZ ; std::vector<Goal_Evaluator *,std::allocator<Goal_Evaluator *> >::end
;	COMDAT xdata$x
xdata$x	SEGMENT
__unwindtable$?clear@?$vector@PAVGoal_Evaluator@@V?$allocator@PAVGoal_Evaluator@@@std@@@std@@QAEXXZ DD 0ffffffffH
	DD	FLAT:__unwindfunclet$?clear@?$vector@PAVGoal_Evaluator@@V?$allocator@PAVGoal_Evaluator@@@std@@@std@@QAEXXZ$0
	DD	00H
	DD	FLAT:__unwindfunclet$?clear@?$vector@PAVGoal_Evaluator@@V?$allocator@PAVGoal_Evaluator@@@std@@@std@@QAEXXZ$1
	DD	01H
	DD	FLAT:__unwindfunclet$?clear@?$vector@PAVGoal_Evaluator@@V?$allocator@PAVGoal_Evaluator@@@std@@@std@@QAEXXZ$2
	DD	00H
	DD	FLAT:__unwindfunclet$?clear@?$vector@PAVGoal_Evaluator@@V?$allocator@PAVGoal_Evaluator@@@std@@@std@@QAEXXZ$2
__ehfuncinfo$?clear@?$vector@PAVGoal_Evaluator@@V?$allocator@PAVGoal_Evaluator@@@std@@@std@@QAEXXZ DD 019930522H
	DD	04H
	DD	FLAT:__unwindtable$?clear@?$vector@PAVGoal_Evaluator@@V?$allocator@PAVGoal_Evaluator@@@std@@@std@@QAEXXZ
	DD	2 DUP(00H)
	DD	2 DUP(00H)
	DD	00H
	DD	01H
; Function compile flags: /Odtp /RTCsu
xdata$x	ENDS
;	COMDAT ?clear@?$vector@PAVGoal_Evaluator@@V?$allocator@PAVGoal_Evaluator@@@std@@@std@@QAEXXZ
_TEXT	SEGMENT
tv149 = -92						; size = 4
tv154 = -88						; size = 4
tv151 = -84						; size = 4
tv158 = -80						; size = 4
tv148 = -76						; size = 4
tv157 = -72						; size = 4
tv146 = -68						; size = 4
tv156 = -64						; size = 4
$T141741 = -60						; size = 12
$T141740 = -48						; size = 12
$T141739 = -36						; size = 4
$T141738 = -32						; size = 12
$T141737 = -20						; size = 4
_this$ = -16						; size = 4
__$EHRec$ = -12						; size = 12
?clear@?$vector@PAVGoal_Evaluator@@V?$allocator@PAVGoal_Evaluator@@@std@@@std@@QAEXXZ PROC ; std::vector<Goal_Evaluator *,std::allocator<Goal_Evaluator *> >::clear, COMDAT
; _this$ = ecx

; 1217 : 		{	// erase all

	push	ebp
	mov	ebp, esp
	push	-1
	push	__ehhandler$?clear@?$vector@PAVGoal_Evaluator@@V?$allocator@PAVGoal_Evaluator@@@std@@@std@@QAEXXZ
	mov	eax, DWORD PTR fs:0
	push	eax
	sub	esp, 80					; 00000050H
	push	edi
	push	ecx
	lea	edi, DWORD PTR [ebp-92]
	mov	ecx, 20					; 00000014H
	mov	eax, -858993460				; ccccccccH
	rep stosd
	pop	ecx
	mov	eax, DWORD PTR ___security_cookie
	xor	eax, ebp
	push	eax
	lea	eax, DWORD PTR __$EHRec$[ebp]
	mov	DWORD PTR fs:0, eax
	mov	DWORD PTR _this$[ebp], ecx

; 1218 : 		erase(begin(), end());

	lea	eax, DWORD PTR $T141738[ebp]
	push	eax
	mov	ecx, DWORD PTR _this$[ebp]
	call	?end@?$vector@PAVGoal_Evaluator@@V?$allocator@PAVGoal_Evaluator@@@std@@@std@@QAE?AV?$_Vector_iterator@V?$_Vector_val@PAVGoal_Evaluator@@V?$allocator@PAVGoal_Evaluator@@@std@@@std@@@2@XZ ; std::vector<Goal_Evaluator *,std::allocator<Goal_Evaluator *> >::end
	mov	DWORD PTR tv156[ebp], eax
	mov	ecx, DWORD PTR tv156[ebp]
	mov	DWORD PTR tv146[ebp], ecx
	mov	DWORD PTR __$EHRec$[ebp+8], 0
	sub	esp, 12					; 0000000cH
	mov	ecx, esp
	mov	DWORD PTR $T141737[ebp], esp
	mov	edx, DWORD PTR tv146[ebp]
	push	edx
	call	??0?$_Vector_const_iterator@V?$_Vector_val@PAVGoal_Evaluator@@V?$allocator@PAVGoal_Evaluator@@@std@@@std@@@std@@QAE@ABV01@@Z
	mov	DWORD PTR tv157[ebp], eax
	mov	eax, DWORD PTR tv157[ebp]
	mov	DWORD PTR tv148[ebp], eax
	mov	BYTE PTR __$EHRec$[ebp+8], 1
	lea	ecx, DWORD PTR $T141740[ebp]
	push	ecx
	mov	ecx, DWORD PTR _this$[ebp]
	call	?begin@?$vector@PAVGoal_Evaluator@@V?$allocator@PAVGoal_Evaluator@@@std@@@std@@QAE?AV?$_Vector_iterator@V?$_Vector_val@PAVGoal_Evaluator@@V?$allocator@PAVGoal_Evaluator@@@std@@@std@@@2@XZ ; std::vector<Goal_Evaluator *,std::allocator<Goal_Evaluator *> >::begin
	mov	DWORD PTR tv158[ebp], eax
	mov	edx, DWORD PTR tv158[ebp]
	mov	DWORD PTR tv151[ebp], edx
	mov	BYTE PTR __$EHRec$[ebp+8], 2
	sub	esp, 12					; 0000000cH
	mov	ecx, esp
	mov	DWORD PTR $T141739[ebp], esp
	mov	eax, DWORD PTR tv151[ebp]
	push	eax
	call	??0?$_Vector_const_iterator@V?$_Vector_val@PAVGoal_Evaluator@@V?$allocator@PAVGoal_Evaluator@@@std@@@std@@@std@@QAE@ABV01@@Z
	mov	DWORD PTR tv154[ebp], eax
	lea	ecx, DWORD PTR $T141741[ebp]
	push	ecx
	mov	BYTE PTR __$EHRec$[ebp+8], 3
	mov	ecx, DWORD PTR _this$[ebp]
	call	?erase@?$vector@PAVGoal_Evaluator@@V?$allocator@PAVGoal_Evaluator@@@std@@@std@@QAE?AV?$_Vector_iterator@V?$_Vector_val@PAVGoal_Evaluator@@V?$allocator@PAVGoal_Evaluator@@@std@@@std@@@2@V?$_Vector_const_iterator@V?$_Vector_val@PAVGoal_Evaluator@@V?$allocator@PAVGoal_Evaluator@@@std@@@std@@@2@0@Z ; std::vector<Goal_Evaluator *,std::allocator<Goal_Evaluator *> >::erase
	mov	DWORD PTR tv149[ebp], eax
	lea	ecx, DWORD PTR $T141741[ebp]
	call	??1?$_Vector_iterator@V?$_Vector_val@PAVGoal_Evaluator@@V?$allocator@PAVGoal_Evaluator@@@std@@@std@@@std@@QAE@XZ
	mov	BYTE PTR __$EHRec$[ebp+8], 0
	lea	ecx, DWORD PTR $T141740[ebp]
	call	??1?$_Vector_iterator@V?$_Vector_val@PAVGoal_Evaluator@@V?$allocator@PAVGoal_Evaluator@@@std@@@std@@@std@@QAE@XZ
	mov	DWORD PTR __$EHRec$[ebp+8], -1
	lea	ecx, DWORD PTR $T141738[ebp]
	call	??1?$_Vector_iterator@V?$_Vector_val@PAVGoal_Evaluator@@V?$allocator@PAVGoal_Evaluator@@@std@@@std@@@std@@QAE@XZ

; 1219 : 		}

	mov	ecx, DWORD PTR __$EHRec$[ebp]
	mov	DWORD PTR fs:0, ecx
	pop	ecx
	pop	edi
	add	esp, 92					; 0000005cH
	cmp	ebp, esp
	call	__RTC_CheckEsp
	mov	esp, ebp
	pop	ebp
	ret	0
_TEXT	ENDS
;	COMDAT text$x
text$x	SEGMENT
__unwindfunclet$?clear@?$vector@PAVGoal_Evaluator@@V?$allocator@PAVGoal_Evaluator@@@std@@@std@@QAEXXZ$0:
	lea	ecx, DWORD PTR $T141738[ebp]
	jmp	??1?$_Vector_iterator@V?$_Vector_val@PAVGoal_Evaluator@@V?$allocator@PAVGoal_Evaluator@@@std@@@std@@@std@@QAE@XZ
__unwindfunclet$?clear@?$vector@PAVGoal_Evaluator@@V?$allocator@PAVGoal_Evaluator@@@std@@@std@@QAEXXZ$1:
	mov	ecx, DWORD PTR $T141737[ebp]
	jmp	??1?$_Vector_const_iterator@V?$_Vector_val@PAVGoal_Evaluator@@V?$allocator@PAVGoal_Evaluator@@@std@@@std@@@std@@QAE@XZ
__unwindfunclet$?clear@?$vector@PAVGoal_Evaluator@@V?$allocator@PAVGoal_Evaluator@@@std@@@std@@QAEXXZ$2:
	lea	ecx, DWORD PTR $T141740[ebp]
	jmp	??1?$_Vector_iterator@V?$_Vector_val@PAVGoal_Evaluator@@V?$allocator@PAVGoal_Evaluator@@@std@@@std@@@std@@QAE@XZ
__ehhandler$?clear@?$vector@PAVGoal_Evaluator@@V?$allocator@PAVGoal_Evaluator@@@std@@@std@@QAEXXZ:
	mov	edx, DWORD PTR [esp+8]
	lea	eax, DWORD PTR [edx+12]
	mov	ecx, DWORD PTR [edx-88]
	xor	ecx, eax
	call	@__security_check_cookie@4
	mov	eax, OFFSET __ehfuncinfo$?clear@?$vector@PAVGoal_Evaluator@@V?$allocator@PAVGoal_Evaluator@@@std@@@std@@QAEXXZ
	jmp	___CxxFrameHandler3
text$x	ENDS
?clear@?$vector@PAVGoal_Evaluator@@V?$allocator@PAVGoal_Evaluator@@@std@@@std@@QAEXXZ ENDP ; std::vector<Goal_Evaluator *,std::allocator<Goal_Evaluator *> >::clear
; Function compile flags: /Odtp /RTCsu
;	COMDAT ??1?$_Vector_iterator@V?$_Vector_val@PAVGoal_Evaluator@@V?$allocator@PAVGoal_Evaluator@@@std@@@std@@@std@@QAE@XZ
_TEXT	SEGMENT
_this$ = -4						; size = 4
??1?$_Vector_iterator@V?$_Vector_val@PAVGoal_Evaluator@@V?$allocator@PAVGoal_Evaluator@@@std@@@std@@@std@@QAE@XZ PROC ; std::_Vector_iterator<std::_Vector_val<Goal_Evaluator *,std::allocator<Goal_Evaluator *> > >::~_Vector_iterator<std::_Vector_val<Goal_Evaluator *,std::allocator<Goal_Evaluator *> > >, COMDAT
; _this$ = ecx
	push	ebp
	mov	ebp, esp
	push	ecx
	mov	DWORD PTR [ebp-4], -858993460		; ccccccccH
	mov	DWORD PTR _this$[ebp], ecx
	mov	ecx, DWORD PTR _this$[ebp]
	call	??1?$_Vector_const_iterator@V?$_Vector_val@PAVGoal_Evaluator@@V?$allocator@PAVGoal_Evaluator@@@std@@@std@@@std@@QAE@XZ
	add	esp, 4
	cmp	ebp, esp
	call	__RTC_CheckEsp
	mov	esp, ebp
	pop	ebp
	ret	0
??1?$_Vector_iterator@V?$_Vector_val@PAVGoal_Evaluator@@V?$allocator@PAVGoal_Evaluator@@@std@@@std@@@std@@QAE@XZ ENDP ; std::_Vector_iterator<std::_Vector_val<Goal_Evaluator *,std::allocator<Goal_Evaluator *> > >::~_Vector_iterator<std::_Vector_val<Goal_Evaluator *,std::allocator<Goal_Evaluator *> > >
_TEXT	ENDS
PUBLIC	??0?$_Iterator012@Urandom_access_iterator_tag@std@@PAVGoal_Evaluator@@HPBQAV3@ABQAV3@U_Iterator_base12@2@@std@@QAE@ABU01@@Z ; std::_Iterator012<std::random_access_iterator_tag,Goal_Evaluator *,int,Goal_Evaluator * const *,Goal_Evaluator * const &,std::_Iterator_base12>::_Iterator012<std::random_access_iterator_tag,Goal_Evaluator *,int,Goal_Evaluator * const *,Goal_Evaluator * const &,std::_Iterator_base12>
; Function compile flags: /Odtp /RTCsu
;	COMDAT ??0?$_Vector_const_iterator@V?$_Vector_val@PAVGoal_Evaluator@@V?$allocator@PAVGoal_Evaluator@@@std@@@std@@@std@@QAE@ABV01@@Z
_TEXT	SEGMENT
_this$ = -4						; size = 4
___that$ = 8						; size = 4
??0?$_Vector_const_iterator@V?$_Vector_val@PAVGoal_Evaluator@@V?$allocator@PAVGoal_Evaluator@@@std@@@std@@@std@@QAE@ABV01@@Z PROC ; std::_Vector_const_iterator<std::_Vector_val<Goal_Evaluator *,std::allocator<Goal_Evaluator *> > >::_Vector_const_iterator<std::_Vector_val<Goal_Evaluator *,std::allocator<Goal_Evaluator *> > >, COMDAT
; _this$ = ecx
	push	ebp
	mov	ebp, esp
	push	ecx
	mov	DWORD PTR [ebp-4], -858993460		; ccccccccH
	mov	DWORD PTR _this$[ebp], ecx
	mov	eax, DWORD PTR ___that$[ebp]
	push	eax
	mov	ecx, DWORD PTR _this$[ebp]
	call	??0?$_Iterator012@Urandom_access_iterator_tag@std@@PAVGoal_Evaluator@@HPBQAV3@ABQAV3@U_Iterator_base12@2@@std@@QAE@ABU01@@Z
	mov	ecx, DWORD PTR _this$[ebp]
	mov	edx, DWORD PTR ___that$[ebp]
	mov	eax, DWORD PTR [edx+8]
	mov	DWORD PTR [ecx+8], eax
	mov	eax, DWORD PTR _this$[ebp]
	add	esp, 4
	cmp	ebp, esp
	call	__RTC_CheckEsp
	mov	esp, ebp
	pop	ebp
	ret	4
??0?$_Vector_const_iterator@V?$_Vector_val@PAVGoal_Evaluator@@V?$allocator@PAVGoal_Evaluator@@@std@@@std@@@std@@QAE@ABV01@@Z ENDP ; std::_Vector_const_iterator<std::_Vector_val<Goal_Evaluator *,std::allocator<Goal_Evaluator *> > >::_Vector_const_iterator<std::_Vector_val<Goal_Evaluator *,std::allocator<Goal_Evaluator *> > >
_TEXT	ENDS
PUBLIC	??1?$_Iterator012@Urandom_access_iterator_tag@std@@PAVGoal_Evaluator@@HPBQAV3@ABQAV3@U_Iterator_base12@2@@std@@QAE@XZ ; std::_Iterator012<std::random_access_iterator_tag,Goal_Evaluator *,int,Goal_Evaluator * const *,Goal_Evaluator * const &,std::_Iterator_base12>::~_Iterator012<std::random_access_iterator_tag,Goal_Evaluator *,int,Goal_Evaluator * const *,Goal_Evaluator * const &,std::_Iterator_base12>
; Function compile flags: /Odtp /RTCsu
;	COMDAT ??1?$_Vector_const_iterator@V?$_Vector_val@PAVGoal_Evaluator@@V?$allocator@PAVGoal_Evaluator@@@std@@@std@@@std@@QAE@XZ
_TEXT	SEGMENT
_this$ = -4						; size = 4
??1?$_Vector_const_iterator@V?$_Vector_val@PAVGoal_Evaluator@@V?$allocator@PAVGoal_Evaluator@@@std@@@std@@@std@@QAE@XZ PROC ; std::_Vector_const_iterator<std::_Vector_val<Goal_Evaluator *,std::allocator<Goal_Evaluator *> > >::~_Vector_const_iterator<std::_Vector_val<Goal_Evaluator *,std::allocator<Goal_Evaluator *> > >, COMDAT
; _this$ = ecx
	push	ebp
	mov	ebp, esp
	push	ecx
	mov	DWORD PTR [ebp-4], -858993460		; ccccccccH
	mov	DWORD PTR _this$[ebp], ecx
	mov	ecx, DWORD PTR _this$[ebp]
	call	??1?$_Iterator012@Urandom_access_iterator_tag@std@@PAVGoal_Evaluator@@HPBQAV3@ABQAV3@U_Iterator_base12@2@@std@@QAE@XZ
	add	esp, 4
	cmp	ebp, esp
	call	__RTC_CheckEsp
	mov	esp, ebp
	pop	ebp
	ret	0
??1?$_Vector_const_iterator@V?$_Vector_val@PAVGoal_Evaluator@@V?$allocator@PAVGoal_Evaluator@@@std@@@std@@@std@@QAE@XZ ENDP ; std::_Vector_const_iterator<std::_Vector_val<Goal_Evaluator *,std::allocator<Goal_Evaluator *> > >::~_Vector_const_iterator<std::_Vector_val<Goal_Evaluator *,std::allocator<Goal_Evaluator *> > >
_TEXT	ENDS
PUBLIC	??0_Iterator_base12@std@@QAE@ABU01@@Z		; std::_Iterator_base12::_Iterator_base12
; Function compile flags: /Odtp /RTCsu
;	COMDAT ??0?$_Iterator012@Urandom_access_iterator_tag@std@@PAVGoal_Evaluator@@HPBQAV3@ABQAV3@U_Iterator_base12@2@@std@@QAE@ABU01@@Z
_TEXT	SEGMENT
_this$ = -4						; size = 4
___that$ = 8						; size = 4
??0?$_Iterator012@Urandom_access_iterator_tag@std@@PAVGoal_Evaluator@@HPBQAV3@ABQAV3@U_Iterator_base12@2@@std@@QAE@ABU01@@Z PROC ; std::_Iterator012<std::random_access_iterator_tag,Goal_Evaluator *,int,Goal_Evaluator * const *,Goal_Evaluator * const &,std::_Iterator_base12>::_Iterator012<std::random_access_iterator_tag,Goal_Evaluator *,int,Goal_Evaluator * const *,Goal_Evaluator * const &,std::_Iterator_base12>, COMDAT
; _this$ = ecx
	push	ebp
	mov	ebp, esp
	push	ecx
	mov	DWORD PTR [ebp-4], -858993460		; ccccccccH
	mov	DWORD PTR _this$[ebp], ecx
	mov	eax, DWORD PTR ___that$[ebp]
	push	eax
	mov	ecx, DWORD PTR _this$[ebp]
	call	??0_Iterator_base12@std@@QAE@ABU01@@Z	; std::_Iterator_base12::_Iterator_base12
	mov	eax, DWORD PTR _this$[ebp]
	add	esp, 4
	cmp	ebp, esp
	call	__RTC_CheckEsp
	mov	esp, ebp
	pop	ebp
	ret	4
??0?$_Iterator012@Urandom_access_iterator_tag@std@@PAVGoal_Evaluator@@HPBQAV3@ABQAV3@U_Iterator_base12@2@@std@@QAE@ABU01@@Z ENDP ; std::_Iterator012<std::random_access_iterator_tag,Goal_Evaluator *,int,Goal_Evaluator * const *,Goal_Evaluator * const &,std::_Iterator_base12>::_Iterator012<std::random_access_iterator_tag,Goal_Evaluator *,int,Goal_Evaluator * const *,Goal_Evaluator * const &,std::_Iterator_base12>
_TEXT	ENDS
PUBLIC	??4_Iterator_base12@std@@QAEAAU01@ABU01@@Z	; std::_Iterator_base12::operator=
; Function compile flags: /Odtp /RTCsu
; File c:\program files (x86)\microsoft visual studio 10.0\vc\include\xutility
;	COMDAT ??0_Iterator_base12@std@@QAE@ABU01@@Z
_TEXT	SEGMENT
_this$ = -4						; size = 4
__Right$ = 8						; size = 4
??0_Iterator_base12@std@@QAE@ABU01@@Z PROC		; std::_Iterator_base12::_Iterator_base12, COMDAT
; _this$ = ecx

; 116  : 		{	// copy an iterator

	push	ebp
	mov	ebp, esp
	push	ecx
	mov	DWORD PTR [ebp-4], -858993460		; ccccccccH
	mov	DWORD PTR _this$[ebp], ecx
	mov	eax, DWORD PTR _this$[ebp]
	mov	DWORD PTR [eax], 0
	mov	ecx, DWORD PTR _this$[ebp]
	mov	DWORD PTR [ecx+4], 0

; 117  : 		*this = _Right;

	mov	edx, DWORD PTR __Right$[ebp]
	push	edx
	mov	ecx, DWORD PTR _this$[ebp]
	call	??4_Iterator_base12@std@@QAEAAU01@ABU01@@Z ; std::_Iterator_base12::operator=

; 118  : 		}

	mov	eax, DWORD PTR _this$[ebp]
	add	esp, 4
	cmp	ebp, esp
	call	__RTC_CheckEsp
	mov	esp, ebp
	pop	ebp
	ret	4
??0_Iterator_base12@std@@QAE@ABU01@@Z ENDP		; std::_Iterator_base12::_Iterator_base12
_TEXT	ENDS
PUBLIC	?_Orphan_me@_Iterator_base12@std@@QAEXXZ	; std::_Iterator_base12::_Orphan_me
PUBLIC	?_Adopt@_Iterator_base12@std@@QAEXPBU_Container_base12@2@@Z ; std::_Iterator_base12::_Adopt
EXTRN	??1_Lockit@std@@QAE@XZ:PROC			; std::_Lockit::~_Lockit
EXTRN	??0_Lockit@std@@QAE@H@Z:PROC			; std::_Lockit::_Lockit
EXTRN	@_RTC_CheckStackVars@8:PROC
;	COMDAT xdata$x
xdata$x	SEGMENT
__unwindtable$??4_Iterator_base12@std@@QAEAAU01@ABU01@@Z DD 0ffffffffH
	DD	FLAT:__unwindfunclet$??4_Iterator_base12@std@@QAEAAU01@ABU01@@Z$0
__ehfuncinfo$??4_Iterator_base12@std@@QAEAAU01@ABU01@@Z DD 019930522H
	DD	01H
	DD	FLAT:__unwindtable$??4_Iterator_base12@std@@QAEAAU01@ABU01@@Z
	DD	2 DUP(00H)
	DD	2 DUP(00H)
	DD	00H
	DD	01H
; Function compile flags: /Odtp /RTCsu
xdata$x	ENDS
;	COMDAT ??4_Iterator_base12@std@@QAEAAU01@ABU01@@Z
_TEXT	SEGMENT
__Lock$15134 = -24					; size = 4
_this$ = -16						; size = 4
__$EHRec$ = -12						; size = 12
__Right$ = 8						; size = 4
??4_Iterator_base12@std@@QAEAAU01@ABU01@@Z PROC		; std::_Iterator_base12::operator=, COMDAT
; _this$ = ecx

; 121  : 		{	// assign an iterator

	push	ebp
	mov	ebp, esp
	push	-1
	push	__ehhandler$??4_Iterator_base12@std@@QAEAAU01@ABU01@@Z
	mov	eax, DWORD PTR fs:0
	push	eax
	sub	esp, 16					; 00000010H
	mov	eax, -858993460				; ccccccccH
	mov	DWORD PTR [ebp-28], eax
	mov	DWORD PTR [ebp-24], eax
	mov	DWORD PTR [ebp-20], eax
	mov	DWORD PTR [ebp-16], eax
	mov	eax, DWORD PTR ___security_cookie
	xor	eax, ebp
	push	eax
	lea	eax, DWORD PTR __$EHRec$[ebp]
	mov	DWORD PTR fs:0, eax
	mov	DWORD PTR _this$[ebp], ecx

; 122  : 		if (_Myproxy == _Right._Myproxy)

	mov	eax, DWORD PTR _this$[ebp]
	mov	ecx, DWORD PTR __Right$[ebp]
	mov	edx, DWORD PTR [eax]
	cmp	edx, DWORD PTR [ecx]
	jne	SHORT $LN4@operator
	jmp	SHORT $LN3@operator
$LN4@operator:

; 123  : 			;
; 124  : 		else if (_Right._Myproxy != 0)

	mov	eax, DWORD PTR __Right$[ebp]
	cmp	DWORD PTR [eax], 0
	je	SHORT $LN2@operator

; 125  : 			_Adopt(_Right._Myproxy->_Mycont);

	mov	ecx, DWORD PTR __Right$[ebp]
	mov	edx, DWORD PTR [ecx]
	mov	eax, DWORD PTR [edx]
	push	eax
	mov	ecx, DWORD PTR _this$[ebp]
	call	?_Adopt@_Iterator_base12@std@@QAEXPBU_Container_base12@2@@Z ; std::_Iterator_base12::_Adopt

; 126  : 		else

	jmp	SHORT $LN3@operator
$LN2@operator:

; 127  : 			{	// becoming invalid, disown current parent
; 128  : 			_Lockit _Lock(_LOCK_DEBUG);

	push	3
	lea	ecx, DWORD PTR __Lock$15134[ebp]
	call	??0_Lockit@std@@QAE@H@Z			; std::_Lockit::_Lockit
	mov	DWORD PTR __$EHRec$[ebp+8], 0

; 129  : 			_Orphan_me();

	mov	ecx, DWORD PTR _this$[ebp]
	call	?_Orphan_me@_Iterator_base12@std@@QAEXXZ ; std::_Iterator_base12::_Orphan_me

; 130  : 			}

	mov	DWORD PTR __$EHRec$[ebp+8], -1
	lea	ecx, DWORD PTR __Lock$15134[ebp]
	call	??1_Lockit@std@@QAE@XZ			; std::_Lockit::~_Lockit
$LN3@operator:

; 131  : 		return (*this);

	mov	eax, DWORD PTR _this$[ebp]

; 132  : 		}

	push	edx
	mov	ecx, ebp
	push	eax
	lea	edx, DWORD PTR $LN11@operator
	call	@_RTC_CheckStackVars@8
	pop	eax
	pop	edx
	mov	ecx, DWORD PTR __$EHRec$[ebp]
	mov	DWORD PTR fs:0, ecx
	pop	ecx
	add	esp, 28					; 0000001cH
	cmp	ebp, esp
	call	__RTC_CheckEsp
	mov	esp, ebp
	pop	ebp
	ret	4
$LN11@operator:
	DD	1
	DD	$LN10@operator
$LN10@operator:
	DD	-24					; ffffffe8H
	DD	4
	DD	$LN8@operator
$LN8@operator:
	DB	95					; 0000005fH
	DB	76					; 0000004cH
	DB	111					; 0000006fH
	DB	99					; 00000063H
	DB	107					; 0000006bH
	DB	0
_TEXT	ENDS
;	COMDAT text$x
text$x	SEGMENT
__unwindfunclet$??4_Iterator_base12@std@@QAEAAU01@ABU01@@Z$0:
	lea	ecx, DWORD PTR __Lock$15134[ebp]
	jmp	??1_Lockit@std@@QAE@XZ			; std::_Lockit::~_Lockit
__ehhandler$??4_Iterator_base12@std@@QAEAAU01@ABU01@@Z:
	mov	edx, DWORD PTR [esp+8]
	lea	eax, DWORD PTR [edx+12]
	mov	ecx, DWORD PTR [edx-20]
	xor	ecx, eax
	call	@__security_check_cookie@4
	mov	eax, OFFSET __ehfuncinfo$??4_Iterator_base12@std@@QAEAAU01@ABU01@@Z
	jmp	___CxxFrameHandler3
text$x	ENDS
??4_Iterator_base12@std@@QAEAAU01@ABU01@@Z ENDP		; std::_Iterator_base12::operator=
;	COMDAT xdata$x
xdata$x	SEGMENT
__unwindtable$?_Adopt@_Iterator_base12@std@@QAEXPBU_Container_base12@2@@Z DD 0ffffffffH
	DD	FLAT:__unwindfunclet$?_Adopt@_Iterator_base12@std@@QAEXPBU_Container_base12@2@@Z$0
	DD	0ffffffffH
	DD	FLAT:__unwindfunclet$?_Adopt@_Iterator_base12@std@@QAEXPBU_Container_base12@2@@Z$1
__ehfuncinfo$?_Adopt@_Iterator_base12@std@@QAEXPBU_Container_base12@2@@Z DD 019930522H
	DD	02H
	DD	FLAT:__unwindtable$?_Adopt@_Iterator_base12@std@@QAEXPBU_Container_base12@2@@Z
	DD	2 DUP(00H)
	DD	2 DUP(00H)
	DD	00H
	DD	01H
; Function compile flags: /Odtp /RTCsu
xdata$x	ENDS
;	COMDAT ?_Adopt@_Iterator_base12@std@@QAEXPBU_Container_base12@2@@Z
_TEXT	SEGMENT
__Lock$15145 = -40					; size = 4
__Parent_proxy$15143 = -32				; size = 4
__Lock$15141 = -24					; size = 4
_this$ = -16						; size = 4
__$EHRec$ = -12						; size = 12
__Parent$ = 8						; size = 4
?_Adopt@_Iterator_base12@std@@QAEXPBU_Container_base12@2@@Z PROC ; std::_Iterator_base12::_Adopt, COMDAT
; _this$ = ecx

; 143  : 		{	// adopt this iterator by parent

	push	ebp
	mov	ebp, esp
	push	-1
	push	__ehhandler$?_Adopt@_Iterator_base12@std@@QAEXPBU_Container_base12@2@@Z
	mov	eax, DWORD PTR fs:0
	push	eax
	sub	esp, 32					; 00000020H
	mov	eax, -858993460				; ccccccccH
	mov	DWORD PTR [ebp-44], eax
	mov	DWORD PTR [ebp-40], eax
	mov	DWORD PTR [ebp-36], eax
	mov	DWORD PTR [ebp-32], eax
	mov	DWORD PTR [ebp-28], eax
	mov	DWORD PTR [ebp-24], eax
	mov	DWORD PTR [ebp-20], eax
	mov	DWORD PTR [ebp-16], eax
	mov	eax, DWORD PTR ___security_cookie
	xor	eax, ebp
	push	eax
	lea	eax, DWORD PTR __$EHRec$[ebp]
	mov	DWORD PTR fs:0, eax
	mov	DWORD PTR _this$[ebp], ecx

; 144  : 		if (_Parent == 0)

	cmp	DWORD PTR __Parent$[ebp], 0
	jne	SHORT $LN3@Adopt

; 145  : 			{	// no future parent, just disown current parent
; 146  : 			_Lockit _Lock(_LOCK_DEBUG);

	push	3
	lea	ecx, DWORD PTR __Lock$15141[ebp]
	call	??0_Lockit@std@@QAE@H@Z			; std::_Lockit::_Lockit
	mov	DWORD PTR __$EHRec$[ebp+8], 0

; 147  : 			_Orphan_me();

	mov	ecx, DWORD PTR _this$[ebp]
	call	?_Orphan_me@_Iterator_base12@std@@QAEXXZ ; std::_Iterator_base12::_Orphan_me

; 148  : 			}

	mov	DWORD PTR __$EHRec$[ebp+8], -1
	lea	ecx, DWORD PTR __Lock$15141[ebp]
	call	??1_Lockit@std@@QAE@XZ			; std::_Lockit::~_Lockit

; 149  : 		else

	jmp	SHORT $LN4@Adopt
$LN3@Adopt:

; 150  : 			{	// have a parent, do adoption
; 151  : 			_Container_proxy *_Parent_proxy = _Parent->_Myproxy;

	mov	eax, DWORD PTR __Parent$[ebp]
	mov	ecx, DWORD PTR [eax]
	mov	DWORD PTR __Parent_proxy$15143[ebp], ecx

; 152  : 
; 153  :  #if _ITERATOR_DEBUG_LEVEL == 2
; 154  : 			if (_Myproxy != _Parent_proxy)

	mov	edx, DWORD PTR _this$[ebp]
	mov	eax, DWORD PTR [edx]
	cmp	eax, DWORD PTR __Parent_proxy$15143[ebp]
	je	SHORT $LN4@Adopt

; 155  : 				{	// change parentage
; 156  : 				_Lockit _Lock(_LOCK_DEBUG);

	push	3
	lea	ecx, DWORD PTR __Lock$15145[ebp]
	call	??0_Lockit@std@@QAE@H@Z			; std::_Lockit::_Lockit
	mov	DWORD PTR __$EHRec$[ebp+8], 1

; 157  : 				_Orphan_me();

	mov	ecx, DWORD PTR _this$[ebp]
	call	?_Orphan_me@_Iterator_base12@std@@QAEXXZ ; std::_Iterator_base12::_Orphan_me

; 158  : 				_Mynextiter = _Parent_proxy->_Myfirstiter;

	mov	ecx, DWORD PTR _this$[ebp]
	mov	edx, DWORD PTR __Parent_proxy$15143[ebp]
	mov	eax, DWORD PTR [edx+4]
	mov	DWORD PTR [ecx+4], eax

; 159  : 				_Parent_proxy->_Myfirstiter = this;

	mov	ecx, DWORD PTR __Parent_proxy$15143[ebp]
	mov	edx, DWORD PTR _this$[ebp]
	mov	DWORD PTR [ecx+4], edx

; 160  : 				_Myproxy = _Parent_proxy;

	mov	eax, DWORD PTR _this$[ebp]
	mov	ecx, DWORD PTR __Parent_proxy$15143[ebp]
	mov	DWORD PTR [eax], ecx

; 161  : 				}

	mov	DWORD PTR __$EHRec$[ebp+8], -1
	lea	ecx, DWORD PTR __Lock$15145[ebp]
	call	??1_Lockit@std@@QAE@XZ			; std::_Lockit::~_Lockit
$LN4@Adopt:

; 162  :  #else /* _ITERATOR_DEBUG_LEVEL == 2 */
; 163  : 			_Myproxy = _Parent_proxy;
; 164  :  #endif /* _ITERATOR_DEBUG_LEVEL == 2 */
; 165  : 			}
; 166  : 		}

	push	edx
	mov	ecx, ebp
	push	eax
	lea	edx, DWORD PTR $LN12@Adopt
	call	@_RTC_CheckStackVars@8
	pop	eax
	pop	edx
	mov	ecx, DWORD PTR __$EHRec$[ebp]
	mov	DWORD PTR fs:0, ecx
	pop	ecx
	add	esp, 44					; 0000002cH
	cmp	ebp, esp
	call	__RTC_CheckEsp
	mov	esp, ebp
	pop	ebp
	ret	4
$LN12@Adopt:
	DD	2
	DD	$LN11@Adopt
$LN11@Adopt:
	DD	-24					; ffffffe8H
	DD	4
	DD	$LN8@Adopt
	DD	-40					; ffffffd8H
	DD	4
	DD	$LN9@Adopt
$LN9@Adopt:
	DB	95					; 0000005fH
	DB	76					; 0000004cH
	DB	111					; 0000006fH
	DB	99					; 00000063H
	DB	107					; 0000006bH
	DB	0
$LN8@Adopt:
	DB	95					; 0000005fH
	DB	76					; 0000004cH
	DB	111					; 0000006fH
	DB	99					; 00000063H
	DB	107					; 0000006bH
	DB	0
_TEXT	ENDS
;	COMDAT text$x
text$x	SEGMENT
__unwindfunclet$?_Adopt@_Iterator_base12@std@@QAEXPBU_Container_base12@2@@Z$0:
	lea	ecx, DWORD PTR __Lock$15141[ebp]
	jmp	??1_Lockit@std@@QAE@XZ			; std::_Lockit::~_Lockit
__unwindfunclet$?_Adopt@_Iterator_base12@std@@QAEXPBU_Container_base12@2@@Z$1:
	lea	ecx, DWORD PTR __Lock$15145[ebp]
	jmp	??1_Lockit@std@@QAE@XZ			; std::_Lockit::~_Lockit
__ehhandler$?_Adopt@_Iterator_base12@std@@QAEXPBU_Container_base12@2@@Z:
	mov	edx, DWORD PTR [esp+8]
	lea	eax, DWORD PTR [edx+12]
	mov	ecx, DWORD PTR [edx-36]
	xor	ecx, eax
	call	@__security_check_cookie@4
	mov	eax, OFFSET __ehfuncinfo$?_Adopt@_Iterator_base12@std@@QAEXPBU_Container_base12@2@@Z
	jmp	___CxxFrameHandler3
text$x	ENDS
?_Adopt@_Iterator_base12@std@@QAEXPBU_Container_base12@2@@Z ENDP ; std::_Iterator_base12::_Adopt
PUBLIC	??_C@_1DC@POOIKBAO@?$AAI?$AAT?$AAE?$AAR?$AAA?$AAT?$AAO?$AAR?$AA?5?$AAL?$AAI?$AAS?$AAT?$AA?5?$AAC?$AAO?$AAR?$AAR?$AAU?$AAP?$AAT?$AAE?$AAD?$AA?$CB?$AA?$AA@ ; `string'
PUBLIC	??_C@_1JA@HCKHPKJH@?$AAc?$AA?3?$AA?2?$AAP?$AAr?$AAo?$AAg?$AAr?$AAa?$AAm?$AA?5?$AAF?$AAi?$AAl?$AAe?$AAs?$AA?5?$AA?$CI?$AAx?$AA8?$AA6?$AA?$CJ?$AA?2?$AAM?$AAi?$AAc?$AAr?$AAo?$AAs?$AAo?$AAf?$AAt@ ; `string'
EXTRN	?_Debug_message@std@@YAXPB_W0I@Z:PROC		; std::_Debug_message
;	COMDAT ??_C@_1DC@POOIKBAO@?$AAI?$AAT?$AAE?$AAR?$AAA?$AAT?$AAO?$AAR?$AA?5?$AAL?$AAI?$AAS?$AAT?$AA?5?$AAC?$AAO?$AAR?$AAR?$AAU?$AAP?$AAT?$AAE?$AAD?$AA?$CB?$AA?$AA@
CONST	SEGMENT
??_C@_1DC@POOIKBAO@?$AAI?$AAT?$AAE?$AAR?$AAA?$AAT?$AAO?$AAR?$AA?5?$AAL?$AAI?$AAS?$AAT?$AA?5?$AAC?$AAO?$AAR?$AAR?$AAU?$AAP?$AAT?$AAE?$AAD?$AA?$CB?$AA?$AA@ DB 'I'
	DB	00H, 'T', 00H, 'E', 00H, 'R', 00H, 'A', 00H, 'T', 00H, 'O', 00H
	DB	'R', 00H, ' ', 00H, 'L', 00H, 'I', 00H, 'S', 00H, 'T', 00H, ' '
	DB	00H, 'C', 00H, 'O', 00H, 'R', 00H, 'R', 00H, 'U', 00H, 'P', 00H
	DB	'T', 00H, 'E', 00H, 'D', 00H, '!', 00H, 00H, 00H ; `string'
CONST	ENDS
;	COMDAT ??_C@_1JA@HCKHPKJH@?$AAc?$AA?3?$AA?2?$AAP?$AAr?$AAo?$AAg?$AAr?$AAa?$AAm?$AA?5?$AAF?$AAi?$AAl?$AAe?$AAs?$AA?5?$AA?$CI?$AAx?$AA8?$AA6?$AA?$CJ?$AA?2?$AAM?$AAi?$AAc?$AAr?$AAo?$AAs?$AAo?$AAf?$AAt@
CONST	SEGMENT
??_C@_1JA@HCKHPKJH@?$AAc?$AA?3?$AA?2?$AAP?$AAr?$AAo?$AAg?$AAr?$AAa?$AAm?$AA?5?$AAF?$AAi?$AAl?$AAe?$AAs?$AA?5?$AA?$CI?$AAx?$AA8?$AA6?$AA?$CJ?$AA?2?$AAM?$AAi?$AAc?$AAr?$AAo?$AAs?$AAo?$AAf?$AAt@ DB 'c'
	DB	00H, ':', 00H, '\', 00H, 'P', 00H, 'r', 00H, 'o', 00H, 'g', 00H
	DB	'r', 00H, 'a', 00H, 'm', 00H, ' ', 00H, 'F', 00H, 'i', 00H, 'l'
	DB	00H, 'e', 00H, 's', 00H, ' ', 00H, '(', 00H, 'x', 00H, '8', 00H
	DB	'6', 00H, ')', 00H, '\', 00H, 'M', 00H, 'i', 00H, 'c', 00H, 'r'
	DB	00H, 'o', 00H, 's', 00H, 'o', 00H, 'f', 00H, 't', 00H, ' ', 00H
	DB	'V', 00H, 'i', 00H, 's', 00H, 'u', 00H, 'a', 00H, 'l', 00H, ' '
	DB	00H, 'S', 00H, 't', 00H, 'u', 00H, 'd', 00H, 'i', 00H, 'o', 00H
	DB	' ', 00H, '1', 00H, '0', 00H, '.', 00H, '0', 00H, '\', 00H, 'V'
	DB	00H, 'C', 00H, '\', 00H, 'i', 00H, 'n', 00H, 'c', 00H, 'l', 00H
	DB	'u', 00H, 'd', 00H, 'e', 00H, '\', 00H, 'x', 00H, 'u', 00H, 't'
	DB	00H, 'i', 00H, 'l', 00H, 'i', 00H, 't', 00H, 'y', 00H, 00H, 00H ; `string'
; Function compile flags: /Odtp /RTCsu
CONST	ENDS
;	COMDAT ?_Orphan_me@_Iterator_base12@std@@QAEXXZ
_TEXT	SEGMENT
__Pnext$15155 = -8					; size = 4
_this$ = -4						; size = 4
?_Orphan_me@_Iterator_base12@std@@QAEXXZ PROC		; std::_Iterator_base12::_Orphan_me, COMDAT
; _this$ = ecx

; 184  : 		{	// cut ties with parent

	push	ebp
	mov	ebp, esp
	sub	esp, 8
	mov	DWORD PTR [ebp-8], -858993460		; ccccccccH
	mov	DWORD PTR [ebp-4], -858993460		; ccccccccH
	mov	DWORD PTR _this$[ebp], ecx

; 185  :  #if _ITERATOR_DEBUG_LEVEL == 2
; 186  : 		if (_Myproxy != 0)

	mov	eax, DWORD PTR _this$[ebp]
	cmp	DWORD PTR [eax], 0
	je	SHORT $LN5@Orphan_me

; 187  : 			{	// adopted, remove self from list
; 188  : 			_Iterator_base12 **_Pnext = &_Myproxy->_Myfirstiter;

	mov	ecx, DWORD PTR _this$[ebp]
	mov	edx, DWORD PTR [ecx]
	add	edx, 4
	mov	DWORD PTR __Pnext$15155[ebp], edx
$LN3@Orphan_me:

; 189  : 			while (*_Pnext != 0 && *_Pnext != this)

	mov	eax, DWORD PTR __Pnext$15155[ebp]
	cmp	DWORD PTR [eax], 0
	je	SHORT $LN2@Orphan_me
	mov	ecx, DWORD PTR __Pnext$15155[ebp]
	mov	edx, DWORD PTR [ecx]
	cmp	edx, DWORD PTR _this$[ebp]
	je	SHORT $LN2@Orphan_me

; 190  : 				_Pnext = &(*_Pnext)->_Mynextiter;

	mov	eax, DWORD PTR __Pnext$15155[ebp]
	mov	ecx, DWORD PTR [eax]
	add	ecx, 4
	mov	DWORD PTR __Pnext$15155[ebp], ecx
	jmp	SHORT $LN3@Orphan_me
$LN2@Orphan_me:

; 191  : 
; 192  : 			if (*_Pnext == 0)

	mov	edx, DWORD PTR __Pnext$15155[ebp]
	cmp	DWORD PTR [edx], 0
	jne	SHORT $LN1@Orphan_me

; 193  : 				_DEBUG_ERROR("ITERATOR LIST CORRUPTED!");

	push	193					; 000000c1H
	push	OFFSET ??_C@_1JA@HCKHPKJH@?$AAc?$AA?3?$AA?2?$AAP?$AAr?$AAo?$AAg?$AAr?$AAa?$AAm?$AA?5?$AAF?$AAi?$AAl?$AAe?$AAs?$AA?5?$AA?$CI?$AAx?$AA8?$AA6?$AA?$CJ?$AA?2?$AAM?$AAi?$AAc?$AAr?$AAo?$AAs?$AAo?$AAf?$AAt@
	push	OFFSET ??_C@_1DC@POOIKBAO@?$AAI?$AAT?$AAE?$AAR?$AAA?$AAT?$AAO?$AAR?$AA?5?$AAL?$AAI?$AAS?$AAT?$AA?5?$AAC?$AAO?$AAR?$AAR?$AAU?$AAP?$AAT?$AAE?$AAD?$AA?$CB?$AA?$AA@
	call	?_Debug_message@std@@YAXPB_W0I@Z	; std::_Debug_message
	add	esp, 12					; 0000000cH
$LN1@Orphan_me:

; 194  : 			*_Pnext = _Mynextiter;

	mov	eax, DWORD PTR __Pnext$15155[ebp]
	mov	ecx, DWORD PTR _this$[ebp]
	mov	edx, DWORD PTR [ecx+4]
	mov	DWORD PTR [eax], edx

; 195  : 			_Myproxy = 0;

	mov	eax, DWORD PTR _this$[ebp]
	mov	DWORD PTR [eax], 0
$LN5@Orphan_me:

; 196  : 			}
; 197  :  #endif /* _ITERATOR_DEBUG_LEVEL == 2 */
; 198  : 		}

	add	esp, 8
	cmp	ebp, esp
	call	__RTC_CheckEsp
	mov	esp, ebp
	pop	ebp
	ret	0
?_Orphan_me@_Iterator_base12@std@@QAEXXZ ENDP		; std::_Iterator_base12::_Orphan_me
_TEXT	ENDS
PUBLIC	??1_Iterator_base12@std@@QAE@XZ			; std::_Iterator_base12::~_Iterator_base12
; Function compile flags: /Odtp /RTCsu
;	COMDAT ??1?$_Iterator012@Urandom_access_iterator_tag@std@@PAVGoal_Evaluator@@HPBQAV3@ABQAV3@U_Iterator_base12@2@@std@@QAE@XZ
_TEXT	SEGMENT
_this$ = -4						; size = 4
??1?$_Iterator012@Urandom_access_iterator_tag@std@@PAVGoal_Evaluator@@HPBQAV3@ABQAV3@U_Iterator_base12@2@@std@@QAE@XZ PROC ; std::_Iterator012<std::random_access_iterator_tag,Goal_Evaluator *,int,Goal_Evaluator * const *,Goal_Evaluator * const &,std::_Iterator_base12>::~_Iterator012<std::random_access_iterator_tag,Goal_Evaluator *,int,Goal_Evaluator * const *,Goal_Evaluator * const &,std::_Iterator_base12>, COMDAT
; _this$ = ecx
	push	ebp
	mov	ebp, esp
	push	ecx
	mov	DWORD PTR [ebp-4], -858993460		; ccccccccH
	mov	DWORD PTR _this$[ebp], ecx
	mov	ecx, DWORD PTR _this$[ebp]
	call	??1_Iterator_base12@std@@QAE@XZ		; std::_Iterator_base12::~_Iterator_base12
	add	esp, 4
	cmp	ebp, esp
	call	__RTC_CheckEsp
	mov	esp, ebp
	pop	ebp
	ret	0
??1?$_Iterator012@Urandom_access_iterator_tag@std@@PAVGoal_Evaluator@@HPBQAV3@ABQAV3@U_Iterator_base12@2@@std@@QAE@XZ ENDP ; std::_Iterator012<std::random_access_iterator_tag,Goal_Evaluator *,int,Goal_Evaluator * const *,Goal_Evaluator * const &,std::_Iterator_base12>::~_Iterator012<std::random_access_iterator_tag,Goal_Evaluator *,int,Goal_Evaluator * const *,Goal_Evaluator * const &,std::_Iterator_base12>
_TEXT	ENDS
;	COMDAT xdata$x
xdata$x	SEGMENT
__unwindtable$??1_Iterator_base12@std@@QAE@XZ DD 0ffffffffH
	DD	FLAT:__unwindfunclet$??1_Iterator_base12@std@@QAE@XZ$0
__ehfuncinfo$??1_Iterator_base12@std@@QAE@XZ DD 019930522H
	DD	01H
	DD	FLAT:__unwindtable$??1_Iterator_base12@std@@QAE@XZ
	DD	2 DUP(00H)
	DD	2 DUP(00H)
	DD	00H
	DD	01H
; Function compile flags: /Odtp /RTCsu
xdata$x	ENDS
;	COMDAT ??1_Iterator_base12@std@@QAE@XZ
_TEXT	SEGMENT
__Lock$ = -24						; size = 4
_this$ = -16						; size = 4
__$EHRec$ = -12						; size = 12
??1_Iterator_base12@std@@QAE@XZ PROC			; std::_Iterator_base12::~_Iterator_base12, COMDAT
; _this$ = ecx

; 135  : 		{	// destroy the iterator

	push	ebp
	mov	ebp, esp
	push	-1
	push	__ehhandler$??1_Iterator_base12@std@@QAE@XZ
	mov	eax, DWORD PTR fs:0
	push	eax
	sub	esp, 16					; 00000010H
	mov	eax, -858993460				; ccccccccH
	mov	DWORD PTR [ebp-28], eax
	mov	DWORD PTR [ebp-24], eax
	mov	DWORD PTR [ebp-20], eax
	mov	DWORD PTR [ebp-16], eax
	mov	eax, DWORD PTR ___security_cookie
	xor	eax, ebp
	push	eax
	lea	eax, DWORD PTR __$EHRec$[ebp]
	mov	DWORD PTR fs:0, eax
	mov	DWORD PTR _this$[ebp], ecx

; 136  :  #if _ITERATOR_DEBUG_LEVEL == 2
; 137  : 		_Lockit _Lock(_LOCK_DEBUG);

	push	3
	lea	ecx, DWORD PTR __Lock$[ebp]
	call	??0_Lockit@std@@QAE@H@Z			; std::_Lockit::_Lockit
	mov	DWORD PTR __$EHRec$[ebp+8], 0

; 138  : 		_Orphan_me();

	mov	ecx, DWORD PTR _this$[ebp]
	call	?_Orphan_me@_Iterator_base12@std@@QAEXXZ ; std::_Iterator_base12::_Orphan_me

; 139  :  #endif /* _ITERATOR_DEBUG_LEVEL == 2 */
; 140  : 		}

	mov	DWORD PTR __$EHRec$[ebp+8], -1
	lea	ecx, DWORD PTR __Lock$[ebp]
	call	??1_Lockit@std@@QAE@XZ			; std::_Lockit::~_Lockit
	push	edx
	mov	ecx, ebp
	push	eax
	lea	edx, DWORD PTR $LN7@Iterator_b
	call	@_RTC_CheckStackVars@8
	pop	eax
	pop	edx
	mov	ecx, DWORD PTR __$EHRec$[ebp]
	mov	DWORD PTR fs:0, ecx
	pop	ecx
	add	esp, 28					; 0000001cH
	cmp	ebp, esp
	call	__RTC_CheckEsp
	mov	esp, ebp
	pop	ebp
	ret	0
	npad	1
$LN7@Iterator_b:
	DD	1
	DD	$LN6@Iterator_b
$LN6@Iterator_b:
	DD	-24					; ffffffe8H
	DD	4
	DD	$LN4@Iterator_b
$LN4@Iterator_b:
	DB	95					; 0000005fH
	DB	76					; 0000004cH
	DB	111					; 0000006fH
	DB	99					; 00000063H
	DB	107					; 0000006bH
	DB	0
_TEXT	ENDS
;	COMDAT text$x
text$x	SEGMENT
__unwindfunclet$??1_Iterator_base12@std@@QAE@XZ$0:
	lea	ecx, DWORD PTR __Lock$[ebp]
	jmp	??1_Lockit@std@@QAE@XZ			; std::_Lockit::~_Lockit
__ehhandler$??1_Iterator_base12@std@@QAE@XZ:
	mov	edx, DWORD PTR [esp+8]
	lea	eax, DWORD PTR [edx+12]
	mov	ecx, DWORD PTR [edx-20]
	xor	ecx, eax
	call	@__security_check_cookie@4
	mov	eax, OFFSET __ehfuncinfo$??1_Iterator_base12@std@@QAE@XZ
	jmp	___CxxFrameHandler3
text$x	ENDS
??1_Iterator_base12@std@@QAE@XZ ENDP			; std::_Iterator_base12::~_Iterator_base12
PUBLIC	??0?$_Vector_iterator@V?$_Vector_val@PAVGoal_Evaluator@@V?$allocator@PAVGoal_Evaluator@@@std@@@std@@@std@@QAE@PAPAVGoal_Evaluator@@PBU_Container_base12@1@@Z ; std::_Vector_iterator<std::_Vector_val<Goal_Evaluator *,std::allocator<Goal_Evaluator *> > >::_Vector_iterator<std::_Vector_val<Goal_Evaluator *,std::allocator<Goal_Evaluator *> > >
; Function compile flags: /Odtp /RTCsu
; File c:\program files (x86)\microsoft visual studio 10.0\vc\include\vector
;	COMDAT ?begin@?$vector@PAVGoal_Evaluator@@V?$allocator@PAVGoal_Evaluator@@@std@@@std@@QAE?AV?$_Vector_iterator@V?$_Vector_val@PAVGoal_Evaluator@@V?$allocator@PAVGoal_Evaluator@@@std@@@std@@@2@XZ
_TEXT	SEGMENT
$T141814 = -8						; size = 4
_this$ = -4						; size = 4
___$ReturnUdt$ = 8					; size = 4
?begin@?$vector@PAVGoal_Evaluator@@V?$allocator@PAVGoal_Evaluator@@@std@@@std@@QAE?AV?$_Vector_iterator@V?$_Vector_val@PAVGoal_Evaluator@@V?$allocator@PAVGoal_Evaluator@@@std@@@std@@@2@XZ PROC ; std::vector<Goal_Evaluator *,std::allocator<Goal_Evaluator *> >::begin, COMDAT
; _this$ = ecx

; 781  : 		{	// return iterator for beginning of mutable sequence

	push	ebp
	mov	ebp, esp
	sub	esp, 8
	mov	DWORD PTR [ebp-8], -858993460		; ccccccccH
	mov	DWORD PTR [ebp-4], -858993460		; ccccccccH
	mov	DWORD PTR _this$[ebp], ecx
	mov	DWORD PTR $T141814[ebp], 0

; 782  : 		return (iterator(this->_Myfirst, this));

	mov	eax, DWORD PTR _this$[ebp]
	push	eax
	mov	ecx, DWORD PTR _this$[ebp]
	mov	edx, DWORD PTR [ecx+4]
	push	edx
	mov	ecx, DWORD PTR ___$ReturnUdt$[ebp]
	call	??0?$_Vector_iterator@V?$_Vector_val@PAVGoal_Evaluator@@V?$allocator@PAVGoal_Evaluator@@@std@@@std@@@std@@QAE@PAPAVGoal_Evaluator@@PBU_Container_base12@1@@Z ; std::_Vector_iterator<std::_Vector_val<Goal_Evaluator *,std::allocator<Goal_Evaluator *> > >::_Vector_iterator<std::_Vector_val<Goal_Evaluator *,std::allocator<Goal_Evaluator *> > >
	mov	eax, DWORD PTR $T141814[ebp]
	or	eax, 1
	mov	DWORD PTR $T141814[ebp], eax
	mov	eax, DWORD PTR ___$ReturnUdt$[ebp]

; 783  : 		}

	add	esp, 8
	cmp	ebp, esp
	call	__RTC_CheckEsp
	mov	esp, ebp
	pop	ebp
	ret	4
?begin@?$vector@PAVGoal_Evaluator@@V?$allocator@PAVGoal_Evaluator@@@std@@@std@@QAE?AV?$_Vector_iterator@V?$_Vector_val@PAVGoal_Evaluator@@V?$allocator@PAVGoal_Evaluator@@@std@@@std@@@2@XZ ENDP ; std::vector<Goal_Evaluator *,std::allocator<Goal_Evaluator *> >::begin
; Function compile flags: /Odtp /RTCsu
_TEXT	ENDS
;	COMDAT ?end@?$vector@PAVGoal_Evaluator@@V?$allocator@PAVGoal_Evaluator@@@std@@@std@@QAE?AV?$_Vector_iterator@V?$_Vector_val@PAVGoal_Evaluator@@V?$allocator@PAVGoal_Evaluator@@@std@@@std@@@2@XZ
_TEXT	SEGMENT
$T141819 = -8						; size = 4
_this$ = -4						; size = 4
___$ReturnUdt$ = 8					; size = 4
?end@?$vector@PAVGoal_Evaluator@@V?$allocator@PAVGoal_Evaluator@@@std@@@std@@QAE?AV?$_Vector_iterator@V?$_Vector_val@PAVGoal_Evaluator@@V?$allocator@PAVGoal_Evaluator@@@std@@@std@@@2@XZ PROC ; std::vector<Goal_Evaluator *,std::allocator<Goal_Evaluator *> >::end, COMDAT
; _this$ = ecx

; 791  : 		{	// return iterator for end of mutable sequence

	push	ebp
	mov	ebp, esp
	sub	esp, 8
	mov	DWORD PTR [ebp-8], -858993460		; ccccccccH
	mov	DWORD PTR [ebp-4], -858993460		; ccccccccH
	mov	DWORD PTR _this$[ebp], ecx
	mov	DWORD PTR $T141819[ebp], 0

; 792  : 		return (iterator(this->_Mylast, this));

	mov	eax, DWORD PTR _this$[ebp]
	push	eax
	mov	ecx, DWORD PTR _this$[ebp]
	mov	edx, DWORD PTR [ecx+8]
	push	edx
	mov	ecx, DWORD PTR ___$ReturnUdt$[ebp]
	call	??0?$_Vector_iterator@V?$_Vector_val@PAVGoal_Evaluator@@V?$allocator@PAVGoal_Evaluator@@@std@@@std@@@std@@QAE@PAPAVGoal_Evaluator@@PBU_Container_base12@1@@Z ; std::_Vector_iterator<std::_Vector_val<Goal_Evaluator *,std::allocator<Goal_Evaluator *> > >::_Vector_iterator<std::_Vector_val<Goal_Evaluator *,std::allocator<Goal_Evaluator *> > >
	mov	eax, DWORD PTR $T141819[ebp]
	or	eax, 1
	mov	DWORD PTR $T141819[ebp], eax
	mov	eax, DWORD PTR ___$ReturnUdt$[ebp]

; 793  : 		}

	add	esp, 8
	cmp	ebp, esp
	call	__RTC_CheckEsp
	mov	esp, ebp
	pop	ebp
	ret	4
?end@?$vector@PAVGoal_Evaluator@@V?$allocator@PAVGoal_Evaluator@@@std@@@std@@QAE?AV?$_Vector_iterator@V?$_Vector_val@PAVGoal_Evaluator@@V?$allocator@PAVGoal_Evaluator@@@std@@@std@@@2@XZ ENDP ; std::vector<Goal_Evaluator *,std::allocator<Goal_Evaluator *> >::end
_TEXT	ENDS
PUBLIC	?_Destroy@?$vector@PAVGoal_Evaluator@@V?$allocator@PAVGoal_Evaluator@@@std@@@std@@IAEXPAPAVGoal_Evaluator@@0@Z ; std::vector<Goal_Evaluator *,std::allocator<Goal_Evaluator *> >::_Destroy
PUBLIC	??$_Move@PAPAVGoal_Evaluator@@PAPAV1@@std@@YAPAPAVGoal_Evaluator@@PAPAV1@00@Z ; std::_Move<Goal_Evaluator * *,Goal_Evaluator * *>
PUBLIC	??_C@_1EI@HGIDLLCM@?$AAv?$AAe?$AAc?$AAt?$AAo?$AAr?$AA?5?$AAe?$AAr?$AAa?$AAs?$AAe?$AA?5?$AAi?$AAt?$AAe?$AAr?$AAa?$AAt?$AAo?$AAr?$AA?5?$AAo?$AAu?$AAt?$AAs?$AAi?$AAd?$AAe?$AA?5?$AAr?$AAa@ ; `string'
PUBLIC	??_C@_1IM@MKOOKKBK@?$AAc?$AA?3?$AA?2?$AAP?$AAr?$AAo?$AAg?$AAr?$AAa?$AAm?$AA?5?$AAF?$AAi?$AAl?$AAe?$AAs?$AA?5?$AA?$CI?$AAx?$AA8?$AA6?$AA?$CJ?$AA?2?$AAM?$AAi?$AAc?$AAr?$AAo?$AAs?$AAo?$AAf?$AAt@ ; `string'
PUBLIC	?_Getcont@_Iterator_base12@std@@QBEPBU_Container_base12@2@XZ ; std::_Iterator_base12::_Getcont
PUBLIC	??M?$_Vector_const_iterator@V?$_Vector_val@PAVGoal_Evaluator@@V?$allocator@PAVGoal_Evaluator@@@std@@@std@@@std@@QBE_NABV01@@Z ; std::_Vector_const_iterator<std::_Vector_val<Goal_Evaluator *,std::allocator<Goal_Evaluator *> > >::operator<
PUBLIC	??9?$_Vector_const_iterator@V?$_Vector_val@PAVGoal_Evaluator@@V?$allocator@PAVGoal_Evaluator@@@std@@@std@@@std@@QBE_NABV01@@Z ; std::_Vector_const_iterator<std::_Vector_val<Goal_Evaluator *,std::allocator<Goal_Evaluator *> > >::operator!=
PUBLIC	?_Make_iter@?$vector@PAVGoal_Evaluator@@V?$allocator@PAVGoal_Evaluator@@@std@@@std@@QBE?AV?$_Vector_iterator@V?$_Vector_val@PAVGoal_Evaluator@@V?$allocator@PAVGoal_Evaluator@@@std@@@std@@@2@V?$_Vector_const_iterator@V?$_Vector_val@PAVGoal_Evaluator@@V?$allocator@PAVGoal_Evaluator@@@std@@@std@@@2@@Z ; std::vector<Goal_Evaluator *,std::allocator<Goal_Evaluator *> >::_Make_iter
;	COMDAT ??_C@_1EI@HGIDLLCM@?$AAv?$AAe?$AAc?$AAt?$AAo?$AAr?$AA?5?$AAe?$AAr?$AAa?$AAs?$AAe?$AA?5?$AAi?$AAt?$AAe?$AAr?$AAa?$AAt?$AAo?$AAr?$AA?5?$AAo?$AAu?$AAt?$AAs?$AAi?$AAd?$AAe?$AA?5?$AAr?$AAa@
CONST	SEGMENT
??_C@_1EI@HGIDLLCM@?$AAv?$AAe?$AAc?$AAt?$AAo?$AAr?$AA?5?$AAe?$AAr?$AAa?$AAs?$AAe?$AA?5?$AAi?$AAt?$AAe?$AAr?$AAa?$AAt?$AAo?$AAr?$AA?5?$AAo?$AAu?$AAt?$AAs?$AAi?$AAd?$AAe?$AA?5?$AAr?$AAa@ DB 'v'
	DB	00H, 'e', 00H, 'c', 00H, 't', 00H, 'o', 00H, 'r', 00H, ' ', 00H
	DB	'e', 00H, 'r', 00H, 'a', 00H, 's', 00H, 'e', 00H, ' ', 00H, 'i'
	DB	00H, 't', 00H, 'e', 00H, 'r', 00H, 'a', 00H, 't', 00H, 'o', 00H
	DB	'r', 00H, ' ', 00H, 'o', 00H, 'u', 00H, 't', 00H, 's', 00H, 'i'
	DB	00H, 'd', 00H, 'e', 00H, ' ', 00H, 'r', 00H, 'a', 00H, 'n', 00H
	DB	'g', 00H, 'e', 00H, 00H, 00H			; `string'
CONST	ENDS
;	COMDAT ??_C@_1IM@MKOOKKBK@?$AAc?$AA?3?$AA?2?$AAP?$AAr?$AAo?$AAg?$AAr?$AAa?$AAm?$AA?5?$AAF?$AAi?$AAl?$AAe?$AAs?$AA?5?$AA?$CI?$AAx?$AA8?$AA6?$AA?$CJ?$AA?2?$AAM?$AAi?$AAc?$AAr?$AAo?$AAs?$AAo?$AAf?$AAt@
CONST	SEGMENT
??_C@_1IM@MKOOKKBK@?$AAc?$AA?3?$AA?2?$AAP?$AAr?$AAo?$AAg?$AAr?$AAa?$AAm?$AA?5?$AAF?$AAi?$AAl?$AAe?$AAs?$AA?5?$AA?$CI?$AAx?$AA8?$AA6?$AA?$CJ?$AA?2?$AAM?$AAi?$AAc?$AAr?$AAo?$AAs?$AAo?$AAf?$AAt@ DB 'c'
	DB	00H, ':', 00H, '\', 00H, 'P', 00H, 'r', 00H, 'o', 00H, 'g', 00H
	DB	'r', 00H, 'a', 00H, 'm', 00H, ' ', 00H, 'F', 00H, 'i', 00H, 'l'
	DB	00H, 'e', 00H, 's', 00H, ' ', 00H, '(', 00H, 'x', 00H, '8', 00H
	DB	'6', 00H, ')', 00H, '\', 00H, 'M', 00H, 'i', 00H, 'c', 00H, 'r'
	DB	00H, 'o', 00H, 's', 00H, 'o', 00H, 'f', 00H, 't', 00H, ' ', 00H
	DB	'V', 00H, 'i', 00H, 's', 00H, 'u', 00H, 'a', 00H, 'l', 00H, ' '
	DB	00H, 'S', 00H, 't', 00H, 'u', 00H, 'd', 00H, 'i', 00H, 'o', 00H
	DB	' ', 00H, '1', 00H, '0', 00H, '.', 00H, '0', 00H, '\', 00H, 'V'
	DB	00H, 'C', 00H, '\', 00H, 'i', 00H, 'n', 00H, 'c', 00H, 'l', 00H
	DB	'u', 00H, 'd', 00H, 'e', 00H, '\', 00H, 'v', 00H, 'e', 00H, 'c'
	DB	00H, 't', 00H, 'o', 00H, 'r', 00H, 00H, 00H	; `string'
CONST	ENDS
;	COMDAT xdata$x
xdata$x	SEGMENT
__ehfuncinfo$?erase@?$vector@PAVGoal_Evaluator@@V?$allocator@PAVGoal_Evaluator@@@std@@@std@@QAE?AV?$_Vector_iterator@V?$_Vector_val@PAVGoal_Evaluator@@V?$allocator@PAVGoal_Evaluator@@@std@@@std@@@2@V?$_Vector_const_iterator@V?$_Vector_val@PAVGoal_Evaluator@@V?$allocator@PAVGoal_Evaluator@@@std@@@std@@@2@0@Z DD 019930522H
	DD	05H
	DD	FLAT:__unwindtable$?erase@?$vector@PAVGoal_Evaluator@@V?$allocator@PAVGoal_Evaluator@@@std@@@std@@QAE?AV?$_Vector_iterator@V?$_Vector_val@PAVGoal_Evaluator@@V?$allocator@PAVGoal_Evaluator@@@std@@@std@@@2@V?$_Vector_const_iterator@V?$_Vector_val@PAVGoal_Evaluator@@V?$allocator@PAVGoal_Evaluator@@@std@@@std@@@2@0@Z
	DD	2 DUP(00H)
	DD	2 DUP(00H)
	DD	00H
	DD	01H
__unwindtable$?erase@?$vector@PAVGoal_Evaluator@@V?$allocator@PAVGoal_Evaluator@@@std@@@std@@QAE?AV?$_Vector_iterator@V?$_Vector_val@PAVGoal_Evaluator@@V?$allocator@PAVGoal_Evaluator@@@std@@@std@@@2@V?$_Vector_const_iterator@V?$_Vector_val@PAVGoal_Evaluator@@V?$allocator@PAVGoal_Evaluator@@@std@@@std@@@2@0@Z DD 0ffffffffH
	DD	FLAT:__unwindfunclet$?erase@?$vector@PAVGoal_Evaluator@@V?$allocator@PAVGoal_Evaluator@@@std@@@std@@QAE?AV?$_Vector_iterator@V?$_Vector_val@PAVGoal_Evaluator@@V?$allocator@PAVGoal_Evaluator@@@std@@@std@@@2@V?$_Vector_const_iterator@V?$_Vector_val@PAVGoal_Evaluator@@V?$allocator@PAVGoal_Evaluator@@@std@@@std@@@2@0@Z$7
	DD	00H
	DD	FLAT:__unwindfunclet$?erase@?$vector@PAVGoal_Evaluator@@V?$allocator@PAVGoal_Evaluator@@@std@@@std@@QAE?AV?$_Vector_iterator@V?$_Vector_val@PAVGoal_Evaluator@@V?$allocator@PAVGoal_Evaluator@@@std@@@std@@@2@V?$_Vector_const_iterator@V?$_Vector_val@PAVGoal_Evaluator@@V?$allocator@PAVGoal_Evaluator@@@std@@@std@@@2@0@Z$0
	DD	01H
	DD	FLAT:__unwindfunclet$?erase@?$vector@PAVGoal_Evaluator@@V?$allocator@PAVGoal_Evaluator@@@std@@@std@@QAE?AV?$_Vector_iterator@V?$_Vector_val@PAVGoal_Evaluator@@V?$allocator@PAVGoal_Evaluator@@@std@@@std@@@2@V?$_Vector_const_iterator@V?$_Vector_val@PAVGoal_Evaluator@@V?$allocator@PAVGoal_Evaluator@@@std@@@std@@@2@0@Z$1
	DD	02H
	DD	FLAT:__unwindfunclet$?erase@?$vector@PAVGoal_Evaluator@@V?$allocator@PAVGoal_Evaluator@@@std@@@std@@QAE?AV?$_Vector_iterator@V?$_Vector_val@PAVGoal_Evaluator@@V?$allocator@PAVGoal_Evaluator@@@std@@@std@@@2@V?$_Vector_const_iterator@V?$_Vector_val@PAVGoal_Evaluator@@V?$allocator@PAVGoal_Evaluator@@@std@@@std@@@2@0@Z$3
	DD	03H
	DD	FLAT:__unwindfunclet$?erase@?$vector@PAVGoal_Evaluator@@V?$allocator@PAVGoal_Evaluator@@@std@@@std@@QAE?AV?$_Vector_iterator@V?$_Vector_val@PAVGoal_Evaluator@@V?$allocator@PAVGoal_Evaluator@@@std@@@std@@@2@V?$_Vector_const_iterator@V?$_Vector_val@PAVGoal_Evaluator@@V?$allocator@PAVGoal_Evaluator@@@std@@@std@@@2@0@Z$5
; Function compile flags: /Odtp /RTCsu
xdata$x	ENDS
;	COMDAT ?erase@?$vector@PAVGoal_Evaluator@@V?$allocator@PAVGoal_Evaluator@@@std@@@std@@QAE?AV?$_Vector_iterator@V?$_Vector_val@PAVGoal_Evaluator@@V?$allocator@PAVGoal_Evaluator@@@std@@@std@@@2@V?$_Vector_const_iterator@V?$_Vector_val@PAVGoal_Evaluator@@V?$allocator@PAVGoal_Evaluator@@@std@@@std@@@2@0@Z
_TEXT	SEGMENT
tv275 = -100						; size = 4
tv274 = -96						; size = 4
tv271 = -92						; size = 4
tv270 = -88						; size = 4
tv267 = -84						; size = 4
tv266 = -80						; size = 4
$T141834 = -76						; size = 4
$T141825 = -72						; size = 4
$T141824 = -68						; size = 4
$T141823 = -64						; size = 4
__Ptr$134754 = -60					; size = 4
__Last$ = -52						; size = 12
__First$ = -32						; size = 12
_this$ = -16						; size = 4
__$EHRec$ = -12						; size = 12
___$ReturnUdt$ = 8					; size = 4
__First_arg$ = 12					; size = 12
__Last_arg$ = 24					; size = 12
?erase@?$vector@PAVGoal_Evaluator@@V?$allocator@PAVGoal_Evaluator@@@std@@@std@@QAE?AV?$_Vector_iterator@V?$_Vector_val@PAVGoal_Evaluator@@V?$allocator@PAVGoal_Evaluator@@@std@@@std@@@2@V?$_Vector_const_iterator@V?$_Vector_val@PAVGoal_Evaluator@@V?$allocator@PAVGoal_Evaluator@@@std@@@std@@@2@0@Z PROC ; std::vector<Goal_Evaluator *,std::allocator<Goal_Evaluator *> >::erase, COMDAT
; _this$ = ecx

; 1190 : 		{	// erase [_First, _Last)

	push	ebp
	mov	ebp, esp
	push	-1
	push	__ehhandler$?erase@?$vector@PAVGoal_Evaluator@@V?$allocator@PAVGoal_Evaluator@@@std@@@std@@QAE?AV?$_Vector_iterator@V?$_Vector_val@PAVGoal_Evaluator@@V?$allocator@PAVGoal_Evaluator@@@std@@@std@@@2@V?$_Vector_const_iterator@V?$_Vector_val@PAVGoal_Evaluator@@V?$allocator@PAVGoal_Evaluator@@@std@@@std@@@2@0@Z
	mov	eax, DWORD PTR fs:0
	push	eax
	sub	esp, 88					; 00000058H
	push	edi
	push	ecx
	lea	edi, DWORD PTR [ebp-100]
	mov	ecx, 22					; 00000016H
	mov	eax, -858993460				; ccccccccH
	rep stosd
	pop	ecx
	mov	eax, DWORD PTR ___security_cookie
	xor	eax, ebp
	push	eax
	lea	eax, DWORD PTR __$EHRec$[ebp]
	mov	DWORD PTR fs:0, eax
	mov	DWORD PTR _this$[ebp], ecx
	mov	DWORD PTR $T141834[ebp], 0
	mov	DWORD PTR __$EHRec$[ebp+8], 2

; 1191 : 		iterator _First = _Make_iter(_First_arg);

	sub	esp, 12					; 0000000cH
	mov	ecx, esp
	mov	DWORD PTR $T141823[ebp], esp
	lea	eax, DWORD PTR __First_arg$[ebp]
	push	eax
	call	??0?$_Vector_const_iterator@V?$_Vector_val@PAVGoal_Evaluator@@V?$allocator@PAVGoal_Evaluator@@@std@@@std@@@std@@QAE@ABV01@@Z
	mov	DWORD PTR tv266[ebp], eax
	lea	ecx, DWORD PTR __First$[ebp]
	push	ecx
	mov	ecx, DWORD PTR _this$[ebp]
	call	?_Make_iter@?$vector@PAVGoal_Evaluator@@V?$allocator@PAVGoal_Evaluator@@@std@@@std@@QBE?AV?$_Vector_iterator@V?$_Vector_val@PAVGoal_Evaluator@@V?$allocator@PAVGoal_Evaluator@@@std@@@std@@@2@V?$_Vector_const_iterator@V?$_Vector_val@PAVGoal_Evaluator@@V?$allocator@PAVGoal_Evaluator@@@std@@@std@@@2@@Z ; std::vector<Goal_Evaluator *,std::allocator<Goal_Evaluator *> >::_Make_iter
	mov	DWORD PTR tv267[ebp], eax
	mov	BYTE PTR __$EHRec$[ebp+8], 3

; 1192 : 		iterator _Last = _Make_iter(_Last_arg);

	sub	esp, 12					; 0000000cH
	mov	ecx, esp
	mov	DWORD PTR $T141824[ebp], esp
	lea	edx, DWORD PTR __Last_arg$[ebp]
	push	edx
	call	??0?$_Vector_const_iterator@V?$_Vector_val@PAVGoal_Evaluator@@V?$allocator@PAVGoal_Evaluator@@@std@@@std@@@std@@QAE@ABV01@@Z
	mov	DWORD PTR tv270[ebp], eax
	lea	eax, DWORD PTR __Last$[ebp]
	push	eax
	mov	ecx, DWORD PTR _this$[ebp]
	call	?_Make_iter@?$vector@PAVGoal_Evaluator@@V?$allocator@PAVGoal_Evaluator@@@std@@@std@@QBE?AV?$_Vector_iterator@V?$_Vector_val@PAVGoal_Evaluator@@V?$allocator@PAVGoal_Evaluator@@@std@@@std@@@2@V?$_Vector_const_iterator@V?$_Vector_val@PAVGoal_Evaluator@@V?$allocator@PAVGoal_Evaluator@@@std@@@std@@@2@@Z ; std::vector<Goal_Evaluator *,std::allocator<Goal_Evaluator *> >::_Make_iter
	mov	DWORD PTR tv271[ebp], eax
	mov	BYTE PTR __$EHRec$[ebp+8], 4

; 1193 : 
; 1194 : 		if (_First != _Last)

	lea	ecx, DWORD PTR __Last$[ebp]
	push	ecx
	lea	ecx, DWORD PTR __First$[ebp]
	call	??9?$_Vector_const_iterator@V?$_Vector_val@PAVGoal_Evaluator@@V?$allocator@PAVGoal_Evaluator@@@std@@@std@@@std@@QBE_NABV01@@Z ; std::_Vector_const_iterator<std::_Vector_val<Goal_Evaluator *,std::allocator<Goal_Evaluator *> > >::operator!=
	movzx	edx, al
	test	edx, edx
	je	$LN3@erase

; 1195 : 			{	// worth doing, copy down over hole
; 1196 :  #if _ITERATOR_DEBUG_LEVEL == 2
; 1197 : 			if (_Last < _First || _VICONT(_First) != this
; 1198 : 				|| _VIPTR(_First) < this->_Myfirst
; 1199 : 				|| this->_Mylast < _VIPTR(_Last))

	lea	eax, DWORD PTR __First$[ebp]
	push	eax
	lea	ecx, DWORD PTR __Last$[ebp]
	call	??M?$_Vector_const_iterator@V?$_Vector_val@PAVGoal_Evaluator@@V?$allocator@PAVGoal_Evaluator@@@std@@@std@@@std@@QBE_NABV01@@Z ; std::_Vector_const_iterator<std::_Vector_val<Goal_Evaluator *,std::allocator<Goal_Evaluator *> > >::operator<
	movzx	ecx, al
	test	ecx, ecx
	jne	SHORT $LN1@erase
	lea	ecx, DWORD PTR __First$[ebp]
	call	?_Getcont@_Iterator_base12@std@@QBEPBU_Container_base12@2@XZ ; std::_Iterator_base12::_Getcont
	cmp	eax, DWORD PTR _this$[ebp]
	jne	SHORT $LN1@erase
	mov	edx, DWORD PTR _this$[ebp]
	mov	eax, DWORD PTR __First$[ebp+8]
	cmp	eax, DWORD PTR [edx+4]
	jb	SHORT $LN1@erase
	mov	ecx, DWORD PTR _this$[ebp]
	mov	edx, DWORD PTR [ecx+8]
	cmp	edx, DWORD PTR __Last$[ebp+8]
	jae	SHORT $LN2@erase
$LN1@erase:

; 1200 : 				_DEBUG_ERROR("vector erase iterator outside range");

	push	1200					; 000004b0H
	push	OFFSET ??_C@_1IM@MKOOKKBK@?$AAc?$AA?3?$AA?2?$AAP?$AAr?$AAo?$AAg?$AAr?$AAa?$AAm?$AA?5?$AAF?$AAi?$AAl?$AAe?$AAs?$AA?5?$AA?$CI?$AAx?$AA8?$AA6?$AA?$CJ?$AA?2?$AAM?$AAi?$AAc?$AAr?$AAo?$AAs?$AAo?$AAf?$AAt@
	push	OFFSET ??_C@_1EI@HGIDLLCM@?$AAv?$AAe?$AAc?$AAt?$AAo?$AAr?$AA?5?$AAe?$AAr?$AAa?$AAs?$AAe?$AA?5?$AAi?$AAt?$AAe?$AAr?$AAa?$AAt?$AAo?$AAr?$AA?5?$AAo?$AAu?$AAt?$AAs?$AAi?$AAd?$AAe?$AA?5?$AAr?$AAa@
	call	?_Debug_message@std@@YAXPB_W0I@Z	; std::_Debug_message
	add	esp, 12					; 0000000cH
$LN2@erase:

; 1201 : 			pointer _Ptr = _Move(_VIPTR(_Last), this->_Mylast,
; 1202 : 				_VIPTR(_First));

	mov	eax, DWORD PTR __First$[ebp+8]
	push	eax
	mov	ecx, DWORD PTR _this$[ebp]
	mov	edx, DWORD PTR [ecx+8]
	push	edx
	mov	eax, DWORD PTR __Last$[ebp+8]
	push	eax
	call	??$_Move@PAPAVGoal_Evaluator@@PAPAV1@@std@@YAPAPAVGoal_Evaluator@@PAPAV1@00@Z ; std::_Move<Goal_Evaluator * *,Goal_Evaluator * *>
	add	esp, 12					; 0000000cH
	mov	DWORD PTR __Ptr$134754[ebp], eax

; 1203 : 			_Orphan_range(_VIPTR(_First), this->_Mylast);

	mov	ecx, DWORD PTR _this$[ebp]
	mov	edx, DWORD PTR [ecx+8]
	push	edx
	mov	eax, DWORD PTR __First$[ebp+8]
	push	eax
	mov	ecx, DWORD PTR _this$[ebp]
	call	?_Orphan_range@?$vector@PAVGoal_Evaluator@@V?$allocator@PAVGoal_Evaluator@@@std@@@std@@IBEXPAPAVGoal_Evaluator@@0@Z ; std::vector<Goal_Evaluator *,std::allocator<Goal_Evaluator *> >::_Orphan_range

; 1204 : 
; 1205 :  #else /* _ITERATOR_DEBUG_LEVEL == 2 */
; 1206 : 			pointer _Ptr = _Move(_VIPTR(_Last), this->_Mylast,
; 1207 : 				_VIPTR(_First));
; 1208 :  #endif /* _ITERATOR_DEBUG_LEVEL == 2 */
; 1209 : 
; 1210 : 			_Destroy(_Ptr, this->_Mylast);

	mov	ecx, DWORD PTR _this$[ebp]
	mov	edx, DWORD PTR [ecx+8]
	push	edx
	mov	eax, DWORD PTR __Ptr$134754[ebp]
	push	eax
	mov	ecx, DWORD PTR _this$[ebp]
	call	?_Destroy@?$vector@PAVGoal_Evaluator@@V?$allocator@PAVGoal_Evaluator@@@std@@@std@@IAEXPAPAVGoal_Evaluator@@0@Z ; std::vector<Goal_Evaluator *,std::allocator<Goal_Evaluator *> >::_Destroy

; 1211 : 			this->_Mylast = _Ptr;

	mov	ecx, DWORD PTR _this$[ebp]
	mov	edx, DWORD PTR __Ptr$134754[ebp]
	mov	DWORD PTR [ecx+8], edx
$LN3@erase:

; 1212 : 			}
; 1213 : 		return (_Make_iter(_First));

	sub	esp, 12					; 0000000cH
	mov	ecx, esp
	mov	DWORD PTR $T141825[ebp], esp
	lea	eax, DWORD PTR __First$[ebp]
	push	eax
	call	??0?$_Vector_const_iterator@V?$_Vector_val@PAVGoal_Evaluator@@V?$allocator@PAVGoal_Evaluator@@@std@@@std@@@std@@QAE@ABV01@@Z
	mov	DWORD PTR tv274[ebp], eax
	mov	ecx, DWORD PTR ___$ReturnUdt$[ebp]
	push	ecx
	mov	ecx, DWORD PTR _this$[ebp]
	call	?_Make_iter@?$vector@PAVGoal_Evaluator@@V?$allocator@PAVGoal_Evaluator@@@std@@@std@@QBE?AV?$_Vector_iterator@V?$_Vector_val@PAVGoal_Evaluator@@V?$allocator@PAVGoal_Evaluator@@@std@@@std@@@2@V?$_Vector_const_iterator@V?$_Vector_val@PAVGoal_Evaluator@@V?$allocator@PAVGoal_Evaluator@@@std@@@std@@@2@@Z ; std::vector<Goal_Evaluator *,std::allocator<Goal_Evaluator *> >::_Make_iter
	mov	DWORD PTR tv275[ebp], eax
	mov	edx, DWORD PTR $T141834[ebp]
	or	edx, 1
	mov	DWORD PTR $T141834[ebp], edx
	mov	BYTE PTR __$EHRec$[ebp+8], 3
	lea	ecx, DWORD PTR __Last$[ebp]
	call	??1?$_Vector_iterator@V?$_Vector_val@PAVGoal_Evaluator@@V?$allocator@PAVGoal_Evaluator@@@std@@@std@@@std@@QAE@XZ
	mov	BYTE PTR __$EHRec$[ebp+8], 2
	lea	ecx, DWORD PTR __First$[ebp]
	call	??1?$_Vector_iterator@V?$_Vector_val@PAVGoal_Evaluator@@V?$allocator@PAVGoal_Evaluator@@@std@@@std@@@std@@QAE@XZ
	mov	BYTE PTR __$EHRec$[ebp+8], 1
	lea	ecx, DWORD PTR __First_arg$[ebp]
	call	??1?$_Vector_const_iterator@V?$_Vector_val@PAVGoal_Evaluator@@V?$allocator@PAVGoal_Evaluator@@@std@@@std@@@std@@QAE@XZ
	mov	BYTE PTR __$EHRec$[ebp+8], 0
	lea	ecx, DWORD PTR __Last_arg$[ebp]
	call	??1?$_Vector_const_iterator@V?$_Vector_val@PAVGoal_Evaluator@@V?$allocator@PAVGoal_Evaluator@@@std@@@std@@@std@@QAE@XZ
	mov	eax, DWORD PTR ___$ReturnUdt$[ebp]

; 1214 : 		}

	push	edx
	mov	ecx, ebp
	push	eax
	lea	edx, DWORD PTR $LN19@erase
	call	@_RTC_CheckStackVars@8
	pop	eax
	pop	edx
	mov	ecx, DWORD PTR __$EHRec$[ebp]
	mov	DWORD PTR fs:0, ecx
	pop	ecx
	pop	edi
	add	esp, 100				; 00000064H
	cmp	ebp, esp
	call	__RTC_CheckEsp
	mov	esp, ebp
	pop	ebp
	ret	28					; 0000001cH
	npad	1
$LN19@erase:
	DD	2
	DD	$LN18@erase
$LN18@erase:
	DD	-32					; ffffffe0H
	DD	12					; 0000000cH
	DD	$LN15@erase
	DD	-52					; ffffffccH
	DD	12					; 0000000cH
	DD	$LN16@erase
$LN16@erase:
	DB	95					; 0000005fH
	DB	76					; 0000004cH
	DB	97					; 00000061H
	DB	115					; 00000073H
	DB	116					; 00000074H
	DB	0
$LN15@erase:
	DB	95					; 0000005fH
	DB	70					; 00000046H
	DB	105					; 00000069H
	DB	114					; 00000072H
	DB	115					; 00000073H
	DB	116					; 00000074H
	DB	0
_TEXT	ENDS
;	COMDAT text$x
text$x	SEGMENT
__unwindfunclet$?erase@?$vector@PAVGoal_Evaluator@@V?$allocator@PAVGoal_Evaluator@@@std@@@std@@QAE?AV?$_Vector_iterator@V?$_Vector_val@PAVGoal_Evaluator@@V?$allocator@PAVGoal_Evaluator@@@std@@@std@@@2@V?$_Vector_const_iterator@V?$_Vector_val@PAVGoal_Evaluator@@V?$allocator@PAVGoal_Evaluator@@@std@@@std@@@2@0@Z$0:
	lea	ecx, DWORD PTR __Last_arg$[ebp]
	jmp	??1?$_Vector_const_iterator@V?$_Vector_val@PAVGoal_Evaluator@@V?$allocator@PAVGoal_Evaluator@@@std@@@std@@@std@@QAE@XZ
__unwindfunclet$?erase@?$vector@PAVGoal_Evaluator@@V?$allocator@PAVGoal_Evaluator@@@std@@@std@@QAE?AV?$_Vector_iterator@V?$_Vector_val@PAVGoal_Evaluator@@V?$allocator@PAVGoal_Evaluator@@@std@@@std@@@2@V?$_Vector_const_iterator@V?$_Vector_val@PAVGoal_Evaluator@@V?$allocator@PAVGoal_Evaluator@@@std@@@std@@@2@0@Z$1:
	lea	ecx, DWORD PTR __First_arg$[ebp]
	jmp	??1?$_Vector_const_iterator@V?$_Vector_val@PAVGoal_Evaluator@@V?$allocator@PAVGoal_Evaluator@@@std@@@std@@@std@@QAE@XZ
__unwindfunclet$?erase@?$vector@PAVGoal_Evaluator@@V?$allocator@PAVGoal_Evaluator@@@std@@@std@@QAE?AV?$_Vector_iterator@V?$_Vector_val@PAVGoal_Evaluator@@V?$allocator@PAVGoal_Evaluator@@@std@@@std@@@2@V?$_Vector_const_iterator@V?$_Vector_val@PAVGoal_Evaluator@@V?$allocator@PAVGoal_Evaluator@@@std@@@std@@@2@0@Z$3:
	lea	ecx, DWORD PTR __First$[ebp]
	jmp	??1?$_Vector_iterator@V?$_Vector_val@PAVGoal_Evaluator@@V?$allocator@PAVGoal_Evaluator@@@std@@@std@@@std@@QAE@XZ
__unwindfunclet$?erase@?$vector@PAVGoal_Evaluator@@V?$allocator@PAVGoal_Evaluator@@@std@@@std@@QAE?AV?$_Vector_iterator@V?$_Vector_val@PAVGoal_Evaluator@@V?$allocator@PAVGoal_Evaluator@@@std@@@std@@@2@V?$_Vector_const_iterator@V?$_Vector_val@PAVGoal_Evaluator@@V?$allocator@PAVGoal_Evaluator@@@std@@@std@@@2@0@Z$5:
	lea	ecx, DWORD PTR __Last$[ebp]
	jmp	??1?$_Vector_iterator@V?$_Vector_val@PAVGoal_Evaluator@@V?$allocator@PAVGoal_Evaluator@@@std@@@std@@@std@@QAE@XZ
__unwindfunclet$?erase@?$vector@PAVGoal_Evaluator@@V?$allocator@PAVGoal_Evaluator@@@std@@@std@@QAE?AV?$_Vector_iterator@V?$_Vector_val@PAVGoal_Evaluator@@V?$allocator@PAVGoal_Evaluator@@@std@@@std@@@2@V?$_Vector_const_iterator@V?$_Vector_val@PAVGoal_Evaluator@@V?$allocator@PAVGoal_Evaluator@@@std@@@std@@@2@0@Z$7:
	mov	eax, DWORD PTR $T141834[ebp]
	and	eax, 1
	je	$LN14@erase
	and	DWORD PTR $T141834[ebp], -2		; fffffffeH
	mov	ecx, DWORD PTR ___$ReturnUdt$[ebp]
	jmp	??1?$_Vector_iterator@V?$_Vector_val@PAVGoal_Evaluator@@V?$allocator@PAVGoal_Evaluator@@@std@@@std@@@std@@QAE@XZ
$LN14@erase:
	ret	0
__ehhandler$?erase@?$vector@PAVGoal_Evaluator@@V?$allocator@PAVGoal_Evaluator@@@std@@@std@@QAE?AV?$_Vector_iterator@V?$_Vector_val@PAVGoal_Evaluator@@V?$allocator@PAVGoal_Evaluator@@@std@@@std@@@2@V?$_Vector_const_iterator@V?$_Vector_val@PAVGoal_Evaluator@@V?$allocator@PAVGoal_Evaluator@@@std@@@std@@@2@0@Z:
	mov	edx, DWORD PTR [esp+8]
	lea	eax, DWORD PTR [edx+12]
	mov	ecx, DWORD PTR [edx-96]
	xor	ecx, eax
	call	@__security_check_cookie@4
	mov	eax, OFFSET __ehfuncinfo$?erase@?$vector@PAVGoal_Evaluator@@V?$allocator@PAVGoal_Evaluator@@@std@@@std@@QAE?AV?$_Vector_iterator@V?$_Vector_val@PAVGoal_Evaluator@@V?$allocator@PAVGoal_Evaluator@@@std@@@std@@@2@V?$_Vector_const_iterator@V?$_Vector_val@PAVGoal_Evaluator@@V?$allocator@PAVGoal_Evaluator@@@std@@@std@@@2@0@Z
	jmp	___CxxFrameHandler3
text$x	ENDS
?erase@?$vector@PAVGoal_Evaluator@@V?$allocator@PAVGoal_Evaluator@@@std@@@std@@QAE?AV?$_Vector_iterator@V?$_Vector_val@PAVGoal_Evaluator@@V?$allocator@PAVGoal_Evaluator@@@std@@@std@@@2@V?$_Vector_const_iterator@V?$_Vector_val@PAVGoal_Evaluator@@V?$allocator@PAVGoal_Evaluator@@@std@@@std@@@2@0@Z ENDP ; std::vector<Goal_Evaluator *,std::allocator<Goal_Evaluator *> >::erase
; Function compile flags: /Odtp /RTCsu
; File c:\program files (x86)\microsoft visual studio 10.0\vc\include\xutility
;	COMDAT ?_Getcont@_Iterator_base12@std@@QBEPBU_Container_base12@2@XZ
_TEXT	SEGMENT
tv66 = -8						; size = 4
_this$ = -4						; size = 4
?_Getcont@_Iterator_base12@std@@QBEPBU_Container_base12@2@XZ PROC ; std::_Iterator_base12::_Getcont, COMDAT
; _this$ = ecx

; 174  : 		{	// get owning container

	push	ebp
	mov	ebp, esp
	sub	esp, 8
	mov	DWORD PTR [ebp-8], -858993460		; ccccccccH
	mov	DWORD PTR [ebp-4], -858993460		; ccccccccH
	mov	DWORD PTR _this$[ebp], ecx

; 175  : 		return (_Myproxy == 0 ? 0 : _Myproxy->_Mycont);

	mov	eax, DWORD PTR _this$[ebp]
	cmp	DWORD PTR [eax], 0
	jne	SHORT $LN3@Getcont
	mov	DWORD PTR tv66[ebp], 0
	jmp	SHORT $LN4@Getcont
$LN3@Getcont:
	mov	ecx, DWORD PTR _this$[ebp]
	mov	edx, DWORD PTR [ecx]
	mov	eax, DWORD PTR [edx]
	mov	DWORD PTR tv66[ebp], eax
$LN4@Getcont:
	mov	eax, DWORD PTR tv66[ebp]

; 176  : 		}

	mov	esp, ebp
	pop	ebp
	ret	0
?_Getcont@_Iterator_base12@std@@QBEPBU_Container_base12@2@XZ ENDP ; std::_Iterator_base12::_Getcont
; Function compile flags: /Odtp /RTCsu
; File c:\program files (x86)\microsoft visual studio 10.0\vc\include\vector
_TEXT	ENDS
;	COMDAT ?_Inside@?$vector@PAVGoal_Evaluator@@V?$allocator@PAVGoal_Evaluator@@@std@@@std@@IBE_NPBQAVGoal_Evaluator@@@Z
_TEXT	SEGMENT
tv76 = -8						; size = 4
_this$ = -4						; size = 4
__Ptr$ = 8						; size = 4
?_Inside@?$vector@PAVGoal_Evaluator@@V?$allocator@PAVGoal_Evaluator@@@std@@@std@@IBE_NPBQAVGoal_Evaluator@@@Z PROC ; std::vector<Goal_Evaluator *,std::allocator<Goal_Evaluator *> >::_Inside, COMDAT
; _this$ = ecx

; 1285 : 		{	// test if _Ptr points inside vector

	push	ebp
	mov	ebp, esp
	sub	esp, 8
	mov	DWORD PTR [ebp-8], -858993460		; ccccccccH
	mov	DWORD PTR [ebp-4], -858993460		; ccccccccH
	mov	DWORD PTR _this$[ebp], ecx

; 1286 : 		return (_Ptr < this->_Mylast && this->_Myfirst <= _Ptr);

	mov	eax, DWORD PTR _this$[ebp]
	mov	ecx, DWORD PTR __Ptr$[ebp]
	cmp	ecx, DWORD PTR [eax+8]
	jae	SHORT $LN3@Inside
	mov	edx, DWORD PTR _this$[ebp]
	mov	eax, DWORD PTR [edx+4]
	cmp	eax, DWORD PTR __Ptr$[ebp]
	ja	SHORT $LN3@Inside
	mov	DWORD PTR tv76[ebp], 1
	jmp	SHORT $LN4@Inside
$LN3@Inside:
	mov	DWORD PTR tv76[ebp], 0
$LN4@Inside:
	mov	al, BYTE PTR tv76[ebp]

; 1287 : 		}

	mov	esp, ebp
	pop	ebp
	ret	4
?_Inside@?$vector@PAVGoal_Evaluator@@V?$allocator@PAVGoal_Evaluator@@@std@@@std@@IBE_NPBQAVGoal_Evaluator@@@Z ENDP ; std::vector<Goal_Evaluator *,std::allocator<Goal_Evaluator *> >::_Inside
_TEXT	ENDS
PUBLIC	?reserve@?$vector@PAVGoal_Evaluator@@V?$allocator@PAVGoal_Evaluator@@@std@@@std@@QAEXI@Z ; std::vector<Goal_Evaluator *,std::allocator<Goal_Evaluator *> >::reserve
PUBLIC	?_Grow_to@?$vector@PAVGoal_Evaluator@@V?$allocator@PAVGoal_Evaluator@@@std@@@std@@IBEII@Z ; std::vector<Goal_Evaluator *,std::allocator<Goal_Evaluator *> >::_Grow_to
PUBLIC	?capacity@?$vector@PAVGoal_Evaluator@@V?$allocator@PAVGoal_Evaluator@@@std@@@std@@QBEIXZ ; std::vector<Goal_Evaluator *,std::allocator<Goal_Evaluator *> >::capacity
PUBLIC	?_Xlen@?$vector@PAVGoal_Evaluator@@V?$allocator@PAVGoal_Evaluator@@@std@@@std@@IBEXXZ ; std::vector<Goal_Evaluator *,std::allocator<Goal_Evaluator *> >::_Xlen
PUBLIC	?max_size@?$vector@PAVGoal_Evaluator@@V?$allocator@PAVGoal_Evaluator@@@std@@@std@@QBEIXZ ; std::vector<Goal_Evaluator *,std::allocator<Goal_Evaluator *> >::max_size
PUBLIC	?size@?$vector@PAVGoal_Evaluator@@V?$allocator@PAVGoal_Evaluator@@@std@@@std@@QBEIXZ ; std::vector<Goal_Evaluator *,std::allocator<Goal_Evaluator *> >::size
; Function compile flags: /Odtp /RTCsu
;	COMDAT ?_Reserve@?$vector@PAVGoal_Evaluator@@V?$allocator@PAVGoal_Evaluator@@@std@@@std@@IAEXI@Z
_TEXT	SEGMENT
__Size$ = -8						; size = 4
_this$ = -4						; size = 4
__Count$ = 8						; size = 4
?_Reserve@?$vector@PAVGoal_Evaluator@@V?$allocator@PAVGoal_Evaluator@@@std@@@std@@IAEXI@Z PROC ; std::vector<Goal_Evaluator *,std::allocator<Goal_Evaluator *> >::_Reserve, COMDAT
; _this$ = ecx

; 1290 : 		{	// ensure room for _Count new elements, grow exponentially

	push	ebp
	mov	ebp, esp
	sub	esp, 8
	mov	DWORD PTR [ebp-8], -858993460		; ccccccccH
	mov	DWORD PTR [ebp-4], -858993460		; ccccccccH
	mov	DWORD PTR _this$[ebp], ecx

; 1291 : 		size_type _Size = size();

	mov	ecx, DWORD PTR _this$[ebp]
	call	?size@?$vector@PAVGoal_Evaluator@@V?$allocator@PAVGoal_Evaluator@@@std@@@std@@QBEIXZ ; std::vector<Goal_Evaluator *,std::allocator<Goal_Evaluator *> >::size
	mov	DWORD PTR __Size$[ebp], eax

; 1292 : 		if (max_size() - _Count < _Size)

	mov	ecx, DWORD PTR _this$[ebp]
	call	?max_size@?$vector@PAVGoal_Evaluator@@V?$allocator@PAVGoal_Evaluator@@@std@@@std@@QBEIXZ ; std::vector<Goal_Evaluator *,std::allocator<Goal_Evaluator *> >::max_size
	sub	eax, DWORD PTR __Count$[ebp]
	cmp	eax, DWORD PTR __Size$[ebp]
	jae	SHORT $LN4@Reserve

; 1293 : 			_Xlen();

	mov	ecx, DWORD PTR _this$[ebp]
	call	?_Xlen@?$vector@PAVGoal_Evaluator@@V?$allocator@PAVGoal_Evaluator@@@std@@@std@@IBEXXZ ; std::vector<Goal_Evaluator *,std::allocator<Goal_Evaluator *> >::_Xlen
	jmp	SHORT $LN6@Reserve
$LN4@Reserve:

; 1294 : 		else if ((_Size += _Count) <= capacity())

	mov	eax, DWORD PTR __Size$[ebp]
	add	eax, DWORD PTR __Count$[ebp]
	mov	DWORD PTR __Size$[ebp], eax
	mov	ecx, DWORD PTR _this$[ebp]
	call	?capacity@?$vector@PAVGoal_Evaluator@@V?$allocator@PAVGoal_Evaluator@@@std@@@std@@QBEIXZ ; std::vector<Goal_Evaluator *,std::allocator<Goal_Evaluator *> >::capacity
	cmp	DWORD PTR __Size$[ebp], eax
	ja	SHORT $LN2@Reserve

; 1295 : 			;
; 1296 : 		else

	jmp	SHORT $LN6@Reserve
$LN2@Reserve:

; 1297 : 			reserve(_Grow_to(_Size));

	mov	ecx, DWORD PTR __Size$[ebp]
	push	ecx
	mov	ecx, DWORD PTR _this$[ebp]
	call	?_Grow_to@?$vector@PAVGoal_Evaluator@@V?$allocator@PAVGoal_Evaluator@@@std@@@std@@IBEII@Z ; std::vector<Goal_Evaluator *,std::allocator<Goal_Evaluator *> >::_Grow_to
	push	eax
	mov	ecx, DWORD PTR _this$[ebp]
	call	?reserve@?$vector@PAVGoal_Evaluator@@V?$allocator@PAVGoal_Evaluator@@@std@@@std@@QAEXI@Z ; std::vector<Goal_Evaluator *,std::allocator<Goal_Evaluator *> >::reserve
$LN6@Reserve:

; 1298 : 		}

	add	esp, 8
	cmp	ebp, esp
	call	__RTC_CheckEsp
	mov	esp, ebp
	pop	ebp
	ret	4
?_Reserve@?$vector@PAVGoal_Evaluator@@V?$allocator@PAVGoal_Evaluator@@@std@@@std@@IAEXI@Z ENDP ; std::vector<Goal_Evaluator *,std::allocator<Goal_Evaluator *> >::_Reserve
_TEXT	ENDS
PUBLIC	?_Clrcont@_Iterator_base12@std@@QAEXXZ		; std::_Iterator_base12::_Clrcont
PUBLIC	?_Getpnext@_Iterator_base12@std@@QAEPAPAU12@XZ	; std::_Iterator_base12::_Getpnext
PUBLIC	?_Getpfirst@_Container_base12@std@@QBEPAPAU_Iterator_base12@2@XZ ; std::_Container_base12::_Getpfirst
;	COMDAT xdata$x
xdata$x	SEGMENT
__unwindtable$?_Orphan_range@?$vector@PAVGoal_Evaluator@@V?$allocator@PAVGoal_Evaluator@@@std@@@std@@IBEXPAPAVGoal_Evaluator@@0@Z DD 0ffffffffH
	DD	FLAT:__unwindfunclet$?_Orphan_range@?$vector@PAVGoal_Evaluator@@V?$allocator@PAVGoal_Evaluator@@@std@@@std@@IBEXPAPAVGoal_Evaluator@@0@Z$0
__ehfuncinfo$?_Orphan_range@?$vector@PAVGoal_Evaluator@@V?$allocator@PAVGoal_Evaluator@@@std@@@std@@IBEXPAPAVGoal_Evaluator@@0@Z DD 019930522H
	DD	01H
	DD	FLAT:__unwindtable$?_Orphan_range@?$vector@PAVGoal_Evaluator@@V?$allocator@PAVGoal_Evaluator@@@std@@@std@@IBEXPAPAVGoal_Evaluator@@0@Z
	DD	2 DUP(00H)
	DD	2 DUP(00H)
	DD	00H
	DD	01H
; Function compile flags: /Odtp /RTCsu
xdata$x	ENDS
;	COMDAT ?_Orphan_range@?$vector@PAVGoal_Evaluator@@V?$allocator@PAVGoal_Evaluator@@@std@@@std@@IBEXPAPAVGoal_Evaluator@@0@Z
_TEXT	SEGMENT
__Pnext$ = -32						; size = 4
__Lock$ = -24						; size = 4
_this$ = -16						; size = 4
__$EHRec$ = -12						; size = 12
__First$ = 8						; size = 4
__Last$ = 12						; size = 4
?_Orphan_range@?$vector@PAVGoal_Evaluator@@V?$allocator@PAVGoal_Evaluator@@@std@@@std@@IBEXPAPAVGoal_Evaluator@@0@Z PROC ; std::vector<Goal_Evaluator *,std::allocator<Goal_Evaluator *> >::_Orphan_range, COMDAT
; _this$ = ecx

; 1437 : 		{	// orphan iterators within specified (inclusive) range

	push	ebp
	mov	ebp, esp
	push	-1
	push	__ehhandler$?_Orphan_range@?$vector@PAVGoal_Evaluator@@V?$allocator@PAVGoal_Evaluator@@@std@@@std@@IBEXPAPAVGoal_Evaluator@@0@Z
	mov	eax, DWORD PTR fs:0
	push	eax
	sub	esp, 20					; 00000014H
	mov	eax, -858993460				; ccccccccH
	mov	DWORD PTR [ebp-32], eax
	mov	DWORD PTR [ebp-28], eax
	mov	DWORD PTR [ebp-24], eax
	mov	DWORD PTR [ebp-20], eax
	mov	DWORD PTR [ebp-16], eax
	mov	eax, DWORD PTR ___security_cookie
	xor	eax, ebp
	push	eax
	lea	eax, DWORD PTR __$EHRec$[ebp]
	mov	DWORD PTR fs:0, eax
	mov	DWORD PTR _this$[ebp], ecx

; 1438 : 		_Lockit _Lock(_LOCK_DEBUG);

	push	3
	lea	ecx, DWORD PTR __Lock$[ebp]
	call	??0_Lockit@std@@QAE@H@Z			; std::_Lockit::_Lockit
	mov	DWORD PTR __$EHRec$[ebp+8], 0

; 1439 : 		const_iterator **_Pnext = (const_iterator **)this->_Getpfirst();

	mov	ecx, DWORD PTR _this$[ebp]
	call	?_Getpfirst@_Container_base12@std@@QBEPAPAU_Iterator_base12@2@XZ ; std::_Container_base12::_Getpfirst
	mov	DWORD PTR __Pnext$[ebp], eax

; 1440 : 		if (_Pnext != 0)

	cmp	DWORD PTR __Pnext$[ebp], 0
	je	SHORT $LN6@Orphan_ran
$LN5@Orphan_ran:

; 1441 : 			while (*_Pnext != 0)

	mov	eax, DWORD PTR __Pnext$[ebp]
	cmp	DWORD PTR [eax], 0
	je	SHORT $LN6@Orphan_ran

; 1442 : 				if ((*_Pnext)->_Ptr < _First || _Last < (*_Pnext)->_Ptr)

	mov	ecx, DWORD PTR __Pnext$[ebp]
	mov	edx, DWORD PTR [ecx]
	mov	eax, DWORD PTR [edx+8]
	cmp	eax, DWORD PTR __First$[ebp]
	jb	SHORT $LN2@Orphan_ran
	mov	ecx, DWORD PTR __Pnext$[ebp]
	mov	edx, DWORD PTR [ecx]
	mov	eax, DWORD PTR __Last$[ebp]
	cmp	eax, DWORD PTR [edx+8]
	jae	SHORT $LN3@Orphan_ran
$LN2@Orphan_ran:

; 1443 : 					_Pnext = (const_iterator **)(*_Pnext)->_Getpnext();

	mov	ecx, DWORD PTR __Pnext$[ebp]
	mov	ecx, DWORD PTR [ecx]
	call	?_Getpnext@_Iterator_base12@std@@QAEPAPAU12@XZ ; std::_Iterator_base12::_Getpnext
	mov	DWORD PTR __Pnext$[ebp], eax

; 1444 : 				else

	jmp	SHORT $LN1@Orphan_ran
$LN3@Orphan_ran:

; 1445 : 					{	// orphan the iterator
; 1446 : 					(*_Pnext)->_Clrcont();

	mov	edx, DWORD PTR __Pnext$[ebp]
	mov	ecx, DWORD PTR [edx]
	call	?_Clrcont@_Iterator_base12@std@@QAEXXZ	; std::_Iterator_base12::_Clrcont

; 1447 : 					*_Pnext = *(const_iterator **)(*_Pnext)->_Getpnext();

	mov	eax, DWORD PTR __Pnext$[ebp]
	mov	ecx, DWORD PTR [eax]
	call	?_Getpnext@_Iterator_base12@std@@QAEPAPAU12@XZ ; std::_Iterator_base12::_Getpnext
	mov	ecx, DWORD PTR __Pnext$[ebp]
	mov	edx, DWORD PTR [eax]
	mov	DWORD PTR [ecx], edx
$LN1@Orphan_ran:

; 1448 : 					}

	jmp	SHORT $LN5@Orphan_ran
$LN6@Orphan_ran:

; 1449 : 		}

	mov	DWORD PTR __$EHRec$[ebp+8], -1
	lea	ecx, DWORD PTR __Lock$[ebp]
	call	??1_Lockit@std@@QAE@XZ			; std::_Lockit::~_Lockit
	push	edx
	mov	ecx, ebp
	push	eax
	lea	edx, DWORD PTR $LN13@Orphan_ran
	call	@_RTC_CheckStackVars@8
	pop	eax
	pop	edx
	mov	ecx, DWORD PTR __$EHRec$[ebp]
	mov	DWORD PTR fs:0, ecx
	pop	ecx
	add	esp, 32					; 00000020H
	cmp	ebp, esp
	call	__RTC_CheckEsp
	mov	esp, ebp
	pop	ebp
	ret	8
	npad	1
$LN13@Orphan_ran:
	DD	1
	DD	$LN12@Orphan_ran
$LN12@Orphan_ran:
	DD	-24					; ffffffe8H
	DD	4
	DD	$LN10@Orphan_ran
$LN10@Orphan_ran:
	DB	95					; 0000005fH
	DB	76					; 0000004cH
	DB	111					; 0000006fH
	DB	99					; 00000063H
	DB	107					; 0000006bH
	DB	0
_TEXT	ENDS
;	COMDAT text$x
text$x	SEGMENT
__unwindfunclet$?_Orphan_range@?$vector@PAVGoal_Evaluator@@V?$allocator@PAVGoal_Evaluator@@@std@@@std@@IBEXPAPAVGoal_Evaluator@@0@Z$0:
	lea	ecx, DWORD PTR __Lock$[ebp]
	jmp	??1_Lockit@std@@QAE@XZ			; std::_Lockit::~_Lockit
__ehhandler$?_Orphan_range@?$vector@PAVGoal_Evaluator@@V?$allocator@PAVGoal_Evaluator@@@std@@@std@@IBEXPAPAVGoal_Evaluator@@0@Z:
	mov	edx, DWORD PTR [esp+8]
	lea	eax, DWORD PTR [edx+12]
	mov	ecx, DWORD PTR [edx-24]
	xor	ecx, eax
	call	@__security_check_cookie@4
	mov	eax, OFFSET __ehfuncinfo$?_Orphan_range@?$vector@PAVGoal_Evaluator@@V?$allocator@PAVGoal_Evaluator@@@std@@@std@@IBEXPAPAVGoal_Evaluator@@0@Z
	jmp	___CxxFrameHandler3
text$x	ENDS
?_Orphan_range@?$vector@PAVGoal_Evaluator@@V?$allocator@PAVGoal_Evaluator@@@std@@@std@@IBEXPAPAVGoal_Evaluator@@0@Z ENDP ; std::vector<Goal_Evaluator *,std::allocator<Goal_Evaluator *> >::_Orphan_range
; Function compile flags: /Odtp /RTCsu
; File c:\program files (x86)\microsoft visual studio 10.0\vc\include\xutility
;	COMDAT ?_Getpfirst@_Container_base12@std@@QBEPAPAU_Iterator_base12@2@XZ
_TEXT	SEGMENT
tv66 = -8						; size = 4
_this$ = -4						; size = 4
?_Getpfirst@_Container_base12@std@@QBEPAPAU_Iterator_base12@2@XZ PROC ; std::_Container_base12::_Getpfirst, COMDAT
; _this$ = ecx

; 96   : 		{	// get address of iterator chain

	push	ebp
	mov	ebp, esp
	sub	esp, 8
	mov	DWORD PTR [ebp-8], -858993460		; ccccccccH
	mov	DWORD PTR [ebp-4], -858993460		; ccccccccH
	mov	DWORD PTR _this$[ebp], ecx

; 97   : 		return (_Myproxy == 0 ? 0 : &_Myproxy->_Myfirstiter);

	mov	eax, DWORD PTR _this$[ebp]
	cmp	DWORD PTR [eax], 0
	jne	SHORT $LN3@Getpfirst
	mov	DWORD PTR tv66[ebp], 0
	jmp	SHORT $LN4@Getpfirst
$LN3@Getpfirst:
	mov	ecx, DWORD PTR _this$[ebp]
	mov	edx, DWORD PTR [ecx]
	add	edx, 4
	mov	DWORD PTR tv66[ebp], edx
$LN4@Getpfirst:
	mov	eax, DWORD PTR tv66[ebp]

; 98   : 		}

	mov	esp, ebp
	pop	ebp
	ret	0
?_Getpfirst@_Container_base12@std@@QBEPAPAU_Iterator_base12@2@XZ ENDP ; std::_Container_base12::_Getpfirst
; Function compile flags: /Odtp /RTCsu
_TEXT	ENDS
;	COMDAT ?_Clrcont@_Iterator_base12@std@@QAEXXZ
_TEXT	SEGMENT
_this$ = -4						; size = 4
?_Clrcont@_Iterator_base12@std@@QAEXXZ PROC		; std::_Iterator_base12::_Clrcont, COMDAT
; _this$ = ecx

; 169  : 		{	// disown owning container

	push	ebp
	mov	ebp, esp
	push	ecx
	mov	DWORD PTR [ebp-4], -858993460		; ccccccccH
	mov	DWORD PTR _this$[ebp], ecx

; 170  : 		_Myproxy = 0;

	mov	eax, DWORD PTR _this$[ebp]
	mov	DWORD PTR [eax], 0

; 171  : 		}

	mov	esp, ebp
	pop	ebp
	ret	0
?_Clrcont@_Iterator_base12@std@@QAEXXZ ENDP		; std::_Iterator_base12::_Clrcont
; Function compile flags: /Odtp /RTCsu
_TEXT	ENDS
;	COMDAT ?_Getpnext@_Iterator_base12@std@@QAEPAPAU12@XZ
_TEXT	SEGMENT
_this$ = -4						; size = 4
?_Getpnext@_Iterator_base12@std@@QAEPAPAU12@XZ PROC	; std::_Iterator_base12::_Getpnext, COMDAT
; _this$ = ecx

; 179  : 		{	// get address of remaining iterator chain

	push	ebp
	mov	ebp, esp
	push	ecx
	mov	DWORD PTR [ebp-4], -858993460		; ccccccccH
	mov	DWORD PTR _this$[ebp], ecx

; 180  : 		return (&_Mynextiter);

	mov	eax, DWORD PTR _this$[ebp]
	add	eax, 4

; 181  : 		}

	mov	esp, ebp
	pop	ebp
	ret	0
?_Getpnext@_Iterator_base12@std@@QAEPAPAU12@XZ ENDP	; std::_Iterator_base12::_Getpnext
_TEXT	ENDS
PUBLIC	?_Orphan_all@_Container_base12@std@@QAEXXZ	; std::_Container_base12::_Orphan_all
PUBLIC	?deallocate@?$allocator@PAVGoal_Evaluator@@@std@@QAEXPAPAVGoal_Evaluator@@I@Z ; std::allocator<Goal_Evaluator *>::deallocate
PUBLIC	??$_Umove@PAPAVGoal_Evaluator@@@?$vector@PAVGoal_Evaluator@@V?$allocator@PAVGoal_Evaluator@@@std@@@std@@IAEPAPAVGoal_Evaluator@@PAPAV2@00@Z ; std::vector<Goal_Evaluator *,std::allocator<Goal_Evaluator *> >::_Umove<Goal_Evaluator * *>
PUBLIC	?allocate@?$allocator@PAVGoal_Evaluator@@@std@@QAEPAPAVGoal_Evaluator@@I@Z ; std::allocator<Goal_Evaluator *>::allocate
EXTRN	__CxxThrowException@8:PROC
;	COMDAT xdata$x
; File c:\program files (x86)\microsoft visual studio 10.0\vc\include\vector
xdata$x	SEGMENT
__catchsym$?reserve@?$vector@PAVGoal_Evaluator@@V?$allocator@PAVGoal_Evaluator@@@std@@@std@@QAEXI@Z$2 DD 040H
	DD	00H
	DD	00H
	DD	FLAT:__catch$?reserve@?$vector@PAVGoal_Evaluator@@V?$allocator@PAVGoal_Evaluator@@@std@@@std@@QAEXI@Z$0
__unwindtable$?reserve@?$vector@PAVGoal_Evaluator@@V?$allocator@PAVGoal_Evaluator@@@std@@@std@@QAEXI@Z DD 0ffffffffH
	DD	00H
	DD	0ffffffffH
	DD	00H
__tryblocktable$?reserve@?$vector@PAVGoal_Evaluator@@V?$allocator@PAVGoal_Evaluator@@@std@@@std@@QAEXI@Z DD 00H
	DD	00H
	DD	01H
	DD	01H
	DD	FLAT:__catchsym$?reserve@?$vector@PAVGoal_Evaluator@@V?$allocator@PAVGoal_Evaluator@@@std@@@std@@QAEXI@Z$2
__ehfuncinfo$?reserve@?$vector@PAVGoal_Evaluator@@V?$allocator@PAVGoal_Evaluator@@@std@@@std@@QAEXI@Z DD 019930522H
	DD	02H
	DD	FLAT:__unwindtable$?reserve@?$vector@PAVGoal_Evaluator@@V?$allocator@PAVGoal_Evaluator@@@std@@@std@@QAEXI@Z
	DD	01H
	DD	FLAT:__tryblocktable$?reserve@?$vector@PAVGoal_Evaluator@@V?$allocator@PAVGoal_Evaluator@@@std@@@std@@QAEXI@Z
	DD	2 DUP(00H)
	DD	00H
	DD	01H
; Function compile flags: /Odtp /RTCsu
xdata$x	ENDS
;	COMDAT ?reserve@?$vector@PAVGoal_Evaluator@@V?$allocator@PAVGoal_Evaluator@@@std@@@std@@QAEXI@Z
_TEXT	SEGMENT
__Size$134981 = -28					; size = 4
__Ptr$134974 = -24					; size = 4
_this$ = -20						; size = 4
__$EHRec$ = -16						; size = 16
__Count$ = 8						; size = 4
?reserve@?$vector@PAVGoal_Evaluator@@V?$allocator@PAVGoal_Evaluator@@@std@@@std@@QAEXI@Z PROC ; std::vector<Goal_Evaluator *,std::allocator<Goal_Evaluator *> >::reserve, COMDAT
; _this$ = ecx

; 746  : 		{	// determine new minimum length of allocated storage

	push	ebp
	mov	ebp, esp
	push	-1
	push	__ehhandler$?reserve@?$vector@PAVGoal_Evaluator@@V?$allocator@PAVGoal_Evaluator@@@std@@@std@@QAEXI@Z
	mov	eax, DWORD PTR fs:0
	push	eax
	push	ecx
	sub	esp, 12					; 0000000cH
	push	ebx
	push	esi
	push	edi
	mov	DWORD PTR [ebp-28], -858993460		; ccccccccH
	mov	DWORD PTR [ebp-24], -858993460		; ccccccccH
	mov	DWORD PTR [ebp-20], -858993460		; ccccccccH
	mov	eax, DWORD PTR ___security_cookie
	xor	eax, ebp
	push	eax
	lea	eax, DWORD PTR __$EHRec$[ebp+4]
	mov	DWORD PTR fs:0, eax
	mov	DWORD PTR __$EHRec$[ebp], esp
	mov	DWORD PTR _this$[ebp], ecx

; 747  : 		if (max_size() < _Count)

	mov	ecx, DWORD PTR _this$[ebp]
	call	?max_size@?$vector@PAVGoal_Evaluator@@V?$allocator@PAVGoal_Evaluator@@@std@@@std@@QBEIXZ ; std::vector<Goal_Evaluator *,std::allocator<Goal_Evaluator *> >::max_size
	cmp	eax, DWORD PTR __Count$[ebp]
	jae	SHORT $LN5@reserve

; 748  : 			_Xlen();	// result too long

	mov	ecx, DWORD PTR _this$[ebp]
	call	?_Xlen@?$vector@PAVGoal_Evaluator@@V?$allocator@PAVGoal_Evaluator@@@std@@@std@@IBEXXZ ; std::vector<Goal_Evaluator *,std::allocator<Goal_Evaluator *> >::_Xlen
	jmp	$LN7@reserve
$LN5@reserve:

; 749  : 		else if (capacity() < _Count)

	mov	ecx, DWORD PTR _this$[ebp]
	call	?capacity@?$vector@PAVGoal_Evaluator@@V?$allocator@PAVGoal_Evaluator@@@std@@@std@@QBEIXZ ; std::vector<Goal_Evaluator *,std::allocator<Goal_Evaluator *> >::capacity
	cmp	eax, DWORD PTR __Count$[ebp]
	jae	$LN7@reserve

; 750  : 			{	// not enough room, reallocate
; 751  : 			pointer _Ptr = this->_Alval.allocate(_Count);

	mov	eax, DWORD PTR __Count$[ebp]
	push	eax
	mov	ecx, DWORD PTR _this$[ebp]
	add	ecx, 16					; 00000010H
	call	?allocate@?$allocator@PAVGoal_Evaluator@@@std@@QAEPAPAVGoal_Evaluator@@I@Z ; std::allocator<Goal_Evaluator *>::allocate
	mov	DWORD PTR __Ptr$134974[ebp], eax

; 752  : 
; 753  : 			_TRY_BEGIN

	mov	DWORD PTR __$EHRec$[ebp+12], 0

; 754  : 			_Umove(this->_Myfirst, this->_Mylast, _Ptr);

	mov	ecx, DWORD PTR __Ptr$134974[ebp]
	push	ecx
	mov	edx, DWORD PTR _this$[ebp]
	mov	eax, DWORD PTR [edx+8]
	push	eax
	mov	ecx, DWORD PTR _this$[ebp]
	mov	edx, DWORD PTR [ecx+4]
	push	edx
	mov	ecx, DWORD PTR _this$[ebp]
	call	??$_Umove@PAPAVGoal_Evaluator@@@?$vector@PAVGoal_Evaluator@@V?$allocator@PAVGoal_Evaluator@@@std@@@std@@IAEPAPAVGoal_Evaluator@@PAPAV2@00@Z ; std::vector<Goal_Evaluator *,std::allocator<Goal_Evaluator *> >::_Umove<Goal_Evaluator * *>
	jmp	SHORT $LN8@reserve
__catch$?reserve@?$vector@PAVGoal_Evaluator@@V?$allocator@PAVGoal_Evaluator@@@std@@@std@@QAEXI@Z$0:

; 755  : 			_CATCH_ALL
; 756  : 			this->_Alval.deallocate(_Ptr, _Count);

	mov	eax, DWORD PTR __Count$[ebp]
	push	eax
	mov	ecx, DWORD PTR __Ptr$134974[ebp]
	push	ecx
	mov	ecx, DWORD PTR _this$[ebp]
	add	ecx, 16					; 00000010H
	call	?deallocate@?$allocator@PAVGoal_Evaluator@@@std@@QAEXPAPAVGoal_Evaluator@@I@Z ; std::allocator<Goal_Evaluator *>::deallocate

; 757  : 			_RERAISE;

	push	0
	push	0
	call	__CxxThrowException@8

; 758  : 			_CATCH_END

	mov	DWORD PTR __$EHRec$[ebp+12], -1
	mov	eax, __tryend$?reserve@?$vector@PAVGoal_Evaluator@@V?$allocator@PAVGoal_Evaluator@@@std@@@std@@QAEXI@Z$1
	ret	0
$LN8@reserve:
	mov	DWORD PTR __$EHRec$[ebp+12], -1
__tryend$?reserve@?$vector@PAVGoal_Evaluator@@V?$allocator@PAVGoal_Evaluator@@@std@@@std@@QAEXI@Z$1:

; 759  : 
; 760  : 			size_type _Size = size();

	mov	ecx, DWORD PTR _this$[ebp]
	call	?size@?$vector@PAVGoal_Evaluator@@V?$allocator@PAVGoal_Evaluator@@@std@@@std@@QBEIXZ ; std::vector<Goal_Evaluator *,std::allocator<Goal_Evaluator *> >::size
	mov	DWORD PTR __Size$134981[ebp], eax

; 761  : 			if (this->_Myfirst != 0)

	mov	edx, DWORD PTR _this$[ebp]
	cmp	DWORD PTR [edx+4], 0
	je	SHORT $LN1@reserve

; 762  : 				{	// destroy and deallocate old array
; 763  : 				_Destroy(this->_Myfirst, this->_Mylast);

	mov	eax, DWORD PTR _this$[ebp]
	mov	ecx, DWORD PTR [eax+8]
	push	ecx
	mov	edx, DWORD PTR _this$[ebp]
	mov	eax, DWORD PTR [edx+4]
	push	eax
	mov	ecx, DWORD PTR _this$[ebp]
	call	?_Destroy@?$vector@PAVGoal_Evaluator@@V?$allocator@PAVGoal_Evaluator@@@std@@@std@@IAEXPAPAVGoal_Evaluator@@0@Z ; std::vector<Goal_Evaluator *,std::allocator<Goal_Evaluator *> >::_Destroy

; 764  : 				this->_Alval.deallocate(this->_Myfirst,
; 765  : 					this->_Myend - this->_Myfirst);

	mov	ecx, DWORD PTR _this$[ebp]
	mov	edx, DWORD PTR _this$[ebp]
	mov	eax, DWORD PTR [ecx+12]
	sub	eax, DWORD PTR [edx+4]
	sar	eax, 2
	push	eax
	mov	ecx, DWORD PTR _this$[ebp]
	mov	edx, DWORD PTR [ecx+4]
	push	edx
	mov	ecx, DWORD PTR _this$[ebp]
	add	ecx, 16					; 00000010H
	call	?deallocate@?$allocator@PAVGoal_Evaluator@@@std@@QAEXPAPAVGoal_Evaluator@@I@Z ; std::allocator<Goal_Evaluator *>::deallocate
$LN1@reserve:

; 766  : 				}
; 767  : 
; 768  : 			this->_Orphan_all();

	mov	ecx, DWORD PTR _this$[ebp]
	call	?_Orphan_all@_Container_base12@std@@QAEXXZ ; std::_Container_base12::_Orphan_all

; 769  : 			this->_Myend = _Ptr + _Count;

	mov	eax, DWORD PTR __Count$[ebp]
	mov	ecx, DWORD PTR __Ptr$134974[ebp]
	lea	edx, DWORD PTR [ecx+eax*4]
	mov	eax, DWORD PTR _this$[ebp]
	mov	DWORD PTR [eax+12], edx

; 770  : 			this->_Mylast = _Ptr + _Size;

	mov	ecx, DWORD PTR __Size$134981[ebp]
	mov	edx, DWORD PTR __Ptr$134974[ebp]
	lea	eax, DWORD PTR [edx+ecx*4]
	mov	ecx, DWORD PTR _this$[ebp]
	mov	DWORD PTR [ecx+8], eax

; 771  : 			this->_Myfirst = _Ptr;

	mov	edx, DWORD PTR _this$[ebp]
	mov	eax, DWORD PTR __Ptr$134974[ebp]
	mov	DWORD PTR [edx+4], eax
$LN7@reserve:

; 772  : 			}
; 773  : 		}

	mov	ecx, DWORD PTR __$EHRec$[ebp+4]
	mov	DWORD PTR fs:0, ecx
	pop	ecx
	pop	edi
	pop	esi
	pop	ebx
	add	esp, 28					; 0000001cH
	cmp	ebp, esp
	call	__RTC_CheckEsp
	mov	esp, ebp
	pop	ebp
	ret	4
_TEXT	ENDS
;	COMDAT text$x
text$x	SEGMENT
__ehhandler$?reserve@?$vector@PAVGoal_Evaluator@@V?$allocator@PAVGoal_Evaluator@@@std@@@std@@QAEXI@Z:
	mov	edx, DWORD PTR [esp+8]
	lea	eax, DWORD PTR [edx+12]
	mov	ecx, DWORD PTR [edx-32]
	xor	ecx, eax
	call	@__security_check_cookie@4
	mov	eax, OFFSET __ehfuncinfo$?reserve@?$vector@PAVGoal_Evaluator@@V?$allocator@PAVGoal_Evaluator@@@std@@@std@@QAEXI@Z
	jmp	___CxxFrameHandler3
text$x	ENDS
?reserve@?$vector@PAVGoal_Evaluator@@V?$allocator@PAVGoal_Evaluator@@@std@@@std@@QAEXI@Z ENDP ; std::vector<Goal_Evaluator *,std::allocator<Goal_Evaluator *> >::reserve
; Function compile flags: /Odtp /RTCsu
; File c:\program files (x86)\microsoft visual studio 10.0\vc\include\xutility
;	COMDAT ?_Orphan_all@_Container_base12@std@@QAEXXZ
_TEXT	SEGMENT
__Pnext$15167 = -20					; size = 4
__Lock$15166 = -12					; size = 4
_this$ = -4						; size = 4
?_Orphan_all@_Container_base12@std@@QAEXXZ PROC		; std::_Container_base12::_Orphan_all, COMDAT
; _this$ = ecx

; 206  : 	{	// orphan all iterators

	push	ebp
	mov	ebp, esp
	sub	esp, 20					; 00000014H
	mov	eax, -858993460				; ccccccccH
	mov	DWORD PTR [ebp-20], eax
	mov	DWORD PTR [ebp-16], eax
	mov	DWORD PTR [ebp-12], eax
	mov	DWORD PTR [ebp-8], eax
	mov	DWORD PTR [ebp-4], eax
	mov	DWORD PTR _this$[ebp], ecx

; 207  :  #if _ITERATOR_DEBUG_LEVEL == 2
; 208  : 	if (_Myproxy != 0)

	mov	eax, DWORD PTR _this$[ebp]
	cmp	DWORD PTR [eax], 0
	je	SHORT $LN5@Orphan_all

; 209  : 		{	// proxy allocated, drain it
; 210  : 		_Lockit _Lock(_LOCK_DEBUG);

	push	3
	lea	ecx, DWORD PTR __Lock$15166[ebp]
	call	??0_Lockit@std@@QAE@H@Z			; std::_Lockit::_Lockit

; 211  : 
; 212  : 		for (_Iterator_base12 **_Pnext = &_Myproxy->_Myfirstiter;

	mov	ecx, DWORD PTR _this$[ebp]
	mov	edx, DWORD PTR [ecx]
	add	edx, 4
	mov	DWORD PTR __Pnext$15167[ebp], edx

; 213  : 			*_Pnext != 0; *_Pnext = (*_Pnext)->_Mynextiter)

	jmp	SHORT $LN3@Orphan_all
$LN2@Orphan_all:
	mov	eax, DWORD PTR __Pnext$15167[ebp]
	mov	ecx, DWORD PTR [eax]
	mov	edx, DWORD PTR __Pnext$15167[ebp]
	mov	eax, DWORD PTR [ecx+4]
	mov	DWORD PTR [edx], eax
$LN3@Orphan_all:
	mov	ecx, DWORD PTR __Pnext$15167[ebp]
	cmp	DWORD PTR [ecx], 0
	je	SHORT $LN1@Orphan_all

; 214  : 			(*_Pnext)->_Myproxy = 0;

	mov	edx, DWORD PTR __Pnext$15167[ebp]
	mov	eax, DWORD PTR [edx]
	mov	DWORD PTR [eax], 0
	jmp	SHORT $LN2@Orphan_all
$LN1@Orphan_all:

; 215  : 		_Myproxy->_Myfirstiter = 0;

	mov	ecx, DWORD PTR _this$[ebp]
	mov	edx, DWORD PTR [ecx]
	mov	DWORD PTR [edx+4], 0

; 216  : 		}

	lea	ecx, DWORD PTR __Lock$15166[ebp]
	call	??1_Lockit@std@@QAE@XZ			; std::_Lockit::~_Lockit
$LN5@Orphan_all:

; 217  :  #endif /* _ITERATOR_DEBUG_LEVEL == 2 */
; 218  : 	}

	push	edx
	mov	ecx, ebp
	push	eax
	lea	edx, DWORD PTR $LN10@Orphan_all
	call	@_RTC_CheckStackVars@8
	pop	eax
	pop	edx
	add	esp, 20					; 00000014H
	cmp	ebp, esp
	call	__RTC_CheckEsp
	mov	esp, ebp
	pop	ebp
	ret	0
	npad	3
$LN10@Orphan_all:
	DD	1
	DD	$LN9@Orphan_all
$LN9@Orphan_all:
	DD	-12					; fffffff4H
	DD	4
	DD	$LN8@Orphan_all
$LN8@Orphan_all:
	DB	95					; 0000005fH
	DB	76					; 0000004cH
	DB	111					; 0000006fH
	DB	99					; 00000063H
	DB	107					; 0000006bH
	DB	0
?_Orphan_all@_Container_base12@std@@QAEXXZ ENDP		; std::_Container_base12::_Orphan_all
; Function compile flags: /Odtp /RTCsu
; File c:\program files (x86)\microsoft visual studio 10.0\vc\include\vector
_TEXT	ENDS
;	COMDAT ?capacity@?$vector@PAVGoal_Evaluator@@V?$allocator@PAVGoal_Evaluator@@@std@@@std@@QBEIXZ
_TEXT	SEGMENT
_this$ = -4						; size = 4
?capacity@?$vector@PAVGoal_Evaluator@@V?$allocator@PAVGoal_Evaluator@@@std@@@std@@QBEIXZ PROC ; std::vector<Goal_Evaluator *,std::allocator<Goal_Evaluator *> >::capacity, COMDAT
; _this$ = ecx

; 776  : 		{	// return current length of allocated storage

	push	ebp
	mov	ebp, esp
	push	ecx
	mov	DWORD PTR [ebp-4], -858993460		; ccccccccH
	mov	DWORD PTR _this$[ebp], ecx

; 777  : 		return (this->_Myend - this->_Myfirst);

	mov	eax, DWORD PTR _this$[ebp]
	mov	ecx, DWORD PTR _this$[ebp]
	mov	eax, DWORD PTR [eax+12]
	sub	eax, DWORD PTR [ecx+4]
	sar	eax, 2

; 778  : 		}

	mov	esp, ebp
	pop	ebp
	ret	0
?capacity@?$vector@PAVGoal_Evaluator@@V?$allocator@PAVGoal_Evaluator@@@std@@@std@@QBEIXZ ENDP ; std::vector<Goal_Evaluator *,std::allocator<Goal_Evaluator *> >::capacity
_TEXT	ENDS
;	COMDAT xdata$x
xdata$x	SEGMENT
__unwindtable$?_Make_iter@?$vector@PAVGoal_Evaluator@@V?$allocator@PAVGoal_Evaluator@@@std@@@std@@QBE?AV?$_Vector_iterator@V?$_Vector_val@PAVGoal_Evaluator@@V?$allocator@PAVGoal_Evaluator@@@std@@@std@@@2@V?$_Vector_const_iterator@V?$_Vector_val@PAVGoal_Evaluator@@V?$allocator@PAVGoal_Evaluator@@@std@@@std@@@2@@Z DD 0ffffffffH
	DD	FLAT:__unwindfunclet$?_Make_iter@?$vector@PAVGoal_Evaluator@@V?$allocator@PAVGoal_Evaluator@@@std@@@std@@QBE?AV?$_Vector_iterator@V?$_Vector_val@PAVGoal_Evaluator@@V?$allocator@PAVGoal_Evaluator@@@std@@@std@@@2@V?$_Vector_const_iterator@V?$_Vector_val@PAVGoal_Evaluator@@V?$allocator@PAVGoal_Evaluator@@@std@@@std@@@2@@Z$1
	DD	00H
	DD	FLAT:__unwindfunclet$?_Make_iter@?$vector@PAVGoal_Evaluator@@V?$allocator@PAVGoal_Evaluator@@@std@@@std@@QBE?AV?$_Vector_iterator@V?$_Vector_val@PAVGoal_Evaluator@@V?$allocator@PAVGoal_Evaluator@@@std@@@std@@@2@V?$_Vector_const_iterator@V?$_Vector_val@PAVGoal_Evaluator@@V?$allocator@PAVGoal_Evaluator@@@std@@@std@@@2@@Z$0
__ehfuncinfo$?_Make_iter@?$vector@PAVGoal_Evaluator@@V?$allocator@PAVGoal_Evaluator@@@std@@@std@@QBE?AV?$_Vector_iterator@V?$_Vector_val@PAVGoal_Evaluator@@V?$allocator@PAVGoal_Evaluator@@@std@@@std@@@2@V?$_Vector_const_iterator@V?$_Vector_val@PAVGoal_Evaluator@@V?$allocator@PAVGoal_Evaluator@@@std@@@std@@@2@@Z DD 019930522H
	DD	02H
	DD	FLAT:__unwindtable$?_Make_iter@?$vector@PAVGoal_Evaluator@@V?$allocator@PAVGoal_Evaluator@@@std@@@std@@QBE?AV?$_Vector_iterator@V?$_Vector_val@PAVGoal_Evaluator@@V?$allocator@PAVGoal_Evaluator@@@std@@@std@@@2@V?$_Vector_const_iterator@V?$_Vector_val@PAVGoal_Evaluator@@V?$allocator@PAVGoal_Evaluator@@@std@@@std@@@2@@Z
	DD	2 DUP(00H)
	DD	2 DUP(00H)
	DD	00H
	DD	01H
; Function compile flags: /Odtp /RTCsu
xdata$x	ENDS
;	COMDAT ?_Make_iter@?$vector@PAVGoal_Evaluator@@V?$allocator@PAVGoal_Evaluator@@@std@@@std@@QBE?AV?$_Vector_iterator@V?$_Vector_val@PAVGoal_Evaluator@@V?$allocator@PAVGoal_Evaluator@@@std@@@std@@@2@V?$_Vector_const_iterator@V?$_Vector_val@PAVGoal_Evaluator@@V?$allocator@PAVGoal_Evaluator@@@std@@@std@@@2@@Z
_TEXT	SEGMENT
$T141904 = -20						; size = 4
_this$ = -16						; size = 4
__$EHRec$ = -12						; size = 12
___$ReturnUdt$ = 8					; size = 4
__Where$ = 12						; size = 12
?_Make_iter@?$vector@PAVGoal_Evaluator@@V?$allocator@PAVGoal_Evaluator@@@std@@@std@@QBE?AV?$_Vector_iterator@V?$_Vector_val@PAVGoal_Evaluator@@V?$allocator@PAVGoal_Evaluator@@@std@@@std@@@2@V?$_Vector_const_iterator@V?$_Vector_val@PAVGoal_Evaluator@@V?$allocator@PAVGoal_Evaluator@@@std@@@std@@@2@@Z PROC ; std::vector<Goal_Evaluator *,std::allocator<Goal_Evaluator *> >::_Make_iter, COMDAT
; _this$ = ecx

; 801  : 		{	// make iterator from const_iterator

	push	ebp
	mov	ebp, esp
	push	-1
	push	__ehhandler$?_Make_iter@?$vector@PAVGoal_Evaluator@@V?$allocator@PAVGoal_Evaluator@@@std@@@std@@QBE?AV?$_Vector_iterator@V?$_Vector_val@PAVGoal_Evaluator@@V?$allocator@PAVGoal_Evaluator@@@std@@@std@@@2@V?$_Vector_const_iterator@V?$_Vector_val@PAVGoal_Evaluator@@V?$allocator@PAVGoal_Evaluator@@@std@@@std@@@2@@Z
	mov	eax, DWORD PTR fs:0
	push	eax
	sub	esp, 8
	mov	DWORD PTR [ebp-20], -858993460		; ccccccccH
	mov	DWORD PTR [ebp-16], -858993460		; ccccccccH
	mov	eax, DWORD PTR ___security_cookie
	xor	eax, ebp
	push	eax
	lea	eax, DWORD PTR __$EHRec$[ebp]
	mov	DWORD PTR fs:0, eax
	mov	DWORD PTR _this$[ebp], ecx
	mov	DWORD PTR $T141904[ebp], 0
	mov	DWORD PTR __$EHRec$[ebp+8], 1

; 802  : 		return (iterator(_Where._Ptr, this));

	mov	eax, DWORD PTR _this$[ebp]
	push	eax
	mov	ecx, DWORD PTR __Where$[ebp+8]
	push	ecx
	mov	ecx, DWORD PTR ___$ReturnUdt$[ebp]
	call	??0?$_Vector_iterator@V?$_Vector_val@PAVGoal_Evaluator@@V?$allocator@PAVGoal_Evaluator@@@std@@@std@@@std@@QAE@PAPAVGoal_Evaluator@@PBU_Container_base12@1@@Z ; std::_Vector_iterator<std::_Vector_val<Goal_Evaluator *,std::allocator<Goal_Evaluator *> > >::_Vector_iterator<std::_Vector_val<Goal_Evaluator *,std::allocator<Goal_Evaluator *> > >
	mov	edx, DWORD PTR $T141904[ebp]
	or	edx, 1
	mov	DWORD PTR $T141904[ebp], edx
	mov	BYTE PTR __$EHRec$[ebp+8], 0
	lea	ecx, DWORD PTR __Where$[ebp]
	call	??1?$_Vector_const_iterator@V?$_Vector_val@PAVGoal_Evaluator@@V?$allocator@PAVGoal_Evaluator@@@std@@@std@@@std@@QAE@XZ
	mov	eax, DWORD PTR ___$ReturnUdt$[ebp]

; 803  : 		}

	mov	ecx, DWORD PTR __$EHRec$[ebp]
	mov	DWORD PTR fs:0, ecx
	pop	ecx
	add	esp, 20					; 00000014H
	cmp	ebp, esp
	call	__RTC_CheckEsp
	mov	esp, ebp
	pop	ebp
	ret	16					; 00000010H
_TEXT	ENDS
;	COMDAT text$x
text$x	SEGMENT
__unwindfunclet$?_Make_iter@?$vector@PAVGoal_Evaluator@@V?$allocator@PAVGoal_Evaluator@@@std@@@std@@QBE?AV?$_Vector_iterator@V?$_Vector_val@PAVGoal_Evaluator@@V?$allocator@PAVGoal_Evaluator@@@std@@@std@@@2@V?$_Vector_const_iterator@V?$_Vector_val@PAVGoal_Evaluator@@V?$allocator@PAVGoal_Evaluator@@@std@@@std@@@2@@Z$0:
	lea	ecx, DWORD PTR __Where$[ebp]
	jmp	??1?$_Vector_const_iterator@V?$_Vector_val@PAVGoal_Evaluator@@V?$allocator@PAVGoal_Evaluator@@@std@@@std@@@std@@QAE@XZ
__unwindfunclet$?_Make_iter@?$vector@PAVGoal_Evaluator@@V?$allocator@PAVGoal_Evaluator@@@std@@@std@@QBE?AV?$_Vector_iterator@V?$_Vector_val@PAVGoal_Evaluator@@V?$allocator@PAVGoal_Evaluator@@@std@@@std@@@2@V?$_Vector_const_iterator@V?$_Vector_val@PAVGoal_Evaluator@@V?$allocator@PAVGoal_Evaluator@@@std@@@std@@@2@@Z$1:
	mov	eax, DWORD PTR $T141904[ebp]
	and	eax, 1
	je	$LN5@Make_iter
	and	DWORD PTR $T141904[ebp], -2		; fffffffeH
	mov	ecx, DWORD PTR ___$ReturnUdt$[ebp]
	jmp	??1?$_Vector_iterator@V?$_Vector_val@PAVGoal_Evaluator@@V?$allocator@PAVGoal_Evaluator@@@std@@@std@@@std@@QAE@XZ
$LN5@Make_iter:
	ret	0
__ehhandler$?_Make_iter@?$vector@PAVGoal_Evaluator@@V?$allocator@PAVGoal_Evaluator@@@std@@@std@@QBE?AV?$_Vector_iterator@V?$_Vector_val@PAVGoal_Evaluator@@V?$allocator@PAVGoal_Evaluator@@@std@@@std@@@2@V?$_Vector_const_iterator@V?$_Vector_val@PAVGoal_Evaluator@@V?$allocator@PAVGoal_Evaluator@@@std@@@std@@@2@@Z:
	mov	edx, DWORD PTR [esp+8]
	lea	eax, DWORD PTR [edx+12]
	mov	ecx, DWORD PTR [edx-12]
	xor	ecx, eax
	call	@__security_check_cookie@4
	mov	eax, OFFSET __ehfuncinfo$?_Make_iter@?$vector@PAVGoal_Evaluator@@V?$allocator@PAVGoal_Evaluator@@@std@@@std@@QBE?AV?$_Vector_iterator@V?$_Vector_val@PAVGoal_Evaluator@@V?$allocator@PAVGoal_Evaluator@@@std@@@std@@@2@V?$_Vector_const_iterator@V?$_Vector_val@PAVGoal_Evaluator@@V?$allocator@PAVGoal_Evaluator@@@std@@@std@@@2@@Z
	jmp	___CxxFrameHandler3
text$x	ENDS
?_Make_iter@?$vector@PAVGoal_Evaluator@@V?$allocator@PAVGoal_Evaluator@@@std@@@std@@QBE?AV?$_Vector_iterator@V?$_Vector_val@PAVGoal_Evaluator@@V?$allocator@PAVGoal_Evaluator@@@std@@@std@@@2@V?$_Vector_const_iterator@V?$_Vector_val@PAVGoal_Evaluator@@V?$allocator@PAVGoal_Evaluator@@@std@@@std@@@2@@Z ENDP ; std::vector<Goal_Evaluator *,std::allocator<Goal_Evaluator *> >::_Make_iter
; Function compile flags: /Odtp /RTCsu
;	COMDAT ?size@?$vector@PAVGoal_Evaluator@@V?$allocator@PAVGoal_Evaluator@@@std@@@std@@QBEIXZ
_TEXT	SEGMENT
_this$ = -4						; size = 4
?size@?$vector@PAVGoal_Evaluator@@V?$allocator@PAVGoal_Evaluator@@@std@@@std@@QBEIXZ PROC ; std::vector<Goal_Evaluator *,std::allocator<Goal_Evaluator *> >::size, COMDAT
; _this$ = ecx

; 878  : 		{	// return length of sequence

	push	ebp
	mov	ebp, esp
	push	ecx
	mov	DWORD PTR [ebp-4], -858993460		; ccccccccH
	mov	DWORD PTR _this$[ebp], ecx

; 879  : 		return (this->_Mylast - this->_Myfirst);

	mov	eax, DWORD PTR _this$[ebp]
	mov	ecx, DWORD PTR _this$[ebp]
	mov	eax, DWORD PTR [eax+8]
	sub	eax, DWORD PTR [ecx+4]
	sar	eax, 2

; 880  : 		}

	mov	esp, ebp
	pop	ebp
	ret	0
?size@?$vector@PAVGoal_Evaluator@@V?$allocator@PAVGoal_Evaluator@@@std@@@std@@QBEIXZ ENDP ; std::vector<Goal_Evaluator *,std::allocator<Goal_Evaluator *> >::size
_TEXT	ENDS
PUBLIC	?max_size@?$allocator@PAVGoal_Evaluator@@@std@@QBEIXZ ; std::allocator<Goal_Evaluator *>::max_size
; Function compile flags: /Odtp /RTCsu
;	COMDAT ?max_size@?$vector@PAVGoal_Evaluator@@V?$allocator@PAVGoal_Evaluator@@@std@@@std@@QBEIXZ
_TEXT	SEGMENT
_this$ = -4						; size = 4
?max_size@?$vector@PAVGoal_Evaluator@@V?$allocator@PAVGoal_Evaluator@@@std@@@std@@QBEIXZ PROC ; std::vector<Goal_Evaluator *,std::allocator<Goal_Evaluator *> >::max_size, COMDAT
; _this$ = ecx

; 883  : 		{	// return maximum possible length of sequence

	push	ebp
	mov	ebp, esp
	push	ecx
	mov	DWORD PTR [ebp-4], -858993460		; ccccccccH
	mov	DWORD PTR _this$[ebp], ecx

; 884  : 		return (this->_Alval.max_size());

	mov	ecx, DWORD PTR _this$[ebp]
	add	ecx, 16					; 00000010H
	call	?max_size@?$allocator@PAVGoal_Evaluator@@@std@@QBEIXZ ; std::allocator<Goal_Evaluator *>::max_size

; 885  : 		}

	add	esp, 4
	cmp	ebp, esp
	call	__RTC_CheckEsp
	mov	esp, ebp
	pop	ebp
	ret	0
?max_size@?$vector@PAVGoal_Evaluator@@V?$allocator@PAVGoal_Evaluator@@@std@@@std@@QBEIXZ ENDP ; std::vector<Goal_Evaluator *,std::allocator<Goal_Evaluator *> >::max_size
_TEXT	ENDS
PUBLIC	??$_Destroy_range@V?$allocator@PAVGoal_Evaluator@@@std@@@std@@YAXPAPAVGoal_Evaluator@@0AAV?$allocator@PAVGoal_Evaluator@@@0@@Z ; std::_Destroy_range<std::allocator<Goal_Evaluator *> >
; Function compile flags: /Odtp /RTCsu
;	COMDAT ?_Destroy@?$vector@PAVGoal_Evaluator@@V?$allocator@PAVGoal_Evaluator@@@std@@@std@@IAEXPAPAVGoal_Evaluator@@0@Z
_TEXT	SEGMENT
_this$ = -4						; size = 4
__First$ = 8						; size = 4
__Last$ = 12						; size = 4
?_Destroy@?$vector@PAVGoal_Evaluator@@V?$allocator@PAVGoal_Evaluator@@@std@@@std@@IAEXPAPAVGoal_Evaluator@@0@Z PROC ; std::vector<Goal_Evaluator *,std::allocator<Goal_Evaluator *> >::_Destroy, COMDAT
; _this$ = ecx

; 1269 : 		{	// destroy [_First, _Last) using allocator

	push	ebp
	mov	ebp, esp
	push	ecx
	mov	DWORD PTR [ebp-4], -858993460		; ccccccccH
	mov	DWORD PTR _this$[ebp], ecx

; 1270 : 		_Destroy_range(_First, _Last, this->_Alval);

	mov	eax, DWORD PTR _this$[ebp]
	add	eax, 16					; 00000010H
	push	eax
	mov	ecx, DWORD PTR __Last$[ebp]
	push	ecx
	mov	edx, DWORD PTR __First$[ebp]
	push	edx
	call	??$_Destroy_range@V?$allocator@PAVGoal_Evaluator@@@std@@@std@@YAXPAPAVGoal_Evaluator@@0AAV?$allocator@PAVGoal_Evaluator@@@0@@Z ; std::_Destroy_range<std::allocator<Goal_Evaluator *> >
	add	esp, 12					; 0000000cH

; 1271 : 		}

	add	esp, 4
	cmp	ebp, esp
	call	__RTC_CheckEsp
	mov	esp, ebp
	pop	ebp
	ret	8
?_Destroy@?$vector@PAVGoal_Evaluator@@V?$allocator@PAVGoal_Evaluator@@@std@@@std@@IAEXPAPAVGoal_Evaluator@@0@Z ENDP ; std::vector<Goal_Evaluator *,std::allocator<Goal_Evaluator *> >::_Destroy
; Function compile flags: /Odtp /RTCsu
_TEXT	ENDS
;	COMDAT ?_Grow_to@?$vector@PAVGoal_Evaluator@@V?$allocator@PAVGoal_Evaluator@@@std@@@std@@IBEII@Z
_TEXT	SEGMENT
tv73 = -12						; size = 4
__Capacity$ = -8					; size = 4
_this$ = -4						; size = 4
__Count$ = 8						; size = 4
?_Grow_to@?$vector@PAVGoal_Evaluator@@V?$allocator@PAVGoal_Evaluator@@@std@@@std@@IBEII@Z PROC ; std::vector<Goal_Evaluator *,std::allocator<Goal_Evaluator *> >::_Grow_to, COMDAT
; _this$ = ecx

; 1274 : 		{	// grow by 50% or at least to _Count

	push	ebp
	mov	ebp, esp
	sub	esp, 12					; 0000000cH
	mov	DWORD PTR [ebp-12], -858993460		; ccccccccH
	mov	DWORD PTR [ebp-8], -858993460		; ccccccccH
	mov	DWORD PTR [ebp-4], -858993460		; ccccccccH
	mov	DWORD PTR _this$[ebp], ecx

; 1275 : 		size_type _Capacity = capacity();

	mov	ecx, DWORD PTR _this$[ebp]
	call	?capacity@?$vector@PAVGoal_Evaluator@@V?$allocator@PAVGoal_Evaluator@@@std@@@std@@QBEIXZ ; std::vector<Goal_Evaluator *,std::allocator<Goal_Evaluator *> >::capacity
	mov	DWORD PTR __Capacity$[ebp], eax

; 1276 : 
; 1277 : 		_Capacity = max_size() - _Capacity / 2 < _Capacity
; 1278 : 			? 0 : _Capacity + _Capacity / 2;	// try to grow by 50%

	mov	ecx, DWORD PTR _this$[ebp]
	call	?max_size@?$vector@PAVGoal_Evaluator@@V?$allocator@PAVGoal_Evaluator@@@std@@@std@@QBEIXZ ; std::vector<Goal_Evaluator *,std::allocator<Goal_Evaluator *> >::max_size
	mov	ecx, DWORD PTR __Capacity$[ebp]
	shr	ecx, 1
	sub	eax, ecx
	cmp	eax, DWORD PTR __Capacity$[ebp]
	jae	SHORT $LN4@Grow_to
	mov	DWORD PTR tv73[ebp], 0
	jmp	SHORT $LN5@Grow_to
$LN4@Grow_to:
	mov	edx, DWORD PTR __Capacity$[ebp]
	shr	edx, 1
	add	edx, DWORD PTR __Capacity$[ebp]
	mov	DWORD PTR tv73[ebp], edx
$LN5@Grow_to:
	mov	eax, DWORD PTR tv73[ebp]
	mov	DWORD PTR __Capacity$[ebp], eax

; 1279 : 		if (_Capacity < _Count)

	mov	ecx, DWORD PTR __Capacity$[ebp]
	cmp	ecx, DWORD PTR __Count$[ebp]
	jae	SHORT $LN1@Grow_to

; 1280 : 			_Capacity = _Count;

	mov	edx, DWORD PTR __Count$[ebp]
	mov	DWORD PTR __Capacity$[ebp], edx
$LN1@Grow_to:

; 1281 : 		return (_Capacity);

	mov	eax, DWORD PTR __Capacity$[ebp]

; 1282 : 		}

	add	esp, 12					; 0000000cH
	cmp	ebp, esp
	call	__RTC_CheckEsp
	mov	esp, ebp
	pop	ebp
	ret	4
?_Grow_to@?$vector@PAVGoal_Evaluator@@V?$allocator@PAVGoal_Evaluator@@@std@@@std@@IBEII@Z ENDP ; std::vector<Goal_Evaluator *,std::allocator<Goal_Evaluator *> >::_Grow_to
_TEXT	ENDS
PUBLIC	??_C@_0BD@OLBABOEK@vector?$DMT?$DO?5too?5long?$AA@ ; `string'
EXTRN	?_Xlength_error@std@@YAXPBD@Z:PROC		; std::_Xlength_error
;	COMDAT ??_C@_0BD@OLBABOEK@vector?$DMT?$DO?5too?5long?$AA@
CONST	SEGMENT
??_C@_0BD@OLBABOEK@vector?$DMT?$DO?5too?5long?$AA@ DB 'vector<T> too long'
	DB	00H						; `string'
; Function compile flags: /Odtp /RTCsu
CONST	ENDS
;	COMDAT ?_Xlen@?$vector@PAVGoal_Evaluator@@V?$allocator@PAVGoal_Evaluator@@@std@@@std@@IBEXXZ
_TEXT	SEGMENT
_this$ = -4						; size = 4
?_Xlen@?$vector@PAVGoal_Evaluator@@V?$allocator@PAVGoal_Evaluator@@@std@@@std@@IBEXXZ PROC ; std::vector<Goal_Evaluator *,std::allocator<Goal_Evaluator *> >::_Xlen, COMDAT
; _this$ = ecx

; 1426 : 		{	// report a length_error

	push	ebp
	mov	ebp, esp
	push	ecx
	mov	DWORD PTR [ebp-4], -858993460		; ccccccccH
	mov	DWORD PTR _this$[ebp], ecx

; 1427 : 		_Xlength_error("vector<T> too long");

	push	OFFSET ??_C@_0BD@OLBABOEK@vector?$DMT?$DO?5too?5long?$AA@
	call	?_Xlength_error@std@@YAXPBD@Z		; std::_Xlength_error
$LN2@Xlen:

; 1428 : 		}

	add	esp, 4
	cmp	ebp, esp
	call	__RTC_CheckEsp
	mov	esp, ebp
	pop	ebp
	ret	0
?_Xlen@?$vector@PAVGoal_Evaluator@@V?$allocator@PAVGoal_Evaluator@@@std@@@std@@IBEXXZ ENDP ; std::vector<Goal_Evaluator *,std::allocator<Goal_Evaluator *> >::_Xlen
_TEXT	ENDS
PUBLIC	??0?$_Vector_const_iterator@V?$_Vector_val@PAVGoal_Evaluator@@V?$allocator@PAVGoal_Evaluator@@@std@@@std@@@std@@QAE@PAPAVGoal_Evaluator@@PBU_Container_base12@1@@Z ; std::_Vector_const_iterator<std::_Vector_val<Goal_Evaluator *,std::allocator<Goal_Evaluator *> > >::_Vector_const_iterator<std::_Vector_val<Goal_Evaluator *,std::allocator<Goal_Evaluator *> > >
; Function compile flags: /Odtp /RTCsu
;	COMDAT ??0?$_Vector_iterator@V?$_Vector_val@PAVGoal_Evaluator@@V?$allocator@PAVGoal_Evaluator@@@std@@@std@@@std@@QAE@PAPAVGoal_Evaluator@@PBU_Container_base12@1@@Z
_TEXT	SEGMENT
_this$ = -4						; size = 4
__Parg$ = 8						; size = 4
__Pvector$ = 12						; size = 4
??0?$_Vector_iterator@V?$_Vector_val@PAVGoal_Evaluator@@V?$allocator@PAVGoal_Evaluator@@@std@@@std@@@std@@QAE@PAPAVGoal_Evaluator@@PBU_Container_base12@1@@Z PROC ; std::_Vector_iterator<std::_Vector_val<Goal_Evaluator *,std::allocator<Goal_Evaluator *> > >::_Vector_iterator<std::_Vector_val<Goal_Evaluator *,std::allocator<Goal_Evaluator *> > >, COMDAT
; _this$ = ecx

; 304  : 		{	// construct with pointer _Parg

	push	ebp
	mov	ebp, esp
	push	ecx
	mov	DWORD PTR [ebp-4], -858993460		; ccccccccH
	mov	DWORD PTR _this$[ebp], ecx
	mov	eax, DWORD PTR __Pvector$[ebp]
	push	eax
	mov	ecx, DWORD PTR __Parg$[ebp]
	push	ecx
	mov	ecx, DWORD PTR _this$[ebp]
	call	??0?$_Vector_const_iterator@V?$_Vector_val@PAVGoal_Evaluator@@V?$allocator@PAVGoal_Evaluator@@@std@@@std@@@std@@QAE@PAPAVGoal_Evaluator@@PBU_Container_base12@1@@Z ; std::_Vector_const_iterator<std::_Vector_val<Goal_Evaluator *,std::allocator<Goal_Evaluator *> > >::_Vector_const_iterator<std::_Vector_val<Goal_Evaluator *,std::allocator<Goal_Evaluator *> > >

; 305  : 		}

	mov	eax, DWORD PTR _this$[ebp]
	add	esp, 4
	cmp	ebp, esp
	call	__RTC_CheckEsp
	mov	esp, ebp
	pop	ebp
	ret	8
??0?$_Vector_iterator@V?$_Vector_val@PAVGoal_Evaluator@@V?$allocator@PAVGoal_Evaluator@@@std@@@std@@@std@@QAE@PAPAVGoal_Evaluator@@PBU_Container_base12@1@@Z ENDP ; std::_Vector_iterator<std::_Vector_val<Goal_Evaluator *,std::allocator<Goal_Evaluator *> > >::_Vector_iterator<std::_Vector_val<Goal_Evaluator *,std::allocator<Goal_Evaluator *> > >
_TEXT	ENDS
PUBLIC	??8?$_Vector_const_iterator@V?$_Vector_val@PAVGoal_Evaluator@@V?$allocator@PAVGoal_Evaluator@@@std@@@std@@@std@@QBE_NABV01@@Z ; std::_Vector_const_iterator<std::_Vector_val<Goal_Evaluator *,std::allocator<Goal_Evaluator *> > >::operator==
; Function compile flags: /Odtp /RTCsu
;	COMDAT ??9?$_Vector_const_iterator@V?$_Vector_val@PAVGoal_Evaluator@@V?$allocator@PAVGoal_Evaluator@@@std@@@std@@@std@@QBE_NABV01@@Z
_TEXT	SEGMENT
_this$ = -4						; size = 4
__Right$ = 8						; size = 4
??9?$_Vector_const_iterator@V?$_Vector_val@PAVGoal_Evaluator@@V?$allocator@PAVGoal_Evaluator@@@std@@@std@@@std@@QBE_NABV01@@Z PROC ; std::_Vector_const_iterator<std::_Vector_val<Goal_Evaluator *,std::allocator<Goal_Evaluator *> > >::operator!=, COMDAT
; _this$ = ecx

; 207  : 		{	// test for iterator inequality

	push	ebp
	mov	ebp, esp
	push	ecx
	mov	DWORD PTR [ebp-4], -858993460		; ccccccccH
	mov	DWORD PTR _this$[ebp], ecx

; 208  : 		return (!(*this == _Right));

	mov	eax, DWORD PTR __Right$[ebp]
	push	eax
	mov	ecx, DWORD PTR _this$[ebp]
	call	??8?$_Vector_const_iterator@V?$_Vector_val@PAVGoal_Evaluator@@V?$allocator@PAVGoal_Evaluator@@@std@@@std@@@std@@QBE_NABV01@@Z ; std::_Vector_const_iterator<std::_Vector_val<Goal_Evaluator *,std::allocator<Goal_Evaluator *> > >::operator==
	movzx	eax, al
	neg	eax
	sbb	eax, eax
	add	eax, 1

; 209  : 		}

	add	esp, 4
	cmp	ebp, esp
	call	__RTC_CheckEsp
	mov	esp, ebp
	pop	ebp
	ret	4
??9?$_Vector_const_iterator@V?$_Vector_val@PAVGoal_Evaluator@@V?$allocator@PAVGoal_Evaluator@@@std@@@std@@@std@@QBE_NABV01@@Z ENDP ; std::_Vector_const_iterator<std::_Vector_val<Goal_Evaluator *,std::allocator<Goal_Evaluator *> > >::operator!=
_TEXT	ENDS
PUBLIC	?_Compat@?$_Vector_const_iterator@V?$_Vector_val@PAVGoal_Evaluator@@V?$allocator@PAVGoal_Evaluator@@@std@@@std@@@std@@QBEXABV12@@Z ; std::_Vector_const_iterator<std::_Vector_val<Goal_Evaluator *,std::allocator<Goal_Evaluator *> > >::_Compat
; Function compile flags: /Odtp /RTCsu
;	COMDAT ??M?$_Vector_const_iterator@V?$_Vector_val@PAVGoal_Evaluator@@V?$allocator@PAVGoal_Evaluator@@@std@@@std@@@std@@QBE_NABV01@@Z
_TEXT	SEGMENT
_this$ = -4						; size = 4
__Right$ = 8						; size = 4
??M?$_Vector_const_iterator@V?$_Vector_val@PAVGoal_Evaluator@@V?$allocator@PAVGoal_Evaluator@@@std@@@std@@@std@@QBE_NABV01@@Z PROC ; std::_Vector_const_iterator<std::_Vector_val<Goal_Evaluator *,std::allocator<Goal_Evaluator *> > >::operator<, COMDAT
; _this$ = ecx

; 212  : 		{	// test if this < _Right

	push	ebp
	mov	ebp, esp
	push	ecx
	mov	DWORD PTR [ebp-4], -858993460		; ccccccccH
	mov	DWORD PTR _this$[ebp], ecx

; 213  : 		_Compat(_Right);

	mov	eax, DWORD PTR __Right$[ebp]
	push	eax
	mov	ecx, DWORD PTR _this$[ebp]
	call	?_Compat@?$_Vector_const_iterator@V?$_Vector_val@PAVGoal_Evaluator@@V?$allocator@PAVGoal_Evaluator@@@std@@@std@@@std@@QBEXABV12@@Z ; std::_Vector_const_iterator<std::_Vector_val<Goal_Evaluator *,std::allocator<Goal_Evaluator *> > >::_Compat

; 214  : 		return (this->_Ptr < _Right._Ptr);

	mov	ecx, DWORD PTR _this$[ebp]
	mov	edx, DWORD PTR __Right$[ebp]
	mov	eax, DWORD PTR [ecx+8]
	cmp	eax, DWORD PTR [edx+8]
	sbb	eax, eax
	neg	eax

; 215  : 		}

	add	esp, 4
	cmp	ebp, esp
	call	__RTC_CheckEsp
	mov	esp, ebp
	pop	ebp
	ret	4
??M?$_Vector_const_iterator@V?$_Vector_val@PAVGoal_Evaluator@@V?$allocator@PAVGoal_Evaluator@@@std@@@std@@@std@@QBE_NABV01@@Z ENDP ; std::_Vector_const_iterator<std::_Vector_val<Goal_Evaluator *,std::allocator<Goal_Evaluator *> > >::operator<
; Function compile flags: /Odtp /RTCsu
; File c:\program files (x86)\microsoft visual studio 10.0\vc\include\xmemory
_TEXT	ENDS
;	COMDAT ?deallocate@?$allocator@PAVGoal_Evaluator@@@std@@QAEXPAPAVGoal_Evaluator@@I@Z
_TEXT	SEGMENT
_this$ = -4						; size = 4
__Ptr$ = 8						; size = 4
___formal$ = 12						; size = 4
?deallocate@?$allocator@PAVGoal_Evaluator@@@std@@QAEXPAPAVGoal_Evaluator@@I@Z PROC ; std::allocator<Goal_Evaluator *>::deallocate, COMDAT
; _this$ = ecx

; 181  : 		{	// deallocate object at _Ptr, ignore size

	push	ebp
	mov	ebp, esp
	push	ecx
	mov	DWORD PTR [ebp-4], -858993460		; ccccccccH
	mov	DWORD PTR _this$[ebp], ecx

; 182  : 		::operator delete(_Ptr);

	mov	eax, DWORD PTR __Ptr$[ebp]
	push	eax
	call	??3@YAXPAX@Z				; operator delete
	add	esp, 4

; 183  : 		}

	add	esp, 4
	cmp	ebp, esp
	call	__RTC_CheckEsp
	mov	esp, ebp
	pop	ebp
	ret	8
?deallocate@?$allocator@PAVGoal_Evaluator@@@std@@QAEXPAPAVGoal_Evaluator@@I@Z ENDP ; std::allocator<Goal_Evaluator *>::deallocate
_TEXT	ENDS
PUBLIC	??$_Allocate@PAVGoal_Evaluator@@@std@@YAPAPAVGoal_Evaluator@@IPAPAV1@@Z ; std::_Allocate<Goal_Evaluator *>
; Function compile flags: /Odtp /RTCsu
;	COMDAT ?allocate@?$allocator@PAVGoal_Evaluator@@@std@@QAEPAPAVGoal_Evaluator@@I@Z
_TEXT	SEGMENT
_this$ = -4						; size = 4
__Count$ = 8						; size = 4
?allocate@?$allocator@PAVGoal_Evaluator@@@std@@QAEPAPAVGoal_Evaluator@@I@Z PROC ; std::allocator<Goal_Evaluator *>::allocate, COMDAT
; _this$ = ecx

; 186  : 		{	// allocate array of _Count elements

	push	ebp
	mov	ebp, esp
	push	ecx
	mov	DWORD PTR [ebp-4], -858993460		; ccccccccH
	mov	DWORD PTR _this$[ebp], ecx

; 187  : 		return (_Allocate(_Count, (pointer)0));

	push	0
	mov	eax, DWORD PTR __Count$[ebp]
	push	eax
	call	??$_Allocate@PAVGoal_Evaluator@@@std@@YAPAPAVGoal_Evaluator@@IPAPAV1@@Z ; std::_Allocate<Goal_Evaluator *>
	add	esp, 8

; 188  : 		}

	add	esp, 4
	cmp	ebp, esp
	call	__RTC_CheckEsp
	mov	esp, ebp
	pop	ebp
	ret	4
?allocate@?$allocator@PAVGoal_Evaluator@@@std@@QAEPAPAVGoal_Evaluator@@I@Z ENDP ; std::allocator<Goal_Evaluator *>::allocate
; Function compile flags: /Odtp /RTCsu
_TEXT	ENDS
;	COMDAT ?max_size@?$allocator@PAVGoal_Evaluator@@@std@@QBEIXZ
_TEXT	SEGMENT
tv65 = -12						; size = 4
__Count$ = -8						; size = 4
_this$ = -4						; size = 4
?max_size@?$allocator@PAVGoal_Evaluator@@@std@@QBEIXZ PROC ; std::allocator<Goal_Evaluator *>::max_size, COMDAT
; _this$ = ecx

; 217  : 		{	// estimate maximum array size

	push	ebp
	mov	ebp, esp
	sub	esp, 12					; 0000000cH
	mov	DWORD PTR [ebp-12], -858993460		; ccccccccH
	mov	DWORD PTR [ebp-8], -858993460		; ccccccccH
	mov	DWORD PTR [ebp-4], -858993460		; ccccccccH
	mov	DWORD PTR _this$[ebp], ecx

; 218  : 		_SIZT _Count = (_SIZT)(-1) / sizeof (_Ty);

	mov	DWORD PTR __Count$[ebp], 1073741823	; 3fffffffH

; 219  : 		return (0 < _Count ? _Count : 1);

	cmp	DWORD PTR __Count$[ebp], 0
	jbe	SHORT $LN3@max_size
	mov	eax, DWORD PTR __Count$[ebp]
	mov	DWORD PTR tv65[ebp], eax
	jmp	SHORT $LN4@max_size
$LN3@max_size:
	mov	DWORD PTR tv65[ebp], 1
$LN4@max_size:
	mov	eax, DWORD PTR tv65[ebp]

; 220  : 		}

	mov	esp, ebp
	pop	ebp
	ret	0
?max_size@?$allocator@PAVGoal_Evaluator@@@std@@QBEIXZ ENDP ; std::allocator<Goal_Evaluator *>::max_size
_TEXT	ENDS
PUBLIC	??0?$_Iterator012@Urandom_access_iterator_tag@std@@PAVGoal_Evaluator@@HPBQAV3@ABQAV3@U_Iterator_base12@2@@std@@QAE@XZ ; std::_Iterator012<std::random_access_iterator_tag,Goal_Evaluator *,int,Goal_Evaluator * const *,Goal_Evaluator * const &,std::_Iterator_base12>::_Iterator012<std::random_access_iterator_tag,Goal_Evaluator *,int,Goal_Evaluator * const *,Goal_Evaluator * const &,std::_Iterator_base12>
;	COMDAT xdata$x
; File c:\program files (x86)\microsoft visual studio 10.0\vc\include\vector
xdata$x	SEGMENT
__unwindtable$??0?$_Vector_const_iterator@V?$_Vector_val@PAVGoal_Evaluator@@V?$allocator@PAVGoal_Evaluator@@@std@@@std@@@std@@QAE@PAPAVGoal_Evaluator@@PBU_Container_base12@1@@Z DD 0ffffffffH
	DD	FLAT:__unwindfunclet$??0?$_Vector_const_iterator@V?$_Vector_val@PAVGoal_Evaluator@@V?$allocator@PAVGoal_Evaluator@@@std@@@std@@@std@@QAE@PAPAVGoal_Evaluator@@PBU_Container_base12@1@@Z$0
__ehfuncinfo$??0?$_Vector_const_iterator@V?$_Vector_val@PAVGoal_Evaluator@@V?$allocator@PAVGoal_Evaluator@@@std@@@std@@@std@@QAE@PAPAVGoal_Evaluator@@PBU_Container_base12@1@@Z DD 019930522H
	DD	01H
	DD	FLAT:__unwindtable$??0?$_Vector_const_iterator@V?$_Vector_val@PAVGoal_Evaluator@@V?$allocator@PAVGoal_Evaluator@@@std@@@std@@@std@@QAE@PAPAVGoal_Evaluator@@PBU_Container_base12@1@@Z
	DD	2 DUP(00H)
	DD	2 DUP(00H)
	DD	00H
	DD	01H
; Function compile flags: /Odtp /RTCsu
xdata$x	ENDS
;	COMDAT ??0?$_Vector_const_iterator@V?$_Vector_val@PAVGoal_Evaluator@@V?$allocator@PAVGoal_Evaluator@@@std@@@std@@@std@@QAE@PAPAVGoal_Evaluator@@PBU_Container_base12@1@@Z
_TEXT	SEGMENT
_this$ = -16						; size = 4
__$EHRec$ = -12						; size = 12
__Parg$ = 8						; size = 4
__Pvector$ = 12						; size = 4
??0?$_Vector_const_iterator@V?$_Vector_val@PAVGoal_Evaluator@@V?$allocator@PAVGoal_Evaluator@@@std@@@std@@@std@@QAE@PAPAVGoal_Evaluator@@PBU_Container_base12@1@@Z PROC ; std::_Vector_const_iterator<std::_Vector_val<Goal_Evaluator *,std::allocator<Goal_Evaluator *> > >::_Vector_const_iterator<std::_Vector_val<Goal_Evaluator *,std::allocator<Goal_Evaluator *> > >, COMDAT
; _this$ = ecx

; 45   : 		{	// construct with pointer _Parg

	push	ebp
	mov	ebp, esp
	push	-1
	push	__ehhandler$??0?$_Vector_const_iterator@V?$_Vector_val@PAVGoal_Evaluator@@V?$allocator@PAVGoal_Evaluator@@@std@@@std@@@std@@QAE@PAPAVGoal_Evaluator@@PBU_Container_base12@1@@Z
	mov	eax, DWORD PTR fs:0
	push	eax
	push	ecx
	mov	DWORD PTR [ebp-16], -858993460		; ccccccccH
	mov	eax, DWORD PTR ___security_cookie
	xor	eax, ebp
	push	eax
	lea	eax, DWORD PTR __$EHRec$[ebp]
	mov	DWORD PTR fs:0, eax
	mov	DWORD PTR _this$[ebp], ecx
	mov	ecx, DWORD PTR _this$[ebp]
	call	??0?$_Iterator012@Urandom_access_iterator_tag@std@@PAVGoal_Evaluator@@HPBQAV3@ABQAV3@U_Iterator_base12@2@@std@@QAE@XZ
	mov	DWORD PTR __$EHRec$[ebp+8], 0
	mov	eax, DWORD PTR _this$[ebp]
	mov	ecx, DWORD PTR __Parg$[ebp]
	mov	DWORD PTR [eax+8], ecx

; 46   : 		this->_Adopt(_Pvector);

	mov	edx, DWORD PTR __Pvector$[ebp]
	push	edx
	mov	ecx, DWORD PTR _this$[ebp]
	call	?_Adopt@_Iterator_base12@std@@QAEXPBU_Container_base12@2@@Z ; std::_Iterator_base12::_Adopt

; 47   : 		}

	mov	DWORD PTR __$EHRec$[ebp+8], -1
	mov	eax, DWORD PTR _this$[ebp]
	mov	ecx, DWORD PTR __$EHRec$[ebp]
	mov	DWORD PTR fs:0, ecx
	pop	ecx
	add	esp, 16					; 00000010H
	cmp	ebp, esp
	call	__RTC_CheckEsp
	mov	esp, ebp
	pop	ebp
	ret	8
_TEXT	ENDS
;	COMDAT text$x
text$x	SEGMENT
__unwindfunclet$??0?$_Vector_const_iterator@V?$_Vector_val@PAVGoal_Evaluator@@V?$allocator@PAVGoal_Evaluator@@@std@@@std@@@std@@QAE@PAPAVGoal_Evaluator@@PBU_Container_base12@1@@Z$0:
	mov	ecx, DWORD PTR _this$[ebp]
	jmp	??1?$_Iterator012@Urandom_access_iterator_tag@std@@PAVGoal_Evaluator@@HPBQAV3@ABQAV3@U_Iterator_base12@2@@std@@QAE@XZ
__ehhandler$??0?$_Vector_const_iterator@V?$_Vector_val@PAVGoal_Evaluator@@V?$allocator@PAVGoal_Evaluator@@@std@@@std@@@std@@QAE@PAPAVGoal_Evaluator@@PBU_Container_base12@1@@Z:
	mov	edx, DWORD PTR [esp+8]
	lea	eax, DWORD PTR [edx+12]
	mov	ecx, DWORD PTR [edx-8]
	xor	ecx, eax
	call	@__security_check_cookie@4
	mov	eax, OFFSET __ehfuncinfo$??0?$_Vector_const_iterator@V?$_Vector_val@PAVGoal_Evaluator@@V?$allocator@PAVGoal_Evaluator@@@std@@@std@@@std@@QAE@PAPAVGoal_Evaluator@@PBU_Container_base12@1@@Z
	jmp	___CxxFrameHandler3
text$x	ENDS
??0?$_Vector_const_iterator@V?$_Vector_val@PAVGoal_Evaluator@@V?$allocator@PAVGoal_Evaluator@@@std@@@std@@@std@@QAE@PAPAVGoal_Evaluator@@PBU_Container_base12@1@@Z ENDP ; std::_Vector_const_iterator<std::_Vector_val<Goal_Evaluator *,std::allocator<Goal_Evaluator *> > >::_Vector_const_iterator<std::_Vector_val<Goal_Evaluator *,std::allocator<Goal_Evaluator *> > >
; Function compile flags: /Odtp /RTCsu
;	COMDAT ??8?$_Vector_const_iterator@V?$_Vector_val@PAVGoal_Evaluator@@V?$allocator@PAVGoal_Evaluator@@@std@@@std@@@std@@QBE_NABV01@@Z
_TEXT	SEGMENT
_this$ = -4						; size = 4
__Right$ = 8						; size = 4
??8?$_Vector_const_iterator@V?$_Vector_val@PAVGoal_Evaluator@@V?$allocator@PAVGoal_Evaluator@@@std@@@std@@@std@@QBE_NABV01@@Z PROC ; std::_Vector_const_iterator<std::_Vector_val<Goal_Evaluator *,std::allocator<Goal_Evaluator *> > >::operator==, COMDAT
; _this$ = ecx

; 201  : 		{	// test for iterator equality

	push	ebp
	mov	ebp, esp
	push	ecx
	mov	DWORD PTR [ebp-4], -858993460		; ccccccccH
	mov	DWORD PTR _this$[ebp], ecx

; 202  : 		_Compat(_Right);

	mov	eax, DWORD PTR __Right$[ebp]
	push	eax
	mov	ecx, DWORD PTR _this$[ebp]
	call	?_Compat@?$_Vector_const_iterator@V?$_Vector_val@PAVGoal_Evaluator@@V?$allocator@PAVGoal_Evaluator@@@std@@@std@@@std@@QBEXABV12@@Z ; std::_Vector_const_iterator<std::_Vector_val<Goal_Evaluator *,std::allocator<Goal_Evaluator *> > >::_Compat

; 203  : 		return (this->_Ptr == _Right._Ptr);

	mov	ecx, DWORD PTR _this$[ebp]
	mov	edx, DWORD PTR __Right$[ebp]
	mov	eax, DWORD PTR [ecx+8]
	xor	ecx, ecx
	cmp	eax, DWORD PTR [edx+8]
	sete	cl
	mov	al, cl

; 204  : 		}

	add	esp, 4
	cmp	ebp, esp
	call	__RTC_CheckEsp
	mov	esp, ebp
	pop	ebp
	ret	4
??8?$_Vector_const_iterator@V?$_Vector_val@PAVGoal_Evaluator@@V?$allocator@PAVGoal_Evaluator@@@std@@@std@@@std@@QBE_NABV01@@Z ENDP ; std::_Vector_const_iterator<std::_Vector_val<Goal_Evaluator *,std::allocator<Goal_Evaluator *> > >::operator==
_TEXT	ENDS
PUBLIC	??_C@_1CG@JNLFBNGN@?$AA?$CC?$AAi?$AAn?$AAv?$AAa?$AAl?$AAi?$AAd?$AA?5?$AAa?$AAr?$AAg?$AAu?$AAm?$AAe?$AAn?$AAt?$AA?$CC?$AA?$AA@ ; `string'
PUBLIC	??_C@_1BAI@LFBBPCGH@?$AAs?$AAt?$AAd?$AA?3?$AA?3?$AA_?$AAV?$AAe?$AAc?$AAt?$AAo?$AAr?$AA_?$AAc?$AAo?$AAn?$AAs?$AAt?$AA_?$AAi?$AAt?$AAe?$AAr?$AAa?$AAt?$AAo?$AAr?$AA?$DM?$AAc?$AAl?$AAa?$AAs@ ; `string'
PUBLIC	??_C@_1FO@GJIHNDLM@?$AA?$CC?$AAS?$AAt?$AAa?$AAn?$AAd?$AAa?$AAr?$AAd?$AA?5?$AAC?$AA?$CL?$AA?$CL?$AA?5?$AAL?$AAi?$AAb?$AAr?$AAa?$AAr?$AAi?$AAe?$AAs?$AA?5?$AAI?$AAn?$AAv?$AAa?$AAl?$AAi?$AAd?$AA?5@ ; `string'
PUBLIC	??_C@_0CI@FNPHFCCM@Standard?5C?$CL?$CL?5Libraries?5Invalid?5A@ ; `string'
PUBLIC	??_C@_1DM@HINDPMBP@?$AAv?$AAe?$AAc?$AAt?$AAo?$AAr?$AA?5?$AAi?$AAt?$AAe?$AAr?$AAa?$AAt?$AAo?$AAr?$AAs?$AA?5?$AAi?$AAn?$AAc?$AAo?$AAm?$AAp?$AAa?$AAt?$AAi?$AAb?$AAl?$AAe?$AA?$AA@ ; `string'
EXTRN	__invalid_parameter:PROC
EXTRN	__CrtDbgReportW:PROC
;	COMDAT ??_C@_1CG@JNLFBNGN@?$AA?$CC?$AAi?$AAn?$AAv?$AAa?$AAl?$AAi?$AAd?$AA?5?$AAa?$AAr?$AAg?$AAu?$AAm?$AAe?$AAn?$AAt?$AA?$CC?$AA?$AA@
CONST	SEGMENT
??_C@_1CG@JNLFBNGN@?$AA?$CC?$AAi?$AAn?$AAv?$AAa?$AAl?$AAi?$AAd?$AA?5?$AAa?$AAr?$AAg?$AAu?$AAm?$AAe?$AAn?$AAt?$AA?$CC?$AA?$AA@ DB '"'
	DB	00H, 'i', 00H, 'n', 00H, 'v', 00H, 'a', 00H, 'l', 00H, 'i', 00H
	DB	'd', 00H, ' ', 00H, 'a', 00H, 'r', 00H, 'g', 00H, 'u', 00H, 'm'
	DB	00H, 'e', 00H, 'n', 00H, 't', 00H, '"', 00H, 00H, 00H ; `string'
CONST	ENDS
;	COMDAT ??_C@_1BAI@LFBBPCGH@?$AAs?$AAt?$AAd?$AA?3?$AA?3?$AA_?$AAV?$AAe?$AAc?$AAt?$AAo?$AAr?$AA_?$AAc?$AAo?$AAn?$AAs?$AAt?$AA_?$AAi?$AAt?$AAe?$AAr?$AAa?$AAt?$AAo?$AAr?$AA?$DM?$AAc?$AAl?$AAa?$AAs@
CONST	SEGMENT
??_C@_1BAI@LFBBPCGH@?$AAs?$AAt?$AAd?$AA?3?$AA?3?$AA_?$AAV?$AAe?$AAc?$AAt?$AAo?$AAr?$AA_?$AAc?$AAo?$AAn?$AAs?$AAt?$AA_?$AAi?$AAt?$AAe?$AAr?$AAa?$AAt?$AAo?$AAr?$AA?$DM?$AAc?$AAl?$AAa?$AAs@ DB 's'
	DB	00H, 't', 00H, 'd', 00H, ':', 00H, ':', 00H, '_', 00H, 'V', 00H
	DB	'e', 00H, 'c', 00H, 't', 00H, 'o', 00H, 'r', 00H, '_', 00H, 'c'
	DB	00H, 'o', 00H, 'n', 00H, 's', 00H, 't', 00H, '_', 00H, 'i', 00H
	DB	't', 00H, 'e', 00H, 'r', 00H, 'a', 00H, 't', 00H, 'o', 00H, 'r'
	DB	00H, '<', 00H, 'c', 00H, 'l', 00H, 'a', 00H, 's', 00H, 's', 00H
	DB	' ', 00H, 's', 00H, 't', 00H, 'd', 00H, ':', 00H, ':', 00H, '_'
	DB	00H, 'V', 00H, 'e', 00H, 'c', 00H, 't', 00H, 'o', 00H, 'r', 00H
	DB	'_', 00H, 'v', 00H, 'a', 00H, 'l', 00H, '<', 00H, 'c', 00H, 'l'
	DB	00H, 'a', 00H, 's', 00H, 's', 00H, ' ', 00H, 'G', 00H, 'o', 00H
	DB	'a', 00H, 'l', 00H, '_', 00H, 'E', 00H, 'v', 00H, 'a', 00H, 'l'
	DB	00H, 'u', 00H, 'a', 00H, 't', 00H, 'o', 00H, 'r', 00H, ' ', 00H
	DB	'*', 00H, ',', 00H, 'c', 00H, 'l', 00H, 'a', 00H, 's', 00H, 's'
	DB	00H, ' ', 00H, 's', 00H, 't', 00H, 'd', 00H, ':', 00H, ':', 00H
	DB	'a', 00H, 'l', 00H, 'l', 00H, 'o', 00H, 'c', 00H, 'a', 00H, 't'
	DB	00H, 'o', 00H, 'r', 00H, '<', 00H, 'c', 00H, 'l', 00H, 'a', 00H
	DB	's', 00H, 's', 00H, ' ', 00H, 'G', 00H, 'o', 00H, 'a', 00H, 'l'
	DB	00H, '_', 00H, 'E', 00H, 'v', 00H, 'a', 00H, 'l', 00H, 'u', 00H
	DB	'a', 00H, 't', 00H, 'o', 00H, 'r', 00H, ' ', 00H, '*', 00H, '>'
	DB	00H, ' ', 00H, '>', 00H, ' ', 00H, '>', 00H, ':', 00H, ':', 00H
	DB	'_', 00H, 'C', 00H, 'o', 00H, 'm', 00H, 'p', 00H, 'a', 00H, 't'
	DB	00H, 00H, 00H				; `string'
CONST	ENDS
;	COMDAT ??_C@_1FO@GJIHNDLM@?$AA?$CC?$AAS?$AAt?$AAa?$AAn?$AAd?$AAa?$AAr?$AAd?$AA?5?$AAC?$AA?$CL?$AA?$CL?$AA?5?$AAL?$AAi?$AAb?$AAr?$AAa?$AAr?$AAi?$AAe?$AAs?$AA?5?$AAI?$AAn?$AAv?$AAa?$AAl?$AAi?$AAd?$AA?5@
CONST	SEGMENT
??_C@_1FO@GJIHNDLM@?$AA?$CC?$AAS?$AAt?$AAa?$AAn?$AAd?$AAa?$AAr?$AAd?$AA?5?$AAC?$AA?$CL?$AA?$CL?$AA?5?$AAL?$AAi?$AAb?$AAr?$AAa?$AAr?$AAi?$AAe?$AAs?$AA?5?$AAI?$AAn?$AAv?$AAa?$AAl?$AAi?$AAd?$AA?5@ DB '"'
	DB	00H, 'S', 00H, 't', 00H, 'a', 00H, 'n', 00H, 'd', 00H, 'a', 00H
	DB	'r', 00H, 'd', 00H, ' ', 00H, 'C', 00H, '+', 00H, '+', 00H, ' '
	DB	00H, 'L', 00H, 'i', 00H, 'b', 00H, 'r', 00H, 'a', 00H, 'r', 00H
	DB	'i', 00H, 'e', 00H, 's', 00H, ' ', 00H, 'I', 00H, 'n', 00H, 'v'
	DB	00H, 'a', 00H, 'l', 00H, 'i', 00H, 'd', 00H, ' ', 00H, 'A', 00H
	DB	'r', 00H, 'g', 00H, 'u', 00H, 'm', 00H, 'e', 00H, 'n', 00H, 't'
	DB	00H, '"', 00H, ' ', 00H, '&', 00H, '&', 00H, ' ', 00H, '0', 00H
	DB	00H, 00H					; `string'
CONST	ENDS
;	COMDAT ??_C@_0CI@FNPHFCCM@Standard?5C?$CL?$CL?5Libraries?5Invalid?5A@
CONST	SEGMENT
??_C@_0CI@FNPHFCCM@Standard?5C?$CL?$CL?5Libraries?5Invalid?5A@ DB 'Standa'
	DB	'rd C++ Libraries Invalid Argument', 00H	; `string'
CONST	ENDS
;	COMDAT ??_C@_1DM@HINDPMBP@?$AAv?$AAe?$AAc?$AAt?$AAo?$AAr?$AA?5?$AAi?$AAt?$AAe?$AAr?$AAa?$AAt?$AAo?$AAr?$AAs?$AA?5?$AAi?$AAn?$AAc?$AAo?$AAm?$AAp?$AAa?$AAt?$AAi?$AAb?$AAl?$AAe?$AA?$AA@
CONST	SEGMENT
??_C@_1DM@HINDPMBP@?$AAv?$AAe?$AAc?$AAt?$AAo?$AAr?$AA?5?$AAi?$AAt?$AAe?$AAr?$AAa?$AAt?$AAo?$AAr?$AAs?$AA?5?$AAi?$AAn?$AAc?$AAo?$AAm?$AAp?$AAa?$AAt?$AAi?$AAb?$AAl?$AAe?$AA?$AA@ DB 'v'
	DB	00H, 'e', 00H, 'c', 00H, 't', 00H, 'o', 00H, 'r', 00H, ' ', 00H
	DB	'i', 00H, 't', 00H, 'e', 00H, 'r', 00H, 'a', 00H, 't', 00H, 'o'
	DB	00H, 'r', 00H, 's', 00H, ' ', 00H, 'i', 00H, 'n', 00H, 'c', 00H
	DB	'o', 00H, 'm', 00H, 'p', 00H, 'a', 00H, 't', 00H, 'i', 00H, 'b'
	DB	00H, 'l', 00H, 'e', 00H, 00H, 00H		; `string'
; Function compile flags: /Odtp /RTCsu
CONST	ENDS
;	COMDAT ?_Compat@?$_Vector_const_iterator@V?$_Vector_val@PAVGoal_Evaluator@@V?$allocator@PAVGoal_Evaluator@@@std@@@std@@@std@@QBEXABV12@@Z
_TEXT	SEGMENT
_this$ = -4						; size = 4
__Right$ = 8						; size = 4
?_Compat@?$_Vector_const_iterator@V?$_Vector_val@PAVGoal_Evaluator@@V?$allocator@PAVGoal_Evaluator@@@std@@@std@@@std@@QBEXABV12@@Z PROC ; std::_Vector_const_iterator<std::_Vector_val<Goal_Evaluator *,std::allocator<Goal_Evaluator *> > >::_Compat, COMDAT
; _this$ = ecx

; 234  : 		{	// test for compatible iterator pair

	push	ebp
	mov	ebp, esp
	push	ecx
	push	esi
	mov	DWORD PTR [ebp-4], -858993460		; ccccccccH
	mov	DWORD PTR _this$[ebp], ecx

; 235  : 		if (this->_Getcont() == 0
; 236  : 			|| this->_Getcont() != _Right._Getcont())

	mov	ecx, DWORD PTR _this$[ebp]
	call	?_Getcont@_Iterator_base12@std@@QBEPBU_Container_base12@2@XZ ; std::_Iterator_base12::_Getcont
	test	eax, eax
	je	SHORT $LN1@Compat
	mov	ecx, DWORD PTR _this$[ebp]
	call	?_Getcont@_Iterator_base12@std@@QBEPBU_Container_base12@2@XZ ; std::_Iterator_base12::_Getcont
	mov	esi, eax
	mov	ecx, DWORD PTR __Right$[ebp]
	call	?_Getcont@_Iterator_base12@std@@QBEPBU_Container_base12@2@XZ ; std::_Iterator_base12::_Getcont
	cmp	esi, eax
	je	SHORT $LN3@Compat
$LN1@Compat:

; 237  : 			{	// report error
; 238  : 			_DEBUG_ERROR("vector iterators incompatible");

	push	238					; 000000eeH
	push	OFFSET ??_C@_1IM@MKOOKKBK@?$AAc?$AA?3?$AA?2?$AAP?$AAr?$AAo?$AAg?$AAr?$AAa?$AAm?$AA?5?$AAF?$AAi?$AAl?$AAe?$AAs?$AA?5?$AA?$CI?$AAx?$AA8?$AA6?$AA?$CJ?$AA?2?$AAM?$AAi?$AAc?$AAr?$AAo?$AAs?$AAo?$AAf?$AAt@
	push	OFFSET ??_C@_1DM@HINDPMBP@?$AAv?$AAe?$AAc?$AAt?$AAo?$AAr?$AA?5?$AAi?$AAt?$AAe?$AAr?$AAa?$AAt?$AAo?$AAr?$AAs?$AA?5?$AAi?$AAn?$AAc?$AAo?$AAm?$AAp?$AAa?$AAt?$AAi?$AAb?$AAl?$AAe?$AA?$AA@
	call	?_Debug_message@std@@YAXPB_W0I@Z	; std::_Debug_message
	add	esp, 12					; 0000000cH

; 239  : 			_SCL_SECURE_INVALID_ARGUMENT;

	mov	eax, OFFSET ??_C@_0CI@FNPHFCCM@Standard?5C?$CL?$CL?5Libraries?5Invalid?5A@
	test	eax, eax
	je	SHORT $LN5@Compat
	xor	ecx, ecx
	jne	SHORT $LN6@Compat
$LN5@Compat:
	push	OFFSET ??_C@_1FO@GJIHNDLM@?$AA?$CC?$AAS?$AAt?$AAa?$AAn?$AAd?$AAa?$AAr?$AAd?$AA?5?$AAC?$AA?$CL?$AA?$CL?$AA?5?$AAL?$AAi?$AAb?$AAr?$AAa?$AAr?$AAi?$AAe?$AAs?$AA?5?$AAI?$AAn?$AAv?$AAa?$AAl?$AAi?$AAd?$AA?5@
	push	0
	push	239					; 000000efH
	push	OFFSET ??_C@_1IM@MKOOKKBK@?$AAc?$AA?3?$AA?2?$AAP?$AAr?$AAo?$AAg?$AAr?$AAa?$AAm?$AA?5?$AAF?$AAi?$AAl?$AAe?$AAs?$AA?5?$AA?$CI?$AAx?$AA8?$AA6?$AA?$CJ?$AA?2?$AAM?$AAi?$AAc?$AAr?$AAo?$AAs?$AAo?$AAf?$AAt@
	push	2
	call	__CrtDbgReportW
	add	esp, 20					; 00000014H
	cmp	eax, 1
	jne	SHORT $LN6@Compat
	int	3
$LN6@Compat:
	push	0
	push	239					; 000000efH
	push	OFFSET ??_C@_1IM@MKOOKKBK@?$AAc?$AA?3?$AA?2?$AAP?$AAr?$AAo?$AAg?$AAr?$AAa?$AAm?$AA?5?$AAF?$AAi?$AAl?$AAe?$AAs?$AA?5?$AA?$CI?$AAx?$AA8?$AA6?$AA?$CJ?$AA?2?$AAM?$AAi?$AAc?$AAr?$AAo?$AAs?$AAo?$AAf?$AAt@
	push	OFFSET ??_C@_1BAI@LFBBPCGH@?$AAs?$AAt?$AAd?$AA?3?$AA?3?$AA_?$AAV?$AAe?$AAc?$AAt?$AAo?$AAr?$AA_?$AAc?$AAo?$AAn?$AAs?$AAt?$AA_?$AAi?$AAt?$AAe?$AAr?$AAa?$AAt?$AAo?$AAr?$AA?$DM?$AAc?$AAl?$AAa?$AAs@
	push	OFFSET ??_C@_1CG@JNLFBNGN@?$AA?$CC?$AAi?$AAn?$AAv?$AAa?$AAl?$AAi?$AAd?$AA?5?$AAa?$AAr?$AAg?$AAu?$AAm?$AAe?$AAn?$AAt?$AA?$CC?$AA?$AA@
	call	__invalid_parameter
	add	esp, 20					; 00000014H
$LN3@Compat:

; 240  : 			}
; 241  : 		}

	pop	esi
	add	esp, 4
	cmp	ebp, esp
	call	__RTC_CheckEsp
	mov	esp, ebp
	pop	ebp
	ret	4
?_Compat@?$_Vector_const_iterator@V?$_Vector_val@PAVGoal_Evaluator@@V?$allocator@PAVGoal_Evaluator@@@std@@@std@@@std@@QBEXABV12@@Z ENDP ; std::_Vector_const_iterator<std::_Vector_val<Goal_Evaluator *,std::allocator<Goal_Evaluator *> > >::_Compat
_TEXT	ENDS
PUBLIC	??0_Iterator_base12@std@@QAE@XZ			; std::_Iterator_base12::_Iterator_base12
; Function compile flags: /Odtp /RTCsu
;	COMDAT ??0?$_Iterator012@Urandom_access_iterator_tag@std@@PAVGoal_Evaluator@@HPBQAV3@ABQAV3@U_Iterator_base12@2@@std@@QAE@XZ
_TEXT	SEGMENT
_this$ = -4						; size = 4
??0?$_Iterator012@Urandom_access_iterator_tag@std@@PAVGoal_Evaluator@@HPBQAV3@ABQAV3@U_Iterator_base12@2@@std@@QAE@XZ PROC ; std::_Iterator012<std::random_access_iterator_tag,Goal_Evaluator *,int,Goal_Evaluator * const *,Goal_Evaluator * const &,std::_Iterator_base12>::_Iterator012<std::random_access_iterator_tag,Goal_Evaluator *,int,Goal_Evaluator * const *,Goal_Evaluator * const &,std::_Iterator_base12>, COMDAT
; _this$ = ecx
	push	ebp
	mov	ebp, esp
	push	ecx
	mov	DWORD PTR [ebp-4], -858993460		; ccccccccH
	mov	DWORD PTR _this$[ebp], ecx
	mov	ecx, DWORD PTR _this$[ebp]
	call	??0_Iterator_base12@std@@QAE@XZ		; std::_Iterator_base12::_Iterator_base12
	mov	eax, DWORD PTR _this$[ebp]
	add	esp, 4
	cmp	ebp, esp
	call	__RTC_CheckEsp
	mov	esp, ebp
	pop	ebp
	ret	0
??0?$_Iterator012@Urandom_access_iterator_tag@std@@PAVGoal_Evaluator@@HPBQAV3@ABQAV3@U_Iterator_base12@2@@std@@QAE@XZ ENDP ; std::_Iterator012<std::random_access_iterator_tag,Goal_Evaluator *,int,Goal_Evaluator * const *,Goal_Evaluator * const &,std::_Iterator_base12>::_Iterator012<std::random_access_iterator_tag,Goal_Evaluator *,int,Goal_Evaluator * const *,Goal_Evaluator * const &,std::_Iterator_base12>
; Function compile flags: /Odtp /RTCsu
; File c:\program files (x86)\microsoft visual studio 10.0\vc\include\xutility
_TEXT	ENDS
;	COMDAT ??0_Iterator_base12@std@@QAE@XZ
_TEXT	SEGMENT
_this$ = -4						; size = 4
??0_Iterator_base12@std@@QAE@XZ PROC			; std::_Iterator_base12::_Iterator_base12, COMDAT
; _this$ = ecx

; 111  : 		{	// construct orphaned iterator

	push	ebp
	mov	ebp, esp
	push	ecx
	mov	DWORD PTR [ebp-4], -858993460		; ccccccccH
	mov	DWORD PTR _this$[ebp], ecx
	mov	eax, DWORD PTR _this$[ebp]
	mov	DWORD PTR [eax], 0
	mov	ecx, DWORD PTR _this$[ebp]
	mov	DWORD PTR [ecx+4], 0

; 112  : 		}

	mov	eax, DWORD PTR _this$[ebp]
	mov	esp, ebp
	pop	ebp
	ret	0
??0_Iterator_base12@std@@QAE@XZ ENDP			; std::_Iterator_base12::_Iterator_base12
_TEXT	ENDS
PUBLIC	?front@?$list@PAV?$Goal@VAbstRaven_Bot@@@@V?$allocator@PAV?$Goal@VAbstRaven_Bot@@@@@std@@@std@@QAEAAPAV?$Goal@VAbstRaven_Bot@@@@XZ ; std::list<Goal<AbstRaven_Bot> *,std::allocator<Goal<AbstRaven_Bot> *> >::front
PUBLIC	?empty@?$list@PAV?$Goal@VAbstRaven_Bot@@@@V?$allocator@PAV?$Goal@VAbstRaven_Bot@@@@@std@@@std@@QBE_NXZ ; std::list<Goal<AbstRaven_Bot> *,std::allocator<Goal<AbstRaven_Bot> *> >::empty
; Function compile flags: /Odtp /RTCsu
; File c:\users\teaja\documents\artificial-fun\labravenprojecttest\common\goals\goal_composite.h
;	COMDAT ?ForwardMessageToFrontMostSubgoal@?$Goal_Composite@VAbstRaven_Bot@@@@IAE_NABUTelegram@@@Z
_TEXT	SEGMENT
tv74 = -8						; size = 4
_this$ = -4						; size = 4
_msg$ = 8						; size = 4
?ForwardMessageToFrontMostSubgoal@?$Goal_Composite@VAbstRaven_Bot@@@@IAE_NABUTelegram@@@Z PROC ; Goal_Composite<AbstRaven_Bot>::ForwardMessageToFrontMostSubgoal, COMDAT
; _this$ = ecx

; 151  : {

	push	ebp
	mov	ebp, esp
	sub	esp, 8
	push	esi
	mov	DWORD PTR [ebp-8], -858993460		; ccccccccH
	mov	DWORD PTR [ebp-4], -858993460		; ccccccccH
	mov	DWORD PTR _this$[ebp], ecx

; 152  :   if (!m_SubGoals.empty())

	mov	ecx, DWORD PTR _this$[ebp]
	add	ecx, 16					; 00000010H
	call	?empty@?$list@PAV?$Goal@VAbstRaven_Bot@@@@V?$allocator@PAV?$Goal@VAbstRaven_Bot@@@@@std@@@std@@QBE_NXZ ; std::list<Goal<AbstRaven_Bot> *,std::allocator<Goal<AbstRaven_Bot> *> >::empty
	movzx	eax, al
	test	eax, eax
	jne	SHORT $LN1@ForwardMes

; 153  :   {
; 154  :     return m_SubGoals.front()->HandleMessage(msg);

	mov	ecx, DWORD PTR _this$[ebp]
	add	ecx, 16					; 00000010H
	call	?front@?$list@PAV?$Goal@VAbstRaven_Bot@@@@V?$allocator@PAV?$Goal@VAbstRaven_Bot@@@@@std@@@std@@QAEAAPAV?$Goal@VAbstRaven_Bot@@@@XZ ; std::list<Goal<AbstRaven_Bot> *,std::allocator<Goal<AbstRaven_Bot> *> >::front
	mov	ecx, DWORD PTR [eax]
	mov	DWORD PTR tv74[ebp], ecx
	mov	esi, esp
	mov	edx, DWORD PTR _msg$[ebp]
	push	edx
	mov	eax, DWORD PTR tv74[ebp]
	mov	edx, DWORD PTR [eax]
	mov	ecx, DWORD PTR tv74[ebp]
	mov	eax, DWORD PTR [edx+16]
	call	eax
	cmp	esi, esp
	call	__RTC_CheckEsp
	jmp	SHORT $LN2@ForwardMes
$LN1@ForwardMes:

; 155  :   }
; 156  : 
; 157  :   //return false if the message has not been handled
; 158  :   return false;

	xor	al, al
$LN2@ForwardMes:

; 159  : }

	pop	esi
	add	esp, 8
	cmp	ebp, esp
	call	__RTC_CheckEsp
	mov	esp, ebp
	pop	ebp
	ret	4
?ForwardMessageToFrontMostSubgoal@?$Goal_Composite@VAbstRaven_Bot@@@@IAE_NABUTelegram@@@Z ENDP ; Goal_Composite<AbstRaven_Bot>::ForwardMessageToFrontMostSubgoal
_TEXT	ENDS
PUBLIC	?push_front@?$list@PAV?$Goal@VAbstRaven_Bot@@@@V?$allocator@PAV?$Goal@VAbstRaven_Bot@@@@@std@@@std@@QAEXABQAV?$Goal@VAbstRaven_Bot@@@@@Z ; std::list<Goal<AbstRaven_Bot> *,std::allocator<Goal<AbstRaven_Bot> *> >::push_front
; Function compile flags: /Odtp /RTCsu
;	COMDAT ?AddSubgoal@?$Goal_Composite@VAbstRaven_Bot@@@@UAEXPAV?$Goal@VAbstRaven_Bot@@@@@Z
_TEXT	SEGMENT
_this$ = -4						; size = 4
_g$ = 8							; size = 4
?AddSubgoal@?$Goal_Composite@VAbstRaven_Bot@@@@UAEXPAV?$Goal@VAbstRaven_Bot@@@@@Z PROC ; Goal_Composite<AbstRaven_Bot>::AddSubgoal, COMDAT
; _this$ = ecx

; 138  : {   

	push	ebp
	mov	ebp, esp
	push	ecx
	mov	DWORD PTR [ebp-4], -858993460		; ccccccccH
	mov	DWORD PTR _this$[ebp], ecx

; 139  :   //add the new goal to the front of the list
; 140  :   m_SubGoals.push_front(g);

	lea	eax, DWORD PTR _g$[ebp]
	push	eax
	mov	ecx, DWORD PTR _this$[ebp]
	add	ecx, 16					; 00000010H
	call	?push_front@?$list@PAV?$Goal@VAbstRaven_Bot@@@@V?$allocator@PAV?$Goal@VAbstRaven_Bot@@@@@std@@@std@@QAEXABQAV?$Goal@VAbstRaven_Bot@@@@@Z ; std::list<Goal<AbstRaven_Bot> *,std::allocator<Goal<AbstRaven_Bot> *> >::push_front

; 141  : }

	add	esp, 4
	cmp	ebp, esp
	call	__RTC_CheckEsp
	mov	esp, ebp
	pop	ebp
	ret	4
?AddSubgoal@?$Goal_Composite@VAbstRaven_Bot@@@@UAEXPAV?$Goal@VAbstRaven_Bot@@@@@Z ENDP ; Goal_Composite<AbstRaven_Bot>::AddSubgoal
_TEXT	ENDS
PUBLIC	??D?$_Revranit@V?$_List_const_iterator@V?$_List_val@PAV?$Goal@VAbstRaven_Bot@@@@V?$allocator@PAV?$Goal@VAbstRaven_Bot@@@@@std@@@std@@@std@@U?$iterator@Ubidirectional_iterator_tag@std@@PAV?$Goal@VAbstRaven_Bot@@@@HPBQAV3@ABQAV3@@2@@std@@QBEABQAV?$Goal@VAbstRaven_Bot@@@@XZ ; std::_Revranit<std::_List_const_iterator<std::_List_val<Goal<AbstRaven_Bot> *,std::allocator<Goal<AbstRaven_Bot> *> > >,std::iterator<std::bidirectional_iterator_tag,Goal<AbstRaven_Bot> *,int,Goal<AbstRaven_Bot> * const *,Goal<AbstRaven_Bot> * const &> >::operator*
PUBLIC	??$?9V?$_List_const_iterator@V?$_List_val@PAV?$Goal@VAbstRaven_Bot@@@@V?$allocator@PAV?$Goal@VAbstRaven_Bot@@@@@std@@@std@@@std@@V01@@std@@YA_NABV?$reverse_iterator@V?$_List_const_iterator@V?$_List_val@PAV?$Goal@VAbstRaven_Bot@@@@V?$allocator@PAV?$Goal@VAbstRaven_Bot@@@@@std@@@std@@@std@@@0@0@Z ; std::operator!=<std::_List_const_iterator<std::_List_val<Goal<AbstRaven_Bot> *,std::allocator<Goal<AbstRaven_Bot> *> > >,std::_List_const_iterator<std::_List_val<Goal<AbstRaven_Bot> *,std::allocator<Goal<AbstRaven_Bot> *> > > >
PUBLIC	?rend@?$list@PAV?$Goal@VAbstRaven_Bot@@@@V?$allocator@PAV?$Goal@VAbstRaven_Bot@@@@@std@@@std@@QBE?AV?$reverse_iterator@V?$_List_const_iterator@V?$_List_val@PAV?$Goal@VAbstRaven_Bot@@@@V?$allocator@PAV?$Goal@VAbstRaven_Bot@@@@@std@@@std@@@std@@@2@XZ ; std::list<Goal<AbstRaven_Bot> *,std::allocator<Goal<AbstRaven_Bot> *> >::rend
PUBLIC	??E?$reverse_iterator@V?$_List_const_iterator@V?$_List_val@PAV?$Goal@VAbstRaven_Bot@@@@V?$allocator@PAV?$Goal@VAbstRaven_Bot@@@@@std@@@std@@@std@@@std@@QAEAAV01@XZ ; std::reverse_iterator<std::_List_const_iterator<std::_List_val<Goal<AbstRaven_Bot> *,std::allocator<Goal<AbstRaven_Bot> *> > > >::operator++
PUBLIC	??1?$reverse_iterator@V?$_List_const_iterator@V?$_List_val@PAV?$Goal@VAbstRaven_Bot@@@@V?$allocator@PAV?$Goal@VAbstRaven_Bot@@@@@std@@@std@@@std@@@std@@QAE@XZ ; std::reverse_iterator<std::_List_const_iterator<std::_List_val<Goal<AbstRaven_Bot> *,std::allocator<Goal<AbstRaven_Bot> *> > > >::~reverse_iterator<std::_List_const_iterator<std::_List_val<Goal<AbstRaven_Bot> *,std::allocator<Goal<AbstRaven_Bot> *> > > >
PUBLIC	??4?$reverse_iterator@V?$_List_const_iterator@V?$_List_val@PAV?$Goal@VAbstRaven_Bot@@@@V?$allocator@PAV?$Goal@VAbstRaven_Bot@@@@@std@@@std@@@std@@@std@@QAEAAV01@ABV01@@Z ; std::reverse_iterator<std::_List_const_iterator<std::_List_val<Goal<AbstRaven_Bot> *,std::allocator<Goal<AbstRaven_Bot> *> > > >::operator=
PUBLIC	?rbegin@?$list@PAV?$Goal@VAbstRaven_Bot@@@@V?$allocator@PAV?$Goal@VAbstRaven_Bot@@@@@std@@@std@@QBE?AV?$reverse_iterator@V?$_List_const_iterator@V?$_List_val@PAV?$Goal@VAbstRaven_Bot@@@@V?$allocator@PAV?$Goal@VAbstRaven_Bot@@@@@std@@@std@@@std@@@2@XZ ; std::list<Goal<AbstRaven_Bot> *,std::allocator<Goal<AbstRaven_Bot> *> >::rbegin
PUBLIC	??0?$reverse_iterator@V?$_List_const_iterator@V?$_List_val@PAV?$Goal@VAbstRaven_Bot@@@@V?$allocator@PAV?$Goal@VAbstRaven_Bot@@@@@std@@@std@@@std@@@std@@QAE@XZ ; std::reverse_iterator<std::_List_const_iterator<std::_List_val<Goal<AbstRaven_Bot> *,std::allocator<Goal<AbstRaven_Bot> *> > > >::reverse_iterator<std::_List_const_iterator<std::_List_val<Goal<AbstRaven_Bot> *,std::allocator<Goal<AbstRaven_Bot> *> > > >
PUBLIC	?TransparentText@Cgdi@@QAEXXZ			; Cgdi::TransparentText
PUBLIC	__real@4024000000000000
PUBLIC	?RenderAtPos@?$Goal@VAbstRaven_Bot@@@@UBEXAAUVector2D@@PAVTypeToString@@@Z ; Goal<AbstRaven_Bot>::RenderAtPos
EXTRN	?Instance@Cgdi@@SAPAV1@XZ:PROC			; Cgdi::Instance
;	COMDAT __real@4024000000000000
CONST	SEGMENT
__real@4024000000000000 DQ 04024000000000000r	; 10
CONST	ENDS
;	COMDAT xdata$x
xdata$x	SEGMENT
__unwindtable$?RenderAtPos@?$Goal_Composite@VAbstRaven_Bot@@@@UBEXAAUVector2D@@PAVTypeToString@@@Z DD 0ffffffffH
	DD	FLAT:__unwindfunclet$?RenderAtPos@?$Goal_Composite@VAbstRaven_Bot@@@@UBEXAAUVector2D@@PAVTypeToString@@@Z$0
	DD	00H
	DD	FLAT:__unwindfunclet$?RenderAtPos@?$Goal_Composite@VAbstRaven_Bot@@@@UBEXAAUVector2D@@PAVTypeToString@@@Z$1
	DD	00H
	DD	FLAT:__unwindfunclet$?RenderAtPos@?$Goal_Composite@VAbstRaven_Bot@@@@UBEXAAUVector2D@@PAVTypeToString@@@Z$2
__ehfuncinfo$?RenderAtPos@?$Goal_Composite@VAbstRaven_Bot@@@@UBEXAAUVector2D@@PAVTypeToString@@@Z DD 019930522H
	DD	03H
	DD	FLAT:__unwindtable$?RenderAtPos@?$Goal_Composite@VAbstRaven_Bot@@@@UBEXAAUVector2D@@PAVTypeToString@@@Z
	DD	2 DUP(00H)
	DD	2 DUP(00H)
	DD	00H
	DD	01H
; Function compile flags: /Odtp /RTCsu
xdata$x	ENDS
;	COMDAT ?RenderAtPos@?$Goal_Composite@VAbstRaven_Bot@@@@UBEXAAUVector2D@@PAVTypeToString@@@Z
_TEXT	SEGMENT
tv137 = -84						; size = 4
tv147 = -80						; size = 4
tv148 = -76						; size = 4
tv145 = -72						; size = 4
tv75 = -68						; size = 4
$T141967 = -64						; size = 12
$T141966 = -49						; size = 1
$T141965 = -48						; size = 12
_it$ = -32						; size = 12
_this$ = -16						; size = 4
__$EHRec$ = -12						; size = 12
_pos$ = 8						; size = 4
_tts$ = 12						; size = 4
?RenderAtPos@?$Goal_Composite@VAbstRaven_Bot@@@@UBEXAAUVector2D@@PAVTypeToString@@@Z PROC ; Goal_Composite<AbstRaven_Bot>::RenderAtPos, COMDAT
; _this$ = ecx

; 165  : {

	push	ebp
	mov	ebp, esp
	push	-1
	push	__ehhandler$?RenderAtPos@?$Goal_Composite@VAbstRaven_Bot@@@@UBEXAAUVector2D@@PAVTypeToString@@@Z
	mov	eax, DWORD PTR fs:0
	push	eax
	sub	esp, 72					; 00000048H
	push	esi
	push	edi
	push	ecx
	lea	edi, DWORD PTR [ebp-84]
	mov	ecx, 18					; 00000012H
	mov	eax, -858993460				; ccccccccH
	rep stosd
	pop	ecx
	mov	eax, DWORD PTR ___security_cookie
	xor	eax, ebp
	push	eax
	lea	eax, DWORD PTR __$EHRec$[ebp]
	mov	DWORD PTR fs:0, eax
	mov	DWORD PTR _this$[ebp], ecx

; 166  :   Goal<entity_type>::RenderAtPos(pos, tts);

	mov	eax, DWORD PTR _tts$[ebp]
	push	eax
	mov	ecx, DWORD PTR _pos$[ebp]
	push	ecx
	mov	ecx, DWORD PTR _this$[ebp]
	call	?RenderAtPos@?$Goal@VAbstRaven_Bot@@@@UBEXAAUVector2D@@PAVTypeToString@@@Z ; Goal<AbstRaven_Bot>::RenderAtPos

; 167  : 
; 168  :   pos.x += 10;

	mov	edx, DWORD PTR _pos$[ebp]
	fld	QWORD PTR [edx]
	fadd	QWORD PTR __real@4024000000000000
	mov	eax, DWORD PTR _pos$[ebp]
	fstp	QWORD PTR [eax]

; 169  : 
; 170  :   gdi->TransparentText();

	call	?Instance@Cgdi@@SAPAV1@XZ		; Cgdi::Instance
	mov	ecx, eax
	call	?TransparentText@Cgdi@@QAEXXZ		; Cgdi::TransparentText

; 171  :   SubgoalList::const_reverse_iterator it;

	lea	ecx, DWORD PTR _it$[ebp]
	call	??0?$reverse_iterator@V?$_List_const_iterator@V?$_List_val@PAV?$Goal@VAbstRaven_Bot@@@@V?$allocator@PAV?$Goal@VAbstRaven_Bot@@@@@std@@@std@@@std@@@std@@QAE@XZ ; std::reverse_iterator<std::_List_const_iterator<std::_List_val<Goal<AbstRaven_Bot> *,std::allocator<Goal<AbstRaven_Bot> *> > > >::reverse_iterator<std::_List_const_iterator<std::_List_val<Goal<AbstRaven_Bot> *,std::allocator<Goal<AbstRaven_Bot> *> > > >
	mov	DWORD PTR __$EHRec$[ebp+8], 0

; 172  :   for (it=m_SubGoals.rbegin(); it != m_SubGoals.rend(); ++it)

	lea	ecx, DWORD PTR $T141965[ebp]
	push	ecx
	mov	ecx, DWORD PTR _this$[ebp]
	add	ecx, 16					; 00000010H
	call	?rbegin@?$list@PAV?$Goal@VAbstRaven_Bot@@@@V?$allocator@PAV?$Goal@VAbstRaven_Bot@@@@@std@@@std@@QBE?AV?$reverse_iterator@V?$_List_const_iterator@V?$_List_val@PAV?$Goal@VAbstRaven_Bot@@@@V?$allocator@PAV?$Goal@VAbstRaven_Bot@@@@@std@@@std@@@std@@@2@XZ ; std::list<Goal<AbstRaven_Bot> *,std::allocator<Goal<AbstRaven_Bot> *> >::rbegin
	mov	DWORD PTR tv75[ebp], eax
	mov	edx, DWORD PTR tv75[ebp]
	mov	DWORD PTR tv145[ebp], edx
	mov	BYTE PTR __$EHRec$[ebp+8], 1
	mov	eax, DWORD PTR tv145[ebp]
	push	eax
	lea	ecx, DWORD PTR _it$[ebp]
	call	??4?$reverse_iterator@V?$_List_const_iterator@V?$_List_val@PAV?$Goal@VAbstRaven_Bot@@@@V?$allocator@PAV?$Goal@VAbstRaven_Bot@@@@@std@@@std@@@std@@@std@@QAEAAV01@ABV01@@Z
	mov	BYTE PTR __$EHRec$[ebp+8], 0
	lea	ecx, DWORD PTR $T141965[ebp]
	call	??1?$reverse_iterator@V?$_List_const_iterator@V?$_List_val@PAV?$Goal@VAbstRaven_Bot@@@@V?$allocator@PAV?$Goal@VAbstRaven_Bot@@@@@std@@@std@@@std@@@std@@QAE@XZ
	jmp	SHORT $LN3@RenderAtPo
$LN2@RenderAtPo:
	lea	ecx, DWORD PTR _it$[ebp]
	call	??E?$reverse_iterator@V?$_List_const_iterator@V?$_List_val@PAV?$Goal@VAbstRaven_Bot@@@@V?$allocator@PAV?$Goal@VAbstRaven_Bot@@@@@std@@@std@@@std@@@std@@QAEAAV01@XZ ; std::reverse_iterator<std::_List_const_iterator<std::_List_val<Goal<AbstRaven_Bot> *,std::allocator<Goal<AbstRaven_Bot> *> > > >::operator++
$LN3@RenderAtPo:
	lea	ecx, DWORD PTR $T141967[ebp]
	push	ecx
	mov	ecx, DWORD PTR _this$[ebp]
	add	ecx, 16					; 00000010H
	call	?rend@?$list@PAV?$Goal@VAbstRaven_Bot@@@@V?$allocator@PAV?$Goal@VAbstRaven_Bot@@@@@std@@@std@@QBE?AV?$reverse_iterator@V?$_List_const_iterator@V?$_List_val@PAV?$Goal@VAbstRaven_Bot@@@@V?$allocator@PAV?$Goal@VAbstRaven_Bot@@@@@std@@@std@@@std@@@2@XZ ; std::list<Goal<AbstRaven_Bot> *,std::allocator<Goal<AbstRaven_Bot> *> >::rend
	mov	DWORD PTR tv148[ebp], eax
	mov	edx, DWORD PTR tv148[ebp]
	mov	DWORD PTR tv147[ebp], edx
	mov	BYTE PTR __$EHRec$[ebp+8], 2
	mov	eax, DWORD PTR tv147[ebp]
	push	eax
	lea	ecx, DWORD PTR _it$[ebp]
	push	ecx
	call	??$?9V?$_List_const_iterator@V?$_List_val@PAV?$Goal@VAbstRaven_Bot@@@@V?$allocator@PAV?$Goal@VAbstRaven_Bot@@@@@std@@@std@@@std@@V01@@std@@YA_NABV?$reverse_iterator@V?$_List_const_iterator@V?$_List_val@PAV?$Goal@VAbstRaven_Bot@@@@V?$allocator@PAV?$Goal@VAbstRaven_Bot@@@@@std@@@std@@@std@@@0@0@Z ; std::operator!=<std::_List_const_iterator<std::_List_val<Goal<AbstRaven_Bot> *,std::allocator<Goal<AbstRaven_Bot> *> > >,std::_List_const_iterator<std::_List_val<Goal<AbstRaven_Bot> *,std::allocator<Goal<AbstRaven_Bot> *> > > >
	add	esp, 8
	mov	BYTE PTR $T141966[ebp], al
	mov	BYTE PTR __$EHRec$[ebp+8], 0
	lea	ecx, DWORD PTR $T141967[ebp]
	call	??1?$reverse_iterator@V?$_List_const_iterator@V?$_List_val@PAV?$Goal@VAbstRaven_Bot@@@@V?$allocator@PAV?$Goal@VAbstRaven_Bot@@@@@std@@@std@@@std@@@std@@QAE@XZ
	movzx	edx, BYTE PTR $T141966[ebp]
	test	edx, edx
	je	SHORT $LN1@RenderAtPo

; 173  :   {
; 174  :     (*it)->RenderAtPos(pos, tts);

	lea	ecx, DWORD PTR _it$[ebp]
	call	??D?$_Revranit@V?$_List_const_iterator@V?$_List_val@PAV?$Goal@VAbstRaven_Bot@@@@V?$allocator@PAV?$Goal@VAbstRaven_Bot@@@@@std@@@std@@@std@@U?$iterator@Ubidirectional_iterator_tag@std@@PAV?$Goal@VAbstRaven_Bot@@@@HPBQAV3@ABQAV3@@2@@std@@QBEABQAV?$Goal@VAbstRaven_Bot@@@@XZ ; std::_Revranit<std::_List_const_iterator<std::_List_val<Goal<AbstRaven_Bot> *,std::allocator<Goal<AbstRaven_Bot> *> > >,std::iterator<std::bidirectional_iterator_tag,Goal<AbstRaven_Bot> *,int,Goal<AbstRaven_Bot> * const *,Goal<AbstRaven_Bot> * const &> >::operator*
	mov	eax, DWORD PTR [eax]
	mov	DWORD PTR tv137[ebp], eax
	mov	esi, esp
	mov	ecx, DWORD PTR _tts$[ebp]
	push	ecx
	mov	edx, DWORD PTR _pos$[ebp]
	push	edx
	mov	eax, DWORD PTR tv137[ebp]
	mov	edx, DWORD PTR [eax]
	mov	ecx, DWORD PTR tv137[ebp]
	mov	eax, DWORD PTR [edx+24]
	call	eax
	cmp	esi, esp
	call	__RTC_CheckEsp

; 175  :   }

	jmp	SHORT $LN2@RenderAtPo
$LN1@RenderAtPo:

; 176  : 
; 177  :   pos.x -= 10;

	mov	ecx, DWORD PTR _pos$[ebp]
	fld	QWORD PTR [ecx]
	fsub	QWORD PTR __real@4024000000000000
	mov	edx, DWORD PTR _pos$[ebp]
	fstp	QWORD PTR [edx]

; 178  : }

	mov	DWORD PTR __$EHRec$[ebp+8], -1
	lea	ecx, DWORD PTR _it$[ebp]
	call	??1?$reverse_iterator@V?$_List_const_iterator@V?$_List_val@PAV?$Goal@VAbstRaven_Bot@@@@V?$allocator@PAV?$Goal@VAbstRaven_Bot@@@@@std@@@std@@@std@@@std@@QAE@XZ
	push	edx
	mov	ecx, ebp
	push	eax
	lea	edx, DWORD PTR $LN12@RenderAtPo
	call	@_RTC_CheckStackVars@8
	pop	eax
	pop	edx
	mov	ecx, DWORD PTR __$EHRec$[ebp]
	mov	DWORD PTR fs:0, ecx
	pop	ecx
	pop	edi
	pop	esi
	add	esp, 84					; 00000054H
	cmp	ebp, esp
	call	__RTC_CheckEsp
	mov	esp, ebp
	pop	ebp
	ret	8
	npad	3
$LN12@RenderAtPo:
	DD	1
	DD	$LN11@RenderAtPo
$LN11@RenderAtPo:
	DD	-32					; ffffffe0H
	DD	12					; 0000000cH
	DD	$LN9@RenderAtPo
$LN9@RenderAtPo:
	DB	105					; 00000069H
	DB	116					; 00000074H
	DB	0
_TEXT	ENDS
;	COMDAT text$x
text$x	SEGMENT
__unwindfunclet$?RenderAtPos@?$Goal_Composite@VAbstRaven_Bot@@@@UBEXAAUVector2D@@PAVTypeToString@@@Z$0:
	lea	ecx, DWORD PTR _it$[ebp]
	jmp	??1?$reverse_iterator@V?$_List_const_iterator@V?$_List_val@PAV?$Goal@VAbstRaven_Bot@@@@V?$allocator@PAV?$Goal@VAbstRaven_Bot@@@@@std@@@std@@@std@@@std@@QAE@XZ
__unwindfunclet$?RenderAtPos@?$Goal_Composite@VAbstRaven_Bot@@@@UBEXAAUVector2D@@PAVTypeToString@@@Z$1:
	lea	ecx, DWORD PTR $T141965[ebp]
	jmp	??1?$reverse_iterator@V?$_List_const_iterator@V?$_List_val@PAV?$Goal@VAbstRaven_Bot@@@@V?$allocator@PAV?$Goal@VAbstRaven_Bot@@@@@std@@@std@@@std@@@std@@QAE@XZ
__unwindfunclet$?RenderAtPos@?$Goal_Composite@VAbstRaven_Bot@@@@UBEXAAUVector2D@@PAVTypeToString@@@Z$2:
	lea	ecx, DWORD PTR $T141967[ebp]
	jmp	??1?$reverse_iterator@V?$_List_const_iterator@V?$_List_val@PAV?$Goal@VAbstRaven_Bot@@@@V?$allocator@PAV?$Goal@VAbstRaven_Bot@@@@@std@@@std@@@std@@@std@@QAE@XZ
__ehhandler$?RenderAtPos@?$Goal_Composite@VAbstRaven_Bot@@@@UBEXAAUVector2D@@PAVTypeToString@@@Z:
	mov	edx, DWORD PTR [esp+8]
	lea	eax, DWORD PTR [edx+12]
	mov	ecx, DWORD PTR [edx-84]
	xor	ecx, eax
	call	@__security_check_cookie@4
	mov	eax, OFFSET __ehfuncinfo$?RenderAtPos@?$Goal_Composite@VAbstRaven_Bot@@@@UBEXAAUVector2D@@PAVTypeToString@@@Z
	jmp	___CxxFrameHandler3
text$x	ENDS
?RenderAtPos@?$Goal_Composite@VAbstRaven_Bot@@@@UBEXAAUVector2D@@PAVTypeToString@@@Z ENDP ; Goal_Composite<AbstRaven_Bot>::RenderAtPos
EXTRN	__imp__SetBkMode@8:PROC
; Function compile flags: /Odtp /RTCsu
; File c:\users\teaja\documents\artificial-fun\labravenprojecttest\common\misc\cgdi.h
;	COMDAT ?TransparentText@Cgdi@@QAEXXZ
_TEXT	SEGMENT
_this$ = -4						; size = 4
?TransparentText@Cgdi@@QAEXXZ PROC			; Cgdi::TransparentText, COMDAT
; _this$ = ecx

; 222  :   void TransparentText(){SetBkMode(m_hdc, TRANSPARENT);}

	push	ebp
	mov	ebp, esp
	push	ecx
	push	esi
	mov	DWORD PTR [ebp-4], -858993460		; ccccccccH
	mov	DWORD PTR _this$[ebp], ecx
	mov	esi, esp
	push	1
	mov	eax, DWORD PTR _this$[ebp]
	mov	ecx, DWORD PTR [eax+124]
	push	ecx
	call	DWORD PTR __imp__SetBkMode@8
	cmp	esi, esp
	call	__RTC_CheckEsp
	pop	esi
	add	esp, 4
	cmp	ebp, esp
	call	__RTC_CheckEsp
	mov	esp, ebp
	pop	ebp
	ret	0
?TransparentText@Cgdi@@QAEXXZ ENDP			; Cgdi::TransparentText
_TEXT	ENDS
PUBLIC	??1?$basic_string@DU?$char_traits@D@std@@V?$allocator@D@2@@std@@QAE@XZ ; std::basic_string<char,std::char_traits<char>,std::allocator<char> >::~basic_string<char,std::char_traits<char>,std::allocator<char> >
PUBLIC	?TextAtPos@Cgdi@@QAEXNNABV?$basic_string@DU?$char_traits@D@std@@V?$allocator@D@2@@std@@@Z ; Cgdi::TextAtPos
PUBLIC	?GetType@?$Goal@VAbstRaven_Bot@@@@QBEHXZ	; Goal<AbstRaven_Bot>::GetType
PUBLIC	?isActive@?$Goal@VAbstRaven_Bot@@@@QBE_NXZ	; Goal<AbstRaven_Bot>::isActive
PUBLIC	?hasFailed@?$Goal@VAbstRaven_Bot@@@@QBE_NXZ	; Goal<AbstRaven_Bot>::hasFailed
PUBLIC	?isInactive@?$Goal@VAbstRaven_Bot@@@@QBE_NXZ	; Goal<AbstRaven_Bot>::isInactive
PUBLIC	?TextColor@Cgdi@@QAEXHHH@Z			; Cgdi::TextColor
PUBLIC	?isComplete@?$Goal@VAbstRaven_Bot@@@@QBE_NXZ	; Goal<AbstRaven_Bot>::isComplete
PUBLIC	__real@402e000000000000
PUBLIC	__$ArrayPad$
;	COMDAT __real@402e000000000000
; File c:\users\teaja\documents\artificial-fun\labravenprojecttest\common\goals\goal.h
CONST	SEGMENT
__real@402e000000000000 DQ 0402e000000000000r	; 15
CONST	ENDS
;	COMDAT xdata$x
xdata$x	SEGMENT
__unwindtable$?RenderAtPos@?$Goal@VAbstRaven_Bot@@@@UBEXAAUVector2D@@PAVTypeToString@@@Z DD 0ffffffffH
	DD	FLAT:__unwindfunclet$?RenderAtPos@?$Goal@VAbstRaven_Bot@@@@UBEXAAUVector2D@@PAVTypeToString@@@Z$0
__ehfuncinfo$?RenderAtPos@?$Goal@VAbstRaven_Bot@@@@UBEXAAUVector2D@@PAVTypeToString@@@Z DD 019930522H
	DD	01H
	DD	FLAT:__unwindtable$?RenderAtPos@?$Goal@VAbstRaven_Bot@@@@UBEXAAUVector2D@@PAVTypeToString@@@Z
	DD	2 DUP(00H)
	DD	2 DUP(00H)
	DD	00H
	DD	01H
; Function compile flags: /Odtp /RTCsu
xdata$x	ENDS
;	COMDAT ?RenderAtPos@?$Goal@VAbstRaven_Bot@@@@UBEXAAUVector2D@@PAVTypeToString@@@Z
_TEXT	SEGMENT
tv154 = -60						; size = 4
tv155 = -56						; size = 4
$T136023 = -52						; size = 32
_this$ = -20						; size = 4
__$ArrayPad$ = -16					; size = 4
__$EHRec$ = -12						; size = 12
_pos$ = 8						; size = 4
_tts$ = 12						; size = 4
?RenderAtPos@?$Goal@VAbstRaven_Bot@@@@UBEXAAUVector2D@@PAVTypeToString@@@Z PROC ; Goal<AbstRaven_Bot>::RenderAtPos, COMDAT
; _this$ = ecx

; 123  : {

	push	ebp
	mov	ebp, esp
	push	-1
	push	__ehhandler$?RenderAtPos@?$Goal@VAbstRaven_Bot@@@@UBEXAAUVector2D@@PAVTypeToString@@@Z
	mov	eax, DWORD PTR fs:0
	push	eax
	sub	esp, 48					; 00000030H
	push	esi
	push	edi
	push	ecx
	lea	edi, DWORD PTR [ebp-60]
	mov	ecx, 12					; 0000000cH
	mov	eax, -858993460				; ccccccccH
	rep stosd
	pop	ecx
	mov	eax, DWORD PTR ___security_cookie
	xor	eax, ebp
	mov	DWORD PTR __$ArrayPad$[ebp], eax
	push	eax
	lea	eax, DWORD PTR __$EHRec$[ebp]
	mov	DWORD PTR fs:0, eax
	mov	DWORD PTR _this$[ebp], ecx

; 124  :   pos.y += 15;

	mov	eax, DWORD PTR _pos$[ebp]
	fld	QWORD PTR [eax+8]
	fadd	QWORD PTR __real@402e000000000000
	mov	ecx, DWORD PTR _pos$[ebp]
	fstp	QWORD PTR [ecx+8]

; 125  :   gdi->TransparentText();

	call	?Instance@Cgdi@@SAPAV1@XZ		; Cgdi::Instance
	mov	ecx, eax
	call	?TransparentText@Cgdi@@QAEXXZ		; Cgdi::TransparentText

; 126  :   if (isComplete()) gdi->TextColor(0,255,0);

	mov	ecx, DWORD PTR _this$[ebp]
	call	?isComplete@?$Goal@VAbstRaven_Bot@@@@QBE_NXZ ; Goal<AbstRaven_Bot>::isComplete
	movzx	edx, al
	test	edx, edx
	je	SHORT $LN4@RenderAtPo@2
	push	0
	push	255					; 000000ffH
	push	0
	call	?Instance@Cgdi@@SAPAV1@XZ		; Cgdi::Instance
	mov	ecx, eax
	call	?TextColor@Cgdi@@QAEXHHH@Z		; Cgdi::TextColor
$LN4@RenderAtPo@2:

; 127  :   if (isInactive()) gdi->TextColor(0,0,0);

	mov	ecx, DWORD PTR _this$[ebp]
	call	?isInactive@?$Goal@VAbstRaven_Bot@@@@QBE_NXZ ; Goal<AbstRaven_Bot>::isInactive
	movzx	eax, al
	test	eax, eax
	je	SHORT $LN3@RenderAtPo@2
	push	0
	push	0
	push	0
	call	?Instance@Cgdi@@SAPAV1@XZ		; Cgdi::Instance
	mov	ecx, eax
	call	?TextColor@Cgdi@@QAEXHHH@Z		; Cgdi::TextColor
$LN3@RenderAtPo@2:

; 128  :   if (hasFailed()) gdi->TextColor(255,0,0);

	mov	ecx, DWORD PTR _this$[ebp]
	call	?hasFailed@?$Goal@VAbstRaven_Bot@@@@QBE_NXZ ; Goal<AbstRaven_Bot>::hasFailed
	movzx	ecx, al
	test	ecx, ecx
	je	SHORT $LN2@RenderAtPo@2
	push	0
	push	0
	push	255					; 000000ffH
	call	?Instance@Cgdi@@SAPAV1@XZ		; Cgdi::Instance
	mov	ecx, eax
	call	?TextColor@Cgdi@@QAEXHHH@Z		; Cgdi::TextColor
$LN2@RenderAtPo@2:

; 129  :   if (isActive()) gdi->TextColor(0,0,255);

	mov	ecx, DWORD PTR _this$[ebp]
	call	?isActive@?$Goal@VAbstRaven_Bot@@@@QBE_NXZ ; Goal<AbstRaven_Bot>::isActive
	movzx	edx, al
	test	edx, edx
	je	SHORT $LN1@RenderAtPo@2
	push	255					; 000000ffH
	push	0
	push	0
	call	?Instance@Cgdi@@SAPAV1@XZ		; Cgdi::Instance
	mov	ecx, eax
	call	?TextColor@Cgdi@@QAEXHHH@Z		; Cgdi::TextColor
$LN1@RenderAtPo@2:

; 130  : 
; 131  :   gdi->TextAtPos(pos.x, pos.y, tts->Convert(GetType())); 

	mov	ecx, DWORD PTR _this$[ebp]
	call	?GetType@?$Goal@VAbstRaven_Bot@@@@QBEHXZ ; Goal<AbstRaven_Bot>::GetType
	mov	esi, esp
	push	eax
	lea	eax, DWORD PTR $T136023[ebp]
	push	eax
	mov	ecx, DWORD PTR _tts$[ebp]
	mov	edx, DWORD PTR [ecx]
	mov	ecx, DWORD PTR _tts$[ebp]
	mov	eax, DWORD PTR [edx]
	call	eax
	cmp	esi, esp
	call	__RTC_CheckEsp
	mov	DWORD PTR tv155[ebp], eax
	mov	ecx, DWORD PTR tv155[ebp]
	mov	DWORD PTR tv154[ebp], ecx
	mov	DWORD PTR __$EHRec$[ebp+8], 0
	mov	edx, DWORD PTR tv154[ebp]
	push	edx
	mov	eax, DWORD PTR _pos$[ebp]
	sub	esp, 8
	fld	QWORD PTR [eax+8]
	fstp	QWORD PTR [esp]
	mov	ecx, DWORD PTR _pos$[ebp]
	sub	esp, 8
	fld	QWORD PTR [ecx]
	fstp	QWORD PTR [esp]
	call	?Instance@Cgdi@@SAPAV1@XZ		; Cgdi::Instance
	mov	ecx, eax
	call	?TextAtPos@Cgdi@@QAEXNNABV?$basic_string@DU?$char_traits@D@std@@V?$allocator@D@2@@std@@@Z ; Cgdi::TextAtPos
	mov	DWORD PTR __$EHRec$[ebp+8], -1
	lea	ecx, DWORD PTR $T136023[ebp]
	call	??1?$basic_string@DU?$char_traits@D@std@@V?$allocator@D@2@@std@@QAE@XZ ; std::basic_string<char,std::char_traits<char>,std::allocator<char> >::~basic_string<char,std::char_traits<char>,std::allocator<char> >

; 132  : }

	mov	ecx, DWORD PTR __$EHRec$[ebp]
	mov	DWORD PTR fs:0, ecx
	pop	ecx
	pop	edi
	pop	esi
	mov	ecx, DWORD PTR __$ArrayPad$[ebp]
	xor	ecx, ebp
	call	@__security_check_cookie@4
	add	esp, 60					; 0000003cH
	cmp	ebp, esp
	call	__RTC_CheckEsp
	mov	esp, ebp
	pop	ebp
	ret	8
_TEXT	ENDS
;	COMDAT text$x
text$x	SEGMENT
__unwindfunclet$?RenderAtPos@?$Goal@VAbstRaven_Bot@@@@UBEXAAUVector2D@@PAVTypeToString@@@Z$0:
	lea	ecx, DWORD PTR $T136023[ebp]
	jmp	??1?$basic_string@DU?$char_traits@D@std@@V?$allocator@D@2@@std@@QAE@XZ ; std::basic_string<char,std::char_traits<char>,std::allocator<char> >::~basic_string<char,std::char_traits<char>,std::allocator<char> >
__ehhandler$?RenderAtPos@?$Goal@VAbstRaven_Bot@@@@UBEXAAUVector2D@@PAVTypeToString@@@Z:
	mov	edx, DWORD PTR [esp+8]
	lea	eax, DWORD PTR [edx+12]
	mov	ecx, DWORD PTR [edx-60]
	xor	ecx, eax
	call	@__security_check_cookie@4
	mov	ecx, DWORD PTR [edx-4]
	xor	ecx, eax
	call	@__security_check_cookie@4
	mov	eax, OFFSET __ehfuncinfo$?RenderAtPos@?$Goal@VAbstRaven_Bot@@@@UBEXAAUVector2D@@PAVTypeToString@@@Z
	jmp	___CxxFrameHandler3
text$x	ENDS
?RenderAtPos@?$Goal@VAbstRaven_Bot@@@@UBEXAAUVector2D@@PAVTypeToString@@@Z ENDP ; Goal<AbstRaven_Bot>::RenderAtPos
PUBLIC	?c_str@?$basic_string@DU?$char_traits@D@std@@V?$allocator@D@2@@std@@QBEPBDXZ ; std::basic_string<char,std::char_traits<char>,std::allocator<char> >::c_str
PUBLIC	?size@?$basic_string@DU?$char_traits@D@std@@V?$allocator@D@2@@std@@QBEIXZ ; std::basic_string<char,std::char_traits<char>,std::allocator<char> >::size
EXTRN	__imp__TextOutA@20:PROC
EXTRN	__ftol2_sse:PROC
; Function compile flags: /Odtp /RTCsu
; File c:\users\teaja\documents\artificial-fun\labravenprojecttest\common\misc\cgdi.h
;	COMDAT ?TextAtPos@Cgdi@@QAEXNNABV?$basic_string@DU?$char_traits@D@std@@V?$allocator@D@2@@std@@@Z
_TEXT	SEGMENT
_this$ = -4						; size = 4
_x$ = 8							; size = 8
_y$ = 16						; size = 8
_s$ = 24						; size = 4
?TextAtPos@Cgdi@@QAEXNNABV?$basic_string@DU?$char_traits@D@std@@V?$allocator@D@2@@std@@@Z PROC ; Cgdi::TextAtPos, COMDAT
; _this$ = ecx

; 213  :   {

	push	ebp
	mov	ebp, esp
	push	ecx
	push	esi
	mov	DWORD PTR [ebp-4], -858993460		; ccccccccH
	mov	DWORD PTR _this$[ebp], ecx

; 214  :     TextOut(m_hdc, (int)x, (int)y, s.c_str(), (int)s.size());

	mov	ecx, DWORD PTR _s$[ebp]
	call	?size@?$basic_string@DU?$char_traits@D@std@@V?$allocator@D@2@@std@@QBEIXZ ; std::basic_string<char,std::char_traits<char>,std::allocator<char> >::size
	mov	esi, esp
	push	eax
	mov	ecx, DWORD PTR _s$[ebp]
	call	?c_str@?$basic_string@DU?$char_traits@D@std@@V?$allocator@D@2@@std@@QBEPBDXZ ; std::basic_string<char,std::char_traits<char>,std::allocator<char> >::c_str
	push	eax
	fld	QWORD PTR _y$[ebp]
	call	__ftol2_sse
	push	eax
	fld	QWORD PTR _x$[ebp]
	call	__ftol2_sse
	push	eax
	mov	eax, DWORD PTR _this$[ebp]
	mov	ecx, DWORD PTR [eax+124]
	push	ecx
	call	DWORD PTR __imp__TextOutA@20
	cmp	esi, esp
	call	__RTC_CheckEsp

; 215  :   }

	pop	esi
	add	esp, 4
	cmp	ebp, esp
	call	__RTC_CheckEsp
	mov	esp, ebp
	pop	ebp
	ret	20					; 00000014H
?TextAtPos@Cgdi@@QAEXNNABV?$basic_string@DU?$char_traits@D@std@@V?$allocator@D@2@@std@@@Z ENDP ; Cgdi::TextAtPos
_TEXT	ENDS
EXTRN	__imp__SetTextColor@8:PROC
; Function compile flags: /Odtp /RTCsu
;	COMDAT ?TextColor@Cgdi@@QAEXHHH@Z
_TEXT	SEGMENT
_this$ = -4						; size = 4
_r$ = 8							; size = 4
_g$ = 12						; size = 4
_b$ = 16						; size = 4
?TextColor@Cgdi@@QAEXHHH@Z PROC				; Cgdi::TextColor, COMDAT
; _this$ = ecx

; 227  :   void TextColor(int r, int g, int b){SetTextColor(m_hdc, RGB(r,g,b));}

	push	ebp
	mov	ebp, esp
	push	ecx
	push	esi
	mov	DWORD PTR [ebp-4], -858993460		; ccccccccH
	mov	DWORD PTR _this$[ebp], ecx
	movzx	eax, BYTE PTR _r$[ebp]
	movzx	ecx, BYTE PTR _g$[ebp]
	shl	ecx, 8
	or	eax, ecx
	movzx	edx, BYTE PTR _b$[ebp]
	shl	edx, 16					; 00000010H
	or	eax, edx
	mov	esi, esp
	push	eax
	mov	eax, DWORD PTR _this$[ebp]
	mov	ecx, DWORD PTR [eax+124]
	push	ecx
	call	DWORD PTR __imp__SetTextColor@8
	cmp	esi, esp
	call	__RTC_CheckEsp
	pop	esi
	add	esp, 4
	cmp	ebp, esp
	call	__RTC_CheckEsp
	mov	esp, ebp
	pop	ebp
	ret	12					; 0000000cH
?TextColor@Cgdi@@QAEXHHH@Z ENDP				; Cgdi::TextColor
_TEXT	ENDS
PUBLIC	??1?$_String_val@DV?$allocator@D@std@@@std@@QAE@XZ ; std::_String_val<char,std::allocator<char> >::~_String_val<char,std::allocator<char> >
PUBLIC	?_Tidy@?$basic_string@DU?$char_traits@D@std@@V?$allocator@D@2@@std@@QAEX_NI@Z ; std::basic_string<char,std::char_traits<char>,std::allocator<char> >::_Tidy
;	COMDAT xdata$x
; File c:\program files (x86)\microsoft visual studio 10.0\vc\include\xstring
xdata$x	SEGMENT
__unwindtable$??1?$basic_string@DU?$char_traits@D@std@@V?$allocator@D@2@@std@@QAE@XZ DD 0ffffffffH
	DD	FLAT:__unwindfunclet$??1?$basic_string@DU?$char_traits@D@std@@V?$allocator@D@2@@std@@QAE@XZ$0
__ehfuncinfo$??1?$basic_string@DU?$char_traits@D@std@@V?$allocator@D@2@@std@@QAE@XZ DD 019930522H
	DD	01H
	DD	FLAT:__unwindtable$??1?$basic_string@DU?$char_traits@D@std@@V?$allocator@D@2@@std@@QAE@XZ
	DD	2 DUP(00H)
	DD	2 DUP(00H)
	DD	00H
	DD	01H
; Function compile flags: /Odtp /RTCsu
xdata$x	ENDS
;	COMDAT ??1?$basic_string@DU?$char_traits@D@std@@V?$allocator@D@2@@std@@QAE@XZ
_TEXT	SEGMENT
_this$ = -16						; size = 4
__$EHRec$ = -12						; size = 12
??1?$basic_string@DU?$char_traits@D@std@@V?$allocator@D@2@@std@@QAE@XZ PROC ; std::basic_string<char,std::char_traits<char>,std::allocator<char> >::~basic_string<char,std::char_traits<char>,std::allocator<char> >, COMDAT
; _this$ = ecx

; 752  : 		{	// destroy the string

	push	ebp
	mov	ebp, esp
	push	-1
	push	__ehhandler$??1?$basic_string@DU?$char_traits@D@std@@V?$allocator@D@2@@std@@QAE@XZ
	mov	eax, DWORD PTR fs:0
	push	eax
	push	ecx
	mov	DWORD PTR [ebp-16], -858993460		; ccccccccH
	mov	eax, DWORD PTR ___security_cookie
	xor	eax, ebp
	push	eax
	lea	eax, DWORD PTR __$EHRec$[ebp]
	mov	DWORD PTR fs:0, eax
	mov	DWORD PTR _this$[ebp], ecx
	mov	DWORD PTR __$EHRec$[ebp+8], 0

; 753  : 		_Tidy(true);

	push	0
	push	1
	mov	ecx, DWORD PTR _this$[ebp]
	call	?_Tidy@?$basic_string@DU?$char_traits@D@std@@V?$allocator@D@2@@std@@QAEX_NI@Z ; std::basic_string<char,std::char_traits<char>,std::allocator<char> >::_Tidy

; 754  : 		}

	mov	DWORD PTR __$EHRec$[ebp+8], -1
	mov	ecx, DWORD PTR _this$[ebp]
	call	??1?$_String_val@DV?$allocator@D@std@@@std@@QAE@XZ ; std::_String_val<char,std::allocator<char> >::~_String_val<char,std::allocator<char> >
	mov	ecx, DWORD PTR __$EHRec$[ebp]
	mov	DWORD PTR fs:0, ecx
	pop	ecx
	add	esp, 16					; 00000010H
	cmp	ebp, esp
	call	__RTC_CheckEsp
	mov	esp, ebp
	pop	ebp
	ret	0
_TEXT	ENDS
;	COMDAT text$x
text$x	SEGMENT
__unwindfunclet$??1?$basic_string@DU?$char_traits@D@std@@V?$allocator@D@2@@std@@QAE@XZ$0:
	mov	ecx, DWORD PTR _this$[ebp]
	jmp	??1?$_String_val@DV?$allocator@D@std@@@std@@QAE@XZ ; std::_String_val<char,std::allocator<char> >::~_String_val<char,std::allocator<char> >
__ehhandler$??1?$basic_string@DU?$char_traits@D@std@@V?$allocator@D@2@@std@@QAE@XZ:
	mov	edx, DWORD PTR [esp+8]
	lea	eax, DWORD PTR [edx+12]
	mov	ecx, DWORD PTR [edx-8]
	xor	ecx, eax
	call	@__security_check_cookie@4
	mov	eax, OFFSET __ehfuncinfo$??1?$basic_string@DU?$char_traits@D@std@@V?$allocator@D@2@@std@@QAE@XZ
	jmp	___CxxFrameHandler3
text$x	ENDS
??1?$basic_string@DU?$char_traits@D@std@@V?$allocator@D@2@@std@@QAE@XZ ENDP ; std::basic_string<char,std::char_traits<char>,std::allocator<char> >::~basic_string<char,std::char_traits<char>,std::allocator<char> >
PUBLIC	?_Myptr@?$basic_string@DU?$char_traits@D@std@@V?$allocator@D@2@@std@@QBEPBDXZ ; std::basic_string<char,std::char_traits<char>,std::allocator<char> >::_Myptr
; Function compile flags: /Odtp /RTCsu
;	COMDAT ?c_str@?$basic_string@DU?$char_traits@D@std@@V?$allocator@D@2@@std@@QBEPBDXZ
_TEXT	SEGMENT
_this$ = -4						; size = 4
?c_str@?$basic_string@DU?$char_traits@D@std@@V?$allocator@D@2@@std@@QBEPBDXZ PROC ; std::basic_string<char,std::char_traits<char>,std::allocator<char> >::c_str, COMDAT
; _this$ = ecx

; 1495 : 		{	// return pointer to null-terminated nonmutable array

	push	ebp
	mov	ebp, esp
	push	ecx
	mov	DWORD PTR [ebp-4], -858993460		; ccccccccH
	mov	DWORD PTR _this$[ebp], ecx

; 1496 : 		return (_Myptr());

	mov	ecx, DWORD PTR _this$[ebp]
	call	?_Myptr@?$basic_string@DU?$char_traits@D@std@@V?$allocator@D@2@@std@@QBEPBDXZ ; std::basic_string<char,std::char_traits<char>,std::allocator<char> >::_Myptr

; 1497 : 		}

	add	esp, 4
	cmp	ebp, esp
	call	__RTC_CheckEsp
	mov	esp, ebp
	pop	ebp
	ret	0
?c_str@?$basic_string@DU?$char_traits@D@std@@V?$allocator@D@2@@std@@QBEPBDXZ ENDP ; std::basic_string<char,std::char_traits<char>,std::allocator<char> >::c_str
; Function compile flags: /Odtp /RTCsu
_TEXT	ENDS
;	COMDAT ?size@?$basic_string@DU?$char_traits@D@std@@V?$allocator@D@2@@std@@QBEIXZ
_TEXT	SEGMENT
_this$ = -4						; size = 4
?size@?$basic_string@DU?$char_traits@D@std@@V?$allocator@D@2@@std@@QBEIXZ PROC ; std::basic_string<char,std::char_traits<char>,std::allocator<char> >::size, COMDAT
; _this$ = ecx

; 1510 : 		{	// return length of sequence

	push	ebp
	mov	ebp, esp
	push	ecx
	mov	DWORD PTR [ebp-4], -858993460		; ccccccccH
	mov	DWORD PTR _this$[ebp], ecx

; 1511 : 		return (this->_Mysize);

	mov	eax, DWORD PTR _this$[ebp]
	mov	eax, DWORD PTR [eax+20]

; 1512 : 		}

	mov	esp, ebp
	pop	ebp
	ret	0
?size@?$basic_string@DU?$char_traits@D@std@@V?$allocator@D@2@@std@@QBEIXZ ENDP ; std::basic_string<char,std::char_traits<char>,std::allocator<char> >::size
_TEXT	ENDS
PUBLIC	?_Eos@?$basic_string@DU?$char_traits@D@std@@V?$allocator@D@2@@std@@QAEXI@Z ; std::basic_string<char,std::char_traits<char>,std::allocator<char> >::_Eos
PUBLIC	?deallocate@?$allocator@D@std@@QAEXPADI@Z	; std::allocator<char>::deallocate
PUBLIC	?copy@?$char_traits@D@std@@SAPADPADPBDI@Z	; std::char_traits<char>::copy
; Function compile flags: /Odtp /RTCsu
;	COMDAT ?_Tidy@?$basic_string@DU?$char_traits@D@std@@V?$allocator@D@2@@std@@QAEX_NI@Z
_TEXT	SEGMENT
__Ptr$134107 = -8					; size = 4
_this$ = -4						; size = 4
__Built$ = 8						; size = 1
__Newsize$ = 12						; size = 4
?_Tidy@?$basic_string@DU?$char_traits@D@std@@V?$allocator@D@2@@std@@QAEX_NI@Z PROC ; std::basic_string<char,std::char_traits<char>,std::allocator<char> >::_Tidy, COMDAT
; _this$ = ecx

; 1987 : 		{	// initialize buffer, deallocating any storage

	push	ebp
	mov	ebp, esp
	sub	esp, 8
	mov	DWORD PTR [ebp-8], -858993460		; ccccccccH
	mov	DWORD PTR [ebp-4], -858993460		; ccccccccH
	mov	DWORD PTR _this$[ebp], ecx

; 1988 : 		if (!_Built)

	movzx	eax, BYTE PTR __Built$[ebp]
	test	eax, eax
	jne	SHORT $LN4@Tidy
	jmp	SHORT $LN3@Tidy
$LN4@Tidy:

; 1989 : 			;
; 1990 : 		else if (this->_BUF_SIZE <= this->_Myres)

	mov	ecx, DWORD PTR _this$[ebp]
	cmp	DWORD PTR [ecx+24], 16			; 00000010H
	jb	SHORT $LN3@Tidy

; 1991 : 			{	// copy any leftovers to small buffer and deallocate
; 1992 : 			_Elem *_Ptr = this->_Bx._Ptr;

	mov	edx, DWORD PTR _this$[ebp]
	mov	eax, DWORD PTR [edx+4]
	mov	DWORD PTR __Ptr$134107[ebp], eax

; 1993 : 			if (0 < _Newsize)

	cmp	DWORD PTR __Newsize$[ebp], 0
	jbe	SHORT $LN1@Tidy

; 1994 : 				_Traits::copy(this->_Bx._Buf, _Ptr, _Newsize);

	mov	ecx, DWORD PTR __Newsize$[ebp]
	push	ecx
	mov	edx, DWORD PTR __Ptr$134107[ebp]
	push	edx
	mov	eax, DWORD PTR _this$[ebp]
	add	eax, 4
	push	eax
	call	?copy@?$char_traits@D@std@@SAPADPADPBDI@Z ; std::char_traits<char>::copy
	add	esp, 12					; 0000000cH
$LN1@Tidy:

; 1995 : 			this->_Alval.deallocate(_Ptr, this->_Myres + 1);

	mov	ecx, DWORD PTR _this$[ebp]
	mov	edx, DWORD PTR [ecx+24]
	add	edx, 1
	push	edx
	mov	eax, DWORD PTR __Ptr$134107[ebp]
	push	eax
	mov	ecx, DWORD PTR _this$[ebp]
	add	ecx, 28					; 0000001cH
	call	?deallocate@?$allocator@D@std@@QAEXPADI@Z ; std::allocator<char>::deallocate
$LN3@Tidy:

; 1996 : 			}
; 1997 : 		this->_Myres = this->_BUF_SIZE - 1;

	mov	ecx, DWORD PTR _this$[ebp]
	mov	DWORD PTR [ecx+24], 15			; 0000000fH

; 1998 : 		_Eos(_Newsize);

	mov	edx, DWORD PTR __Newsize$[ebp]
	push	edx
	mov	ecx, DWORD PTR _this$[ebp]
	call	?_Eos@?$basic_string@DU?$char_traits@D@std@@V?$allocator@D@2@@std@@QAEXI@Z ; std::basic_string<char,std::char_traits<char>,std::allocator<char> >::_Eos

; 1999 : 		}

	add	esp, 8
	cmp	ebp, esp
	call	__RTC_CheckEsp
	mov	esp, ebp
	pop	ebp
	ret	8
?_Tidy@?$basic_string@DU?$char_traits@D@std@@V?$allocator@D@2@@std@@QAEX_NI@Z ENDP ; std::basic_string<char,std::char_traits<char>,std::allocator<char> >::_Tidy
_TEXT	ENDS
EXTRN	_memcpy:PROC
; Function compile flags: /Odtp /RTCsu
; File c:\program files (x86)\microsoft visual studio 10.0\vc\include\iosfwd
;	COMDAT ?copy@?$char_traits@D@std@@SAPADPADPBDI@Z
_TEXT	SEGMENT
__First1$ = 8						; size = 4
__First2$ = 12						; size = 4
__Count$ = 16						; size = 4
?copy@?$char_traits@D@std@@SAPADPADPBDI@Z PROC		; std::char_traits<char>::copy, COMDAT

; 496  : 		{	// copy [_First1, _First1 + _Count) to [_First2, ...)

	push	ebp
	mov	ebp, esp

; 497  : 		return ((_Elem *)_CSTD memcpy(_First1, _First2, _Count));

	mov	eax, DWORD PTR __Count$[ebp]
	push	eax
	mov	ecx, DWORD PTR __First2$[ebp]
	push	ecx
	mov	edx, DWORD PTR __First1$[ebp]
	push	edx
	call	_memcpy
	add	esp, 12					; 0000000cH

; 498  : 		}

	cmp	ebp, esp
	call	__RTC_CheckEsp
	pop	ebp
	ret	0
?copy@?$char_traits@D@std@@SAPADPADPBDI@Z ENDP		; std::char_traits<char>::copy
; Function compile flags: /Odtp /RTCsu
; File c:\program files (x86)\microsoft visual studio 10.0\vc\include\xstring
_TEXT	ENDS
;	COMDAT ?_Myptr@?$basic_string@DU?$char_traits@D@std@@V?$allocator@D@2@@std@@QBEPBDXZ
_TEXT	SEGMENT
tv82 = -8						; size = 4
_this$ = -4						; size = 4
?_Myptr@?$basic_string@DU?$char_traits@D@std@@V?$allocator@D@2@@std@@QBEPBDXZ PROC ; std::basic_string<char,std::char_traits<char>,std::allocator<char> >::_Myptr, COMDAT
; _this$ = ecx

; 2008 : 		{	// determine current pointer to buffer for nonmutable string

	push	ebp
	mov	ebp, esp
	sub	esp, 8
	mov	DWORD PTR [ebp-8], -858993460		; ccccccccH
	mov	DWORD PTR [ebp-4], -858993460		; ccccccccH
	mov	DWORD PTR _this$[ebp], ecx

; 2009 : 		return (this->_BUF_SIZE <= this->_Myres ? this->_Bx._Ptr
; 2010 : 			: this->_Bx._Buf);

	mov	eax, DWORD PTR _this$[ebp]
	cmp	DWORD PTR [eax+24], 16			; 00000010H
	jb	SHORT $LN3@Myptr
	mov	ecx, DWORD PTR _this$[ebp]
	mov	edx, DWORD PTR [ecx+4]
	mov	DWORD PTR tv82[ebp], edx
	jmp	SHORT $LN4@Myptr
$LN3@Myptr:
	mov	eax, DWORD PTR _this$[ebp]
	add	eax, 4
	mov	DWORD PTR tv82[ebp], eax
$LN4@Myptr:
	mov	eax, DWORD PTR tv82[ebp]

; 2011 : 		}

	mov	esp, ebp
	pop	ebp
	ret	0
?_Myptr@?$basic_string@DU?$char_traits@D@std@@V?$allocator@D@2@@std@@QBEPBDXZ ENDP ; std::basic_string<char,std::char_traits<char>,std::allocator<char> >::_Myptr
_TEXT	ENDS
PUBLIC	??1_Container_base12@std@@QAE@XZ		; std::_Container_base12::~_Container_base12
PUBLIC	?deallocate@?$allocator@U_Container_proxy@std@@@std@@QAEXPAU_Container_proxy@2@I@Z ; std::allocator<std::_Container_proxy>::deallocate
PUBLIC	??$_Dest_val@V?$allocator@U_Container_proxy@std@@@std@@U_Container_proxy@2@@std@@YAXAAV?$allocator@U_Container_proxy@std@@@0@PAU_Container_proxy@0@@Z ; std::_Dest_val<std::allocator<std::_Container_proxy>,std::_Container_proxy>
PUBLIC	??$?0D@?$allocator@U_Container_proxy@std@@@std@@QAE@ABV?$allocator@D@1@@Z ; std::allocator<std::_Container_proxy>::allocator<std::_Container_proxy><char>
;	COMDAT xdata$x
xdata$x	SEGMENT
__unwindtable$??1?$_String_val@DV?$allocator@D@std@@@std@@QAE@XZ DD 0ffffffffH
	DD	FLAT:__unwindfunclet$??1?$_String_val@DV?$allocator@D@std@@@std@@QAE@XZ$0
__ehfuncinfo$??1?$_String_val@DV?$allocator@D@std@@@std@@QAE@XZ DD 019930522H
	DD	01H
	DD	FLAT:__unwindtable$??1?$_String_val@DV?$allocator@D@std@@@std@@QAE@XZ
	DD	2 DUP(00H)
	DD	2 DUP(00H)
	DD	00H
	DD	01H
; Function compile flags: /Odtp /RTCsu
xdata$x	ENDS
;	COMDAT ??1?$_String_val@DV?$allocator@D@std@@@std@@QAE@XZ
_TEXT	SEGMENT
__Alproxy$ = -21					; size = 1
_this$ = -16						; size = 4
__$EHRec$ = -12						; size = 12
??1?$_String_val@DV?$allocator@D@std@@@std@@QAE@XZ PROC	; std::_String_val<char,std::allocator<char> >::~_String_val<char,std::allocator<char> >, COMDAT
; _this$ = ecx

; 475  : 		{	// destroy the object

	push	ebp
	mov	ebp, esp
	push	-1
	push	__ehhandler$??1?$_String_val@DV?$allocator@D@std@@@std@@QAE@XZ
	mov	eax, DWORD PTR fs:0
	push	eax
	sub	esp, 16					; 00000010H
	mov	eax, -858993460				; ccccccccH
	mov	DWORD PTR [ebp-28], eax
	mov	DWORD PTR [ebp-24], eax
	mov	DWORD PTR [ebp-20], eax
	mov	DWORD PTR [ebp-16], eax
	mov	eax, DWORD PTR ___security_cookie
	xor	eax, ebp
	push	eax
	lea	eax, DWORD PTR __$EHRec$[ebp]
	mov	DWORD PTR fs:0, eax
	mov	DWORD PTR _this$[ebp], ecx
	mov	DWORD PTR __$EHRec$[ebp+8], 0

; 476  : 		typename _Alloc::template rebind<_Container_proxy>::other
; 477  : 			_Alproxy(_Alval);

	mov	eax, DWORD PTR _this$[ebp]
	add	eax, 28					; 0000001cH
	push	eax
	lea	ecx, DWORD PTR __Alproxy$[ebp]
	call	??$?0D@?$allocator@U_Container_proxy@std@@@std@@QAE@ABV?$allocator@D@1@@Z ; std::allocator<std::_Container_proxy>::allocator<std::_Container_proxy><char>

; 478  : 		this->_Orphan_all();

	mov	ecx, DWORD PTR _this$[ebp]
	call	?_Orphan_all@_Container_base12@std@@QAEXXZ ; std::_Container_base12::_Orphan_all

; 479  : 		_Dest_val(_Alproxy, this->_Myproxy);

	mov	ecx, DWORD PTR _this$[ebp]
	mov	edx, DWORD PTR [ecx]
	push	edx
	lea	eax, DWORD PTR __Alproxy$[ebp]
	push	eax
	call	??$_Dest_val@V?$allocator@U_Container_proxy@std@@@std@@U_Container_proxy@2@@std@@YAXAAV?$allocator@U_Container_proxy@std@@@0@PAU_Container_proxy@0@@Z ; std::_Dest_val<std::allocator<std::_Container_proxy>,std::_Container_proxy>
	add	esp, 8

; 480  : 		_Alproxy.deallocate(this->_Myproxy, 1);

	push	1
	mov	ecx, DWORD PTR _this$[ebp]
	mov	edx, DWORD PTR [ecx]
	push	edx
	lea	ecx, DWORD PTR __Alproxy$[ebp]
	call	?deallocate@?$allocator@U_Container_proxy@std@@@std@@QAEXPAU_Container_proxy@2@I@Z ; std::allocator<std::_Container_proxy>::deallocate

; 481  : 		this->_Myproxy = 0;

	mov	eax, DWORD PTR _this$[ebp]
	mov	DWORD PTR [eax], 0

; 482  : 		}

	mov	DWORD PTR __$EHRec$[ebp+8], -1
	mov	ecx, DWORD PTR _this$[ebp]
	call	??1_Container_base12@std@@QAE@XZ	; std::_Container_base12::~_Container_base12
	push	edx
	mov	ecx, ebp
	push	eax
	lea	edx, DWORD PTR $LN7@String_val
	call	@_RTC_CheckStackVars@8
	pop	eax
	pop	edx
	mov	ecx, DWORD PTR __$EHRec$[ebp]
	mov	DWORD PTR fs:0, ecx
	pop	ecx
	add	esp, 28					; 0000001cH
	cmp	ebp, esp
	call	__RTC_CheckEsp
	mov	esp, ebp
	pop	ebp
	ret	0
	npad	1
$LN7@String_val:
	DD	1
	DD	$LN6@String_val
$LN6@String_val:
	DD	-21					; ffffffebH
	DD	1
	DD	$LN4@String_val
$LN4@String_val:
	DB	95					; 0000005fH
	DB	65					; 00000041H
	DB	108					; 0000006cH
	DB	112					; 00000070H
	DB	114					; 00000072H
	DB	111					; 0000006fH
	DB	120					; 00000078H
	DB	121					; 00000079H
	DB	0
_TEXT	ENDS
;	COMDAT text$x
text$x	SEGMENT
__unwindfunclet$??1?$_String_val@DV?$allocator@D@std@@@std@@QAE@XZ$0:
	mov	ecx, DWORD PTR _this$[ebp]
	jmp	??1_Container_base12@std@@QAE@XZ	; std::_Container_base12::~_Container_base12
__ehhandler$??1?$_String_val@DV?$allocator@D@std@@@std@@QAE@XZ:
	mov	edx, DWORD PTR [esp+8]
	lea	eax, DWORD PTR [edx+12]
	mov	ecx, DWORD PTR [edx-20]
	xor	ecx, eax
	call	@__security_check_cookie@4
	mov	eax, OFFSET __ehfuncinfo$??1?$_String_val@DV?$allocator@D@std@@@std@@QAE@XZ
	jmp	___CxxFrameHandler3
text$x	ENDS
??1?$_String_val@DV?$allocator@D@std@@@std@@QAE@XZ ENDP	; std::_String_val<char,std::allocator<char> >::~_String_val<char,std::allocator<char> >
; Function compile flags: /Odtp /RTCsu
; File c:\program files (x86)\microsoft visual studio 10.0\vc\include\xutility
;	COMDAT ??1_Container_base12@std@@QAE@XZ
_TEXT	SEGMENT
_this$ = -4						; size = 4
??1_Container_base12@std@@QAE@XZ PROC			; std::_Container_base12::~_Container_base12, COMDAT
; _this$ = ecx

; 91   : 		{	// destroy the container

	push	ebp
	mov	ebp, esp
	push	ecx
	mov	DWORD PTR [ebp-4], -858993460		; ccccccccH
	mov	DWORD PTR _this$[ebp], ecx

; 92   : 		_Orphan_all();

	mov	ecx, DWORD PTR _this$[ebp]
	call	?_Orphan_all@_Container_base12@std@@QAEXXZ ; std::_Container_base12::_Orphan_all

; 93   : 		}

	add	esp, 4
	cmp	ebp, esp
	call	__RTC_CheckEsp
	mov	esp, ebp
	pop	ebp
	ret	0
??1_Container_base12@std@@QAE@XZ ENDP			; std::_Container_base12::~_Container_base12
_TEXT	ENDS
PUBLIC	?assign@?$char_traits@D@std@@SAXAADABD@Z	; std::char_traits<char>::assign
PUBLIC	?_Myptr@?$basic_string@DU?$char_traits@D@std@@V?$allocator@D@2@@std@@QAEPADXZ ; std::basic_string<char,std::char_traits<char>,std::allocator<char> >::_Myptr
; Function compile flags: /Odtp /RTCsu
; File c:\program files (x86)\microsoft visual studio 10.0\vc\include\xstring
;	COMDAT ?_Eos@?$basic_string@DU?$char_traits@D@std@@V?$allocator@D@2@@std@@QAEXI@Z
_TEXT	SEGMENT
$T142038 = -5						; size = 1
_this$ = -4						; size = 4
__Newsize$ = 8						; size = 4
?_Eos@?$basic_string@DU?$char_traits@D@std@@V?$allocator@D@2@@std@@QAEXI@Z PROC ; std::basic_string<char,std::char_traits<char>,std::allocator<char> >::_Eos, COMDAT
; _this$ = ecx

; 1952 : 		{	// set new length and null terminator

	push	ebp
	mov	ebp, esp
	sub	esp, 8
	mov	DWORD PTR [ebp-8], -858993460		; ccccccccH
	mov	DWORD PTR [ebp-4], -858993460		; ccccccccH
	mov	DWORD PTR _this$[ebp], ecx

; 1953 : 		_Traits::assign(_Myptr()[this->_Mysize = _Newsize], _Elem());

	mov	BYTE PTR $T142038[ebp], 0
	mov	eax, DWORD PTR _this$[ebp]
	mov	ecx, DWORD PTR __Newsize$[ebp]
	mov	DWORD PTR [eax+20], ecx
	lea	edx, DWORD PTR $T142038[ebp]
	push	edx
	mov	ecx, DWORD PTR _this$[ebp]
	call	?_Myptr@?$basic_string@DU?$char_traits@D@std@@V?$allocator@D@2@@std@@QAEPADXZ ; std::basic_string<char,std::char_traits<char>,std::allocator<char> >::_Myptr
	add	eax, DWORD PTR __Newsize$[ebp]
	push	eax
	call	?assign@?$char_traits@D@std@@SAXAADABD@Z ; std::char_traits<char>::assign
	add	esp, 8

; 1954 : 		}

	add	esp, 8
	cmp	ebp, esp
	call	__RTC_CheckEsp
	mov	esp, ebp
	pop	ebp
	ret	4
?_Eos@?$basic_string@DU?$char_traits@D@std@@V?$allocator@D@2@@std@@QAEXI@Z ENDP ; std::basic_string<char,std::char_traits<char>,std::allocator<char> >::_Eos
; Function compile flags: /Odtp /RTCsu
; File c:\program files (x86)\microsoft visual studio 10.0\vc\include\iosfwd
_TEXT	ENDS
;	COMDAT ?assign@?$char_traits@D@std@@SAXAADABD@Z
_TEXT	SEGMENT
__Left$ = 8						; size = 4
__Right$ = 12						; size = 4
?assign@?$char_traits@D@std@@SAXAADABD@Z PROC		; std::char_traits<char>::assign, COMDAT

; 526  : 		{	// assign an element

	push	ebp
	mov	ebp, esp

; 527  : 		_Left = _Right;

	mov	eax, DWORD PTR __Left$[ebp]
	mov	ecx, DWORD PTR __Right$[ebp]
	mov	dl, BYTE PTR [ecx]
	mov	BYTE PTR [eax], dl

; 528  : 		}

	pop	ebp
	ret	0
?assign@?$char_traits@D@std@@SAXAADABD@Z ENDP		; std::char_traits<char>::assign
; Function compile flags: /Odtp /RTCsu
; File c:\program files (x86)\microsoft visual studio 10.0\vc\include\xstring
_TEXT	ENDS
;	COMDAT ?_Myptr@?$basic_string@DU?$char_traits@D@std@@V?$allocator@D@2@@std@@QAEPADXZ
_TEXT	SEGMENT
tv82 = -8						; size = 4
_this$ = -4						; size = 4
?_Myptr@?$basic_string@DU?$char_traits@D@std@@V?$allocator@D@2@@std@@QAEPADXZ PROC ; std::basic_string<char,std::char_traits<char>,std::allocator<char> >::_Myptr, COMDAT
; _this$ = ecx

; 2002 : 		{	// determine current pointer to buffer for mutable string

	push	ebp
	mov	ebp, esp
	sub	esp, 8
	mov	DWORD PTR [ebp-8], -858993460		; ccccccccH
	mov	DWORD PTR [ebp-4], -858993460		; ccccccccH
	mov	DWORD PTR _this$[ebp], ecx

; 2003 : 		return (this->_BUF_SIZE <= this->_Myres ? this->_Bx._Ptr
; 2004 : 			: this->_Bx._Buf);

	mov	eax, DWORD PTR _this$[ebp]
	cmp	DWORD PTR [eax+24], 16			; 00000010H
	jb	SHORT $LN3@Myptr@2
	mov	ecx, DWORD PTR _this$[ebp]
	mov	edx, DWORD PTR [ecx+4]
	mov	DWORD PTR tv82[ebp], edx
	jmp	SHORT $LN4@Myptr@2
$LN3@Myptr@2:
	mov	eax, DWORD PTR _this$[ebp]
	add	eax, 4
	mov	DWORD PTR tv82[ebp], eax
$LN4@Myptr@2:
	mov	eax, DWORD PTR tv82[ebp]

; 2005 : 		}

	mov	esp, ebp
	pop	ebp
	ret	0
?_Myptr@?$basic_string@DU?$char_traits@D@std@@V?$allocator@D@2@@std@@QAEPADXZ ENDP ; std::basic_string<char,std::char_traits<char>,std::allocator<char> >::_Myptr
; Function compile flags: /Odtp /RTCsu
; File c:\program files (x86)\microsoft visual studio 10.0\vc\include\xmemory
_TEXT	ENDS
;	COMDAT ?deallocate@?$allocator@D@std@@QAEXPADI@Z
_TEXT	SEGMENT
_this$ = -4						; size = 4
__Ptr$ = 8						; size = 4
___formal$ = 12						; size = 4
?deallocate@?$allocator@D@std@@QAEXPADI@Z PROC		; std::allocator<char>::deallocate, COMDAT
; _this$ = ecx

; 181  : 		{	// deallocate object at _Ptr, ignore size

	push	ebp
	mov	ebp, esp
	push	ecx
	mov	DWORD PTR [ebp-4], -858993460		; ccccccccH
	mov	DWORD PTR _this$[ebp], ecx

; 182  : 		::operator delete(_Ptr);

	mov	eax, DWORD PTR __Ptr$[ebp]
	push	eax
	call	??3@YAXPAX@Z				; operator delete
	add	esp, 4

; 183  : 		}

	add	esp, 4
	cmp	ebp, esp
	call	__RTC_CheckEsp
	mov	esp, ebp
	pop	ebp
	ret	8
?deallocate@?$allocator@D@std@@QAEXPADI@Z ENDP		; std::allocator<char>::deallocate
; Function compile flags: /Odtp /RTCsu
_TEXT	ENDS
;	COMDAT ?deallocate@?$allocator@U_Container_proxy@std@@@std@@QAEXPAU_Container_proxy@2@I@Z
_TEXT	SEGMENT
_this$ = -4						; size = 4
__Ptr$ = 8						; size = 4
___formal$ = 12						; size = 4
?deallocate@?$allocator@U_Container_proxy@std@@@std@@QAEXPAU_Container_proxy@2@I@Z PROC ; std::allocator<std::_Container_proxy>::deallocate, COMDAT
; _this$ = ecx

; 181  : 		{	// deallocate object at _Ptr, ignore size

	push	ebp
	mov	ebp, esp
	push	ecx
	mov	DWORD PTR [ebp-4], -858993460		; ccccccccH
	mov	DWORD PTR _this$[ebp], ecx

; 182  : 		::operator delete(_Ptr);

	mov	eax, DWORD PTR __Ptr$[ebp]
	push	eax
	call	??3@YAXPAX@Z				; operator delete
	add	esp, 4

; 183  : 		}

	add	esp, 4
	cmp	ebp, esp
	call	__RTC_CheckEsp
	mov	esp, ebp
	pop	ebp
	ret	8
?deallocate@?$allocator@U_Container_proxy@std@@@std@@QAEXPAU_Container_proxy@2@I@Z ENDP ; std::allocator<std::_Container_proxy>::deallocate
_TEXT	ENDS
PUBLIC	__TI2?AVruntime_error@std@@
PUBLIC	??0runtime_error@std@@QAE@ABV?$basic_string@DU?$char_traits@D@std@@V?$allocator@D@2@@1@@Z ; std::runtime_error::runtime_error
PUBLIC	??$?HDU?$char_traits@D@std@@V?$allocator@D@1@@std@@YA?AV?$basic_string@DU?$char_traits@D@std@@V?$allocator@D@2@@0@ABV10@PBD@Z ; std::operator+<char,std::char_traits<char>,std::allocator<char> >
PUBLIC	??0?$basic_string@DU?$char_traits@D@std@@V?$allocator@D@2@@std@@QAE@PBD@Z ; std::basic_string<char,std::char_traits<char>,std::allocator<char> >::basic_string<char,std::char_traits<char>,std::allocator<char> >
PUBLIC	??_C@_0CB@NOKEJIID@?$DMPopLuaNumber?$DO?5Cannot?5retrieve?3?5@ ; `string'
PUBLIC	__$ArrayPad$
PUBLIC	??1runtime_error@std@@UAE@XZ			; std::runtime_error::~runtime_error
PUBLIC	__CTA2?AVruntime_error@std@@
PUBLIC	__CT??_R0?AVruntime_error@std@@@8??0runtime_error@std@@QAE@ABV01@@Z12
PUBLIC	??_R0?AVruntime_error@std@@@8			; std::runtime_error `RTTI Type Descriptor'
PUBLIC	??0runtime_error@std@@QAE@ABV01@@Z		; std::runtime_error::runtime_error
PUBLIC	__CT??_R0?AVexception@std@@@8??0exception@std@@QAE@ABV01@@Z12
PUBLIC	??_R0?AVexception@std@@@8			; std::exception `RTTI Type Descriptor'
EXTRN	_lua_tonumber:PROC
EXTRN	_lua_isnumber:PROC
EXTRN	_lua_getfield:PROC
EXTRN	_lua_settop:PROC
EXTRN	??0exception@std@@QAE@ABV01@@Z:PROC		; std::exception::exception
;	COMDAT ??_R0?AVexception@std@@@8
; File c:\users\teaja\documents\artificial-fun\labravenprojecttest\common\lua-5.1.3\src\luahelperfunctions.h
_DATA	SEGMENT
??_R0?AVexception@std@@@8 DD FLAT:??_7type_info@@6B@	; std::exception `RTTI Type Descriptor'
	DD	00H
	DB	'.?AVexception@std@@', 00H
_DATA	ENDS
;	COMDAT __CT??_R0?AVexception@std@@@8??0exception@std@@QAE@ABV01@@Z12
xdata$x	SEGMENT
__CT??_R0?AVexception@std@@@8??0exception@std@@QAE@ABV01@@Z12 DD 00H
	DD	FLAT:??_R0?AVexception@std@@@8
	DD	00H
	DD	0ffffffffH
	ORG $+4
	DD	0cH
	DD	FLAT:??0exception@std@@QAE@ABV01@@Z
xdata$x	ENDS
;	COMDAT ??_R0?AVruntime_error@std@@@8
_DATA	SEGMENT
??_R0?AVruntime_error@std@@@8 DD FLAT:??_7type_info@@6B@ ; std::runtime_error `RTTI Type Descriptor'
	DD	00H
	DB	'.?AVruntime_error@std@@', 00H
_DATA	ENDS
;	COMDAT __CT??_R0?AVruntime_error@std@@@8??0runtime_error@std@@QAE@ABV01@@Z12
xdata$x	SEGMENT
__CT??_R0?AVruntime_error@std@@@8??0runtime_error@std@@QAE@ABV01@@Z12 DD 00H
	DD	FLAT:??_R0?AVruntime_error@std@@@8
	DD	00H
	DD	0ffffffffH
	ORG $+4
	DD	0cH
	DD	FLAT:??0runtime_error@std@@QAE@ABV01@@Z
xdata$x	ENDS
;	COMDAT __CTA2?AVruntime_error@std@@
xdata$x	SEGMENT
__CTA2?AVruntime_error@std@@ DD 02H
	DD	FLAT:__CT??_R0?AVruntime_error@std@@@8??0runtime_error@std@@QAE@ABV01@@Z12
	DD	FLAT:__CT??_R0?AVexception@std@@@8??0exception@std@@QAE@ABV01@@Z12
xdata$x	ENDS
;	COMDAT __TI2?AVruntime_error@std@@
xdata$x	SEGMENT
__TI2?AVruntime_error@std@@ DD 00H
	DD	FLAT:??1runtime_error@std@@UAE@XZ
	DD	00H
	DD	FLAT:__CTA2?AVruntime_error@std@@
xdata$x	ENDS
;	COMDAT ??_C@_0CB@NOKEJIID@?$DMPopLuaNumber?$DO?5Cannot?5retrieve?3?5@
CONST	SEGMENT
??_C@_0CB@NOKEJIID@?$DMPopLuaNumber?$DO?5Cannot?5retrieve?3?5@ DB '<PopLu'
	DB	'aNumber> Cannot retrieve: ', 00H		; `string'
CONST	ENDS
;	COMDAT xdata$x
xdata$x	SEGMENT
__unwindtable$??$PopLuaNumber@N@@YANPAUlua_State@@PBD@Z DD 0ffffffffH
	DD	FLAT:__unwindfunclet$??$PopLuaNumber@N@@YANPAUlua_State@@PBD@Z$0
	DD	00H
	DD	FLAT:__unwindfunclet$??$PopLuaNumber@N@@YANPAUlua_State@@PBD@Z$1
__ehfuncinfo$??$PopLuaNumber@N@@YANPAUlua_State@@PBD@Z DD 019930522H
	DD	02H
	DD	FLAT:__unwindtable$??$PopLuaNumber@N@@YANPAUlua_State@@PBD@Z
	DD	2 DUP(00H)
	DD	2 DUP(00H)
	DD	00H
	DD	01H
; Function compile flags: /Odtp /RTCsu
xdata$x	ENDS
;	COMDAT ??$PopLuaNumber@N@@YANPAUlua_State@@PBD@Z
_TEXT	SEGMENT
tv94 = -116						; size = 4
tv74 = -112						; size = 4
$T142052 = -108						; size = 12
_val$ = -96						; size = 8
$T136676 = -88						; size = 32
_err$136675 = -52					; size = 32
__$ArrayPad$ = -16					; size = 4
__$EHRec$ = -12						; size = 12
_pL$ = 8						; size = 4
_name$ = 12						; size = 4
??$PopLuaNumber@N@@YANPAUlua_State@@PBD@Z PROC		; PopLuaNumber<double>, COMDAT

; 70   : {

	push	ebp
	mov	ebp, esp
	push	-1
	push	__ehhandler$??$PopLuaNumber@N@@YANPAUlua_State@@PBD@Z
	mov	eax, DWORD PTR fs:0
	push	eax
	sub	esp, 104				; 00000068H
	push	edi
	lea	edi, DWORD PTR [ebp-116]
	mov	ecx, 26					; 0000001aH
	mov	eax, -858993460				; ccccccccH
	rep stosd
	mov	eax, DWORD PTR ___security_cookie
	xor	eax, ebp
	mov	DWORD PTR __$ArrayPad$[ebp], eax
	push	eax
	lea	eax, DWORD PTR __$EHRec$[ebp]
	mov	DWORD PTR fs:0, eax

; 71   :   lua_settop(pL, 0);

	push	0
	mov	eax, DWORD PTR _pL$[ebp]
	push	eax
	call	_lua_settop
	add	esp, 8

; 72   : 
; 73   :   lua_getglobal(pL, name);

	mov	ecx, DWORD PTR _name$[ebp]
	push	ecx
	push	-10002					; ffffd8eeH
	mov	edx, DWORD PTR _pL$[ebp]
	push	edx
	call	_lua_getfield
	add	esp, 12					; 0000000cH

; 74   : 
; 75   :   //check that the variable is the correct type. If it is not throw an
; 76   :   //exception
; 77   :   if (!lua_isnumber(pL, 1))

	push	1
	mov	eax, DWORD PTR _pL$[ebp]
	push	eax
	call	_lua_isnumber
	add	esp, 8
	test	eax, eax
	jne	SHORT $LN1@PopLuaNumb

; 78   :   {
; 79   :     std::string err("<PopLuaNumber> Cannot retrieve: ");

	push	OFFSET ??_C@_0CB@NOKEJIID@?$DMPopLuaNumber?$DO?5Cannot?5retrieve?3?5@
	lea	ecx, DWORD PTR _err$136675[ebp]
	call	??0?$basic_string@DU?$char_traits@D@std@@V?$allocator@D@2@@std@@QAE@PBD@Z ; std::basic_string<char,std::char_traits<char>,std::allocator<char> >::basic_string<char,std::char_traits<char>,std::allocator<char> >
	mov	DWORD PTR __$EHRec$[ebp+8], 0

; 80   : 
; 81   :     throw std::runtime_error(err + name);

	mov	ecx, DWORD PTR _name$[ebp]
	push	ecx
	lea	edx, DWORD PTR _err$136675[ebp]
	push	edx
	lea	eax, DWORD PTR $T136676[ebp]
	push	eax
	call	??$?HDU?$char_traits@D@std@@V?$allocator@D@1@@std@@YA?AV?$basic_string@DU?$char_traits@D@std@@V?$allocator@D@2@@0@ABV10@PBD@Z ; std::operator+<char,std::char_traits<char>,std::allocator<char> >
	add	esp, 12					; 0000000cH
	mov	DWORD PTR tv74[ebp], eax
	mov	ecx, DWORD PTR tv74[ebp]
	mov	DWORD PTR tv94[ebp], ecx
	mov	BYTE PTR __$EHRec$[ebp+8], 1
	mov	edx, DWORD PTR tv94[ebp]
	push	edx
	lea	ecx, DWORD PTR $T142052[ebp]
	call	??0runtime_error@std@@QAE@ABV?$basic_string@DU?$char_traits@D@std@@V?$allocator@D@2@@1@@Z ; std::runtime_error::runtime_error
	push	OFFSET __TI2?AVruntime_error@std@@
	lea	eax, DWORD PTR $T142052[ebp]
	push	eax
	call	__CxxThrowException@8
	mov	BYTE PTR __$EHRec$[ebp+8], 0
	lea	ecx, DWORD PTR $T136676[ebp]
	call	??1?$basic_string@DU?$char_traits@D@std@@V?$allocator@D@2@@std@@QAE@XZ ; std::basic_string<char,std::char_traits<char>,std::allocator<char> >::~basic_string<char,std::char_traits<char>,std::allocator<char> >

; 82   :   }

	mov	DWORD PTR __$EHRec$[ebp+8], -1
	lea	ecx, DWORD PTR _err$136675[ebp]
	call	??1?$basic_string@DU?$char_traits@D@std@@V?$allocator@D@2@@std@@QAE@XZ ; std::basic_string<char,std::char_traits<char>,std::allocator<char> >::~basic_string<char,std::char_traits<char>,std::allocator<char> >
$LN1@PopLuaNumb:

; 83   : 
; 84   :   //grab the value, cast to the correct type and return
; 85   :   T val = (T)lua_tonumber(pL, 1);

	push	1
	mov	ecx, DWORD PTR _pL$[ebp]
	push	ecx
	call	_lua_tonumber
	add	esp, 8
	fstp	QWORD PTR _val$[ebp]

; 86   : 
; 87   :   //remove the value from the stack
; 88   :   lua_pop(pL, 1);

	push	-2					; fffffffeH
	mov	edx, DWORD PTR _pL$[ebp]
	push	edx
	call	_lua_settop
	add	esp, 8

; 89   : 
; 90   :   return val;

	fld	QWORD PTR _val$[ebp]
$LN2@PopLuaNumb:

; 91   : }

	push	edx
	mov	ecx, ebp
	push	eax
	lea	edx, DWORD PTR $LN9@PopLuaNumb
	call	@_RTC_CheckStackVars@8
	pop	eax
	pop	edx
	mov	ecx, DWORD PTR __$EHRec$[ebp]
	mov	DWORD PTR fs:0, ecx
	pop	ecx
	pop	edi
	mov	ecx, DWORD PTR __$ArrayPad$[ebp]
	xor	ecx, ebp
	call	@__security_check_cookie@4
	add	esp, 116				; 00000074H
	cmp	ebp, esp
	call	__RTC_CheckEsp
	mov	esp, ebp
	pop	ebp
	ret	0
	npad	2
$LN9@PopLuaNumb:
	DD	1
	DD	$LN8@PopLuaNumb
$LN8@PopLuaNumb:
	DD	-52					; ffffffccH
	DD	32					; 00000020H
	DD	$LN6@PopLuaNumb
$LN6@PopLuaNumb:
	DB	101					; 00000065H
	DB	114					; 00000072H
	DB	114					; 00000072H
	DB	0
_TEXT	ENDS
;	COMDAT text$x
text$x	SEGMENT
__unwindfunclet$??$PopLuaNumber@N@@YANPAUlua_State@@PBD@Z$0:
	lea	ecx, DWORD PTR _err$136675[ebp]
	jmp	??1?$basic_string@DU?$char_traits@D@std@@V?$allocator@D@2@@std@@QAE@XZ ; std::basic_string<char,std::char_traits<char>,std::allocator<char> >::~basic_string<char,std::char_traits<char>,std::allocator<char> >
__unwindfunclet$??$PopLuaNumber@N@@YANPAUlua_State@@PBD@Z$1:
	lea	ecx, DWORD PTR $T136676[ebp]
	jmp	??1?$basic_string@DU?$char_traits@D@std@@V?$allocator@D@2@@std@@QAE@XZ ; std::basic_string<char,std::char_traits<char>,std::allocator<char> >::~basic_string<char,std::char_traits<char>,std::allocator<char> >
__ehhandler$??$PopLuaNumber@N@@YANPAUlua_State@@PBD@Z:
	mov	edx, DWORD PTR [esp+8]
	lea	eax, DWORD PTR [edx+12]
	mov	ecx, DWORD PTR [edx-112]
	xor	ecx, eax
	call	@__security_check_cookie@4
	mov	ecx, DWORD PTR [edx-4]
	xor	ecx, eax
	call	@__security_check_cookie@4
	mov	eax, OFFSET __ehfuncinfo$??$PopLuaNumber@N@@YANPAUlua_State@@PBD@Z
	jmp	___CxxFrameHandler3
text$x	ENDS
??$PopLuaNumber@N@@YANPAUlua_State@@PBD@Z ENDP		; PopLuaNumber<double>
PUBLIC	??_7runtime_error@std@@6B@			; std::runtime_error::`vftable'
PUBLIC	??_R4runtime_error@std@@6B@			; std::runtime_error::`RTTI Complete Object Locator'
PUBLIC	??_R3runtime_error@std@@8			; std::runtime_error::`RTTI Class Hierarchy Descriptor'
PUBLIC	??_R2runtime_error@std@@8			; std::runtime_error::`RTTI Base Class Array'
PUBLIC	??_R1A@?0A@EA@runtime_error@std@@8		; std::runtime_error::`RTTI Base Class Descriptor at (0,-1,0,64)'
PUBLIC	??_R1A@?0A@EA@exception@std@@8			; std::exception::`RTTI Base Class Descriptor at (0,-1,0,64)'
PUBLIC	??_R3exception@std@@8				; std::exception::`RTTI Class Hierarchy Descriptor'
PUBLIC	??_R2exception@std@@8				; std::exception::`RTTI Base Class Array'
EXTRN	??0exception@std@@QAE@ABQBD@Z:PROC		; std::exception::exception
EXTRN	??_Eruntime_error@std@@UAEPAXI@Z:PROC		; std::runtime_error::`vector deleting destructor'
EXTRN	?what@exception@std@@UBEPBDXZ:PROC		; std::exception::what
;	COMDAT ??_R2exception@std@@8
; File c:\program files (x86)\microsoft visual studio 10.0\vc\include\stdexcept
rdata$r	SEGMENT
??_R2exception@std@@8 DD FLAT:??_R1A@?0A@EA@exception@std@@8 ; std::exception::`RTTI Base Class Array'
rdata$r	ENDS
;	COMDAT ??_R3exception@std@@8
rdata$r	SEGMENT
??_R3exception@std@@8 DD 00H				; std::exception::`RTTI Class Hierarchy Descriptor'
	DD	00H
	DD	01H
	DD	FLAT:??_R2exception@std@@8
rdata$r	ENDS
;	COMDAT ??_R1A@?0A@EA@exception@std@@8
rdata$r	SEGMENT
??_R1A@?0A@EA@exception@std@@8 DD FLAT:??_R0?AVexception@std@@@8 ; std::exception::`RTTI Base Class Descriptor at (0,-1,0,64)'
	DD	00H
	DD	00H
	DD	0ffffffffH
	DD	00H
	DD	040H
	DD	FLAT:??_R3exception@std@@8
rdata$r	ENDS
;	COMDAT ??_R1A@?0A@EA@runtime_error@std@@8
rdata$r	SEGMENT
??_R1A@?0A@EA@runtime_error@std@@8 DD FLAT:??_R0?AVruntime_error@std@@@8 ; std::runtime_error::`RTTI Base Class Descriptor at (0,-1,0,64)'
	DD	01H
	DD	00H
	DD	0ffffffffH
	DD	00H
	DD	040H
	DD	FLAT:??_R3runtime_error@std@@8
rdata$r	ENDS
;	COMDAT ??_R2runtime_error@std@@8
rdata$r	SEGMENT
??_R2runtime_error@std@@8 DD FLAT:??_R1A@?0A@EA@runtime_error@std@@8 ; std::runtime_error::`RTTI Base Class Array'
	DD	FLAT:??_R1A@?0A@EA@exception@std@@8
rdata$r	ENDS
;	COMDAT ??_R3runtime_error@std@@8
rdata$r	SEGMENT
??_R3runtime_error@std@@8 DD 00H			; std::runtime_error::`RTTI Class Hierarchy Descriptor'
	DD	00H
	DD	02H
	DD	FLAT:??_R2runtime_error@std@@8
rdata$r	ENDS
;	COMDAT ??_R4runtime_error@std@@6B@
rdata$r	SEGMENT
??_R4runtime_error@std@@6B@ DD 00H			; std::runtime_error::`RTTI Complete Object Locator'
	DD	00H
	DD	00H
	DD	FLAT:??_R0?AVruntime_error@std@@@8
	DD	FLAT:??_R3runtime_error@std@@8
rdata$r	ENDS
;	COMDAT ??_7runtime_error@std@@6B@
CONST	SEGMENT
??_7runtime_error@std@@6B@ DD FLAT:??_R4runtime_error@std@@6B@ ; std::runtime_error::`vftable'
	DD	FLAT:??_Eruntime_error@std@@UAEPAXI@Z
	DD	FLAT:?what@exception@std@@UBEPBDXZ
; Function compile flags: /Odtp /RTCsu
CONST	ENDS
;	COMDAT ??0runtime_error@std@@QAE@ABV?$basic_string@DU?$char_traits@D@std@@V?$allocator@D@2@@1@@Z
_TEXT	SEGMENT
$T142066 = -8						; size = 4
_this$ = -4						; size = 4
__Message$ = 8						; size = 4
??0runtime_error@std@@QAE@ABV?$basic_string@DU?$char_traits@D@std@@V?$allocator@D@2@@1@@Z PROC ; std::runtime_error::runtime_error, COMDAT
; _this$ = ecx

; 165  : 		{	// construct from message string

	push	ebp
	mov	ebp, esp
	sub	esp, 8
	mov	DWORD PTR [ebp-8], -858993460		; ccccccccH
	mov	DWORD PTR [ebp-4], -858993460		; ccccccccH
	mov	DWORD PTR _this$[ebp], ecx
	mov	ecx, DWORD PTR __Message$[ebp]
	call	?c_str@?$basic_string@DU?$char_traits@D@std@@V?$allocator@D@2@@std@@QBEPBDXZ ; std::basic_string<char,std::char_traits<char>,std::allocator<char> >::c_str
	mov	DWORD PTR $T142066[ebp], eax
	lea	eax, DWORD PTR $T142066[ebp]
	push	eax
	mov	ecx, DWORD PTR _this$[ebp]
	call	??0exception@std@@QAE@ABQBD@Z		; std::exception::exception
	mov	ecx, DWORD PTR _this$[ebp]
	mov	DWORD PTR [ecx], OFFSET ??_7runtime_error@std@@6B@

; 166  : 		}

	mov	eax, DWORD PTR _this$[ebp]
	add	esp, 8
	cmp	ebp, esp
	call	__RTC_CheckEsp
	mov	esp, ebp
	pop	ebp
	ret	4
??0runtime_error@std@@QAE@ABV?$basic_string@DU?$char_traits@D@std@@V?$allocator@D@2@@1@@Z ENDP ; std::runtime_error::runtime_error
; Function compile flags: /Odtp /RTCsu
_TEXT	ENDS
;	COMDAT ??_Gruntime_error@std@@UAEPAXI@Z
_TEXT	SEGMENT
_this$ = -4						; size = 4
___flags$ = 8						; size = 4
??_Gruntime_error@std@@UAEPAXI@Z PROC			; std::runtime_error::`scalar deleting destructor', COMDAT
; _this$ = ecx
	push	ebp
	mov	ebp, esp
	push	ecx
	mov	DWORD PTR [ebp-4], -858993460		; ccccccccH
	mov	DWORD PTR _this$[ebp], ecx
	mov	ecx, DWORD PTR _this$[ebp]
	call	??1runtime_error@std@@UAE@XZ
	mov	eax, DWORD PTR ___flags$[ebp]
	and	eax, 1
	je	SHORT $LN1@scalar@7
	mov	ecx, DWORD PTR _this$[ebp]
	push	ecx
	call	??3@YAXPAX@Z				; operator delete
	add	esp, 4
$LN1@scalar@7:
	mov	eax, DWORD PTR _this$[ebp]
	add	esp, 4
	cmp	ebp, esp
	call	__RTC_CheckEsp
	mov	esp, ebp
	pop	ebp
	ret	4
??_Gruntime_error@std@@UAEPAXI@Z ENDP			; std::runtime_error::`scalar deleting destructor'
_TEXT	ENDS
EXTRN	??1exception@std@@UAE@XZ:PROC			; std::exception::~exception
; Function compile flags: /Odtp /RTCsu
;	COMDAT ??1runtime_error@std@@UAE@XZ
_TEXT	SEGMENT
_this$ = -4						; size = 4
??1runtime_error@std@@UAE@XZ PROC			; std::runtime_error::~runtime_error, COMDAT
; _this$ = ecx
	push	ebp
	mov	ebp, esp
	push	ecx
	mov	DWORD PTR [ebp-4], -858993460		; ccccccccH
	mov	DWORD PTR _this$[ebp], ecx
	mov	ecx, DWORD PTR _this$[ebp]
	call	??1exception@std@@UAE@XZ		; std::exception::~exception
	add	esp, 4
	cmp	ebp, esp
	call	__RTC_CheckEsp
	mov	esp, ebp
	pop	ebp
	ret	0
??1runtime_error@std@@UAE@XZ ENDP			; std::runtime_error::~runtime_error
; Function compile flags: /Odtp /RTCsu
_TEXT	ENDS
;	COMDAT ??0runtime_error@std@@QAE@ABV01@@Z
_TEXT	SEGMENT
_this$ = -4						; size = 4
___that$ = 8						; size = 4
??0runtime_error@std@@QAE@ABV01@@Z PROC			; std::runtime_error::runtime_error, COMDAT
; _this$ = ecx
	push	ebp
	mov	ebp, esp
	push	ecx
	mov	DWORD PTR [ebp-4], -858993460		; ccccccccH
	mov	DWORD PTR _this$[ebp], ecx
	mov	eax, DWORD PTR ___that$[ebp]
	push	eax
	mov	ecx, DWORD PTR _this$[ebp]
	call	??0exception@std@@QAE@ABV01@@Z		; std::exception::exception
	mov	ecx, DWORD PTR _this$[ebp]
	mov	DWORD PTR [ecx], OFFSET ??_7runtime_error@std@@6B@
	mov	eax, DWORD PTR _this$[ebp]
	add	esp, 4
	cmp	ebp, esp
	call	__RTC_CheckEsp
	mov	esp, ebp
	pop	ebp
	ret	4
??0runtime_error@std@@QAE@ABV01@@Z ENDP			; std::runtime_error::runtime_error
_TEXT	ENDS
PUBLIC	?assign@?$basic_string@DU?$char_traits@D@std@@V?$allocator@D@2@@std@@QAEAAV12@PBD@Z ; std::basic_string<char,std::char_traits<char>,std::allocator<char> >::assign
PUBLIC	??0?$_String_val@DV?$allocator@D@std@@@std@@QAE@V?$allocator@D@1@@Z ; std::_String_val<char,std::allocator<char> >::_String_val<char,std::allocator<char> >
PUBLIC	??0?$allocator@D@std@@QAE@XZ			; std::allocator<char>::allocator<char>
;	COMDAT xdata$x
; File c:\program files (x86)\microsoft visual studio 10.0\vc\include\xstring
xdata$x	SEGMENT
__unwindtable$??0?$basic_string@DU?$char_traits@D@std@@V?$allocator@D@2@@std@@QAE@PBD@Z DD 0ffffffffH
	DD	FLAT:__unwindfunclet$??0?$basic_string@DU?$char_traits@D@std@@V?$allocator@D@2@@std@@QAE@PBD@Z$0
__ehfuncinfo$??0?$basic_string@DU?$char_traits@D@std@@V?$allocator@D@2@@std@@QAE@PBD@Z DD 019930522H
	DD	01H
	DD	FLAT:__unwindtable$??0?$basic_string@DU?$char_traits@D@std@@V?$allocator@D@2@@std@@QAE@PBD@Z
	DD	2 DUP(00H)
	DD	2 DUP(00H)
	DD	00H
	DD	01H
; Function compile flags: /Odtp /RTCsu
xdata$x	ENDS
;	COMDAT ??0?$basic_string@DU?$char_traits@D@std@@V?$allocator@D@2@@std@@QAE@PBD@Z
_TEXT	SEGMENT
$T142078 = -20						; size = 4
_this$ = -16						; size = 4
__$EHRec$ = -12						; size = 12
__Ptr$ = 8						; size = 4
??0?$basic_string@DU?$char_traits@D@std@@V?$allocator@D@2@@std@@QAE@PBD@Z PROC ; std::basic_string<char,std::char_traits<char>,std::allocator<char> >::basic_string<char,std::char_traits<char>,std::allocator<char> >, COMDAT
; _this$ = ecx

; 592  : 		{	// construct from [_Ptr, <null>)

	push	ebp
	mov	ebp, esp
	push	-1
	push	__ehhandler$??0?$basic_string@DU?$char_traits@D@std@@V?$allocator@D@2@@std@@QAE@PBD@Z
	mov	eax, DWORD PTR fs:0
	push	eax
	sub	esp, 8
	mov	DWORD PTR [ebp-20], -858993460		; ccccccccH
	mov	DWORD PTR [ebp-16], -858993460		; ccccccccH
	mov	eax, DWORD PTR ___security_cookie
	xor	eax, ebp
	push	eax
	lea	eax, DWORD PTR __$EHRec$[ebp]
	mov	DWORD PTR fs:0, eax
	mov	DWORD PTR _this$[ebp], ecx
	push	ecx
	mov	ecx, esp
	mov	DWORD PTR $T142078[ebp], esp
	call	??0?$allocator@D@std@@QAE@XZ		; std::allocator<char>::allocator<char>
	mov	ecx, DWORD PTR _this$[ebp]
	call	??0?$_String_val@DV?$allocator@D@std@@@std@@QAE@V?$allocator@D@1@@Z ; std::_String_val<char,std::allocator<char> >::_String_val<char,std::allocator<char> >
	mov	DWORD PTR __$EHRec$[ebp+8], 0

; 593  : 		_Tidy();

	push	0
	push	0
	mov	ecx, DWORD PTR _this$[ebp]
	call	?_Tidy@?$basic_string@DU?$char_traits@D@std@@V?$allocator@D@2@@std@@QAEX_NI@Z ; std::basic_string<char,std::char_traits<char>,std::allocator<char> >::_Tidy

; 594  : 		assign(_Ptr);

	mov	eax, DWORD PTR __Ptr$[ebp]
	push	eax
	mov	ecx, DWORD PTR _this$[ebp]
	call	?assign@?$basic_string@DU?$char_traits@D@std@@V?$allocator@D@2@@std@@QAEAAV12@PBD@Z ; std::basic_string<char,std::char_traits<char>,std::allocator<char> >::assign

; 595  : 		}

	mov	DWORD PTR __$EHRec$[ebp+8], -1
	mov	eax, DWORD PTR _this$[ebp]
	mov	ecx, DWORD PTR __$EHRec$[ebp]
	mov	DWORD PTR fs:0, ecx
	pop	ecx
	add	esp, 20					; 00000014H
	cmp	ebp, esp
	call	__RTC_CheckEsp
	mov	esp, ebp
	pop	ebp
	ret	4
_TEXT	ENDS
;	COMDAT text$x
text$x	SEGMENT
__unwindfunclet$??0?$basic_string@DU?$char_traits@D@std@@V?$allocator@D@2@@std@@QAE@PBD@Z$0:
	mov	ecx, DWORD PTR _this$[ebp]
	jmp	??1?$_String_val@DV?$allocator@D@std@@@std@@QAE@XZ ; std::_String_val<char,std::allocator<char> >::~_String_val<char,std::allocator<char> >
__ehhandler$??0?$basic_string@DU?$char_traits@D@std@@V?$allocator@D@2@@std@@QAE@PBD@Z:
	mov	edx, DWORD PTR [esp+8]
	lea	eax, DWORD PTR [edx+12]
	mov	ecx, DWORD PTR [edx-12]
	xor	ecx, eax
	call	@__security_check_cookie@4
	mov	eax, OFFSET __ehfuncinfo$??0?$basic_string@DU?$char_traits@D@std@@V?$allocator@D@2@@std@@QAE@PBD@Z
	jmp	___CxxFrameHandler3
text$x	ENDS
??0?$basic_string@DU?$char_traits@D@std@@V?$allocator@D@2@@std@@QAE@PBD@Z ENDP ; std::basic_string<char,std::char_traits<char>,std::allocator<char> >::basic_string<char,std::char_traits<char>,std::allocator<char> >
PUBLIC	?assign@?$basic_string@DU?$char_traits@D@std@@V?$allocator@D@2@@std@@QAEAAV12@PBDI@Z ; std::basic_string<char,std::char_traits<char>,std::allocator<char> >::assign
PUBLIC	?length@?$char_traits@D@std@@SAIPBD@Z		; std::char_traits<char>::length
PUBLIC	??$_Debug_pointer@D@std@@YAXPBDPB_WI@Z		; std::_Debug_pointer<char>
PUBLIC	??_C@_1IO@FJMIILFL@?$AAc?$AA?3?$AA?2?$AAP?$AAr?$AAo?$AAg?$AAr?$AAa?$AAm?$AA?5?$AAF?$AAi?$AAl?$AAe?$AAs?$AA?5?$AA?$CI?$AAx?$AA8?$AA6?$AA?$CJ?$AA?2?$AAM?$AAi?$AAc?$AAr?$AAo?$AAs?$AAo?$AAf?$AAt@ ; `string'
;	COMDAT ??_C@_1IO@FJMIILFL@?$AAc?$AA?3?$AA?2?$AAP?$AAr?$AAo?$AAg?$AAr?$AAa?$AAm?$AA?5?$AAF?$AAi?$AAl?$AAe?$AAs?$AA?5?$AA?$CI?$AAx?$AA8?$AA6?$AA?$CJ?$AA?2?$AAM?$AAi?$AAc?$AAr?$AAo?$AAs?$AAo?$AAf?$AAt@
CONST	SEGMENT
??_C@_1IO@FJMIILFL@?$AAc?$AA?3?$AA?2?$AAP?$AAr?$AAo?$AAg?$AAr?$AAa?$AAm?$AA?5?$AAF?$AAi?$AAl?$AAe?$AAs?$AA?5?$AA?$CI?$AAx?$AA8?$AA6?$AA?$CJ?$AA?2?$AAM?$AAi?$AAc?$AAr?$AAo?$AAs?$AAo?$AAf?$AAt@ DB 'c'
	DB	00H, ':', 00H, '\', 00H, 'P', 00H, 'r', 00H, 'o', 00H, 'g', 00H
	DB	'r', 00H, 'a', 00H, 'm', 00H, ' ', 00H, 'F', 00H, 'i', 00H, 'l'
	DB	00H, 'e', 00H, 's', 00H, ' ', 00H, '(', 00H, 'x', 00H, '8', 00H
	DB	'6', 00H, ')', 00H, '\', 00H, 'M', 00H, 'i', 00H, 'c', 00H, 'r'
	DB	00H, 'o', 00H, 's', 00H, 'o', 00H, 'f', 00H, 't', 00H, ' ', 00H
	DB	'V', 00H, 'i', 00H, 's', 00H, 'u', 00H, 'a', 00H, 'l', 00H, ' '
	DB	00H, 'S', 00H, 't', 00H, 'u', 00H, 'd', 00H, 'i', 00H, 'o', 00H
	DB	' ', 00H, '1', 00H, '0', 00H, '.', 00H, '0', 00H, '\', 00H, 'V'
	DB	00H, 'C', 00H, '\', 00H, 'i', 00H, 'n', 00H, 'c', 00H, 'l', 00H
	DB	'u', 00H, 'd', 00H, 'e', 00H, '\', 00H, 'x', 00H, 's', 00H, 't'
	DB	00H, 'r', 00H, 'i', 00H, 'n', 00H, 'g', 00H, 00H, 00H ; `string'
; Function compile flags: /Odtp /RTCsu
CONST	ENDS
;	COMDAT ?assign@?$basic_string@DU?$char_traits@D@std@@V?$allocator@D@2@@std@@QAEAAV12@PBD@Z
_TEXT	SEGMENT
_this$ = -4						; size = 4
__Ptr$ = 8						; size = 4
?assign@?$basic_string@DU?$char_traits@D@std@@V?$allocator@D@2@@std@@QAEAAV12@PBD@Z PROC ; std::basic_string<char,std::char_traits<char>,std::allocator<char> >::assign, COMDAT
; _this$ = ecx

; 928  : 		{	// assign [_Ptr, <null>)

	push	ebp
	mov	ebp, esp
	push	ecx
	mov	DWORD PTR [ebp-4], -858993460		; ccccccccH
	mov	DWORD PTR _this$[ebp], ecx

; 929  : 		_DEBUG_POINTER(_Ptr);

	push	929					; 000003a1H
	push	OFFSET ??_C@_1IO@FJMIILFL@?$AAc?$AA?3?$AA?2?$AAP?$AAr?$AAo?$AAg?$AAr?$AAa?$AAm?$AA?5?$AAF?$AAi?$AAl?$AAe?$AAs?$AA?5?$AA?$CI?$AAx?$AA8?$AA6?$AA?$CJ?$AA?2?$AAM?$AAi?$AAc?$AAr?$AAo?$AAs?$AAo?$AAf?$AAt@
	mov	eax, DWORD PTR __Ptr$[ebp]
	push	eax
	call	??$_Debug_pointer@D@std@@YAXPBDPB_WI@Z	; std::_Debug_pointer<char>
	add	esp, 12					; 0000000cH

; 930  : 		return (assign(_Ptr, _Traits::length(_Ptr)));

	mov	ecx, DWORD PTR __Ptr$[ebp]
	push	ecx
	call	?length@?$char_traits@D@std@@SAIPBD@Z	; std::char_traits<char>::length
	add	esp, 4
	push	eax
	mov	edx, DWORD PTR __Ptr$[ebp]
	push	edx
	mov	ecx, DWORD PTR _this$[ebp]
	call	?assign@?$basic_string@DU?$char_traits@D@std@@V?$allocator@D@2@@std@@QAEAAV12@PBDI@Z ; std::basic_string<char,std::char_traits<char>,std::allocator<char> >::assign

; 931  : 		}

	add	esp, 4
	cmp	ebp, esp
	call	__RTC_CheckEsp
	mov	esp, ebp
	pop	ebp
	ret	4
?assign@?$basic_string@DU?$char_traits@D@std@@V?$allocator@D@2@@std@@QAEAAV12@PBD@Z ENDP ; std::basic_string<char,std::char_traits<char>,std::allocator<char> >::assign
_TEXT	ENDS
EXTRN	_strlen:PROC
; Function compile flags: /Odtp /RTCsu
; File c:\program files (x86)\microsoft visual studio 10.0\vc\include\iosfwd
;	COMDAT ?length@?$char_traits@D@std@@SAIPBD@Z
_TEXT	SEGMENT
__First$ = 8						; size = 4
?length@?$char_traits@D@std@@SAIPBD@Z PROC		; std::char_traits<char>::length, COMDAT

; 490  : 		{	// find length of null-terminated string

	push	ebp
	mov	ebp, esp

; 491  : 		return (_CSTD strlen(_First));

	mov	eax, DWORD PTR __First$[ebp]
	push	eax
	call	_strlen
	add	esp, 4

; 492  : 		}

	cmp	ebp, esp
	call	__RTC_CheckEsp
	pop	ebp
	ret	0
?length@?$char_traits@D@std@@SAIPBD@Z ENDP		; std::char_traits<char>::length
_TEXT	ENDS
PUBLIC	??$_Cons_val@V?$allocator@U_Container_proxy@std@@@std@@U_Container_proxy@2@U32@@std@@YAXAAV?$allocator@U_Container_proxy@std@@@0@PAU_Container_proxy@0@$$QAU20@@Z ; std::_Cons_val<std::allocator<std::_Container_proxy>,std::_Container_proxy,std::_Container_proxy>
PUBLIC	??0_Container_proxy@std@@QAE@XZ			; std::_Container_proxy::_Container_proxy
PUBLIC	?allocate@?$allocator@U_Container_proxy@std@@@std@@QAEPAU_Container_proxy@2@I@Z ; std::allocator<std::_Container_proxy>::allocate
PUBLIC	??0?$allocator@D@std@@QAE@ABV01@@Z		; std::allocator<char>::allocator<char>
PUBLIC	??0_Container_base12@std@@QAE@XZ		; std::_Container_base12::_Container_base12
;	COMDAT xdata$x
; File c:\program files (x86)\microsoft visual studio 10.0\vc\include\xstring
xdata$x	SEGMENT
__unwindtable$??0?$_String_val@DV?$allocator@D@std@@@std@@QAE@V?$allocator@D@1@@Z DD 0ffffffffH
	DD	FLAT:__unwindfunclet$??0?$_String_val@DV?$allocator@D@std@@@std@@QAE@V?$allocator@D@1@@Z$0
__ehfuncinfo$??0?$_String_val@DV?$allocator@D@std@@@std@@QAE@V?$allocator@D@1@@Z DD 019930522H
	DD	01H
	DD	FLAT:__unwindtable$??0?$_String_val@DV?$allocator@D@std@@@std@@QAE@V?$allocator@D@1@@Z
	DD	2 DUP(00H)
	DD	2 DUP(00H)
	DD	00H
	DD	01H
; Function compile flags: /Odtp /RTCsu
xdata$x	ENDS
;	COMDAT ??0?$_String_val@DV?$allocator@D@std@@@std@@QAE@V?$allocator@D@1@@Z
_TEXT	SEGMENT
$T142092 = -36						; size = 8
__Alproxy$ = -21					; size = 1
_this$ = -16						; size = 4
__$EHRec$ = -12						; size = 12
__Al$ = 8						; size = 1
??0?$_String_val@DV?$allocator@D@std@@@std@@QAE@V?$allocator@D@1@@Z PROC ; std::_String_val<char,std::allocator<char> >::_String_val<char,std::allocator<char> >, COMDAT
; _this$ = ecx

; 466  : 		{	// construct allocator from _Al

	push	ebp
	mov	ebp, esp
	push	-1
	push	__ehhandler$??0?$_String_val@DV?$allocator@D@std@@@std@@QAE@V?$allocator@D@1@@Z
	mov	eax, DWORD PTR fs:0
	push	eax
	sub	esp, 24					; 00000018H
	mov	eax, -858993460				; ccccccccH
	mov	DWORD PTR [ebp-36], eax
	mov	DWORD PTR [ebp-32], eax
	mov	DWORD PTR [ebp-28], eax
	mov	DWORD PTR [ebp-24], eax
	mov	DWORD PTR [ebp-20], eax
	mov	DWORD PTR [ebp-16], eax
	mov	eax, DWORD PTR ___security_cookie
	xor	eax, ebp
	push	eax
	lea	eax, DWORD PTR __$EHRec$[ebp]
	mov	DWORD PTR fs:0, eax
	mov	DWORD PTR _this$[ebp], ecx
	mov	ecx, DWORD PTR _this$[ebp]
	call	??0_Container_base12@std@@QAE@XZ	; std::_Container_base12::_Container_base12
	mov	DWORD PTR __$EHRec$[ebp+8], 0
	lea	eax, DWORD PTR __Al$[ebp]
	push	eax
	mov	ecx, DWORD PTR _this$[ebp]
	add	ecx, 28					; 0000001cH
	call	??0?$allocator@D@std@@QAE@ABV01@@Z	; std::allocator<char>::allocator<char>

; 467  : 		typename _Alloc::template rebind<_Container_proxy>::other
; 468  : 			_Alproxy(_Alval);

	mov	ecx, DWORD PTR _this$[ebp]
	add	ecx, 28					; 0000001cH
	push	ecx
	lea	ecx, DWORD PTR __Alproxy$[ebp]
	call	??$?0D@?$allocator@U_Container_proxy@std@@@std@@QAE@ABV?$allocator@D@1@@Z ; std::allocator<std::_Container_proxy>::allocator<std::_Container_proxy><char>

; 469  : 		this->_Myproxy = _Alproxy.allocate(1);

	push	1
	lea	ecx, DWORD PTR __Alproxy$[ebp]
	call	?allocate@?$allocator@U_Container_proxy@std@@@std@@QAEPAU_Container_proxy@2@I@Z ; std::allocator<std::_Container_proxy>::allocate
	mov	edx, DWORD PTR _this$[ebp]
	mov	DWORD PTR [edx], eax

; 470  : 		_Cons_val(_Alproxy, this->_Myproxy, _Container_proxy());

	lea	ecx, DWORD PTR $T142092[ebp]
	call	??0_Container_proxy@std@@QAE@XZ		; std::_Container_proxy::_Container_proxy
	push	eax
	mov	eax, DWORD PTR _this$[ebp]
	mov	ecx, DWORD PTR [eax]
	push	ecx
	lea	edx, DWORD PTR __Alproxy$[ebp]
	push	edx
	call	??$_Cons_val@V?$allocator@U_Container_proxy@std@@@std@@U_Container_proxy@2@U32@@std@@YAXAAV?$allocator@U_Container_proxy@std@@@0@PAU_Container_proxy@0@$$QAU20@@Z ; std::_Cons_val<std::allocator<std::_Container_proxy>,std::_Container_proxy,std::_Container_proxy>
	add	esp, 12					; 0000000cH

; 471  : 		this->_Myproxy->_Mycont = this;

	mov	eax, DWORD PTR _this$[ebp]
	mov	ecx, DWORD PTR [eax]
	mov	edx, DWORD PTR _this$[ebp]
	mov	DWORD PTR [ecx], edx

; 472  : 		}

	mov	DWORD PTR __$EHRec$[ebp+8], -1
	mov	eax, DWORD PTR _this$[ebp]
	push	edx
	mov	ecx, ebp
	push	eax
	lea	edx, DWORD PTR $LN7@String_val@2
	call	@_RTC_CheckStackVars@8
	pop	eax
	pop	edx
	mov	ecx, DWORD PTR __$EHRec$[ebp]
	mov	DWORD PTR fs:0, ecx
	pop	ecx
	add	esp, 36					; 00000024H
	cmp	ebp, esp
	call	__RTC_CheckEsp
	mov	esp, ebp
	pop	ebp
	ret	4
	npad	2
$LN7@String_val@2:
	DD	1
	DD	$LN6@String_val@2
$LN6@String_val@2:
	DD	-21					; ffffffebH
	DD	1
	DD	$LN4@String_val@2
$LN4@String_val@2:
	DB	95					; 0000005fH
	DB	65					; 00000041H
	DB	108					; 0000006cH
	DB	112					; 00000070H
	DB	114					; 00000072H
	DB	111					; 0000006fH
	DB	120					; 00000078H
	DB	121					; 00000079H
	DB	0
_TEXT	ENDS
;	COMDAT text$x
text$x	SEGMENT
__unwindfunclet$??0?$_String_val@DV?$allocator@D@std@@@std@@QAE@V?$allocator@D@1@@Z$0:
	mov	ecx, DWORD PTR _this$[ebp]
	jmp	??1_Container_base12@std@@QAE@XZ	; std::_Container_base12::~_Container_base12
__ehhandler$??0?$_String_val@DV?$allocator@D@std@@@std@@QAE@V?$allocator@D@1@@Z:
	mov	edx, DWORD PTR [esp+8]
	lea	eax, DWORD PTR [edx+12]
	mov	ecx, DWORD PTR [edx-28]
	xor	ecx, eax
	call	@__security_check_cookie@4
	mov	eax, OFFSET __ehfuncinfo$??0?$_String_val@DV?$allocator@D@std@@@std@@QAE@V?$allocator@D@1@@Z
	jmp	___CxxFrameHandler3
text$x	ENDS
??0?$_String_val@DV?$allocator@D@std@@@std@@QAE@V?$allocator@D@1@@Z ENDP ; std::_String_val<char,std::allocator<char> >::_String_val<char,std::allocator<char> >
; Function compile flags: /Odtp /RTCsu
; File c:\program files (x86)\microsoft visual studio 10.0\vc\include\xutility
;	COMDAT ??0_Container_proxy@std@@QAE@XZ
_TEXT	SEGMENT
_this$ = -4						; size = 4
??0_Container_proxy@std@@QAE@XZ PROC			; std::_Container_proxy::_Container_proxy, COMDAT
; _this$ = ecx

; 65   : 		{	// construct from pointers

	push	ebp
	mov	ebp, esp
	push	ecx
	mov	DWORD PTR [ebp-4], -858993460		; ccccccccH
	mov	DWORD PTR _this$[ebp], ecx
	mov	eax, DWORD PTR _this$[ebp]
	mov	DWORD PTR [eax], 0
	mov	ecx, DWORD PTR _this$[ebp]
	mov	DWORD PTR [ecx+4], 0

; 66   : 		}

	mov	eax, DWORD PTR _this$[ebp]
	mov	esp, ebp
	pop	ebp
	ret	0
??0_Container_proxy@std@@QAE@XZ ENDP			; std::_Container_proxy::_Container_proxy
; Function compile flags: /Odtp /RTCsu
_TEXT	ENDS
;	COMDAT ??0_Container_base12@std@@QAE@XZ
_TEXT	SEGMENT
_this$ = -4						; size = 4
??0_Container_base12@std@@QAE@XZ PROC			; std::_Container_base12::_Container_base12, COMDAT
; _this$ = ecx

; 77   : 		{	// construct childless container

	push	ebp
	mov	ebp, esp
	push	ecx
	mov	DWORD PTR [ebp-4], -858993460		; ccccccccH
	mov	DWORD PTR _this$[ebp], ecx
	mov	eax, DWORD PTR _this$[ebp]
	mov	DWORD PTR [eax], 0

; 78   : 		}

	mov	eax, DWORD PTR _this$[ebp]
	mov	esp, ebp
	pop	ebp
	ret	0
??0_Container_base12@std@@QAE@XZ ENDP			; std::_Container_base12::_Container_base12
; Function compile flags: /Odtp /RTCsu
; File c:\program files (x86)\microsoft visual studio 10.0\vc\include\xmemory
_TEXT	ENDS
;	COMDAT ??0?$allocator@D@std@@QAE@XZ
_TEXT	SEGMENT
_this$ = -4						; size = 4
??0?$allocator@D@std@@QAE@XZ PROC			; std::allocator<char>::allocator<char>, COMDAT
; _this$ = ecx

; 161  : 	_ALLOCATOR() _THROW0()

	push	ebp
	mov	ebp, esp
	push	ecx
	mov	DWORD PTR [ebp-4], -858993460		; ccccccccH
	mov	DWORD PTR _this$[ebp], ecx

; 162  : 		{	// construct default allocator (do nothing)
; 163  : 		}

	mov	eax, DWORD PTR _this$[ebp]
	mov	esp, ebp
	pop	ebp
	ret	0
??0?$allocator@D@std@@QAE@XZ ENDP			; std::allocator<char>::allocator<char>
; Function compile flags: /Odtp /RTCsu
_TEXT	ENDS
;	COMDAT ??0?$allocator@D@std@@QAE@ABV01@@Z
_TEXT	SEGMENT
_this$ = -4						; size = 4
___formal$ = 8						; size = 4
??0?$allocator@D@std@@QAE@ABV01@@Z PROC			; std::allocator<char>::allocator<char>, COMDAT
; _this$ = ecx

; 165  : 	_ALLOCATOR(const _ALLOCATOR<_Ty>&) _THROW0()

	push	ebp
	mov	ebp, esp
	push	ecx
	mov	DWORD PTR [ebp-4], -858993460		; ccccccccH
	mov	DWORD PTR _this$[ebp], ecx

; 166  : 		{	// construct by copying (do nothing)
; 167  : 		}

	mov	eax, DWORD PTR _this$[ebp]
	mov	esp, ebp
	pop	ebp
	ret	4
??0?$allocator@D@std@@QAE@ABV01@@Z ENDP			; std::allocator<char>::allocator<char>
_TEXT	ENDS
PUBLIC	?_Grow@?$basic_string@DU?$char_traits@D@std@@V?$allocator@D@2@@std@@QAE_NI_N@Z ; std::basic_string<char,std::char_traits<char>,std::allocator<char> >::_Grow
PUBLIC	?assign@?$basic_string@DU?$char_traits@D@std@@V?$allocator@D@2@@std@@QAEAAV12@ABV12@II@Z ; std::basic_string<char,std::char_traits<char>,std::allocator<char> >::assign
PUBLIC	?_Inside@?$basic_string@DU?$char_traits@D@std@@V?$allocator@D@2@@std@@QAE_NPBD@Z ; std::basic_string<char,std::char_traits<char>,std::allocator<char> >::_Inside
; Function compile flags: /Odtp /RTCsu
; File c:\program files (x86)\microsoft visual studio 10.0\vc\include\xstring
;	COMDAT ?assign@?$basic_string@DU?$char_traits@D@std@@V?$allocator@D@2@@std@@QAEAAV12@PBDI@Z
_TEXT	SEGMENT
_this$ = -4						; size = 4
__Ptr$ = 8						; size = 4
__Count$ = 12						; size = 4
?assign@?$basic_string@DU?$char_traits@D@std@@V?$allocator@D@2@@std@@QAEAAV12@PBDI@Z PROC ; std::basic_string<char,std::char_traits<char>,std::allocator<char> >::assign, COMDAT
; _this$ = ecx

; 910  : 		{	// assign [_Ptr, _Ptr + _Count)

	push	ebp
	mov	ebp, esp
	push	ecx
	mov	DWORD PTR [ebp-4], -858993460		; ccccccccH
	mov	DWORD PTR _this$[ebp], ecx

; 911  :  #if _ITERATOR_DEBUG_LEVEL == 2
; 912  : 		if (_Count != 0)

	cmp	DWORD PTR __Count$[ebp], 0
	je	SHORT $LN3@assign

; 913  : 			_DEBUG_POINTER(_Ptr);

	push	913					; 00000391H
	push	OFFSET ??_C@_1IO@FJMIILFL@?$AAc?$AA?3?$AA?2?$AAP?$AAr?$AAo?$AAg?$AAr?$AAa?$AAm?$AA?5?$AAF?$AAi?$AAl?$AAe?$AAs?$AA?5?$AA?$CI?$AAx?$AA8?$AA6?$AA?$CJ?$AA?2?$AAM?$AAi?$AAc?$AAr?$AAo?$AAs?$AAo?$AAf?$AAt@
	mov	eax, DWORD PTR __Ptr$[ebp]
	push	eax
	call	??$_Debug_pointer@D@std@@YAXPBDPB_WI@Z	; std::_Debug_pointer<char>
	add	esp, 12					; 0000000cH
$LN3@assign:

; 914  :  #endif /* _ITERATOR_DEBUG_LEVEL == 2 */
; 915  : 
; 916  : 		if (_Inside(_Ptr))

	mov	ecx, DWORD PTR __Ptr$[ebp]
	push	ecx
	mov	ecx, DWORD PTR _this$[ebp]
	call	?_Inside@?$basic_string@DU?$char_traits@D@std@@V?$allocator@D@2@@std@@QAE_NPBD@Z ; std::basic_string<char,std::char_traits<char>,std::allocator<char> >::_Inside
	movzx	edx, al
	test	edx, edx
	je	SHORT $LN2@assign

; 917  : 			return (assign(*this, _Ptr - _Myptr(), _Count));	// substring

	mov	eax, DWORD PTR __Count$[ebp]
	push	eax
	mov	ecx, DWORD PTR _this$[ebp]
	call	?_Myptr@?$basic_string@DU?$char_traits@D@std@@V?$allocator@D@2@@std@@QAEPADXZ ; std::basic_string<char,std::char_traits<char>,std::allocator<char> >::_Myptr
	mov	ecx, DWORD PTR __Ptr$[ebp]
	sub	ecx, eax
	push	ecx
	mov	edx, DWORD PTR _this$[ebp]
	push	edx
	mov	ecx, DWORD PTR _this$[ebp]
	call	?assign@?$basic_string@DU?$char_traits@D@std@@V?$allocator@D@2@@std@@QAEAAV12@ABV12@II@Z ; std::basic_string<char,std::char_traits<char>,std::allocator<char> >::assign
	jmp	SHORT $LN4@assign
$LN2@assign:

; 918  : 
; 919  : 		if (_Grow(_Count))

	push	0
	mov	eax, DWORD PTR __Count$[ebp]
	push	eax
	mov	ecx, DWORD PTR _this$[ebp]
	call	?_Grow@?$basic_string@DU?$char_traits@D@std@@V?$allocator@D@2@@std@@QAE_NI_N@Z ; std::basic_string<char,std::char_traits<char>,std::allocator<char> >::_Grow
	movzx	ecx, al
	test	ecx, ecx
	je	SHORT $LN1@assign

; 920  : 			{	// make room and assign new stuff
; 921  : 			_Traits::copy(_Myptr(), _Ptr, _Count);

	mov	edx, DWORD PTR __Count$[ebp]
	push	edx
	mov	eax, DWORD PTR __Ptr$[ebp]
	push	eax
	mov	ecx, DWORD PTR _this$[ebp]
	call	?_Myptr@?$basic_string@DU?$char_traits@D@std@@V?$allocator@D@2@@std@@QAEPADXZ ; std::basic_string<char,std::char_traits<char>,std::allocator<char> >::_Myptr
	push	eax
	call	?copy@?$char_traits@D@std@@SAPADPADPBDI@Z ; std::char_traits<char>::copy
	add	esp, 12					; 0000000cH

; 922  : 			_Eos(_Count);

	mov	ecx, DWORD PTR __Count$[ebp]
	push	ecx
	mov	ecx, DWORD PTR _this$[ebp]
	call	?_Eos@?$basic_string@DU?$char_traits@D@std@@V?$allocator@D@2@@std@@QAEXI@Z ; std::basic_string<char,std::char_traits<char>,std::allocator<char> >::_Eos
$LN1@assign:

; 923  : 			}
; 924  : 		return (*this);

	mov	eax, DWORD PTR _this$[ebp]
$LN4@assign:

; 925  : 		}

	add	esp, 4
	cmp	ebp, esp
	call	__RTC_CheckEsp
	mov	esp, ebp
	pop	ebp
	ret	8
?assign@?$basic_string@DU?$char_traits@D@std@@V?$allocator@D@2@@std@@QAEAAV12@PBDI@Z ENDP ; std::basic_string<char,std::char_traits<char>,std::allocator<char> >::assign
_TEXT	ENDS
PUBLIC	??$_Allocate@U_Container_proxy@std@@@std@@YAPAU_Container_proxy@0@IPAU10@@Z ; std::_Allocate<std::_Container_proxy>
; Function compile flags: /Odtp /RTCsu
; File c:\program files (x86)\microsoft visual studio 10.0\vc\include\xmemory
;	COMDAT ?allocate@?$allocator@U_Container_proxy@std@@@std@@QAEPAU_Container_proxy@2@I@Z
_TEXT	SEGMENT
_this$ = -4						; size = 4
__Count$ = 8						; size = 4
?allocate@?$allocator@U_Container_proxy@std@@@std@@QAEPAU_Container_proxy@2@I@Z PROC ; std::allocator<std::_Container_proxy>::allocate, COMDAT
; _this$ = ecx

; 186  : 		{	// allocate array of _Count elements

	push	ebp
	mov	ebp, esp
	push	ecx
	mov	DWORD PTR [ebp-4], -858993460		; ccccccccH
	mov	DWORD PTR _this$[ebp], ecx

; 187  : 		return (_Allocate(_Count, (pointer)0));

	push	0
	mov	eax, DWORD PTR __Count$[ebp]
	push	eax
	call	??$_Allocate@U_Container_proxy@std@@@std@@YAPAU_Container_proxy@0@IPAU10@@Z ; std::_Allocate<std::_Container_proxy>
	add	esp, 8

; 188  : 		}

	add	esp, 4
	cmp	ebp, esp
	call	__RTC_CheckEsp
	mov	esp, ebp
	pop	ebp
	ret	4
?allocate@?$allocator@U_Container_proxy@std@@@std@@QAEPAU_Container_proxy@2@I@Z ENDP ; std::allocator<std::_Container_proxy>::allocate
_TEXT	ENDS
PUBLIC	?erase@?$basic_string@DU?$char_traits@D@std@@V?$allocator@D@2@@std@@QAEAAV12@II@Z ; std::basic_string<char,std::char_traits<char>,std::allocator<char> >::erase
PUBLIC	?npos@?$basic_string@DU?$char_traits@D@std@@V?$allocator@D@2@@std@@2IB ; std::basic_string<char,std::char_traits<char>,std::allocator<char> >::npos
PUBLIC	?_Xran@?$basic_string@DU?$char_traits@D@std@@V?$allocator@D@2@@std@@QBEXXZ ; std::basic_string<char,std::char_traits<char>,std::allocator<char> >::_Xran
;	COMDAT ?npos@?$basic_string@DU?$char_traits@D@std@@V?$allocator@D@2@@std@@2IB
; File c:\program files (x86)\microsoft visual studio 10.0\vc\include\xstring
CONST	SEGMENT
?npos@?$basic_string@DU?$char_traits@D@std@@V?$allocator@D@2@@std@@2IB DD 0ffffffffH ; std::basic_string<char,std::char_traits<char>,std::allocator<char> >::npos
; Function compile flags: /Odtp /RTCsu
CONST	ENDS
;	COMDAT ?assign@?$basic_string@DU?$char_traits@D@std@@V?$allocator@D@2@@std@@QAEAAV12@ABV12@II@Z
_TEXT	SEGMENT
__Num$ = -8						; size = 4
_this$ = -4						; size = 4
__Right$ = 8						; size = 4
__Roff$ = 12						; size = 4
__Count$ = 16						; size = 4
?assign@?$basic_string@DU?$char_traits@D@std@@V?$allocator@D@2@@std@@QAEAAV12@ABV12@II@Z PROC ; std::basic_string<char,std::char_traits<char>,std::allocator<char> >::assign, COMDAT
; _this$ = ecx

; 892  : 		{	// assign _Right [_Roff, _Roff + _Count)

	push	ebp
	mov	ebp, esp
	sub	esp, 8
	mov	DWORD PTR [ebp-8], -858993460		; ccccccccH
	mov	DWORD PTR [ebp-4], -858993460		; ccccccccH
	mov	DWORD PTR _this$[ebp], ecx

; 893  : 		if (_Right.size() < _Roff)

	mov	ecx, DWORD PTR __Right$[ebp]
	call	?size@?$basic_string@DU?$char_traits@D@std@@V?$allocator@D@2@@std@@QBEIXZ ; std::basic_string<char,std::char_traits<char>,std::allocator<char> >::size
	cmp	eax, DWORD PTR __Roff$[ebp]
	jae	SHORT $LN5@assign@2

; 894  : 			_Xran();	// _Roff off end

	mov	ecx, DWORD PTR _this$[ebp]
	call	?_Xran@?$basic_string@DU?$char_traits@D@std@@V?$allocator@D@2@@std@@QBEXXZ ; std::basic_string<char,std::char_traits<char>,std::allocator<char> >::_Xran
$LN5@assign@2:

; 895  : 		size_type _Num = _Right.size() - _Roff;

	mov	ecx, DWORD PTR __Right$[ebp]
	call	?size@?$basic_string@DU?$char_traits@D@std@@V?$allocator@D@2@@std@@QBEIXZ ; std::basic_string<char,std::char_traits<char>,std::allocator<char> >::size
	sub	eax, DWORD PTR __Roff$[ebp]
	mov	DWORD PTR __Num$[ebp], eax

; 896  : 		if (_Count < _Num)

	mov	eax, DWORD PTR __Count$[ebp]
	cmp	eax, DWORD PTR __Num$[ebp]
	jae	SHORT $LN4@assign@2

; 897  : 			_Num = _Count;	// trim _Num to size

	mov	ecx, DWORD PTR __Count$[ebp]
	mov	DWORD PTR __Num$[ebp], ecx
$LN4@assign@2:

; 898  : 
; 899  : 		if (this == &_Right)

	mov	edx, DWORD PTR _this$[ebp]
	cmp	edx, DWORD PTR __Right$[ebp]
	jne	SHORT $LN3@assign@2

; 900  : 			erase((size_type)(_Roff + _Num)), erase(0, _Roff);	// substring

	mov	eax, DWORD PTR ?npos@?$basic_string@DU?$char_traits@D@std@@V?$allocator@D@2@@std@@2IB ; std::basic_string<char,std::char_traits<char>,std::allocator<char> >::npos
	push	eax
	mov	ecx, DWORD PTR __Roff$[ebp]
	add	ecx, DWORD PTR __Num$[ebp]
	push	ecx
	mov	ecx, DWORD PTR _this$[ebp]
	call	?erase@?$basic_string@DU?$char_traits@D@std@@V?$allocator@D@2@@std@@QAEAAV12@II@Z ; std::basic_string<char,std::char_traits<char>,std::allocator<char> >::erase
	mov	edx, DWORD PTR __Roff$[ebp]
	push	edx
	push	0
	mov	ecx, DWORD PTR _this$[ebp]
	call	?erase@?$basic_string@DU?$char_traits@D@std@@V?$allocator@D@2@@std@@QAEAAV12@II@Z ; std::basic_string<char,std::char_traits<char>,std::allocator<char> >::erase
	jmp	SHORT $LN2@assign@2
$LN3@assign@2:

; 901  : 		else if (_Grow(_Num))

	push	0
	mov	eax, DWORD PTR __Num$[ebp]
	push	eax
	mov	ecx, DWORD PTR _this$[ebp]
	call	?_Grow@?$basic_string@DU?$char_traits@D@std@@V?$allocator@D@2@@std@@QAE_NI_N@Z ; std::basic_string<char,std::char_traits<char>,std::allocator<char> >::_Grow
	movzx	ecx, al
	test	ecx, ecx
	je	SHORT $LN2@assign@2

; 902  : 			{	// make room and assign new stuff
; 903  : 			_Traits::copy(_Myptr(), _Right._Myptr() + _Roff, _Num);

	mov	edx, DWORD PTR __Num$[ebp]
	push	edx
	mov	ecx, DWORD PTR __Right$[ebp]
	call	?_Myptr@?$basic_string@DU?$char_traits@D@std@@V?$allocator@D@2@@std@@QBEPBDXZ ; std::basic_string<char,std::char_traits<char>,std::allocator<char> >::_Myptr
	add	eax, DWORD PTR __Roff$[ebp]
	push	eax
	mov	ecx, DWORD PTR _this$[ebp]
	call	?_Myptr@?$basic_string@DU?$char_traits@D@std@@V?$allocator@D@2@@std@@QAEPADXZ ; std::basic_string<char,std::char_traits<char>,std::allocator<char> >::_Myptr
	push	eax
	call	?copy@?$char_traits@D@std@@SAPADPADPBDI@Z ; std::char_traits<char>::copy
	add	esp, 12					; 0000000cH

; 904  : 			_Eos(_Num);

	mov	eax, DWORD PTR __Num$[ebp]
	push	eax
	mov	ecx, DWORD PTR _this$[ebp]
	call	?_Eos@?$basic_string@DU?$char_traits@D@std@@V?$allocator@D@2@@std@@QAEXI@Z ; std::basic_string<char,std::char_traits<char>,std::allocator<char> >::_Eos
$LN2@assign@2:

; 905  : 			}
; 906  : 		return (*this);

	mov	eax, DWORD PTR _this$[ebp]
$LN7@assign@2:

; 907  : 		}

	add	esp, 8
	cmp	ebp, esp
	call	__RTC_CheckEsp
	mov	esp, ebp
	pop	ebp
	ret	12					; 0000000cH
?assign@?$basic_string@DU?$char_traits@D@std@@V?$allocator@D@2@@std@@QAEAAV12@ABV12@II@Z ENDP ; std::basic_string<char,std::char_traits<char>,std::allocator<char> >::assign
_TEXT	ENDS
PUBLIC	??_C@_0BI@CFPLBAOH@invalid?5string?5position?$AA@ ; `string'
EXTRN	?_Xout_of_range@std@@YAXPBD@Z:PROC		; std::_Xout_of_range
;	COMDAT ??_C@_0BI@CFPLBAOH@invalid?5string?5position?$AA@
CONST	SEGMENT
??_C@_0BI@CFPLBAOH@invalid?5string?5position?$AA@ DB 'invalid string posi'
	DB	'tion', 00H					; `string'
; Function compile flags: /Odtp /RTCsu
CONST	ENDS
;	COMDAT ?_Xran@?$basic_string@DU?$char_traits@D@std@@V?$allocator@D@2@@std@@QBEXXZ
_TEXT	SEGMENT
_this$ = -4						; size = 4
?_Xran@?$basic_string@DU?$char_traits@D@std@@V?$allocator@D@2@@std@@QBEXXZ PROC ; std::basic_string<char,std::char_traits<char>,std::allocator<char> >::_Xran, COMDAT
; _this$ = ecx

; 2019 : 		{	// report an out_of_range error

	push	ebp
	mov	ebp, esp
	push	ecx
	mov	DWORD PTR [ebp-4], -858993460		; ccccccccH
	mov	DWORD PTR _this$[ebp], ecx

; 2020 : 		_Xout_of_range("invalid string position");

	push	OFFSET ??_C@_0BI@CFPLBAOH@invalid?5string?5position?$AA@
	call	?_Xout_of_range@std@@YAXPBD@Z		; std::_Xout_of_range
$LN2@Xran:

; 2021 : 		}

	add	esp, 4
	cmp	ebp, esp
	call	__RTC_CheckEsp
	mov	esp, ebp
	pop	ebp
	ret	0
?_Xran@?$basic_string@DU?$char_traits@D@std@@V?$allocator@D@2@@std@@QBEXXZ ENDP ; std::basic_string<char,std::char_traits<char>,std::allocator<char> >::_Xran
_TEXT	ENDS
PUBLIC	?_Copy@?$basic_string@DU?$char_traits@D@std@@V?$allocator@D@2@@std@@QAEXII@Z ; std::basic_string<char,std::char_traits<char>,std::allocator<char> >::_Copy
PUBLIC	?_Xlen@?$basic_string@DU?$char_traits@D@std@@V?$allocator@D@2@@std@@QBEXXZ ; std::basic_string<char,std::char_traits<char>,std::allocator<char> >::_Xlen
PUBLIC	?max_size@?$basic_string@DU?$char_traits@D@std@@V?$allocator@D@2@@std@@QBEIXZ ; std::basic_string<char,std::char_traits<char>,std::allocator<char> >::max_size
; Function compile flags: /Odtp /RTCsu
;	COMDAT ?_Grow@?$basic_string@DU?$char_traits@D@std@@V?$allocator@D@2@@std@@QAE_NI_N@Z
_TEXT	SEGMENT
tv129 = -8						; size = 4
_this$ = -4						; size = 4
__Newsize$ = 8						; size = 4
__Trim$ = 12						; size = 1
?_Grow@?$basic_string@DU?$char_traits@D@std@@V?$allocator@D@2@@std@@QAE_NI_N@Z PROC ; std::basic_string<char,std::char_traits<char>,std::allocator<char> >::_Grow, COMDAT
; _this$ = ecx

; 1958 : 		{	// ensure buffer is big enough, trim to size if _Trim is true

	push	ebp
	mov	ebp, esp
	sub	esp, 8
	mov	DWORD PTR [ebp-8], -858993460		; ccccccccH
	mov	DWORD PTR [ebp-4], -858993460		; ccccccccH
	mov	DWORD PTR _this$[ebp], ecx

; 1959 : 		if (max_size() < _Newsize)

	mov	ecx, DWORD PTR _this$[ebp]
	call	?max_size@?$basic_string@DU?$char_traits@D@std@@V?$allocator@D@2@@std@@QBEIXZ ; std::basic_string<char,std::char_traits<char>,std::allocator<char> >::max_size
	cmp	eax, DWORD PTR __Newsize$[ebp]
	jae	SHORT $LN6@Grow

; 1960 : 			_Xlen();	// result too long

	mov	ecx, DWORD PTR _this$[ebp]
	call	?_Xlen@?$basic_string@DU?$char_traits@D@std@@V?$allocator@D@2@@std@@QBEXXZ ; std::basic_string<char,std::char_traits<char>,std::allocator<char> >::_Xlen
$LN6@Grow:

; 1961 : 		if (this->_Myres < _Newsize)

	mov	eax, DWORD PTR _this$[ebp]
	mov	ecx, DWORD PTR [eax+24]
	cmp	ecx, DWORD PTR __Newsize$[ebp]
	jae	SHORT $LN5@Grow

; 1962 : 			_Copy(_Newsize, this->_Mysize);	// reallocate to grow

	mov	edx, DWORD PTR _this$[ebp]
	mov	eax, DWORD PTR [edx+20]
	push	eax
	mov	ecx, DWORD PTR __Newsize$[ebp]
	push	ecx
	mov	ecx, DWORD PTR _this$[ebp]
	call	?_Copy@?$basic_string@DU?$char_traits@D@std@@V?$allocator@D@2@@std@@QAEXII@Z ; std::basic_string<char,std::char_traits<char>,std::allocator<char> >::_Copy
	jmp	SHORT $LN4@Grow
$LN5@Grow:

; 1963 : 		else if (_Trim && _Newsize < this->_BUF_SIZE)

	movzx	edx, BYTE PTR __Trim$[ebp]
	test	edx, edx
	je	SHORT $LN3@Grow
	cmp	DWORD PTR __Newsize$[ebp], 16		; 00000010H
	jae	SHORT $LN3@Grow

; 1964 : 			_Tidy(true,	// copy and deallocate if trimming to small string
; 1965 : 				_Newsize < this->_Mysize ? _Newsize : this->_Mysize);

	mov	eax, DWORD PTR _this$[ebp]
	mov	ecx, DWORD PTR __Newsize$[ebp]
	cmp	ecx, DWORD PTR [eax+20]
	jae	SHORT $LN9@Grow
	mov	edx, DWORD PTR __Newsize$[ebp]
	mov	DWORD PTR tv129[ebp], edx
	jmp	SHORT $LN10@Grow
$LN9@Grow:
	mov	eax, DWORD PTR _this$[ebp]
	mov	ecx, DWORD PTR [eax+20]
	mov	DWORD PTR tv129[ebp], ecx
$LN10@Grow:
	mov	edx, DWORD PTR tv129[ebp]
	push	edx
	push	1
	mov	ecx, DWORD PTR _this$[ebp]
	call	?_Tidy@?$basic_string@DU?$char_traits@D@std@@V?$allocator@D@2@@std@@QAEX_NI@Z ; std::basic_string<char,std::char_traits<char>,std::allocator<char> >::_Tidy
	jmp	SHORT $LN4@Grow
$LN3@Grow:

; 1966 : 		else if (_Newsize == 0)

	cmp	DWORD PTR __Newsize$[ebp], 0
	jne	SHORT $LN4@Grow

; 1967 : 			_Eos(0);	// new size is zero, just null terminate

	push	0
	mov	ecx, DWORD PTR _this$[ebp]
	call	?_Eos@?$basic_string@DU?$char_traits@D@std@@V?$allocator@D@2@@std@@QAEXI@Z ; std::basic_string<char,std::char_traits<char>,std::allocator<char> >::_Eos
$LN4@Grow:

; 1968 : 		return (0 < _Newsize);	// return true only if more work to do

	xor	eax, eax
	cmp	eax, DWORD PTR __Newsize$[ebp]
	sbb	eax, eax
	neg	eax
$LN8@Grow:

; 1969 : 		}

	add	esp, 8
	cmp	ebp, esp
	call	__RTC_CheckEsp
	mov	esp, ebp
	pop	ebp
	ret	8
?_Grow@?$basic_string@DU?$char_traits@D@std@@V?$allocator@D@2@@std@@QAE_NI_N@Z ENDP ; std::basic_string<char,std::char_traits<char>,std::allocator<char> >::_Grow
; Function compile flags: /Odtp /RTCsu
_TEXT	ENDS
;	COMDAT ?_Inside@?$basic_string@DU?$char_traits@D@std@@V?$allocator@D@2@@std@@QAE_NPBD@Z
_TEXT	SEGMENT
_this$ = -4						; size = 4
__Ptr$ = 8						; size = 4
?_Inside@?$basic_string@DU?$char_traits@D@std@@V?$allocator@D@2@@std@@QAE_NPBD@Z PROC ; std::basic_string<char,std::char_traits<char>,std::allocator<char> >::_Inside, COMDAT
; _this$ = ecx

; 1972 : 		{	// test if _Ptr points inside string

	push	ebp
	mov	ebp, esp
	push	ecx
	mov	DWORD PTR [ebp-4], -858993460		; ccccccccH
	mov	DWORD PTR _this$[ebp], ecx

; 1973 : 		if (_Ptr == 0 || _Ptr < _Myptr() || _Myptr() + this->_Mysize <= _Ptr)

	cmp	DWORD PTR __Ptr$[ebp], 0
	je	SHORT $LN2@Inside@2
	mov	ecx, DWORD PTR _this$[ebp]
	call	?_Myptr@?$basic_string@DU?$char_traits@D@std@@V?$allocator@D@2@@std@@QAEPADXZ ; std::basic_string<char,std::char_traits<char>,std::allocator<char> >::_Myptr
	cmp	DWORD PTR __Ptr$[ebp], eax
	jb	SHORT $LN2@Inside@2
	mov	ecx, DWORD PTR _this$[ebp]
	call	?_Myptr@?$basic_string@DU?$char_traits@D@std@@V?$allocator@D@2@@std@@QAEPADXZ ; std::basic_string<char,std::char_traits<char>,std::allocator<char> >::_Myptr
	mov	ecx, DWORD PTR _this$[ebp]
	add	eax, DWORD PTR [ecx+20]
	cmp	eax, DWORD PTR __Ptr$[ebp]
	ja	SHORT $LN3@Inside@2
$LN2@Inside@2:

; 1974 : 			return (false);	// don't ask

	xor	al, al
	jmp	SHORT $LN4@Inside@2

; 1975 : 		else

	jmp	SHORT $LN4@Inside@2
$LN3@Inside@2:

; 1976 : 			return (true);

	mov	al, 1
$LN4@Inside@2:

; 1977 : 		}

	add	esp, 4
	cmp	ebp, esp
	call	__RTC_CheckEsp
	mov	esp, ebp
	pop	ebp
	ret	4
?_Inside@?$basic_string@DU?$char_traits@D@std@@V?$allocator@D@2@@std@@QAE_NPBD@Z ENDP ; std::basic_string<char,std::char_traits<char>,std::allocator<char> >::_Inside
_TEXT	ENDS
PUBLIC	??_C@_0BA@JFNIOLAK@string?5too?5long?$AA@	; `string'
;	COMDAT ??_C@_0BA@JFNIOLAK@string?5too?5long?$AA@
CONST	SEGMENT
??_C@_0BA@JFNIOLAK@string?5too?5long?$AA@ DB 'string too long', 00H ; `string'
; Function compile flags: /Odtp /RTCsu
CONST	ENDS
;	COMDAT ?_Xlen@?$basic_string@DU?$char_traits@D@std@@V?$allocator@D@2@@std@@QBEXXZ
_TEXT	SEGMENT
_this$ = -4						; size = 4
?_Xlen@?$basic_string@DU?$char_traits@D@std@@V?$allocator@D@2@@std@@QBEXXZ PROC ; std::basic_string<char,std::char_traits<char>,std::allocator<char> >::_Xlen, COMDAT
; _this$ = ecx

; 2014 : 		{	// report a length_error

	push	ebp
	mov	ebp, esp
	push	ecx
	mov	DWORD PTR [ebp-4], -858993460		; ccccccccH
	mov	DWORD PTR _this$[ebp], ecx

; 2015 : 		_Xlength_error("string too long");

	push	OFFSET ??_C@_0BA@JFNIOLAK@string?5too?5long?$AA@
	call	?_Xlength_error@std@@YAXPBD@Z		; std::_Xlength_error
$LN2@Xlen@2:

; 2016 : 		}

	add	esp, 4
	cmp	ebp, esp
	call	__RTC_CheckEsp
	mov	esp, ebp
	pop	ebp
	ret	0
?_Xlen@?$basic_string@DU?$char_traits@D@std@@V?$allocator@D@2@@std@@QBEXXZ ENDP ; std::basic_string<char,std::char_traits<char>,std::allocator<char> >::_Xlen
_TEXT	ENDS
PUBLIC	?move@?$char_traits@D@std@@SAPADPADPBDI@Z	; std::char_traits<char>::move
; Function compile flags: /Odtp /RTCsu
;	COMDAT ?erase@?$basic_string@DU?$char_traits@D@std@@V?$allocator@D@2@@std@@QAEAAV12@II@Z
_TEXT	SEGMENT
__Newsize$135315 = -8					; size = 4
_this$ = -4						; size = 4
__Off$ = 8						; size = 4
__Count$ = 12						; size = 4
?erase@?$basic_string@DU?$char_traits@D@std@@V?$allocator@D@2@@std@@QAEAAV12@II@Z PROC ; std::basic_string<char,std::char_traits<char>,std::allocator<char> >::erase, COMDAT
; _this$ = ecx

; 1108 : 		{	// erase elements [_Off, _Off + _Count)

	push	ebp
	mov	ebp, esp
	sub	esp, 8
	mov	DWORD PTR [ebp-8], -858993460		; ccccccccH
	mov	DWORD PTR [ebp-4], -858993460		; ccccccccH
	mov	DWORD PTR _this$[ebp], ecx

; 1109 : 		if (this->_Mysize < _Off)

	mov	eax, DWORD PTR _this$[ebp]
	mov	ecx, DWORD PTR [eax+20]
	cmp	ecx, DWORD PTR __Off$[ebp]
	jae	SHORT $LN3@erase@2

; 1110 : 			_Xran();	// _Off off end

	mov	ecx, DWORD PTR _this$[ebp]
	call	?_Xran@?$basic_string@DU?$char_traits@D@std@@V?$allocator@D@2@@std@@QBEXXZ ; std::basic_string<char,std::char_traits<char>,std::allocator<char> >::_Xran
$LN3@erase@2:

; 1111 : 		if (this->_Mysize - _Off < _Count)

	mov	edx, DWORD PTR _this$[ebp]
	mov	eax, DWORD PTR [edx+20]
	sub	eax, DWORD PTR __Off$[ebp]
	cmp	eax, DWORD PTR __Count$[ebp]
	jae	SHORT $LN2@erase@2

; 1112 : 			_Count = this->_Mysize - _Off;	// trim _Count

	mov	ecx, DWORD PTR _this$[ebp]
	mov	edx, DWORD PTR [ecx+20]
	sub	edx, DWORD PTR __Off$[ebp]
	mov	DWORD PTR __Count$[ebp], edx
$LN2@erase@2:

; 1113 : 		if (0 < _Count)

	cmp	DWORD PTR __Count$[ebp], 0
	jbe	SHORT $LN1@erase@2

; 1114 : 			{	// move elements down
; 1115 : 			_Traits::move(_Myptr() + _Off, _Myptr() + _Off + _Count,
; 1116 : 				this->_Mysize - _Off - _Count);

	mov	eax, DWORD PTR _this$[ebp]
	mov	ecx, DWORD PTR [eax+20]
	sub	ecx, DWORD PTR __Off$[ebp]
	sub	ecx, DWORD PTR __Count$[ebp]
	push	ecx
	mov	ecx, DWORD PTR _this$[ebp]
	call	?_Myptr@?$basic_string@DU?$char_traits@D@std@@V?$allocator@D@2@@std@@QAEPADXZ ; std::basic_string<char,std::char_traits<char>,std::allocator<char> >::_Myptr
	add	eax, DWORD PTR __Off$[ebp]
	add	eax, DWORD PTR __Count$[ebp]
	push	eax
	mov	ecx, DWORD PTR _this$[ebp]
	call	?_Myptr@?$basic_string@DU?$char_traits@D@std@@V?$allocator@D@2@@std@@QAEPADXZ ; std::basic_string<char,std::char_traits<char>,std::allocator<char> >::_Myptr
	add	eax, DWORD PTR __Off$[ebp]
	push	eax
	call	?move@?$char_traits@D@std@@SAPADPADPBDI@Z ; std::char_traits<char>::move
	add	esp, 12					; 0000000cH

; 1117 : 			size_type _Newsize = this->_Mysize - _Count;

	mov	edx, DWORD PTR _this$[ebp]
	mov	eax, DWORD PTR [edx+20]
	sub	eax, DWORD PTR __Count$[ebp]
	mov	DWORD PTR __Newsize$135315[ebp], eax

; 1118 : 			_Eos(_Newsize);

	mov	ecx, DWORD PTR __Newsize$135315[ebp]
	push	ecx
	mov	ecx, DWORD PTR _this$[ebp]
	call	?_Eos@?$basic_string@DU?$char_traits@D@std@@V?$allocator@D@2@@std@@QAEXI@Z ; std::basic_string<char,std::char_traits<char>,std::allocator<char> >::_Eos
$LN1@erase@2:

; 1119 : 			}
; 1120 : 		return (*this);

	mov	eax, DWORD PTR _this$[ebp]
$LN5@erase@2:

; 1121 : 		}

	add	esp, 8
	cmp	ebp, esp
	call	__RTC_CheckEsp
	mov	esp, ebp
	pop	ebp
	ret	8
?erase@?$basic_string@DU?$char_traits@D@std@@V?$allocator@D@2@@std@@QAEAAV12@II@Z ENDP ; std::basic_string<char,std::char_traits<char>,std::allocator<char> >::erase
_TEXT	ENDS
EXTRN	_memmove:PROC
; Function compile flags: /Odtp /RTCsu
; File c:\program files (x86)\microsoft visual studio 10.0\vc\include\iosfwd
;	COMDAT ?move@?$char_traits@D@std@@SAPADPADPBDI@Z
_TEXT	SEGMENT
__First1$ = 8						; size = 4
__First2$ = 12						; size = 4
__Count$ = 16						; size = 4
?move@?$char_traits@D@std@@SAPADPADPBDI@Z PROC		; std::char_traits<char>::move, COMDAT

; 516  : 		{	// copy [_First1, _First1 + _Count) to [_First2, ...)

	push	ebp
	mov	ebp, esp

; 517  : 		return ((_Elem *)_CSTD memmove(_First1, _First2, _Count));

	mov	eax, DWORD PTR __Count$[ebp]
	push	eax
	mov	ecx, DWORD PTR __First2$[ebp]
	push	ecx
	mov	edx, DWORD PTR __First1$[ebp]
	push	edx
	call	_memmove
	add	esp, 12					; 0000000cH

; 518  : 		}

	cmp	ebp, esp
	call	__RTC_CheckEsp
	pop	ebp
	ret	0
?move@?$char_traits@D@std@@SAPADPADPBDI@Z ENDP		; std::char_traits<char>::move
_TEXT	ENDS
PUBLIC	?max_size@?$allocator@D@std@@QBEIXZ		; std::allocator<char>::max_size
; Function compile flags: /Odtp /RTCsu
; File c:\program files (x86)\microsoft visual studio 10.0\vc\include\xstring
;	COMDAT ?max_size@?$basic_string@DU?$char_traits@D@std@@V?$allocator@D@2@@std@@QBEIXZ
_TEXT	SEGMENT
tv73 = -12						; size = 4
__Num$ = -8						; size = 4
_this$ = -4						; size = 4
?max_size@?$basic_string@DU?$char_traits@D@std@@V?$allocator@D@2@@std@@QBEIXZ PROC ; std::basic_string<char,std::char_traits<char>,std::allocator<char> >::max_size, COMDAT
; _this$ = ecx

; 1515 : 		{	// return maximum possible length of sequence

	push	ebp
	mov	ebp, esp
	sub	esp, 12					; 0000000cH
	mov	DWORD PTR [ebp-12], -858993460		; ccccccccH
	mov	DWORD PTR [ebp-8], -858993460		; ccccccccH
	mov	DWORD PTR [ebp-4], -858993460		; ccccccccH
	mov	DWORD PTR _this$[ebp], ecx

; 1516 : 		size_type _Num = this->_Alval.max_size();

	mov	ecx, DWORD PTR _this$[ebp]
	add	ecx, 28					; 0000001cH
	call	?max_size@?$allocator@D@std@@QBEIXZ	; std::allocator<char>::max_size
	mov	DWORD PTR __Num$[ebp], eax

; 1517 : 		return (_Num <= 1 ? 1 : _Num - 1);

	cmp	DWORD PTR __Num$[ebp], 1
	ja	SHORT $LN3@max_size@2
	mov	DWORD PTR tv73[ebp], 1
	jmp	SHORT $LN4@max_size@2
$LN3@max_size@2:
	mov	eax, DWORD PTR __Num$[ebp]
	sub	eax, 1
	mov	DWORD PTR tv73[ebp], eax
$LN4@max_size@2:
	mov	eax, DWORD PTR tv73[ebp]

; 1518 : 		}

	add	esp, 12					; 0000000cH
	cmp	ebp, esp
	call	__RTC_CheckEsp
	mov	esp, ebp
	pop	ebp
	ret	0
?max_size@?$basic_string@DU?$char_traits@D@std@@V?$allocator@D@2@@std@@QBEIXZ ENDP ; std::basic_string<char,std::char_traits<char>,std::allocator<char> >::max_size
_TEXT	ENDS
PUBLIC	?allocate@?$allocator@D@std@@QAEPADI@Z		; std::allocator<char>::allocate
;	COMDAT xdata$x
xdata$x	SEGMENT
__catchsym$?_Copy@?$basic_string@DU?$char_traits@D@std@@V?$allocator@D@2@@std@@QAEXII@Z$5 DD 040H
	DD	00H
	DD	00H
	DD	FLAT:__catch$?_Copy@?$basic_string@DU?$char_traits@D@std@@V?$allocator@D@2@@std@@QAEXII@Z$0
__catchsym$?_Copy@?$basic_string@DU?$char_traits@D@std@@V?$allocator@D@2@@std@@QAEXII@Z$4 DD 040H
	DD	00H
	DD	00H
	DD	FLAT:__catch$?_Copy@?$basic_string@DU?$char_traits@D@std@@V?$allocator@D@2@@std@@QAEXII@Z$1
__unwindtable$?_Copy@?$basic_string@DU?$char_traits@D@std@@V?$allocator@D@2@@std@@QAEXII@Z DD 0ffffffffH
	DD	00H
	DD	0ffffffffH
	DD	00H
	DD	01H
	DD	00H
	DD	01H
	DD	00H
__ehfuncinfo$?_Copy@?$basic_string@DU?$char_traits@D@std@@V?$allocator@D@2@@std@@QAEXII@Z DD 019930522H
	DD	04H
	DD	FLAT:__unwindtable$?_Copy@?$basic_string@DU?$char_traits@D@std@@V?$allocator@D@2@@std@@QAEXII@Z
	DD	02H
	DD	FLAT:__tryblocktable$?_Copy@?$basic_string@DU?$char_traits@D@std@@V?$allocator@D@2@@std@@QAEXII@Z
	DD	2 DUP(00H)
	DD	00H
	DD	01H
__tryblocktable$?_Copy@?$basic_string@DU?$char_traits@D@std@@V?$allocator@D@2@@std@@QAEXII@Z DD 02H
	DD	02H
	DD	03H
	DD	01H
	DD	FLAT:__catchsym$?_Copy@?$basic_string@DU?$char_traits@D@std@@V?$allocator@D@2@@std@@QAEXII@Z$4
	DD	00H
	DD	00H
	DD	03H
	DD	01H
	DD	FLAT:__catchsym$?_Copy@?$basic_string@DU?$char_traits@D@std@@V?$allocator@D@2@@std@@QAEXII@Z$5
; Function compile flags: /Odtp /RTCsu
xdata$x	ENDS
;	COMDAT ?_Copy@?$basic_string@DU?$char_traits@D@std@@V?$allocator@D@2@@std@@QAEXII@Z
_TEXT	SEGMENT
tv185 = -36						; size = 4
tv184 = -32						; size = 4
__Ptr$ = -28						; size = 4
__Newres$ = -24						; size = 4
_this$ = -20						; size = 4
__$EHRec$ = -16						; size = 16
__Newsize$ = 8						; size = 4
__Oldlen$ = 12						; size = 4
?_Copy@?$basic_string@DU?$char_traits@D@std@@V?$allocator@D@2@@std@@QAEXII@Z PROC ; std::basic_string<char,std::char_traits<char>,std::allocator<char> >::_Copy, COMDAT
; _this$ = ecx

; 1918 : 		{	// copy _Oldlen elements to newly allocated buffer

	push	ebp
	mov	ebp, esp
	push	-1
	push	__ehhandler$?_Copy@?$basic_string@DU?$char_traits@D@std@@V?$allocator@D@2@@std@@QAEXII@Z
	mov	eax, DWORD PTR fs:0
	push	eax
	push	ecx
	sub	esp, 20					; 00000014H
	push	ebx
	push	esi
	push	edi
	mov	eax, -858993460				; ccccccccH
	mov	DWORD PTR [ebp-36], eax
	mov	DWORD PTR [ebp-32], eax
	mov	DWORD PTR [ebp-28], eax
	mov	DWORD PTR [ebp-24], eax
	mov	DWORD PTR [ebp-20], eax
	mov	eax, DWORD PTR ___security_cookie
	xor	eax, ebp
	push	eax
	lea	eax, DWORD PTR __$EHRec$[ebp+4]
	mov	DWORD PTR fs:0, eax
	mov	DWORD PTR __$EHRec$[ebp], esp
	mov	DWORD PTR _this$[ebp], ecx

; 1919 : 		size_type _Newres = _Newsize | this->_ALLOC_MASK;

	mov	eax, DWORD PTR __Newsize$[ebp]
	or	eax, 15					; 0000000fH
	mov	DWORD PTR __Newres$[ebp], eax

; 1920 : 		if (max_size() < _Newres)

	mov	ecx, DWORD PTR _this$[ebp]
	call	?max_size@?$basic_string@DU?$char_traits@D@std@@V?$allocator@D@2@@std@@QBEIXZ ; std::basic_string<char,std::char_traits<char>,std::allocator<char> >::max_size
	cmp	eax, DWORD PTR __Newres$[ebp]
	jae	SHORT $LN9@Copy

; 1921 : 			_Newres = _Newsize;	// undo roundup if too big

	mov	ecx, DWORD PTR __Newsize$[ebp]
	mov	DWORD PTR __Newres$[ebp], ecx
	jmp	SHORT $LN8@Copy
$LN9@Copy:

; 1922 : 		else if (this->_Myres / 2 <= _Newres / 3)

	mov	eax, DWORD PTR __Newres$[ebp]
	xor	edx, edx
	mov	ecx, 3
	div	ecx
	mov	edx, DWORD PTR _this$[ebp]
	mov	ecx, DWORD PTR [edx+24]
	shr	ecx, 1
	cmp	ecx, eax
	ja	SHORT $LN7@Copy
	jmp	SHORT $LN8@Copy
$LN7@Copy:

; 1923 : 			;
; 1924 : 		else if (this->_Myres <= max_size() - this->_Myres / 2)

	mov	edx, DWORD PTR _this$[ebp]
	mov	esi, DWORD PTR [edx+24]
	shr	esi, 1
	mov	ecx, DWORD PTR _this$[ebp]
	call	?max_size@?$basic_string@DU?$char_traits@D@std@@V?$allocator@D@2@@std@@QBEIXZ ; std::basic_string<char,std::char_traits<char>,std::allocator<char> >::max_size
	sub	eax, esi
	mov	ecx, DWORD PTR _this$[ebp]
	cmp	DWORD PTR [ecx+24], eax
	ja	SHORT $LN5@Copy

; 1925 : 			_Newres = this->_Myres
; 1926 : 				+ this->_Myres / 2;	// grow exponentially if possible

	mov	edx, DWORD PTR _this$[ebp]
	mov	eax, DWORD PTR [edx+24]
	shr	eax, 1
	mov	ecx, DWORD PTR _this$[ebp]
	add	eax, DWORD PTR [ecx+24]
	mov	DWORD PTR __Newres$[ebp], eax

; 1927 : 		else

	jmp	SHORT $LN8@Copy
$LN5@Copy:

; 1928 : 			_Newres = max_size();	// settle for max_size()

	mov	ecx, DWORD PTR _this$[ebp]
	call	?max_size@?$basic_string@DU?$char_traits@D@std@@V?$allocator@D@2@@std@@QBEIXZ ; std::basic_string<char,std::char_traits<char>,std::allocator<char> >::max_size
	mov	DWORD PTR __Newres$[ebp], eax
$LN8@Copy:

; 1929 : 
; 1930 : 		_Elem *_Ptr;
; 1931 : 		_TRY_BEGIN

	mov	DWORD PTR __$EHRec$[ebp+12], 0

; 1932 : 			_Ptr = this->_Alval.allocate(_Newres + 1);

	mov	edx, DWORD PTR __Newres$[ebp]
	add	edx, 1
	push	edx
	mov	ecx, DWORD PTR _this$[ebp]
	add	ecx, 28					; 0000001cH
	call	?allocate@?$allocator@D@std@@QAEPADI@Z	; std::allocator<char>::allocate
	mov	DWORD PTR tv184[ebp], eax
	mov	eax, DWORD PTR tv184[ebp]
	mov	DWORD PTR __Ptr$[ebp], eax
	jmp	SHORT $LN12@Copy
__catch$?_Copy@?$basic_string@DU?$char_traits@D@std@@V?$allocator@D@2@@std@@QAEXII@Z$0:

; 1933 : 		_CATCH_ALL

	mov	DWORD PTR __$EHRec$[ebp], esp

; 1934 : 			_Newres = _Newsize;	// allocation failed, undo roundup and retry

	mov	ecx, DWORD PTR __Newsize$[ebp]
	mov	DWORD PTR __Newres$[ebp], ecx

; 1935 : 			_TRY_BEGIN

	mov	BYTE PTR __$EHRec$[ebp+12], 2

; 1936 : 				_Ptr = this->_Alval.allocate(_Newres + 1);

	mov	edx, DWORD PTR __Newres$[ebp]
	add	edx, 1
	push	edx
	mov	ecx, DWORD PTR _this$[ebp]
	add	ecx, 28					; 0000001cH
	call	?allocate@?$allocator@D@std@@QAEPADI@Z	; std::allocator<char>::allocate
	mov	DWORD PTR tv185[ebp], eax
	mov	eax, DWORD PTR tv185[ebp]
	mov	DWORD PTR __Ptr$[ebp], eax
	jmp	SHORT $LN14@Copy
__catch$?_Copy@?$basic_string@DU?$char_traits@D@std@@V?$allocator@D@2@@std@@QAEXII@Z$1:

; 1937 : 			_CATCH_ALL
; 1938 : 			_Tidy(true);	// failed again, discard storage and reraise

	push	0
	push	1
	mov	ecx, DWORD PTR _this$[ebp]
	call	?_Tidy@?$basic_string@DU?$char_traits@D@std@@V?$allocator@D@2@@std@@QAEX_NI@Z ; std::basic_string<char,std::char_traits<char>,std::allocator<char> >::_Tidy

; 1939 : 			_RERAISE;

	push	0
	push	0
	call	__CxxThrowException@8

; 1940 : 			_CATCH_END

	mov	DWORD PTR __$EHRec$[ebp+12], 1
	mov	eax, __tryend$?_Copy@?$basic_string@DU?$char_traits@D@std@@V?$allocator@D@2@@std@@QAEXII@Z$2
	ret	0
$LN14@Copy:
	mov	DWORD PTR __$EHRec$[ebp+12], 1
__tryend$?_Copy@?$basic_string@DU?$char_traits@D@std@@V?$allocator@D@2@@std@@QAEXII@Z$2:

; 1941 : 		_CATCH_END

	mov	DWORD PTR __$EHRec$[ebp+12], 1
	mov	eax, __tryend$?_Copy@?$basic_string@DU?$char_traits@D@std@@V?$allocator@D@2@@std@@QAEXII@Z$3
	ret	0
$LN12@Copy:
	mov	DWORD PTR __$EHRec$[ebp+12], -1
__tryend$?_Copy@?$basic_string@DU?$char_traits@D@std@@V?$allocator@D@2@@std@@QAEXII@Z$3:

; 1942 : 
; 1943 : 		if (0 < _Oldlen)

	cmp	DWORD PTR __Oldlen$[ebp], 0
	jbe	SHORT $LN1@Copy

; 1944 : 			_Traits::copy(_Ptr, _Myptr(), _Oldlen);	// copy existing elements

	mov	ecx, DWORD PTR __Oldlen$[ebp]
	push	ecx
	mov	ecx, DWORD PTR _this$[ebp]
	call	?_Myptr@?$basic_string@DU?$char_traits@D@std@@V?$allocator@D@2@@std@@QAEPADXZ ; std::basic_string<char,std::char_traits<char>,std::allocator<char> >::_Myptr
	push	eax
	mov	edx, DWORD PTR __Ptr$[ebp]
	push	edx
	call	?copy@?$char_traits@D@std@@SAPADPADPBDI@Z ; std::char_traits<char>::copy
	add	esp, 12					; 0000000cH
$LN1@Copy:

; 1945 : 		_Tidy(true);

	push	0
	push	1
	mov	ecx, DWORD PTR _this$[ebp]
	call	?_Tidy@?$basic_string@DU?$char_traits@D@std@@V?$allocator@D@2@@std@@QAEX_NI@Z ; std::basic_string<char,std::char_traits<char>,std::allocator<char> >::_Tidy

; 1946 : 		this->_Bx._Ptr = _Ptr;

	mov	eax, DWORD PTR _this$[ebp]
	mov	ecx, DWORD PTR __Ptr$[ebp]
	mov	DWORD PTR [eax+4], ecx

; 1947 : 		this->_Myres = _Newres;

	mov	edx, DWORD PTR _this$[ebp]
	mov	eax, DWORD PTR __Newres$[ebp]
	mov	DWORD PTR [edx+24], eax

; 1948 : 		_Eos(_Oldlen);

	mov	ecx, DWORD PTR __Oldlen$[ebp]
	push	ecx
	mov	ecx, DWORD PTR _this$[ebp]
	call	?_Eos@?$basic_string@DU?$char_traits@D@std@@V?$allocator@D@2@@std@@QAEXI@Z ; std::basic_string<char,std::char_traits<char>,std::allocator<char> >::_Eos
$LN11@Copy:

; 1949 : 		}

	mov	ecx, DWORD PTR __$EHRec$[ebp+4]
	mov	DWORD PTR fs:0, ecx
	pop	ecx
	pop	edi
	pop	esi
	pop	ebx
	add	esp, 36					; 00000024H
	cmp	ebp, esp
	call	__RTC_CheckEsp
	mov	esp, ebp
	pop	ebp
	ret	8
_TEXT	ENDS
;	COMDAT text$x
text$x	SEGMENT
__ehhandler$?_Copy@?$basic_string@DU?$char_traits@D@std@@V?$allocator@D@2@@std@@QAEXII@Z:
	mov	edx, DWORD PTR [esp+8]
	lea	eax, DWORD PTR [edx+12]
	mov	ecx, DWORD PTR [edx-40]
	xor	ecx, eax
	call	@__security_check_cookie@4
	mov	eax, OFFSET __ehfuncinfo$?_Copy@?$basic_string@DU?$char_traits@D@std@@V?$allocator@D@2@@std@@QAEXII@Z
	jmp	___CxxFrameHandler3
text$x	ENDS
?_Copy@?$basic_string@DU?$char_traits@D@std@@V?$allocator@D@2@@std@@QAEXII@Z ENDP ; std::basic_string<char,std::char_traits<char>,std::allocator<char> >::_Copy
PUBLIC	??$_Allocate@D@std@@YAPADIPAD@Z			; std::_Allocate<char>
; Function compile flags: /Odtp /RTCsu
; File c:\program files (x86)\microsoft visual studio 10.0\vc\include\xmemory
;	COMDAT ?allocate@?$allocator@D@std@@QAEPADI@Z
_TEXT	SEGMENT
_this$ = -4						; size = 4
__Count$ = 8						; size = 4
?allocate@?$allocator@D@std@@QAEPADI@Z PROC		; std::allocator<char>::allocate, COMDAT
; _this$ = ecx

; 186  : 		{	// allocate array of _Count elements

	push	ebp
	mov	ebp, esp
	push	ecx
	mov	DWORD PTR [ebp-4], -858993460		; ccccccccH
	mov	DWORD PTR _this$[ebp], ecx

; 187  : 		return (_Allocate(_Count, (pointer)0));

	push	0
	mov	eax, DWORD PTR __Count$[ebp]
	push	eax
	call	??$_Allocate@D@std@@YAPADIPAD@Z		; std::_Allocate<char>
	add	esp, 8

; 188  : 		}

	add	esp, 4
	cmp	ebp, esp
	call	__RTC_CheckEsp
	mov	esp, ebp
	pop	ebp
	ret	4
?allocate@?$allocator@D@std@@QAEPADI@Z ENDP		; std::allocator<char>::allocate
; Function compile flags: /Odtp /RTCsu
_TEXT	ENDS
;	COMDAT ?max_size@?$allocator@D@std@@QBEIXZ
_TEXT	SEGMENT
tv65 = -12						; size = 4
__Count$ = -8						; size = 4
_this$ = -4						; size = 4
?max_size@?$allocator@D@std@@QBEIXZ PROC		; std::allocator<char>::max_size, COMDAT
; _this$ = ecx

; 217  : 		{	// estimate maximum array size

	push	ebp
	mov	ebp, esp
	sub	esp, 12					; 0000000cH
	mov	DWORD PTR [ebp-12], -858993460		; ccccccccH
	mov	DWORD PTR [ebp-8], -858993460		; ccccccccH
	mov	DWORD PTR [ebp-4], -858993460		; ccccccccH
	mov	DWORD PTR _this$[ebp], ecx

; 218  : 		_SIZT _Count = (_SIZT)(-1) / sizeof (_Ty);

	mov	DWORD PTR __Count$[ebp], -1

; 219  : 		return (0 < _Count ? _Count : 1);

	cmp	DWORD PTR __Count$[ebp], 0
	jbe	SHORT $LN3@max_size@3
	mov	eax, DWORD PTR __Count$[ebp]
	mov	DWORD PTR tv65[ebp], eax
	jmp	SHORT $LN4@max_size@3
$LN3@max_size@3:
	mov	DWORD PTR tv65[ebp], 1
$LN4@max_size@3:
	mov	eax, DWORD PTR tv65[ebp]

; 220  : 		}

	mov	esp, ebp
	pop	ebp
	ret	0
?max_size@?$allocator@D@std@@QBEIXZ ENDP		; std::allocator<char>::max_size
_TEXT	ENDS
PUBLIC	??0?$basic_string@DU?$char_traits@D@std@@V?$allocator@D@2@@std@@QAE@$$QAV01@@Z ; std::basic_string<char,std::char_traits<char>,std::allocator<char> >::basic_string<char,std::char_traits<char>,std::allocator<char> >
PUBLIC	??Y?$basic_string@DU?$char_traits@D@std@@V?$allocator@D@2@@std@@QAEAAV01@PBD@Z ; std::basic_string<char,std::char_traits<char>,std::allocator<char> >::operator+=
PUBLIC	??Y?$basic_string@DU?$char_traits@D@std@@V?$allocator@D@2@@std@@QAEAAV01@ABV01@@Z ; std::basic_string<char,std::char_traits<char>,std::allocator<char> >::operator+=
PUBLIC	?reserve@?$basic_string@DU?$char_traits@D@std@@V?$allocator@D@2@@std@@QAEXI@Z ; std::basic_string<char,std::char_traits<char>,std::allocator<char> >::reserve
PUBLIC	??0?$basic_string@DU?$char_traits@D@std@@V?$allocator@D@2@@std@@QAE@XZ ; std::basic_string<char,std::char_traits<char>,std::allocator<char> >::basic_string<char,std::char_traits<char>,std::allocator<char> >
PUBLIC	__$ArrayPad$
;	COMDAT xdata$x
; File c:\program files (x86)\microsoft visual studio 10.0\vc\include\string
xdata$x	SEGMENT
__unwindtable$??$?HDU?$char_traits@D@std@@V?$allocator@D@1@@std@@YA?AV?$basic_string@DU?$char_traits@D@std@@V?$allocator@D@2@@0@ABV10@PBD@Z DD 0ffffffffH
	DD	FLAT:__unwindfunclet$??$?HDU?$char_traits@D@std@@V?$allocator@D@1@@std@@YA?AV?$basic_string@DU?$char_traits@D@std@@V?$allocator@D@2@@0@ABV10@PBD@Z$1
	DD	00H
	DD	FLAT:__unwindfunclet$??$?HDU?$char_traits@D@std@@V?$allocator@D@1@@std@@YA?AV?$basic_string@DU?$char_traits@D@std@@V?$allocator@D@2@@0@ABV10@PBD@Z$0
__ehfuncinfo$??$?HDU?$char_traits@D@std@@V?$allocator@D@1@@std@@YA?AV?$basic_string@DU?$char_traits@D@std@@V?$allocator@D@2@@0@ABV10@PBD@Z DD 019930522H
	DD	02H
	DD	FLAT:__unwindtable$??$?HDU?$char_traits@D@std@@V?$allocator@D@1@@std@@YA?AV?$basic_string@DU?$char_traits@D@std@@V?$allocator@D@2@@0@ABV10@PBD@Z
	DD	2 DUP(00H)
	DD	2 DUP(00H)
	DD	00H
	DD	01H
; Function compile flags: /Odtp /RTCsu
xdata$x	ENDS
;	COMDAT ??$?HDU?$char_traits@D@std@@V?$allocator@D@1@@std@@YA?AV?$basic_string@DU?$char_traits@D@std@@V?$allocator@D@2@@0@ABV10@PBD@Z
_TEXT	SEGMENT
$T142166 = -60						; size = 4
__Ans$ = -52						; size = 32
__$ArrayPad$ = -16					; size = 4
__$EHRec$ = -12						; size = 12
___$ReturnUdt$ = 8					; size = 4
__Left$ = 12						; size = 4
__Right$ = 16						; size = 4
??$?HDU?$char_traits@D@std@@V?$allocator@D@1@@std@@YA?AV?$basic_string@DU?$char_traits@D@std@@V?$allocator@D@2@@0@ABV10@PBD@Z PROC ; std::operator+<char,std::char_traits<char>,std::allocator<char> >, COMDAT

; 64   : 	{	// return string + NTCS

	push	ebp
	mov	ebp, esp
	push	-1
	push	__ehhandler$??$?HDU?$char_traits@D@std@@V?$allocator@D@1@@std@@YA?AV?$basic_string@DU?$char_traits@D@std@@V?$allocator@D@2@@0@ABV10@PBD@Z
	mov	eax, DWORD PTR fs:0
	push	eax
	sub	esp, 48					; 00000030H
	push	esi
	push	edi
	lea	edi, DWORD PTR [ebp-60]
	mov	ecx, 12					; 0000000cH
	mov	eax, -858993460				; ccccccccH
	rep stosd
	mov	eax, DWORD PTR ___security_cookie
	xor	eax, ebp
	mov	DWORD PTR __$ArrayPad$[ebp], eax
	push	eax
	lea	eax, DWORD PTR __$EHRec$[ebp]
	mov	DWORD PTR fs:0, eax
	mov	DWORD PTR $T142166[ebp], 0

; 65   : 	basic_string<_Elem, _Traits, _Alloc> _Ans;

	lea	ecx, DWORD PTR __Ans$[ebp]
	call	??0?$basic_string@DU?$char_traits@D@std@@V?$allocator@D@2@@std@@QAE@XZ ; std::basic_string<char,std::char_traits<char>,std::allocator<char> >::basic_string<char,std::char_traits<char>,std::allocator<char> >
	mov	DWORD PTR __$EHRec$[ebp+8], 1

; 66   : 	_Ans.reserve(_Left.size() + _Traits::length(_Right));

	mov	ecx, DWORD PTR __Left$[ebp]
	call	?size@?$basic_string@DU?$char_traits@D@std@@V?$allocator@D@2@@std@@QBEIXZ ; std::basic_string<char,std::char_traits<char>,std::allocator<char> >::size
	mov	esi, eax
	mov	eax, DWORD PTR __Right$[ebp]
	push	eax
	call	?length@?$char_traits@D@std@@SAIPBD@Z	; std::char_traits<char>::length
	add	esp, 4
	add	esi, eax
	push	esi
	lea	ecx, DWORD PTR __Ans$[ebp]
	call	?reserve@?$basic_string@DU?$char_traits@D@std@@V?$allocator@D@2@@std@@QAEXI@Z ; std::basic_string<char,std::char_traits<char>,std::allocator<char> >::reserve

; 67   : 	_Ans += _Left;

	mov	ecx, DWORD PTR __Left$[ebp]
	push	ecx
	lea	ecx, DWORD PTR __Ans$[ebp]
	call	??Y?$basic_string@DU?$char_traits@D@std@@V?$allocator@D@2@@std@@QAEAAV01@ABV01@@Z ; std::basic_string<char,std::char_traits<char>,std::allocator<char> >::operator+=

; 68   : 	_Ans += _Right;

	mov	edx, DWORD PTR __Right$[ebp]
	push	edx
	lea	ecx, DWORD PTR __Ans$[ebp]
	call	??Y?$basic_string@DU?$char_traits@D@std@@V?$allocator@D@2@@std@@QAEAAV01@PBD@Z ; std::basic_string<char,std::char_traits<char>,std::allocator<char> >::operator+=

; 69   : 	return (_Ans);

	lea	eax, DWORD PTR __Ans$[ebp]
	push	eax
	mov	ecx, DWORD PTR ___$ReturnUdt$[ebp]
	call	??0?$basic_string@DU?$char_traits@D@std@@V?$allocator@D@2@@std@@QAE@$$QAV01@@Z ; std::basic_string<char,std::char_traits<char>,std::allocator<char> >::basic_string<char,std::char_traits<char>,std::allocator<char> >
	mov	ecx, DWORD PTR $T142166[ebp]
	or	ecx, 1
	mov	DWORD PTR $T142166[ebp], ecx
	mov	BYTE PTR __$EHRec$[ebp+8], 0
	lea	ecx, DWORD PTR __Ans$[ebp]
	call	??1?$basic_string@DU?$char_traits@D@std@@V?$allocator@D@2@@std@@QAE@XZ ; std::basic_string<char,std::char_traits<char>,std::allocator<char> >::~basic_string<char,std::char_traits<char>,std::allocator<char> >
	mov	eax, DWORD PTR ___$ReturnUdt$[ebp]

; 70   : 	}

	push	edx
	mov	ecx, ebp
	push	eax
	lea	edx, DWORD PTR $LN9@operator@2
	call	@_RTC_CheckStackVars@8
	pop	eax
	pop	edx
	mov	ecx, DWORD PTR __$EHRec$[ebp]
	mov	DWORD PTR fs:0, ecx
	pop	ecx
	pop	edi
	pop	esi
	mov	ecx, DWORD PTR __$ArrayPad$[ebp]
	xor	ecx, ebp
	call	@__security_check_cookie@4
	add	esp, 60					; 0000003cH
	cmp	ebp, esp
	call	__RTC_CheckEsp
	mov	esp, ebp
	pop	ebp
	ret	0
	npad	2
$LN9@operator@2:
	DD	1
	DD	$LN8@operator@2
$LN8@operator@2:
	DD	-52					; ffffffccH
	DD	32					; 00000020H
	DD	$LN6@operator@2
$LN6@operator@2:
	DB	95					; 0000005fH
	DB	65					; 00000041H
	DB	110					; 0000006eH
	DB	115					; 00000073H
	DB	0
_TEXT	ENDS
;	COMDAT text$x
text$x	SEGMENT
__unwindfunclet$??$?HDU?$char_traits@D@std@@V?$allocator@D@1@@std@@YA?AV?$basic_string@DU?$char_traits@D@std@@V?$allocator@D@2@@0@ABV10@PBD@Z$0:
	lea	ecx, DWORD PTR __Ans$[ebp]
	jmp	??1?$basic_string@DU?$char_traits@D@std@@V?$allocator@D@2@@std@@QAE@XZ ; std::basic_string<char,std::char_traits<char>,std::allocator<char> >::~basic_string<char,std::char_traits<char>,std::allocator<char> >
__unwindfunclet$??$?HDU?$char_traits@D@std@@V?$allocator@D@1@@std@@YA?AV?$basic_string@DU?$char_traits@D@std@@V?$allocator@D@2@@0@ABV10@PBD@Z$1:
	mov	eax, DWORD PTR $T142166[ebp]
	and	eax, 1
	je	$LN5@operator@2
	and	DWORD PTR $T142166[ebp], -2		; fffffffeH
	mov	ecx, DWORD PTR ___$ReturnUdt$[ebp]
	jmp	??1?$basic_string@DU?$char_traits@D@std@@V?$allocator@D@2@@std@@QAE@XZ ; std::basic_string<char,std::char_traits<char>,std::allocator<char> >::~basic_string<char,std::char_traits<char>,std::allocator<char> >
$LN5@operator@2:
	ret	0
__ehhandler$??$?HDU?$char_traits@D@std@@V?$allocator@D@1@@std@@YA?AV?$basic_string@DU?$char_traits@D@std@@V?$allocator@D@2@@0@ABV10@PBD@Z:
	mov	edx, DWORD PTR [esp+8]
	lea	eax, DWORD PTR [edx+12]
	mov	ecx, DWORD PTR [edx-60]
	xor	ecx, eax
	call	@__security_check_cookie@4
	mov	ecx, DWORD PTR [edx-4]
	xor	ecx, eax
	call	@__security_check_cookie@4
	mov	eax, OFFSET __ehfuncinfo$??$?HDU?$char_traits@D@std@@V?$allocator@D@1@@std@@YA?AV?$basic_string@DU?$char_traits@D@std@@V?$allocator@D@2@@0@ABV10@PBD@Z
	jmp	___CxxFrameHandler3
text$x	ENDS
??$?HDU?$char_traits@D@std@@V?$allocator@D@1@@std@@YA?AV?$basic_string@DU?$char_traits@D@std@@V?$allocator@D@2@@0@ABV10@PBD@Z ENDP ; std::operator+<char,std::char_traits<char>,std::allocator<char> >
;	COMDAT xdata$x
; File c:\program files (x86)\microsoft visual studio 10.0\vc\include\xstring
xdata$x	SEGMENT
__unwindtable$??0?$basic_string@DU?$char_traits@D@std@@V?$allocator@D@2@@std@@QAE@XZ DD 0ffffffffH
	DD	FLAT:__unwindfunclet$??0?$basic_string@DU?$char_traits@D@std@@V?$allocator@D@2@@std@@QAE@XZ$0
__ehfuncinfo$??0?$basic_string@DU?$char_traits@D@std@@V?$allocator@D@2@@std@@QAE@XZ DD 019930522H
	DD	01H
	DD	FLAT:__unwindtable$??0?$basic_string@DU?$char_traits@D@std@@V?$allocator@D@2@@std@@QAE@XZ
	DD	2 DUP(00H)
	DD	2 DUP(00H)
	DD	00H
	DD	01H
; Function compile flags: /Odtp /RTCsu
xdata$x	ENDS
;	COMDAT ??0?$basic_string@DU?$char_traits@D@std@@V?$allocator@D@2@@std@@QAE@XZ
_TEXT	SEGMENT
$T142179 = -20						; size = 4
_this$ = -16						; size = 4
__$EHRec$ = -12						; size = 12
??0?$basic_string@DU?$char_traits@D@std@@V?$allocator@D@2@@std@@QAE@XZ PROC ; std::basic_string<char,std::char_traits<char>,std::allocator<char> >::basic_string<char,std::char_traits<char>,std::allocator<char> >, COMDAT
; _this$ = ecx

; 550  : 		{	// construct empty string

	push	ebp
	mov	ebp, esp
	push	-1
	push	__ehhandler$??0?$basic_string@DU?$char_traits@D@std@@V?$allocator@D@2@@std@@QAE@XZ
	mov	eax, DWORD PTR fs:0
	push	eax
	sub	esp, 8
	mov	DWORD PTR [ebp-20], -858993460		; ccccccccH
	mov	DWORD PTR [ebp-16], -858993460		; ccccccccH
	mov	eax, DWORD PTR ___security_cookie
	xor	eax, ebp
	push	eax
	lea	eax, DWORD PTR __$EHRec$[ebp]
	mov	DWORD PTR fs:0, eax
	mov	DWORD PTR _this$[ebp], ecx
	push	ecx
	mov	ecx, esp
	mov	DWORD PTR $T142179[ebp], esp
	call	??0?$allocator@D@std@@QAE@XZ		; std::allocator<char>::allocator<char>
	mov	ecx, DWORD PTR _this$[ebp]
	call	??0?$_String_val@DV?$allocator@D@std@@@std@@QAE@V?$allocator@D@1@@Z ; std::_String_val<char,std::allocator<char> >::_String_val<char,std::allocator<char> >
	mov	DWORD PTR __$EHRec$[ebp+8], 0

; 551  : 		_Tidy();

	push	0
	push	0
	mov	ecx, DWORD PTR _this$[ebp]
	call	?_Tidy@?$basic_string@DU?$char_traits@D@std@@V?$allocator@D@2@@std@@QAEX_NI@Z ; std::basic_string<char,std::char_traits<char>,std::allocator<char> >::_Tidy

; 552  : 		}

	mov	DWORD PTR __$EHRec$[ebp+8], -1
	mov	eax, DWORD PTR _this$[ebp]
	mov	ecx, DWORD PTR __$EHRec$[ebp]
	mov	DWORD PTR fs:0, ecx
	pop	ecx
	add	esp, 20					; 00000014H
	cmp	ebp, esp
	call	__RTC_CheckEsp
	mov	esp, ebp
	pop	ebp
	ret	0
_TEXT	ENDS
;	COMDAT text$x
text$x	SEGMENT
__unwindfunclet$??0?$basic_string@DU?$char_traits@D@std@@V?$allocator@D@2@@std@@QAE@XZ$0:
	mov	ecx, DWORD PTR _this$[ebp]
	jmp	??1?$_String_val@DV?$allocator@D@std@@@std@@QAE@XZ ; std::_String_val<char,std::allocator<char> >::~_String_val<char,std::allocator<char> >
__ehhandler$??0?$basic_string@DU?$char_traits@D@std@@V?$allocator@D@2@@std@@QAE@XZ:
	mov	edx, DWORD PTR [esp+8]
	lea	eax, DWORD PTR [edx+12]
	mov	ecx, DWORD PTR [edx-12]
	xor	ecx, eax
	call	@__security_check_cookie@4
	mov	eax, OFFSET __ehfuncinfo$??0?$basic_string@DU?$char_traits@D@std@@V?$allocator@D@2@@std@@QAE@XZ
	jmp	___CxxFrameHandler3
text$x	ENDS
??0?$basic_string@DU?$char_traits@D@std@@V?$allocator@D@2@@std@@QAE@XZ ENDP ; std::basic_string<char,std::char_traits<char>,std::allocator<char> >::basic_string<char,std::char_traits<char>,std::allocator<char> >
PUBLIC	?assign@?$basic_string@DU?$char_traits@D@std@@V?$allocator@D@2@@std@@QAEAAV12@$$QAV12@@Z ; std::basic_string<char,std::char_traits<char>,std::allocator<char> >::assign
PUBLIC	??$forward@V?$basic_string@DU?$char_traits@D@std@@V?$allocator@D@2@@std@@@std@@YA$$QAV?$basic_string@DU?$char_traits@D@std@@V?$allocator@D@2@@0@AAV10@@Z ; std::forward<std::basic_string<char,std::char_traits<char>,std::allocator<char> > >
PUBLIC	??$forward@V?$allocator@D@std@@@std@@YA$$QAV?$allocator@D@0@AAV10@@Z ; std::forward<std::allocator<char> >
;	COMDAT xdata$x
xdata$x	SEGMENT
__unwindtable$??0?$basic_string@DU?$char_traits@D@std@@V?$allocator@D@2@@std@@QAE@$$QAV01@@Z DD 0ffffffffH
	DD	FLAT:__unwindfunclet$??0?$basic_string@DU?$char_traits@D@std@@V?$allocator@D@2@@std@@QAE@$$QAV01@@Z$0
__ehfuncinfo$??0?$basic_string@DU?$char_traits@D@std@@V?$allocator@D@2@@std@@QAE@$$QAV01@@Z DD 019930522H
	DD	01H
	DD	FLAT:__unwindtable$??0?$basic_string@DU?$char_traits@D@std@@V?$allocator@D@2@@std@@QAE@$$QAV01@@Z
	DD	2 DUP(00H)
	DD	2 DUP(00H)
	DD	00H
	DD	01H
; Function compile flags: /Odtp /RTCsu
xdata$x	ENDS
;	COMDAT ??0?$basic_string@DU?$char_traits@D@std@@V?$allocator@D@2@@std@@QAE@$$QAV01@@Z
_TEXT	SEGMENT
$T142189 = -20						; size = 4
_this$ = -16						; size = 4
__$EHRec$ = -12						; size = 12
__Right$ = 8						; size = 4
??0?$basic_string@DU?$char_traits@D@std@@V?$allocator@D@2@@std@@QAE@$$QAV01@@Z PROC ; std::basic_string<char,std::char_traits<char>,std::allocator<char> >::basic_string<char,std::char_traits<char>,std::allocator<char> >, COMDAT
; _this$ = ecx

; 702  : 		{	// construct by moving _Right

	push	ebp
	mov	ebp, esp
	push	-1
	push	__ehhandler$??0?$basic_string@DU?$char_traits@D@std@@V?$allocator@D@2@@std@@QAE@$$QAV01@@Z
	mov	eax, DWORD PTR fs:0
	push	eax
	sub	esp, 8
	mov	DWORD PTR [ebp-20], -858993460		; ccccccccH
	mov	DWORD PTR [ebp-16], -858993460		; ccccccccH
	mov	eax, DWORD PTR ___security_cookie
	xor	eax, ebp
	push	eax
	lea	eax, DWORD PTR __$EHRec$[ebp]
	mov	DWORD PTR fs:0, eax
	mov	DWORD PTR _this$[ebp], ecx
	mov	eax, DWORD PTR __Right$[ebp]
	add	eax, 28					; 0000001cH
	push	eax
	call	??$forward@V?$allocator@D@std@@@std@@YA$$QAV?$allocator@D@0@AAV10@@Z ; std::forward<std::allocator<char> >
	mov	ecx, esp
	mov	DWORD PTR $T142189[ebp], esp
	push	eax
	call	??0?$allocator@D@std@@QAE@ABV01@@Z	; std::allocator<char>::allocator<char>
	mov	ecx, DWORD PTR _this$[ebp]
	call	??0?$_String_val@DV?$allocator@D@std@@@std@@QAE@V?$allocator@D@1@@Z ; std::_String_val<char,std::allocator<char> >::_String_val<char,std::allocator<char> >
	mov	DWORD PTR __$EHRec$[ebp+8], 0

; 703  : 		_Tidy();

	push	0
	push	0
	mov	ecx, DWORD PTR _this$[ebp]
	call	?_Tidy@?$basic_string@DU?$char_traits@D@std@@V?$allocator@D@2@@std@@QAEX_NI@Z ; std::basic_string<char,std::char_traits<char>,std::allocator<char> >::_Tidy

; 704  : 		assign(_STD forward<_Myt>(_Right));

	mov	ecx, DWORD PTR __Right$[ebp]
	push	ecx
	call	??$forward@V?$basic_string@DU?$char_traits@D@std@@V?$allocator@D@2@@std@@@std@@YA$$QAV?$basic_string@DU?$char_traits@D@std@@V?$allocator@D@2@@0@AAV10@@Z ; std::forward<std::basic_string<char,std::char_traits<char>,std::allocator<char> > >
	add	esp, 4
	push	eax
	mov	ecx, DWORD PTR _this$[ebp]
	call	?assign@?$basic_string@DU?$char_traits@D@std@@V?$allocator@D@2@@std@@QAEAAV12@$$QAV12@@Z ; std::basic_string<char,std::char_traits<char>,std::allocator<char> >::assign

; 705  : 		}

	mov	DWORD PTR __$EHRec$[ebp+8], -1
	mov	eax, DWORD PTR _this$[ebp]
	mov	ecx, DWORD PTR __$EHRec$[ebp]
	mov	DWORD PTR fs:0, ecx
	pop	ecx
	add	esp, 20					; 00000014H
	cmp	ebp, esp
	call	__RTC_CheckEsp
	mov	esp, ebp
	pop	ebp
	ret	4
_TEXT	ENDS
;	COMDAT text$x
text$x	SEGMENT
__unwindfunclet$??0?$basic_string@DU?$char_traits@D@std@@V?$allocator@D@2@@std@@QAE@$$QAV01@@Z$0:
	mov	ecx, DWORD PTR _this$[ebp]
	jmp	??1?$_String_val@DV?$allocator@D@std@@@std@@QAE@XZ ; std::_String_val<char,std::allocator<char> >::~_String_val<char,std::allocator<char> >
__ehhandler$??0?$basic_string@DU?$char_traits@D@std@@V?$allocator@D@2@@std@@QAE@$$QAV01@@Z:
	mov	edx, DWORD PTR [esp+8]
	lea	eax, DWORD PTR [edx+12]
	mov	ecx, DWORD PTR [edx-12]
	xor	ecx, eax
	call	@__security_check_cookie@4
	mov	eax, OFFSET __ehfuncinfo$??0?$basic_string@DU?$char_traits@D@std@@V?$allocator@D@2@@std@@QAE@$$QAV01@@Z
	jmp	___CxxFrameHandler3
text$x	ENDS
??0?$basic_string@DU?$char_traits@D@std@@V?$allocator@D@2@@std@@QAE@$$QAV01@@Z ENDP ; std::basic_string<char,std::char_traits<char>,std::allocator<char> >::basic_string<char,std::char_traits<char>,std::allocator<char> >
PUBLIC	??4?$basic_string@DU?$char_traits@D@std@@V?$allocator@D@2@@std@@QAEAAV01@ABV01@@Z ; std::basic_string<char,std::char_traits<char>,std::allocator<char> >::operator=
PUBLIC	??$?9DD@std@@YA_NABV?$allocator@D@0@0@Z		; std::operator!=<char,char>
PUBLIC	?get_allocator@?$basic_string@DU?$char_traits@D@std@@V?$allocator@D@2@@std@@QBE?AV?$allocator@D@2@XZ ; std::basic_string<char,std::char_traits<char>,std::allocator<char> >::get_allocator
; Function compile flags: /Odtp /RTCsu
;	COMDAT ?assign@?$basic_string@DU?$char_traits@D@std@@V?$allocator@D@2@@std@@QAEAAV12@$$QAV12@@Z
_TEXT	SEGMENT
$T142200 = -6						; size = 1
$T142199 = -5						; size = 1
_this$ = -4						; size = 4
__Right$ = 8						; size = 4
?assign@?$basic_string@DU?$char_traits@D@std@@V?$allocator@D@2@@std@@QAEAAV12@$$QAV12@@Z PROC ; std::basic_string<char,std::char_traits<char>,std::allocator<char> >::assign, COMDAT
; _this$ = ecx

; 713  : 		{	// assign by moving _Right

	push	ebp
	mov	ebp, esp
	sub	esp, 8
	mov	DWORD PTR [ebp-8], -858993460		; ccccccccH
	mov	DWORD PTR [ebp-4], -858993460		; ccccccccH
	mov	DWORD PTR _this$[ebp], ecx

; 714  : 		if (this == &_Right)

	mov	eax, DWORD PTR _this$[ebp]
	cmp	eax, DWORD PTR __Right$[ebp]
	jne	SHORT $LN6@assign@3

; 715  : 			;
; 716  : 		else if (get_allocator() != _Right.get_allocator()

	jmp	$LN5@assign@3
$LN6@assign@3:

; 717  : 			&& this->_BUF_SIZE <= _Right._Myres)

	lea	ecx, DWORD PTR $T142199[ebp]
	push	ecx
	mov	ecx, DWORD PTR __Right$[ebp]
	call	?get_allocator@?$basic_string@DU?$char_traits@D@std@@V?$allocator@D@2@@std@@QBE?AV?$allocator@D@2@XZ ; std::basic_string<char,std::char_traits<char>,std::allocator<char> >::get_allocator
	push	eax
	lea	edx, DWORD PTR $T142200[ebp]
	push	edx
	mov	ecx, DWORD PTR _this$[ebp]
	call	?get_allocator@?$basic_string@DU?$char_traits@D@std@@V?$allocator@D@2@@std@@QBE?AV?$allocator@D@2@XZ ; std::basic_string<char,std::char_traits<char>,std::allocator<char> >::get_allocator
	push	eax
	call	??$?9DD@std@@YA_NABV?$allocator@D@0@0@Z	; std::operator!=<char,char>
	add	esp, 8
	movzx	eax, al
	test	eax, eax
	je	SHORT $LN4@assign@3
	mov	ecx, DWORD PTR __Right$[ebp]
	cmp	DWORD PTR [ecx+24], 16			; 00000010H
	jb	SHORT $LN4@assign@3

; 718  : 			*this = _Right;

	mov	edx, DWORD PTR __Right$[ebp]
	push	edx
	mov	ecx, DWORD PTR _this$[ebp]
	call	??4?$basic_string@DU?$char_traits@D@std@@V?$allocator@D@2@@std@@QAEAAV01@ABV01@@Z ; std::basic_string<char,std::char_traits<char>,std::allocator<char> >::operator=

; 719  : 		else

	jmp	SHORT $LN5@assign@3
$LN4@assign@3:

; 720  : 			{	// not same, clear this and steal from _Right
; 721  : 			_Tidy(true);

	push	0
	push	1
	mov	ecx, DWORD PTR _this$[ebp]
	call	?_Tidy@?$basic_string@DU?$char_traits@D@std@@V?$allocator@D@2@@std@@QAEX_NI@Z ; std::basic_string<char,std::char_traits<char>,std::allocator<char> >::_Tidy

; 722  : 			if (_Right._Myres < this->_BUF_SIZE)

	mov	eax, DWORD PTR __Right$[ebp]
	cmp	DWORD PTR [eax+24], 16			; 00000010H
	jae	SHORT $LN2@assign@3

; 723  : 				_Traits::move(this->_Bx._Buf, _Right._Bx._Buf,
; 724  : 					_Right._Mysize + 1);

	mov	ecx, DWORD PTR __Right$[ebp]
	mov	edx, DWORD PTR [ecx+20]
	add	edx, 1
	push	edx
	mov	eax, DWORD PTR __Right$[ebp]
	add	eax, 4
	push	eax
	mov	ecx, DWORD PTR _this$[ebp]
	add	ecx, 4
	push	ecx
	call	?move@?$char_traits@D@std@@SAPADPADPBDI@Z ; std::char_traits<char>::move
	add	esp, 12					; 0000000cH

; 725  : 			else

	jmp	SHORT $LN1@assign@3
$LN2@assign@3:

; 726  : 				{	// copy pointer
; 727  : 				this->_Bx._Ptr = _Right._Bx._Ptr;

	mov	edx, DWORD PTR _this$[ebp]
	mov	eax, DWORD PTR __Right$[ebp]
	mov	ecx, DWORD PTR [eax+4]
	mov	DWORD PTR [edx+4], ecx

; 728  : 				_Right._Bx._Ptr = 0;

	mov	edx, DWORD PTR __Right$[ebp]
	mov	DWORD PTR [edx+4], 0
$LN1@assign@3:

; 729  : 				}
; 730  : 			this->_Mysize = _Right._Mysize;

	mov	eax, DWORD PTR _this$[ebp]
	mov	ecx, DWORD PTR __Right$[ebp]
	mov	edx, DWORD PTR [ecx+20]
	mov	DWORD PTR [eax+20], edx

; 731  : 			this->_Myres = _Right._Myres;

	mov	eax, DWORD PTR _this$[ebp]
	mov	ecx, DWORD PTR __Right$[ebp]
	mov	edx, DWORD PTR [ecx+24]
	mov	DWORD PTR [eax+24], edx

; 732  : 
; 733  : 			_Right._Tidy();

	push	0
	push	0
	mov	ecx, DWORD PTR __Right$[ebp]
	call	?_Tidy@?$basic_string@DU?$char_traits@D@std@@V?$allocator@D@2@@std@@QAEX_NI@Z ; std::basic_string<char,std::char_traits<char>,std::allocator<char> >::_Tidy
$LN5@assign@3:

; 734  : 			}
; 735  : 		return (*this);

	mov	eax, DWORD PTR _this$[ebp]

; 736  : 		}

	add	esp, 8
	cmp	ebp, esp
	call	__RTC_CheckEsp
	mov	esp, ebp
	pop	ebp
	ret	4
?assign@?$basic_string@DU?$char_traits@D@std@@V?$allocator@D@2@@std@@QAEAAV12@$$QAV12@@Z ENDP ; std::basic_string<char,std::char_traits<char>,std::allocator<char> >::assign
_TEXT	ENDS
PUBLIC	?assign@?$basic_string@DU?$char_traits@D@std@@V?$allocator@D@2@@std@@QAEAAV12@ABV12@@Z ; std::basic_string<char,std::char_traits<char>,std::allocator<char> >::assign
; Function compile flags: /Odtp /RTCsu
;	COMDAT ??4?$basic_string@DU?$char_traits@D@std@@V?$allocator@D@2@@std@@QAEAAV01@ABV01@@Z
_TEXT	SEGMENT
_this$ = -4						; size = 4
__Right$ = 8						; size = 4
??4?$basic_string@DU?$char_traits@D@std@@V?$allocator@D@2@@std@@QAEAAV01@ABV01@@Z PROC ; std::basic_string<char,std::char_traits<char>,std::allocator<char> >::operator=, COMDAT
; _this$ = ecx

; 762  : 		{	// assign _Right

	push	ebp
	mov	ebp, esp
	push	ecx
	mov	DWORD PTR [ebp-4], -858993460		; ccccccccH
	mov	DWORD PTR _this$[ebp], ecx

; 763  : 		return (assign(_Right));

	mov	eax, DWORD PTR __Right$[ebp]
	push	eax
	mov	ecx, DWORD PTR _this$[ebp]
	call	?assign@?$basic_string@DU?$char_traits@D@std@@V?$allocator@D@2@@std@@QAEAAV12@ABV12@@Z ; std::basic_string<char,std::char_traits<char>,std::allocator<char> >::assign

; 764  : 		}

	add	esp, 4
	cmp	ebp, esp
	call	__RTC_CheckEsp
	mov	esp, ebp
	pop	ebp
	ret	4
??4?$basic_string@DU?$char_traits@D@std@@V?$allocator@D@2@@std@@QAEAAV01@ABV01@@Z ENDP ; std::basic_string<char,std::char_traits<char>,std::allocator<char> >::operator=
; Function compile flags: /Odtp /RTCsu
_TEXT	ENDS
;	COMDAT ?get_allocator@?$basic_string@DU?$char_traits@D@std@@V?$allocator@D@2@@std@@QBE?AV?$allocator@D@2@XZ
_TEXT	SEGMENT
_this$ = -4						; size = 4
___$ReturnUdt$ = 8					; size = 4
?get_allocator@?$basic_string@DU?$char_traits@D@std@@V?$allocator@D@2@@std@@QBE?AV?$allocator@D@2@XZ PROC ; std::basic_string<char,std::char_traits<char>,std::allocator<char> >::get_allocator, COMDAT
; _this$ = ecx

; 1905 : 		{	// return allocator object for values

	push	ebp
	mov	ebp, esp
	push	ecx
	mov	DWORD PTR [ebp-4], -858993460		; ccccccccH
	mov	DWORD PTR _this$[ebp], ecx

; 1906 : 		return (this->_Alval);

	mov	eax, DWORD PTR _this$[ebp]
	add	eax, 28					; 0000001cH
	push	eax
	mov	ecx, DWORD PTR ___$ReturnUdt$[ebp]
	call	??0?$allocator@D@std@@QAE@ABV01@@Z	; std::allocator<char>::allocator<char>
	mov	eax, DWORD PTR ___$ReturnUdt$[ebp]

; 1907 : 		}

	add	esp, 4
	cmp	ebp, esp
	call	__RTC_CheckEsp
	mov	esp, ebp
	pop	ebp
	ret	4
?get_allocator@?$basic_string@DU?$char_traits@D@std@@V?$allocator@D@2@@std@@QBE?AV?$allocator@D@2@XZ ENDP ; std::basic_string<char,std::char_traits<char>,std::allocator<char> >::get_allocator
; Function compile flags: /Odtp /RTCsu
_TEXT	ENDS
;	COMDAT ?assign@?$basic_string@DU?$char_traits@D@std@@V?$allocator@D@2@@std@@QAEAAV12@ABV12@@Z
_TEXT	SEGMENT
_this$ = -4						; size = 4
__Right$ = 8						; size = 4
?assign@?$basic_string@DU?$char_traits@D@std@@V?$allocator@D@2@@std@@QAEAAV12@ABV12@@Z PROC ; std::basic_string<char,std::char_traits<char>,std::allocator<char> >::assign, COMDAT
; _this$ = ecx

; 886  : 		{	// assign _Right

	push	ebp
	mov	ebp, esp
	push	ecx
	mov	DWORD PTR [ebp-4], -858993460		; ccccccccH
	mov	DWORD PTR _this$[ebp], ecx

; 887  : 		return (assign(_Right, 0, npos));

	mov	eax, DWORD PTR ?npos@?$basic_string@DU?$char_traits@D@std@@V?$allocator@D@2@@std@@2IB ; std::basic_string<char,std::char_traits<char>,std::allocator<char> >::npos
	push	eax
	push	0
	mov	ecx, DWORD PTR __Right$[ebp]
	push	ecx
	mov	ecx, DWORD PTR _this$[ebp]
	call	?assign@?$basic_string@DU?$char_traits@D@std@@V?$allocator@D@2@@std@@QAEAAV12@ABV12@II@Z ; std::basic_string<char,std::char_traits<char>,std::allocator<char> >::assign

; 888  : 		}

	add	esp, 4
	cmp	ebp, esp
	call	__RTC_CheckEsp
	mov	esp, ebp
	pop	ebp
	ret	4
?assign@?$basic_string@DU?$char_traits@D@std@@V?$allocator@D@2@@std@@QAEAAV12@ABV12@@Z ENDP ; std::basic_string<char,std::char_traits<char>,std::allocator<char> >::assign
; Function compile flags: /Odtp /RTCsu
; File c:\program files (x86)\microsoft visual studio 10.0\vc\include\utility
_TEXT	ENDS
;	COMDAT ??$forward@V?$allocator@D@std@@@std@@YA$$QAV?$allocator@D@0@AAV10@@Z
_TEXT	SEGMENT
__Arg$ = 8						; size = 4
??$forward@V?$allocator@D@std@@@std@@YA$$QAV?$allocator@D@0@AAV10@@Z PROC ; std::forward<std::allocator<char> >, COMDAT

; 78   : 	{	// forward _Arg, given explicitly specified type parameter

	push	ebp
	mov	ebp, esp

; 79   : 	return ((_Ty&&)_Arg);

	mov	eax, DWORD PTR __Arg$[ebp]

; 80   : 	}

	pop	ebp
	ret	0
??$forward@V?$allocator@D@std@@@std@@YA$$QAV?$allocator@D@0@AAV10@@Z ENDP ; std::forward<std::allocator<char> >
; Function compile flags: /Odtp /RTCsu
_TEXT	ENDS
;	COMDAT ??$forward@V?$basic_string@DU?$char_traits@D@std@@V?$allocator@D@2@@std@@@std@@YA$$QAV?$basic_string@DU?$char_traits@D@std@@V?$allocator@D@2@@0@AAV10@@Z
_TEXT	SEGMENT
__Arg$ = 8						; size = 4
??$forward@V?$basic_string@DU?$char_traits@D@std@@V?$allocator@D@2@@std@@@std@@YA$$QAV?$basic_string@DU?$char_traits@D@std@@V?$allocator@D@2@@0@AAV10@@Z PROC ; std::forward<std::basic_string<char,std::char_traits<char>,std::allocator<char> > >, COMDAT

; 78   : 	{	// forward _Arg, given explicitly specified type parameter

	push	ebp
	mov	ebp, esp

; 79   : 	return ((_Ty&&)_Arg);

	mov	eax, DWORD PTR __Arg$[ebp]

; 80   : 	}

	pop	ebp
	ret	0
??$forward@V?$basic_string@DU?$char_traits@D@std@@V?$allocator@D@2@@std@@@std@@YA$$QAV?$basic_string@DU?$char_traits@D@std@@V?$allocator@D@2@@0@AAV10@@Z ENDP ; std::forward<std::basic_string<char,std::char_traits<char>,std::allocator<char> > >
_TEXT	ENDS
PUBLIC	??_C@_1CK@EOPGIILJ@?$AAi?$AAn?$AAv?$AAa?$AAl?$AAi?$AAd?$AA?5?$AAn?$AAu?$AAl?$AAl?$AA?5?$AAp?$AAo?$AAi?$AAn?$AAt?$AAe?$AAr?$AA?$AA@ ; `string'
;	COMDAT ??_C@_1CK@EOPGIILJ@?$AAi?$AAn?$AAv?$AAa?$AAl?$AAi?$AAd?$AA?5?$AAn?$AAu?$AAl?$AAl?$AA?5?$AAp?$AAo?$AAi?$AAn?$AAt?$AAe?$AAr?$AA?$AA@
; File c:\program files (x86)\microsoft visual studio 10.0\vc\include\xutility
CONST	SEGMENT
??_C@_1CK@EOPGIILJ@?$AAi?$AAn?$AAv?$AAa?$AAl?$AAi?$AAd?$AA?5?$AAn?$AAu?$AAl?$AAl?$AA?5?$AAp?$AAo?$AAi?$AAn?$AAt?$AAe?$AAr?$AA?$AA@ DB 'i'
	DB	00H, 'n', 00H, 'v', 00H, 'a', 00H, 'l', 00H, 'i', 00H, 'd', 00H
	DB	' ', 00H, 'n', 00H, 'u', 00H, 'l', 00H, 'l', 00H, ' ', 00H, 'p'
	DB	00H, 'o', 00H, 'i', 00H, 'n', 00H, 't', 00H, 'e', 00H, 'r', 00H
	DB	00H, 00H					; `string'
; Function compile flags: /Odtp /RTCsu
CONST	ENDS
;	COMDAT ??$_Debug_pointer@D@std@@YAXPBDPB_WI@Z
_TEXT	SEGMENT
__First$ = 8						; size = 4
__File$ = 12						; size = 4
__Line$ = 16						; size = 4
??$_Debug_pointer@D@std@@YAXPBDPB_WI@Z PROC		; std::_Debug_pointer<char>, COMDAT

; 701  : 	{	// test iterator for non-singularity, const pointers

	push	ebp
	mov	ebp, esp

; 702  : 	if (_First == 0)

	cmp	DWORD PTR __First$[ebp], 0
	jne	SHORT $LN2@Debug_poin

; 703  : 		_DEBUG_ERROR2("invalid null pointer", _File, _Line);

	mov	eax, DWORD PTR __Line$[ebp]
	push	eax
	mov	ecx, DWORD PTR __File$[ebp]
	push	ecx
	push	OFFSET ??_C@_1CK@EOPGIILJ@?$AAi?$AAn?$AAv?$AAa?$AAl?$AAi?$AAd?$AA?5?$AAn?$AAu?$AAl?$AAl?$AA?5?$AAp?$AAo?$AAi?$AAn?$AAt?$AAe?$AAr?$AA?$AA@
	call	?_Debug_message@std@@YAXPB_W0I@Z	; std::_Debug_message
	add	esp, 12					; 0000000cH
$LN2@Debug_poin:

; 704  : 	}

	cmp	ebp, esp
	call	__RTC_CheckEsp
	pop	ebp
	ret	0
??$_Debug_pointer@D@std@@YAXPBDPB_WI@Z ENDP		; std::_Debug_pointer<char>
; Function compile flags: /Odtp /RTCsu
; File c:\program files (x86)\microsoft visual studio 10.0\vc\include\xmemory
_TEXT	ENDS
;	COMDAT ??$addressof@PAVGoal_Evaluator@@@std@@YAPAPAVGoal_Evaluator@@AAPAV1@@Z
_TEXT	SEGMENT
__Val$ = 8						; size = 4
??$addressof@PAVGoal_Evaluator@@@std@@YAPAPAVGoal_Evaluator@@AAPAV1@@Z PROC ; std::addressof<Goal_Evaluator *>, COMDAT

; 110  : 	{	// return address of _Val

	push	ebp
	mov	ebp, esp

; 111  : 	return ((_Ty *) &(char&)_Val);

	mov	eax, DWORD PTR __Val$[ebp]

; 112  : 	}

	pop	ebp
	ret	0
??$addressof@PAVGoal_Evaluator@@@std@@YAPAPAVGoal_Evaluator@@AAPAV1@@Z ENDP ; std::addressof<Goal_Evaluator *>
; Function compile flags: /Odtp /RTCsu
; File c:\program files (x86)\microsoft visual studio 10.0\vc\include\utility
_TEXT	ENDS
;	COMDAT ??$forward@PAVGoal_Evaluator@@@std@@YA$$QAPAVGoal_Evaluator@@AAPAV1@@Z
_TEXT	SEGMENT
__Arg$ = 8						; size = 4
??$forward@PAVGoal_Evaluator@@@std@@YA$$QAPAVGoal_Evaluator@@AAPAV1@@Z PROC ; std::forward<Goal_Evaluator *>, COMDAT

; 78   : 	{	// forward _Arg, given explicitly specified type parameter

	push	ebp
	mov	ebp, esp

; 79   : 	return ((_Ty&&)_Arg);

	mov	eax, DWORD PTR __Arg$[ebp]

; 80   : 	}

	pop	ebp
	ret	0
??$forward@PAVGoal_Evaluator@@@std@@YA$$QAPAVGoal_Evaluator@@AAPAV1@@Z ENDP ; std::forward<Goal_Evaluator *>
_TEXT	ENDS
PUBLIC	?construct@?$allocator@PAVGoal_Evaluator@@@std@@QAEXPAPAVGoal_Evaluator@@$$QAPAV3@@Z ; std::allocator<Goal_Evaluator *>::construct
; Function compile flags: /Odtp /RTCsu
; File c:\program files (x86)\microsoft visual studio 10.0\vc\include\xmemory
;	COMDAT ??$_Cons_val@V?$allocator@PAVGoal_Evaluator@@@std@@PAVGoal_Evaluator@@PAV3@@std@@YAXAAV?$allocator@PAVGoal_Evaluator@@@0@PAPAVGoal_Evaluator@@$$QAPAV2@@Z
_TEXT	SEGMENT
__Alval$ = 8						; size = 4
__Pdest$ = 12						; size = 4
__Src$ = 16						; size = 4
??$_Cons_val@V?$allocator@PAVGoal_Evaluator@@@std@@PAVGoal_Evaluator@@PAV3@@std@@YAXAAV?$allocator@PAVGoal_Evaluator@@@0@PAPAVGoal_Evaluator@@$$QAPAV2@@Z PROC ; std::_Cons_val<std::allocator<Goal_Evaluator *>,Goal_Evaluator *,Goal_Evaluator *>, COMDAT

; 279  : 	{	// construct using allocator

	push	ebp
	mov	ebp, esp

; 280  : 	_Alval.construct(_Pdest, _STD forward<_Ty2>(_Src));

	mov	eax, DWORD PTR __Src$[ebp]
	push	eax
	call	??$forward@PAVGoal_Evaluator@@@std@@YA$$QAPAVGoal_Evaluator@@AAPAV1@@Z ; std::forward<Goal_Evaluator *>
	add	esp, 4
	push	eax
	mov	ecx, DWORD PTR __Pdest$[ebp]
	push	ecx
	mov	ecx, DWORD PTR __Alval$[ebp]
	call	?construct@?$allocator@PAVGoal_Evaluator@@@std@@QAEXPAPAVGoal_Evaluator@@$$QAPAV3@@Z ; std::allocator<Goal_Evaluator *>::construct

; 281  : 	}

	cmp	ebp, esp
	call	__RTC_CheckEsp
	pop	ebp
	ret	0
??$_Cons_val@V?$allocator@PAVGoal_Evaluator@@@std@@PAVGoal_Evaluator@@PAV3@@std@@YAXAAV?$allocator@PAVGoal_Evaluator@@@0@PAPAVGoal_Evaluator@@$$QAPAV2@@Z ENDP ; std::_Cons_val<std::allocator<Goal_Evaluator *>,Goal_Evaluator *,Goal_Evaluator *>
_TEXT	ENDS
PUBLIC	??$?8DD@std@@YA_NABV?$allocator@D@0@0@Z		; std::operator==<char,char>
; Function compile flags: /Odtp /RTCsu
;	COMDAT ??$?9DD@std@@YA_NABV?$allocator@D@0@0@Z
_TEXT	SEGMENT
__Left$ = 8						; size = 4
__Right$ = 12						; size = 4
??$?9DD@std@@YA_NABV?$allocator@D@0@0@Z PROC		; std::operator!=<char,char>, COMDAT

; 270  : 	{	// test for allocator inequality

	push	ebp
	mov	ebp, esp

; 271  : 	return (!(_Left == _Right));

	mov	eax, DWORD PTR __Right$[ebp]
	push	eax
	mov	ecx, DWORD PTR __Left$[ebp]
	push	ecx
	call	??$?8DD@std@@YA_NABV?$allocator@D@0@0@Z	; std::operator==<char,char>
	add	esp, 8
	movzx	eax, al
	neg	eax
	sbb	eax, eax
	add	eax, 1

; 272  : 	}

	cmp	ebp, esp
	call	__RTC_CheckEsp
	pop	ebp
	ret	0
??$?9DD@std@@YA_NABV?$allocator@D@0@0@Z ENDP		; std::operator!=<char,char>
; Function compile flags: /Odtp /RTCsu
_TEXT	ENDS
;	COMDAT ??$?0D@?$allocator@U_Container_proxy@std@@@std@@QAE@ABV?$allocator@D@1@@Z
_TEXT	SEGMENT
_this$ = -4						; size = 4
___formal$ = 8						; size = 4
??$?0D@?$allocator@U_Container_proxy@std@@@std@@QAE@ABV?$allocator@D@1@@Z PROC ; std::allocator<std::_Container_proxy>::allocator<std::_Container_proxy><char>, COMDAT
; _this$ = ecx

; 170  : 		_ALLOCATOR(const _ALLOCATOR<_Other>&) _THROW0()

	push	ebp
	mov	ebp, esp
	push	ecx
	mov	DWORD PTR [ebp-4], -858993460		; ccccccccH
	mov	DWORD PTR _this$[ebp], ecx

; 171  : 		{	// construct from a related allocator (do nothing)
; 172  : 		}

	mov	eax, DWORD PTR _this$[ebp]
	mov	esp, ebp
	pop	ebp
	ret	4
??$?0D@?$allocator@U_Container_proxy@std@@@std@@QAE@ABV?$allocator@D@1@@Z ENDP ; std::allocator<std::_Container_proxy>::allocator<std::_Container_proxy><char>
_TEXT	ENDS
PUBLIC	?construct@?$allocator@U_Container_proxy@std@@@std@@QAEXPAU_Container_proxy@2@$$QAU32@@Z ; std::allocator<std::_Container_proxy>::construct
PUBLIC	??$forward@U_Container_proxy@std@@@std@@YA$$QAU_Container_proxy@0@AAU10@@Z ; std::forward<std::_Container_proxy>
; Function compile flags: /Odtp /RTCsu
;	COMDAT ??$_Cons_val@V?$allocator@U_Container_proxy@std@@@std@@U_Container_proxy@2@U32@@std@@YAXAAV?$allocator@U_Container_proxy@std@@@0@PAU_Container_proxy@0@$$QAU20@@Z
_TEXT	SEGMENT
__Alval$ = 8						; size = 4
__Pdest$ = 12						; size = 4
__Src$ = 16						; size = 4
??$_Cons_val@V?$allocator@U_Container_proxy@std@@@std@@U_Container_proxy@2@U32@@std@@YAXAAV?$allocator@U_Container_proxy@std@@@0@PAU_Container_proxy@0@$$QAU20@@Z PROC ; std::_Cons_val<std::allocator<std::_Container_proxy>,std::_Container_proxy,std::_Container_proxy>, COMDAT

; 279  : 	{	// construct using allocator

	push	ebp
	mov	ebp, esp

; 280  : 	_Alval.construct(_Pdest, _STD forward<_Ty2>(_Src));

	mov	eax, DWORD PTR __Src$[ebp]
	push	eax
	call	??$forward@U_Container_proxy@std@@@std@@YA$$QAU_Container_proxy@0@AAU10@@Z ; std::forward<std::_Container_proxy>
	add	esp, 4
	push	eax
	mov	ecx, DWORD PTR __Pdest$[ebp]
	push	ecx
	mov	ecx, DWORD PTR __Alval$[ebp]
	call	?construct@?$allocator@U_Container_proxy@std@@@std@@QAEXPAU_Container_proxy@2@$$QAU32@@Z ; std::allocator<std::_Container_proxy>::construct

; 281  : 	}

	cmp	ebp, esp
	call	__RTC_CheckEsp
	pop	ebp
	ret	0
??$_Cons_val@V?$allocator@U_Container_proxy@std@@@std@@U_Container_proxy@2@U32@@std@@YAXAAV?$allocator@U_Container_proxy@std@@@0@PAU_Container_proxy@0@$$QAU20@@Z ENDP ; std::_Cons_val<std::allocator<std::_Container_proxy>,std::_Container_proxy,std::_Container_proxy>
_TEXT	ENDS
PUBLIC	?destroy@?$allocator@U_Container_proxy@std@@@std@@QAEXPAU_Container_proxy@2@@Z ; std::allocator<std::_Container_proxy>::destroy
; Function compile flags: /Odtp /RTCsu
;	COMDAT ??$_Dest_val@V?$allocator@U_Container_proxy@std@@@std@@U_Container_proxy@2@@std@@YAXAAV?$allocator@U_Container_proxy@std@@@0@PAU_Container_proxy@0@@Z
_TEXT	SEGMENT
__Alval$ = 8						; size = 4
__Pdest$ = 12						; size = 4
??$_Dest_val@V?$allocator@U_Container_proxy@std@@@std@@U_Container_proxy@2@@std@@YAXAAV?$allocator@U_Container_proxy@std@@@0@PAU_Container_proxy@0@@Z PROC ; std::_Dest_val<std::allocator<std::_Container_proxy>,std::_Container_proxy>, COMDAT

; 286  : 	{	// destroy using allocator

	push	ebp
	mov	ebp, esp

; 287  : 	_Alval.destroy(_Pdest);

	mov	eax, DWORD PTR __Pdest$[ebp]
	push	eax
	mov	ecx, DWORD PTR __Alval$[ebp]
	call	?destroy@?$allocator@U_Container_proxy@std@@@std@@QAEXPAU_Container_proxy@2@@Z ; std::allocator<std::_Container_proxy>::destroy

; 288  : 	}

	cmp	ebp, esp
	call	__RTC_CheckEsp
	pop	ebp
	ret	0
??$_Dest_val@V?$allocator@U_Container_proxy@std@@@std@@U_Container_proxy@2@@std@@YAXAAV?$allocator@U_Container_proxy@std@@@0@PAU_Container_proxy@0@@Z ENDP ; std::_Dest_val<std::allocator<std::_Container_proxy>,std::_Container_proxy>
_TEXT	ENDS
PUBLIC	??$_Move@PAPAVGoal_Evaluator@@PAPAV1@@std@@YAPAPAVGoal_Evaluator@@PAPAV1@00U_Scalar_ptr_iterator_tag@0@@Z ; std::_Move<Goal_Evaluator * *,Goal_Evaluator * *>
PUBLIC	??$_Ptr_cat@PAVGoal_Evaluator@@PAV1@@std@@YA?AU_Scalar_ptr_iterator_tag@0@PAPAVGoal_Evaluator@@0@Z ; std::_Ptr_cat<Goal_Evaluator *,Goal_Evaluator *>
; Function compile flags: /Odtp /RTCsu
; File c:\program files (x86)\microsoft visual studio 10.0\vc\include\xutility
;	COMDAT ??$_Move@PAPAVGoal_Evaluator@@PAPAV1@@std@@YAPAPAVGoal_Evaluator@@PAPAV1@00@Z
_TEXT	SEGMENT
$T142229 = -1						; size = 1
__First$ = 8						; size = 4
__Last$ = 12						; size = 4
__Dest$ = 16						; size = 4
??$_Move@PAPAVGoal_Evaluator@@PAPAV1@@std@@YAPAPAVGoal_Evaluator@@PAPAV1@00@Z PROC ; std::_Move<Goal_Evaluator * *,Goal_Evaluator * *>, COMDAT

; 2545 : 	{	// move [_First, _Last) to [_Dest, ...), unchecked

	push	ebp
	mov	ebp, esp
	push	ecx
	mov	DWORD PTR [ebp-4], -858993460		; ccccccccH

; 2546 : 	return (_Move(_First, _Last,
; 2547 : 		_Dest, _Ptr_cat(_First, _Dest)));

	mov	eax, DWORD PTR __Dest$[ebp]
	push	eax
	mov	ecx, DWORD PTR __First$[ebp]
	push	ecx
	call	??$_Ptr_cat@PAVGoal_Evaluator@@PAV1@@std@@YA?AU_Scalar_ptr_iterator_tag@0@PAPAVGoal_Evaluator@@0@Z ; std::_Ptr_cat<Goal_Evaluator *,Goal_Evaluator *>
	add	esp, 8
	mov	BYTE PTR $T142229[ebp], al
	movzx	edx, BYTE PTR $T142229[ebp]
	push	edx
	mov	eax, DWORD PTR __Dest$[ebp]
	push	eax
	mov	ecx, DWORD PTR __Last$[ebp]
	push	ecx
	mov	edx, DWORD PTR __First$[ebp]
	push	edx
	call	??$_Move@PAPAVGoal_Evaluator@@PAPAV1@@std@@YAPAPAVGoal_Evaluator@@PAPAV1@00U_Scalar_ptr_iterator_tag@0@@Z ; std::_Move<Goal_Evaluator * *,Goal_Evaluator * *>
	add	esp, 16					; 00000010H

; 2548 : 	}

	add	esp, 4
	cmp	ebp, esp
	call	__RTC_CheckEsp
	mov	esp, ebp
	pop	ebp
	ret	0
??$_Move@PAPAVGoal_Evaluator@@PAPAV1@@std@@YAPAPAVGoal_Evaluator@@PAPAV1@00@Z ENDP ; std::_Move<Goal_Evaluator * *,Goal_Evaluator * *>
_TEXT	ENDS
PUBLIC	??$_Uninitialized_move@PAPAVGoal_Evaluator@@PAPAV1@V?$allocator@PAVGoal_Evaluator@@@std@@@std@@YAPAPAVGoal_Evaluator@@PAPAV1@00AAV?$allocator@PAVGoal_Evaluator@@@0@@Z ; std::_Uninitialized_move<Goal_Evaluator * *,Goal_Evaluator * *,std::allocator<Goal_Evaluator *> >
; Function compile flags: /Odtp /RTCsu
; File c:\program files (x86)\microsoft visual studio 10.0\vc\include\vector
;	COMDAT ??$_Umove@PAPAVGoal_Evaluator@@@?$vector@PAVGoal_Evaluator@@V?$allocator@PAVGoal_Evaluator@@@std@@@std@@IAEPAPAVGoal_Evaluator@@PAPAV2@00@Z
_TEXT	SEGMENT
_this$ = -4						; size = 4
__First$ = 8						; size = 4
__Last$ = 12						; size = 4
__Ptr$ = 16						; size = 4
??$_Umove@PAPAVGoal_Evaluator@@@?$vector@PAVGoal_Evaluator@@V?$allocator@PAVGoal_Evaluator@@@std@@@std@@IAEPAPAVGoal_Evaluator@@PAPAV2@00@Z PROC ; std::vector<Goal_Evaluator *,std::allocator<Goal_Evaluator *> >::_Umove<Goal_Evaluator * *>, COMDAT
; _this$ = ecx

; 1322 : 		pointer _Umove(_Iter _First, _Iter _Last, pointer _Ptr)

	push	ebp
	mov	ebp, esp
	push	ecx
	mov	DWORD PTR [ebp-4], -858993460		; ccccccccH
	mov	DWORD PTR _this$[ebp], ecx

; 1323 : 		{	// move initializing [_First, _Last), using allocator
; 1324 : 		return (_Uninitialized_move(_First, _Last,
; 1325 : 			_Ptr, this->_Alval));

	mov	eax, DWORD PTR _this$[ebp]
	add	eax, 16					; 00000010H
	push	eax
	mov	ecx, DWORD PTR __Ptr$[ebp]
	push	ecx
	mov	edx, DWORD PTR __Last$[ebp]
	push	edx
	mov	eax, DWORD PTR __First$[ebp]
	push	eax
	call	??$_Uninitialized_move@PAPAVGoal_Evaluator@@PAPAV1@V?$allocator@PAVGoal_Evaluator@@@std@@@std@@YAPAPAVGoal_Evaluator@@PAPAV1@00AAV?$allocator@PAVGoal_Evaluator@@@0@@Z ; std::_Uninitialized_move<Goal_Evaluator * *,Goal_Evaluator * *,std::allocator<Goal_Evaluator *> >
	add	esp, 16					; 00000010H

; 1326 : 		}

	add	esp, 4
	cmp	ebp, esp
	call	__RTC_CheckEsp
	mov	esp, ebp
	pop	ebp
	ret	12					; 0000000cH
??$_Umove@PAPAVGoal_Evaluator@@@?$vector@PAVGoal_Evaluator@@V?$allocator@PAVGoal_Evaluator@@@std@@@std@@IAEPAPAVGoal_Evaluator@@PAPAV2@00@Z ENDP ; std::vector<Goal_Evaluator *,std::allocator<Goal_Evaluator *> >::_Umove<Goal_Evaluator * *>
_TEXT	ENDS
PUBLIC	??$_Destroy_range@V?$allocator@PAVGoal_Evaluator@@@std@@@std@@YAXPAPAVGoal_Evaluator@@0AAV?$allocator@PAVGoal_Evaluator@@@0@U_Scalar_ptr_iterator_tag@0@@Z ; std::_Destroy_range<std::allocator<Goal_Evaluator *> >
; Function compile flags: /Odtp /RTCsu
; File c:\program files (x86)\microsoft visual studio 10.0\vc\include\xmemory
;	COMDAT ??$_Destroy_range@V?$allocator@PAVGoal_Evaluator@@@std@@@std@@YAXPAPAVGoal_Evaluator@@0AAV?$allocator@PAVGoal_Evaluator@@@0@@Z
_TEXT	SEGMENT
$T142234 = -1						; size = 1
__First$ = 8						; size = 4
__Last$ = 12						; size = 4
__Al$ = 16						; size = 4
??$_Destroy_range@V?$allocator@PAVGoal_Evaluator@@@std@@@std@@YAXPAPAVGoal_Evaluator@@0AAV?$allocator@PAVGoal_Evaluator@@@0@@Z PROC ; std::_Destroy_range<std::allocator<Goal_Evaluator *> >, COMDAT

; 87   : 	{	// destroy [_First, _Last)

	push	ebp
	mov	ebp, esp
	push	ecx
	mov	DWORD PTR [ebp-4], -858993460		; ccccccccH

; 88   : 	_Destroy_range(_First, _Last, _Al, _Ptr_cat(_First, _Last));

	mov	eax, DWORD PTR __Last$[ebp]
	push	eax
	mov	ecx, DWORD PTR __First$[ebp]
	push	ecx
	call	??$_Ptr_cat@PAVGoal_Evaluator@@PAV1@@std@@YA?AU_Scalar_ptr_iterator_tag@0@PAPAVGoal_Evaluator@@0@Z ; std::_Ptr_cat<Goal_Evaluator *,Goal_Evaluator *>
	add	esp, 8
	mov	BYTE PTR $T142234[ebp], al
	movzx	edx, BYTE PTR $T142234[ebp]
	push	edx
	mov	eax, DWORD PTR __Al$[ebp]
	push	eax
	mov	ecx, DWORD PTR __Last$[ebp]
	push	ecx
	mov	edx, DWORD PTR __First$[ebp]
	push	edx
	call	??$_Destroy_range@V?$allocator@PAVGoal_Evaluator@@@std@@@std@@YAXPAPAVGoal_Evaluator@@0AAV?$allocator@PAVGoal_Evaluator@@@0@U_Scalar_ptr_iterator_tag@0@@Z ; std::_Destroy_range<std::allocator<Goal_Evaluator *> >
	add	esp, 16					; 00000010H

; 89   : 	}

	add	esp, 4
	cmp	ebp, esp
	call	__RTC_CheckEsp
	mov	esp, ebp
	pop	ebp
	ret	0
??$_Destroy_range@V?$allocator@PAVGoal_Evaluator@@@std@@@std@@YAXPAPAVGoal_Evaluator@@0AAV?$allocator@PAVGoal_Evaluator@@@0@@Z ENDP ; std::_Destroy_range<std::allocator<Goal_Evaluator *> >
_TEXT	ENDS
PUBLIC	__TI2?AVbad_alloc@std@@
PUBLIC	??0bad_alloc@std@@QAE@PBD@Z			; std::bad_alloc::bad_alloc
PUBLIC	??1bad_alloc@std@@UAE@XZ			; std::bad_alloc::~bad_alloc
PUBLIC	__CTA2?AVbad_alloc@std@@
PUBLIC	__CT??_R0?AVbad_alloc@std@@@8??0bad_alloc@std@@QAE@ABV01@@Z12
PUBLIC	??_R0?AVbad_alloc@std@@@8			; std::bad_alloc `RTTI Type Descriptor'
PUBLIC	??0bad_alloc@std@@QAE@ABV01@@Z			; std::bad_alloc::bad_alloc
;	COMDAT ??_R0?AVbad_alloc@std@@@8
_DATA	SEGMENT
??_R0?AVbad_alloc@std@@@8 DD FLAT:??_7type_info@@6B@	; std::bad_alloc `RTTI Type Descriptor'
	DD	00H
	DB	'.?AVbad_alloc@std@@', 00H
_DATA	ENDS
;	COMDAT __CT??_R0?AVbad_alloc@std@@@8??0bad_alloc@std@@QAE@ABV01@@Z12
xdata$x	SEGMENT
__CT??_R0?AVbad_alloc@std@@@8??0bad_alloc@std@@QAE@ABV01@@Z12 DD 00H
	DD	FLAT:??_R0?AVbad_alloc@std@@@8
	DD	00H
	DD	0ffffffffH
	ORG $+4
	DD	0cH
	DD	FLAT:??0bad_alloc@std@@QAE@ABV01@@Z
xdata$x	ENDS
;	COMDAT __CTA2?AVbad_alloc@std@@
xdata$x	SEGMENT
__CTA2?AVbad_alloc@std@@ DD 02H
	DD	FLAT:__CT??_R0?AVbad_alloc@std@@@8??0bad_alloc@std@@QAE@ABV01@@Z12
	DD	FLAT:__CT??_R0?AVexception@std@@@8??0exception@std@@QAE@ABV01@@Z12
xdata$x	ENDS
;	COMDAT __TI2?AVbad_alloc@std@@
xdata$x	SEGMENT
__TI2?AVbad_alloc@std@@ DD 00H
	DD	FLAT:??1bad_alloc@std@@UAE@XZ
	DD	00H
	DD	FLAT:__CTA2?AVbad_alloc@std@@
; Function compile flags: /Odtp /RTCsu
xdata$x	ENDS
;	COMDAT ??$_Allocate@U_Container_proxy@std@@@std@@YAPAU_Container_proxy@0@IPAU10@@Z
_TEXT	SEGMENT
$T142237 = -16						; size = 12
__Ptr$ = -4						; size = 4
__Count$ = 8						; size = 4
___formal$ = 12						; size = 4
??$_Allocate@U_Container_proxy@std@@@std@@YAPAU_Container_proxy@0@IPAU10@@Z PROC ; std::_Allocate<std::_Container_proxy>, COMDAT

; 30   : 	{	// allocate storage for _Count elements of type _Ty

	push	ebp
	mov	ebp, esp
	sub	esp, 16					; 00000010H
	mov	eax, -858993460				; ccccccccH
	mov	DWORD PTR [ebp-16], eax
	mov	DWORD PTR [ebp-12], eax
	mov	DWORD PTR [ebp-8], eax
	mov	DWORD PTR [ebp-4], eax

; 31   : 	void *_Ptr = 0;

	mov	DWORD PTR __Ptr$[ebp], 0

; 32   : 
; 33   : 	if (_Count <= 0)

	cmp	DWORD PTR __Count$[ebp], 0
	ja	SHORT $LN4@Allocate

; 34   : 		_Count = 0;

	mov	DWORD PTR __Count$[ebp], 0

; 35   : 	else if (((_SIZT)(-1) / sizeof (_Ty) < _Count)

	jmp	SHORT $LN3@Allocate
$LN4@Allocate:

; 36   : 		|| (_Ptr = ::operator new(_Count * sizeof (_Ty))) == 0)

	cmp	DWORD PTR __Count$[ebp], 536870911	; 1fffffffH
	ja	SHORT $LN1@Allocate
	mov	eax, DWORD PTR __Count$[ebp]
	shl	eax, 3
	push	eax
	call	??2@YAPAXI@Z				; operator new
	add	esp, 4
	mov	DWORD PTR __Ptr$[ebp], eax
	cmp	DWORD PTR __Ptr$[ebp], 0
	jne	SHORT $LN3@Allocate
$LN1@Allocate:

; 37   : 		_THROW_NCEE(bad_alloc, 0);

	push	0
	lea	ecx, DWORD PTR $T142237[ebp]
	call	??0bad_alloc@std@@QAE@PBD@Z		; std::bad_alloc::bad_alloc
	push	OFFSET __TI2?AVbad_alloc@std@@
	lea	ecx, DWORD PTR $T142237[ebp]
	push	ecx
	call	__CxxThrowException@8
$LN3@Allocate:

; 38   : 
; 39   : 	return ((_Ty _FARQ *)_Ptr);

	mov	eax, DWORD PTR __Ptr$[ebp]
$LN6@Allocate:

; 40   : 	}

	add	esp, 16					; 00000010H
	cmp	ebp, esp
	call	__RTC_CheckEsp
	mov	esp, ebp
	pop	ebp
	ret	0
??$_Allocate@U_Container_proxy@std@@@std@@YAPAU_Container_proxy@0@IPAU10@@Z ENDP ; std::_Allocate<std::_Container_proxy>
_TEXT	ENDS
PUBLIC	??_7bad_alloc@std@@6B@				; std::bad_alloc::`vftable'
PUBLIC	??_R4bad_alloc@std@@6B@				; std::bad_alloc::`RTTI Complete Object Locator'
PUBLIC	??_R3bad_alloc@std@@8				; std::bad_alloc::`RTTI Class Hierarchy Descriptor'
PUBLIC	??_R2bad_alloc@std@@8				; std::bad_alloc::`RTTI Base Class Array'
PUBLIC	??_R1A@?0A@EA@bad_alloc@std@@8			; std::bad_alloc::`RTTI Base Class Descriptor at (0,-1,0,64)'
EXTRN	??_Ebad_alloc@std@@UAEPAXI@Z:PROC		; std::bad_alloc::`vector deleting destructor'
;	COMDAT ??_R1A@?0A@EA@bad_alloc@std@@8
; File c:\program files (x86)\microsoft visual studio 10.0\vc\include\exception
rdata$r	SEGMENT
??_R1A@?0A@EA@bad_alloc@std@@8 DD FLAT:??_R0?AVbad_alloc@std@@@8 ; std::bad_alloc::`RTTI Base Class Descriptor at (0,-1,0,64)'
	DD	01H
	DD	00H
	DD	0ffffffffH
	DD	00H
	DD	040H
	DD	FLAT:??_R3bad_alloc@std@@8
rdata$r	ENDS
;	COMDAT ??_R2bad_alloc@std@@8
rdata$r	SEGMENT
??_R2bad_alloc@std@@8 DD FLAT:??_R1A@?0A@EA@bad_alloc@std@@8 ; std::bad_alloc::`RTTI Base Class Array'
	DD	FLAT:??_R1A@?0A@EA@exception@std@@8
rdata$r	ENDS
;	COMDAT ??_R3bad_alloc@std@@8
rdata$r	SEGMENT
??_R3bad_alloc@std@@8 DD 00H				; std::bad_alloc::`RTTI Class Hierarchy Descriptor'
	DD	00H
	DD	02H
	DD	FLAT:??_R2bad_alloc@std@@8
rdata$r	ENDS
;	COMDAT ??_R4bad_alloc@std@@6B@
rdata$r	SEGMENT
??_R4bad_alloc@std@@6B@ DD 00H				; std::bad_alloc::`RTTI Complete Object Locator'
	DD	00H
	DD	00H
	DD	FLAT:??_R0?AVbad_alloc@std@@@8
	DD	FLAT:??_R3bad_alloc@std@@8
rdata$r	ENDS
;	COMDAT ??_7bad_alloc@std@@6B@
CONST	SEGMENT
??_7bad_alloc@std@@6B@ DD FLAT:??_R4bad_alloc@std@@6B@	; std::bad_alloc::`vftable'
	DD	FLAT:??_Ebad_alloc@std@@UAEPAXI@Z
	DD	FLAT:?what@exception@std@@UBEPBDXZ
; Function compile flags: /Odtp /RTCsu
CONST	ENDS
;	COMDAT ??0bad_alloc@std@@QAE@PBD@Z
_TEXT	SEGMENT
_this$ = -4						; size = 4
__Message$ = 8						; size = 4
??0bad_alloc@std@@QAE@PBD@Z PROC			; std::bad_alloc::bad_alloc, COMDAT
; _this$ = ecx

; 345  : 		{	// construct from message string

	push	ebp
	mov	ebp, esp
	push	ecx
	mov	DWORD PTR [ebp-4], -858993460		; ccccccccH
	mov	DWORD PTR _this$[ebp], ecx
	lea	eax, DWORD PTR __Message$[ebp]
	push	eax
	mov	ecx, DWORD PTR _this$[ebp]
	call	??0exception@std@@QAE@ABQBD@Z		; std::exception::exception
	mov	ecx, DWORD PTR _this$[ebp]
	mov	DWORD PTR [ecx], OFFSET ??_7bad_alloc@std@@6B@

; 346  : 		}

	mov	eax, DWORD PTR _this$[ebp]
	add	esp, 4
	cmp	ebp, esp
	call	__RTC_CheckEsp
	mov	esp, ebp
	pop	ebp
	ret	4
??0bad_alloc@std@@QAE@PBD@Z ENDP			; std::bad_alloc::bad_alloc
; Function compile flags: /Odtp /RTCsu
_TEXT	ENDS
;	COMDAT ??1bad_alloc@std@@UAE@XZ
_TEXT	SEGMENT
_this$ = -4						; size = 4
??1bad_alloc@std@@UAE@XZ PROC				; std::bad_alloc::~bad_alloc, COMDAT
; _this$ = ecx

; 354  : 		{	// destroy the object

	push	ebp
	mov	ebp, esp
	push	ecx
	mov	DWORD PTR [ebp-4], -858993460		; ccccccccH
	mov	DWORD PTR _this$[ebp], ecx
	mov	eax, DWORD PTR _this$[ebp]
	mov	DWORD PTR [eax], OFFSET ??_7bad_alloc@std@@6B@

; 355  : 		}

	mov	ecx, DWORD PTR _this$[ebp]
	call	??1exception@std@@UAE@XZ		; std::exception::~exception
	add	esp, 4
	cmp	ebp, esp
	call	__RTC_CheckEsp
	mov	esp, ebp
	pop	ebp
	ret	0
??1bad_alloc@std@@UAE@XZ ENDP				; std::bad_alloc::~bad_alloc
; Function compile flags: /Odtp /RTCsu
_TEXT	ENDS
;	COMDAT ??_Gbad_alloc@std@@UAEPAXI@Z
_TEXT	SEGMENT
_this$ = -4						; size = 4
___flags$ = 8						; size = 4
??_Gbad_alloc@std@@UAEPAXI@Z PROC			; std::bad_alloc::`scalar deleting destructor', COMDAT
; _this$ = ecx
	push	ebp
	mov	ebp, esp
	push	ecx
	mov	DWORD PTR [ebp-4], -858993460		; ccccccccH
	mov	DWORD PTR _this$[ebp], ecx
	mov	ecx, DWORD PTR _this$[ebp]
	call	??1bad_alloc@std@@UAE@XZ		; std::bad_alloc::~bad_alloc
	mov	eax, DWORD PTR ___flags$[ebp]
	and	eax, 1
	je	SHORT $LN1@scalar@8
	mov	ecx, DWORD PTR _this$[ebp]
	push	ecx
	call	??3@YAXPAX@Z				; operator delete
	add	esp, 4
$LN1@scalar@8:
	mov	eax, DWORD PTR _this$[ebp]
	add	esp, 4
	cmp	ebp, esp
	call	__RTC_CheckEsp
	mov	esp, ebp
	pop	ebp
	ret	4
??_Gbad_alloc@std@@UAEPAXI@Z ENDP			; std::bad_alloc::`scalar deleting destructor'
; Function compile flags: /Odtp /RTCsu
; File c:\program files (x86)\microsoft visual studio 10.0\vc\include\xmemory
_TEXT	ENDS
;	COMDAT ??$_Allocate@PAVGoal_Evaluator@@@std@@YAPAPAVGoal_Evaluator@@IPAPAV1@@Z
_TEXT	SEGMENT
$T142246 = -16						; size = 12
__Ptr$ = -4						; size = 4
__Count$ = 8						; size = 4
___formal$ = 12						; size = 4
??$_Allocate@PAVGoal_Evaluator@@@std@@YAPAPAVGoal_Evaluator@@IPAPAV1@@Z PROC ; std::_Allocate<Goal_Evaluator *>, COMDAT

; 30   : 	{	// allocate storage for _Count elements of type _Ty

	push	ebp
	mov	ebp, esp
	sub	esp, 16					; 00000010H
	mov	eax, -858993460				; ccccccccH
	mov	DWORD PTR [ebp-16], eax
	mov	DWORD PTR [ebp-12], eax
	mov	DWORD PTR [ebp-8], eax
	mov	DWORD PTR [ebp-4], eax

; 31   : 	void *_Ptr = 0;

	mov	DWORD PTR __Ptr$[ebp], 0

; 32   : 
; 33   : 	if (_Count <= 0)

	cmp	DWORD PTR __Count$[ebp], 0
	ja	SHORT $LN4@Allocate@2

; 34   : 		_Count = 0;

	mov	DWORD PTR __Count$[ebp], 0

; 35   : 	else if (((_SIZT)(-1) / sizeof (_Ty) < _Count)

	jmp	SHORT $LN3@Allocate@2
$LN4@Allocate@2:

; 36   : 		|| (_Ptr = ::operator new(_Count * sizeof (_Ty))) == 0)

	cmp	DWORD PTR __Count$[ebp], 1073741823	; 3fffffffH
	ja	SHORT $LN1@Allocate@2
	mov	eax, DWORD PTR __Count$[ebp]
	shl	eax, 2
	push	eax
	call	??2@YAPAXI@Z				; operator new
	add	esp, 4
	mov	DWORD PTR __Ptr$[ebp], eax
	cmp	DWORD PTR __Ptr$[ebp], 0
	jne	SHORT $LN3@Allocate@2
$LN1@Allocate@2:

; 37   : 		_THROW_NCEE(bad_alloc, 0);

	push	0
	lea	ecx, DWORD PTR $T142246[ebp]
	call	??0bad_alloc@std@@QAE@PBD@Z		; std::bad_alloc::bad_alloc
	push	OFFSET __TI2?AVbad_alloc@std@@
	lea	ecx, DWORD PTR $T142246[ebp]
	push	ecx
	call	__CxxThrowException@8
$LN3@Allocate@2:

; 38   : 
; 39   : 	return ((_Ty _FARQ *)_Ptr);

	mov	eax, DWORD PTR __Ptr$[ebp]
$LN6@Allocate@2:

; 40   : 	}

	add	esp, 16					; 00000010H
	cmp	ebp, esp
	call	__RTC_CheckEsp
	mov	esp, ebp
	pop	ebp
	ret	0
??$_Allocate@PAVGoal_Evaluator@@@std@@YAPAPAVGoal_Evaluator@@IPAPAV1@@Z ENDP ; std::_Allocate<Goal_Evaluator *>
; Function compile flags: /Odtp /RTCsu
_TEXT	ENDS
;	COMDAT ??$_Allocate@D@std@@YAPADIPAD@Z
_TEXT	SEGMENT
$T142249 = -16						; size = 12
__Ptr$ = -4						; size = 4
__Count$ = 8						; size = 4
___formal$ = 12						; size = 4
??$_Allocate@D@std@@YAPADIPAD@Z PROC			; std::_Allocate<char>, COMDAT

; 30   : 	{	// allocate storage for _Count elements of type _Ty

	push	ebp
	mov	ebp, esp
	sub	esp, 16					; 00000010H
	mov	eax, -858993460				; ccccccccH
	mov	DWORD PTR [ebp-16], eax
	mov	DWORD PTR [ebp-12], eax
	mov	DWORD PTR [ebp-8], eax
	mov	DWORD PTR [ebp-4], eax

; 31   : 	void *_Ptr = 0;

	mov	DWORD PTR __Ptr$[ebp], 0

; 32   : 
; 33   : 	if (_Count <= 0)

	cmp	DWORD PTR __Count$[ebp], 0
	ja	SHORT $LN4@Allocate@3

; 34   : 		_Count = 0;

	mov	DWORD PTR __Count$[ebp], 0

; 35   : 	else if (((_SIZT)(-1) / sizeof (_Ty) < _Count)

	jmp	SHORT $LN3@Allocate@3
$LN4@Allocate@3:

; 36   : 		|| (_Ptr = ::operator new(_Count * sizeof (_Ty))) == 0)

	cmp	DWORD PTR __Count$[ebp], -1
	ja	SHORT $LN1@Allocate@3
	mov	eax, DWORD PTR __Count$[ebp]
	push	eax
	call	??2@YAPAXI@Z				; operator new
	add	esp, 4
	mov	DWORD PTR __Ptr$[ebp], eax
	cmp	DWORD PTR __Ptr$[ebp], 0
	jne	SHORT $LN3@Allocate@3
$LN1@Allocate@3:

; 37   : 		_THROW_NCEE(bad_alloc, 0);

	push	0
	lea	ecx, DWORD PTR $T142249[ebp]
	call	??0bad_alloc@std@@QAE@PBD@Z		; std::bad_alloc::bad_alloc
	push	OFFSET __TI2?AVbad_alloc@std@@
	lea	ecx, DWORD PTR $T142249[ebp]
	push	ecx
	call	__CxxThrowException@8
$LN3@Allocate@3:

; 38   : 
; 39   : 	return ((_Ty _FARQ *)_Ptr);

	mov	eax, DWORD PTR __Ptr$[ebp]
$LN6@Allocate@3:

; 40   : 	}

	add	esp, 16					; 00000010H
	cmp	ebp, esp
	call	__RTC_CheckEsp
	mov	esp, ebp
	pop	ebp
	ret	0
??$_Allocate@D@std@@YAPADIPAD@Z ENDP			; std::_Allocate<char>
_TEXT	ENDS
PUBLIC	??1?$_Revranit@V?$_List_const_iterator@V?$_List_val@PAV?$Goal@VAbstRaven_Bot@@@@V?$allocator@PAV?$Goal@VAbstRaven_Bot@@@@@std@@@std@@@std@@U?$iterator@Ubidirectional_iterator_tag@std@@PAV?$Goal@VAbstRaven_Bot@@@@HPBQAV3@ABQAV3@@2@@std@@QAE@XZ ; std::_Revranit<std::_List_const_iterator<std::_List_val<Goal<AbstRaven_Bot> *,std::allocator<Goal<AbstRaven_Bot> *> > >,std::iterator<std::bidirectional_iterator_tag,Goal<AbstRaven_Bot> *,int,Goal<AbstRaven_Bot> * const *,Goal<AbstRaven_Bot> * const &> >::~_Revranit<std::_List_const_iterator<std::_List_val<Goal<AbstRaven_Bot> *,std::allocator<Goal<AbstRaven_Bot> *> > >,std::iterator<std::bidirectional_iterator_tag,Goal<AbstRaven_Bot> *,int,Goal<AbstRaven_Bot> * const *,Goal<AbstRaven_Bot> * const &> >
; Function compile flags: /Odtp /RTCsu
;	COMDAT ??1?$reverse_iterator@V?$_List_const_iterator@V?$_List_val@PAV?$Goal@VAbstRaven_Bot@@@@V?$allocator@PAV?$Goal@VAbstRaven_Bot@@@@@std@@@std@@@std@@@std@@QAE@XZ
_TEXT	SEGMENT
_this$ = -4						; size = 4
??1?$reverse_iterator@V?$_List_const_iterator@V?$_List_val@PAV?$Goal@VAbstRaven_Bot@@@@V?$allocator@PAV?$Goal@VAbstRaven_Bot@@@@@std@@@std@@@std@@@std@@QAE@XZ PROC ; std::reverse_iterator<std::_List_const_iterator<std::_List_val<Goal<AbstRaven_Bot> *,std::allocator<Goal<AbstRaven_Bot> *> > > >::~reverse_iterator<std::_List_const_iterator<std::_List_val<Goal<AbstRaven_Bot> *,std::allocator<Goal<AbstRaven_Bot> *> > > >, COMDAT
; _this$ = ecx
	push	ebp
	mov	ebp, esp
	push	ecx
	mov	DWORD PTR [ebp-4], -858993460		; ccccccccH
	mov	DWORD PTR _this$[ebp], ecx
	mov	ecx, DWORD PTR _this$[ebp]
	call	??1?$_Revranit@V?$_List_const_iterator@V?$_List_val@PAV?$Goal@VAbstRaven_Bot@@@@V?$allocator@PAV?$Goal@VAbstRaven_Bot@@@@@std@@@std@@@std@@U?$iterator@Ubidirectional_iterator_tag@std@@PAV?$Goal@VAbstRaven_Bot@@@@HPBQAV3@ABQAV3@@2@@std@@QAE@XZ
	add	esp, 4
	cmp	ebp, esp
	call	__RTC_CheckEsp
	mov	esp, ebp
	pop	ebp
	ret	0
??1?$reverse_iterator@V?$_List_const_iterator@V?$_List_val@PAV?$Goal@VAbstRaven_Bot@@@@V?$allocator@PAV?$Goal@VAbstRaven_Bot@@@@@std@@@std@@@std@@@std@@QAE@XZ ENDP ; std::reverse_iterator<std::_List_const_iterator<std::_List_val<Goal<AbstRaven_Bot> *,std::allocator<Goal<AbstRaven_Bot> *> > > >::~reverse_iterator<std::_List_const_iterator<std::_List_val<Goal<AbstRaven_Bot> *,std::allocator<Goal<AbstRaven_Bot> *> > > >
_TEXT	ENDS
PUBLIC	??4?$_Revranit@V?$_List_const_iterator@V?$_List_val@PAV?$Goal@VAbstRaven_Bot@@@@V?$allocator@PAV?$Goal@VAbstRaven_Bot@@@@@std@@@std@@@std@@U?$iterator@Ubidirectional_iterator_tag@std@@PAV?$Goal@VAbstRaven_Bot@@@@HPBQAV3@ABQAV3@@2@@std@@QAEAAV01@ABV01@@Z ; std::_Revranit<std::_List_const_iterator<std::_List_val<Goal<AbstRaven_Bot> *,std::allocator<Goal<AbstRaven_Bot> *> > >,std::iterator<std::bidirectional_iterator_tag,Goal<AbstRaven_Bot> *,int,Goal<AbstRaven_Bot> * const *,Goal<AbstRaven_Bot> * const &> >::operator=
; Function compile flags: /Odtp /RTCsu
;	COMDAT ??4?$reverse_iterator@V?$_List_const_iterator@V?$_List_val@PAV?$Goal@VAbstRaven_Bot@@@@V?$allocator@PAV?$Goal@VAbstRaven_Bot@@@@@std@@@std@@@std@@@std@@QAEAAV01@ABV01@@Z
_TEXT	SEGMENT
_this$ = -4						; size = 4
___that$ = 8						; size = 4
??4?$reverse_iterator@V?$_List_const_iterator@V?$_List_val@PAV?$Goal@VAbstRaven_Bot@@@@V?$allocator@PAV?$Goal@VAbstRaven_Bot@@@@@std@@@std@@@std@@@std@@QAEAAV01@ABV01@@Z PROC ; std::reverse_iterator<std::_List_const_iterator<std::_List_val<Goal<AbstRaven_Bot> *,std::allocator<Goal<AbstRaven_Bot> *> > > >::operator=, COMDAT
; _this$ = ecx
	push	ebp
	mov	ebp, esp
	push	ecx
	mov	DWORD PTR [ebp-4], -858993460		; ccccccccH
	mov	DWORD PTR _this$[ebp], ecx
	mov	eax, DWORD PTR ___that$[ebp]
	push	eax
	mov	ecx, DWORD PTR _this$[ebp]
	call	??4?$_Revranit@V?$_List_const_iterator@V?$_List_val@PAV?$Goal@VAbstRaven_Bot@@@@V?$allocator@PAV?$Goal@VAbstRaven_Bot@@@@@std@@@std@@@std@@U?$iterator@Ubidirectional_iterator_tag@std@@PAV?$Goal@VAbstRaven_Bot@@@@HPBQAV3@ABQAV3@@2@@std@@QAEAAV01@ABV01@@Z
	mov	eax, DWORD PTR _this$[ebp]
	add	esp, 4
	cmp	ebp, esp
	call	__RTC_CheckEsp
	mov	esp, ebp
	pop	ebp
	ret	4
??4?$reverse_iterator@V?$_List_const_iterator@V?$_List_val@PAV?$Goal@VAbstRaven_Bot@@@@V?$allocator@PAV?$Goal@VAbstRaven_Bot@@@@@std@@@std@@@std@@@std@@QAEAAV01@ABV01@@Z ENDP ; std::reverse_iterator<std::_List_const_iterator<std::_List_val<Goal<AbstRaven_Bot> *,std::allocator<Goal<AbstRaven_Bot> *> > > >::operator=
; Function compile flags: /Odtp /RTCsu
_TEXT	ENDS
;	COMDAT ??0bad_alloc@std@@QAE@ABV01@@Z
_TEXT	SEGMENT
_this$ = -4						; size = 4
___that$ = 8						; size = 4
??0bad_alloc@std@@QAE@ABV01@@Z PROC			; std::bad_alloc::bad_alloc, COMDAT
; _this$ = ecx
	push	ebp
	mov	ebp, esp
	push	ecx
	mov	DWORD PTR [ebp-4], -858993460		; ccccccccH
	mov	DWORD PTR _this$[ebp], ecx
	mov	eax, DWORD PTR ___that$[ebp]
	push	eax
	mov	ecx, DWORD PTR _this$[ebp]
	call	??0exception@std@@QAE@ABV01@@Z		; std::exception::exception
	mov	ecx, DWORD PTR _this$[ebp]
	mov	DWORD PTR [ecx], OFFSET ??_7bad_alloc@std@@6B@
	mov	eax, DWORD PTR _this$[ebp]
	add	esp, 4
	cmp	ebp, esp
	call	__RTC_CheckEsp
	mov	esp, ebp
	pop	ebp
	ret	4
??0bad_alloc@std@@QAE@ABV01@@Z ENDP			; std::bad_alloc::bad_alloc
_TEXT	ENDS
PUBLIC	??1?$_List_const_iterator@V?$_List_val@PAV?$Goal@VAbstRaven_Bot@@@@V?$allocator@PAV?$Goal@VAbstRaven_Bot@@@@@std@@@std@@@std@@QAE@XZ ; std::_List_const_iterator<std::_List_val<Goal<AbstRaven_Bot> *,std::allocator<Goal<AbstRaven_Bot> *> > >::~_List_const_iterator<std::_List_val<Goal<AbstRaven_Bot> *,std::allocator<Goal<AbstRaven_Bot> *> > >
; Function compile flags: /Odtp /RTCsu
;	COMDAT ??1?$_Revranit@V?$_List_const_iterator@V?$_List_val@PAV?$Goal@VAbstRaven_Bot@@@@V?$allocator@PAV?$Goal@VAbstRaven_Bot@@@@@std@@@std@@@std@@U?$iterator@Ubidirectional_iterator_tag@std@@PAV?$Goal@VAbstRaven_Bot@@@@HPBQAV3@ABQAV3@@2@@std@@QAE@XZ
_TEXT	SEGMENT
_this$ = -4						; size = 4
??1?$_Revranit@V?$_List_const_iterator@V?$_List_val@PAV?$Goal@VAbstRaven_Bot@@@@V?$allocator@PAV?$Goal@VAbstRaven_Bot@@@@@std@@@std@@@std@@U?$iterator@Ubidirectional_iterator_tag@std@@PAV?$Goal@VAbstRaven_Bot@@@@HPBQAV3@ABQAV3@@2@@std@@QAE@XZ PROC ; std::_Revranit<std::_List_const_iterator<std::_List_val<Goal<AbstRaven_Bot> *,std::allocator<Goal<AbstRaven_Bot> *> > >,std::iterator<std::bidirectional_iterator_tag,Goal<AbstRaven_Bot> *,int,Goal<AbstRaven_Bot> * const *,Goal<AbstRaven_Bot> * const &> >::~_Revranit<std::_List_const_iterator<std::_List_val<Goal<AbstRaven_Bot> *,std::allocator<Goal<AbstRaven_Bot> *> > >,std::iterator<std::bidirectional_iterator_tag,Goal<AbstRaven_Bot> *,int,Goal<AbstRaven_Bot> * const *,Goal<AbstRaven_Bot> * const &> >, COMDAT
; _this$ = ecx
	push	ebp
	mov	ebp, esp
	push	ecx
	mov	DWORD PTR [ebp-4], -858993460		; ccccccccH
	mov	DWORD PTR _this$[ebp], ecx
	mov	ecx, DWORD PTR _this$[ebp]
	call	??1?$_List_const_iterator@V?$_List_val@PAV?$Goal@VAbstRaven_Bot@@@@V?$allocator@PAV?$Goal@VAbstRaven_Bot@@@@@std@@@std@@@std@@QAE@XZ
	add	esp, 4
	cmp	ebp, esp
	call	__RTC_CheckEsp
	mov	esp, ebp
	pop	ebp
	ret	0
??1?$_Revranit@V?$_List_const_iterator@V?$_List_val@PAV?$Goal@VAbstRaven_Bot@@@@V?$allocator@PAV?$Goal@VAbstRaven_Bot@@@@@std@@@std@@@std@@U?$iterator@Ubidirectional_iterator_tag@std@@PAV?$Goal@VAbstRaven_Bot@@@@HPBQAV3@ABQAV3@@2@@std@@QAE@XZ ENDP ; std::_Revranit<std::_List_const_iterator<std::_List_val<Goal<AbstRaven_Bot> *,std::allocator<Goal<AbstRaven_Bot> *> > >,std::iterator<std::bidirectional_iterator_tag,Goal<AbstRaven_Bot> *,int,Goal<AbstRaven_Bot> * const *,Goal<AbstRaven_Bot> * const &> >::~_Revranit<std::_List_const_iterator<std::_List_val<Goal<AbstRaven_Bot> *,std::allocator<Goal<AbstRaven_Bot> *> > >,std::iterator<std::bidirectional_iterator_tag,Goal<AbstRaven_Bot> *,int,Goal<AbstRaven_Bot> * const *,Goal<AbstRaven_Bot> * const &> >
_TEXT	ENDS
PUBLIC	??1?$_List_unchecked_const_iterator@V?$_List_val@PAV?$Goal@VAbstRaven_Bot@@@@V?$allocator@PAV?$Goal@VAbstRaven_Bot@@@@@std@@@std@@U_Iterator_base12@2@@std@@QAE@XZ ; std::_List_unchecked_const_iterator<std::_List_val<Goal<AbstRaven_Bot> *,std::allocator<Goal<AbstRaven_Bot> *> >,std::_Iterator_base12>::~_List_unchecked_const_iterator<std::_List_val<Goal<AbstRaven_Bot> *,std::allocator<Goal<AbstRaven_Bot> *> >,std::_Iterator_base12>
; Function compile flags: /Odtp /RTCsu
;	COMDAT ??1?$_List_const_iterator@V?$_List_val@PAV?$Goal@VAbstRaven_Bot@@@@V?$allocator@PAV?$Goal@VAbstRaven_Bot@@@@@std@@@std@@@std@@QAE@XZ
_TEXT	SEGMENT
_this$ = -4						; size = 4
??1?$_List_const_iterator@V?$_List_val@PAV?$Goal@VAbstRaven_Bot@@@@V?$allocator@PAV?$Goal@VAbstRaven_Bot@@@@@std@@@std@@@std@@QAE@XZ PROC ; std::_List_const_iterator<std::_List_val<Goal<AbstRaven_Bot> *,std::allocator<Goal<AbstRaven_Bot> *> > >::~_List_const_iterator<std::_List_val<Goal<AbstRaven_Bot> *,std::allocator<Goal<AbstRaven_Bot> *> > >, COMDAT
; _this$ = ecx
	push	ebp
	mov	ebp, esp
	push	ecx
	mov	DWORD PTR [ebp-4], -858993460		; ccccccccH
	mov	DWORD PTR _this$[ebp], ecx
	mov	ecx, DWORD PTR _this$[ebp]
	call	??1?$_List_unchecked_const_iterator@V?$_List_val@PAV?$Goal@VAbstRaven_Bot@@@@V?$allocator@PAV?$Goal@VAbstRaven_Bot@@@@@std@@@std@@U_Iterator_base12@2@@std@@QAE@XZ
	add	esp, 4
	cmp	ebp, esp
	call	__RTC_CheckEsp
	mov	esp, ebp
	pop	ebp
	ret	0
??1?$_List_const_iterator@V?$_List_val@PAV?$Goal@VAbstRaven_Bot@@@@V?$allocator@PAV?$Goal@VAbstRaven_Bot@@@@@std@@@std@@@std@@QAE@XZ ENDP ; std::_List_const_iterator<std::_List_val<Goal<AbstRaven_Bot> *,std::allocator<Goal<AbstRaven_Bot> *> > >::~_List_const_iterator<std::_List_val<Goal<AbstRaven_Bot> *,std::allocator<Goal<AbstRaven_Bot> *> > >
_TEXT	ENDS
PUBLIC	??4?$_List_const_iterator@V?$_List_val@PAV?$Goal@VAbstRaven_Bot@@@@V?$allocator@PAV?$Goal@VAbstRaven_Bot@@@@@std@@@std@@@std@@QAEAAV01@ABV01@@Z ; std::_List_const_iterator<std::_List_val<Goal<AbstRaven_Bot> *,std::allocator<Goal<AbstRaven_Bot> *> > >::operator=
; Function compile flags: /Odtp /RTCsu
;	COMDAT ??4?$_Revranit@V?$_List_const_iterator@V?$_List_val@PAV?$Goal@VAbstRaven_Bot@@@@V?$allocator@PAV?$Goal@VAbstRaven_Bot@@@@@std@@@std@@@std@@U?$iterator@Ubidirectional_iterator_tag@std@@PAV?$Goal@VAbstRaven_Bot@@@@HPBQAV3@ABQAV3@@2@@std@@QAEAAV01@ABV01@@Z
_TEXT	SEGMENT
_this$ = -4						; size = 4
___that$ = 8						; size = 4
??4?$_Revranit@V?$_List_const_iterator@V?$_List_val@PAV?$Goal@VAbstRaven_Bot@@@@V?$allocator@PAV?$Goal@VAbstRaven_Bot@@@@@std@@@std@@@std@@U?$iterator@Ubidirectional_iterator_tag@std@@PAV?$Goal@VAbstRaven_Bot@@@@HPBQAV3@ABQAV3@@2@@std@@QAEAAV01@ABV01@@Z PROC ; std::_Revranit<std::_List_const_iterator<std::_List_val<Goal<AbstRaven_Bot> *,std::allocator<Goal<AbstRaven_Bot> *> > >,std::iterator<std::bidirectional_iterator_tag,Goal<AbstRaven_Bot> *,int,Goal<AbstRaven_Bot> * const *,Goal<AbstRaven_Bot> * const &> >::operator=, COMDAT
; _this$ = ecx
	push	ebp
	mov	ebp, esp
	push	ecx
	mov	DWORD PTR [ebp-4], -858993460		; ccccccccH
	mov	DWORD PTR _this$[ebp], ecx
	mov	eax, DWORD PTR ___that$[ebp]
	push	eax
	mov	ecx, DWORD PTR _this$[ebp]
	call	??4?$_List_const_iterator@V?$_List_val@PAV?$Goal@VAbstRaven_Bot@@@@V?$allocator@PAV?$Goal@VAbstRaven_Bot@@@@@std@@@std@@@std@@QAEAAV01@ABV01@@Z
	mov	eax, DWORD PTR _this$[ebp]
	add	esp, 4
	cmp	ebp, esp
	call	__RTC_CheckEsp
	mov	esp, ebp
	pop	ebp
	ret	4
??4?$_Revranit@V?$_List_const_iterator@V?$_List_val@PAV?$Goal@VAbstRaven_Bot@@@@V?$allocator@PAV?$Goal@VAbstRaven_Bot@@@@@std@@@std@@@std@@U?$iterator@Ubidirectional_iterator_tag@std@@PAV?$Goal@VAbstRaven_Bot@@@@HPBQAV3@ABQAV3@@2@@std@@QAEAAV01@ABV01@@Z ENDP ; std::_Revranit<std::_List_const_iterator<std::_List_val<Goal<AbstRaven_Bot> *,std::allocator<Goal<AbstRaven_Bot> *> > >,std::iterator<std::bidirectional_iterator_tag,Goal<AbstRaven_Bot> *,int,Goal<AbstRaven_Bot> * const *,Goal<AbstRaven_Bot> * const &> >::operator=
_TEXT	ENDS
PUBLIC	??1?$_Iterator012@Ubidirectional_iterator_tag@std@@PAV?$Goal@VAbstRaven_Bot@@@@HPBQAV3@ABQAV3@U_Iterator_base12@2@@std@@QAE@XZ ; std::_Iterator012<std::bidirectional_iterator_tag,Goal<AbstRaven_Bot> *,int,Goal<AbstRaven_Bot> * const *,Goal<AbstRaven_Bot> * const &,std::_Iterator_base12>::~_Iterator012<std::bidirectional_iterator_tag,Goal<AbstRaven_Bot> *,int,Goal<AbstRaven_Bot> * const *,Goal<AbstRaven_Bot> * const &,std::_Iterator_base12>
; Function compile flags: /Odtp /RTCsu
;	COMDAT ??1?$_List_unchecked_const_iterator@V?$_List_val@PAV?$Goal@VAbstRaven_Bot@@@@V?$allocator@PAV?$Goal@VAbstRaven_Bot@@@@@std@@@std@@U_Iterator_base12@2@@std@@QAE@XZ
_TEXT	SEGMENT
_this$ = -4						; size = 4
??1?$_List_unchecked_const_iterator@V?$_List_val@PAV?$Goal@VAbstRaven_Bot@@@@V?$allocator@PAV?$Goal@VAbstRaven_Bot@@@@@std@@@std@@U_Iterator_base12@2@@std@@QAE@XZ PROC ; std::_List_unchecked_const_iterator<std::_List_val<Goal<AbstRaven_Bot> *,std::allocator<Goal<AbstRaven_Bot> *> >,std::_Iterator_base12>::~_List_unchecked_const_iterator<std::_List_val<Goal<AbstRaven_Bot> *,std::allocator<Goal<AbstRaven_Bot> *> >,std::_Iterator_base12>, COMDAT
; _this$ = ecx
	push	ebp
	mov	ebp, esp
	push	ecx
	mov	DWORD PTR [ebp-4], -858993460		; ccccccccH
	mov	DWORD PTR _this$[ebp], ecx
	mov	ecx, DWORD PTR _this$[ebp]
	call	??1?$_Iterator012@Ubidirectional_iterator_tag@std@@PAV?$Goal@VAbstRaven_Bot@@@@HPBQAV3@ABQAV3@U_Iterator_base12@2@@std@@QAE@XZ
	add	esp, 4
	cmp	ebp, esp
	call	__RTC_CheckEsp
	mov	esp, ebp
	pop	ebp
	ret	0
??1?$_List_unchecked_const_iterator@V?$_List_val@PAV?$Goal@VAbstRaven_Bot@@@@V?$allocator@PAV?$Goal@VAbstRaven_Bot@@@@@std@@@std@@U_Iterator_base12@2@@std@@QAE@XZ ENDP ; std::_List_unchecked_const_iterator<std::_List_val<Goal<AbstRaven_Bot> *,std::allocator<Goal<AbstRaven_Bot> *> >,std::_Iterator_base12>::~_List_unchecked_const_iterator<std::_List_val<Goal<AbstRaven_Bot> *,std::allocator<Goal<AbstRaven_Bot> *> >,std::_Iterator_base12>
_TEXT	ENDS
PUBLIC	??4?$_List_unchecked_const_iterator@V?$_List_val@PAV?$Goal@VAbstRaven_Bot@@@@V?$allocator@PAV?$Goal@VAbstRaven_Bot@@@@@std@@@std@@U_Iterator_base12@2@@std@@QAEAAV01@ABV01@@Z ; std::_List_unchecked_const_iterator<std::_List_val<Goal<AbstRaven_Bot> *,std::allocator<Goal<AbstRaven_Bot> *> >,std::_Iterator_base12>::operator=
; Function compile flags: /Odtp /RTCsu
;	COMDAT ??4?$_List_const_iterator@V?$_List_val@PAV?$Goal@VAbstRaven_Bot@@@@V?$allocator@PAV?$Goal@VAbstRaven_Bot@@@@@std@@@std@@@std@@QAEAAV01@ABV01@@Z
_TEXT	SEGMENT
_this$ = -4						; size = 4
___that$ = 8						; size = 4
??4?$_List_const_iterator@V?$_List_val@PAV?$Goal@VAbstRaven_Bot@@@@V?$allocator@PAV?$Goal@VAbstRaven_Bot@@@@@std@@@std@@@std@@QAEAAV01@ABV01@@Z PROC ; std::_List_const_iterator<std::_List_val<Goal<AbstRaven_Bot> *,std::allocator<Goal<AbstRaven_Bot> *> > >::operator=, COMDAT
; _this$ = ecx
	push	ebp
	mov	ebp, esp
	push	ecx
	mov	DWORD PTR [ebp-4], -858993460		; ccccccccH
	mov	DWORD PTR _this$[ebp], ecx
	mov	eax, DWORD PTR ___that$[ebp]
	push	eax
	mov	ecx, DWORD PTR _this$[ebp]
	call	??4?$_List_unchecked_const_iterator@V?$_List_val@PAV?$Goal@VAbstRaven_Bot@@@@V?$allocator@PAV?$Goal@VAbstRaven_Bot@@@@@std@@@std@@U_Iterator_base12@2@@std@@QAEAAV01@ABV01@@Z
	mov	eax, DWORD PTR _this$[ebp]
	add	esp, 4
	cmp	ebp, esp
	call	__RTC_CheckEsp
	mov	esp, ebp
	pop	ebp
	ret	4
??4?$_List_const_iterator@V?$_List_val@PAV?$Goal@VAbstRaven_Bot@@@@V?$allocator@PAV?$Goal@VAbstRaven_Bot@@@@@std@@@std@@@std@@QAEAAV01@ABV01@@Z ENDP ; std::_List_const_iterator<std::_List_val<Goal<AbstRaven_Bot> *,std::allocator<Goal<AbstRaven_Bot> *> > >::operator=
; Function compile flags: /Odtp /RTCsu
_TEXT	ENDS
;	COMDAT ??1?$_Iterator012@Ubidirectional_iterator_tag@std@@PAV?$Goal@VAbstRaven_Bot@@@@HPBQAV3@ABQAV3@U_Iterator_base12@2@@std@@QAE@XZ
_TEXT	SEGMENT
_this$ = -4						; size = 4
??1?$_Iterator012@Ubidirectional_iterator_tag@std@@PAV?$Goal@VAbstRaven_Bot@@@@HPBQAV3@ABQAV3@U_Iterator_base12@2@@std@@QAE@XZ PROC ; std::_Iterator012<std::bidirectional_iterator_tag,Goal<AbstRaven_Bot> *,int,Goal<AbstRaven_Bot> * const *,Goal<AbstRaven_Bot> * const &,std::_Iterator_base12>::~_Iterator012<std::bidirectional_iterator_tag,Goal<AbstRaven_Bot> *,int,Goal<AbstRaven_Bot> * const *,Goal<AbstRaven_Bot> * const &,std::_Iterator_base12>, COMDAT
; _this$ = ecx
	push	ebp
	mov	ebp, esp
	push	ecx
	mov	DWORD PTR [ebp-4], -858993460		; ccccccccH
	mov	DWORD PTR _this$[ebp], ecx
	mov	ecx, DWORD PTR _this$[ebp]
	call	??1_Iterator_base12@std@@QAE@XZ		; std::_Iterator_base12::~_Iterator_base12
	add	esp, 4
	cmp	ebp, esp
	call	__RTC_CheckEsp
	mov	esp, ebp
	pop	ebp
	ret	0
??1?$_Iterator012@Ubidirectional_iterator_tag@std@@PAV?$Goal@VAbstRaven_Bot@@@@HPBQAV3@ABQAV3@U_Iterator_base12@2@@std@@QAE@XZ ENDP ; std::_Iterator012<std::bidirectional_iterator_tag,Goal<AbstRaven_Bot> *,int,Goal<AbstRaven_Bot> * const *,Goal<AbstRaven_Bot> * const &,std::_Iterator_base12>::~_Iterator012<std::bidirectional_iterator_tag,Goal<AbstRaven_Bot> *,int,Goal<AbstRaven_Bot> * const *,Goal<AbstRaven_Bot> * const &,std::_Iterator_base12>
_TEXT	ENDS
PUBLIC	??4?$_Iterator012@Ubidirectional_iterator_tag@std@@PAV?$Goal@VAbstRaven_Bot@@@@HPBQAV3@ABQAV3@U_Iterator_base12@2@@std@@QAEAAU01@ABU01@@Z ; std::_Iterator012<std::bidirectional_iterator_tag,Goal<AbstRaven_Bot> *,int,Goal<AbstRaven_Bot> * const *,Goal<AbstRaven_Bot> * const &,std::_Iterator_base12>::operator=
; Function compile flags: /Odtp /RTCsu
;	COMDAT ??4?$_List_unchecked_const_iterator@V?$_List_val@PAV?$Goal@VAbstRaven_Bot@@@@V?$allocator@PAV?$Goal@VAbstRaven_Bot@@@@@std@@@std@@U_Iterator_base12@2@@std@@QAEAAV01@ABV01@@Z
_TEXT	SEGMENT
_this$ = -4						; size = 4
___that$ = 8						; size = 4
??4?$_List_unchecked_const_iterator@V?$_List_val@PAV?$Goal@VAbstRaven_Bot@@@@V?$allocator@PAV?$Goal@VAbstRaven_Bot@@@@@std@@@std@@U_Iterator_base12@2@@std@@QAEAAV01@ABV01@@Z PROC ; std::_List_unchecked_const_iterator<std::_List_val<Goal<AbstRaven_Bot> *,std::allocator<Goal<AbstRaven_Bot> *> >,std::_Iterator_base12>::operator=, COMDAT
; _this$ = ecx
	push	ebp
	mov	ebp, esp
	push	ecx
	mov	DWORD PTR [ebp-4], -858993460		; ccccccccH
	mov	DWORD PTR _this$[ebp], ecx
	mov	eax, DWORD PTR ___that$[ebp]
	push	eax
	mov	ecx, DWORD PTR _this$[ebp]
	call	??4?$_Iterator012@Ubidirectional_iterator_tag@std@@PAV?$Goal@VAbstRaven_Bot@@@@HPBQAV3@ABQAV3@U_Iterator_base12@2@@std@@QAEAAU01@ABU01@@Z
	mov	ecx, DWORD PTR _this$[ebp]
	mov	edx, DWORD PTR ___that$[ebp]
	mov	eax, DWORD PTR [edx+8]
	mov	DWORD PTR [ecx+8], eax
	mov	eax, DWORD PTR _this$[ebp]
	add	esp, 4
	cmp	ebp, esp
	call	__RTC_CheckEsp
	mov	esp, ebp
	pop	ebp
	ret	4
??4?$_List_unchecked_const_iterator@V?$_List_val@PAV?$Goal@VAbstRaven_Bot@@@@V?$allocator@PAV?$Goal@VAbstRaven_Bot@@@@@std@@@std@@U_Iterator_base12@2@@std@@QAEAAV01@ABV01@@Z ENDP ; std::_List_unchecked_const_iterator<std::_List_val<Goal<AbstRaven_Bot> *,std::allocator<Goal<AbstRaven_Bot> *> >,std::_Iterator_base12>::operator=
; Function compile flags: /Odtp /RTCsu
_TEXT	ENDS
;	COMDAT ??4?$_Iterator012@Ubidirectional_iterator_tag@std@@PAV?$Goal@VAbstRaven_Bot@@@@HPBQAV3@ABQAV3@U_Iterator_base12@2@@std@@QAEAAU01@ABU01@@Z
_TEXT	SEGMENT
_this$ = -4						; size = 4
___that$ = 8						; size = 4
??4?$_Iterator012@Ubidirectional_iterator_tag@std@@PAV?$Goal@VAbstRaven_Bot@@@@HPBQAV3@ABQAV3@U_Iterator_base12@2@@std@@QAEAAU01@ABU01@@Z PROC ; std::_Iterator012<std::bidirectional_iterator_tag,Goal<AbstRaven_Bot> *,int,Goal<AbstRaven_Bot> * const *,Goal<AbstRaven_Bot> * const &,std::_Iterator_base12>::operator=, COMDAT
; _this$ = ecx
	push	ebp
	mov	ebp, esp
	push	ecx
	mov	DWORD PTR [ebp-4], -858993460		; ccccccccH
	mov	DWORD PTR _this$[ebp], ecx
	mov	eax, DWORD PTR ___that$[ebp]
	push	eax
	mov	ecx, DWORD PTR _this$[ebp]
	call	??4_Iterator_base12@std@@QAEAAU01@ABU01@@Z ; std::_Iterator_base12::operator=
	mov	eax, DWORD PTR _this$[ebp]
	add	esp, 4
	cmp	ebp, esp
	call	__RTC_CheckEsp
	mov	esp, ebp
	pop	ebp
	ret	4
??4?$_Iterator012@Ubidirectional_iterator_tag@std@@PAV?$Goal@VAbstRaven_Bot@@@@HPBQAV3@ABQAV3@U_Iterator_base12@2@@std@@QAEAAU01@ABU01@@Z ENDP ; std::_Iterator012<std::bidirectional_iterator_tag,Goal<AbstRaven_Bot> *,int,Goal<AbstRaven_Bot> * const *,Goal<AbstRaven_Bot> * const &,std::_Iterator_base12>::operator=
_TEXT	ENDS
PUBLIC	?append@?$basic_string@DU?$char_traits@D@std@@V?$allocator@D@2@@std@@QAEAAV12@ABV12@@Z ; std::basic_string<char,std::char_traits<char>,std::allocator<char> >::append
; Function compile flags: /Odtp /RTCsu
; File c:\program files (x86)\microsoft visual studio 10.0\vc\include\xstring
;	COMDAT ??Y?$basic_string@DU?$char_traits@D@std@@V?$allocator@D@2@@std@@QAEAAV01@ABV01@@Z
_TEXT	SEGMENT
_this$ = -4						; size = 4
__Right$ = 8						; size = 4
??Y?$basic_string@DU?$char_traits@D@std@@V?$allocator@D@2@@std@@QAEAAV01@ABV01@@Z PROC ; std::basic_string<char,std::char_traits<char>,std::allocator<char> >::operator+=, COMDAT
; _this$ = ecx

; 777  : 		{	// append _Right

	push	ebp
	mov	ebp, esp
	push	ecx
	mov	DWORD PTR [ebp-4], -858993460		; ccccccccH
	mov	DWORD PTR _this$[ebp], ecx

; 778  : 		return (append(_Right));

	mov	eax, DWORD PTR __Right$[ebp]
	push	eax
	mov	ecx, DWORD PTR _this$[ebp]
	call	?append@?$basic_string@DU?$char_traits@D@std@@V?$allocator@D@2@@std@@QAEAAV12@ABV12@@Z ; std::basic_string<char,std::char_traits<char>,std::allocator<char> >::append

; 779  : 		}

	add	esp, 4
	cmp	ebp, esp
	call	__RTC_CheckEsp
	mov	esp, ebp
	pop	ebp
	ret	4
??Y?$basic_string@DU?$char_traits@D@std@@V?$allocator@D@2@@std@@QAEAAV01@ABV01@@Z ENDP ; std::basic_string<char,std::char_traits<char>,std::allocator<char> >::operator+=
_TEXT	ENDS
PUBLIC	?append@?$basic_string@DU?$char_traits@D@std@@V?$allocator@D@2@@std@@QAEAAV12@PBD@Z ; std::basic_string<char,std::char_traits<char>,std::allocator<char> >::append
; Function compile flags: /Odtp /RTCsu
;	COMDAT ??Y?$basic_string@DU?$char_traits@D@std@@V?$allocator@D@2@@std@@QAEAAV01@PBD@Z
_TEXT	SEGMENT
_this$ = -4						; size = 4
__Ptr$ = 8						; size = 4
??Y?$basic_string@DU?$char_traits@D@std@@V?$allocator@D@2@@std@@QAEAAV01@PBD@Z PROC ; std::basic_string<char,std::char_traits<char>,std::allocator<char> >::operator+=, COMDAT
; _this$ = ecx

; 782  : 		{	// append [_Ptr, <null>)

	push	ebp
	mov	ebp, esp
	push	ecx
	mov	DWORD PTR [ebp-4], -858993460		; ccccccccH
	mov	DWORD PTR _this$[ebp], ecx

; 783  : 		return (append(_Ptr));

	mov	eax, DWORD PTR __Ptr$[ebp]
	push	eax
	mov	ecx, DWORD PTR _this$[ebp]
	call	?append@?$basic_string@DU?$char_traits@D@std@@V?$allocator@D@2@@std@@QAEAAV12@PBD@Z ; std::basic_string<char,std::char_traits<char>,std::allocator<char> >::append

; 784  : 		}

	add	esp, 4
	cmp	ebp, esp
	call	__RTC_CheckEsp
	mov	esp, ebp
	pop	ebp
	ret	4
??Y?$basic_string@DU?$char_traits@D@std@@V?$allocator@D@2@@std@@QAEAAV01@PBD@Z ENDP ; std::basic_string<char,std::char_traits<char>,std::allocator<char> >::operator+=
_TEXT	ENDS
PUBLIC	?append@?$basic_string@DU?$char_traits@D@std@@V?$allocator@D@2@@std@@QAEAAV12@PBDI@Z ; std::basic_string<char,std::char_traits<char>,std::allocator<char> >::append
; Function compile flags: /Odtp /RTCsu
;	COMDAT ?append@?$basic_string@DU?$char_traits@D@std@@V?$allocator@D@2@@std@@QAEAAV12@PBD@Z
_TEXT	SEGMENT
_this$ = -4						; size = 4
__Ptr$ = 8						; size = 4
?append@?$basic_string@DU?$char_traits@D@std@@V?$allocator@D@2@@std@@QAEAAV12@PBD@Z PROC ; std::basic_string<char,std::char_traits<char>,std::allocator<char> >::append, COMDAT
; _this$ = ecx

; 838  : 		{	// append [_Ptr, <null>)

	push	ebp
	mov	ebp, esp
	push	ecx
	mov	DWORD PTR [ebp-4], -858993460		; ccccccccH
	mov	DWORD PTR _this$[ebp], ecx

; 839  : 		_DEBUG_POINTER(_Ptr);

	push	839					; 00000347H
	push	OFFSET ??_C@_1IO@FJMIILFL@?$AAc?$AA?3?$AA?2?$AAP?$AAr?$AAo?$AAg?$AAr?$AAa?$AAm?$AA?5?$AAF?$AAi?$AAl?$AAe?$AAs?$AA?5?$AA?$CI?$AAx?$AA8?$AA6?$AA?$CJ?$AA?2?$AAM?$AAi?$AAc?$AAr?$AAo?$AAs?$AAo?$AAf?$AAt@
	mov	eax, DWORD PTR __Ptr$[ebp]
	push	eax
	call	??$_Debug_pointer@D@std@@YAXPBDPB_WI@Z	; std::_Debug_pointer<char>
	add	esp, 12					; 0000000cH

; 840  : 		return (append(_Ptr, _Traits::length(_Ptr)));

	mov	ecx, DWORD PTR __Ptr$[ebp]
	push	ecx
	call	?length@?$char_traits@D@std@@SAIPBD@Z	; std::char_traits<char>::length
	add	esp, 4
	push	eax
	mov	edx, DWORD PTR __Ptr$[ebp]
	push	edx
	mov	ecx, DWORD PTR _this$[ebp]
	call	?append@?$basic_string@DU?$char_traits@D@std@@V?$allocator@D@2@@std@@QAEAAV12@PBDI@Z ; std::basic_string<char,std::char_traits<char>,std::allocator<char> >::append

; 841  : 		}

	add	esp, 4
	cmp	ebp, esp
	call	__RTC_CheckEsp
	mov	esp, ebp
	pop	ebp
	ret	4
?append@?$basic_string@DU?$char_traits@D@std@@V?$allocator@D@2@@std@@QAEAAV12@PBD@Z ENDP ; std::basic_string<char,std::char_traits<char>,std::allocator<char> >::append
; Function compile flags: /Odtp /RTCsu
_TEXT	ENDS
;	COMDAT ?reserve@?$basic_string@DU?$char_traits@D@std@@V?$allocator@D@2@@std@@QAEXI@Z
_TEXT	SEGMENT
__Size$137442 = -8					; size = 4
_this$ = -4						; size = 4
__Newcap$ = 8						; size = 4
?reserve@?$basic_string@DU?$char_traits@D@std@@V?$allocator@D@2@@std@@QAEXI@Z PROC ; std::basic_string<char,std::char_traits<char>,std::allocator<char> >::reserve, COMDAT
; _this$ = ecx

; 1539 : 		{	// determine new minimum length of allocated storage

	push	ebp
	mov	ebp, esp
	sub	esp, 8
	mov	DWORD PTR [ebp-8], -858993460		; ccccccccH
	mov	DWORD PTR [ebp-4], -858993460		; ccccccccH
	mov	DWORD PTR _this$[ebp], ecx

; 1540 : 		if (this->_Mysize <= _Newcap && this->_Myres != _Newcap)

	mov	eax, DWORD PTR _this$[ebp]
	mov	ecx, DWORD PTR [eax+20]
	cmp	ecx, DWORD PTR __Newcap$[ebp]
	ja	SHORT $LN3@reserve@2
	mov	edx, DWORD PTR _this$[ebp]
	mov	eax, DWORD PTR [edx+24]
	cmp	eax, DWORD PTR __Newcap$[ebp]
	je	SHORT $LN3@reserve@2

; 1541 : 			{	// change reservation
; 1542 : 			size_type _Size = this->_Mysize;

	mov	ecx, DWORD PTR _this$[ebp]
	mov	edx, DWORD PTR [ecx+20]
	mov	DWORD PTR __Size$137442[ebp], edx

; 1543 : 			if (_Grow(_Newcap, true))

	push	1
	mov	eax, DWORD PTR __Newcap$[ebp]
	push	eax
	mov	ecx, DWORD PTR _this$[ebp]
	call	?_Grow@?$basic_string@DU?$char_traits@D@std@@V?$allocator@D@2@@std@@QAE_NI_N@Z ; std::basic_string<char,std::char_traits<char>,std::allocator<char> >::_Grow
	movzx	ecx, al
	test	ecx, ecx
	je	SHORT $LN3@reserve@2

; 1544 : 				_Eos(_Size);

	mov	edx, DWORD PTR __Size$137442[ebp]
	push	edx
	mov	ecx, DWORD PTR _this$[ebp]
	call	?_Eos@?$basic_string@DU?$char_traits@D@std@@V?$allocator@D@2@@std@@QAEXI@Z ; std::basic_string<char,std::char_traits<char>,std::allocator<char> >::_Eos
$LN3@reserve@2:

; 1545 : 			}
; 1546 : 		}

	add	esp, 8
	cmp	ebp, esp
	call	__RTC_CheckEsp
	mov	esp, ebp
	pop	ebp
	ret	4
?reserve@?$basic_string@DU?$char_traits@D@std@@V?$allocator@D@2@@std@@QAEXI@Z ENDP ; std::basic_string<char,std::char_traits<char>,std::allocator<char> >::reserve
; Function compile flags: /Odtp /RTCsu
; File c:\users\teaja\documents\artificial-fun\labravenprojecttest\common\goals\goal.h
_TEXT	ENDS
;	COMDAT ?isComplete@?$Goal@VAbstRaven_Bot@@@@QBE_NXZ
_TEXT	SEGMENT
_this$ = -4						; size = 4
?isComplete@?$Goal@VAbstRaven_Bot@@@@QBE_NXZ PROC	; Goal<AbstRaven_Bot>::isComplete, COMDAT
; _this$ = ecx

; 80   :   bool         isComplete()const{return m_iStatus == completed;} 

	push	ebp
	mov	ebp, esp
	push	ecx
	mov	DWORD PTR [ebp-4], -858993460		; ccccccccH
	mov	DWORD PTR _this$[ebp], ecx
	mov	eax, DWORD PTR _this$[ebp]
	xor	ecx, ecx
	cmp	DWORD PTR [eax+12], 2
	sete	cl
	mov	al, cl
	mov	esp, ebp
	pop	ebp
	ret	0
?isComplete@?$Goal@VAbstRaven_Bot@@@@QBE_NXZ ENDP	; Goal<AbstRaven_Bot>::isComplete
; Function compile flags: /Odtp /RTCsu
_TEXT	ENDS
;	COMDAT ?isActive@?$Goal@VAbstRaven_Bot@@@@QBE_NXZ
_TEXT	SEGMENT
_this$ = -4						; size = 4
?isActive@?$Goal@VAbstRaven_Bot@@@@QBE_NXZ PROC		; Goal<AbstRaven_Bot>::isActive, COMDAT
; _this$ = ecx

; 81   :   bool         isActive()const{return m_iStatus == active;}

	push	ebp
	mov	ebp, esp
	push	ecx
	mov	DWORD PTR [ebp-4], -858993460		; ccccccccH
	mov	DWORD PTR _this$[ebp], ecx
	mov	eax, DWORD PTR _this$[ebp]
	xor	ecx, ecx
	cmp	DWORD PTR [eax+12], 0
	sete	cl
	mov	al, cl
	mov	esp, ebp
	pop	ebp
	ret	0
?isActive@?$Goal@VAbstRaven_Bot@@@@QBE_NXZ ENDP		; Goal<AbstRaven_Bot>::isActive
; Function compile flags: /Odtp /RTCsu
_TEXT	ENDS
;	COMDAT ?isInactive@?$Goal@VAbstRaven_Bot@@@@QBE_NXZ
_TEXT	SEGMENT
_this$ = -4						; size = 4
?isInactive@?$Goal@VAbstRaven_Bot@@@@QBE_NXZ PROC	; Goal<AbstRaven_Bot>::isInactive, COMDAT
; _this$ = ecx

; 82   :   bool         isInactive()const{return m_iStatus == inactive;}

	push	ebp
	mov	ebp, esp
	push	ecx
	mov	DWORD PTR [ebp-4], -858993460		; ccccccccH
	mov	DWORD PTR _this$[ebp], ecx
	mov	eax, DWORD PTR _this$[ebp]
	xor	ecx, ecx
	cmp	DWORD PTR [eax+12], 1
	sete	cl
	mov	al, cl
	mov	esp, ebp
	pop	ebp
	ret	0
?isInactive@?$Goal@VAbstRaven_Bot@@@@QBE_NXZ ENDP	; Goal<AbstRaven_Bot>::isInactive
; Function compile flags: /Odtp /RTCsu
_TEXT	ENDS
;	COMDAT ?hasFailed@?$Goal@VAbstRaven_Bot@@@@QBE_NXZ
_TEXT	SEGMENT
_this$ = -4						; size = 4
?hasFailed@?$Goal@VAbstRaven_Bot@@@@QBE_NXZ PROC	; Goal<AbstRaven_Bot>::hasFailed, COMDAT
; _this$ = ecx

; 83   :   bool         hasFailed()const{return m_iStatus == failed;}

	push	ebp
	mov	ebp, esp
	push	ecx
	mov	DWORD PTR [ebp-4], -858993460		; ccccccccH
	mov	DWORD PTR _this$[ebp], ecx
	mov	eax, DWORD PTR _this$[ebp]
	xor	ecx, ecx
	cmp	DWORD PTR [eax+12], 3
	sete	cl
	mov	al, cl
	mov	esp, ebp
	pop	ebp
	ret	0
?hasFailed@?$Goal@VAbstRaven_Bot@@@@QBE_NXZ ENDP	; Goal<AbstRaven_Bot>::hasFailed
; Function compile flags: /Odtp /RTCsu
_TEXT	ENDS
;	COMDAT ?GetType@?$Goal@VAbstRaven_Bot@@@@QBEHXZ
_TEXT	SEGMENT
_this$ = -4						; size = 4
?GetType@?$Goal@VAbstRaven_Bot@@@@QBEHXZ PROC		; Goal<AbstRaven_Bot>::GetType, COMDAT
; _this$ = ecx

; 84   :   int          GetType()const{return m_iType;}

	push	ebp
	mov	ebp, esp
	push	ecx
	mov	DWORD PTR [ebp-4], -858993460		; ccccccccH
	mov	DWORD PTR _this$[ebp], ecx
	mov	eax, DWORD PTR _this$[ebp]
	mov	eax, DWORD PTR [eax+4]
	mov	esp, ebp
	pop	ebp
	ret	0
?GetType@?$Goal@VAbstRaven_Bot@@@@QBEHXZ ENDP		; Goal<AbstRaven_Bot>::GetType
_TEXT	ENDS
PUBLIC	??0?$reverse_iterator@V?$_List_const_iterator@V?$_List_val@PAV?$Goal@VAbstRaven_Bot@@@@V?$allocator@PAV?$Goal@VAbstRaven_Bot@@@@@std@@@std@@@std@@@std@@QAE@ABV01@@Z ; std::reverse_iterator<std::_List_const_iterator<std::_List_val<Goal<AbstRaven_Bot> *,std::allocator<Goal<AbstRaven_Bot> *> > > >::reverse_iterator<std::_List_const_iterator<std::_List_val<Goal<AbstRaven_Bot> *,std::allocator<Goal<AbstRaven_Bot> *> > > >
PUBLIC	??0?$reverse_iterator@V?$_List_const_iterator@V?$_List_val@PAV?$Goal@VAbstRaven_Bot@@@@V?$allocator@PAV?$Goal@VAbstRaven_Bot@@@@@std@@@std@@@std@@@std@@QAE@V?$_List_const_iterator@V?$_List_val@PAV?$Goal@VAbstRaven_Bot@@@@V?$allocator@PAV?$Goal@VAbstRaven_Bot@@@@@std@@@std@@@1@@Z ; std::reverse_iterator<std::_List_const_iterator<std::_List_val<Goal<AbstRaven_Bot> *,std::allocator<Goal<AbstRaven_Bot> *> > > >::reverse_iterator<std::_List_const_iterator<std::_List_val<Goal<AbstRaven_Bot> *,std::allocator<Goal<AbstRaven_Bot> *> > > >
PUBLIC	?end@?$list@PAV?$Goal@VAbstRaven_Bot@@@@V?$allocator@PAV?$Goal@VAbstRaven_Bot@@@@@std@@@std@@QBE?AV?$_List_const_iterator@V?$_List_val@PAV?$Goal@VAbstRaven_Bot@@@@V?$allocator@PAV?$Goal@VAbstRaven_Bot@@@@@std@@@std@@@2@XZ ; std::list<Goal<AbstRaven_Bot> *,std::allocator<Goal<AbstRaven_Bot> *> >::end
;	COMDAT xdata$x
; File c:\program files (x86)\microsoft visual studio 10.0\vc\include\list
xdata$x	SEGMENT
__unwindtable$?rbegin@?$list@PAV?$Goal@VAbstRaven_Bot@@@@V?$allocator@PAV?$Goal@VAbstRaven_Bot@@@@@std@@@std@@QBE?AV?$reverse_iterator@V?$_List_const_iterator@V?$_List_val@PAV?$Goal@VAbstRaven_Bot@@@@V?$allocator@PAV?$Goal@VAbstRaven_Bot@@@@@std@@@std@@@std@@@2@XZ DD 0ffffffffH
	DD	FLAT:__unwindfunclet$?rbegin@?$list@PAV?$Goal@VAbstRaven_Bot@@@@V?$allocator@PAV?$Goal@VAbstRaven_Bot@@@@@std@@@std@@QBE?AV?$reverse_iterator@V?$_List_const_iterator@V?$_List_val@PAV?$Goal@VAbstRaven_Bot@@@@V?$allocator@PAV?$Goal@VAbstRaven_Bot@@@@@std@@@std@@@std@@@2@XZ$2
	DD	00H
	DD	FLAT:__unwindfunclet$?rbegin@?$list@PAV?$Goal@VAbstRaven_Bot@@@@V?$allocator@PAV?$Goal@VAbstRaven_Bot@@@@@std@@@std@@QBE?AV?$reverse_iterator@V?$_List_const_iterator@V?$_List_val@PAV?$Goal@VAbstRaven_Bot@@@@V?$allocator@PAV?$Goal@VAbstRaven_Bot@@@@@std@@@std@@@std@@@2@XZ$1
__ehfuncinfo$?rbegin@?$list@PAV?$Goal@VAbstRaven_Bot@@@@V?$allocator@PAV?$Goal@VAbstRaven_Bot@@@@@std@@@std@@QBE?AV?$reverse_iterator@V?$_List_const_iterator@V?$_List_val@PAV?$Goal@VAbstRaven_Bot@@@@V?$allocator@PAV?$Goal@VAbstRaven_Bot@@@@@std@@@std@@@std@@@2@XZ DD 019930522H
	DD	02H
	DD	FLAT:__unwindtable$?rbegin@?$list@PAV?$Goal@VAbstRaven_Bot@@@@V?$allocator@PAV?$Goal@VAbstRaven_Bot@@@@@std@@@std@@QBE?AV?$reverse_iterator@V?$_List_const_iterator@V?$_List_val@PAV?$Goal@VAbstRaven_Bot@@@@V?$allocator@PAV?$Goal@VAbstRaven_Bot@@@@@std@@@std@@@std@@@2@XZ
	DD	2 DUP(00H)
	DD	2 DUP(00H)
	DD	00H
	DD	01H
; Function compile flags: /Odtp /RTCsu
xdata$x	ENDS
;	COMDAT ?rbegin@?$list@PAV?$Goal@VAbstRaven_Bot@@@@V?$allocator@PAV?$Goal@VAbstRaven_Bot@@@@@std@@@std@@QBE?AV?$reverse_iterator@V?$_List_const_iterator@V?$_List_val@PAV?$Goal@VAbstRaven_Bot@@@@V?$allocator@PAV?$Goal@VAbstRaven_Bot@@@@@std@@@std@@@std@@@2@XZ
_TEXT	SEGMENT
tv90 = -48						; size = 4
tv88 = -44						; size = 4
tv87 = -40						; size = 4
$T142303 = -36						; size = 4
$T142299 = -32						; size = 4
$T142298 = -28						; size = 12
_this$ = -16						; size = 4
__$EHRec$ = -12						; size = 12
___$ReturnUdt$ = 8					; size = 4
?rbegin@?$list@PAV?$Goal@VAbstRaven_Bot@@@@V?$allocator@PAV?$Goal@VAbstRaven_Bot@@@@@std@@@std@@QBE?AV?$reverse_iterator@V?$_List_const_iterator@V?$_List_val@PAV?$Goal@VAbstRaven_Bot@@@@V?$allocator@PAV?$Goal@VAbstRaven_Bot@@@@@std@@@std@@@std@@@2@XZ PROC ; std::list<Goal<AbstRaven_Bot> *,std::allocator<Goal<AbstRaven_Bot> *> >::rbegin, COMDAT
; _this$ = ecx

; 811  : 		{	// return iterator for beginning of reversed nonmutable sequence

	push	ebp
	mov	ebp, esp
	push	-1
	push	__ehhandler$?rbegin@?$list@PAV?$Goal@VAbstRaven_Bot@@@@V?$allocator@PAV?$Goal@VAbstRaven_Bot@@@@@std@@@std@@QBE?AV?$reverse_iterator@V?$_List_const_iterator@V?$_List_val@PAV?$Goal@VAbstRaven_Bot@@@@V?$allocator@PAV?$Goal@VAbstRaven_Bot@@@@@std@@@std@@@std@@@2@XZ
	mov	eax, DWORD PTR fs:0
	push	eax
	sub	esp, 36					; 00000024H
	mov	eax, -858993460				; ccccccccH
	mov	DWORD PTR [ebp-48], eax
	mov	DWORD PTR [ebp-44], eax
	mov	DWORD PTR [ebp-40], eax
	mov	DWORD PTR [ebp-36], eax
	mov	DWORD PTR [ebp-32], eax
	mov	DWORD PTR [ebp-28], eax
	mov	DWORD PTR [ebp-24], eax
	mov	DWORD PTR [ebp-20], eax
	mov	DWORD PTR [ebp-16], eax
	mov	eax, DWORD PTR ___security_cookie
	xor	eax, ebp
	push	eax
	lea	eax, DWORD PTR __$EHRec$[ebp]
	mov	DWORD PTR fs:0, eax
	mov	DWORD PTR _this$[ebp], ecx
	mov	DWORD PTR $T142303[ebp], 0

; 812  : 		return (const_reverse_iterator(end()));

	sub	esp, 12					; 0000000cH
	mov	eax, esp
	mov	DWORD PTR $T142299[ebp], esp
	push	eax
	mov	ecx, DWORD PTR _this$[ebp]
	call	?end@?$list@PAV?$Goal@VAbstRaven_Bot@@@@V?$allocator@PAV?$Goal@VAbstRaven_Bot@@@@@std@@@std@@QBE?AV?$_List_const_iterator@V?$_List_val@PAV?$Goal@VAbstRaven_Bot@@@@V?$allocator@PAV?$Goal@VAbstRaven_Bot@@@@@std@@@std@@@2@XZ ; std::list<Goal<AbstRaven_Bot> *,std::allocator<Goal<AbstRaven_Bot> *> >::end
	mov	DWORD PTR tv87[ebp], eax
	lea	ecx, DWORD PTR $T142298[ebp]
	call	??0?$reverse_iterator@V?$_List_const_iterator@V?$_List_val@PAV?$Goal@VAbstRaven_Bot@@@@V?$allocator@PAV?$Goal@VAbstRaven_Bot@@@@@std@@@std@@@std@@@std@@QAE@V?$_List_const_iterator@V?$_List_val@PAV?$Goal@VAbstRaven_Bot@@@@V?$allocator@PAV?$Goal@VAbstRaven_Bot@@@@@std@@@std@@@1@@Z ; std::reverse_iterator<std::_List_const_iterator<std::_List_val<Goal<AbstRaven_Bot> *,std::allocator<Goal<AbstRaven_Bot> *> > > >::reverse_iterator<std::_List_const_iterator<std::_List_val<Goal<AbstRaven_Bot> *,std::allocator<Goal<AbstRaven_Bot> *> > > >
	mov	DWORD PTR tv88[ebp], eax
	mov	ecx, DWORD PTR tv88[ebp]
	mov	DWORD PTR tv90[ebp], ecx
	mov	DWORD PTR __$EHRec$[ebp+8], 1
	mov	edx, DWORD PTR tv90[ebp]
	push	edx
	mov	ecx, DWORD PTR ___$ReturnUdt$[ebp]
	call	??0?$reverse_iterator@V?$_List_const_iterator@V?$_List_val@PAV?$Goal@VAbstRaven_Bot@@@@V?$allocator@PAV?$Goal@VAbstRaven_Bot@@@@@std@@@std@@@std@@@std@@QAE@ABV01@@Z
	mov	eax, DWORD PTR $T142303[ebp]
	or	eax, 1
	mov	DWORD PTR $T142303[ebp], eax
	mov	BYTE PTR __$EHRec$[ebp+8], 0
	lea	ecx, DWORD PTR $T142298[ebp]
	call	??1?$reverse_iterator@V?$_List_const_iterator@V?$_List_val@PAV?$Goal@VAbstRaven_Bot@@@@V?$allocator@PAV?$Goal@VAbstRaven_Bot@@@@@std@@@std@@@std@@@std@@QAE@XZ
	mov	eax, DWORD PTR ___$ReturnUdt$[ebp]

; 813  : 		}

	mov	ecx, DWORD PTR __$EHRec$[ebp]
	mov	DWORD PTR fs:0, ecx
	pop	ecx
	add	esp, 48					; 00000030H
	cmp	ebp, esp
	call	__RTC_CheckEsp
	mov	esp, ebp
	pop	ebp
	ret	4
_TEXT	ENDS
;	COMDAT text$x
text$x	SEGMENT
__unwindfunclet$?rbegin@?$list@PAV?$Goal@VAbstRaven_Bot@@@@V?$allocator@PAV?$Goal@VAbstRaven_Bot@@@@@std@@@std@@QBE?AV?$reverse_iterator@V?$_List_const_iterator@V?$_List_val@PAV?$Goal@VAbstRaven_Bot@@@@V?$allocator@PAV?$Goal@VAbstRaven_Bot@@@@@std@@@std@@@std@@@2@XZ$1:
	lea	ecx, DWORD PTR $T142298[ebp]
	jmp	??1?$reverse_iterator@V?$_List_const_iterator@V?$_List_val@PAV?$Goal@VAbstRaven_Bot@@@@V?$allocator@PAV?$Goal@VAbstRaven_Bot@@@@@std@@@std@@@std@@@std@@QAE@XZ
__unwindfunclet$?rbegin@?$list@PAV?$Goal@VAbstRaven_Bot@@@@V?$allocator@PAV?$Goal@VAbstRaven_Bot@@@@@std@@@std@@QBE?AV?$reverse_iterator@V?$_List_const_iterator@V?$_List_val@PAV?$Goal@VAbstRaven_Bot@@@@V?$allocator@PAV?$Goal@VAbstRaven_Bot@@@@@std@@@std@@@std@@@2@XZ$2:
	mov	eax, DWORD PTR $T142303[ebp]
	and	eax, 1
	je	$LN6@rbegin
	and	DWORD PTR $T142303[ebp], -2		; fffffffeH
	mov	ecx, DWORD PTR ___$ReturnUdt$[ebp]
	jmp	??1?$reverse_iterator@V?$_List_const_iterator@V?$_List_val@PAV?$Goal@VAbstRaven_Bot@@@@V?$allocator@PAV?$Goal@VAbstRaven_Bot@@@@@std@@@std@@@std@@@std@@QAE@XZ
$LN6@rbegin:
	ret	0
__ehhandler$?rbegin@?$list@PAV?$Goal@VAbstRaven_Bot@@@@V?$allocator@PAV?$Goal@VAbstRaven_Bot@@@@@std@@@std@@QBE?AV?$reverse_iterator@V?$_List_const_iterator@V?$_List_val@PAV?$Goal@VAbstRaven_Bot@@@@V?$allocator@PAV?$Goal@VAbstRaven_Bot@@@@@std@@@std@@@std@@@2@XZ:
	mov	edx, DWORD PTR [esp+8]
	lea	eax, DWORD PTR [edx+12]
	mov	ecx, DWORD PTR [edx-40]
	xor	ecx, eax
	call	@__security_check_cookie@4
	mov	eax, OFFSET __ehfuncinfo$?rbegin@?$list@PAV?$Goal@VAbstRaven_Bot@@@@V?$allocator@PAV?$Goal@VAbstRaven_Bot@@@@@std@@@std@@QBE?AV?$reverse_iterator@V?$_List_const_iterator@V?$_List_val@PAV?$Goal@VAbstRaven_Bot@@@@V?$allocator@PAV?$Goal@VAbstRaven_Bot@@@@@std@@@std@@@std@@@2@XZ
	jmp	___CxxFrameHandler3
text$x	ENDS
?rbegin@?$list@PAV?$Goal@VAbstRaven_Bot@@@@V?$allocator@PAV?$Goal@VAbstRaven_Bot@@@@@std@@@std@@QBE?AV?$reverse_iterator@V?$_List_const_iterator@V?$_List_val@PAV?$Goal@VAbstRaven_Bot@@@@V?$allocator@PAV?$Goal@VAbstRaven_Bot@@@@@std@@@std@@@std@@@2@XZ ENDP ; std::list<Goal<AbstRaven_Bot> *,std::allocator<Goal<AbstRaven_Bot> *> >::rbegin
PUBLIC	?begin@?$list@PAV?$Goal@VAbstRaven_Bot@@@@V?$allocator@PAV?$Goal@VAbstRaven_Bot@@@@@std@@@std@@QBE?AV?$_List_const_iterator@V?$_List_val@PAV?$Goal@VAbstRaven_Bot@@@@V?$allocator@PAV?$Goal@VAbstRaven_Bot@@@@@std@@@std@@@2@XZ ; std::list<Goal<AbstRaven_Bot> *,std::allocator<Goal<AbstRaven_Bot> *> >::begin
;	COMDAT xdata$x
xdata$x	SEGMENT
__unwindtable$?rend@?$list@PAV?$Goal@VAbstRaven_Bot@@@@V?$allocator@PAV?$Goal@VAbstRaven_Bot@@@@@std@@@std@@QBE?AV?$reverse_iterator@V?$_List_const_iterator@V?$_List_val@PAV?$Goal@VAbstRaven_Bot@@@@V?$allocator@PAV?$Goal@VAbstRaven_Bot@@@@@std@@@std@@@std@@@2@XZ DD 0ffffffffH
	DD	FLAT:__unwindfunclet$?rend@?$list@PAV?$Goal@VAbstRaven_Bot@@@@V?$allocator@PAV?$Goal@VAbstRaven_Bot@@@@@std@@@std@@QBE?AV?$reverse_iterator@V?$_List_const_iterator@V?$_List_val@PAV?$Goal@VAbstRaven_Bot@@@@V?$allocator@PAV?$Goal@VAbstRaven_Bot@@@@@std@@@std@@@std@@@2@XZ$2
	DD	00H
	DD	FLAT:__unwindfunclet$?rend@?$list@PAV?$Goal@VAbstRaven_Bot@@@@V?$allocator@PAV?$Goal@VAbstRaven_Bot@@@@@std@@@std@@QBE?AV?$reverse_iterator@V?$_List_const_iterator@V?$_List_val@PAV?$Goal@VAbstRaven_Bot@@@@V?$allocator@PAV?$Goal@VAbstRaven_Bot@@@@@std@@@std@@@std@@@2@XZ$1
__ehfuncinfo$?rend@?$list@PAV?$Goal@VAbstRaven_Bot@@@@V?$allocator@PAV?$Goal@VAbstRaven_Bot@@@@@std@@@std@@QBE?AV?$reverse_iterator@V?$_List_const_iterator@V?$_List_val@PAV?$Goal@VAbstRaven_Bot@@@@V?$allocator@PAV?$Goal@VAbstRaven_Bot@@@@@std@@@std@@@std@@@2@XZ DD 019930522H
	DD	02H
	DD	FLAT:__unwindtable$?rend@?$list@PAV?$Goal@VAbstRaven_Bot@@@@V?$allocator@PAV?$Goal@VAbstRaven_Bot@@@@@std@@@std@@QBE?AV?$reverse_iterator@V?$_List_const_iterator@V?$_List_val@PAV?$Goal@VAbstRaven_Bot@@@@V?$allocator@PAV?$Goal@VAbstRaven_Bot@@@@@std@@@std@@@std@@@2@XZ
	DD	2 DUP(00H)
	DD	2 DUP(00H)
	DD	00H
	DD	01H
; Function compile flags: /Odtp /RTCsu
xdata$x	ENDS
;	COMDAT ?rend@?$list@PAV?$Goal@VAbstRaven_Bot@@@@V?$allocator@PAV?$Goal@VAbstRaven_Bot@@@@@std@@@std@@QBE?AV?$reverse_iterator@V?$_List_const_iterator@V?$_List_val@PAV?$Goal@VAbstRaven_Bot@@@@V?$allocator@PAV?$Goal@VAbstRaven_Bot@@@@@std@@@std@@@std@@@2@XZ
_TEXT	SEGMENT
tv90 = -48						; size = 4
tv88 = -44						; size = 4
tv87 = -40						; size = 4
$T142318 = -36						; size = 4
$T142314 = -32						; size = 4
$T142313 = -28						; size = 12
_this$ = -16						; size = 4
__$EHRec$ = -12						; size = 12
___$ReturnUdt$ = 8					; size = 4
?rend@?$list@PAV?$Goal@VAbstRaven_Bot@@@@V?$allocator@PAV?$Goal@VAbstRaven_Bot@@@@@std@@@std@@QBE?AV?$reverse_iterator@V?$_List_const_iterator@V?$_List_val@PAV?$Goal@VAbstRaven_Bot@@@@V?$allocator@PAV?$Goal@VAbstRaven_Bot@@@@@std@@@std@@@std@@@2@XZ PROC ; std::list<Goal<AbstRaven_Bot> *,std::allocator<Goal<AbstRaven_Bot> *> >::rend, COMDAT
; _this$ = ecx

; 821  : 		{	// return iterator for end of reversed nonmutable sequence

	push	ebp
	mov	ebp, esp
	push	-1
	push	__ehhandler$?rend@?$list@PAV?$Goal@VAbstRaven_Bot@@@@V?$allocator@PAV?$Goal@VAbstRaven_Bot@@@@@std@@@std@@QBE?AV?$reverse_iterator@V?$_List_const_iterator@V?$_List_val@PAV?$Goal@VAbstRaven_Bot@@@@V?$allocator@PAV?$Goal@VAbstRaven_Bot@@@@@std@@@std@@@std@@@2@XZ
	mov	eax, DWORD PTR fs:0
	push	eax
	sub	esp, 36					; 00000024H
	mov	eax, -858993460				; ccccccccH
	mov	DWORD PTR [ebp-48], eax
	mov	DWORD PTR [ebp-44], eax
	mov	DWORD PTR [ebp-40], eax
	mov	DWORD PTR [ebp-36], eax
	mov	DWORD PTR [ebp-32], eax
	mov	DWORD PTR [ebp-28], eax
	mov	DWORD PTR [ebp-24], eax
	mov	DWORD PTR [ebp-20], eax
	mov	DWORD PTR [ebp-16], eax
	mov	eax, DWORD PTR ___security_cookie
	xor	eax, ebp
	push	eax
	lea	eax, DWORD PTR __$EHRec$[ebp]
	mov	DWORD PTR fs:0, eax
	mov	DWORD PTR _this$[ebp], ecx
	mov	DWORD PTR $T142318[ebp], 0

; 822  : 		return (const_reverse_iterator(begin()));

	sub	esp, 12					; 0000000cH
	mov	eax, esp
	mov	DWORD PTR $T142314[ebp], esp
	push	eax
	mov	ecx, DWORD PTR _this$[ebp]
	call	?begin@?$list@PAV?$Goal@VAbstRaven_Bot@@@@V?$allocator@PAV?$Goal@VAbstRaven_Bot@@@@@std@@@std@@QBE?AV?$_List_const_iterator@V?$_List_val@PAV?$Goal@VAbstRaven_Bot@@@@V?$allocator@PAV?$Goal@VAbstRaven_Bot@@@@@std@@@std@@@2@XZ ; std::list<Goal<AbstRaven_Bot> *,std::allocator<Goal<AbstRaven_Bot> *> >::begin
	mov	DWORD PTR tv87[ebp], eax
	lea	ecx, DWORD PTR $T142313[ebp]
	call	??0?$reverse_iterator@V?$_List_const_iterator@V?$_List_val@PAV?$Goal@VAbstRaven_Bot@@@@V?$allocator@PAV?$Goal@VAbstRaven_Bot@@@@@std@@@std@@@std@@@std@@QAE@V?$_List_const_iterator@V?$_List_val@PAV?$Goal@VAbstRaven_Bot@@@@V?$allocator@PAV?$Goal@VAbstRaven_Bot@@@@@std@@@std@@@1@@Z ; std::reverse_iterator<std::_List_const_iterator<std::_List_val<Goal<AbstRaven_Bot> *,std::allocator<Goal<AbstRaven_Bot> *> > > >::reverse_iterator<std::_List_const_iterator<std::_List_val<Goal<AbstRaven_Bot> *,std::allocator<Goal<AbstRaven_Bot> *> > > >
	mov	DWORD PTR tv88[ebp], eax
	mov	ecx, DWORD PTR tv88[ebp]
	mov	DWORD PTR tv90[ebp], ecx
	mov	DWORD PTR __$EHRec$[ebp+8], 1
	mov	edx, DWORD PTR tv90[ebp]
	push	edx
	mov	ecx, DWORD PTR ___$ReturnUdt$[ebp]
	call	??0?$reverse_iterator@V?$_List_const_iterator@V?$_List_val@PAV?$Goal@VAbstRaven_Bot@@@@V?$allocator@PAV?$Goal@VAbstRaven_Bot@@@@@std@@@std@@@std@@@std@@QAE@ABV01@@Z
	mov	eax, DWORD PTR $T142318[ebp]
	or	eax, 1
	mov	DWORD PTR $T142318[ebp], eax
	mov	BYTE PTR __$EHRec$[ebp+8], 0
	lea	ecx, DWORD PTR $T142313[ebp]
	call	??1?$reverse_iterator@V?$_List_const_iterator@V?$_List_val@PAV?$Goal@VAbstRaven_Bot@@@@V?$allocator@PAV?$Goal@VAbstRaven_Bot@@@@@std@@@std@@@std@@@std@@QAE@XZ
	mov	eax, DWORD PTR ___$ReturnUdt$[ebp]

; 823  : 		}

	mov	ecx, DWORD PTR __$EHRec$[ebp]
	mov	DWORD PTR fs:0, ecx
	pop	ecx
	add	esp, 48					; 00000030H
	cmp	ebp, esp
	call	__RTC_CheckEsp
	mov	esp, ebp
	pop	ebp
	ret	4
_TEXT	ENDS
;	COMDAT text$x
text$x	SEGMENT
__unwindfunclet$?rend@?$list@PAV?$Goal@VAbstRaven_Bot@@@@V?$allocator@PAV?$Goal@VAbstRaven_Bot@@@@@std@@@std@@QBE?AV?$reverse_iterator@V?$_List_const_iterator@V?$_List_val@PAV?$Goal@VAbstRaven_Bot@@@@V?$allocator@PAV?$Goal@VAbstRaven_Bot@@@@@std@@@std@@@std@@@2@XZ$1:
	lea	ecx, DWORD PTR $T142313[ebp]
	jmp	??1?$reverse_iterator@V?$_List_const_iterator@V?$_List_val@PAV?$Goal@VAbstRaven_Bot@@@@V?$allocator@PAV?$Goal@VAbstRaven_Bot@@@@@std@@@std@@@std@@@std@@QAE@XZ
__unwindfunclet$?rend@?$list@PAV?$Goal@VAbstRaven_Bot@@@@V?$allocator@PAV?$Goal@VAbstRaven_Bot@@@@@std@@@std@@QBE?AV?$reverse_iterator@V?$_List_const_iterator@V?$_List_val@PAV?$Goal@VAbstRaven_Bot@@@@V?$allocator@PAV?$Goal@VAbstRaven_Bot@@@@@std@@@std@@@std@@@2@XZ$2:
	mov	eax, DWORD PTR $T142318[ebp]
	and	eax, 1
	je	$LN6@rend
	and	DWORD PTR $T142318[ebp], -2		; fffffffeH
	mov	ecx, DWORD PTR ___$ReturnUdt$[ebp]
	jmp	??1?$reverse_iterator@V?$_List_const_iterator@V?$_List_val@PAV?$Goal@VAbstRaven_Bot@@@@V?$allocator@PAV?$Goal@VAbstRaven_Bot@@@@@std@@@std@@@std@@@std@@QAE@XZ
$LN6@rend:
	ret	0
__ehhandler$?rend@?$list@PAV?$Goal@VAbstRaven_Bot@@@@V?$allocator@PAV?$Goal@VAbstRaven_Bot@@@@@std@@@std@@QBE?AV?$reverse_iterator@V?$_List_const_iterator@V?$_List_val@PAV?$Goal@VAbstRaven_Bot@@@@V?$allocator@PAV?$Goal@VAbstRaven_Bot@@@@@std@@@std@@@std@@@2@XZ:
	mov	edx, DWORD PTR [esp+8]
	lea	eax, DWORD PTR [edx+12]
	mov	ecx, DWORD PTR [edx-40]
	xor	ecx, eax
	call	@__security_check_cookie@4
	mov	eax, OFFSET __ehfuncinfo$?rend@?$list@PAV?$Goal@VAbstRaven_Bot@@@@V?$allocator@PAV?$Goal@VAbstRaven_Bot@@@@@std@@@std@@QBE?AV?$reverse_iterator@V?$_List_const_iterator@V?$_List_val@PAV?$Goal@VAbstRaven_Bot@@@@V?$allocator@PAV?$Goal@VAbstRaven_Bot@@@@@std@@@std@@@std@@@2@XZ
	jmp	___CxxFrameHandler3
text$x	ENDS
?rend@?$list@PAV?$Goal@VAbstRaven_Bot@@@@V?$allocator@PAV?$Goal@VAbstRaven_Bot@@@@@std@@@std@@QBE?AV?$reverse_iterator@V?$_List_const_iterator@V?$_List_val@PAV?$Goal@VAbstRaven_Bot@@@@V?$allocator@PAV?$Goal@VAbstRaven_Bot@@@@@std@@@std@@@std@@@2@XZ ENDP ; std::list<Goal<AbstRaven_Bot> *,std::allocator<Goal<AbstRaven_Bot> *> >::rend
; Function compile flags: /Odtp /RTCsu
;	COMDAT ?empty@?$list@PAV?$Goal@VAbstRaven_Bot@@@@V?$allocator@PAV?$Goal@VAbstRaven_Bot@@@@@std@@@std@@QBE_NXZ
_TEXT	SEGMENT
_this$ = -4						; size = 4
?empty@?$list@PAV?$Goal@VAbstRaven_Bot@@@@V?$allocator@PAV?$Goal@VAbstRaven_Bot@@@@@std@@@std@@QBE_NXZ PROC ; std::list<Goal<AbstRaven_Bot> *,std::allocator<Goal<AbstRaven_Bot> *> >::empty, COMDAT
; _this$ = ecx

; 886  : 		{	// test if sequence is empty

	push	ebp
	mov	ebp, esp
	push	ecx
	mov	DWORD PTR [ebp-4], -858993460		; ccccccccH
	mov	DWORD PTR _this$[ebp], ecx

; 887  : 		return (this->_Mysize == 0);

	mov	eax, DWORD PTR _this$[ebp]
	xor	ecx, ecx
	cmp	DWORD PTR [eax+8], 0
	sete	cl
	mov	al, cl

; 888  : 		}

	mov	esp, ebp
	pop	ebp
	ret	0
?empty@?$list@PAV?$Goal@VAbstRaven_Bot@@@@V?$allocator@PAV?$Goal@VAbstRaven_Bot@@@@@std@@@std@@QBE_NXZ ENDP ; std::list<Goal<AbstRaven_Bot> *,std::allocator<Goal<AbstRaven_Bot> *> >::empty
_TEXT	ENDS
PUBLIC	??1?$_List_iterator@V?$_List_val@PAV?$Goal@VAbstRaven_Bot@@@@V?$allocator@PAV?$Goal@VAbstRaven_Bot@@@@@std@@@std@@@std@@QAE@XZ ; std::_List_iterator<std::_List_val<Goal<AbstRaven_Bot> *,std::allocator<Goal<AbstRaven_Bot> *> > >::~_List_iterator<std::_List_val<Goal<AbstRaven_Bot> *,std::allocator<Goal<AbstRaven_Bot> *> > >
PUBLIC	??D?$_List_iterator@V?$_List_val@PAV?$Goal@VAbstRaven_Bot@@@@V?$allocator@PAV?$Goal@VAbstRaven_Bot@@@@@std@@@std@@@std@@QBEAAPAV?$Goal@VAbstRaven_Bot@@@@XZ ; std::_List_iterator<std::_List_val<Goal<AbstRaven_Bot> *,std::allocator<Goal<AbstRaven_Bot> *> > >::operator*
PUBLIC	?begin@?$list@PAV?$Goal@VAbstRaven_Bot@@@@V?$allocator@PAV?$Goal@VAbstRaven_Bot@@@@@std@@@std@@QAE?AV?$_List_iterator@V?$_List_val@PAV?$Goal@VAbstRaven_Bot@@@@V?$allocator@PAV?$Goal@VAbstRaven_Bot@@@@@std@@@std@@@2@XZ ; std::list<Goal<AbstRaven_Bot> *,std::allocator<Goal<AbstRaven_Bot> *> >::begin
;	COMDAT xdata$x
xdata$x	SEGMENT
__unwindtable$?front@?$list@PAV?$Goal@VAbstRaven_Bot@@@@V?$allocator@PAV?$Goal@VAbstRaven_Bot@@@@@std@@@std@@QAEAAPAV?$Goal@VAbstRaven_Bot@@@@XZ DD 0ffffffffH
	DD	FLAT:__unwindfunclet$?front@?$list@PAV?$Goal@VAbstRaven_Bot@@@@V?$allocator@PAV?$Goal@VAbstRaven_Bot@@@@@std@@@std@@QAEAAPAV?$Goal@VAbstRaven_Bot@@@@XZ$0
__ehfuncinfo$?front@?$list@PAV?$Goal@VAbstRaven_Bot@@@@V?$allocator@PAV?$Goal@VAbstRaven_Bot@@@@@std@@@std@@QAEAAPAV?$Goal@VAbstRaven_Bot@@@@XZ DD 019930522H
	DD	01H
	DD	FLAT:__unwindtable$?front@?$list@PAV?$Goal@VAbstRaven_Bot@@@@V?$allocator@PAV?$Goal@VAbstRaven_Bot@@@@@std@@@std@@QAEAAPAV?$Goal@VAbstRaven_Bot@@@@XZ
	DD	2 DUP(00H)
	DD	2 DUP(00H)
	DD	00H
	DD	01H
; Function compile flags: /Odtp /RTCsu
xdata$x	ENDS
;	COMDAT ?front@?$list@PAV?$Goal@VAbstRaven_Bot@@@@V?$allocator@PAV?$Goal@VAbstRaven_Bot@@@@@std@@@std@@QAEAAPAV?$Goal@VAbstRaven_Bot@@@@XZ
_TEXT	SEGMENT
tv72 = -40						; size = 4
tv73 = -36						; size = 4
$T142331 = -32						; size = 12
$T142330 = -20						; size = 4
_this$ = -16						; size = 4
__$EHRec$ = -12						; size = 12
?front@?$list@PAV?$Goal@VAbstRaven_Bot@@@@V?$allocator@PAV?$Goal@VAbstRaven_Bot@@@@@std@@@std@@QAEAAPAV?$Goal@VAbstRaven_Bot@@@@XZ PROC ; std::list<Goal<AbstRaven_Bot> *,std::allocator<Goal<AbstRaven_Bot> *> >::front, COMDAT
; _this$ = ecx

; 896  : 		{	// return first element of mutable sequence

	push	ebp
	mov	ebp, esp
	push	-1
	push	__ehhandler$?front@?$list@PAV?$Goal@VAbstRaven_Bot@@@@V?$allocator@PAV?$Goal@VAbstRaven_Bot@@@@@std@@@std@@QAEAAPAV?$Goal@VAbstRaven_Bot@@@@XZ
	mov	eax, DWORD PTR fs:0
	push	eax
	sub	esp, 28					; 0000001cH
	mov	eax, -858993460				; ccccccccH
	mov	DWORD PTR [ebp-40], eax
	mov	DWORD PTR [ebp-36], eax
	mov	DWORD PTR [ebp-32], eax
	mov	DWORD PTR [ebp-28], eax
	mov	DWORD PTR [ebp-24], eax
	mov	DWORD PTR [ebp-20], eax
	mov	DWORD PTR [ebp-16], eax
	mov	eax, DWORD PTR ___security_cookie
	xor	eax, ebp
	push	eax
	lea	eax, DWORD PTR __$EHRec$[ebp]
	mov	DWORD PTR fs:0, eax
	mov	DWORD PTR _this$[ebp], ecx

; 897  : 		return (*begin());

	lea	eax, DWORD PTR $T142331[ebp]
	push	eax
	mov	ecx, DWORD PTR _this$[ebp]
	call	?begin@?$list@PAV?$Goal@VAbstRaven_Bot@@@@V?$allocator@PAV?$Goal@VAbstRaven_Bot@@@@@std@@@std@@QAE?AV?$_List_iterator@V?$_List_val@PAV?$Goal@VAbstRaven_Bot@@@@V?$allocator@PAV?$Goal@VAbstRaven_Bot@@@@@std@@@std@@@2@XZ ; std::list<Goal<AbstRaven_Bot> *,std::allocator<Goal<AbstRaven_Bot> *> >::begin
	mov	DWORD PTR tv73[ebp], eax
	mov	ecx, DWORD PTR tv73[ebp]
	mov	DWORD PTR tv72[ebp], ecx
	mov	DWORD PTR __$EHRec$[ebp+8], 0
	mov	ecx, DWORD PTR tv72[ebp]
	call	??D?$_List_iterator@V?$_List_val@PAV?$Goal@VAbstRaven_Bot@@@@V?$allocator@PAV?$Goal@VAbstRaven_Bot@@@@@std@@@std@@@std@@QBEAAPAV?$Goal@VAbstRaven_Bot@@@@XZ ; std::_List_iterator<std::_List_val<Goal<AbstRaven_Bot> *,std::allocator<Goal<AbstRaven_Bot> *> > >::operator*
	mov	DWORD PTR $T142330[ebp], eax
	mov	DWORD PTR __$EHRec$[ebp+8], -1
	lea	ecx, DWORD PTR $T142331[ebp]
	call	??1?$_List_iterator@V?$_List_val@PAV?$Goal@VAbstRaven_Bot@@@@V?$allocator@PAV?$Goal@VAbstRaven_Bot@@@@@std@@@std@@@std@@QAE@XZ
	mov	eax, DWORD PTR $T142330[ebp]

; 898  : 		}

	mov	ecx, DWORD PTR __$EHRec$[ebp]
	mov	DWORD PTR fs:0, ecx
	pop	ecx
	add	esp, 40					; 00000028H
	cmp	ebp, esp
	call	__RTC_CheckEsp
	mov	esp, ebp
	pop	ebp
	ret	0
_TEXT	ENDS
;	COMDAT text$x
text$x	SEGMENT
__unwindfunclet$?front@?$list@PAV?$Goal@VAbstRaven_Bot@@@@V?$allocator@PAV?$Goal@VAbstRaven_Bot@@@@@std@@@std@@QAEAAPAV?$Goal@VAbstRaven_Bot@@@@XZ$0:
	lea	ecx, DWORD PTR $T142331[ebp]
	jmp	??1?$_List_iterator@V?$_List_val@PAV?$Goal@VAbstRaven_Bot@@@@V?$allocator@PAV?$Goal@VAbstRaven_Bot@@@@@std@@@std@@@std@@QAE@XZ
__ehhandler$?front@?$list@PAV?$Goal@VAbstRaven_Bot@@@@V?$allocator@PAV?$Goal@VAbstRaven_Bot@@@@@std@@@std@@QAEAAPAV?$Goal@VAbstRaven_Bot@@@@XZ:
	mov	edx, DWORD PTR [esp+8]
	lea	eax, DWORD PTR [edx+12]
	mov	ecx, DWORD PTR [edx-32]
	xor	ecx, eax
	call	@__security_check_cookie@4
	mov	eax, OFFSET __ehfuncinfo$?front@?$list@PAV?$Goal@VAbstRaven_Bot@@@@V?$allocator@PAV?$Goal@VAbstRaven_Bot@@@@@std@@@std@@QAEAAPAV?$Goal@VAbstRaven_Bot@@@@XZ
	jmp	___CxxFrameHandler3
text$x	ENDS
?front@?$list@PAV?$Goal@VAbstRaven_Bot@@@@V?$allocator@PAV?$Goal@VAbstRaven_Bot@@@@@std@@@std@@QAEAAPAV?$Goal@VAbstRaven_Bot@@@@XZ ENDP ; std::list<Goal<AbstRaven_Bot> *,std::allocator<Goal<AbstRaven_Bot> *> >::front
; Function compile flags: /Odtp /RTCsu
;	COMDAT ??1?$_List_iterator@V?$_List_val@PAV?$Goal@VAbstRaven_Bot@@@@V?$allocator@PAV?$Goal@VAbstRaven_Bot@@@@@std@@@std@@@std@@QAE@XZ
_TEXT	SEGMENT
_this$ = -4						; size = 4
??1?$_List_iterator@V?$_List_val@PAV?$Goal@VAbstRaven_Bot@@@@V?$allocator@PAV?$Goal@VAbstRaven_Bot@@@@@std@@@std@@@std@@QAE@XZ PROC ; std::_List_iterator<std::_List_val<Goal<AbstRaven_Bot> *,std::allocator<Goal<AbstRaven_Bot> *> > >::~_List_iterator<std::_List_val<Goal<AbstRaven_Bot> *,std::allocator<Goal<AbstRaven_Bot> *> > >, COMDAT
; _this$ = ecx
	push	ebp
	mov	ebp, esp
	push	ecx
	mov	DWORD PTR [ebp-4], -858993460		; ccccccccH
	mov	DWORD PTR _this$[ebp], ecx
	mov	ecx, DWORD PTR _this$[ebp]
	call	??1?$_List_const_iterator@V?$_List_val@PAV?$Goal@VAbstRaven_Bot@@@@V?$allocator@PAV?$Goal@VAbstRaven_Bot@@@@@std@@@std@@@std@@QAE@XZ
	add	esp, 4
	cmp	ebp, esp
	call	__RTC_CheckEsp
	mov	esp, ebp
	pop	ebp
	ret	0
??1?$_List_iterator@V?$_List_val@PAV?$Goal@VAbstRaven_Bot@@@@V?$allocator@PAV?$Goal@VAbstRaven_Bot@@@@@std@@@std@@@std@@QAE@XZ ENDP ; std::_List_iterator<std::_List_val<Goal<AbstRaven_Bot> *,std::allocator<Goal<AbstRaven_Bot> *> > >::~_List_iterator<std::_List_val<Goal<AbstRaven_Bot> *,std::allocator<Goal<AbstRaven_Bot> *> > >
_TEXT	ENDS
PUBLIC	??0?$_List_iterator@V?$_List_val@PAV?$Goal@VAbstRaven_Bot@@@@V?$allocator@PAV?$Goal@VAbstRaven_Bot@@@@@std@@@std@@@std@@QAE@PAU_Node@?$_List_nod@PAV?$Goal@VAbstRaven_Bot@@@@V?$allocator@PAV?$Goal@VAbstRaven_Bot@@@@@std@@@1@PBV?$_List_val@PAV?$Goal@VAbstRaven_Bot@@@@V?$allocator@PAV?$Goal@VAbstRaven_Bot@@@@@std@@@1@@Z ; std::_List_iterator<std::_List_val<Goal<AbstRaven_Bot> *,std::allocator<Goal<AbstRaven_Bot> *> > >::_List_iterator<std::_List_val<Goal<AbstRaven_Bot> *,std::allocator<Goal<AbstRaven_Bot> *> > >
PUBLIC	?_Nextnode@?$_List_val@PAV?$Goal@VAbstRaven_Bot@@@@V?$allocator@PAV?$Goal@VAbstRaven_Bot@@@@@std@@@std@@SAAAPAU_Node@?$_List_nod@PAV?$Goal@VAbstRaven_Bot@@@@V?$allocator@PAV?$Goal@VAbstRaven_Bot@@@@@std@@@2@PAU342@@Z ; std::_List_val<Goal<AbstRaven_Bot> *,std::allocator<Goal<AbstRaven_Bot> *> >::_Nextnode
; Function compile flags: /Odtp /RTCsu
;	COMDAT ?begin@?$list@PAV?$Goal@VAbstRaven_Bot@@@@V?$allocator@PAV?$Goal@VAbstRaven_Bot@@@@@std@@@std@@QAE?AV?$_List_iterator@V?$_List_val@PAV?$Goal@VAbstRaven_Bot@@@@V?$allocator@PAV?$Goal@VAbstRaven_Bot@@@@@std@@@std@@@2@XZ
_TEXT	SEGMENT
$T142345 = -8						; size = 4
_this$ = -4						; size = 4
___$ReturnUdt$ = 8					; size = 4
?begin@?$list@PAV?$Goal@VAbstRaven_Bot@@@@V?$allocator@PAV?$Goal@VAbstRaven_Bot@@@@@std@@@std@@QAE?AV?$_List_iterator@V?$_List_val@PAV?$Goal@VAbstRaven_Bot@@@@V?$allocator@PAV?$Goal@VAbstRaven_Bot@@@@@std@@@std@@@2@XZ PROC ; std::list<Goal<AbstRaven_Bot> *,std::allocator<Goal<AbstRaven_Bot> *> >::begin, COMDAT
; _this$ = ecx

; 781  : 		{	// return iterator for beginning of mutable sequence

	push	ebp
	mov	ebp, esp
	sub	esp, 8
	mov	DWORD PTR [ebp-8], -858993460		; ccccccccH
	mov	DWORD PTR [ebp-4], -858993460		; ccccccccH
	mov	DWORD PTR _this$[ebp], ecx
	mov	DWORD PTR $T142345[ebp], 0

; 782  : 		return (iterator(this->_Nextnode(this->_Myhead), this));

	mov	eax, DWORD PTR _this$[ebp]
	push	eax
	mov	ecx, DWORD PTR _this$[ebp]
	mov	edx, DWORD PTR [ecx+4]
	push	edx
	call	?_Nextnode@?$_List_val@PAV?$Goal@VAbstRaven_Bot@@@@V?$allocator@PAV?$Goal@VAbstRaven_Bot@@@@@std@@@std@@SAAAPAU_Node@?$_List_nod@PAV?$Goal@VAbstRaven_Bot@@@@V?$allocator@PAV?$Goal@VAbstRaven_Bot@@@@@std@@@2@PAU342@@Z ; std::_List_val<Goal<AbstRaven_Bot> *,std::allocator<Goal<AbstRaven_Bot> *> >::_Nextnode
	add	esp, 4
	mov	eax, DWORD PTR [eax]
	push	eax
	mov	ecx, DWORD PTR ___$ReturnUdt$[ebp]
	call	??0?$_List_iterator@V?$_List_val@PAV?$Goal@VAbstRaven_Bot@@@@V?$allocator@PAV?$Goal@VAbstRaven_Bot@@@@@std@@@std@@@std@@QAE@PAU_Node@?$_List_nod@PAV?$Goal@VAbstRaven_Bot@@@@V?$allocator@PAV?$Goal@VAbstRaven_Bot@@@@@std@@@1@PBV?$_List_val@PAV?$Goal@VAbstRaven_Bot@@@@V?$allocator@PAV?$Goal@VAbstRaven_Bot@@@@@std@@@1@@Z ; std::_List_iterator<std::_List_val<Goal<AbstRaven_Bot> *,std::allocator<Goal<AbstRaven_Bot> *> > >::_List_iterator<std::_List_val<Goal<AbstRaven_Bot> *,std::allocator<Goal<AbstRaven_Bot> *> > >
	mov	ecx, DWORD PTR $T142345[ebp]
	or	ecx, 1
	mov	DWORD PTR $T142345[ebp], ecx
	mov	eax, DWORD PTR ___$ReturnUdt$[ebp]

; 783  : 		}

	add	esp, 8
	cmp	ebp, esp
	call	__RTC_CheckEsp
	mov	esp, ebp
	pop	ebp
	ret	4
?begin@?$list@PAV?$Goal@VAbstRaven_Bot@@@@V?$allocator@PAV?$Goal@VAbstRaven_Bot@@@@@std@@@std@@QAE?AV?$_List_iterator@V?$_List_val@PAV?$Goal@VAbstRaven_Bot@@@@V?$allocator@PAV?$Goal@VAbstRaven_Bot@@@@@std@@@std@@@2@XZ ENDP ; std::list<Goal<AbstRaven_Bot> *,std::allocator<Goal<AbstRaven_Bot> *> >::begin
; Function compile flags: /Odtp /RTCsu
_TEXT	ENDS
;	COMDAT ?_Nextnode@?$_List_val@PAV?$Goal@VAbstRaven_Bot@@@@V?$allocator@PAV?$Goal@VAbstRaven_Bot@@@@@std@@@std@@SAAAPAU_Node@?$_List_nod@PAV?$Goal@VAbstRaven_Bot@@@@V?$allocator@PAV?$Goal@VAbstRaven_Bot@@@@@std@@@2@PAU342@@Z
_TEXT	SEGMENT
__Pnode$ = 8						; size = 4
?_Nextnode@?$_List_val@PAV?$Goal@VAbstRaven_Bot@@@@V?$allocator@PAV?$Goal@VAbstRaven_Bot@@@@@std@@@std@@SAAAPAU_Node@?$_List_nod@PAV?$Goal@VAbstRaven_Bot@@@@V?$allocator@PAV?$Goal@VAbstRaven_Bot@@@@@std@@@2@PAU342@@Z PROC ; std::_List_val<Goal<AbstRaven_Bot> *,std::allocator<Goal<AbstRaven_Bot> *> >::_Nextnode, COMDAT

; 560  : 		{	// return reference to successor pointer in node

	push	ebp
	mov	ebp, esp

; 561  : 		return ((_Nodepref)(*_Pnode)._Next);

	mov	eax, DWORD PTR __Pnode$[ebp]

; 562  : 		}

	pop	ebp
	ret	0
?_Nextnode@?$_List_val@PAV?$Goal@VAbstRaven_Bot@@@@V?$allocator@PAV?$Goal@VAbstRaven_Bot@@@@@std@@@std@@SAAAPAU_Node@?$_List_nod@PAV?$Goal@VAbstRaven_Bot@@@@V?$allocator@PAV?$Goal@VAbstRaven_Bot@@@@@std@@@2@PAU342@@Z ENDP ; std::_List_val<Goal<AbstRaven_Bot> *,std::allocator<Goal<AbstRaven_Bot> *> >::_Nextnode
_TEXT	ENDS
PUBLIC	?_Insert@?$list@PAV?$Goal@VAbstRaven_Bot@@@@V?$allocator@PAV?$Goal@VAbstRaven_Bot@@@@@std@@@std@@QAEXV?$_List_const_iterator@V?$_List_val@PAV?$Goal@VAbstRaven_Bot@@@@V?$allocator@PAV?$Goal@VAbstRaven_Bot@@@@@std@@@std@@@2@ABQAV?$Goal@VAbstRaven_Bot@@@@@Z ; std::list<Goal<AbstRaven_Bot> *,std::allocator<Goal<AbstRaven_Bot> *> >::_Insert
PUBLIC	??0?$_List_const_iterator@V?$_List_val@PAV?$Goal@VAbstRaven_Bot@@@@V?$allocator@PAV?$Goal@VAbstRaven_Bot@@@@@std@@@std@@@std@@QAE@ABV01@@Z ; std::_List_const_iterator<std::_List_val<Goal<AbstRaven_Bot> *,std::allocator<Goal<AbstRaven_Bot> *> > >::_List_const_iterator<std::_List_val<Goal<AbstRaven_Bot> *,std::allocator<Goal<AbstRaven_Bot> *> > >
;	COMDAT xdata$x
xdata$x	SEGMENT
__unwindtable$?push_front@?$list@PAV?$Goal@VAbstRaven_Bot@@@@V?$allocator@PAV?$Goal@VAbstRaven_Bot@@@@@std@@@std@@QAEXABQAV?$Goal@VAbstRaven_Bot@@@@@Z DD 0ffffffffH
	DD	FLAT:__unwindfunclet$?push_front@?$list@PAV?$Goal@VAbstRaven_Bot@@@@V?$allocator@PAV?$Goal@VAbstRaven_Bot@@@@@std@@@std@@QAEXABQAV?$Goal@VAbstRaven_Bot@@@@@Z$0
__ehfuncinfo$?push_front@?$list@PAV?$Goal@VAbstRaven_Bot@@@@V?$allocator@PAV?$Goal@VAbstRaven_Bot@@@@@std@@@std@@QAEXABQAV?$Goal@VAbstRaven_Bot@@@@@Z DD 019930522H
	DD	01H
	DD	FLAT:__unwindtable$?push_front@?$list@PAV?$Goal@VAbstRaven_Bot@@@@V?$allocator@PAV?$Goal@VAbstRaven_Bot@@@@@std@@@std@@QAEXABQAV?$Goal@VAbstRaven_Bot@@@@@Z
	DD	2 DUP(00H)
	DD	2 DUP(00H)
	DD	00H
	DD	01H
; Function compile flags: /Odtp /RTCsu
xdata$x	ENDS
;	COMDAT ?push_front@?$list@PAV?$Goal@VAbstRaven_Bot@@@@V?$allocator@PAV?$Goal@VAbstRaven_Bot@@@@@std@@@std@@QAEXABQAV?$Goal@VAbstRaven_Bot@@@@@Z
_TEXT	SEGMENT
tv93 = -44						; size = 4
tv90 = -40						; size = 4
tv94 = -36						; size = 4
$T142352 = -32						; size = 12
$T142351 = -20						; size = 4
_this$ = -16						; size = 4
__$EHRec$ = -12						; size = 12
__Val$ = 8						; size = 4
?push_front@?$list@PAV?$Goal@VAbstRaven_Bot@@@@V?$allocator@PAV?$Goal@VAbstRaven_Bot@@@@@std@@@std@@QAEXABQAV?$Goal@VAbstRaven_Bot@@@@@Z PROC ; std::list<Goal<AbstRaven_Bot> *,std::allocator<Goal<AbstRaven_Bot> *> >::push_front, COMDAT
; _this$ = ecx

; 916  : 		{	// insert element at beginning

	push	ebp
	mov	ebp, esp
	push	-1
	push	__ehhandler$?push_front@?$list@PAV?$Goal@VAbstRaven_Bot@@@@V?$allocator@PAV?$Goal@VAbstRaven_Bot@@@@@std@@@std@@QAEXABQAV?$Goal@VAbstRaven_Bot@@@@@Z
	mov	eax, DWORD PTR fs:0
	push	eax
	sub	esp, 32					; 00000020H
	mov	eax, -858993460				; ccccccccH
	mov	DWORD PTR [ebp-44], eax
	mov	DWORD PTR [ebp-40], eax
	mov	DWORD PTR [ebp-36], eax
	mov	DWORD PTR [ebp-32], eax
	mov	DWORD PTR [ebp-28], eax
	mov	DWORD PTR [ebp-24], eax
	mov	DWORD PTR [ebp-20], eax
	mov	DWORD PTR [ebp-16], eax
	mov	eax, DWORD PTR ___security_cookie
	xor	eax, ebp
	push	eax
	lea	eax, DWORD PTR __$EHRec$[ebp]
	mov	DWORD PTR fs:0, eax
	mov	DWORD PTR _this$[ebp], ecx

; 917  : 		_Insert(begin(), _Val);

	mov	eax, DWORD PTR __Val$[ebp]
	push	eax
	lea	ecx, DWORD PTR $T142352[ebp]
	push	ecx
	mov	ecx, DWORD PTR _this$[ebp]
	call	?begin@?$list@PAV?$Goal@VAbstRaven_Bot@@@@V?$allocator@PAV?$Goal@VAbstRaven_Bot@@@@@std@@@std@@QAE?AV?$_List_iterator@V?$_List_val@PAV?$Goal@VAbstRaven_Bot@@@@V?$allocator@PAV?$Goal@VAbstRaven_Bot@@@@@std@@@std@@@2@XZ ; std::list<Goal<AbstRaven_Bot> *,std::allocator<Goal<AbstRaven_Bot> *> >::begin
	mov	DWORD PTR tv94[ebp], eax
	mov	edx, DWORD PTR tv94[ebp]
	mov	DWORD PTR tv90[ebp], edx
	mov	DWORD PTR __$EHRec$[ebp+8], 0
	sub	esp, 12					; 0000000cH
	mov	ecx, esp
	mov	DWORD PTR $T142351[ebp], esp
	mov	eax, DWORD PTR tv90[ebp]
	push	eax
	call	??0?$_List_const_iterator@V?$_List_val@PAV?$Goal@VAbstRaven_Bot@@@@V?$allocator@PAV?$Goal@VAbstRaven_Bot@@@@@std@@@std@@@std@@QAE@ABV01@@Z
	mov	DWORD PTR tv93[ebp], eax
	mov	ecx, DWORD PTR _this$[ebp]
	call	?_Insert@?$list@PAV?$Goal@VAbstRaven_Bot@@@@V?$allocator@PAV?$Goal@VAbstRaven_Bot@@@@@std@@@std@@QAEXV?$_List_const_iterator@V?$_List_val@PAV?$Goal@VAbstRaven_Bot@@@@V?$allocator@PAV?$Goal@VAbstRaven_Bot@@@@@std@@@std@@@2@ABQAV?$Goal@VAbstRaven_Bot@@@@@Z ; std::list<Goal<AbstRaven_Bot> *,std::allocator<Goal<AbstRaven_Bot> *> >::_Insert
	mov	DWORD PTR __$EHRec$[ebp+8], -1
	lea	ecx, DWORD PTR $T142352[ebp]
	call	??1?$_List_iterator@V?$_List_val@PAV?$Goal@VAbstRaven_Bot@@@@V?$allocator@PAV?$Goal@VAbstRaven_Bot@@@@@std@@@std@@@std@@QAE@XZ

; 918  : 		}

	mov	ecx, DWORD PTR __$EHRec$[ebp]
	mov	DWORD PTR fs:0, ecx
	pop	ecx
	add	esp, 44					; 0000002cH
	cmp	ebp, esp
	call	__RTC_CheckEsp
	mov	esp, ebp
	pop	ebp
	ret	4
_TEXT	ENDS
;	COMDAT text$x
text$x	SEGMENT
__unwindfunclet$?push_front@?$list@PAV?$Goal@VAbstRaven_Bot@@@@V?$allocator@PAV?$Goal@VAbstRaven_Bot@@@@@std@@@std@@QAEXABQAV?$Goal@VAbstRaven_Bot@@@@@Z$0:
	lea	ecx, DWORD PTR $T142352[ebp]
	jmp	??1?$_List_iterator@V?$_List_val@PAV?$Goal@VAbstRaven_Bot@@@@V?$allocator@PAV?$Goal@VAbstRaven_Bot@@@@@std@@@std@@@std@@QAE@XZ
__ehhandler$?push_front@?$list@PAV?$Goal@VAbstRaven_Bot@@@@V?$allocator@PAV?$Goal@VAbstRaven_Bot@@@@@std@@@std@@QAEXABQAV?$Goal@VAbstRaven_Bot@@@@@Z:
	mov	edx, DWORD PTR [esp+8]
	lea	eax, DWORD PTR [edx+12]
	mov	ecx, DWORD PTR [edx-36]
	xor	ecx, eax
	call	@__security_check_cookie@4
	mov	eax, OFFSET __ehfuncinfo$?push_front@?$list@PAV?$Goal@VAbstRaven_Bot@@@@V?$allocator@PAV?$Goal@VAbstRaven_Bot@@@@@std@@@std@@QAEXABQAV?$Goal@VAbstRaven_Bot@@@@@Z
	jmp	___CxxFrameHandler3
text$x	ENDS
?push_front@?$list@PAV?$Goal@VAbstRaven_Bot@@@@V?$allocator@PAV?$Goal@VAbstRaven_Bot@@@@@std@@@std@@QAEXABQAV?$Goal@VAbstRaven_Bot@@@@@Z ENDP ; std::list<Goal<AbstRaven_Bot> *,std::allocator<Goal<AbstRaven_Bot> *> >::push_front
PUBLIC	??3@YAXPAX0@Z					; operator delete
PUBLIC	??2@YAPAXIPAX@Z					; operator new
;	COMDAT xdata$x
; File c:\program files (x86)\microsoft visual studio 10.0\vc\include\xmemory
xdata$x	SEGMENT
__unwindtable$?construct@?$allocator@PAVGoal_Evaluator@@@std@@QAEXPAPAVGoal_Evaluator@@$$QAPAV3@@Z DD 0ffffffffH
	DD	FLAT:__unwindfunclet$?construct@?$allocator@PAVGoal_Evaluator@@@std@@QAEXPAPAVGoal_Evaluator@@$$QAPAV3@@Z$0
__ehfuncinfo$?construct@?$allocator@PAVGoal_Evaluator@@@std@@QAEXPAPAVGoal_Evaluator@@$$QAPAV3@@Z DD 019930522H
	DD	01H
	DD	FLAT:__unwindtable$?construct@?$allocator@PAVGoal_Evaluator@@@std@@QAEXPAPAVGoal_Evaluator@@$$QAPAV3@@Z
	DD	2 DUP(00H)
	DD	2 DUP(00H)
	DD	00H
	DD	01H
; Function compile flags: /Odtp /RTCsu
xdata$x	ENDS
;	COMDAT ?construct@?$allocator@PAVGoal_Evaluator@@@std@@QAEXPAPAVGoal_Evaluator@@$$QAPAV3@@Z
_TEXT	SEGMENT
tv73 = -28						; size = 4
$T142364 = -24						; size = 4
$T142363 = -20						; size = 4
_this$ = -16						; size = 4
__$EHRec$ = -12						; size = 12
__Ptr$ = 8						; size = 4
__Val$ = 12						; size = 4
?construct@?$allocator@PAVGoal_Evaluator@@@std@@QAEXPAPAVGoal_Evaluator@@$$QAPAV3@@Z PROC ; std::allocator<Goal_Evaluator *>::construct, COMDAT
; _this$ = ecx

; 201  : 		{	// construct object at _Ptr with value _Val

	push	ebp
	mov	ebp, esp
	push	-1
	push	__ehhandler$?construct@?$allocator@PAVGoal_Evaluator@@@std@@QAEXPAPAVGoal_Evaluator@@$$QAPAV3@@Z
	mov	eax, DWORD PTR fs:0
	push	eax
	sub	esp, 16					; 00000010H
	mov	eax, -858993460				; ccccccccH
	mov	DWORD PTR [ebp-28], eax
	mov	DWORD PTR [ebp-24], eax
	mov	DWORD PTR [ebp-20], eax
	mov	DWORD PTR [ebp-16], eax
	mov	eax, DWORD PTR ___security_cookie
	xor	eax, ebp
	push	eax
	lea	eax, DWORD PTR __$EHRec$[ebp]
	mov	DWORD PTR fs:0, eax
	mov	DWORD PTR _this$[ebp], ecx

; 202  : 		::new ((void _FARQ *)_Ptr) _Ty(_STD forward<_Ty>(_Val));

	mov	eax, DWORD PTR __Ptr$[ebp]
	push	eax
	push	4
	call	??2@YAPAXIPAX@Z				; operator new
	add	esp, 8
	mov	DWORD PTR $T142364[ebp], eax
	mov	DWORD PTR __$EHRec$[ebp+8], 0
	cmp	DWORD PTR $T142364[ebp], 0
	je	SHORT $LN3@construct
	mov	ecx, DWORD PTR __Val$[ebp]
	push	ecx
	call	??$forward@PAVGoal_Evaluator@@@std@@YA$$QAPAVGoal_Evaluator@@AAPAV1@@Z ; std::forward<Goal_Evaluator *>
	add	esp, 4
	mov	edx, DWORD PTR $T142364[ebp]
	mov	eax, DWORD PTR [eax]
	mov	DWORD PTR [edx], eax
	mov	ecx, DWORD PTR $T142364[ebp]
	mov	DWORD PTR tv73[ebp], ecx
	jmp	SHORT $LN4@construct
$LN3@construct:
	mov	DWORD PTR tv73[ebp], 0
$LN4@construct:
	mov	edx, DWORD PTR tv73[ebp]
	mov	DWORD PTR $T142363[ebp], edx
	mov	DWORD PTR __$EHRec$[ebp+8], -1

; 203  : 		}

	mov	ecx, DWORD PTR __$EHRec$[ebp]
	mov	DWORD PTR fs:0, ecx
	pop	ecx
	add	esp, 28					; 0000001cH
	cmp	ebp, esp
	call	__RTC_CheckEsp
	mov	esp, ebp
	pop	ebp
	ret	8
_TEXT	ENDS
;	COMDAT text$x
text$x	SEGMENT
__unwindfunclet$?construct@?$allocator@PAVGoal_Evaluator@@@std@@QAEXPAPAVGoal_Evaluator@@$$QAPAV3@@Z$0:
	mov	eax, DWORD PTR __Ptr$[ebp]
	push	eax
	mov	ecx, DWORD PTR $T142364[ebp]
	push	ecx
	call	??3@YAXPAX0@Z				; operator delete
	add	esp, 8
	ret	0
__ehhandler$?construct@?$allocator@PAVGoal_Evaluator@@@std@@QAEXPAPAVGoal_Evaluator@@$$QAPAV3@@Z:
	mov	edx, DWORD PTR [esp+8]
	lea	eax, DWORD PTR [edx+12]
	mov	ecx, DWORD PTR [edx-20]
	xor	ecx, eax
	call	@__security_check_cookie@4
	mov	eax, OFFSET __ehfuncinfo$?construct@?$allocator@PAVGoal_Evaluator@@@std@@QAEXPAPAVGoal_Evaluator@@$$QAPAV3@@Z
	jmp	___CxxFrameHandler3
text$x	ENDS
?construct@?$allocator@PAVGoal_Evaluator@@@std@@QAEXPAPAVGoal_Evaluator@@$$QAPAV3@@Z ENDP ; std::allocator<Goal_Evaluator *>::construct
; Function compile flags: /Odtp /RTCsu
; File c:\program files (x86)\microsoft visual studio 10.0\vc\include\new
;	COMDAT ??2@YAPAXIPAX@Z
_TEXT	SEGMENT
___formal$ = 8						; size = 4
__Where$ = 12						; size = 4
??2@YAPAXIPAX@Z PROC					; operator new, COMDAT

; 56   : 	{	// construct array with placement at _Where

	push	ebp
	mov	ebp, esp

; 57   : 	return (_Where);

	mov	eax, DWORD PTR __Where$[ebp]

; 58   : 	}

	pop	ebp
	ret	0
??2@YAPAXIPAX@Z ENDP					; operator new
; Function compile flags: /Odtp /RTCsu
_TEXT	ENDS
;	COMDAT ??3@YAXPAX0@Z
_TEXT	SEGMENT
___formal$ = 8						; size = 4
___formal$ = 12						; size = 4
??3@YAXPAX0@Z PROC					; operator delete, COMDAT

; 61   : 	{	// delete if placement new fails

	push	ebp
	mov	ebp, esp

; 62   : 	}

	pop	ebp
	ret	0
??3@YAXPAX0@Z ENDP					; operator delete
_TEXT	ENDS
;	COMDAT xdata$x
; File c:\program files (x86)\microsoft visual studio 10.0\vc\include\xmemory
xdata$x	SEGMENT
__unwindtable$?construct@?$allocator@U_Container_proxy@std@@@std@@QAEXPAU_Container_proxy@2@$$QAU32@@Z DD 0ffffffffH
	DD	FLAT:__unwindfunclet$?construct@?$allocator@U_Container_proxy@std@@@std@@QAEXPAU_Container_proxy@2@$$QAU32@@Z$0
__ehfuncinfo$?construct@?$allocator@U_Container_proxy@std@@@std@@QAEXPAU_Container_proxy@2@$$QAU32@@Z DD 019930522H
	DD	01H
	DD	FLAT:__unwindtable$?construct@?$allocator@U_Container_proxy@std@@@std@@QAEXPAU_Container_proxy@2@$$QAU32@@Z
	DD	2 DUP(00H)
	DD	2 DUP(00H)
	DD	00H
	DD	01H
; Function compile flags: /Odtp /RTCsu
xdata$x	ENDS
;	COMDAT ?construct@?$allocator@U_Container_proxy@std@@@std@@QAEXPAU_Container_proxy@2@$$QAU32@@Z
_TEXT	SEGMENT
tv74 = -28						; size = 4
$T142381 = -24						; size = 4
$T142380 = -20						; size = 4
_this$ = -16						; size = 4
__$EHRec$ = -12						; size = 12
__Ptr$ = 8						; size = 4
__Val$ = 12						; size = 4
?construct@?$allocator@U_Container_proxy@std@@@std@@QAEXPAU_Container_proxy@2@$$QAU32@@Z PROC ; std::allocator<std::_Container_proxy>::construct, COMDAT
; _this$ = ecx

; 201  : 		{	// construct object at _Ptr with value _Val

	push	ebp
	mov	ebp, esp
	push	-1
	push	__ehhandler$?construct@?$allocator@U_Container_proxy@std@@@std@@QAEXPAU_Container_proxy@2@$$QAU32@@Z
	mov	eax, DWORD PTR fs:0
	push	eax
	sub	esp, 16					; 00000010H
	mov	eax, -858993460				; ccccccccH
	mov	DWORD PTR [ebp-28], eax
	mov	DWORD PTR [ebp-24], eax
	mov	DWORD PTR [ebp-20], eax
	mov	DWORD PTR [ebp-16], eax
	mov	eax, DWORD PTR ___security_cookie
	xor	eax, ebp
	push	eax
	lea	eax, DWORD PTR __$EHRec$[ebp]
	mov	DWORD PTR fs:0, eax
	mov	DWORD PTR _this$[ebp], ecx

; 202  : 		::new ((void _FARQ *)_Ptr) _Ty(_STD forward<_Ty>(_Val));

	mov	eax, DWORD PTR __Ptr$[ebp]
	push	eax
	push	8
	call	??2@YAPAXIPAX@Z				; operator new
	add	esp, 8
	mov	DWORD PTR $T142381[ebp], eax
	mov	DWORD PTR __$EHRec$[ebp+8], 0
	cmp	DWORD PTR $T142381[ebp], 0
	je	SHORT $LN3@construct@2
	mov	ecx, DWORD PTR __Val$[ebp]
	push	ecx
	call	??$forward@U_Container_proxy@std@@@std@@YA$$QAU_Container_proxy@0@AAU10@@Z ; std::forward<std::_Container_proxy>
	add	esp, 4
	mov	edx, DWORD PTR [eax]
	mov	eax, DWORD PTR [eax+4]
	mov	ecx, DWORD PTR $T142381[ebp]
	mov	DWORD PTR [ecx], edx
	mov	DWORD PTR [ecx+4], eax
	mov	edx, DWORD PTR $T142381[ebp]
	mov	DWORD PTR tv74[ebp], edx
	jmp	SHORT $LN4@construct@2
$LN3@construct@2:
	mov	DWORD PTR tv74[ebp], 0
$LN4@construct@2:
	mov	eax, DWORD PTR tv74[ebp]
	mov	DWORD PTR $T142380[ebp], eax
	mov	DWORD PTR __$EHRec$[ebp+8], -1

; 203  : 		}

	mov	ecx, DWORD PTR __$EHRec$[ebp]
	mov	DWORD PTR fs:0, ecx
	pop	ecx
	add	esp, 28					; 0000001cH
	cmp	ebp, esp
	call	__RTC_CheckEsp
	mov	esp, ebp
	pop	ebp
	ret	8
_TEXT	ENDS
;	COMDAT text$x
text$x	SEGMENT
__unwindfunclet$?construct@?$allocator@U_Container_proxy@std@@@std@@QAEXPAU_Container_proxy@2@$$QAU32@@Z$0:
	mov	eax, DWORD PTR __Ptr$[ebp]
	push	eax
	mov	ecx, DWORD PTR $T142381[ebp]
	push	ecx
	call	??3@YAXPAX0@Z				; operator delete
	add	esp, 8
	ret	0
__ehhandler$?construct@?$allocator@U_Container_proxy@std@@@std@@QAEXPAU_Container_proxy@2@$$QAU32@@Z:
	mov	edx, DWORD PTR [esp+8]
	lea	eax, DWORD PTR [edx+12]
	mov	ecx, DWORD PTR [edx-20]
	xor	ecx, eax
	call	@__security_check_cookie@4
	mov	eax, OFFSET __ehfuncinfo$?construct@?$allocator@U_Container_proxy@std@@@std@@QAEXPAU_Container_proxy@2@$$QAU32@@Z
	jmp	___CxxFrameHandler3
text$x	ENDS
?construct@?$allocator@U_Container_proxy@std@@@std@@QAEXPAU_Container_proxy@2@$$QAU32@@Z ENDP ; std::allocator<std::_Container_proxy>::construct
PUBLIC	??$_Destroy@U_Container_proxy@std@@@std@@YAXPAU_Container_proxy@0@@Z ; std::_Destroy<std::_Container_proxy>
; Function compile flags: /Odtp /RTCsu
;	COMDAT ?destroy@?$allocator@U_Container_proxy@std@@@std@@QAEXPAU_Container_proxy@2@@Z
_TEXT	SEGMENT
_this$ = -4						; size = 4
__Ptr$ = 8						; size = 4
?destroy@?$allocator@U_Container_proxy@std@@@std@@QAEXPAU_Container_proxy@2@@Z PROC ; std::allocator<std::_Container_proxy>::destroy, COMDAT
; _this$ = ecx

; 212  : 		{	// destroy object at _Ptr

	push	ebp
	mov	ebp, esp
	push	ecx
	mov	DWORD PTR [ebp-4], -858993460		; ccccccccH
	mov	DWORD PTR _this$[ebp], ecx

; 213  : 		_Destroy(_Ptr);

	mov	eax, DWORD PTR __Ptr$[ebp]
	push	eax
	call	??$_Destroy@U_Container_proxy@std@@@std@@YAXPAU_Container_proxy@0@@Z ; std::_Destroy<std::_Container_proxy>
	add	esp, 4

; 214  : 		}

	add	esp, 4
	cmp	ebp, esp
	call	__RTC_CheckEsp
	mov	esp, ebp
	pop	ebp
	ret	4
?destroy@?$allocator@U_Container_proxy@std@@@std@@QAEXPAU_Container_proxy@2@@Z ENDP ; std::allocator<std::_Container_proxy>::destroy
_TEXT	ENDS
PUBLIC	??D?$_List_const_iterator@V?$_List_val@PAV?$Goal@VAbstRaven_Bot@@@@V?$allocator@PAV?$Goal@VAbstRaven_Bot@@@@@std@@@std@@@std@@QBEABQAV?$Goal@VAbstRaven_Bot@@@@XZ ; std::_List_const_iterator<std::_List_val<Goal<AbstRaven_Bot> *,std::allocator<Goal<AbstRaven_Bot> *> > >::operator*
; Function compile flags: /Odtp /RTCsu
; File c:\program files (x86)\microsoft visual studio 10.0\vc\include\list
;	COMDAT ??D?$_List_iterator@V?$_List_val@PAV?$Goal@VAbstRaven_Bot@@@@V?$allocator@PAV?$Goal@VAbstRaven_Bot@@@@@std@@@std@@@std@@QBEAAPAV?$Goal@VAbstRaven_Bot@@@@XZ
_TEXT	SEGMENT
_this$ = -4						; size = 4
??D?$_List_iterator@V?$_List_val@PAV?$Goal@VAbstRaven_Bot@@@@V?$allocator@PAV?$Goal@VAbstRaven_Bot@@@@@std@@@std@@@std@@QBEAAPAV?$Goal@VAbstRaven_Bot@@@@XZ PROC ; std::_List_iterator<std::_List_val<Goal<AbstRaven_Bot> *,std::allocator<Goal<AbstRaven_Bot> *> > >::operator*, COMDAT
; _this$ = ecx

; 359  : 		{	// return designated value

	push	ebp
	mov	ebp, esp
	push	ecx
	mov	DWORD PTR [ebp-4], -858993460		; ccccccccH
	mov	DWORD PTR _this$[ebp], ecx

; 360  : 		return ((reference)**(_Mybase *)this);

	mov	ecx, DWORD PTR _this$[ebp]
	call	??D?$_List_const_iterator@V?$_List_val@PAV?$Goal@VAbstRaven_Bot@@@@V?$allocator@PAV?$Goal@VAbstRaven_Bot@@@@@std@@@std@@@std@@QBEABQAV?$Goal@VAbstRaven_Bot@@@@XZ ; std::_List_const_iterator<std::_List_val<Goal<AbstRaven_Bot> *,std::allocator<Goal<AbstRaven_Bot> *> > >::operator*

; 361  : 		}

	add	esp, 4
	cmp	ebp, esp
	call	__RTC_CheckEsp
	mov	esp, ebp
	pop	ebp
	ret	0
??D?$_List_iterator@V?$_List_val@PAV?$Goal@VAbstRaven_Bot@@@@V?$allocator@PAV?$Goal@VAbstRaven_Bot@@@@@std@@@std@@@std@@QBEAAPAV?$Goal@VAbstRaven_Bot@@@@XZ ENDP ; std::_List_iterator<std::_List_val<Goal<AbstRaven_Bot> *,std::allocator<Goal<AbstRaven_Bot> *> > >::operator*
_TEXT	ENDS
PUBLIC	??0?$_Revranit@V?$_List_const_iterator@V?$_List_val@PAV?$Goal@VAbstRaven_Bot@@@@V?$allocator@PAV?$Goal@VAbstRaven_Bot@@@@@std@@@std@@@std@@U?$iterator@Ubidirectional_iterator_tag@std@@PAV?$Goal@VAbstRaven_Bot@@@@HPBQAV3@ABQAV3@@2@@std@@QAE@XZ ; std::_Revranit<std::_List_const_iterator<std::_List_val<Goal<AbstRaven_Bot> *,std::allocator<Goal<AbstRaven_Bot> *> > >,std::iterator<std::bidirectional_iterator_tag,Goal<AbstRaven_Bot> *,int,Goal<AbstRaven_Bot> * const *,Goal<AbstRaven_Bot> * const &> >::_Revranit<std::_List_const_iterator<std::_List_val<Goal<AbstRaven_Bot> *,std::allocator<Goal<AbstRaven_Bot> *> > >,std::iterator<std::bidirectional_iterator_tag,Goal<AbstRaven_Bot> *,int,Goal<AbstRaven_Bot> * const *,Goal<AbstRaven_Bot> * const &> >
; Function compile flags: /Odtp /RTCsu
; File c:\program files (x86)\microsoft visual studio 10.0\vc\include\xutility
;	COMDAT ??0?$reverse_iterator@V?$_List_const_iterator@V?$_List_val@PAV?$Goal@VAbstRaven_Bot@@@@V?$allocator@PAV?$Goal@VAbstRaven_Bot@@@@@std@@@std@@@std@@@std@@QAE@XZ
_TEXT	SEGMENT
_this$ = -4						; size = 4
??0?$reverse_iterator@V?$_List_const_iterator@V?$_List_val@PAV?$Goal@VAbstRaven_Bot@@@@V?$allocator@PAV?$Goal@VAbstRaven_Bot@@@@@std@@@std@@@std@@@std@@QAE@XZ PROC ; std::reverse_iterator<std::_List_const_iterator<std::_List_val<Goal<AbstRaven_Bot> *,std::allocator<Goal<AbstRaven_Bot> *> > > >::reverse_iterator<std::_List_const_iterator<std::_List_val<Goal<AbstRaven_Bot> *,std::allocator<Goal<AbstRaven_Bot> *> > > >, COMDAT
; _this$ = ecx

; 1255 : 	reverse_iterator()

	push	ebp
	mov	ebp, esp
	push	ecx
	mov	DWORD PTR [ebp-4], -858993460		; ccccccccH
	mov	DWORD PTR _this$[ebp], ecx
	mov	ecx, DWORD PTR _this$[ebp]
	call	??0?$_Revranit@V?$_List_const_iterator@V?$_List_val@PAV?$Goal@VAbstRaven_Bot@@@@V?$allocator@PAV?$Goal@VAbstRaven_Bot@@@@@std@@@std@@@std@@U?$iterator@Ubidirectional_iterator_tag@std@@PAV?$Goal@VAbstRaven_Bot@@@@HPBQAV3@ABQAV3@@2@@std@@QAE@XZ ; std::_Revranit<std::_List_const_iterator<std::_List_val<Goal<AbstRaven_Bot> *,std::allocator<Goal<AbstRaven_Bot> *> > >,std::iterator<std::bidirectional_iterator_tag,Goal<AbstRaven_Bot> *,int,Goal<AbstRaven_Bot> * const *,Goal<AbstRaven_Bot> * const &> >::_Revranit<std::_List_const_iterator<std::_List_val<Goal<AbstRaven_Bot> *,std::allocator<Goal<AbstRaven_Bot> *> > >,std::iterator<std::bidirectional_iterator_tag,Goal<AbstRaven_Bot> *,int,Goal<AbstRaven_Bot> * const *,Goal<AbstRaven_Bot> * const &> >

; 1256 : 		{	// construct with default wrapped iterator
; 1257 : 		}

	mov	eax, DWORD PTR _this$[ebp]
	add	esp, 4
	cmp	ebp, esp
	call	__RTC_CheckEsp
	mov	esp, ebp
	pop	ebp
	ret	0
??0?$reverse_iterator@V?$_List_const_iterator@V?$_List_val@PAV?$Goal@VAbstRaven_Bot@@@@V?$allocator@PAV?$Goal@VAbstRaven_Bot@@@@@std@@@std@@@std@@@std@@QAE@XZ ENDP ; std::reverse_iterator<std::_List_const_iterator<std::_List_val<Goal<AbstRaven_Bot> *,std::allocator<Goal<AbstRaven_Bot> *> > > >::reverse_iterator<std::_List_const_iterator<std::_List_val<Goal<AbstRaven_Bot> *,std::allocator<Goal<AbstRaven_Bot> *> > > >
_TEXT	ENDS
PUBLIC	??E?$_Revranit@V?$_List_const_iterator@V?$_List_val@PAV?$Goal@VAbstRaven_Bot@@@@V?$allocator@PAV?$Goal@VAbstRaven_Bot@@@@@std@@@std@@@std@@U?$iterator@Ubidirectional_iterator_tag@std@@PAV?$Goal@VAbstRaven_Bot@@@@HPBQAV3@ABQAV3@@2@@std@@QAEAAV01@XZ ; std::_Revranit<std::_List_const_iterator<std::_List_val<Goal<AbstRaven_Bot> *,std::allocator<Goal<AbstRaven_Bot> *> > >,std::iterator<std::bidirectional_iterator_tag,Goal<AbstRaven_Bot> *,int,Goal<AbstRaven_Bot> * const *,Goal<AbstRaven_Bot> * const &> >::operator++
; Function compile flags: /Odtp /RTCsu
;	COMDAT ??E?$reverse_iterator@V?$_List_const_iterator@V?$_List_val@PAV?$Goal@VAbstRaven_Bot@@@@V?$allocator@PAV?$Goal@VAbstRaven_Bot@@@@@std@@@std@@@std@@@std@@QAEAAV01@XZ
_TEXT	SEGMENT
_this$ = -4						; size = 4
??E?$reverse_iterator@V?$_List_const_iterator@V?$_List_val@PAV?$Goal@VAbstRaven_Bot@@@@V?$allocator@PAV?$Goal@VAbstRaven_Bot@@@@@std@@@std@@@std@@@std@@QAEAAV01@XZ PROC ; std::reverse_iterator<std::_List_const_iterator<std::_List_val<Goal<AbstRaven_Bot> *,std::allocator<Goal<AbstRaven_Bot> *> > > >::operator++, COMDAT
; _this$ = ecx

; 1276 : 		{	// preincrement

	push	ebp
	mov	ebp, esp
	push	ecx
	mov	DWORD PTR [ebp-4], -858993460		; ccccccccH
	mov	DWORD PTR _this$[ebp], ecx

; 1277 : 		++*((_Mybase *)this);

	mov	ecx, DWORD PTR _this$[ebp]
	call	??E?$_Revranit@V?$_List_const_iterator@V?$_List_val@PAV?$Goal@VAbstRaven_Bot@@@@V?$allocator@PAV?$Goal@VAbstRaven_Bot@@@@@std@@@std@@@std@@U?$iterator@Ubidirectional_iterator_tag@std@@PAV?$Goal@VAbstRaven_Bot@@@@HPBQAV3@ABQAV3@@2@@std@@QAEAAV01@XZ ; std::_Revranit<std::_List_const_iterator<std::_List_val<Goal<AbstRaven_Bot> *,std::allocator<Goal<AbstRaven_Bot> *> > >,std::iterator<std::bidirectional_iterator_tag,Goal<AbstRaven_Bot> *,int,Goal<AbstRaven_Bot> * const *,Goal<AbstRaven_Bot> * const &> >::operator++

; 1278 : 		return (*this);

	mov	eax, DWORD PTR _this$[ebp]

; 1279 : 		}

	add	esp, 4
	cmp	ebp, esp
	call	__RTC_CheckEsp
	mov	esp, ebp
	pop	ebp
	ret	0
??E?$reverse_iterator@V?$_List_const_iterator@V?$_List_val@PAV?$Goal@VAbstRaven_Bot@@@@V?$allocator@PAV?$Goal@VAbstRaven_Bot@@@@@std@@@std@@@std@@@std@@QAEAAV01@XZ ENDP ; std::reverse_iterator<std::_List_const_iterator<std::_List_val<Goal<AbstRaven_Bot> *,std::allocator<Goal<AbstRaven_Bot> *> > > >::operator++
_TEXT	ENDS
PUBLIC	??F?$_List_const_iterator@V?$_List_val@PAV?$Goal@VAbstRaven_Bot@@@@V?$allocator@PAV?$Goal@VAbstRaven_Bot@@@@@std@@@std@@@std@@QAEAAV01@XZ ; std::_List_const_iterator<std::_List_val<Goal<AbstRaven_Bot> *,std::allocator<Goal<AbstRaven_Bot> *> > >::operator--
;	COMDAT xdata$x
xdata$x	SEGMENT
__unwindtable$??D?$_Revranit@V?$_List_const_iterator@V?$_List_val@PAV?$Goal@VAbstRaven_Bot@@@@V?$allocator@PAV?$Goal@VAbstRaven_Bot@@@@@std@@@std@@@std@@U?$iterator@Ubidirectional_iterator_tag@std@@PAV?$Goal@VAbstRaven_Bot@@@@HPBQAV3@ABQAV3@@2@@std@@QBEABQAV?$Goal@VAbstRaven_Bot@@@@XZ DD 0ffffffffH
	DD	FLAT:__unwindfunclet$??D?$_Revranit@V?$_List_const_iterator@V?$_List_val@PAV?$Goal@VAbstRaven_Bot@@@@V?$allocator@PAV?$Goal@VAbstRaven_Bot@@@@@std@@@std@@@std@@U?$iterator@Ubidirectional_iterator_tag@std@@PAV?$Goal@VAbstRaven_Bot@@@@HPBQAV3@ABQAV3@@2@@std@@QBEABQAV?$Goal@VAbstRaven_Bot@@@@XZ$0
__ehfuncinfo$??D?$_Revranit@V?$_List_const_iterator@V?$_List_val@PAV?$Goal@VAbstRaven_Bot@@@@V?$allocator@PAV?$Goal@VAbstRaven_Bot@@@@@std@@@std@@@std@@U?$iterator@Ubidirectional_iterator_tag@std@@PAV?$Goal@VAbstRaven_Bot@@@@HPBQAV3@ABQAV3@@2@@std@@QBEABQAV?$Goal@VAbstRaven_Bot@@@@XZ DD 019930522H
	DD	01H
	DD	FLAT:__unwindtable$??D?$_Revranit@V?$_List_const_iterator@V?$_List_val@PAV?$Goal@VAbstRaven_Bot@@@@V?$allocator@PAV?$Goal@VAbstRaven_Bot@@@@@std@@@std@@@std@@U?$iterator@Ubidirectional_iterator_tag@std@@PAV?$Goal@VAbstRaven_Bot@@@@HPBQAV3@ABQAV3@@2@@std@@QBEABQAV?$Goal@VAbstRaven_Bot@@@@XZ
	DD	2 DUP(00H)
	DD	2 DUP(00H)
	DD	00H
	DD	01H
; Function compile flags: /Odtp /RTCsu
xdata$x	ENDS
;	COMDAT ??D?$_Revranit@V?$_List_const_iterator@V?$_List_val@PAV?$Goal@VAbstRaven_Bot@@@@V?$allocator@PAV?$Goal@VAbstRaven_Bot@@@@@std@@@std@@@std@@U?$iterator@Ubidirectional_iterator_tag@std@@PAV?$Goal@VAbstRaven_Bot@@@@HPBQAV3@ABQAV3@@2@@std@@QBEABQAV?$Goal@VAbstRaven_Bot@@@@XZ
_TEXT	SEGMENT
$T142402 = -40						; size = 4
__Tmp$ = -32						; size = 12
_this$ = -16						; size = 4
__$EHRec$ = -12						; size = 12
??D?$_Revranit@V?$_List_const_iterator@V?$_List_val@PAV?$Goal@VAbstRaven_Bot@@@@V?$allocator@PAV?$Goal@VAbstRaven_Bot@@@@@std@@@std@@@std@@U?$iterator@Ubidirectional_iterator_tag@std@@PAV?$Goal@VAbstRaven_Bot@@@@HPBQAV3@ABQAV3@@2@@std@@QBEABQAV?$Goal@VAbstRaven_Bot@@@@XZ PROC ; std::_Revranit<std::_List_const_iterator<std::_List_val<Goal<AbstRaven_Bot> *,std::allocator<Goal<AbstRaven_Bot> *> > >,std::iterator<std::bidirectional_iterator_tag,Goal<AbstRaven_Bot> *,int,Goal<AbstRaven_Bot> * const *,Goal<AbstRaven_Bot> * const &> >::operator*, COMDAT
; _this$ = ecx

; 1055 : 		{	// return designated value

	push	ebp
	mov	ebp, esp
	push	-1
	push	__ehhandler$??D?$_Revranit@V?$_List_const_iterator@V?$_List_val@PAV?$Goal@VAbstRaven_Bot@@@@V?$allocator@PAV?$Goal@VAbstRaven_Bot@@@@@std@@@std@@@std@@U?$iterator@Ubidirectional_iterator_tag@std@@PAV?$Goal@VAbstRaven_Bot@@@@HPBQAV3@ABQAV3@@2@@std@@QBEABQAV?$Goal@VAbstRaven_Bot@@@@XZ
	mov	eax, DWORD PTR fs:0
	push	eax
	sub	esp, 28					; 0000001cH
	mov	eax, -858993460				; ccccccccH
	mov	DWORD PTR [ebp-40], eax
	mov	DWORD PTR [ebp-36], eax
	mov	DWORD PTR [ebp-32], eax
	mov	DWORD PTR [ebp-28], eax
	mov	DWORD PTR [ebp-24], eax
	mov	DWORD PTR [ebp-20], eax
	mov	DWORD PTR [ebp-16], eax
	mov	eax, DWORD PTR ___security_cookie
	xor	eax, ebp
	push	eax
	lea	eax, DWORD PTR __$EHRec$[ebp]
	mov	DWORD PTR fs:0, eax
	mov	DWORD PTR _this$[ebp], ecx

; 1056 : 		_RanIt _Tmp = current;

	mov	eax, DWORD PTR _this$[ebp]
	push	eax
	lea	ecx, DWORD PTR __Tmp$[ebp]
	call	??0?$_List_const_iterator@V?$_List_val@PAV?$Goal@VAbstRaven_Bot@@@@V?$allocator@PAV?$Goal@VAbstRaven_Bot@@@@@std@@@std@@@std@@QAE@ABV01@@Z
	mov	DWORD PTR __$EHRec$[ebp+8], 0

; 1057 : 		return (*--_Tmp);

	lea	ecx, DWORD PTR __Tmp$[ebp]
	call	??F?$_List_const_iterator@V?$_List_val@PAV?$Goal@VAbstRaven_Bot@@@@V?$allocator@PAV?$Goal@VAbstRaven_Bot@@@@@std@@@std@@@std@@QAEAAV01@XZ ; std::_List_const_iterator<std::_List_val<Goal<AbstRaven_Bot> *,std::allocator<Goal<AbstRaven_Bot> *> > >::operator--
	mov	ecx, eax
	call	??D?$_List_const_iterator@V?$_List_val@PAV?$Goal@VAbstRaven_Bot@@@@V?$allocator@PAV?$Goal@VAbstRaven_Bot@@@@@std@@@std@@@std@@QBEABQAV?$Goal@VAbstRaven_Bot@@@@XZ ; std::_List_const_iterator<std::_List_val<Goal<AbstRaven_Bot> *,std::allocator<Goal<AbstRaven_Bot> *> > >::operator*
	mov	DWORD PTR $T142402[ebp], eax
	mov	DWORD PTR __$EHRec$[ebp+8], -1
	lea	ecx, DWORD PTR __Tmp$[ebp]
	call	??1?$_List_const_iterator@V?$_List_val@PAV?$Goal@VAbstRaven_Bot@@@@V?$allocator@PAV?$Goal@VAbstRaven_Bot@@@@@std@@@std@@@std@@QAE@XZ
	mov	eax, DWORD PTR $T142402[ebp]

; 1058 : 		}

	push	edx
	mov	ecx, ebp
	push	eax
	lea	edx, DWORD PTR $LN7@operator@3
	call	@_RTC_CheckStackVars@8
	pop	eax
	pop	edx
	mov	ecx, DWORD PTR __$EHRec$[ebp]
	mov	DWORD PTR fs:0, ecx
	pop	ecx
	add	esp, 40					; 00000028H
	cmp	ebp, esp
	call	__RTC_CheckEsp
	mov	esp, ebp
	pop	ebp
	ret	0
	npad	1
$LN7@operator@3:
	DD	1
	DD	$LN6@operator@3
$LN6@operator@3:
	DD	-32					; ffffffe0H
	DD	12					; 0000000cH
	DD	$LN4@operator@3
$LN4@operator@3:
	DB	95					; 0000005fH
	DB	84					; 00000054H
	DB	109					; 0000006dH
	DB	112					; 00000070H
	DB	0
_TEXT	ENDS
;	COMDAT text$x
text$x	SEGMENT
__unwindfunclet$??D?$_Revranit@V?$_List_const_iterator@V?$_List_val@PAV?$Goal@VAbstRaven_Bot@@@@V?$allocator@PAV?$Goal@VAbstRaven_Bot@@@@@std@@@std@@@std@@U?$iterator@Ubidirectional_iterator_tag@std@@PAV?$Goal@VAbstRaven_Bot@@@@HPBQAV3@ABQAV3@@2@@std@@QBEABQAV?$Goal@VAbstRaven_Bot@@@@XZ$0:
	lea	ecx, DWORD PTR __Tmp$[ebp]
	jmp	??1?$_List_const_iterator@V?$_List_val@PAV?$Goal@VAbstRaven_Bot@@@@V?$allocator@PAV?$Goal@VAbstRaven_Bot@@@@@std@@@std@@@std@@QAE@XZ
__ehhandler$??D?$_Revranit@V?$_List_const_iterator@V?$_List_val@PAV?$Goal@VAbstRaven_Bot@@@@V?$allocator@PAV?$Goal@VAbstRaven_Bot@@@@@std@@@std@@@std@@U?$iterator@Ubidirectional_iterator_tag@std@@PAV?$Goal@VAbstRaven_Bot@@@@HPBQAV3@ABQAV3@@2@@std@@QBEABQAV?$Goal@VAbstRaven_Bot@@@@XZ:
	mov	edx, DWORD PTR [esp+8]
	lea	eax, DWORD PTR [edx+12]
	mov	ecx, DWORD PTR [edx-32]
	xor	ecx, eax
	call	@__security_check_cookie@4
	mov	eax, OFFSET __ehfuncinfo$??D?$_Revranit@V?$_List_const_iterator@V?$_List_val@PAV?$Goal@VAbstRaven_Bot@@@@V?$allocator@PAV?$Goal@VAbstRaven_Bot@@@@@std@@@std@@@std@@U?$iterator@Ubidirectional_iterator_tag@std@@PAV?$Goal@VAbstRaven_Bot@@@@HPBQAV3@ABQAV3@@2@@std@@QBEABQAV?$Goal@VAbstRaven_Bot@@@@XZ
	jmp	___CxxFrameHandler3
text$x	ENDS
??D?$_Revranit@V?$_List_const_iterator@V?$_List_val@PAV?$Goal@VAbstRaven_Bot@@@@V?$allocator@PAV?$Goal@VAbstRaven_Bot@@@@@std@@@std@@@std@@U?$iterator@Ubidirectional_iterator_tag@std@@PAV?$Goal@VAbstRaven_Bot@@@@HPBQAV3@ABQAV3@@2@@std@@QBEABQAV?$Goal@VAbstRaven_Bot@@@@XZ ENDP ; std::_Revranit<std::_List_const_iterator<std::_List_val<Goal<AbstRaven_Bot> *,std::allocator<Goal<AbstRaven_Bot> *> > >,std::iterator<std::bidirectional_iterator_tag,Goal<AbstRaven_Bot> *,int,Goal<AbstRaven_Bot> * const *,Goal<AbstRaven_Bot> * const &> >::operator*
PUBLIC	??0?$_Revranit@V?$_List_const_iterator@V?$_List_val@PAV?$Goal@VAbstRaven_Bot@@@@V?$allocator@PAV?$Goal@VAbstRaven_Bot@@@@@std@@@std@@@std@@U?$iterator@Ubidirectional_iterator_tag@std@@PAV?$Goal@VAbstRaven_Bot@@@@HPBQAV3@ABQAV3@@2@@std@@QAE@ABV01@@Z ; std::_Revranit<std::_List_const_iterator<std::_List_val<Goal<AbstRaven_Bot> *,std::allocator<Goal<AbstRaven_Bot> *> > >,std::iterator<std::bidirectional_iterator_tag,Goal<AbstRaven_Bot> *,int,Goal<AbstRaven_Bot> * const *,Goal<AbstRaven_Bot> * const &> >::_Revranit<std::_List_const_iterator<std::_List_val<Goal<AbstRaven_Bot> *,std::allocator<Goal<AbstRaven_Bot> *> > >,std::iterator<std::bidirectional_iterator_tag,Goal<AbstRaven_Bot> *,int,Goal<AbstRaven_Bot> * const *,Goal<AbstRaven_Bot> * const &> >
; Function compile flags: /Odtp /RTCsu
;	COMDAT ??0?$reverse_iterator@V?$_List_const_iterator@V?$_List_val@PAV?$Goal@VAbstRaven_Bot@@@@V?$allocator@PAV?$Goal@VAbstRaven_Bot@@@@@std@@@std@@@std@@@std@@QAE@ABV01@@Z
_TEXT	SEGMENT
_this$ = -4						; size = 4
___that$ = 8						; size = 4
??0?$reverse_iterator@V?$_List_const_iterator@V?$_List_val@PAV?$Goal@VAbstRaven_Bot@@@@V?$allocator@PAV?$Goal@VAbstRaven_Bot@@@@@std@@@std@@@std@@@std@@QAE@ABV01@@Z PROC ; std::reverse_iterator<std::_List_const_iterator<std::_List_val<Goal<AbstRaven_Bot> *,std::allocator<Goal<AbstRaven_Bot> *> > > >::reverse_iterator<std::_List_const_iterator<std::_List_val<Goal<AbstRaven_Bot> *,std::allocator<Goal<AbstRaven_Bot> *> > > >, COMDAT
; _this$ = ecx
	push	ebp
	mov	ebp, esp
	push	ecx
	mov	DWORD PTR [ebp-4], -858993460		; ccccccccH
	mov	DWORD PTR _this$[ebp], ecx
	mov	eax, DWORD PTR ___that$[ebp]
	push	eax
	mov	ecx, DWORD PTR _this$[ebp]
	call	??0?$_Revranit@V?$_List_const_iterator@V?$_List_val@PAV?$Goal@VAbstRaven_Bot@@@@V?$allocator@PAV?$Goal@VAbstRaven_Bot@@@@@std@@@std@@@std@@U?$iterator@Ubidirectional_iterator_tag@std@@PAV?$Goal@VAbstRaven_Bot@@@@HPBQAV3@ABQAV3@@2@@std@@QAE@ABV01@@Z
	mov	eax, DWORD PTR _this$[ebp]
	add	esp, 4
	cmp	ebp, esp
	call	__RTC_CheckEsp
	mov	esp, ebp
	pop	ebp
	ret	4
??0?$reverse_iterator@V?$_List_const_iterator@V?$_List_val@PAV?$Goal@VAbstRaven_Bot@@@@V?$allocator@PAV?$Goal@VAbstRaven_Bot@@@@@std@@@std@@@std@@@std@@QAE@ABV01@@Z ENDP ; std::reverse_iterator<std::_List_const_iterator<std::_List_val<Goal<AbstRaven_Bot> *,std::allocator<Goal<AbstRaven_Bot> *> > > >::reverse_iterator<std::_List_const_iterator<std::_List_val<Goal<AbstRaven_Bot> *,std::allocator<Goal<AbstRaven_Bot> *> > > >
_TEXT	ENDS
PUBLIC	??0?$_List_unchecked_const_iterator@V?$_List_val@PAV?$Goal@VAbstRaven_Bot@@@@V?$allocator@PAV?$Goal@VAbstRaven_Bot@@@@@std@@@std@@U_Iterator_base12@2@@std@@QAE@ABV01@@Z ; std::_List_unchecked_const_iterator<std::_List_val<Goal<AbstRaven_Bot> *,std::allocator<Goal<AbstRaven_Bot> *> >,std::_Iterator_base12>::_List_unchecked_const_iterator<std::_List_val<Goal<AbstRaven_Bot> *,std::allocator<Goal<AbstRaven_Bot> *> >,std::_Iterator_base12>
; Function compile flags: /Odtp /RTCsu
;	COMDAT ??0?$_List_const_iterator@V?$_List_val@PAV?$Goal@VAbstRaven_Bot@@@@V?$allocator@PAV?$Goal@VAbstRaven_Bot@@@@@std@@@std@@@std@@QAE@ABV01@@Z
_TEXT	SEGMENT
_this$ = -4						; size = 4
___that$ = 8						; size = 4
??0?$_List_const_iterator@V?$_List_val@PAV?$Goal@VAbstRaven_Bot@@@@V?$allocator@PAV?$Goal@VAbstRaven_Bot@@@@@std@@@std@@@std@@QAE@ABV01@@Z PROC ; std::_List_const_iterator<std::_List_val<Goal<AbstRaven_Bot> *,std::allocator<Goal<AbstRaven_Bot> *> > >::_List_const_iterator<std::_List_val<Goal<AbstRaven_Bot> *,std::allocator<Goal<AbstRaven_Bot> *> > >, COMDAT
; _this$ = ecx
	push	ebp
	mov	ebp, esp
	push	ecx
	mov	DWORD PTR [ebp-4], -858993460		; ccccccccH
	mov	DWORD PTR _this$[ebp], ecx
	mov	eax, DWORD PTR ___that$[ebp]
	push	eax
	mov	ecx, DWORD PTR _this$[ebp]
	call	??0?$_List_unchecked_const_iterator@V?$_List_val@PAV?$Goal@VAbstRaven_Bot@@@@V?$allocator@PAV?$Goal@VAbstRaven_Bot@@@@@std@@@std@@U_Iterator_base12@2@@std@@QAE@ABV01@@Z
	mov	eax, DWORD PTR _this$[ebp]
	add	esp, 4
	cmp	ebp, esp
	call	__RTC_CheckEsp
	mov	esp, ebp
	pop	ebp
	ret	4
??0?$_List_const_iterator@V?$_List_val@PAV?$Goal@VAbstRaven_Bot@@@@V?$allocator@PAV?$Goal@VAbstRaven_Bot@@@@@std@@@std@@@std@@QAE@ABV01@@Z ENDP ; std::_List_const_iterator<std::_List_val<Goal<AbstRaven_Bot> *,std::allocator<Goal<AbstRaven_Bot> *> > >::_List_const_iterator<std::_List_val<Goal<AbstRaven_Bot> *,std::allocator<Goal<AbstRaven_Bot> *> > >
; Function compile flags: /Odtp /RTCsu
_TEXT	ENDS
;	COMDAT ??0?$_Revranit@V?$_List_const_iterator@V?$_List_val@PAV?$Goal@VAbstRaven_Bot@@@@V?$allocator@PAV?$Goal@VAbstRaven_Bot@@@@@std@@@std@@@std@@U?$iterator@Ubidirectional_iterator_tag@std@@PAV?$Goal@VAbstRaven_Bot@@@@HPBQAV3@ABQAV3@@2@@std@@QAE@ABV01@@Z
_TEXT	SEGMENT
_this$ = -4						; size = 4
___that$ = 8						; size = 4
??0?$_Revranit@V?$_List_const_iterator@V?$_List_val@PAV?$Goal@VAbstRaven_Bot@@@@V?$allocator@PAV?$Goal@VAbstRaven_Bot@@@@@std@@@std@@@std@@U?$iterator@Ubidirectional_iterator_tag@std@@PAV?$Goal@VAbstRaven_Bot@@@@HPBQAV3@ABQAV3@@2@@std@@QAE@ABV01@@Z PROC ; std::_Revranit<std::_List_const_iterator<std::_List_val<Goal<AbstRaven_Bot> *,std::allocator<Goal<AbstRaven_Bot> *> > >,std::iterator<std::bidirectional_iterator_tag,Goal<AbstRaven_Bot> *,int,Goal<AbstRaven_Bot> * const *,Goal<AbstRaven_Bot> * const &> >::_Revranit<std::_List_const_iterator<std::_List_val<Goal<AbstRaven_Bot> *,std::allocator<Goal<AbstRaven_Bot> *> > >,std::iterator<std::bidirectional_iterator_tag,Goal<AbstRaven_Bot> *,int,Goal<AbstRaven_Bot> * const *,Goal<AbstRaven_Bot> * const &> >, COMDAT
; _this$ = ecx
	push	ebp
	mov	ebp, esp
	push	ecx
	mov	DWORD PTR [ebp-4], -858993460		; ccccccccH
	mov	DWORD PTR _this$[ebp], ecx
	mov	eax, DWORD PTR ___that$[ebp]
	push	eax
	mov	ecx, DWORD PTR _this$[ebp]
	call	??0?$_List_const_iterator@V?$_List_val@PAV?$Goal@VAbstRaven_Bot@@@@V?$allocator@PAV?$Goal@VAbstRaven_Bot@@@@@std@@@std@@@std@@QAE@ABV01@@Z
	mov	eax, DWORD PTR _this$[ebp]
	add	esp, 4
	cmp	ebp, esp
	call	__RTC_CheckEsp
	mov	esp, ebp
	pop	ebp
	ret	4
??0?$_Revranit@V?$_List_const_iterator@V?$_List_val@PAV?$Goal@VAbstRaven_Bot@@@@V?$allocator@PAV?$Goal@VAbstRaven_Bot@@@@@std@@@std@@@std@@U?$iterator@Ubidirectional_iterator_tag@std@@PAV?$Goal@VAbstRaven_Bot@@@@HPBQAV3@ABQAV3@@2@@std@@QAE@ABV01@@Z ENDP ; std::_Revranit<std::_List_const_iterator<std::_List_val<Goal<AbstRaven_Bot> *,std::allocator<Goal<AbstRaven_Bot> *> > >,std::iterator<std::bidirectional_iterator_tag,Goal<AbstRaven_Bot> *,int,Goal<AbstRaven_Bot> * const *,Goal<AbstRaven_Bot> * const &> >::_Revranit<std::_List_const_iterator<std::_List_val<Goal<AbstRaven_Bot> *,std::allocator<Goal<AbstRaven_Bot> *> > >,std::iterator<std::bidirectional_iterator_tag,Goal<AbstRaven_Bot> *,int,Goal<AbstRaven_Bot> * const *,Goal<AbstRaven_Bot> * const &> >
_TEXT	ENDS
PUBLIC	??0?$_Iterator012@Ubidirectional_iterator_tag@std@@PAV?$Goal@VAbstRaven_Bot@@@@HPBQAV3@ABQAV3@U_Iterator_base12@2@@std@@QAE@ABU01@@Z ; std::_Iterator012<std::bidirectional_iterator_tag,Goal<AbstRaven_Bot> *,int,Goal<AbstRaven_Bot> * const *,Goal<AbstRaven_Bot> * const &,std::_Iterator_base12>::_Iterator012<std::bidirectional_iterator_tag,Goal<AbstRaven_Bot> *,int,Goal<AbstRaven_Bot> * const *,Goal<AbstRaven_Bot> * const &,std::_Iterator_base12>
; Function compile flags: /Odtp /RTCsu
;	COMDAT ??0?$_List_unchecked_const_iterator@V?$_List_val@PAV?$Goal@VAbstRaven_Bot@@@@V?$allocator@PAV?$Goal@VAbstRaven_Bot@@@@@std@@@std@@U_Iterator_base12@2@@std@@QAE@ABV01@@Z
_TEXT	SEGMENT
_this$ = -4						; size = 4
___that$ = 8						; size = 4
??0?$_List_unchecked_const_iterator@V?$_List_val@PAV?$Goal@VAbstRaven_Bot@@@@V?$allocator@PAV?$Goal@VAbstRaven_Bot@@@@@std@@@std@@U_Iterator_base12@2@@std@@QAE@ABV01@@Z PROC ; std::_List_unchecked_const_iterator<std::_List_val<Goal<AbstRaven_Bot> *,std::allocator<Goal<AbstRaven_Bot> *> >,std::_Iterator_base12>::_List_unchecked_const_iterator<std::_List_val<Goal<AbstRaven_Bot> *,std::allocator<Goal<AbstRaven_Bot> *> >,std::_Iterator_base12>, COMDAT
; _this$ = ecx
	push	ebp
	mov	ebp, esp
	push	ecx
	mov	DWORD PTR [ebp-4], -858993460		; ccccccccH
	mov	DWORD PTR _this$[ebp], ecx
	mov	eax, DWORD PTR ___that$[ebp]
	push	eax
	mov	ecx, DWORD PTR _this$[ebp]
	call	??0?$_Iterator012@Ubidirectional_iterator_tag@std@@PAV?$Goal@VAbstRaven_Bot@@@@HPBQAV3@ABQAV3@U_Iterator_base12@2@@std@@QAE@ABU01@@Z
	mov	ecx, DWORD PTR _this$[ebp]
	mov	edx, DWORD PTR ___that$[ebp]
	mov	eax, DWORD PTR [edx+8]
	mov	DWORD PTR [ecx+8], eax
	mov	eax, DWORD PTR _this$[ebp]
	add	esp, 4
	cmp	ebp, esp
	call	__RTC_CheckEsp
	mov	esp, ebp
	pop	ebp
	ret	4
??0?$_List_unchecked_const_iterator@V?$_List_val@PAV?$Goal@VAbstRaven_Bot@@@@V?$allocator@PAV?$Goal@VAbstRaven_Bot@@@@@std@@@std@@U_Iterator_base12@2@@std@@QAE@ABV01@@Z ENDP ; std::_List_unchecked_const_iterator<std::_List_val<Goal<AbstRaven_Bot> *,std::allocator<Goal<AbstRaven_Bot> *> >,std::_Iterator_base12>::_List_unchecked_const_iterator<std::_List_val<Goal<AbstRaven_Bot> *,std::allocator<Goal<AbstRaven_Bot> *> >,std::_Iterator_base12>
; Function compile flags: /Odtp /RTCsu
_TEXT	ENDS
;	COMDAT ??0?$_Iterator012@Ubidirectional_iterator_tag@std@@PAV?$Goal@VAbstRaven_Bot@@@@HPBQAV3@ABQAV3@U_Iterator_base12@2@@std@@QAE@ABU01@@Z
_TEXT	SEGMENT
_this$ = -4						; size = 4
___that$ = 8						; size = 4
??0?$_Iterator012@Ubidirectional_iterator_tag@std@@PAV?$Goal@VAbstRaven_Bot@@@@HPBQAV3@ABQAV3@U_Iterator_base12@2@@std@@QAE@ABU01@@Z PROC ; std::_Iterator012<std::bidirectional_iterator_tag,Goal<AbstRaven_Bot> *,int,Goal<AbstRaven_Bot> * const *,Goal<AbstRaven_Bot> * const &,std::_Iterator_base12>::_Iterator012<std::bidirectional_iterator_tag,Goal<AbstRaven_Bot> *,int,Goal<AbstRaven_Bot> * const *,Goal<AbstRaven_Bot> * const &,std::_Iterator_base12>, COMDAT
; _this$ = ecx
	push	ebp
	mov	ebp, esp
	push	ecx
	mov	DWORD PTR [ebp-4], -858993460		; ccccccccH
	mov	DWORD PTR _this$[ebp], ecx
	mov	eax, DWORD PTR ___that$[ebp]
	push	eax
	mov	ecx, DWORD PTR _this$[ebp]
	call	??0_Iterator_base12@std@@QAE@ABU01@@Z	; std::_Iterator_base12::_Iterator_base12
	mov	eax, DWORD PTR _this$[ebp]
	add	esp, 4
	cmp	ebp, esp
	call	__RTC_CheckEsp
	mov	esp, ebp
	pop	ebp
	ret	4
??0?$_Iterator012@Ubidirectional_iterator_tag@std@@PAV?$Goal@VAbstRaven_Bot@@@@HPBQAV3@ABQAV3@U_Iterator_base12@2@@std@@QAE@ABU01@@Z ENDP ; std::_Iterator012<std::bidirectional_iterator_tag,Goal<AbstRaven_Bot> *,int,Goal<AbstRaven_Bot> * const *,Goal<AbstRaven_Bot> * const &,std::_Iterator_base12>::_Iterator012<std::bidirectional_iterator_tag,Goal<AbstRaven_Bot> *,int,Goal<AbstRaven_Bot> * const *,Goal<AbstRaven_Bot> * const &,std::_Iterator_base12>
_TEXT	ENDS
PUBLIC	?append@?$basic_string@DU?$char_traits@D@std@@V?$allocator@D@2@@std@@QAEAAV12@ABV12@II@Z ; std::basic_string<char,std::char_traits<char>,std::allocator<char> >::append
; Function compile flags: /Odtp /RTCsu
; File c:\program files (x86)\microsoft visual studio 10.0\vc\include\xstring
;	COMDAT ?append@?$basic_string@DU?$char_traits@D@std@@V?$allocator@D@2@@std@@QAEAAV12@ABV12@@Z
_TEXT	SEGMENT
_this$ = -4						; size = 4
__Right$ = 8						; size = 4
?append@?$basic_string@DU?$char_traits@D@std@@V?$allocator@D@2@@std@@QAEAAV12@ABV12@@Z PROC ; std::basic_string<char,std::char_traits<char>,std::allocator<char> >::append, COMDAT
; _this$ = ecx

; 792  : 		{	// append _Right

	push	ebp
	mov	ebp, esp
	push	ecx
	mov	DWORD PTR [ebp-4], -858993460		; ccccccccH
	mov	DWORD PTR _this$[ebp], ecx

; 793  : 		return (append(_Right, 0, npos));

	push	-1
	push	0
	mov	eax, DWORD PTR __Right$[ebp]
	push	eax
	mov	ecx, DWORD PTR _this$[ebp]
	call	?append@?$basic_string@DU?$char_traits@D@std@@V?$allocator@D@2@@std@@QAEAAV12@ABV12@II@Z ; std::basic_string<char,std::char_traits<char>,std::allocator<char> >::append

; 794  : 		}

	add	esp, 4
	cmp	ebp, esp
	call	__RTC_CheckEsp
	mov	esp, ebp
	pop	ebp
	ret	4
?append@?$basic_string@DU?$char_traits@D@std@@V?$allocator@D@2@@std@@QAEAAV12@ABV12@@Z ENDP ; std::basic_string<char,std::char_traits<char>,std::allocator<char> >::append
; Function compile flags: /Odtp /RTCsu
_TEXT	ENDS
;	COMDAT ?append@?$basic_string@DU?$char_traits@D@std@@V?$allocator@D@2@@std@@QAEAAV12@PBDI@Z
_TEXT	SEGMENT
__Num$ = -8						; size = 4
_this$ = -4						; size = 4
__Ptr$ = 8						; size = 4
__Count$ = 12						; size = 4
?append@?$basic_string@DU?$char_traits@D@std@@V?$allocator@D@2@@std@@QAEAAV12@PBDI@Z PROC ; std::basic_string<char,std::char_traits<char>,std::allocator<char> >::append, COMDAT
; _this$ = ecx

; 817  : 		{	// append [_Ptr, _Ptr + _Count)

	push	ebp
	mov	ebp, esp
	sub	esp, 8
	mov	DWORD PTR [ebp-8], -858993460		; ccccccccH
	mov	DWORD PTR [ebp-4], -858993460		; ccccccccH
	mov	DWORD PTR _this$[ebp], ecx

; 818  :  #if _ITERATOR_DEBUG_LEVEL == 2
; 819  : 		if (_Count != 0)

	cmp	DWORD PTR __Count$[ebp], 0
	je	SHORT $LN4@append

; 820  : 			_DEBUG_POINTER(_Ptr);

	push	820					; 00000334H
	push	OFFSET ??_C@_1IO@FJMIILFL@?$AAc?$AA?3?$AA?2?$AAP?$AAr?$AAo?$AAg?$AAr?$AAa?$AAm?$AA?5?$AAF?$AAi?$AAl?$AAe?$AAs?$AA?5?$AA?$CI?$AAx?$AA8?$AA6?$AA?$CJ?$AA?2?$AAM?$AAi?$AAc?$AAr?$AAo?$AAs?$AAo?$AAf?$AAt@
	mov	eax, DWORD PTR __Ptr$[ebp]
	push	eax
	call	??$_Debug_pointer@D@std@@YAXPBDPB_WI@Z	; std::_Debug_pointer<char>
	add	esp, 12					; 0000000cH
$LN4@append:

; 821  :  #endif /* _ITERATOR_DEBUG_LEVEL == 2 */
; 822  : 
; 823  : 		if (_Inside(_Ptr))

	mov	ecx, DWORD PTR __Ptr$[ebp]
	push	ecx
	mov	ecx, DWORD PTR _this$[ebp]
	call	?_Inside@?$basic_string@DU?$char_traits@D@std@@V?$allocator@D@2@@std@@QAE_NPBD@Z ; std::basic_string<char,std::char_traits<char>,std::allocator<char> >::_Inside
	movzx	edx, al
	test	edx, edx
	je	SHORT $LN3@append

; 824  : 			return (append(*this, _Ptr - _Myptr(), _Count));	// substring

	mov	eax, DWORD PTR __Count$[ebp]
	push	eax
	mov	ecx, DWORD PTR _this$[ebp]
	call	?_Myptr@?$basic_string@DU?$char_traits@D@std@@V?$allocator@D@2@@std@@QAEPADXZ ; std::basic_string<char,std::char_traits<char>,std::allocator<char> >::_Myptr
	mov	ecx, DWORD PTR __Ptr$[ebp]
	sub	ecx, eax
	push	ecx
	mov	edx, DWORD PTR _this$[ebp]
	push	edx
	mov	ecx, DWORD PTR _this$[ebp]
	call	?append@?$basic_string@DU?$char_traits@D@std@@V?$allocator@D@2@@std@@QAEAAV12@ABV12@II@Z ; std::basic_string<char,std::char_traits<char>,std::allocator<char> >::append
	jmp	SHORT $LN6@append
$LN3@append:

; 825  : 		if (npos - this->_Mysize <= _Count)

	mov	eax, DWORD PTR _this$[ebp]
	or	ecx, -1
	sub	ecx, DWORD PTR [eax+20]
	cmp	ecx, DWORD PTR __Count$[ebp]
	ja	SHORT $LN2@append

; 826  : 			_Xlen();	// result too long

	mov	ecx, DWORD PTR _this$[ebp]
	call	?_Xlen@?$basic_string@DU?$char_traits@D@std@@V?$allocator@D@2@@std@@QBEXXZ ; std::basic_string<char,std::char_traits<char>,std::allocator<char> >::_Xlen
$LN2@append:

; 827  : 
; 828  : 		size_type _Num;
; 829  : 		if (0 < _Count && _Grow(_Num = this->_Mysize + _Count))

	cmp	DWORD PTR __Count$[ebp], 0
	jbe	SHORT $LN1@append
	mov	edx, DWORD PTR _this$[ebp]
	mov	eax, DWORD PTR [edx+20]
	add	eax, DWORD PTR __Count$[ebp]
	mov	DWORD PTR __Num$[ebp], eax
	push	0
	mov	ecx, DWORD PTR __Num$[ebp]
	push	ecx
	mov	ecx, DWORD PTR _this$[ebp]
	call	?_Grow@?$basic_string@DU?$char_traits@D@std@@V?$allocator@D@2@@std@@QAE_NI_N@Z ; std::basic_string<char,std::char_traits<char>,std::allocator<char> >::_Grow
	movzx	edx, al
	test	edx, edx
	je	SHORT $LN1@append

; 830  : 			{	// make room and append new stuff
; 831  : 			_Traits::copy(_Myptr() + this->_Mysize, _Ptr, _Count);

	mov	eax, DWORD PTR __Count$[ebp]
	push	eax
	mov	ecx, DWORD PTR __Ptr$[ebp]
	push	ecx
	mov	ecx, DWORD PTR _this$[ebp]
	call	?_Myptr@?$basic_string@DU?$char_traits@D@std@@V?$allocator@D@2@@std@@QAEPADXZ ; std::basic_string<char,std::char_traits<char>,std::allocator<char> >::_Myptr
	mov	edx, DWORD PTR _this$[ebp]
	add	eax, DWORD PTR [edx+20]
	push	eax
	call	?copy@?$char_traits@D@std@@SAPADPADPBDI@Z ; std::char_traits<char>::copy
	add	esp, 12					; 0000000cH

; 832  : 			_Eos(_Num);

	mov	eax, DWORD PTR __Num$[ebp]
	push	eax
	mov	ecx, DWORD PTR _this$[ebp]
	call	?_Eos@?$basic_string@DU?$char_traits@D@std@@V?$allocator@D@2@@std@@QAEXI@Z ; std::basic_string<char,std::char_traits<char>,std::allocator<char> >::_Eos
$LN1@append:

; 833  : 			}
; 834  : 		return (*this);

	mov	eax, DWORD PTR _this$[ebp]
$LN6@append:

; 835  : 		}

	add	esp, 8
	cmp	ebp, esp
	call	__RTC_CheckEsp
	mov	esp, ebp
	pop	ebp
	ret	8
?append@?$basic_string@DU?$char_traits@D@std@@V?$allocator@D@2@@std@@QAEAAV12@PBDI@Z ENDP ; std::basic_string<char,std::char_traits<char>,std::allocator<char> >::append
_TEXT	ENDS
PUBLIC	??0?$_List_const_iterator@V?$_List_val@PAV?$Goal@VAbstRaven_Bot@@@@V?$allocator@PAV?$Goal@VAbstRaven_Bot@@@@@std@@@std@@@std@@QAE@PAU_Node@?$_List_nod@PAV?$Goal@VAbstRaven_Bot@@@@V?$allocator@PAV?$Goal@VAbstRaven_Bot@@@@@std@@@1@PBV?$_List_val@PAV?$Goal@VAbstRaven_Bot@@@@V?$allocator@PAV?$Goal@VAbstRaven_Bot@@@@@std@@@1@@Z ; std::_List_const_iterator<std::_List_val<Goal<AbstRaven_Bot> *,std::allocator<Goal<AbstRaven_Bot> *> > >::_List_const_iterator<std::_List_val<Goal<AbstRaven_Bot> *,std::allocator<Goal<AbstRaven_Bot> *> > >
; Function compile flags: /Odtp /RTCsu
; File c:\program files (x86)\microsoft visual studio 10.0\vc\include\list
;	COMDAT ?begin@?$list@PAV?$Goal@VAbstRaven_Bot@@@@V?$allocator@PAV?$Goal@VAbstRaven_Bot@@@@@std@@@std@@QBE?AV?$_List_const_iterator@V?$_List_val@PAV?$Goal@VAbstRaven_Bot@@@@V?$allocator@PAV?$Goal@VAbstRaven_Bot@@@@@std@@@std@@@2@XZ
_TEXT	SEGMENT
$T142435 = -8						; size = 4
_this$ = -4						; size = 4
___$ReturnUdt$ = 8					; size = 4
?begin@?$list@PAV?$Goal@VAbstRaven_Bot@@@@V?$allocator@PAV?$Goal@VAbstRaven_Bot@@@@@std@@@std@@QBE?AV?$_List_const_iterator@V?$_List_val@PAV?$Goal@VAbstRaven_Bot@@@@V?$allocator@PAV?$Goal@VAbstRaven_Bot@@@@@std@@@std@@@2@XZ PROC ; std::list<Goal<AbstRaven_Bot> *,std::allocator<Goal<AbstRaven_Bot> *> >::begin, COMDAT
; _this$ = ecx

; 786  : 		{	// return iterator for beginning of nonmutable sequence

	push	ebp
	mov	ebp, esp
	sub	esp, 8
	mov	DWORD PTR [ebp-8], -858993460		; ccccccccH
	mov	DWORD PTR [ebp-4], -858993460		; ccccccccH
	mov	DWORD PTR _this$[ebp], ecx
	mov	DWORD PTR $T142435[ebp], 0

; 787  : 		return (const_iterator(this->_Nextnode(this->_Myhead), this));

	mov	eax, DWORD PTR _this$[ebp]
	push	eax
	mov	ecx, DWORD PTR _this$[ebp]
	mov	edx, DWORD PTR [ecx+4]
	push	edx
	call	?_Nextnode@?$_List_val@PAV?$Goal@VAbstRaven_Bot@@@@V?$allocator@PAV?$Goal@VAbstRaven_Bot@@@@@std@@@std@@SAAAPAU_Node@?$_List_nod@PAV?$Goal@VAbstRaven_Bot@@@@V?$allocator@PAV?$Goal@VAbstRaven_Bot@@@@@std@@@2@PAU342@@Z ; std::_List_val<Goal<AbstRaven_Bot> *,std::allocator<Goal<AbstRaven_Bot> *> >::_Nextnode
	add	esp, 4
	mov	eax, DWORD PTR [eax]
	push	eax
	mov	ecx, DWORD PTR ___$ReturnUdt$[ebp]
	call	??0?$_List_const_iterator@V?$_List_val@PAV?$Goal@VAbstRaven_Bot@@@@V?$allocator@PAV?$Goal@VAbstRaven_Bot@@@@@std@@@std@@@std@@QAE@PAU_Node@?$_List_nod@PAV?$Goal@VAbstRaven_Bot@@@@V?$allocator@PAV?$Goal@VAbstRaven_Bot@@@@@std@@@1@PBV?$_List_val@PAV?$Goal@VAbstRaven_Bot@@@@V?$allocator@PAV?$Goal@VAbstRaven_Bot@@@@@std@@@1@@Z ; std::_List_const_iterator<std::_List_val<Goal<AbstRaven_Bot> *,std::allocator<Goal<AbstRaven_Bot> *> > >::_List_const_iterator<std::_List_val<Goal<AbstRaven_Bot> *,std::allocator<Goal<AbstRaven_Bot> *> > >
	mov	ecx, DWORD PTR $T142435[ebp]
	or	ecx, 1
	mov	DWORD PTR $T142435[ebp], ecx
	mov	eax, DWORD PTR ___$ReturnUdt$[ebp]

; 788  : 		}

	add	esp, 8
	cmp	ebp, esp
	call	__RTC_CheckEsp
	mov	esp, ebp
	pop	ebp
	ret	4
?begin@?$list@PAV?$Goal@VAbstRaven_Bot@@@@V?$allocator@PAV?$Goal@VAbstRaven_Bot@@@@@std@@@std@@QBE?AV?$_List_const_iterator@V?$_List_val@PAV?$Goal@VAbstRaven_Bot@@@@V?$allocator@PAV?$Goal@VAbstRaven_Bot@@@@@std@@@std@@@2@XZ ENDP ; std::list<Goal<AbstRaven_Bot> *,std::allocator<Goal<AbstRaven_Bot> *> >::begin
; Function compile flags: /Odtp /RTCsu
_TEXT	ENDS
;	COMDAT ?end@?$list@PAV?$Goal@VAbstRaven_Bot@@@@V?$allocator@PAV?$Goal@VAbstRaven_Bot@@@@@std@@@std@@QBE?AV?$_List_const_iterator@V?$_List_val@PAV?$Goal@VAbstRaven_Bot@@@@V?$allocator@PAV?$Goal@VAbstRaven_Bot@@@@@std@@@std@@@2@XZ
_TEXT	SEGMENT
$T142440 = -8						; size = 4
_this$ = -4						; size = 4
___$ReturnUdt$ = 8					; size = 4
?end@?$list@PAV?$Goal@VAbstRaven_Bot@@@@V?$allocator@PAV?$Goal@VAbstRaven_Bot@@@@@std@@@std@@QBE?AV?$_List_const_iterator@V?$_List_val@PAV?$Goal@VAbstRaven_Bot@@@@V?$allocator@PAV?$Goal@VAbstRaven_Bot@@@@@std@@@std@@@2@XZ PROC ; std::list<Goal<AbstRaven_Bot> *,std::allocator<Goal<AbstRaven_Bot> *> >::end, COMDAT
; _this$ = ecx

; 796  : 		{	// return iterator for end of nonmutable sequence

	push	ebp
	mov	ebp, esp
	sub	esp, 8
	mov	DWORD PTR [ebp-8], -858993460		; ccccccccH
	mov	DWORD PTR [ebp-4], -858993460		; ccccccccH
	mov	DWORD PTR _this$[ebp], ecx
	mov	DWORD PTR $T142440[ebp], 0

; 797  : 		return (const_iterator(this->_Myhead, this));

	mov	eax, DWORD PTR _this$[ebp]
	push	eax
	mov	ecx, DWORD PTR _this$[ebp]
	mov	edx, DWORD PTR [ecx+4]
	push	edx
	mov	ecx, DWORD PTR ___$ReturnUdt$[ebp]
	call	??0?$_List_const_iterator@V?$_List_val@PAV?$Goal@VAbstRaven_Bot@@@@V?$allocator@PAV?$Goal@VAbstRaven_Bot@@@@@std@@@std@@@std@@QAE@PAU_Node@?$_List_nod@PAV?$Goal@VAbstRaven_Bot@@@@V?$allocator@PAV?$Goal@VAbstRaven_Bot@@@@@std@@@1@PBV?$_List_val@PAV?$Goal@VAbstRaven_Bot@@@@V?$allocator@PAV?$Goal@VAbstRaven_Bot@@@@@std@@@1@@Z ; std::_List_const_iterator<std::_List_val<Goal<AbstRaven_Bot> *,std::allocator<Goal<AbstRaven_Bot> *> > >::_List_const_iterator<std::_List_val<Goal<AbstRaven_Bot> *,std::allocator<Goal<AbstRaven_Bot> *> > >
	mov	eax, DWORD PTR $T142440[ebp]
	or	eax, 1
	mov	DWORD PTR $T142440[ebp], eax
	mov	eax, DWORD PTR ___$ReturnUdt$[ebp]

; 798  : 		}

	add	esp, 8
	cmp	ebp, esp
	call	__RTC_CheckEsp
	mov	esp, ebp
	pop	ebp
	ret	4
?end@?$list@PAV?$Goal@VAbstRaven_Bot@@@@V?$allocator@PAV?$Goal@VAbstRaven_Bot@@@@@std@@@std@@QBE?AV?$_List_const_iterator@V?$_List_val@PAV?$Goal@VAbstRaven_Bot@@@@V?$allocator@PAV?$Goal@VAbstRaven_Bot@@@@@std@@@std@@@2@XZ ENDP ; std::list<Goal<AbstRaven_Bot> *,std::allocator<Goal<AbstRaven_Bot> *> >::end
_TEXT	ENDS
PUBLIC	?_Incsize@?$list@PAV?$Goal@VAbstRaven_Bot@@@@V?$allocator@PAV?$Goal@VAbstRaven_Bot@@@@@std@@@std@@QAEXI@Z ; std::list<Goal<AbstRaven_Bot> *,std::allocator<Goal<AbstRaven_Bot> *> >::_Incsize
PUBLIC	?_Buynode@?$_List_val@PAV?$Goal@VAbstRaven_Bot@@@@V?$allocator@PAV?$Goal@VAbstRaven_Bot@@@@@std@@@std@@QAEPAU_Node@?$_List_nod@PAV?$Goal@VAbstRaven_Bot@@@@V?$allocator@PAV?$Goal@VAbstRaven_Bot@@@@@std@@@2@PAU342@0ABQAV?$Goal@VAbstRaven_Bot@@@@@Z ; std::_List_val<Goal<AbstRaven_Bot> *,std::allocator<Goal<AbstRaven_Bot> *> >::_Buynode
PUBLIC	?_Prevnode@?$_List_val@PAV?$Goal@VAbstRaven_Bot@@@@V?$allocator@PAV?$Goal@VAbstRaven_Bot@@@@@std@@@std@@SAAAPAU_Node@?$_List_nod@PAV?$Goal@VAbstRaven_Bot@@@@V?$allocator@PAV?$Goal@VAbstRaven_Bot@@@@@std@@@2@PAU342@@Z ; std::_List_val<Goal<AbstRaven_Bot> *,std::allocator<Goal<AbstRaven_Bot> *> >::_Prevnode
PUBLIC	?_Mynode@?$_List_unchecked_const_iterator@V?$_List_val@PAV?$Goal@VAbstRaven_Bot@@@@V?$allocator@PAV?$Goal@VAbstRaven_Bot@@@@@std@@@std@@U_Iterator_base12@2@@std@@QBEPAU_Node@?$_List_nod@PAV?$Goal@VAbstRaven_Bot@@@@V?$allocator@PAV?$Goal@VAbstRaven_Bot@@@@@std@@@2@XZ ; std::_List_unchecked_const_iterator<std::_List_val<Goal<AbstRaven_Bot> *,std::allocator<Goal<AbstRaven_Bot> *> >,std::_Iterator_base12>::_Mynode
PUBLIC	??_C@_1EG@BPNHNPIG@?$AAl?$AAi?$AAs?$AAt?$AA?5?$AAi?$AAn?$AAs?$AAe?$AAr?$AAt?$AA?5?$AAi?$AAt?$AAe?$AAr?$AAa?$AAt?$AAo?$AAr?$AA?5?$AAo?$AAu?$AAt?$AAs?$AAi?$AAd?$AAe?$AA?5?$AAr?$AAa?$AAn@ ; `string'
PUBLIC	??_C@_1II@KCMIDAEO@?$AAc?$AA?3?$AA?2?$AAP?$AAr?$AAo?$AAg?$AAr?$AAa?$AAm?$AA?5?$AAF?$AAi?$AAl?$AAe?$AAs?$AA?5?$AA?$CI?$AAx?$AA8?$AA6?$AA?$CJ?$AA?2?$AAM?$AAi?$AAc?$AAr?$AAo?$AAs?$AAo?$AAf?$AAt@ ; `string'
;	COMDAT ??_C@_1EG@BPNHNPIG@?$AAl?$AAi?$AAs?$AAt?$AA?5?$AAi?$AAn?$AAs?$AAe?$AAr?$AAt?$AA?5?$AAi?$AAt?$AAe?$AAr?$AAa?$AAt?$AAo?$AAr?$AA?5?$AAo?$AAu?$AAt?$AAs?$AAi?$AAd?$AAe?$AA?5?$AAr?$AAa?$AAn@
CONST	SEGMENT
??_C@_1EG@BPNHNPIG@?$AAl?$AAi?$AAs?$AAt?$AA?5?$AAi?$AAn?$AAs?$AAe?$AAr?$AAt?$AA?5?$AAi?$AAt?$AAe?$AAr?$AAa?$AAt?$AAo?$AAr?$AA?5?$AAo?$AAu?$AAt?$AAs?$AAi?$AAd?$AAe?$AA?5?$AAr?$AAa?$AAn@ DB 'l'
	DB	00H, 'i', 00H, 's', 00H, 't', 00H, ' ', 00H, 'i', 00H, 'n', 00H
	DB	's', 00H, 'e', 00H, 'r', 00H, 't', 00H, ' ', 00H, 'i', 00H, 't'
	DB	00H, 'e', 00H, 'r', 00H, 'a', 00H, 't', 00H, 'o', 00H, 'r', 00H
	DB	' ', 00H, 'o', 00H, 'u', 00H, 't', 00H, 's', 00H, 'i', 00H, 'd'
	DB	00H, 'e', 00H, ' ', 00H, 'r', 00H, 'a', 00H, 'n', 00H, 'g', 00H
	DB	'e', 00H, 00H, 00H				; `string'
CONST	ENDS
;	COMDAT ??_C@_1II@KCMIDAEO@?$AAc?$AA?3?$AA?2?$AAP?$AAr?$AAo?$AAg?$AAr?$AAa?$AAm?$AA?5?$AAF?$AAi?$AAl?$AAe?$AAs?$AA?5?$AA?$CI?$AAx?$AA8?$AA6?$AA?$CJ?$AA?2?$AAM?$AAi?$AAc?$AAr?$AAo?$AAs?$AAo?$AAf?$AAt@
CONST	SEGMENT
??_C@_1II@KCMIDAEO@?$AAc?$AA?3?$AA?2?$AAP?$AAr?$AAo?$AAg?$AAr?$AAa?$AAm?$AA?5?$AAF?$AAi?$AAl?$AAe?$AAs?$AA?5?$AA?$CI?$AAx?$AA8?$AA6?$AA?$CJ?$AA?2?$AAM?$AAi?$AAc?$AAr?$AAo?$AAs?$AAo?$AAf?$AAt@ DB 'c'
	DB	00H, ':', 00H, '\', 00H, 'P', 00H, 'r', 00H, 'o', 00H, 'g', 00H
	DB	'r', 00H, 'a', 00H, 'm', 00H, ' ', 00H, 'F', 00H, 'i', 00H, 'l'
	DB	00H, 'e', 00H, 's', 00H, ' ', 00H, '(', 00H, 'x', 00H, '8', 00H
	DB	'6', 00H, ')', 00H, '\', 00H, 'M', 00H, 'i', 00H, 'c', 00H, 'r'
	DB	00H, 'o', 00H, 's', 00H, 'o', 00H, 'f', 00H, 't', 00H, ' ', 00H
	DB	'V', 00H, 'i', 00H, 's', 00H, 'u', 00H, 'a', 00H, 'l', 00H, ' '
	DB	00H, 'S', 00H, 't', 00H, 'u', 00H, 'd', 00H, 'i', 00H, 'o', 00H
	DB	' ', 00H, '1', 00H, '0', 00H, '.', 00H, '0', 00H, '\', 00H, 'V'
	DB	00H, 'C', 00H, '\', 00H, 'i', 00H, 'n', 00H, 'c', 00H, 'l', 00H
	DB	'u', 00H, 'd', 00H, 'e', 00H, '\', 00H, 'l', 00H, 'i', 00H, 's'
	DB	00H, 't', 00H, 00H, 00H			; `string'
CONST	ENDS
;	COMDAT xdata$x
xdata$x	SEGMENT
__unwindtable$?_Insert@?$list@PAV?$Goal@VAbstRaven_Bot@@@@V?$allocator@PAV?$Goal@VAbstRaven_Bot@@@@@std@@@std@@QAEXV?$_List_const_iterator@V?$_List_val@PAV?$Goal@VAbstRaven_Bot@@@@V?$allocator@PAV?$Goal@VAbstRaven_Bot@@@@@std@@@std@@@2@ABQAV?$Goal@VAbstRaven_Bot@@@@@Z DD 0ffffffffH
	DD	FLAT:__unwindfunclet$?_Insert@?$list@PAV?$Goal@VAbstRaven_Bot@@@@V?$allocator@PAV?$Goal@VAbstRaven_Bot@@@@@std@@@std@@QAEXV?$_List_const_iterator@V?$_List_val@PAV?$Goal@VAbstRaven_Bot@@@@V?$allocator@PAV?$Goal@VAbstRaven_Bot@@@@@std@@@std@@@2@ABQAV?$Goal@VAbstRaven_Bot@@@@@Z$0
__ehfuncinfo$?_Insert@?$list@PAV?$Goal@VAbstRaven_Bot@@@@V?$allocator@PAV?$Goal@VAbstRaven_Bot@@@@@std@@@std@@QAEXV?$_List_const_iterator@V?$_List_val@PAV?$Goal@VAbstRaven_Bot@@@@V?$allocator@PAV?$Goal@VAbstRaven_Bot@@@@@std@@@std@@@2@ABQAV?$Goal@VAbstRaven_Bot@@@@@Z DD 019930522H
	DD	01H
	DD	FLAT:__unwindtable$?_Insert@?$list@PAV?$Goal@VAbstRaven_Bot@@@@V?$allocator@PAV?$Goal@VAbstRaven_Bot@@@@@std@@@std@@QAEXV?$_List_const_iterator@V?$_List_val@PAV?$Goal@VAbstRaven_Bot@@@@V?$allocator@PAV?$Goal@VAbstRaven_Bot@@@@@std@@@std@@@2@ABQAV?$Goal@VAbstRaven_Bot@@@@@Z
	DD	2 DUP(00H)
	DD	2 DUP(00H)
	DD	00H
	DD	01H
; Function compile flags: /Odtp /RTCsu
xdata$x	ENDS
;	COMDAT ?_Insert@?$list@PAV?$Goal@VAbstRaven_Bot@@@@V?$allocator@PAV?$Goal@VAbstRaven_Bot@@@@@std@@@std@@QAEXV?$_List_const_iterator@V?$_List_val@PAV?$Goal@VAbstRaven_Bot@@@@V?$allocator@PAV?$Goal@VAbstRaven_Bot@@@@@std@@@std@@@2@ABQAV?$Goal@VAbstRaven_Bot@@@@@Z
_TEXT	SEGMENT
__Newnode$ = -24					; size = 4
__Pnode$ = -20						; size = 4
_this$ = -16						; size = 4
__$EHRec$ = -12						; size = 12
__Where$ = 8						; size = 12
__Val$ = 20						; size = 4
?_Insert@?$list@PAV?$Goal@VAbstRaven_Bot@@@@V?$allocator@PAV?$Goal@VAbstRaven_Bot@@@@@std@@@std@@QAEXV?$_List_const_iterator@V?$_List_val@PAV?$Goal@VAbstRaven_Bot@@@@V?$allocator@PAV?$Goal@VAbstRaven_Bot@@@@@std@@@std@@@2@ABQAV?$Goal@VAbstRaven_Bot@@@@@Z PROC ; std::list<Goal<AbstRaven_Bot> *,std::allocator<Goal<AbstRaven_Bot> *> >::_Insert, COMDAT
; _this$ = ecx

; 967  : 		{	// insert _Val at _Where

	push	ebp
	mov	ebp, esp
	push	-1
	push	__ehhandler$?_Insert@?$list@PAV?$Goal@VAbstRaven_Bot@@@@V?$allocator@PAV?$Goal@VAbstRaven_Bot@@@@@std@@@std@@QAEXV?$_List_const_iterator@V?$_List_val@PAV?$Goal@VAbstRaven_Bot@@@@V?$allocator@PAV?$Goal@VAbstRaven_Bot@@@@@std@@@std@@@2@ABQAV?$Goal@VAbstRaven_Bot@@@@@Z
	mov	eax, DWORD PTR fs:0
	push	eax
	sub	esp, 12					; 0000000cH
	mov	DWORD PTR [ebp-24], -858993460		; ccccccccH
	mov	DWORD PTR [ebp-20], -858993460		; ccccccccH
	mov	DWORD PTR [ebp-16], -858993460		; ccccccccH
	mov	eax, DWORD PTR ___security_cookie
	xor	eax, ebp
	push	eax
	lea	eax, DWORD PTR __$EHRec$[ebp]
	mov	DWORD PTR fs:0, eax
	mov	DWORD PTR _this$[ebp], ecx
	mov	DWORD PTR __$EHRec$[ebp+8], 0

; 968  :  #if _ITERATOR_DEBUG_LEVEL == 2
; 969  : 		if (_Where._Getcont() != this)

	lea	ecx, DWORD PTR __Where$[ebp]
	call	?_Getcont@_Iterator_base12@std@@QBEPBU_Container_base12@2@XZ ; std::_Iterator_base12::_Getcont
	cmp	eax, DWORD PTR _this$[ebp]
	je	SHORT $LN1@Insert

; 970  : 			_DEBUG_ERROR("list insert iterator outside range");

	push	970					; 000003caH
	push	OFFSET ??_C@_1II@KCMIDAEO@?$AAc?$AA?3?$AA?2?$AAP?$AAr?$AAo?$AAg?$AAr?$AAa?$AAm?$AA?5?$AAF?$AAi?$AAl?$AAe?$AAs?$AA?5?$AA?$CI?$AAx?$AA8?$AA6?$AA?$CJ?$AA?2?$AAM?$AAi?$AAc?$AAr?$AAo?$AAs?$AAo?$AAf?$AAt@
	push	OFFSET ??_C@_1EG@BPNHNPIG@?$AAl?$AAi?$AAs?$AAt?$AA?5?$AAi?$AAn?$AAs?$AAe?$AAr?$AAt?$AA?5?$AAi?$AAt?$AAe?$AAr?$AAa?$AAt?$AAo?$AAr?$AA?5?$AAo?$AAu?$AAt?$AAs?$AAi?$AAd?$AAe?$AA?5?$AAr?$AAa?$AAn@
	call	?_Debug_message@std@@YAXPB_W0I@Z	; std::_Debug_message
	add	esp, 12					; 0000000cH
$LN1@Insert:

; 971  :  #endif /* _ITERATOR_DEBUG_LEVEL == 2 */
; 972  : 
; 973  : 		_Nodeptr _Pnode = _Where._Mynode();

	lea	ecx, DWORD PTR __Where$[ebp]
	call	?_Mynode@?$_List_unchecked_const_iterator@V?$_List_val@PAV?$Goal@VAbstRaven_Bot@@@@V?$allocator@PAV?$Goal@VAbstRaven_Bot@@@@@std@@@std@@U_Iterator_base12@2@@std@@QBEPAU_Node@?$_List_nod@PAV?$Goal@VAbstRaven_Bot@@@@V?$allocator@PAV?$Goal@VAbstRaven_Bot@@@@@std@@@2@XZ ; std::_List_unchecked_const_iterator<std::_List_val<Goal<AbstRaven_Bot> *,std::allocator<Goal<AbstRaven_Bot> *> >,std::_Iterator_base12>::_Mynode
	mov	DWORD PTR __Pnode$[ebp], eax

; 974  : 		_Nodeptr _Newnode =
; 975  : 			this->_Buynode(_Pnode, this->_Prevnode(_Pnode), _Val);

	mov	eax, DWORD PTR __Val$[ebp]
	push	eax
	mov	ecx, DWORD PTR __Pnode$[ebp]
	push	ecx
	call	?_Prevnode@?$_List_val@PAV?$Goal@VAbstRaven_Bot@@@@V?$allocator@PAV?$Goal@VAbstRaven_Bot@@@@@std@@@std@@SAAAPAU_Node@?$_List_nod@PAV?$Goal@VAbstRaven_Bot@@@@V?$allocator@PAV?$Goal@VAbstRaven_Bot@@@@@std@@@2@PAU342@@Z ; std::_List_val<Goal<AbstRaven_Bot> *,std::allocator<Goal<AbstRaven_Bot> *> >::_Prevnode
	add	esp, 4
	mov	edx, DWORD PTR [eax]
	push	edx
	mov	eax, DWORD PTR __Pnode$[ebp]
	push	eax
	mov	ecx, DWORD PTR _this$[ebp]
	call	?_Buynode@?$_List_val@PAV?$Goal@VAbstRaven_Bot@@@@V?$allocator@PAV?$Goal@VAbstRaven_Bot@@@@@std@@@std@@QAEPAU_Node@?$_List_nod@PAV?$Goal@VAbstRaven_Bot@@@@V?$allocator@PAV?$Goal@VAbstRaven_Bot@@@@@std@@@2@PAU342@0ABQAV?$Goal@VAbstRaven_Bot@@@@@Z ; std::_List_val<Goal<AbstRaven_Bot> *,std::allocator<Goal<AbstRaven_Bot> *> >::_Buynode
	mov	DWORD PTR __Newnode$[ebp], eax

; 976  : 		_Incsize(1);

	push	1
	mov	ecx, DWORD PTR _this$[ebp]
	call	?_Incsize@?$list@PAV?$Goal@VAbstRaven_Bot@@@@V?$allocator@PAV?$Goal@VAbstRaven_Bot@@@@@std@@@std@@QAEXI@Z ; std::list<Goal<AbstRaven_Bot> *,std::allocator<Goal<AbstRaven_Bot> *> >::_Incsize

; 977  : 		this->_Prevnode(_Pnode) = _Newnode;

	mov	ecx, DWORD PTR __Pnode$[ebp]
	push	ecx
	call	?_Prevnode@?$_List_val@PAV?$Goal@VAbstRaven_Bot@@@@V?$allocator@PAV?$Goal@VAbstRaven_Bot@@@@@std@@@std@@SAAAPAU_Node@?$_List_nod@PAV?$Goal@VAbstRaven_Bot@@@@V?$allocator@PAV?$Goal@VAbstRaven_Bot@@@@@std@@@2@PAU342@@Z ; std::_List_val<Goal<AbstRaven_Bot> *,std::allocator<Goal<AbstRaven_Bot> *> >::_Prevnode
	add	esp, 4
	mov	edx, DWORD PTR __Newnode$[ebp]
	mov	DWORD PTR [eax], edx

; 978  : 		this->_Nextnode(this->_Prevnode(_Newnode)) = _Newnode;

	mov	eax, DWORD PTR __Newnode$[ebp]
	push	eax
	call	?_Prevnode@?$_List_val@PAV?$Goal@VAbstRaven_Bot@@@@V?$allocator@PAV?$Goal@VAbstRaven_Bot@@@@@std@@@std@@SAAAPAU_Node@?$_List_nod@PAV?$Goal@VAbstRaven_Bot@@@@V?$allocator@PAV?$Goal@VAbstRaven_Bot@@@@@std@@@2@PAU342@@Z ; std::_List_val<Goal<AbstRaven_Bot> *,std::allocator<Goal<AbstRaven_Bot> *> >::_Prevnode
	add	esp, 4
	mov	ecx, DWORD PTR [eax]
	push	ecx
	call	?_Nextnode@?$_List_val@PAV?$Goal@VAbstRaven_Bot@@@@V?$allocator@PAV?$Goal@VAbstRaven_Bot@@@@@std@@@std@@SAAAPAU_Node@?$_List_nod@PAV?$Goal@VAbstRaven_Bot@@@@V?$allocator@PAV?$Goal@VAbstRaven_Bot@@@@@std@@@2@PAU342@@Z ; std::_List_val<Goal<AbstRaven_Bot> *,std::allocator<Goal<AbstRaven_Bot> *> >::_Nextnode
	add	esp, 4
	mov	edx, DWORD PTR __Newnode$[ebp]
	mov	DWORD PTR [eax], edx

; 979  : 		}

	mov	DWORD PTR __$EHRec$[ebp+8], -1
	lea	ecx, DWORD PTR __Where$[ebp]
	call	??1?$_List_const_iterator@V?$_List_val@PAV?$Goal@VAbstRaven_Bot@@@@V?$allocator@PAV?$Goal@VAbstRaven_Bot@@@@@std@@@std@@@std@@QAE@XZ
	mov	ecx, DWORD PTR __$EHRec$[ebp]
	mov	DWORD PTR fs:0, ecx
	pop	ecx
	add	esp, 24					; 00000018H
	cmp	ebp, esp
	call	__RTC_CheckEsp
	mov	esp, ebp
	pop	ebp
	ret	16					; 00000010H
_TEXT	ENDS
;	COMDAT text$x
text$x	SEGMENT
__unwindfunclet$?_Insert@?$list@PAV?$Goal@VAbstRaven_Bot@@@@V?$allocator@PAV?$Goal@VAbstRaven_Bot@@@@@std@@@std@@QAEXV?$_List_const_iterator@V?$_List_val@PAV?$Goal@VAbstRaven_Bot@@@@V?$allocator@PAV?$Goal@VAbstRaven_Bot@@@@@std@@@std@@@2@ABQAV?$Goal@VAbstRaven_Bot@@@@@Z$0:
	lea	ecx, DWORD PTR __Where$[ebp]
	jmp	??1?$_List_const_iterator@V?$_List_val@PAV?$Goal@VAbstRaven_Bot@@@@V?$allocator@PAV?$Goal@VAbstRaven_Bot@@@@@std@@@std@@@std@@QAE@XZ
__ehhandler$?_Insert@?$list@PAV?$Goal@VAbstRaven_Bot@@@@V?$allocator@PAV?$Goal@VAbstRaven_Bot@@@@@std@@@std@@QAEXV?$_List_const_iterator@V?$_List_val@PAV?$Goal@VAbstRaven_Bot@@@@V?$allocator@PAV?$Goal@VAbstRaven_Bot@@@@@std@@@std@@@2@ABQAV?$Goal@VAbstRaven_Bot@@@@@Z:
	mov	edx, DWORD PTR [esp+8]
	lea	eax, DWORD PTR [edx+12]
	mov	ecx, DWORD PTR [edx-16]
	xor	ecx, eax
	call	@__security_check_cookie@4
	mov	eax, OFFSET __ehfuncinfo$?_Insert@?$list@PAV?$Goal@VAbstRaven_Bot@@@@V?$allocator@PAV?$Goal@VAbstRaven_Bot@@@@@std@@@std@@QAEXV?$_List_const_iterator@V?$_List_val@PAV?$Goal@VAbstRaven_Bot@@@@V?$allocator@PAV?$Goal@VAbstRaven_Bot@@@@@std@@@std@@@2@ABQAV?$Goal@VAbstRaven_Bot@@@@@Z
	jmp	___CxxFrameHandler3
text$x	ENDS
?_Insert@?$list@PAV?$Goal@VAbstRaven_Bot@@@@V?$allocator@PAV?$Goal@VAbstRaven_Bot@@@@@std@@@std@@QAEXV?$_List_const_iterator@V?$_List_val@PAV?$Goal@VAbstRaven_Bot@@@@V?$allocator@PAV?$Goal@VAbstRaven_Bot@@@@@std@@@std@@@2@ABQAV?$Goal@VAbstRaven_Bot@@@@@Z ENDP ; std::list<Goal<AbstRaven_Bot> *,std::allocator<Goal<AbstRaven_Bot> *> >::_Insert
; Function compile flags: /Odtp /RTCsu
;	COMDAT ?_Prevnode@?$_List_val@PAV?$Goal@VAbstRaven_Bot@@@@V?$allocator@PAV?$Goal@VAbstRaven_Bot@@@@@std@@@std@@SAAAPAU_Node@?$_List_nod@PAV?$Goal@VAbstRaven_Bot@@@@V?$allocator@PAV?$Goal@VAbstRaven_Bot@@@@@std@@@2@PAU342@@Z
_TEXT	SEGMENT
__Pnode$ = 8						; size = 4
?_Prevnode@?$_List_val@PAV?$Goal@VAbstRaven_Bot@@@@V?$allocator@PAV?$Goal@VAbstRaven_Bot@@@@@std@@@std@@SAAAPAU_Node@?$_List_nod@PAV?$Goal@VAbstRaven_Bot@@@@V?$allocator@PAV?$Goal@VAbstRaven_Bot@@@@@std@@@2@PAU342@@Z PROC ; std::_List_val<Goal<AbstRaven_Bot> *,std::allocator<Goal<AbstRaven_Bot> *> >::_Prevnode, COMDAT

; 565  : 		{	// return reference to predecessor pointer in node

	push	ebp
	mov	ebp, esp

; 566  : 		return ((_Nodepref)(*_Pnode)._Prev);

	mov	eax, DWORD PTR __Pnode$[ebp]
	add	eax, 4

; 567  : 		}

	pop	ebp
	ret	0
?_Prevnode@?$_List_val@PAV?$Goal@VAbstRaven_Bot@@@@V?$allocator@PAV?$Goal@VAbstRaven_Bot@@@@@std@@@std@@SAAAPAU_Node@?$_List_nod@PAV?$Goal@VAbstRaven_Bot@@@@V?$allocator@PAV?$Goal@VAbstRaven_Bot@@@@@std@@@2@PAU342@@Z ENDP ; std::_List_val<Goal<AbstRaven_Bot> *,std::allocator<Goal<AbstRaven_Bot> *> >::_Prevnode
_TEXT	ENDS
PUBLIC	?_Myval@?$_List_val@PAV?$Goal@VAbstRaven_Bot@@@@V?$allocator@PAV?$Goal@VAbstRaven_Bot@@@@@std@@@std@@SAAAPAV?$Goal@VAbstRaven_Bot@@@@PAU_Node@?$_List_nod@PAV?$Goal@VAbstRaven_Bot@@@@V?$allocator@PAV?$Goal@VAbstRaven_Bot@@@@@std@@@2@@Z ; std::_List_val<Goal<AbstRaven_Bot> *,std::allocator<Goal<AbstRaven_Bot> *> >::_Myval
PUBLIC	??_C@_1BO@MEPPHOO@?$AA?$CC?$AAo?$AAu?$AAt?$AA?5?$AAo?$AAf?$AA?5?$AAr?$AAa?$AAn?$AAg?$AAe?$AA?$CC?$AA?$AA@ ; `string'
PUBLIC	??_C@_1BDC@BCBLFNGO@?$AAs?$AAt?$AAd?$AA?3?$AA?3?$AA_?$AAL?$AAi?$AAs?$AAt?$AA_?$AAc?$AAo?$AAn?$AAs?$AAt?$AA_?$AAi?$AAt?$AAe?$AAr?$AAa?$AAt?$AAo?$AAr?$AA?$DM?$AAc?$AAl?$AAa?$AAs?$AAs?$AA?5@ ; `string'
PUBLIC	??_C@_1FG@IBPIFFN@?$AA?$CC?$AAS?$AAt?$AAa?$AAn?$AAd?$AAa?$AAr?$AAd?$AA?5?$AAC?$AA?$CL?$AA?$CL?$AA?5?$AAL?$AAi?$AAb?$AAr?$AAa?$AAr?$AAi?$AAe?$AAs?$AA?5?$AAO?$AAu?$AAt?$AA?5?$AAo?$AAf?$AA?5?$AAR@ ; `string'
PUBLIC	??_C@_0CE@OFMIGAMM@Standard?5C?$CL?$CL?5Libraries?5Out?5of?5Ra@ ; `string'
PUBLIC	??_C@_1EC@HILJLMMC@?$AAl?$AAi?$AAs?$AAt?$AA?5?$AAi?$AAt?$AAe?$AAr?$AAa?$AAt?$AAo?$AAr?$AA?5?$AAn?$AAo?$AAt?$AA?5?$AAd?$AAe?$AAr?$AAe?$AAf?$AAe?$AAr?$AAe?$AAn?$AAc?$AAa?$AAb?$AAl?$AAe@ ; `string'
;	COMDAT ??_C@_1BO@MEPPHOO@?$AA?$CC?$AAo?$AAu?$AAt?$AA?5?$AAo?$AAf?$AA?5?$AAr?$AAa?$AAn?$AAg?$AAe?$AA?$CC?$AA?$AA@
CONST	SEGMENT
??_C@_1BO@MEPPHOO@?$AA?$CC?$AAo?$AAu?$AAt?$AA?5?$AAo?$AAf?$AA?5?$AAr?$AAa?$AAn?$AAg?$AAe?$AA?$CC?$AA?$AA@ DB '"'
	DB	00H, 'o', 00H, 'u', 00H, 't', 00H, ' ', 00H, 'o', 00H, 'f', 00H
	DB	' ', 00H, 'r', 00H, 'a', 00H, 'n', 00H, 'g', 00H, 'e', 00H, '"'
	DB	00H, 00H, 00H				; `string'
CONST	ENDS
;	COMDAT ??_C@_1BDC@BCBLFNGO@?$AAs?$AAt?$AAd?$AA?3?$AA?3?$AA_?$AAL?$AAi?$AAs?$AAt?$AA_?$AAc?$AAo?$AAn?$AAs?$AAt?$AA_?$AAi?$AAt?$AAe?$AAr?$AAa?$AAt?$AAo?$AAr?$AA?$DM?$AAc?$AAl?$AAa?$AAs?$AAs?$AA?5@
CONST	SEGMENT
??_C@_1BDC@BCBLFNGO@?$AAs?$AAt?$AAd?$AA?3?$AA?3?$AA_?$AAL?$AAi?$AAs?$AAt?$AA_?$AAc?$AAo?$AAn?$AAs?$AAt?$AA_?$AAi?$AAt?$AAe?$AAr?$AAa?$AAt?$AAo?$AAr?$AA?$DM?$AAc?$AAl?$AAa?$AAs?$AAs?$AA?5@ DB 's'
	DB	00H, 't', 00H, 'd', 00H, ':', 00H, ':', 00H, '_', 00H, 'L', 00H
	DB	'i', 00H, 's', 00H, 't', 00H, '_', 00H, 'c', 00H, 'o', 00H, 'n'
	DB	00H, 's', 00H, 't', 00H, '_', 00H, 'i', 00H, 't', 00H, 'e', 00H
	DB	'r', 00H, 'a', 00H, 't', 00H, 'o', 00H, 'r', 00H, '<', 00H, 'c'
	DB	00H, 'l', 00H, 'a', 00H, 's', 00H, 's', 00H, ' ', 00H, 's', 00H
	DB	't', 00H, 'd', 00H, ':', 00H, ':', 00H, '_', 00H, 'L', 00H, 'i'
	DB	00H, 's', 00H, 't', 00H, '_', 00H, 'v', 00H, 'a', 00H, 'l', 00H
	DB	'<', 00H, 'c', 00H, 'l', 00H, 'a', 00H, 's', 00H, 's', 00H, ' '
	DB	00H, 'G', 00H, 'o', 00H, 'a', 00H, 'l', 00H, '<', 00H, 'c', 00H
	DB	'l', 00H, 'a', 00H, 's', 00H, 's', 00H, ' ', 00H, 'A', 00H, 'b'
	DB	00H, 's', 00H, 't', 00H, 'R', 00H, 'a', 00H, 'v', 00H, 'e', 00H
	DB	'n', 00H, '_', 00H, 'B', 00H, 'o', 00H, 't', 00H, '>', 00H, ' '
	DB	00H, '*', 00H, ',', 00H, 'c', 00H, 'l', 00H, 'a', 00H, 's', 00H
	DB	's', 00H, ' ', 00H, 's', 00H, 't', 00H, 'd', 00H, ':', 00H, ':'
	DB	00H, 'a', 00H, 'l', 00H, 'l', 00H, 'o', 00H, 'c', 00H, 'a', 00H
	DB	't', 00H, 'o', 00H, 'r', 00H, '<', 00H, 'c', 00H, 'l', 00H, 'a'
	DB	00H, 's', 00H, 's', 00H, ' ', 00H, 'G', 00H, 'o', 00H, 'a', 00H
	DB	'l', 00H, '<', 00H, 'c', 00H, 'l', 00H, 'a', 00H, 's', 00H, 's'
	DB	00H, ' ', 00H, 'A', 00H, 'b', 00H, 's', 00H, 't', 00H, 'R', 00H
	DB	'a', 00H, 'v', 00H, 'e', 00H, 'n', 00H, '_', 00H, 'B', 00H, 'o'
	DB	00H, 't', 00H, '>', 00H, ' ', 00H, '*', 00H, '>', 00H, ' ', 00H
	DB	'>', 00H, ' ', 00H, '>', 00H, ':', 00H, ':', 00H, 'o', 00H, 'p'
	DB	00H, 'e', 00H, 'r', 00H, 'a', 00H, 't', 00H, 'o', 00H, 'r', 00H
	DB	' ', 00H, '*', 00H, 00H, 00H			; `string'
CONST	ENDS
;	COMDAT ??_C@_1FG@IBPIFFN@?$AA?$CC?$AAS?$AAt?$AAa?$AAn?$AAd?$AAa?$AAr?$AAd?$AA?5?$AAC?$AA?$CL?$AA?$CL?$AA?5?$AAL?$AAi?$AAb?$AAr?$AAa?$AAr?$AAi?$AAe?$AAs?$AA?5?$AAO?$AAu?$AAt?$AA?5?$AAo?$AAf?$AA?5?$AAR@
CONST	SEGMENT
??_C@_1FG@IBPIFFN@?$AA?$CC?$AAS?$AAt?$AAa?$AAn?$AAd?$AAa?$AAr?$AAd?$AA?5?$AAC?$AA?$CL?$AA?$CL?$AA?5?$AAL?$AAi?$AAb?$AAr?$AAa?$AAr?$AAi?$AAe?$AAs?$AA?5?$AAO?$AAu?$AAt?$AA?5?$AAo?$AAf?$AA?5?$AAR@ DB '"'
	DB	00H, 'S', 00H, 't', 00H, 'a', 00H, 'n', 00H, 'd', 00H, 'a', 00H
	DB	'r', 00H, 'd', 00H, ' ', 00H, 'C', 00H, '+', 00H, '+', 00H, ' '
	DB	00H, 'L', 00H, 'i', 00H, 'b', 00H, 'r', 00H, 'a', 00H, 'r', 00H
	DB	'i', 00H, 'e', 00H, 's', 00H, ' ', 00H, 'O', 00H, 'u', 00H, 't'
	DB	00H, ' ', 00H, 'o', 00H, 'f', 00H, ' ', 00H, 'R', 00H, 'a', 00H
	DB	'n', 00H, 'g', 00H, 'e', 00H, '"', 00H, ' ', 00H, '&', 00H, '&'
	DB	00H, ' ', 00H, '0', 00H, 00H, 00H		; `string'
CONST	ENDS
;	COMDAT ??_C@_0CE@OFMIGAMM@Standard?5C?$CL?$CL?5Libraries?5Out?5of?5Ra@
CONST	SEGMENT
??_C@_0CE@OFMIGAMM@Standard?5C?$CL?$CL?5Libraries?5Out?5of?5Ra@ DB 'Stand'
	DB	'ard C++ Libraries Out of Range', 00H	; `string'
CONST	ENDS
;	COMDAT ??_C@_1EC@HILJLMMC@?$AAl?$AAi?$AAs?$AAt?$AA?5?$AAi?$AAt?$AAe?$AAr?$AAa?$AAt?$AAo?$AAr?$AA?5?$AAn?$AAo?$AAt?$AA?5?$AAd?$AAe?$AAr?$AAe?$AAf?$AAe?$AAr?$AAe?$AAn?$AAc?$AAa?$AAb?$AAl?$AAe@
CONST	SEGMENT
??_C@_1EC@HILJLMMC@?$AAl?$AAi?$AAs?$AAt?$AA?5?$AAi?$AAt?$AAe?$AAr?$AAa?$AAt?$AAo?$AAr?$AA?5?$AAn?$AAo?$AAt?$AA?5?$AAd?$AAe?$AAr?$AAe?$AAf?$AAe?$AAr?$AAe?$AAn?$AAc?$AAa?$AAb?$AAl?$AAe@ DB 'l'
	DB	00H, 'i', 00H, 's', 00H, 't', 00H, ' ', 00H, 'i', 00H, 't', 00H
	DB	'e', 00H, 'r', 00H, 'a', 00H, 't', 00H, 'o', 00H, 'r', 00H, ' '
	DB	00H, 'n', 00H, 'o', 00H, 't', 00H, ' ', 00H, 'd', 00H, 'e', 00H
	DB	'r', 00H, 'e', 00H, 'f', 00H, 'e', 00H, 'r', 00H, 'e', 00H, 'n'
	DB	00H, 'c', 00H, 'a', 00H, 'b', 00H, 'l', 00H, 'e', 00H, 00H, 00H ; `string'
; Function compile flags: /Odtp /RTCsu
CONST	ENDS
;	COMDAT ??D?$_List_const_iterator@V?$_List_val@PAV?$Goal@VAbstRaven_Bot@@@@V?$allocator@PAV?$Goal@VAbstRaven_Bot@@@@@std@@@std@@@std@@QBEABQAV?$Goal@VAbstRaven_Bot@@@@XZ
_TEXT	SEGMENT
_this$ = -4						; size = 4
??D?$_List_const_iterator@V?$_List_val@PAV?$Goal@VAbstRaven_Bot@@@@V?$allocator@PAV?$Goal@VAbstRaven_Bot@@@@@std@@@std@@@std@@QBEABQAV?$Goal@VAbstRaven_Bot@@@@XZ PROC ; std::_List_const_iterator<std::_List_val<Goal<AbstRaven_Bot> *,std::allocator<Goal<AbstRaven_Bot> *> > >::operator*, COMDAT
; _this$ = ecx

; 201  : 		{	// return designated value

	push	ebp
	mov	ebp, esp
	push	ecx
	mov	DWORD PTR [ebp-4], -858993460		; ccccccccH
	mov	DWORD PTR _this$[ebp], ecx

; 202  :  #if _ITERATOR_DEBUG_LEVEL == 2
; 203  : 		if (this->_Getcont() == 0
; 204  : 			|| this->_Ptr == 0
; 205  : 			|| this->_Ptr == ((_Mylist *)this->_Getcont())->_Myhead)

	mov	ecx, DWORD PTR _this$[ebp]
	call	?_Getcont@_Iterator_base12@std@@QBEPBU_Container_base12@2@XZ ; std::_Iterator_base12::_Getcont
	test	eax, eax
	je	SHORT $LN1@operator@4
	mov	eax, DWORD PTR _this$[ebp]
	cmp	DWORD PTR [eax+8], 0
	je	SHORT $LN1@operator@4
	mov	ecx, DWORD PTR _this$[ebp]
	call	?_Getcont@_Iterator_base12@std@@QBEPBU_Container_base12@2@XZ ; std::_Iterator_base12::_Getcont
	mov	ecx, DWORD PTR _this$[ebp]
	mov	edx, DWORD PTR [ecx+8]
	cmp	edx, DWORD PTR [eax+4]
	jne	SHORT $LN2@operator@4
$LN1@operator@4:

; 206  : 			{	// report error
; 207  : 			_DEBUG_ERROR("list iterator not dereferencable");

	push	207					; 000000cfH
	push	OFFSET ??_C@_1II@KCMIDAEO@?$AAc?$AA?3?$AA?2?$AAP?$AAr?$AAo?$AAg?$AAr?$AAa?$AAm?$AA?5?$AAF?$AAi?$AAl?$AAe?$AAs?$AA?5?$AA?$CI?$AAx?$AA8?$AA6?$AA?$CJ?$AA?2?$AAM?$AAi?$AAc?$AAr?$AAo?$AAs?$AAo?$AAf?$AAt@
	push	OFFSET ??_C@_1EC@HILJLMMC@?$AAl?$AAi?$AAs?$AAt?$AA?5?$AAi?$AAt?$AAe?$AAr?$AAa?$AAt?$AAo?$AAr?$AA?5?$AAn?$AAo?$AAt?$AA?5?$AAd?$AAe?$AAr?$AAe?$AAf?$AAe?$AAr?$AAe?$AAn?$AAc?$AAa?$AAb?$AAl?$AAe@
	call	?_Debug_message@std@@YAXPB_W0I@Z	; std::_Debug_message
	add	esp, 12					; 0000000cH

; 208  : 			_SCL_SECURE_OUT_OF_RANGE;

	mov	eax, OFFSET ??_C@_0CE@OFMIGAMM@Standard?5C?$CL?$CL?5Libraries?5Out?5of?5Ra@
	test	eax, eax
	je	SHORT $LN5@operator@4
	xor	ecx, ecx
	jne	SHORT $LN6@operator@4
$LN5@operator@4:
	push	OFFSET ??_C@_1FG@IBPIFFN@?$AA?$CC?$AAS?$AAt?$AAa?$AAn?$AAd?$AAa?$AAr?$AAd?$AA?5?$AAC?$AA?$CL?$AA?$CL?$AA?5?$AAL?$AAi?$AAb?$AAr?$AAa?$AAr?$AAi?$AAe?$AAs?$AA?5?$AAO?$AAu?$AAt?$AA?5?$AAo?$AAf?$AA?5?$AAR@
	push	0
	push	208					; 000000d0H
	push	OFFSET ??_C@_1II@KCMIDAEO@?$AAc?$AA?3?$AA?2?$AAP?$AAr?$AAo?$AAg?$AAr?$AAa?$AAm?$AA?5?$AAF?$AAi?$AAl?$AAe?$AAs?$AA?5?$AA?$CI?$AAx?$AA8?$AA6?$AA?$CJ?$AA?2?$AAM?$AAi?$AAc?$AAr?$AAo?$AAs?$AAo?$AAf?$AAt@
	push	2
	call	__CrtDbgReportW
	add	esp, 20					; 00000014H
	cmp	eax, 1
	jne	SHORT $LN6@operator@4
	int	3
$LN6@operator@4:
	push	0
	push	208					; 000000d0H
	push	OFFSET ??_C@_1II@KCMIDAEO@?$AAc?$AA?3?$AA?2?$AAP?$AAr?$AAo?$AAg?$AAr?$AAa?$AAm?$AA?5?$AAF?$AAi?$AAl?$AAe?$AAs?$AA?5?$AA?$CI?$AAx?$AA8?$AA6?$AA?$CJ?$AA?2?$AAM?$AAi?$AAc?$AAr?$AAo?$AAs?$AAo?$AAf?$AAt@
	push	OFFSET ??_C@_1BDC@BCBLFNGO@?$AAs?$AAt?$AAd?$AA?3?$AA?3?$AA_?$AAL?$AAi?$AAs?$AAt?$AA_?$AAc?$AAo?$AAn?$AAs?$AAt?$AA_?$AAi?$AAt?$AAe?$AAr?$AAa?$AAt?$AAo?$AAr?$AA?$DM?$AAc?$AAl?$AAa?$AAs?$AAs?$AA?5@
	push	OFFSET ??_C@_1BO@MEPPHOO@?$AA?$CC?$AAo?$AAu?$AAt?$AA?5?$AAo?$AAf?$AA?5?$AAr?$AAa?$AAn?$AAg?$AAe?$AA?$CC?$AA?$AA@
	call	__invalid_parameter
	add	esp, 20					; 00000014H
$LN2@operator@4:

; 209  : 			}
; 210  : 
; 211  :  #elif _ITERATOR_DEBUG_LEVEL == 1
; 212  : 		_SCL_SECURE_VALIDATE(this->_Getcont() != 0 && this->_Ptr != 0);
; 213  : 		_SCL_SECURE_VALIDATE_RANGE(this->_Ptr !=
; 214  : 			((_Mylist *)this->_Getcont())->_Myhead);
; 215  :  #endif /* _ITERATOR_DEBUG_LEVEL */
; 216  : 
; 217  : 		return (_Mylist::_Myval(this->_Ptr));

	mov	eax, DWORD PTR _this$[ebp]
	mov	ecx, DWORD PTR [eax+8]
	push	ecx
	call	?_Myval@?$_List_val@PAV?$Goal@VAbstRaven_Bot@@@@V?$allocator@PAV?$Goal@VAbstRaven_Bot@@@@@std@@@std@@SAAAPAV?$Goal@VAbstRaven_Bot@@@@PAU_Node@?$_List_nod@PAV?$Goal@VAbstRaven_Bot@@@@V?$allocator@PAV?$Goal@VAbstRaven_Bot@@@@@std@@@2@@Z ; std::_List_val<Goal<AbstRaven_Bot> *,std::allocator<Goal<AbstRaven_Bot> *> >::_Myval
	add	esp, 4

; 218  : 		}

	add	esp, 4
	cmp	ebp, esp
	call	__RTC_CheckEsp
	mov	esp, ebp
	pop	ebp
	ret	0
??D?$_List_const_iterator@V?$_List_val@PAV?$Goal@VAbstRaven_Bot@@@@V?$allocator@PAV?$Goal@VAbstRaven_Bot@@@@@std@@@std@@@std@@QBEABQAV?$Goal@VAbstRaven_Bot@@@@XZ ENDP ; std::_List_const_iterator<std::_List_val<Goal<AbstRaven_Bot> *,std::allocator<Goal<AbstRaven_Bot> *> > >::operator*
_TEXT	ENDS
PUBLIC	??_C@_1BDE@KBPJDOCA@?$AAs?$AAt?$AAd?$AA?3?$AA?3?$AA_?$AAL?$AAi?$AAs?$AAt?$AA_?$AAc?$AAo?$AAn?$AAs?$AAt?$AA_?$AAi?$AAt?$AAe?$AAr?$AAa?$AAt?$AAo?$AAr?$AA?$DM?$AAc?$AAl?$AAa?$AAs?$AAs?$AA?5@ ; `string'
PUBLIC	??_C@_1EA@JDNDELPC@?$AAl?$AAi?$AAs?$AAt?$AA?5?$AAi?$AAt?$AAe?$AAr?$AAa?$AAt?$AAo?$AAr?$AA?5?$AAn?$AAo?$AAt?$AA?5?$AAd?$AAe?$AAc?$AAr?$AAe?$AAm?$AAe?$AAn?$AAt?$AAa?$AAb?$AAl?$AAe?$AA?$AA@ ; `string'
;	COMDAT ??_C@_1BDE@KBPJDOCA@?$AAs?$AAt?$AAd?$AA?3?$AA?3?$AA_?$AAL?$AAi?$AAs?$AAt?$AA_?$AAc?$AAo?$AAn?$AAs?$AAt?$AA_?$AAi?$AAt?$AAe?$AAr?$AAa?$AAt?$AAo?$AAr?$AA?$DM?$AAc?$AAl?$AAa?$AAs?$AAs?$AA?5@
CONST	SEGMENT
??_C@_1BDE@KBPJDOCA@?$AAs?$AAt?$AAd?$AA?3?$AA?3?$AA_?$AAL?$AAi?$AAs?$AAt?$AA_?$AAc?$AAo?$AAn?$AAs?$AAt?$AA_?$AAi?$AAt?$AAe?$AAr?$AAa?$AAt?$AAo?$AAr?$AA?$DM?$AAc?$AAl?$AAa?$AAs?$AAs?$AA?5@ DB 's'
	DB	00H, 't', 00H, 'd', 00H, ':', 00H, ':', 00H, '_', 00H, 'L', 00H
	DB	'i', 00H, 's', 00H, 't', 00H, '_', 00H, 'c', 00H, 'o', 00H, 'n'
	DB	00H, 's', 00H, 't', 00H, '_', 00H, 'i', 00H, 't', 00H, 'e', 00H
	DB	'r', 00H, 'a', 00H, 't', 00H, 'o', 00H, 'r', 00H, '<', 00H, 'c'
	DB	00H, 'l', 00H, 'a', 00H, 's', 00H, 's', 00H, ' ', 00H, 's', 00H
	DB	't', 00H, 'd', 00H, ':', 00H, ':', 00H, '_', 00H, 'L', 00H, 'i'
	DB	00H, 's', 00H, 't', 00H, '_', 00H, 'v', 00H, 'a', 00H, 'l', 00H
	DB	'<', 00H, 'c', 00H, 'l', 00H, 'a', 00H, 's', 00H, 's', 00H, ' '
	DB	00H, 'G', 00H, 'o', 00H, 'a', 00H, 'l', 00H, '<', 00H, 'c', 00H
	DB	'l', 00H, 'a', 00H, 's', 00H, 's', 00H, ' ', 00H, 'A', 00H, 'b'
	DB	00H, 's', 00H, 't', 00H, 'R', 00H, 'a', 00H, 'v', 00H, 'e', 00H
	DB	'n', 00H, '_', 00H, 'B', 00H, 'o', 00H, 't', 00H, '>', 00H, ' '
	DB	00H, '*', 00H, ',', 00H, 'c', 00H, 'l', 00H, 'a', 00H, 's', 00H
	DB	's', 00H, ' ', 00H, 's', 00H, 't', 00H, 'd', 00H, ':', 00H, ':'
	DB	00H, 'a', 00H, 'l', 00H, 'l', 00H, 'o', 00H, 'c', 00H, 'a', 00H
	DB	't', 00H, 'o', 00H, 'r', 00H, '<', 00H, 'c', 00H, 'l', 00H, 'a'
	DB	00H, 's', 00H, 's', 00H, ' ', 00H, 'G', 00H, 'o', 00H, 'a', 00H
	DB	'l', 00H, '<', 00H, 'c', 00H, 'l', 00H, 'a', 00H, 's', 00H, 's'
	DB	00H, ' ', 00H, 'A', 00H, 'b', 00H, 's', 00H, 't', 00H, 'R', 00H
	DB	'a', 00H, 'v', 00H, 'e', 00H, 'n', 00H, '_', 00H, 'B', 00H, 'o'
	DB	00H, 't', 00H, '>', 00H, ' ', 00H, '*', 00H, '>', 00H, ' ', 00H
	DB	'>', 00H, ' ', 00H, '>', 00H, ':', 00H, ':', 00H, 'o', 00H, 'p'
	DB	00H, 'e', 00H, 'r', 00H, 'a', 00H, 't', 00H, 'o', 00H, 'r', 00H
	DB	' ', 00H, '-', 00H, '-', 00H, 00H, 00H	; `string'
CONST	ENDS
;	COMDAT ??_C@_1EA@JDNDELPC@?$AAl?$AAi?$AAs?$AAt?$AA?5?$AAi?$AAt?$AAe?$AAr?$AAa?$AAt?$AAo?$AAr?$AA?5?$AAn?$AAo?$AAt?$AA?5?$AAd?$AAe?$AAc?$AAr?$AAe?$AAm?$AAe?$AAn?$AAt?$AAa?$AAb?$AAl?$AAe?$AA?$AA@
CONST	SEGMENT
??_C@_1EA@JDNDELPC@?$AAl?$AAi?$AAs?$AAt?$AA?5?$AAi?$AAt?$AAe?$AAr?$AAa?$AAt?$AAo?$AAr?$AA?5?$AAn?$AAo?$AAt?$AA?5?$AAd?$AAe?$AAc?$AAr?$AAe?$AAm?$AAe?$AAn?$AAt?$AAa?$AAb?$AAl?$AAe?$AA?$AA@ DB 'l'
	DB	00H, 'i', 00H, 's', 00H, 't', 00H, ' ', 00H, 'i', 00H, 't', 00H
	DB	'e', 00H, 'r', 00H, 'a', 00H, 't', 00H, 'o', 00H, 'r', 00H, ' '
	DB	00H, 'n', 00H, 'o', 00H, 't', 00H, ' ', 00H, 'd', 00H, 'e', 00H
	DB	'c', 00H, 'r', 00H, 'e', 00H, 'm', 00H, 'e', 00H, 'n', 00H, 't'
	DB	00H, 'a', 00H, 'b', 00H, 'l', 00H, 'e', 00H, 00H, 00H ; `string'
; Function compile flags: /Odtp /RTCsu
CONST	ENDS
;	COMDAT ??F?$_List_const_iterator@V?$_List_val@PAV?$Goal@VAbstRaven_Bot@@@@V?$allocator@PAV?$Goal@VAbstRaven_Bot@@@@@std@@@std@@@std@@QAEAAV01@XZ
_TEXT	SEGMENT
_this$ = -4						; size = 4
??F?$_List_const_iterator@V?$_List_val@PAV?$Goal@VAbstRaven_Bot@@@@V?$allocator@PAV?$Goal@VAbstRaven_Bot@@@@@std@@@std@@@std@@QAEAAV01@XZ PROC ; std::_List_const_iterator<std::_List_val<Goal<AbstRaven_Bot> *,std::allocator<Goal<AbstRaven_Bot> *> > >::operator--, COMDAT
; _this$ = ecx

; 249  : 		{	// predecrement

	push	ebp
	mov	ebp, esp
	push	ecx
	mov	DWORD PTR [ebp-4], -858993460		; ccccccccH
	mov	DWORD PTR _this$[ebp], ecx

; 250  :  #if _ITERATOR_DEBUG_LEVEL == 2
; 251  : 		if (this->_Getcont() == 0
; 252  : 			|| this->_Ptr == 0
; 253  : 			|| (this->_Ptr = _Mylist::_Prevnode(this->_Ptr))
; 254  : 				== ((_Mylist *)this->_Getcont())->_Myhead)

	mov	ecx, DWORD PTR _this$[ebp]
	call	?_Getcont@_Iterator_base12@std@@QBEPBU_Container_base12@2@XZ ; std::_Iterator_base12::_Getcont
	test	eax, eax
	je	SHORT $LN1@operator@5
	mov	eax, DWORD PTR _this$[ebp]
	cmp	DWORD PTR [eax+8], 0
	je	SHORT $LN1@operator@5
	mov	ecx, DWORD PTR _this$[ebp]
	mov	edx, DWORD PTR [ecx+8]
	push	edx
	call	?_Prevnode@?$_List_val@PAV?$Goal@VAbstRaven_Bot@@@@V?$allocator@PAV?$Goal@VAbstRaven_Bot@@@@@std@@@std@@SAAAPAU_Node@?$_List_nod@PAV?$Goal@VAbstRaven_Bot@@@@V?$allocator@PAV?$Goal@VAbstRaven_Bot@@@@@std@@@2@PAU342@@Z ; std::_List_val<Goal<AbstRaven_Bot> *,std::allocator<Goal<AbstRaven_Bot> *> >::_Prevnode
	add	esp, 4
	mov	ecx, DWORD PTR _this$[ebp]
	mov	edx, DWORD PTR [eax]
	mov	DWORD PTR [ecx+8], edx
	mov	ecx, DWORD PTR _this$[ebp]
	call	?_Getcont@_Iterator_base12@std@@QBEPBU_Container_base12@2@XZ ; std::_Iterator_base12::_Getcont
	mov	ecx, DWORD PTR _this$[ebp]
	mov	edx, DWORD PTR [ecx+8]
	cmp	edx, DWORD PTR [eax+4]
	jne	SHORT $LN2@operator@5
$LN1@operator@5:

; 255  : 			{	// report error
; 256  : 			_DEBUG_ERROR("list iterator not decrementable");

	push	256					; 00000100H
	push	OFFSET ??_C@_1II@KCMIDAEO@?$AAc?$AA?3?$AA?2?$AAP?$AAr?$AAo?$AAg?$AAr?$AAa?$AAm?$AA?5?$AAF?$AAi?$AAl?$AAe?$AAs?$AA?5?$AA?$CI?$AAx?$AA8?$AA6?$AA?$CJ?$AA?2?$AAM?$AAi?$AAc?$AAr?$AAo?$AAs?$AAo?$AAf?$AAt@
	push	OFFSET ??_C@_1EA@JDNDELPC@?$AAl?$AAi?$AAs?$AAt?$AA?5?$AAi?$AAt?$AAe?$AAr?$AAa?$AAt?$AAo?$AAr?$AA?5?$AAn?$AAo?$AAt?$AA?5?$AAd?$AAe?$AAc?$AAr?$AAe?$AAm?$AAe?$AAn?$AAt?$AAa?$AAb?$AAl?$AAe?$AA?$AA@
	call	?_Debug_message@std@@YAXPB_W0I@Z	; std::_Debug_message
	add	esp, 12					; 0000000cH

; 257  : 			_SCL_SECURE_OUT_OF_RANGE;

	mov	eax, OFFSET ??_C@_0CE@OFMIGAMM@Standard?5C?$CL?$CL?5Libraries?5Out?5of?5Ra@
	test	eax, eax
	je	SHORT $LN5@operator@5
	xor	ecx, ecx
	jne	SHORT $LN6@operator@5
$LN5@operator@5:
	push	OFFSET ??_C@_1FG@IBPIFFN@?$AA?$CC?$AAS?$AAt?$AAa?$AAn?$AAd?$AAa?$AAr?$AAd?$AA?5?$AAC?$AA?$CL?$AA?$CL?$AA?5?$AAL?$AAi?$AAb?$AAr?$AAa?$AAr?$AAi?$AAe?$AAs?$AA?5?$AAO?$AAu?$AAt?$AA?5?$AAo?$AAf?$AA?5?$AAR@
	push	0
	push	257					; 00000101H
	push	OFFSET ??_C@_1II@KCMIDAEO@?$AAc?$AA?3?$AA?2?$AAP?$AAr?$AAo?$AAg?$AAr?$AAa?$AAm?$AA?5?$AAF?$AAi?$AAl?$AAe?$AAs?$AA?5?$AA?$CI?$AAx?$AA8?$AA6?$AA?$CJ?$AA?2?$AAM?$AAi?$AAc?$AAr?$AAo?$AAs?$AAo?$AAf?$AAt@
	push	2
	call	__CrtDbgReportW
	add	esp, 20					; 00000014H
	cmp	eax, 1
	jne	SHORT $LN6@operator@5
	int	3
$LN6@operator@5:
	push	0
	push	257					; 00000101H
	push	OFFSET ??_C@_1II@KCMIDAEO@?$AAc?$AA?3?$AA?2?$AAP?$AAr?$AAo?$AAg?$AAr?$AAa?$AAm?$AA?5?$AAF?$AAi?$AAl?$AAe?$AAs?$AA?5?$AA?$CI?$AAx?$AA8?$AA6?$AA?$CJ?$AA?2?$AAM?$AAi?$AAc?$AAr?$AAo?$AAs?$AAo?$AAf?$AAt@
	push	OFFSET ??_C@_1BDE@KBPJDOCA@?$AAs?$AAt?$AAd?$AA?3?$AA?3?$AA_?$AAL?$AAi?$AAs?$AAt?$AA_?$AAc?$AAo?$AAn?$AAs?$AAt?$AA_?$AAi?$AAt?$AAe?$AAr?$AAa?$AAt?$AAo?$AAr?$AA?$DM?$AAc?$AAl?$AAa?$AAs?$AAs?$AA?5@
	push	OFFSET ??_C@_1BO@MEPPHOO@?$AA?$CC?$AAo?$AAu?$AAt?$AA?5?$AAo?$AAf?$AA?5?$AAr?$AAa?$AAn?$AAg?$AAe?$AA?$CC?$AA?$AA@
	call	__invalid_parameter
	add	esp, 20					; 00000014H
$LN2@operator@5:

; 258  : 			}
; 259  : 
; 260  :  #elif _ITERATOR_DEBUG_LEVEL == 1
; 261  : 		_SCL_SECURE_VALIDATE(this->_Getcont() != 0 && this->_Ptr != 0);
; 262  : 		this->_Ptr = _Mylist::_Prevnode(this->_Ptr);
; 263  : 		_SCL_SECURE_VALIDATE_RANGE(this->_Ptr !=
; 264  : 			((_Mylist *)this->_Getcont())->_Myhead);
; 265  : 
; 266  :  #else /* _ITERATOR_DEBUG_LEVEL */
; 267  : 		this->_Ptr = _Mylist::_Prevnode(this->_Ptr);
; 268  :  #endif /* _ITERATOR_DEBUG_LEVEL */
; 269  : 
; 270  : 		return (*this);

	mov	eax, DWORD PTR _this$[ebp]

; 271  : 		}

	add	esp, 4
	cmp	ebp, esp
	call	__RTC_CheckEsp
	mov	esp, ebp
	pop	ebp
	ret	0
??F?$_List_const_iterator@V?$_List_val@PAV?$Goal@VAbstRaven_Bot@@@@V?$allocator@PAV?$Goal@VAbstRaven_Bot@@@@@std@@@std@@@std@@QAEAAV01@XZ ENDP ; std::_List_const_iterator<std::_List_val<Goal<AbstRaven_Bot> *,std::allocator<Goal<AbstRaven_Bot> *> > >::operator--
; Function compile flags: /Odtp /RTCsu
_TEXT	ENDS
;	COMDAT ??0?$_List_iterator@V?$_List_val@PAV?$Goal@VAbstRaven_Bot@@@@V?$allocator@PAV?$Goal@VAbstRaven_Bot@@@@@std@@@std@@@std@@QAE@PAU_Node@?$_List_nod@PAV?$Goal@VAbstRaven_Bot@@@@V?$allocator@PAV?$Goal@VAbstRaven_Bot@@@@@std@@@1@PBV?$_List_val@PAV?$Goal@VAbstRaven_Bot@@@@V?$allocator@PAV?$Goal@VAbstRaven_Bot@@@@@std@@@1@@Z
_TEXT	SEGMENT
_this$ = -4						; size = 4
__Pnode$ = 8						; size = 4
__Plist$ = 12						; size = 4
??0?$_List_iterator@V?$_List_val@PAV?$Goal@VAbstRaven_Bot@@@@V?$allocator@PAV?$Goal@VAbstRaven_Bot@@@@@std@@@std@@@std@@QAE@PAU_Node@?$_List_nod@PAV?$Goal@VAbstRaven_Bot@@@@V?$allocator@PAV?$Goal@VAbstRaven_Bot@@@@@std@@@1@PBV?$_List_val@PAV?$Goal@VAbstRaven_Bot@@@@V?$allocator@PAV?$Goal@VAbstRaven_Bot@@@@@std@@@1@@Z PROC ; std::_List_iterator<std::_List_val<Goal<AbstRaven_Bot> *,std::allocator<Goal<AbstRaven_Bot> *> > >::_List_iterator<std::_List_val<Goal<AbstRaven_Bot> *,std::allocator<Goal<AbstRaven_Bot> *> > >, COMDAT
; _this$ = ecx

; 342  : 		{	// construct with node pointer _Pnode

	push	ebp
	mov	ebp, esp
	push	ecx
	mov	DWORD PTR [ebp-4], -858993460		; ccccccccH
	mov	DWORD PTR _this$[ebp], ecx
	mov	eax, DWORD PTR __Plist$[ebp]
	push	eax
	mov	ecx, DWORD PTR __Pnode$[ebp]
	push	ecx
	mov	ecx, DWORD PTR _this$[ebp]
	call	??0?$_List_const_iterator@V?$_List_val@PAV?$Goal@VAbstRaven_Bot@@@@V?$allocator@PAV?$Goal@VAbstRaven_Bot@@@@@std@@@std@@@std@@QAE@PAU_Node@?$_List_nod@PAV?$Goal@VAbstRaven_Bot@@@@V?$allocator@PAV?$Goal@VAbstRaven_Bot@@@@@std@@@1@PBV?$_List_val@PAV?$Goal@VAbstRaven_Bot@@@@V?$allocator@PAV?$Goal@VAbstRaven_Bot@@@@@std@@@1@@Z ; std::_List_const_iterator<std::_List_val<Goal<AbstRaven_Bot> *,std::allocator<Goal<AbstRaven_Bot> *> > >::_List_const_iterator<std::_List_val<Goal<AbstRaven_Bot> *,std::allocator<Goal<AbstRaven_Bot> *> > >

; 343  : 		}

	mov	eax, DWORD PTR _this$[ebp]
	add	esp, 4
	cmp	ebp, esp
	call	__RTC_CheckEsp
	mov	esp, ebp
	pop	ebp
	ret	8
??0?$_List_iterator@V?$_List_val@PAV?$Goal@VAbstRaven_Bot@@@@V?$allocator@PAV?$Goal@VAbstRaven_Bot@@@@@std@@@std@@@std@@QAE@PAU_Node@?$_List_nod@PAV?$Goal@VAbstRaven_Bot@@@@V?$allocator@PAV?$Goal@VAbstRaven_Bot@@@@@std@@@1@PBV?$_List_val@PAV?$Goal@VAbstRaven_Bot@@@@V?$allocator@PAV?$Goal@VAbstRaven_Bot@@@@@std@@@1@@Z ENDP ; std::_List_iterator<std::_List_val<Goal<AbstRaven_Bot> *,std::allocator<Goal<AbstRaven_Bot> *> > >::_List_iterator<std::_List_val<Goal<AbstRaven_Bot> *,std::allocator<Goal<AbstRaven_Bot> *> > >
_TEXT	ENDS
PUBLIC	??0?$_Revranit@V?$_List_const_iterator@V?$_List_val@PAV?$Goal@VAbstRaven_Bot@@@@V?$allocator@PAV?$Goal@VAbstRaven_Bot@@@@@std@@@std@@@std@@U?$iterator@Ubidirectional_iterator_tag@std@@PAV?$Goal@VAbstRaven_Bot@@@@HPBQAV3@ABQAV3@@2@@std@@QAE@V?$_List_const_iterator@V?$_List_val@PAV?$Goal@VAbstRaven_Bot@@@@V?$allocator@PAV?$Goal@VAbstRaven_Bot@@@@@std@@@std@@@1@@Z ; std::_Revranit<std::_List_const_iterator<std::_List_val<Goal<AbstRaven_Bot> *,std::allocator<Goal<AbstRaven_Bot> *> > >,std::iterator<std::bidirectional_iterator_tag,Goal<AbstRaven_Bot> *,int,Goal<AbstRaven_Bot> * const *,Goal<AbstRaven_Bot> * const &> >::_Revranit<std::_List_const_iterator<std::_List_val<Goal<AbstRaven_Bot> *,std::allocator<Goal<AbstRaven_Bot> *> > >,std::iterator<std::bidirectional_iterator_tag,Goal<AbstRaven_Bot> *,int,Goal<AbstRaven_Bot> * const *,Goal<AbstRaven_Bot> * const &> >
;	COMDAT xdata$x
; File c:\program files (x86)\microsoft visual studio 10.0\vc\include\xutility
xdata$x	SEGMENT
__unwindtable$??0?$reverse_iterator@V?$_List_const_iterator@V?$_List_val@PAV?$Goal@VAbstRaven_Bot@@@@V?$allocator@PAV?$Goal@VAbstRaven_Bot@@@@@std@@@std@@@std@@@std@@QAE@V?$_List_const_iterator@V?$_List_val@PAV?$Goal@VAbstRaven_Bot@@@@V?$allocator@PAV?$Goal@VAbstRaven_Bot@@@@@std@@@std@@@1@@Z DD 0ffffffffH
	DD	FLAT:__unwindfunclet$??0?$reverse_iterator@V?$_List_const_iterator@V?$_List_val@PAV?$Goal@VAbstRaven_Bot@@@@V?$allocator@PAV?$Goal@VAbstRaven_Bot@@@@@std@@@std@@@std@@@std@@QAE@V?$_List_const_iterator@V?$_List_val@PAV?$Goal@VAbstRaven_Bot@@@@V?$allocator@PAV?$Goal@VAbstRaven_Bot@@@@@std@@@std@@@1@@Z$0
__ehfuncinfo$??0?$reverse_iterator@V?$_List_const_iterator@V?$_List_val@PAV?$Goal@VAbstRaven_Bot@@@@V?$allocator@PAV?$Goal@VAbstRaven_Bot@@@@@std@@@std@@@std@@@std@@QAE@V?$_List_const_iterator@V?$_List_val@PAV?$Goal@VAbstRaven_Bot@@@@V?$allocator@PAV?$Goal@VAbstRaven_Bot@@@@@std@@@std@@@1@@Z DD 019930522H
	DD	01H
	DD	FLAT:__unwindtable$??0?$reverse_iterator@V?$_List_const_iterator@V?$_List_val@PAV?$Goal@VAbstRaven_Bot@@@@V?$allocator@PAV?$Goal@VAbstRaven_Bot@@@@@std@@@std@@@std@@@std@@QAE@V?$_List_const_iterator@V?$_List_val@PAV?$Goal@VAbstRaven_Bot@@@@V?$allocator@PAV?$Goal@VAbstRaven_Bot@@@@@std@@@std@@@1@@Z
	DD	2 DUP(00H)
	DD	2 DUP(00H)
	DD	00H
	DD	01H
; Function compile flags: /Odtp /RTCsu
xdata$x	ENDS
;	COMDAT ??0?$reverse_iterator@V?$_List_const_iterator@V?$_List_val@PAV?$Goal@VAbstRaven_Bot@@@@V?$allocator@PAV?$Goal@VAbstRaven_Bot@@@@@std@@@std@@@std@@@std@@QAE@V?$_List_const_iterator@V?$_List_val@PAV?$Goal@VAbstRaven_Bot@@@@V?$allocator@PAV?$Goal@VAbstRaven_Bot@@@@@std@@@std@@@1@@Z
_TEXT	SEGMENT
tv93 = -28						; size = 4
tv92 = -24						; size = 4
$T142466 = -20						; size = 4
_this$ = -16						; size = 4
__$EHRec$ = -12						; size = 12
__Right$ = 8						; size = 12
??0?$reverse_iterator@V?$_List_const_iterator@V?$_List_val@PAV?$Goal@VAbstRaven_Bot@@@@V?$allocator@PAV?$Goal@VAbstRaven_Bot@@@@@std@@@std@@@std@@@std@@QAE@V?$_List_const_iterator@V?$_List_val@PAV?$Goal@VAbstRaven_Bot@@@@V?$allocator@PAV?$Goal@VAbstRaven_Bot@@@@@std@@@std@@@1@@Z PROC ; std::reverse_iterator<std::_List_const_iterator<std::_List_val<Goal<AbstRaven_Bot> *,std::allocator<Goal<AbstRaven_Bot> *> > > >::reverse_iterator<std::_List_const_iterator<std::_List_val<Goal<AbstRaven_Bot> *,std::allocator<Goal<AbstRaven_Bot> *> > > >, COMDAT
; _this$ = ecx

; 1261 : 		{	// construct wrapped iterator from _Right

	push	ebp
	mov	ebp, esp
	push	-1
	push	__ehhandler$??0?$reverse_iterator@V?$_List_const_iterator@V?$_List_val@PAV?$Goal@VAbstRaven_Bot@@@@V?$allocator@PAV?$Goal@VAbstRaven_Bot@@@@@std@@@std@@@std@@@std@@QAE@V?$_List_const_iterator@V?$_List_val@PAV?$Goal@VAbstRaven_Bot@@@@V?$allocator@PAV?$Goal@VAbstRaven_Bot@@@@@std@@@std@@@1@@Z
	mov	eax, DWORD PTR fs:0
	push	eax
	sub	esp, 16					; 00000010H
	mov	eax, -858993460				; ccccccccH
	mov	DWORD PTR [ebp-28], eax
	mov	DWORD PTR [ebp-24], eax
	mov	DWORD PTR [ebp-20], eax
	mov	DWORD PTR [ebp-16], eax
	mov	eax, DWORD PTR ___security_cookie
	xor	eax, ebp
	push	eax
	lea	eax, DWORD PTR __$EHRec$[ebp]
	mov	DWORD PTR fs:0, eax
	mov	DWORD PTR _this$[ebp], ecx
	mov	DWORD PTR __$EHRec$[ebp+8], 0
	sub	esp, 12					; 0000000cH
	mov	ecx, esp
	mov	DWORD PTR $T142466[ebp], esp
	lea	eax, DWORD PTR __Right$[ebp]
	push	eax
	call	??0?$_List_const_iterator@V?$_List_val@PAV?$Goal@VAbstRaven_Bot@@@@V?$allocator@PAV?$Goal@VAbstRaven_Bot@@@@@std@@@std@@@std@@QAE@ABV01@@Z
	mov	DWORD PTR tv92[ebp], eax
	mov	ecx, DWORD PTR _this$[ebp]
	call	??0?$_Revranit@V?$_List_const_iterator@V?$_List_val@PAV?$Goal@VAbstRaven_Bot@@@@V?$allocator@PAV?$Goal@VAbstRaven_Bot@@@@@std@@@std@@@std@@U?$iterator@Ubidirectional_iterator_tag@std@@PAV?$Goal@VAbstRaven_Bot@@@@HPBQAV3@ABQAV3@@2@@std@@QAE@V?$_List_const_iterator@V?$_List_val@PAV?$Goal@VAbstRaven_Bot@@@@V?$allocator@PAV?$Goal@VAbstRaven_Bot@@@@@std@@@std@@@1@@Z ; std::_Revranit<std::_List_const_iterator<std::_List_val<Goal<AbstRaven_Bot> *,std::allocator<Goal<AbstRaven_Bot> *> > >,std::iterator<std::bidirectional_iterator_tag,Goal<AbstRaven_Bot> *,int,Goal<AbstRaven_Bot> * const *,Goal<AbstRaven_Bot> * const &> >::_Revranit<std::_List_const_iterator<std::_List_val<Goal<AbstRaven_Bot> *,std::allocator<Goal<AbstRaven_Bot> *> > >,std::iterator<std::bidirectional_iterator_tag,Goal<AbstRaven_Bot> *,int,Goal<AbstRaven_Bot> * const *,Goal<AbstRaven_Bot> * const &> >
	mov	DWORD PTR tv93[ebp], eax

; 1262 : 		}

	mov	DWORD PTR __$EHRec$[ebp+8], -1
	lea	ecx, DWORD PTR __Right$[ebp]
	call	??1?$_List_const_iterator@V?$_List_val@PAV?$Goal@VAbstRaven_Bot@@@@V?$allocator@PAV?$Goal@VAbstRaven_Bot@@@@@std@@@std@@@std@@QAE@XZ
	mov	eax, DWORD PTR _this$[ebp]
	mov	ecx, DWORD PTR __$EHRec$[ebp]
	mov	DWORD PTR fs:0, ecx
	pop	ecx
	add	esp, 28					; 0000001cH
	cmp	ebp, esp
	call	__RTC_CheckEsp
	mov	esp, ebp
	pop	ebp
	ret	12					; 0000000cH
_TEXT	ENDS
;	COMDAT text$x
text$x	SEGMENT
__unwindfunclet$??0?$reverse_iterator@V?$_List_const_iterator@V?$_List_val@PAV?$Goal@VAbstRaven_Bot@@@@V?$allocator@PAV?$Goal@VAbstRaven_Bot@@@@@std@@@std@@@std@@@std@@QAE@V?$_List_const_iterator@V?$_List_val@PAV?$Goal@VAbstRaven_Bot@@@@V?$allocator@PAV?$Goal@VAbstRaven_Bot@@@@@std@@@std@@@1@@Z$0:
	lea	ecx, DWORD PTR __Right$[ebp]
	jmp	??1?$_List_const_iterator@V?$_List_val@PAV?$Goal@VAbstRaven_Bot@@@@V?$allocator@PAV?$Goal@VAbstRaven_Bot@@@@@std@@@std@@@std@@QAE@XZ
__ehhandler$??0?$reverse_iterator@V?$_List_const_iterator@V?$_List_val@PAV?$Goal@VAbstRaven_Bot@@@@V?$allocator@PAV?$Goal@VAbstRaven_Bot@@@@@std@@@std@@@std@@@std@@QAE@V?$_List_const_iterator@V?$_List_val@PAV?$Goal@VAbstRaven_Bot@@@@V?$allocator@PAV?$Goal@VAbstRaven_Bot@@@@@std@@@std@@@1@@Z:
	mov	edx, DWORD PTR [esp+8]
	lea	eax, DWORD PTR [edx+12]
	mov	ecx, DWORD PTR [edx-20]
	xor	ecx, eax
	call	@__security_check_cookie@4
	mov	eax, OFFSET __ehfuncinfo$??0?$reverse_iterator@V?$_List_const_iterator@V?$_List_val@PAV?$Goal@VAbstRaven_Bot@@@@V?$allocator@PAV?$Goal@VAbstRaven_Bot@@@@@std@@@std@@@std@@@std@@QAE@V?$_List_const_iterator@V?$_List_val@PAV?$Goal@VAbstRaven_Bot@@@@V?$allocator@PAV?$Goal@VAbstRaven_Bot@@@@@std@@@std@@@1@@Z
	jmp	___CxxFrameHandler3
text$x	ENDS
??0?$reverse_iterator@V?$_List_const_iterator@V?$_List_val@PAV?$Goal@VAbstRaven_Bot@@@@V?$allocator@PAV?$Goal@VAbstRaven_Bot@@@@@std@@@std@@@std@@@std@@QAE@V?$_List_const_iterator@V?$_List_val@PAV?$Goal@VAbstRaven_Bot@@@@V?$allocator@PAV?$Goal@VAbstRaven_Bot@@@@@std@@@std@@@1@@Z ENDP ; std::reverse_iterator<std::_List_const_iterator<std::_List_val<Goal<AbstRaven_Bot> *,std::allocator<Goal<AbstRaven_Bot> *> > > >::reverse_iterator<std::_List_const_iterator<std::_List_val<Goal<AbstRaven_Bot> *,std::allocator<Goal<AbstRaven_Bot> *> > > >
PUBLIC	??0?$_List_const_iterator@V?$_List_val@PAV?$Goal@VAbstRaven_Bot@@@@V?$allocator@PAV?$Goal@VAbstRaven_Bot@@@@@std@@@std@@@std@@QAE@XZ ; std::_List_const_iterator<std::_List_val<Goal<AbstRaven_Bot> *,std::allocator<Goal<AbstRaven_Bot> *> > >::_List_const_iterator<std::_List_val<Goal<AbstRaven_Bot> *,std::allocator<Goal<AbstRaven_Bot> *> > >
; Function compile flags: /Odtp /RTCsu
;	COMDAT ??0?$_Revranit@V?$_List_const_iterator@V?$_List_val@PAV?$Goal@VAbstRaven_Bot@@@@V?$allocator@PAV?$Goal@VAbstRaven_Bot@@@@@std@@@std@@@std@@U?$iterator@Ubidirectional_iterator_tag@std@@PAV?$Goal@VAbstRaven_Bot@@@@HPBQAV3@ABQAV3@@2@@std@@QAE@XZ
_TEXT	SEGMENT
_this$ = -4						; size = 4
??0?$_Revranit@V?$_List_const_iterator@V?$_List_val@PAV?$Goal@VAbstRaven_Bot@@@@V?$allocator@PAV?$Goal@VAbstRaven_Bot@@@@@std@@@std@@@std@@U?$iterator@Ubidirectional_iterator_tag@std@@PAV?$Goal@VAbstRaven_Bot@@@@HPBQAV3@ABQAV3@@2@@std@@QAE@XZ PROC ; std::_Revranit<std::_List_const_iterator<std::_List_val<Goal<AbstRaven_Bot> *,std::allocator<Goal<AbstRaven_Bot> *> > >,std::iterator<std::bidirectional_iterator_tag,Goal<AbstRaven_Bot> *,int,Goal<AbstRaven_Bot> * const *,Goal<AbstRaven_Bot> * const &> >::_Revranit<std::_List_const_iterator<std::_List_val<Goal<AbstRaven_Bot> *,std::allocator<Goal<AbstRaven_Bot> *> > >,std::iterator<std::bidirectional_iterator_tag,Goal<AbstRaven_Bot> *,int,Goal<AbstRaven_Bot> * const *,Goal<AbstRaven_Bot> * const &> >, COMDAT
; _this$ = ecx

; 1033 : 	_Revranit()

	push	ebp
	mov	ebp, esp
	push	ecx
	mov	DWORD PTR [ebp-4], -858993460		; ccccccccH
	mov	DWORD PTR _this$[ebp], ecx
	mov	ecx, DWORD PTR _this$[ebp]
	call	??0?$_List_const_iterator@V?$_List_val@PAV?$Goal@VAbstRaven_Bot@@@@V?$allocator@PAV?$Goal@VAbstRaven_Bot@@@@@std@@@std@@@std@@QAE@XZ ; std::_List_const_iterator<std::_List_val<Goal<AbstRaven_Bot> *,std::allocator<Goal<AbstRaven_Bot> *> > >::_List_const_iterator<std::_List_val<Goal<AbstRaven_Bot> *,std::allocator<Goal<AbstRaven_Bot> *> > >

; 1034 : 		{	// construct with default wrapped iterator
; 1035 : 		}

	mov	eax, DWORD PTR _this$[ebp]
	add	esp, 4
	cmp	ebp, esp
	call	__RTC_CheckEsp
	mov	esp, ebp
	pop	ebp
	ret	0
??0?$_Revranit@V?$_List_const_iterator@V?$_List_val@PAV?$Goal@VAbstRaven_Bot@@@@V?$allocator@PAV?$Goal@VAbstRaven_Bot@@@@@std@@@std@@@std@@U?$iterator@Ubidirectional_iterator_tag@std@@PAV?$Goal@VAbstRaven_Bot@@@@HPBQAV3@ABQAV3@@2@@std@@QAE@XZ ENDP ; std::_Revranit<std::_List_const_iterator<std::_List_val<Goal<AbstRaven_Bot> *,std::allocator<Goal<AbstRaven_Bot> *> > >,std::iterator<std::bidirectional_iterator_tag,Goal<AbstRaven_Bot> *,int,Goal<AbstRaven_Bot> * const *,Goal<AbstRaven_Bot> * const &> >::_Revranit<std::_List_const_iterator<std::_List_val<Goal<AbstRaven_Bot> *,std::allocator<Goal<AbstRaven_Bot> *> > >,std::iterator<std::bidirectional_iterator_tag,Goal<AbstRaven_Bot> *,int,Goal<AbstRaven_Bot> * const *,Goal<AbstRaven_Bot> * const &> >
; Function compile flags: /Odtp /RTCsu
_TEXT	ENDS
;	COMDAT ??E?$_Revranit@V?$_List_const_iterator@V?$_List_val@PAV?$Goal@VAbstRaven_Bot@@@@V?$allocator@PAV?$Goal@VAbstRaven_Bot@@@@@std@@@std@@@std@@U?$iterator@Ubidirectional_iterator_tag@std@@PAV?$Goal@VAbstRaven_Bot@@@@HPBQAV3@ABQAV3@@2@@std@@QAEAAV01@XZ
_TEXT	SEGMENT
_this$ = -4						; size = 4
??E?$_Revranit@V?$_List_const_iterator@V?$_List_val@PAV?$Goal@VAbstRaven_Bot@@@@V?$allocator@PAV?$Goal@VAbstRaven_Bot@@@@@std@@@std@@@std@@U?$iterator@Ubidirectional_iterator_tag@std@@PAV?$Goal@VAbstRaven_Bot@@@@HPBQAV3@ABQAV3@@2@@std@@QAEAAV01@XZ PROC ; std::_Revranit<std::_List_const_iterator<std::_List_val<Goal<AbstRaven_Bot> *,std::allocator<Goal<AbstRaven_Bot> *> > >,std::iterator<std::bidirectional_iterator_tag,Goal<AbstRaven_Bot> *,int,Goal<AbstRaven_Bot> * const *,Goal<AbstRaven_Bot> * const &> >::operator++, COMDAT
; _this$ = ecx

; 1066 : 		{	// preincrement

	push	ebp
	mov	ebp, esp
	push	ecx
	mov	DWORD PTR [ebp-4], -858993460		; ccccccccH
	mov	DWORD PTR _this$[ebp], ecx

; 1067 : 		--current;

	mov	ecx, DWORD PTR _this$[ebp]
	call	??F?$_List_const_iterator@V?$_List_val@PAV?$Goal@VAbstRaven_Bot@@@@V?$allocator@PAV?$Goal@VAbstRaven_Bot@@@@@std@@@std@@@std@@QAEAAV01@XZ ; std::_List_const_iterator<std::_List_val<Goal<AbstRaven_Bot> *,std::allocator<Goal<AbstRaven_Bot> *> > >::operator--

; 1068 : 		return (*this);

	mov	eax, DWORD PTR _this$[ebp]

; 1069 : 		}

	add	esp, 4
	cmp	ebp, esp
	call	__RTC_CheckEsp
	mov	esp, ebp
	pop	ebp
	ret	0
??E?$_Revranit@V?$_List_const_iterator@V?$_List_val@PAV?$Goal@VAbstRaven_Bot@@@@V?$allocator@PAV?$Goal@VAbstRaven_Bot@@@@@std@@@std@@@std@@U?$iterator@Ubidirectional_iterator_tag@std@@PAV?$Goal@VAbstRaven_Bot@@@@HPBQAV3@ABQAV3@@2@@std@@QAEAAV01@XZ ENDP ; std::_Revranit<std::_List_const_iterator<std::_List_val<Goal<AbstRaven_Bot> *,std::allocator<Goal<AbstRaven_Bot> *> > >,std::iterator<std::bidirectional_iterator_tag,Goal<AbstRaven_Bot> *,int,Goal<AbstRaven_Bot> * const *,Goal<AbstRaven_Bot> * const &> >::operator++
; Function compile flags: /Odtp /RTCsu
; File c:\program files (x86)\microsoft visual studio 10.0\vc\include\xstring
_TEXT	ENDS
;	COMDAT ?append@?$basic_string@DU?$char_traits@D@std@@V?$allocator@D@2@@std@@QAEAAV12@ABV12@II@Z
_TEXT	SEGMENT
__Num$ = -8						; size = 4
_this$ = -4						; size = 4
__Right$ = 8						; size = 4
__Roff$ = 12						; size = 4
__Count$ = 16						; size = 4
?append@?$basic_string@DU?$char_traits@D@std@@V?$allocator@D@2@@std@@QAEAAV12@ABV12@II@Z PROC ; std::basic_string<char,std::char_traits<char>,std::allocator<char> >::append, COMDAT
; _this$ = ecx

; 798  : 		{	// append _Right [_Roff, _Roff + _Count)

	push	ebp
	mov	ebp, esp
	sub	esp, 8
	mov	DWORD PTR [ebp-8], -858993460		; ccccccccH
	mov	DWORD PTR [ebp-4], -858993460		; ccccccccH
	mov	DWORD PTR _this$[ebp], ecx

; 799  : 		if (_Right.size() < _Roff)

	mov	ecx, DWORD PTR __Right$[ebp]
	call	?size@?$basic_string@DU?$char_traits@D@std@@V?$allocator@D@2@@std@@QBEIXZ ; std::basic_string<char,std::char_traits<char>,std::allocator<char> >::size
	cmp	eax, DWORD PTR __Roff$[ebp]
	jae	SHORT $LN4@append@2

; 800  : 			_Xran();	// _Roff off end

	mov	ecx, DWORD PTR _this$[ebp]
	call	?_Xran@?$basic_string@DU?$char_traits@D@std@@V?$allocator@D@2@@std@@QBEXXZ ; std::basic_string<char,std::char_traits<char>,std::allocator<char> >::_Xran
$LN4@append@2:

; 801  : 		size_type _Num = _Right.size() - _Roff;

	mov	ecx, DWORD PTR __Right$[ebp]
	call	?size@?$basic_string@DU?$char_traits@D@std@@V?$allocator@D@2@@std@@QBEIXZ ; std::basic_string<char,std::char_traits<char>,std::allocator<char> >::size
	sub	eax, DWORD PTR __Roff$[ebp]
	mov	DWORD PTR __Num$[ebp], eax

; 802  : 		if (_Num < _Count)

	mov	eax, DWORD PTR __Num$[ebp]
	cmp	eax, DWORD PTR __Count$[ebp]
	jae	SHORT $LN3@append@2

; 803  : 			_Count = _Num;	// trim _Count to size

	mov	ecx, DWORD PTR __Num$[ebp]
	mov	DWORD PTR __Count$[ebp], ecx
$LN3@append@2:

; 804  : 		if (npos - this->_Mysize <= _Count)

	mov	edx, DWORD PTR _this$[ebp]
	or	eax, -1
	sub	eax, DWORD PTR [edx+20]
	cmp	eax, DWORD PTR __Count$[ebp]
	ja	SHORT $LN2@append@2

; 805  : 			_Xlen();	// result too long

	mov	ecx, DWORD PTR _this$[ebp]
	call	?_Xlen@?$basic_string@DU?$char_traits@D@std@@V?$allocator@D@2@@std@@QBEXXZ ; std::basic_string<char,std::char_traits<char>,std::allocator<char> >::_Xlen
$LN2@append@2:

; 806  : 
; 807  : 		if (0 < _Count && _Grow(_Num = this->_Mysize + _Count))

	cmp	DWORD PTR __Count$[ebp], 0
	jbe	SHORT $LN1@append@2
	mov	ecx, DWORD PTR _this$[ebp]
	mov	edx, DWORD PTR [ecx+20]
	add	edx, DWORD PTR __Count$[ebp]
	mov	DWORD PTR __Num$[ebp], edx
	push	0
	mov	eax, DWORD PTR __Num$[ebp]
	push	eax
	mov	ecx, DWORD PTR _this$[ebp]
	call	?_Grow@?$basic_string@DU?$char_traits@D@std@@V?$allocator@D@2@@std@@QAE_NI_N@Z ; std::basic_string<char,std::char_traits<char>,std::allocator<char> >::_Grow
	movzx	ecx, al
	test	ecx, ecx
	je	SHORT $LN1@append@2

; 808  : 			{	// make room and append new stuff
; 809  : 			_Traits::copy(_Myptr() + this->_Mysize,
; 810  : 				_Right._Myptr() + _Roff, _Count);

	mov	edx, DWORD PTR __Count$[ebp]
	push	edx
	mov	ecx, DWORD PTR __Right$[ebp]
	call	?_Myptr@?$basic_string@DU?$char_traits@D@std@@V?$allocator@D@2@@std@@QBEPBDXZ ; std::basic_string<char,std::char_traits<char>,std::allocator<char> >::_Myptr
	add	eax, DWORD PTR __Roff$[ebp]
	push	eax
	mov	ecx, DWORD PTR _this$[ebp]
	call	?_Myptr@?$basic_string@DU?$char_traits@D@std@@V?$allocator@D@2@@std@@QAEPADXZ ; std::basic_string<char,std::char_traits<char>,std::allocator<char> >::_Myptr
	mov	ecx, DWORD PTR _this$[ebp]
	add	eax, DWORD PTR [ecx+20]
	push	eax
	call	?copy@?$char_traits@D@std@@SAPADPADPBDI@Z ; std::char_traits<char>::copy
	add	esp, 12					; 0000000cH

; 811  : 			_Eos(_Num);

	mov	edx, DWORD PTR __Num$[ebp]
	push	edx
	mov	ecx, DWORD PTR _this$[ebp]
	call	?_Eos@?$basic_string@DU?$char_traits@D@std@@V?$allocator@D@2@@std@@QAEXI@Z ; std::basic_string<char,std::char_traits<char>,std::allocator<char> >::_Eos
$LN1@append@2:

; 812  : 			}
; 813  : 		return (*this);

	mov	eax, DWORD PTR _this$[ebp]
$LN6@append@2:

; 814  : 		}

	add	esp, 8
	cmp	ebp, esp
	call	__RTC_CheckEsp
	mov	esp, ebp
	pop	ebp
	ret	12					; 0000000cH
?append@?$basic_string@DU?$char_traits@D@std@@V?$allocator@D@2@@std@@QAEAAV12@ABV12@II@Z ENDP ; std::basic_string<char,std::char_traits<char>,std::allocator<char> >::append
_TEXT	ENDS
PUBLIC	??_C@_0BB@MOGOBHAF@list?$DMT?$DO?5too?5long?$AA@ ; `string'
PUBLIC	?max_size@?$list@PAV?$Goal@VAbstRaven_Bot@@@@V?$allocator@PAV?$Goal@VAbstRaven_Bot@@@@@std@@@std@@QBEIXZ ; std::list<Goal<AbstRaven_Bot> *,std::allocator<Goal<AbstRaven_Bot> *> >::max_size
;	COMDAT ??_C@_0BB@MOGOBHAF@list?$DMT?$DO?5too?5long?$AA@
; File c:\program files (x86)\microsoft visual studio 10.0\vc\include\list
CONST	SEGMENT
??_C@_0BB@MOGOBHAF@list?$DMT?$DO?5too?5long?$AA@ DB 'list<T> too long', 00H ; `string'
; Function compile flags: /Odtp /RTCsu
CONST	ENDS
;	COMDAT ?_Incsize@?$list@PAV?$Goal@VAbstRaven_Bot@@@@V?$allocator@PAV?$Goal@VAbstRaven_Bot@@@@@std@@@std@@QAEXI@Z
_TEXT	SEGMENT
_this$ = -4						; size = 4
__Count$ = 8						; size = 4
?_Incsize@?$list@PAV?$Goal@VAbstRaven_Bot@@@@V?$allocator@PAV?$Goal@VAbstRaven_Bot@@@@@std@@@std@@QAEXI@Z PROC ; std::list<Goal<AbstRaven_Bot> *,std::allocator<Goal<AbstRaven_Bot> *> >::_Incsize, COMDAT
; _this$ = ecx

; 1519 : 		{	// alter element count, with checking

	push	ebp
	mov	ebp, esp
	push	ecx
	mov	DWORD PTR [ebp-4], -858993460		; ccccccccH
	mov	DWORD PTR _this$[ebp], ecx

; 1520 : 		if (max_size() - this->_Mysize - 1 < _Count)

	mov	ecx, DWORD PTR _this$[ebp]
	call	?max_size@?$list@PAV?$Goal@VAbstRaven_Bot@@@@V?$allocator@PAV?$Goal@VAbstRaven_Bot@@@@@std@@@std@@QBEIXZ ; std::list<Goal<AbstRaven_Bot> *,std::allocator<Goal<AbstRaven_Bot> *> >::max_size
	mov	ecx, DWORD PTR _this$[ebp]
	sub	eax, DWORD PTR [ecx+8]
	sub	eax, 1
	cmp	eax, DWORD PTR __Count$[ebp]
	jae	SHORT $LN1@Incsize

; 1521 : 			_Xlength_error("list<T> too long");

	push	OFFSET ??_C@_0BB@MOGOBHAF@list?$DMT?$DO?5too?5long?$AA@
	call	?_Xlength_error@std@@YAXPBD@Z		; std::_Xlength_error
$LN1@Incsize:

; 1522 : 		this->_Mysize += _Count;

	mov	edx, DWORD PTR _this$[ebp]
	mov	eax, DWORD PTR [edx+8]
	add	eax, DWORD PTR __Count$[ebp]
	mov	ecx, DWORD PTR _this$[ebp]
	mov	DWORD PTR [ecx+8], eax
$LN3@Incsize:

; 1523 : 		}

	add	esp, 4
	cmp	ebp, esp
	call	__RTC_CheckEsp
	mov	esp, ebp
	pop	ebp
	ret	4
?_Incsize@?$list@PAV?$Goal@VAbstRaven_Bot@@@@V?$allocator@PAV?$Goal@VAbstRaven_Bot@@@@@std@@@std@@QAEXI@Z ENDP ; std::list<Goal<AbstRaven_Bot> *,std::allocator<Goal<AbstRaven_Bot> *> >::_Incsize
_TEXT	ENDS
PUBLIC	?deallocate@?$allocator@U_Node@?$_List_nod@PAV?$Goal@VAbstRaven_Bot@@@@V?$allocator@PAV?$Goal@VAbstRaven_Bot@@@@@std@@@std@@@std@@QAEXPAU_Node@?$_List_nod@PAV?$Goal@VAbstRaven_Bot@@@@V?$allocator@PAV?$Goal@VAbstRaven_Bot@@@@@std@@@2@I@Z ; std::allocator<std::_List_nod<Goal<AbstRaven_Bot> *,std::allocator<Goal<AbstRaven_Bot> *> >::_Node>::deallocate
PUBLIC	??$_Cons_val@V?$allocator@PAV?$Goal@VAbstRaven_Bot@@@@@std@@PAV?$Goal@VAbstRaven_Bot@@@@ABQAV3@@std@@YAXAAV?$allocator@PAV?$Goal@VAbstRaven_Bot@@@@@0@PAPAV?$Goal@VAbstRaven_Bot@@@@ABQAV2@@Z ; std::_Cons_val<std::allocator<Goal<AbstRaven_Bot> *>,Goal<AbstRaven_Bot> *,Goal<AbstRaven_Bot> * const &>
PUBLIC	??$addressof@PAV?$Goal@VAbstRaven_Bot@@@@@std@@YAPAPAV?$Goal@VAbstRaven_Bot@@@@AAPAV1@@Z ; std::addressof<Goal<AbstRaven_Bot> *>
PUBLIC	?allocate@?$allocator@U_Node@?$_List_nod@PAV?$Goal@VAbstRaven_Bot@@@@V?$allocator@PAV?$Goal@VAbstRaven_Bot@@@@@std@@@std@@@std@@QAEPAU_Node@?$_List_nod@PAV?$Goal@VAbstRaven_Bot@@@@V?$allocator@PAV?$Goal@VAbstRaven_Bot@@@@@std@@@2@I@Z ; std::allocator<std::_List_nod<Goal<AbstRaven_Bot> *,std::allocator<Goal<AbstRaven_Bot> *> >::_Node>::allocate
;	COMDAT xdata$x
xdata$x	SEGMENT
__catchsym$?_Buynode@?$_List_val@PAV?$Goal@VAbstRaven_Bot@@@@V?$allocator@PAV?$Goal@VAbstRaven_Bot@@@@@std@@@std@@QAEPAU_Node@?$_List_nod@PAV?$Goal@VAbstRaven_Bot@@@@V?$allocator@PAV?$Goal@VAbstRaven_Bot@@@@@std@@@2@PAU342@0ABQAV?$Goal@VAbstRaven_Bot@@@@@Z$2 DD 040H
	DD	00H
	DD	00H
	DD	FLAT:__catch$?_Buynode@?$_List_val@PAV?$Goal@VAbstRaven_Bot@@@@V?$allocator@PAV?$Goal@VAbstRaven_Bot@@@@@std@@@std@@QAEPAU_Node@?$_List_nod@PAV?$Goal@VAbstRaven_Bot@@@@V?$allocator@PAV?$Goal@VAbstRaven_Bot@@@@@std@@@2@PAU342@0ABQAV?$Goal@VAbstRaven_Bot@@@@@Z$0
__unwindtable$?_Buynode@?$_List_val@PAV?$Goal@VAbstRaven_Bot@@@@V?$allocator@PAV?$Goal@VAbstRaven_Bot@@@@@std@@@std@@QAEPAU_Node@?$_List_nod@PAV?$Goal@VAbstRaven_Bot@@@@V?$allocator@PAV?$Goal@VAbstRaven_Bot@@@@@std@@@2@PAU342@0ABQAV?$Goal@VAbstRaven_Bot@@@@@Z DD 0ffffffffH
	DD	00H
	DD	0ffffffffH
	DD	00H
__tryblocktable$?_Buynode@?$_List_val@PAV?$Goal@VAbstRaven_Bot@@@@V?$allocator@PAV?$Goal@VAbstRaven_Bot@@@@@std@@@std@@QAEPAU_Node@?$_List_nod@PAV?$Goal@VAbstRaven_Bot@@@@V?$allocator@PAV?$Goal@VAbstRaven_Bot@@@@@std@@@2@PAU342@0ABQAV?$Goal@VAbstRaven_Bot@@@@@Z DD 00H
	DD	00H
	DD	01H
	DD	01H
	DD	FLAT:__catchsym$?_Buynode@?$_List_val@PAV?$Goal@VAbstRaven_Bot@@@@V?$allocator@PAV?$Goal@VAbstRaven_Bot@@@@@std@@@std@@QAEPAU_Node@?$_List_nod@PAV?$Goal@VAbstRaven_Bot@@@@V?$allocator@PAV?$Goal@VAbstRaven_Bot@@@@@std@@@2@PAU342@0ABQAV?$Goal@VAbstRaven_Bot@@@@@Z$2
__ehfuncinfo$?_Buynode@?$_List_val@PAV?$Goal@VAbstRaven_Bot@@@@V?$allocator@PAV?$Goal@VAbstRaven_Bot@@@@@std@@@std@@QAEPAU_Node@?$_List_nod@PAV?$Goal@VAbstRaven_Bot@@@@V?$allocator@PAV?$Goal@VAbstRaven_Bot@@@@@std@@@2@PAU342@0ABQAV?$Goal@VAbstRaven_Bot@@@@@Z DD 019930522H
	DD	02H
	DD	FLAT:__unwindtable$?_Buynode@?$_List_val@PAV?$Goal@VAbstRaven_Bot@@@@V?$allocator@PAV?$Goal@VAbstRaven_Bot@@@@@std@@@std@@QAEPAU_Node@?$_List_nod@PAV?$Goal@VAbstRaven_Bot@@@@V?$allocator@PAV?$Goal@VAbstRaven_Bot@@@@@std@@@2@PAU342@0ABQAV?$Goal@VAbstRaven_Bot@@@@@Z
	DD	01H
	DD	FLAT:__tryblocktable$?_Buynode@?$_List_val@PAV?$Goal@VAbstRaven_Bot@@@@V?$allocator@PAV?$Goal@VAbstRaven_Bot@@@@@std@@@std@@QAEPAU_Node@?$_List_nod@PAV?$Goal@VAbstRaven_Bot@@@@V?$allocator@PAV?$Goal@VAbstRaven_Bot@@@@@std@@@2@PAU342@0ABQAV?$Goal@VAbstRaven_Bot@@@@@Z
	DD	2 DUP(00H)
	DD	00H
	DD	01H
; Function compile flags: /Odtp /RTCsu
xdata$x	ENDS
;	COMDAT ?_Buynode@?$_List_val@PAV?$Goal@VAbstRaven_Bot@@@@V?$allocator@PAV?$Goal@VAbstRaven_Bot@@@@@std@@@std@@QAEPAU_Node@?$_List_nod@PAV?$Goal@VAbstRaven_Bot@@@@V?$allocator@PAV?$Goal@VAbstRaven_Bot@@@@@std@@@2@PAU342@0ABQAV?$Goal@VAbstRaven_Bot@@@@@Z
_TEXT	SEGMENT
tv134 = -40						; size = 4
tv133 = -36						; size = 4
tv132 = -32						; size = 4
tv131 = -28						; size = 4
__Pnode$ = -24						; size = 4
_this$ = -20						; size = 4
__$EHRec$ = -16						; size = 16
__Next$ = 8						; size = 4
__Prev$ = 12						; size = 4
__Val$ = 16						; size = 4
?_Buynode@?$_List_val@PAV?$Goal@VAbstRaven_Bot@@@@V?$allocator@PAV?$Goal@VAbstRaven_Bot@@@@@std@@@std@@QAEPAU_Node@?$_List_nod@PAV?$Goal@VAbstRaven_Bot@@@@V?$allocator@PAV?$Goal@VAbstRaven_Bot@@@@@std@@@2@PAU342@0ABQAV?$Goal@VAbstRaven_Bot@@@@@Z PROC ; std::_List_val<Goal<AbstRaven_Bot> *,std::allocator<Goal<AbstRaven_Bot> *> >::_Buynode, COMDAT
; _this$ = ecx

; 507  : 		{	// allocate a node and set links and value

	push	ebp
	mov	ebp, esp
	push	-1
	push	__ehhandler$?_Buynode@?$_List_val@PAV?$Goal@VAbstRaven_Bot@@@@V?$allocator@PAV?$Goal@VAbstRaven_Bot@@@@@std@@@std@@QAEPAU_Node@?$_List_nod@PAV?$Goal@VAbstRaven_Bot@@@@V?$allocator@PAV?$Goal@VAbstRaven_Bot@@@@@std@@@2@PAU342@0ABQAV?$Goal@VAbstRaven_Bot@@@@@Z
	mov	eax, DWORD PTR fs:0
	push	eax
	push	ecx
	sub	esp, 24					; 00000018H
	push	ebx
	push	esi
	push	edi
	mov	eax, -858993460				; ccccccccH
	mov	DWORD PTR [ebp-40], eax
	mov	DWORD PTR [ebp-36], eax
	mov	DWORD PTR [ebp-32], eax
	mov	DWORD PTR [ebp-28], eax
	mov	DWORD PTR [ebp-24], eax
	mov	DWORD PTR [ebp-20], eax
	mov	eax, DWORD PTR ___security_cookie
	xor	eax, ebp
	push	eax
	lea	eax, DWORD PTR __$EHRec$[ebp+4]
	mov	DWORD PTR fs:0, eax
	mov	DWORD PTR __$EHRec$[ebp], esp
	mov	DWORD PTR _this$[ebp], ecx

; 508  : 		_Nodeptr _Pnode = this->_Alnod.allocate(1);

	push	1
	mov	ecx, DWORD PTR _this$[ebp]
	add	ecx, 12					; 0000000cH
	call	?allocate@?$allocator@U_Node@?$_List_nod@PAV?$Goal@VAbstRaven_Bot@@@@V?$allocator@PAV?$Goal@VAbstRaven_Bot@@@@@std@@@std@@@std@@QAEPAU_Node@?$_List_nod@PAV?$Goal@VAbstRaven_Bot@@@@V?$allocator@PAV?$Goal@VAbstRaven_Bot@@@@@std@@@2@I@Z ; std::allocator<std::_List_nod<Goal<AbstRaven_Bot> *,std::allocator<Goal<AbstRaven_Bot> *> >::_Node>::allocate
	mov	DWORD PTR __Pnode$[ebp], eax

; 509  : 
; 510  : 		_TRY_BEGIN

	mov	DWORD PTR __$EHRec$[ebp+12], 0

; 511  : 		this->_Nextnode(_Pnode) = _Next;

	mov	eax, DWORD PTR __Pnode$[ebp]
	push	eax
	call	?_Nextnode@?$_List_val@PAV?$Goal@VAbstRaven_Bot@@@@V?$allocator@PAV?$Goal@VAbstRaven_Bot@@@@@std@@@std@@SAAAPAU_Node@?$_List_nod@PAV?$Goal@VAbstRaven_Bot@@@@V?$allocator@PAV?$Goal@VAbstRaven_Bot@@@@@std@@@2@PAU342@@Z ; std::_List_val<Goal<AbstRaven_Bot> *,std::allocator<Goal<AbstRaven_Bot> *> >::_Nextnode
	add	esp, 4
	mov	DWORD PTR tv131[ebp], eax
	mov	ecx, DWORD PTR tv131[ebp]
	mov	edx, DWORD PTR __Next$[ebp]
	mov	DWORD PTR [ecx], edx

; 512  : 		this->_Prevnode(_Pnode) = _Prev;

	mov	eax, DWORD PTR __Pnode$[ebp]
	push	eax
	call	?_Prevnode@?$_List_val@PAV?$Goal@VAbstRaven_Bot@@@@V?$allocator@PAV?$Goal@VAbstRaven_Bot@@@@@std@@@std@@SAAAPAU_Node@?$_List_nod@PAV?$Goal@VAbstRaven_Bot@@@@V?$allocator@PAV?$Goal@VAbstRaven_Bot@@@@@std@@@2@PAU342@@Z ; std::_List_val<Goal<AbstRaven_Bot> *,std::allocator<Goal<AbstRaven_Bot> *> >::_Prevnode
	add	esp, 4
	mov	DWORD PTR tv132[ebp], eax
	mov	ecx, DWORD PTR tv132[ebp]
	mov	edx, DWORD PTR __Prev$[ebp]
	mov	DWORD PTR [ecx], edx

; 513  : 		_Cons_val(this->_Alval, _STD addressof(this->_Myval(_Pnode)), _Val);

	mov	eax, DWORD PTR __Pnode$[ebp]
	push	eax
	call	?_Myval@?$_List_val@PAV?$Goal@VAbstRaven_Bot@@@@V?$allocator@PAV?$Goal@VAbstRaven_Bot@@@@@std@@@std@@SAAAPAV?$Goal@VAbstRaven_Bot@@@@PAU_Node@?$_List_nod@PAV?$Goal@VAbstRaven_Bot@@@@V?$allocator@PAV?$Goal@VAbstRaven_Bot@@@@@std@@@2@@Z ; std::_List_val<Goal<AbstRaven_Bot> *,std::allocator<Goal<AbstRaven_Bot> *> >::_Myval
	add	esp, 4
	mov	DWORD PTR tv133[ebp], eax
	mov	ecx, DWORD PTR tv133[ebp]
	push	ecx
	call	??$addressof@PAV?$Goal@VAbstRaven_Bot@@@@@std@@YAPAPAV?$Goal@VAbstRaven_Bot@@@@AAPAV1@@Z ; std::addressof<Goal<AbstRaven_Bot> *>
	add	esp, 4
	mov	DWORD PTR tv134[ebp], eax
	mov	edx, DWORD PTR __Val$[ebp]
	push	edx
	mov	eax, DWORD PTR tv134[ebp]
	push	eax
	mov	ecx, DWORD PTR _this$[ebp]
	add	ecx, 13					; 0000000dH
	push	ecx
	call	??$_Cons_val@V?$allocator@PAV?$Goal@VAbstRaven_Bot@@@@@std@@PAV?$Goal@VAbstRaven_Bot@@@@ABQAV3@@std@@YAXAAV?$allocator@PAV?$Goal@VAbstRaven_Bot@@@@@0@PAPAV?$Goal@VAbstRaven_Bot@@@@ABQAV2@@Z ; std::_Cons_val<std::allocator<Goal<AbstRaven_Bot> *>,Goal<AbstRaven_Bot> *,Goal<AbstRaven_Bot> * const &>
	add	esp, 12					; 0000000cH
	jmp	SHORT $LN4@Buynode
__catch$?_Buynode@?$_List_val@PAV?$Goal@VAbstRaven_Bot@@@@V?$allocator@PAV?$Goal@VAbstRaven_Bot@@@@@std@@@std@@QAEPAU_Node@?$_List_nod@PAV?$Goal@VAbstRaven_Bot@@@@V?$allocator@PAV?$Goal@VAbstRaven_Bot@@@@@std@@@2@PAU342@0ABQAV?$Goal@VAbstRaven_Bot@@@@@Z$0:

; 514  : 		_CATCH_ALL
; 515  : 		this->_Alnod.deallocate(_Pnode, 1);

	push	1
	mov	edx, DWORD PTR __Pnode$[ebp]
	push	edx
	mov	ecx, DWORD PTR _this$[ebp]
	add	ecx, 12					; 0000000cH
	call	?deallocate@?$allocator@U_Node@?$_List_nod@PAV?$Goal@VAbstRaven_Bot@@@@V?$allocator@PAV?$Goal@VAbstRaven_Bot@@@@@std@@@std@@@std@@QAEXPAU_Node@?$_List_nod@PAV?$Goal@VAbstRaven_Bot@@@@V?$allocator@PAV?$Goal@VAbstRaven_Bot@@@@@std@@@2@I@Z ; std::allocator<std::_List_nod<Goal<AbstRaven_Bot> *,std::allocator<Goal<AbstRaven_Bot> *> >::_Node>::deallocate

; 516  : 		_RERAISE;

	push	0
	push	0
	call	__CxxThrowException@8

; 517  : 		_CATCH_END

	mov	DWORD PTR __$EHRec$[ebp+12], -1
	mov	eax, __tryend$?_Buynode@?$_List_val@PAV?$Goal@VAbstRaven_Bot@@@@V?$allocator@PAV?$Goal@VAbstRaven_Bot@@@@@std@@@std@@QAEPAU_Node@?$_List_nod@PAV?$Goal@VAbstRaven_Bot@@@@V?$allocator@PAV?$Goal@VAbstRaven_Bot@@@@@std@@@2@PAU342@0ABQAV?$Goal@VAbstRaven_Bot@@@@@Z$1
	ret	0
$LN4@Buynode:
	mov	DWORD PTR __$EHRec$[ebp+12], -1
__tryend$?_Buynode@?$_List_val@PAV?$Goal@VAbstRaven_Bot@@@@V?$allocator@PAV?$Goal@VAbstRaven_Bot@@@@@std@@@std@@QAEPAU_Node@?$_List_nod@PAV?$Goal@VAbstRaven_Bot@@@@V?$allocator@PAV?$Goal@VAbstRaven_Bot@@@@@std@@@2@PAU342@0ABQAV?$Goal@VAbstRaven_Bot@@@@@Z$1:

; 518  : 
; 519  : 		return (_Pnode);

	mov	eax, DWORD PTR __Pnode$[ebp]
$LN3@Buynode:

; 520  : 		}

	mov	ecx, DWORD PTR __$EHRec$[ebp+4]
	mov	DWORD PTR fs:0, ecx
	pop	ecx
	pop	edi
	pop	esi
	pop	ebx
	add	esp, 40					; 00000028H
	cmp	ebp, esp
	call	__RTC_CheckEsp
	mov	esp, ebp
	pop	ebp
	ret	12					; 0000000cH
_TEXT	ENDS
;	COMDAT text$x
text$x	SEGMENT
__ehhandler$?_Buynode@?$_List_val@PAV?$Goal@VAbstRaven_Bot@@@@V?$allocator@PAV?$Goal@VAbstRaven_Bot@@@@@std@@@std@@QAEPAU_Node@?$_List_nod@PAV?$Goal@VAbstRaven_Bot@@@@V?$allocator@PAV?$Goal@VAbstRaven_Bot@@@@@std@@@2@PAU342@0ABQAV?$Goal@VAbstRaven_Bot@@@@@Z:
	mov	edx, DWORD PTR [esp+8]
	lea	eax, DWORD PTR [edx+12]
	mov	ecx, DWORD PTR [edx-44]
	xor	ecx, eax
	call	@__security_check_cookie@4
	mov	eax, OFFSET __ehfuncinfo$?_Buynode@?$_List_val@PAV?$Goal@VAbstRaven_Bot@@@@V?$allocator@PAV?$Goal@VAbstRaven_Bot@@@@@std@@@std@@QAEPAU_Node@?$_List_nod@PAV?$Goal@VAbstRaven_Bot@@@@V?$allocator@PAV?$Goal@VAbstRaven_Bot@@@@@std@@@2@PAU342@0ABQAV?$Goal@VAbstRaven_Bot@@@@@Z
	jmp	___CxxFrameHandler3
text$x	ENDS
?_Buynode@?$_List_val@PAV?$Goal@VAbstRaven_Bot@@@@V?$allocator@PAV?$Goal@VAbstRaven_Bot@@@@@std@@@std@@QAEPAU_Node@?$_List_nod@PAV?$Goal@VAbstRaven_Bot@@@@V?$allocator@PAV?$Goal@VAbstRaven_Bot@@@@@std@@@2@PAU342@0ABQAV?$Goal@VAbstRaven_Bot@@@@@Z ENDP ; std::_List_val<Goal<AbstRaven_Bot> *,std::allocator<Goal<AbstRaven_Bot> *> >::_Buynode
; Function compile flags: /Odtp /RTCsu
; File c:\program files (x86)\microsoft visual studio 10.0\vc\include\xmemory
;	COMDAT ?deallocate@?$allocator@U_Node@?$_List_nod@PAV?$Goal@VAbstRaven_Bot@@@@V?$allocator@PAV?$Goal@VAbstRaven_Bot@@@@@std@@@std@@@std@@QAEXPAU_Node@?$_List_nod@PAV?$Goal@VAbstRaven_Bot@@@@V?$allocator@PAV?$Goal@VAbstRaven_Bot@@@@@std@@@2@I@Z
_TEXT	SEGMENT
_this$ = -4						; size = 4
__Ptr$ = 8						; size = 4
___formal$ = 12						; size = 4
?deallocate@?$allocator@U_Node@?$_List_nod@PAV?$Goal@VAbstRaven_Bot@@@@V?$allocator@PAV?$Goal@VAbstRaven_Bot@@@@@std@@@std@@@std@@QAEXPAU_Node@?$_List_nod@PAV?$Goal@VAbstRaven_Bot@@@@V?$allocator@PAV?$Goal@VAbstRaven_Bot@@@@@std@@@2@I@Z PROC ; std::allocator<std::_List_nod<Goal<AbstRaven_Bot> *,std::allocator<Goal<AbstRaven_Bot> *> >::_Node>::deallocate, COMDAT
; _this$ = ecx

; 181  : 		{	// deallocate object at _Ptr, ignore size

	push	ebp
	mov	ebp, esp
	push	ecx
	mov	DWORD PTR [ebp-4], -858993460		; ccccccccH
	mov	DWORD PTR _this$[ebp], ecx

; 182  : 		::operator delete(_Ptr);

	mov	eax, DWORD PTR __Ptr$[ebp]
	push	eax
	call	??3@YAXPAX@Z				; operator delete
	add	esp, 4

; 183  : 		}

	add	esp, 4
	cmp	ebp, esp
	call	__RTC_CheckEsp
	mov	esp, ebp
	pop	ebp
	ret	8
?deallocate@?$allocator@U_Node@?$_List_nod@PAV?$Goal@VAbstRaven_Bot@@@@V?$allocator@PAV?$Goal@VAbstRaven_Bot@@@@@std@@@std@@@std@@QAEXPAU_Node@?$_List_nod@PAV?$Goal@VAbstRaven_Bot@@@@V?$allocator@PAV?$Goal@VAbstRaven_Bot@@@@@std@@@2@I@Z ENDP ; std::allocator<std::_List_nod<Goal<AbstRaven_Bot> *,std::allocator<Goal<AbstRaven_Bot> *> >::_Node>::deallocate
_TEXT	ENDS
PUBLIC	??$_Allocate@U_Node@?$_List_nod@PAV?$Goal@VAbstRaven_Bot@@@@V?$allocator@PAV?$Goal@VAbstRaven_Bot@@@@@std@@@std@@@std@@YAPAU_Node@?$_List_nod@PAV?$Goal@VAbstRaven_Bot@@@@V?$allocator@PAV?$Goal@VAbstRaven_Bot@@@@@std@@@0@IPAU120@@Z ; std::_Allocate<std::_List_nod<Goal<AbstRaven_Bot> *,std::allocator<Goal<AbstRaven_Bot> *> >::_Node>
; Function compile flags: /Odtp /RTCsu
;	COMDAT ?allocate@?$allocator@U_Node@?$_List_nod@PAV?$Goal@VAbstRaven_Bot@@@@V?$allocator@PAV?$Goal@VAbstRaven_Bot@@@@@std@@@std@@@std@@QAEPAU_Node@?$_List_nod@PAV?$Goal@VAbstRaven_Bot@@@@V?$allocator@PAV?$Goal@VAbstRaven_Bot@@@@@std@@@2@I@Z
_TEXT	SEGMENT
_this$ = -4						; size = 4
__Count$ = 8						; size = 4
?allocate@?$allocator@U_Node@?$_List_nod@PAV?$Goal@VAbstRaven_Bot@@@@V?$allocator@PAV?$Goal@VAbstRaven_Bot@@@@@std@@@std@@@std@@QAEPAU_Node@?$_List_nod@PAV?$Goal@VAbstRaven_Bot@@@@V?$allocator@PAV?$Goal@VAbstRaven_Bot@@@@@std@@@2@I@Z PROC ; std::allocator<std::_List_nod<Goal<AbstRaven_Bot> *,std::allocator<Goal<AbstRaven_Bot> *> >::_Node>::allocate, COMDAT
; _this$ = ecx

; 186  : 		{	// allocate array of _Count elements

	push	ebp
	mov	ebp, esp
	push	ecx
	mov	DWORD PTR [ebp-4], -858993460		; ccccccccH
	mov	DWORD PTR _this$[ebp], ecx

; 187  : 		return (_Allocate(_Count, (pointer)0));

	push	0
	mov	eax, DWORD PTR __Count$[ebp]
	push	eax
	call	??$_Allocate@U_Node@?$_List_nod@PAV?$Goal@VAbstRaven_Bot@@@@V?$allocator@PAV?$Goal@VAbstRaven_Bot@@@@@std@@@std@@@std@@YAPAU_Node@?$_List_nod@PAV?$Goal@VAbstRaven_Bot@@@@V?$allocator@PAV?$Goal@VAbstRaven_Bot@@@@@std@@@0@IPAU120@@Z ; std::_Allocate<std::_List_nod<Goal<AbstRaven_Bot> *,std::allocator<Goal<AbstRaven_Bot> *> >::_Node>
	add	esp, 8

; 188  : 		}

	add	esp, 4
	cmp	ebp, esp
	call	__RTC_CheckEsp
	mov	esp, ebp
	pop	ebp
	ret	4
?allocate@?$allocator@U_Node@?$_List_nod@PAV?$Goal@VAbstRaven_Bot@@@@V?$allocator@PAV?$Goal@VAbstRaven_Bot@@@@@std@@@std@@@std@@QAEPAU_Node@?$_List_nod@PAV?$Goal@VAbstRaven_Bot@@@@V?$allocator@PAV?$Goal@VAbstRaven_Bot@@@@@std@@@2@I@Z ENDP ; std::allocator<std::_List_nod<Goal<AbstRaven_Bot> *,std::allocator<Goal<AbstRaven_Bot> *> >::_Node>::allocate
; Function compile flags: /Odtp /RTCsu
_TEXT	ENDS
;	COMDAT ??$_Allocate@U_Node@?$_List_nod@PAV?$Goal@VAbstRaven_Bot@@@@V?$allocator@PAV?$Goal@VAbstRaven_Bot@@@@@std@@@std@@@std@@YAPAU_Node@?$_List_nod@PAV?$Goal@VAbstRaven_Bot@@@@V?$allocator@PAV?$Goal@VAbstRaven_Bot@@@@@std@@@0@IPAU120@@Z
_TEXT	SEGMENT
$T142506 = -16						; size = 12
__Ptr$ = -4						; size = 4
__Count$ = 8						; size = 4
___formal$ = 12						; size = 4
??$_Allocate@U_Node@?$_List_nod@PAV?$Goal@VAbstRaven_Bot@@@@V?$allocator@PAV?$Goal@VAbstRaven_Bot@@@@@std@@@std@@@std@@YAPAU_Node@?$_List_nod@PAV?$Goal@VAbstRaven_Bot@@@@V?$allocator@PAV?$Goal@VAbstRaven_Bot@@@@@std@@@0@IPAU120@@Z PROC ; std::_Allocate<std::_List_nod<Goal<AbstRaven_Bot> *,std::allocator<Goal<AbstRaven_Bot> *> >::_Node>, COMDAT

; 30   : 	{	// allocate storage for _Count elements of type _Ty

	push	ebp
	mov	ebp, esp
	sub	esp, 16					; 00000010H
	mov	eax, -858993460				; ccccccccH
	mov	DWORD PTR [ebp-16], eax
	mov	DWORD PTR [ebp-12], eax
	mov	DWORD PTR [ebp-8], eax
	mov	DWORD PTR [ebp-4], eax

; 31   : 	void *_Ptr = 0;

	mov	DWORD PTR __Ptr$[ebp], 0

; 32   : 
; 33   : 	if (_Count <= 0)

	cmp	DWORD PTR __Count$[ebp], 0
	ja	SHORT $LN4@Allocate@4

; 34   : 		_Count = 0;

	mov	DWORD PTR __Count$[ebp], 0

; 35   : 	else if (((_SIZT)(-1) / sizeof (_Ty) < _Count)

	jmp	SHORT $LN3@Allocate@4
$LN4@Allocate@4:

; 36   : 		|| (_Ptr = ::operator new(_Count * sizeof (_Ty))) == 0)

	cmp	DWORD PTR __Count$[ebp], 357913941	; 15555555H
	ja	SHORT $LN1@Allocate@4
	mov	eax, DWORD PTR __Count$[ebp]
	imul	eax, 12					; 0000000cH
	push	eax
	call	??2@YAPAXI@Z				; operator new
	add	esp, 4
	mov	DWORD PTR __Ptr$[ebp], eax
	cmp	DWORD PTR __Ptr$[ebp], 0
	jne	SHORT $LN3@Allocate@4
$LN1@Allocate@4:

; 37   : 		_THROW_NCEE(bad_alloc, 0);

	push	0
	lea	ecx, DWORD PTR $T142506[ebp]
	call	??0bad_alloc@std@@QAE@PBD@Z		; std::bad_alloc::bad_alloc
	push	OFFSET __TI2?AVbad_alloc@std@@
	lea	ecx, DWORD PTR $T142506[ebp]
	push	ecx
	call	__CxxThrowException@8
$LN3@Allocate@4:

; 38   : 
; 39   : 	return ((_Ty _FARQ *)_Ptr);

	mov	eax, DWORD PTR __Ptr$[ebp]
$LN6@Allocate@4:

; 40   : 	}

	add	esp, 16					; 00000010H
	cmp	ebp, esp
	call	__RTC_CheckEsp
	mov	esp, ebp
	pop	ebp
	ret	0
??$_Allocate@U_Node@?$_List_nod@PAV?$Goal@VAbstRaven_Bot@@@@V?$allocator@PAV?$Goal@VAbstRaven_Bot@@@@@std@@@std@@@std@@YAPAU_Node@?$_List_nod@PAV?$Goal@VAbstRaven_Bot@@@@V?$allocator@PAV?$Goal@VAbstRaven_Bot@@@@@std@@@0@IPAU120@@Z ENDP ; std::_Allocate<std::_List_nod<Goal<AbstRaven_Bot> *,std::allocator<Goal<AbstRaven_Bot> *> >::_Node>
; Function compile flags: /Odtp /RTCsu
; File c:\program files (x86)\microsoft visual studio 10.0\vc\include\list
_TEXT	ENDS
;	COMDAT ?_Myval@?$_List_val@PAV?$Goal@VAbstRaven_Bot@@@@V?$allocator@PAV?$Goal@VAbstRaven_Bot@@@@@std@@@std@@SAAAPAV?$Goal@VAbstRaven_Bot@@@@PAU_Node@?$_List_nod@PAV?$Goal@VAbstRaven_Bot@@@@V?$allocator@PAV?$Goal@VAbstRaven_Bot@@@@@std@@@2@@Z
_TEXT	SEGMENT
__Pnode$ = 8						; size = 4
?_Myval@?$_List_val@PAV?$Goal@VAbstRaven_Bot@@@@V?$allocator@PAV?$Goal@VAbstRaven_Bot@@@@@std@@@std@@SAAAPAV?$Goal@VAbstRaven_Bot@@@@PAU_Node@?$_List_nod@PAV?$Goal@VAbstRaven_Bot@@@@V?$allocator@PAV?$Goal@VAbstRaven_Bot@@@@@std@@@2@@Z PROC ; std::_List_val<Goal<AbstRaven_Bot> *,std::allocator<Goal<AbstRaven_Bot> *> >::_Myval, COMDAT

; 570  : 		{	// return reference to value in node

	push	ebp
	mov	ebp, esp

; 571  : 		return ((reference)(*_Pnode)._Myval);

	mov	eax, DWORD PTR __Pnode$[ebp]
	add	eax, 8

; 572  : 		}

	pop	ebp
	ret	0
?_Myval@?$_List_val@PAV?$Goal@VAbstRaven_Bot@@@@V?$allocator@PAV?$Goal@VAbstRaven_Bot@@@@@std@@@std@@SAAAPAV?$Goal@VAbstRaven_Bot@@@@PAU_Node@?$_List_nod@PAV?$Goal@VAbstRaven_Bot@@@@V?$allocator@PAV?$Goal@VAbstRaven_Bot@@@@@std@@@2@@Z ENDP ; std::_List_val<Goal<AbstRaven_Bot> *,std::allocator<Goal<AbstRaven_Bot> *> >::_Myval
_TEXT	ENDS
PUBLIC	??0?$_List_unchecked_const_iterator@V?$_List_val@PAV?$Goal@VAbstRaven_Bot@@@@V?$allocator@PAV?$Goal@VAbstRaven_Bot@@@@@std@@@std@@U_Iterator_base12@2@@std@@QAE@XZ ; std::_List_unchecked_const_iterator<std::_List_val<Goal<AbstRaven_Bot> *,std::allocator<Goal<AbstRaven_Bot> *> >,std::_Iterator_base12>::_List_unchecked_const_iterator<std::_List_val<Goal<AbstRaven_Bot> *,std::allocator<Goal<AbstRaven_Bot> *> >,std::_Iterator_base12>
; Function compile flags: /Odtp /RTCsu
;	COMDAT ??0?$_List_const_iterator@V?$_List_val@PAV?$Goal@VAbstRaven_Bot@@@@V?$allocator@PAV?$Goal@VAbstRaven_Bot@@@@@std@@@std@@@std@@QAE@XZ
_TEXT	SEGMENT
_this$ = -4						; size = 4
??0?$_List_const_iterator@V?$_List_val@PAV?$Goal@VAbstRaven_Bot@@@@V?$allocator@PAV?$Goal@VAbstRaven_Bot@@@@@std@@@std@@@std@@QAE@XZ PROC ; std::_List_const_iterator<std::_List_val<Goal<AbstRaven_Bot> *,std::allocator<Goal<AbstRaven_Bot> *> > >::_List_const_iterator<std::_List_val<Goal<AbstRaven_Bot> *,std::allocator<Goal<AbstRaven_Bot> *> > >, COMDAT
; _this$ = ecx

; 179  : 		{	// construct with null node pointer

	push	ebp
	mov	ebp, esp
	push	ecx
	mov	DWORD PTR [ebp-4], -858993460		; ccccccccH
	mov	DWORD PTR _this$[ebp], ecx
	mov	ecx, DWORD PTR _this$[ebp]
	call	??0?$_List_unchecked_const_iterator@V?$_List_val@PAV?$Goal@VAbstRaven_Bot@@@@V?$allocator@PAV?$Goal@VAbstRaven_Bot@@@@@std@@@std@@U_Iterator_base12@2@@std@@QAE@XZ ; std::_List_unchecked_const_iterator<std::_List_val<Goal<AbstRaven_Bot> *,std::allocator<Goal<AbstRaven_Bot> *> >,std::_Iterator_base12>::_List_unchecked_const_iterator<std::_List_val<Goal<AbstRaven_Bot> *,std::allocator<Goal<AbstRaven_Bot> *> >,std::_Iterator_base12>

; 180  : 		}

	mov	eax, DWORD PTR _this$[ebp]
	add	esp, 4
	cmp	ebp, esp
	call	__RTC_CheckEsp
	mov	esp, ebp
	pop	ebp
	ret	0
??0?$_List_const_iterator@V?$_List_val@PAV?$Goal@VAbstRaven_Bot@@@@V?$allocator@PAV?$Goal@VAbstRaven_Bot@@@@@std@@@std@@@std@@QAE@XZ ENDP ; std::_List_const_iterator<std::_List_val<Goal<AbstRaven_Bot> *,std::allocator<Goal<AbstRaven_Bot> *> > >::_List_const_iterator<std::_List_val<Goal<AbstRaven_Bot> *,std::allocator<Goal<AbstRaven_Bot> *> > >
_TEXT	ENDS
PUBLIC	??0?$_List_unchecked_const_iterator@V?$_List_val@PAV?$Goal@VAbstRaven_Bot@@@@V?$allocator@PAV?$Goal@VAbstRaven_Bot@@@@@std@@@std@@U_Iterator_base12@2@@std@@QAE@PAU_Node@?$_List_nod@PAV?$Goal@VAbstRaven_Bot@@@@V?$allocator@PAV?$Goal@VAbstRaven_Bot@@@@@std@@@1@PBV?$_List_val@PAV?$Goal@VAbstRaven_Bot@@@@V?$allocator@PAV?$Goal@VAbstRaven_Bot@@@@@std@@@1@@Z ; std::_List_unchecked_const_iterator<std::_List_val<Goal<AbstRaven_Bot> *,std::allocator<Goal<AbstRaven_Bot> *> >,std::_Iterator_base12>::_List_unchecked_const_iterator<std::_List_val<Goal<AbstRaven_Bot> *,std::allocator<Goal<AbstRaven_Bot> *> >,std::_Iterator_base12>
; Function compile flags: /Odtp /RTCsu
;	COMDAT ??0?$_List_const_iterator@V?$_List_val@PAV?$Goal@VAbstRaven_Bot@@@@V?$allocator@PAV?$Goal@VAbstRaven_Bot@@@@@std@@@std@@@std@@QAE@PAU_Node@?$_List_nod@PAV?$Goal@VAbstRaven_Bot@@@@V?$allocator@PAV?$Goal@VAbstRaven_Bot@@@@@std@@@1@PBV?$_List_val@PAV?$Goal@VAbstRaven_Bot@@@@V?$allocator@PAV?$Goal@VAbstRaven_Bot@@@@@std@@@1@@Z
_TEXT	SEGMENT
_this$ = -4						; size = 4
__Pnode$ = 8						; size = 4
__Plist$ = 12						; size = 4
??0?$_List_const_iterator@V?$_List_val@PAV?$Goal@VAbstRaven_Bot@@@@V?$allocator@PAV?$Goal@VAbstRaven_Bot@@@@@std@@@std@@@std@@QAE@PAU_Node@?$_List_nod@PAV?$Goal@VAbstRaven_Bot@@@@V?$allocator@PAV?$Goal@VAbstRaven_Bot@@@@@std@@@1@PBV?$_List_val@PAV?$Goal@VAbstRaven_Bot@@@@V?$allocator@PAV?$Goal@VAbstRaven_Bot@@@@@std@@@1@@Z PROC ; std::_List_const_iterator<std::_List_val<Goal<AbstRaven_Bot> *,std::allocator<Goal<AbstRaven_Bot> *> > >::_List_const_iterator<std::_List_val<Goal<AbstRaven_Bot> *,std::allocator<Goal<AbstRaven_Bot> *> > >, COMDAT
; _this$ = ecx

; 184  : 		{	// construct with node pointer _Pnode

	push	ebp
	mov	ebp, esp
	push	ecx
	mov	DWORD PTR [ebp-4], -858993460		; ccccccccH
	mov	DWORD PTR _this$[ebp], ecx
	mov	eax, DWORD PTR __Plist$[ebp]
	push	eax
	mov	ecx, DWORD PTR __Pnode$[ebp]
	push	ecx
	mov	ecx, DWORD PTR _this$[ebp]
	call	??0?$_List_unchecked_const_iterator@V?$_List_val@PAV?$Goal@VAbstRaven_Bot@@@@V?$allocator@PAV?$Goal@VAbstRaven_Bot@@@@@std@@@std@@U_Iterator_base12@2@@std@@QAE@PAU_Node@?$_List_nod@PAV?$Goal@VAbstRaven_Bot@@@@V?$allocator@PAV?$Goal@VAbstRaven_Bot@@@@@std@@@1@PBV?$_List_val@PAV?$Goal@VAbstRaven_Bot@@@@V?$allocator@PAV?$Goal@VAbstRaven_Bot@@@@@std@@@1@@Z ; std::_List_unchecked_const_iterator<std::_List_val<Goal<AbstRaven_Bot> *,std::allocator<Goal<AbstRaven_Bot> *> >,std::_Iterator_base12>::_List_unchecked_const_iterator<std::_List_val<Goal<AbstRaven_Bot> *,std::allocator<Goal<AbstRaven_Bot> *> >,std::_Iterator_base12>

; 185  : 		}

	mov	eax, DWORD PTR _this$[ebp]
	add	esp, 4
	cmp	ebp, esp
	call	__RTC_CheckEsp
	mov	esp, ebp
	pop	ebp
	ret	8
??0?$_List_const_iterator@V?$_List_val@PAV?$Goal@VAbstRaven_Bot@@@@V?$allocator@PAV?$Goal@VAbstRaven_Bot@@@@@std@@@std@@@std@@QAE@PAU_Node@?$_List_nod@PAV?$Goal@VAbstRaven_Bot@@@@V?$allocator@PAV?$Goal@VAbstRaven_Bot@@@@@std@@@1@PBV?$_List_val@PAV?$Goal@VAbstRaven_Bot@@@@V?$allocator@PAV?$Goal@VAbstRaven_Bot@@@@@std@@@1@@Z ENDP ; std::_List_const_iterator<std::_List_val<Goal<AbstRaven_Bot> *,std::allocator<Goal<AbstRaven_Bot> *> > >::_List_const_iterator<std::_List_val<Goal<AbstRaven_Bot> *,std::allocator<Goal<AbstRaven_Bot> *> > >
; Function compile flags: /Odtp /RTCsu
_TEXT	ENDS
;	COMDAT ?_Mynode@?$_List_unchecked_const_iterator@V?$_List_val@PAV?$Goal@VAbstRaven_Bot@@@@V?$allocator@PAV?$Goal@VAbstRaven_Bot@@@@@std@@@std@@U_Iterator_base12@2@@std@@QBEPAU_Node@?$_List_nod@PAV?$Goal@VAbstRaven_Bot@@@@V?$allocator@PAV?$Goal@VAbstRaven_Bot@@@@@std@@@2@XZ
_TEXT	SEGMENT
_this$ = -4						; size = 4
?_Mynode@?$_List_unchecked_const_iterator@V?$_List_val@PAV?$Goal@VAbstRaven_Bot@@@@V?$allocator@PAV?$Goal@VAbstRaven_Bot@@@@@std@@@std@@U_Iterator_base12@2@@std@@QBEPAU_Node@?$_List_nod@PAV?$Goal@VAbstRaven_Bot@@@@V?$allocator@PAV?$Goal@VAbstRaven_Bot@@@@@std@@@2@XZ PROC ; std::_List_unchecked_const_iterator<std::_List_val<Goal<AbstRaven_Bot> *,std::allocator<Goal<AbstRaven_Bot> *> >,std::_Iterator_base12>::_Mynode, COMDAT
; _this$ = ecx

; 92   : 		{	// return node pointer

	push	ebp
	mov	ebp, esp
	push	ecx
	mov	DWORD PTR [ebp-4], -858993460		; ccccccccH
	mov	DWORD PTR _this$[ebp], ecx

; 93   : 		return (_Ptr);

	mov	eax, DWORD PTR _this$[ebp]
	mov	eax, DWORD PTR [eax+8]

; 94   : 		}

	mov	esp, ebp
	pop	ebp
	ret	0
?_Mynode@?$_List_unchecked_const_iterator@V?$_List_val@PAV?$Goal@VAbstRaven_Bot@@@@V?$allocator@PAV?$Goal@VAbstRaven_Bot@@@@@std@@@std@@U_Iterator_base12@2@@std@@QBEPAU_Node@?$_List_nod@PAV?$Goal@VAbstRaven_Bot@@@@V?$allocator@PAV?$Goal@VAbstRaven_Bot@@@@@std@@@2@XZ ENDP ; std::_List_unchecked_const_iterator<std::_List_val<Goal<AbstRaven_Bot> *,std::allocator<Goal<AbstRaven_Bot> *> >,std::_Iterator_base12>::_Mynode
_TEXT	ENDS
;	COMDAT xdata$x
; File c:\program files (x86)\microsoft visual studio 10.0\vc\include\xutility
xdata$x	SEGMENT
__unwindtable$??0?$_Revranit@V?$_List_const_iterator@V?$_List_val@PAV?$Goal@VAbstRaven_Bot@@@@V?$allocator@PAV?$Goal@VAbstRaven_Bot@@@@@std@@@std@@@std@@U?$iterator@Ubidirectional_iterator_tag@std@@PAV?$Goal@VAbstRaven_Bot@@@@HPBQAV3@ABQAV3@@2@@std@@QAE@V?$_List_const_iterator@V?$_List_val@PAV?$Goal@VAbstRaven_Bot@@@@V?$allocator@PAV?$Goal@VAbstRaven_Bot@@@@@std@@@std@@@1@@Z DD 0ffffffffH
	DD	FLAT:__unwindfunclet$??0?$_Revranit@V?$_List_const_iterator@V?$_List_val@PAV?$Goal@VAbstRaven_Bot@@@@V?$allocator@PAV?$Goal@VAbstRaven_Bot@@@@@std@@@std@@@std@@U?$iterator@Ubidirectional_iterator_tag@std@@PAV?$Goal@VAbstRaven_Bot@@@@HPBQAV3@ABQAV3@@2@@std@@QAE@V?$_List_const_iterator@V?$_List_val@PAV?$Goal@VAbstRaven_Bot@@@@V?$allocator@PAV?$Goal@VAbstRaven_Bot@@@@@std@@@std@@@1@@Z$0
__ehfuncinfo$??0?$_Revranit@V?$_List_const_iterator@V?$_List_val@PAV?$Goal@VAbstRaven_Bot@@@@V?$allocator@PAV?$Goal@VAbstRaven_Bot@@@@@std@@@std@@@std@@U?$iterator@Ubidirectional_iterator_tag@std@@PAV?$Goal@VAbstRaven_Bot@@@@HPBQAV3@ABQAV3@@2@@std@@QAE@V?$_List_const_iterator@V?$_List_val@PAV?$Goal@VAbstRaven_Bot@@@@V?$allocator@PAV?$Goal@VAbstRaven_Bot@@@@@std@@@std@@@1@@Z DD 019930522H
	DD	01H
	DD	FLAT:__unwindtable$??0?$_Revranit@V?$_List_const_iterator@V?$_List_val@PAV?$Goal@VAbstRaven_Bot@@@@V?$allocator@PAV?$Goal@VAbstRaven_Bot@@@@@std@@@std@@@std@@U?$iterator@Ubidirectional_iterator_tag@std@@PAV?$Goal@VAbstRaven_Bot@@@@HPBQAV3@ABQAV3@@2@@std@@QAE@V?$_List_const_iterator@V?$_List_val@PAV?$Goal@VAbstRaven_Bot@@@@V?$allocator@PAV?$Goal@VAbstRaven_Bot@@@@@std@@@std@@@1@@Z
	DD	2 DUP(00H)
	DD	2 DUP(00H)
	DD	00H
	DD	01H
; Function compile flags: /Odtp /RTCsu
xdata$x	ENDS
;	COMDAT ??0?$_Revranit@V?$_List_const_iterator@V?$_List_val@PAV?$Goal@VAbstRaven_Bot@@@@V?$allocator@PAV?$Goal@VAbstRaven_Bot@@@@@std@@@std@@@std@@U?$iterator@Ubidirectional_iterator_tag@std@@PAV?$Goal@VAbstRaven_Bot@@@@HPBQAV3@ABQAV3@@2@@std@@QAE@V?$_List_const_iterator@V?$_List_val@PAV?$Goal@VAbstRaven_Bot@@@@V?$allocator@PAV?$Goal@VAbstRaven_Bot@@@@@std@@@std@@@1@@Z
_TEXT	SEGMENT
_this$ = -16						; size = 4
__$EHRec$ = -12						; size = 12
__Right$ = 8						; size = 12
??0?$_Revranit@V?$_List_const_iterator@V?$_List_val@PAV?$Goal@VAbstRaven_Bot@@@@V?$allocator@PAV?$Goal@VAbstRaven_Bot@@@@@std@@@std@@@std@@U?$iterator@Ubidirectional_iterator_tag@std@@PAV?$Goal@VAbstRaven_Bot@@@@HPBQAV3@ABQAV3@@2@@std@@QAE@V?$_List_const_iterator@V?$_List_val@PAV?$Goal@VAbstRaven_Bot@@@@V?$allocator@PAV?$Goal@VAbstRaven_Bot@@@@@std@@@std@@@1@@Z PROC ; std::_Revranit<std::_List_const_iterator<std::_List_val<Goal<AbstRaven_Bot> *,std::allocator<Goal<AbstRaven_Bot> *> > >,std::iterator<std::bidirectional_iterator_tag,Goal<AbstRaven_Bot> *,int,Goal<AbstRaven_Bot> * const *,Goal<AbstRaven_Bot> * const &> >::_Revranit<std::_List_const_iterator<std::_List_val<Goal<AbstRaven_Bot> *,std::allocator<Goal<AbstRaven_Bot> *> > >,std::iterator<std::bidirectional_iterator_tag,Goal<AbstRaven_Bot> *,int,Goal<AbstRaven_Bot> * const *,Goal<AbstRaven_Bot> * const &> >, COMDAT
; _this$ = ecx

; 1039 : 		{	// construct wrapped iterator from _Right

	push	ebp
	mov	ebp, esp
	push	-1
	push	__ehhandler$??0?$_Revranit@V?$_List_const_iterator@V?$_List_val@PAV?$Goal@VAbstRaven_Bot@@@@V?$allocator@PAV?$Goal@VAbstRaven_Bot@@@@@std@@@std@@@std@@U?$iterator@Ubidirectional_iterator_tag@std@@PAV?$Goal@VAbstRaven_Bot@@@@HPBQAV3@ABQAV3@@2@@std@@QAE@V?$_List_const_iterator@V?$_List_val@PAV?$Goal@VAbstRaven_Bot@@@@V?$allocator@PAV?$Goal@VAbstRaven_Bot@@@@@std@@@std@@@1@@Z
	mov	eax, DWORD PTR fs:0
	push	eax
	push	ecx
	mov	DWORD PTR [ebp-16], -858993460		; ccccccccH
	mov	eax, DWORD PTR ___security_cookie
	xor	eax, ebp
	push	eax
	lea	eax, DWORD PTR __$EHRec$[ebp]
	mov	DWORD PTR fs:0, eax
	mov	DWORD PTR _this$[ebp], ecx
	mov	DWORD PTR __$EHRec$[ebp+8], 0
	lea	eax, DWORD PTR __Right$[ebp]
	push	eax
	mov	ecx, DWORD PTR _this$[ebp]
	call	??0?$_List_const_iterator@V?$_List_val@PAV?$Goal@VAbstRaven_Bot@@@@V?$allocator@PAV?$Goal@VAbstRaven_Bot@@@@@std@@@std@@@std@@QAE@ABV01@@Z

; 1040 : 		}

	mov	DWORD PTR __$EHRec$[ebp+8], -1
	lea	ecx, DWORD PTR __Right$[ebp]
	call	??1?$_List_const_iterator@V?$_List_val@PAV?$Goal@VAbstRaven_Bot@@@@V?$allocator@PAV?$Goal@VAbstRaven_Bot@@@@@std@@@std@@@std@@QAE@XZ
	mov	eax, DWORD PTR _this$[ebp]
	mov	ecx, DWORD PTR __$EHRec$[ebp]
	mov	DWORD PTR fs:0, ecx
	pop	ecx
	add	esp, 16					; 00000010H
	cmp	ebp, esp
	call	__RTC_CheckEsp
	mov	esp, ebp
	pop	ebp
	ret	12					; 0000000cH
_TEXT	ENDS
;	COMDAT text$x
text$x	SEGMENT
__unwindfunclet$??0?$_Revranit@V?$_List_const_iterator@V?$_List_val@PAV?$Goal@VAbstRaven_Bot@@@@V?$allocator@PAV?$Goal@VAbstRaven_Bot@@@@@std@@@std@@@std@@U?$iterator@Ubidirectional_iterator_tag@std@@PAV?$Goal@VAbstRaven_Bot@@@@HPBQAV3@ABQAV3@@2@@std@@QAE@V?$_List_const_iterator@V?$_List_val@PAV?$Goal@VAbstRaven_Bot@@@@V?$allocator@PAV?$Goal@VAbstRaven_Bot@@@@@std@@@std@@@1@@Z$0:
	lea	ecx, DWORD PTR __Right$[ebp]
	jmp	??1?$_List_const_iterator@V?$_List_val@PAV?$Goal@VAbstRaven_Bot@@@@V?$allocator@PAV?$Goal@VAbstRaven_Bot@@@@@std@@@std@@@std@@QAE@XZ
__ehhandler$??0?$_Revranit@V?$_List_const_iterator@V?$_List_val@PAV?$Goal@VAbstRaven_Bot@@@@V?$allocator@PAV?$Goal@VAbstRaven_Bot@@@@@std@@@std@@@std@@U?$iterator@Ubidirectional_iterator_tag@std@@PAV?$Goal@VAbstRaven_Bot@@@@HPBQAV3@ABQAV3@@2@@std@@QAE@V?$_List_const_iterator@V?$_List_val@PAV?$Goal@VAbstRaven_Bot@@@@V?$allocator@PAV?$Goal@VAbstRaven_Bot@@@@@std@@@std@@@1@@Z:
	mov	edx, DWORD PTR [esp+8]
	lea	eax, DWORD PTR [edx+12]
	mov	ecx, DWORD PTR [edx-8]
	xor	ecx, eax
	call	@__security_check_cookie@4
	mov	eax, OFFSET __ehfuncinfo$??0?$_Revranit@V?$_List_const_iterator@V?$_List_val@PAV?$Goal@VAbstRaven_Bot@@@@V?$allocator@PAV?$Goal@VAbstRaven_Bot@@@@@std@@@std@@@std@@U?$iterator@Ubidirectional_iterator_tag@std@@PAV?$Goal@VAbstRaven_Bot@@@@HPBQAV3@ABQAV3@@2@@std@@QAE@V?$_List_const_iterator@V?$_List_val@PAV?$Goal@VAbstRaven_Bot@@@@V?$allocator@PAV?$Goal@VAbstRaven_Bot@@@@@std@@@std@@@1@@Z
	jmp	___CxxFrameHandler3
text$x	ENDS
??0?$_Revranit@V?$_List_const_iterator@V?$_List_val@PAV?$Goal@VAbstRaven_Bot@@@@V?$allocator@PAV?$Goal@VAbstRaven_Bot@@@@@std@@@std@@@std@@U?$iterator@Ubidirectional_iterator_tag@std@@PAV?$Goal@VAbstRaven_Bot@@@@HPBQAV3@ABQAV3@@2@@std@@QAE@V?$_List_const_iterator@V?$_List_val@PAV?$Goal@VAbstRaven_Bot@@@@V?$allocator@PAV?$Goal@VAbstRaven_Bot@@@@@std@@@std@@@1@@Z ENDP ; std::_Revranit<std::_List_const_iterator<std::_List_val<Goal<AbstRaven_Bot> *,std::allocator<Goal<AbstRaven_Bot> *> > >,std::iterator<std::bidirectional_iterator_tag,Goal<AbstRaven_Bot> *,int,Goal<AbstRaven_Bot> * const *,Goal<AbstRaven_Bot> * const &> >::_Revranit<std::_List_const_iterator<std::_List_val<Goal<AbstRaven_Bot> *,std::allocator<Goal<AbstRaven_Bot> *> > >,std::iterator<std::bidirectional_iterator_tag,Goal<AbstRaven_Bot> *,int,Goal<AbstRaven_Bot> * const *,Goal<AbstRaven_Bot> * const &> >
PUBLIC	?max_size@?$allocator@PAV?$Goal@VAbstRaven_Bot@@@@@std@@QBEIXZ ; std::allocator<Goal<AbstRaven_Bot> *>::max_size
; Function compile flags: /Odtp /RTCsu
; File c:\program files (x86)\microsoft visual studio 10.0\vc\include\list
;	COMDAT ?max_size@?$list@PAV?$Goal@VAbstRaven_Bot@@@@V?$allocator@PAV?$Goal@VAbstRaven_Bot@@@@@std@@@std@@QBEIXZ
_TEXT	SEGMENT
_this$ = -4						; size = 4
?max_size@?$list@PAV?$Goal@VAbstRaven_Bot@@@@V?$allocator@PAV?$Goal@VAbstRaven_Bot@@@@@std@@@std@@QBEIXZ PROC ; std::list<Goal<AbstRaven_Bot> *,std::allocator<Goal<AbstRaven_Bot> *> >::max_size, COMDAT
; _this$ = ecx

; 881  : 		{	// return maximum possible length of sequence

	push	ebp
	mov	ebp, esp
	push	ecx
	mov	DWORD PTR [ebp-4], -858993460		; ccccccccH
	mov	DWORD PTR _this$[ebp], ecx

; 882  : 		return (this->_Alval.max_size());

	mov	ecx, DWORD PTR _this$[ebp]
	add	ecx, 13					; 0000000dH
	call	?max_size@?$allocator@PAV?$Goal@VAbstRaven_Bot@@@@@std@@QBEIXZ ; std::allocator<Goal<AbstRaven_Bot> *>::max_size

; 883  : 		}

	add	esp, 4
	cmp	ebp, esp
	call	__RTC_CheckEsp
	mov	esp, ebp
	pop	ebp
	ret	0
?max_size@?$list@PAV?$Goal@VAbstRaven_Bot@@@@V?$allocator@PAV?$Goal@VAbstRaven_Bot@@@@@std@@@std@@QBEIXZ ENDP ; std::list<Goal<AbstRaven_Bot> *,std::allocator<Goal<AbstRaven_Bot> *> >::max_size
_TEXT	ENDS
PUBLIC	??0?$_Iterator012@Ubidirectional_iterator_tag@std@@PAV?$Goal@VAbstRaven_Bot@@@@HPBQAV3@ABQAV3@U_Iterator_base12@2@@std@@QAE@XZ ; std::_Iterator012<std::bidirectional_iterator_tag,Goal<AbstRaven_Bot> *,int,Goal<AbstRaven_Bot> * const *,Goal<AbstRaven_Bot> * const &,std::_Iterator_base12>::_Iterator012<std::bidirectional_iterator_tag,Goal<AbstRaven_Bot> *,int,Goal<AbstRaven_Bot> * const *,Goal<AbstRaven_Bot> * const &,std::_Iterator_base12>
; Function compile flags: /Odtp /RTCsu
;	COMDAT ??0?$_List_unchecked_const_iterator@V?$_List_val@PAV?$Goal@VAbstRaven_Bot@@@@V?$allocator@PAV?$Goal@VAbstRaven_Bot@@@@@std@@@std@@U_Iterator_base12@2@@std@@QAE@XZ
_TEXT	SEGMENT
_this$ = -4						; size = 4
??0?$_List_unchecked_const_iterator@V?$_List_val@PAV?$Goal@VAbstRaven_Bot@@@@V?$allocator@PAV?$Goal@VAbstRaven_Bot@@@@@std@@@std@@U_Iterator_base12@2@@std@@QAE@XZ PROC ; std::_List_unchecked_const_iterator<std::_List_val<Goal<AbstRaven_Bot> *,std::allocator<Goal<AbstRaven_Bot> *> >,std::_Iterator_base12>::_List_unchecked_const_iterator<std::_List_val<Goal<AbstRaven_Bot> *,std::allocator<Goal<AbstRaven_Bot> *> >,std::_Iterator_base12>, COMDAT
; _this$ = ecx

; 36   : 		{	// construct with null node pointer

	push	ebp
	mov	ebp, esp
	push	ecx
	mov	DWORD PTR [ebp-4], -858993460		; ccccccccH
	mov	DWORD PTR _this$[ebp], ecx
	mov	ecx, DWORD PTR _this$[ebp]
	call	??0?$_Iterator012@Ubidirectional_iterator_tag@std@@PAV?$Goal@VAbstRaven_Bot@@@@HPBQAV3@ABQAV3@U_Iterator_base12@2@@std@@QAE@XZ
	mov	eax, DWORD PTR _this$[ebp]
	mov	DWORD PTR [eax+8], 0

; 37   : 		}

	mov	eax, DWORD PTR _this$[ebp]
	add	esp, 4
	cmp	ebp, esp
	call	__RTC_CheckEsp
	mov	esp, ebp
	pop	ebp
	ret	0
??0?$_List_unchecked_const_iterator@V?$_List_val@PAV?$Goal@VAbstRaven_Bot@@@@V?$allocator@PAV?$Goal@VAbstRaven_Bot@@@@@std@@@std@@U_Iterator_base12@2@@std@@QAE@XZ ENDP ; std::_List_unchecked_const_iterator<std::_List_val<Goal<AbstRaven_Bot> *,std::allocator<Goal<AbstRaven_Bot> *> >,std::_Iterator_base12>::_List_unchecked_const_iterator<std::_List_val<Goal<AbstRaven_Bot> *,std::allocator<Goal<AbstRaven_Bot> *> >,std::_Iterator_base12>
_TEXT	ENDS
;	COMDAT xdata$x
xdata$x	SEGMENT
__unwindtable$??0?$_List_unchecked_const_iterator@V?$_List_val@PAV?$Goal@VAbstRaven_Bot@@@@V?$allocator@PAV?$Goal@VAbstRaven_Bot@@@@@std@@@std@@U_Iterator_base12@2@@std@@QAE@PAU_Node@?$_List_nod@PAV?$Goal@VAbstRaven_Bot@@@@V?$allocator@PAV?$Goal@VAbstRaven_Bot@@@@@std@@@1@PBV?$_List_val@PAV?$Goal@VAbstRaven_Bot@@@@V?$allocator@PAV?$Goal@VAbstRaven_Bot@@@@@std@@@1@@Z DD 0ffffffffH
	DD	FLAT:__unwindfunclet$??0?$_List_unchecked_const_iterator@V?$_List_val@PAV?$Goal@VAbstRaven_Bot@@@@V?$allocator@PAV?$Goal@VAbstRaven_Bot@@@@@std@@@std@@U_Iterator_base12@2@@std@@QAE@PAU_Node@?$_List_nod@PAV?$Goal@VAbstRaven_Bot@@@@V?$allocator@PAV?$Goal@VAbstRaven_Bot@@@@@std@@@1@PBV?$_List_val@PAV?$Goal@VAbstRaven_Bot@@@@V?$allocator@PAV?$Goal@VAbstRaven_Bot@@@@@std@@@1@@Z$0
__ehfuncinfo$??0?$_List_unchecked_const_iterator@V?$_List_val@PAV?$Goal@VAbstRaven_Bot@@@@V?$allocator@PAV?$Goal@VAbstRaven_Bot@@@@@std@@@std@@U_Iterator_base12@2@@std@@QAE@PAU_Node@?$_List_nod@PAV?$Goal@VAbstRaven_Bot@@@@V?$allocator@PAV?$Goal@VAbstRaven_Bot@@@@@std@@@1@PBV?$_List_val@PAV?$Goal@VAbstRaven_Bot@@@@V?$allocator@PAV?$Goal@VAbstRaven_Bot@@@@@std@@@1@@Z DD 019930522H
	DD	01H
	DD	FLAT:__unwindtable$??0?$_List_unchecked_const_iterator@V?$_List_val@PAV?$Goal@VAbstRaven_Bot@@@@V?$allocator@PAV?$Goal@VAbstRaven_Bot@@@@@std@@@std@@U_Iterator_base12@2@@std@@QAE@PAU_Node@?$_List_nod@PAV?$Goal@VAbstRaven_Bot@@@@V?$allocator@PAV?$Goal@VAbstRaven_Bot@@@@@std@@@1@PBV?$_List_val@PAV?$Goal@VAbstRaven_Bot@@@@V?$allocator@PAV?$Goal@VAbstRaven_Bot@@@@@std@@@1@@Z
	DD	2 DUP(00H)
	DD	2 DUP(00H)
	DD	00H
	DD	01H
; Function compile flags: /Odtp /RTCsu
xdata$x	ENDS
;	COMDAT ??0?$_List_unchecked_const_iterator@V?$_List_val@PAV?$Goal@VAbstRaven_Bot@@@@V?$allocator@PAV?$Goal@VAbstRaven_Bot@@@@@std@@@std@@U_Iterator_base12@2@@std@@QAE@PAU_Node@?$_List_nod@PAV?$Goal@VAbstRaven_Bot@@@@V?$allocator@PAV?$Goal@VAbstRaven_Bot@@@@@std@@@1@PBV?$_List_val@PAV?$Goal@VAbstRaven_Bot@@@@V?$allocator@PAV?$Goal@VAbstRaven_Bot@@@@@std@@@1@@Z
_TEXT	SEGMENT
_this$ = -16						; size = 4
__$EHRec$ = -12						; size = 12
__Pnode$ = 8						; size = 4
__Plist$ = 12						; size = 4
??0?$_List_unchecked_const_iterator@V?$_List_val@PAV?$Goal@VAbstRaven_Bot@@@@V?$allocator@PAV?$Goal@VAbstRaven_Bot@@@@@std@@@std@@U_Iterator_base12@2@@std@@QAE@PAU_Node@?$_List_nod@PAV?$Goal@VAbstRaven_Bot@@@@V?$allocator@PAV?$Goal@VAbstRaven_Bot@@@@@std@@@1@PBV?$_List_val@PAV?$Goal@VAbstRaven_Bot@@@@V?$allocator@PAV?$Goal@VAbstRaven_Bot@@@@@std@@@1@@Z PROC ; std::_List_unchecked_const_iterator<std::_List_val<Goal<AbstRaven_Bot> *,std::allocator<Goal<AbstRaven_Bot> *> >,std::_Iterator_base12>::_List_unchecked_const_iterator<std::_List_val<Goal<AbstRaven_Bot> *,std::allocator<Goal<AbstRaven_Bot> *> >,std::_Iterator_base12>, COMDAT
; _this$ = ecx

; 41   : 		{	// construct with node pointer _Pnode

	push	ebp
	mov	ebp, esp
	push	-1
	push	__ehhandler$??0?$_List_unchecked_const_iterator@V?$_List_val@PAV?$Goal@VAbstRaven_Bot@@@@V?$allocator@PAV?$Goal@VAbstRaven_Bot@@@@@std@@@std@@U_Iterator_base12@2@@std@@QAE@PAU_Node@?$_List_nod@PAV?$Goal@VAbstRaven_Bot@@@@V?$allocator@PAV?$Goal@VAbstRaven_Bot@@@@@std@@@1@PBV?$_List_val@PAV?$Goal@VAbstRaven_Bot@@@@V?$allocator@PAV?$Goal@VAbstRaven_Bot@@@@@std@@@1@@Z
	mov	eax, DWORD PTR fs:0
	push	eax
	push	ecx
	mov	DWORD PTR [ebp-16], -858993460		; ccccccccH
	mov	eax, DWORD PTR ___security_cookie
	xor	eax, ebp
	push	eax
	lea	eax, DWORD PTR __$EHRec$[ebp]
	mov	DWORD PTR fs:0, eax
	mov	DWORD PTR _this$[ebp], ecx
	mov	ecx, DWORD PTR _this$[ebp]
	call	??0?$_Iterator012@Ubidirectional_iterator_tag@std@@PAV?$Goal@VAbstRaven_Bot@@@@HPBQAV3@ABQAV3@U_Iterator_base12@2@@std@@QAE@XZ
	mov	DWORD PTR __$EHRec$[ebp+8], 0
	mov	eax, DWORD PTR _this$[ebp]
	mov	ecx, DWORD PTR __Pnode$[ebp]
	mov	DWORD PTR [eax+8], ecx

; 42   : 		this->_Adopt(_Plist);

	mov	edx, DWORD PTR __Plist$[ebp]
	push	edx
	mov	ecx, DWORD PTR _this$[ebp]
	call	?_Adopt@_Iterator_base12@std@@QAEXPBU_Container_base12@2@@Z ; std::_Iterator_base12::_Adopt

; 43   : 		}

	mov	DWORD PTR __$EHRec$[ebp+8], -1
	mov	eax, DWORD PTR _this$[ebp]
	mov	ecx, DWORD PTR __$EHRec$[ebp]
	mov	DWORD PTR fs:0, ecx
	pop	ecx
	add	esp, 16					; 00000010H
	cmp	ebp, esp
	call	__RTC_CheckEsp
	mov	esp, ebp
	pop	ebp
	ret	8
_TEXT	ENDS
;	COMDAT text$x
text$x	SEGMENT
__unwindfunclet$??0?$_List_unchecked_const_iterator@V?$_List_val@PAV?$Goal@VAbstRaven_Bot@@@@V?$allocator@PAV?$Goal@VAbstRaven_Bot@@@@@std@@@std@@U_Iterator_base12@2@@std@@QAE@PAU_Node@?$_List_nod@PAV?$Goal@VAbstRaven_Bot@@@@V?$allocator@PAV?$Goal@VAbstRaven_Bot@@@@@std@@@1@PBV?$_List_val@PAV?$Goal@VAbstRaven_Bot@@@@V?$allocator@PAV?$Goal@VAbstRaven_Bot@@@@@std@@@1@@Z$0:
	mov	ecx, DWORD PTR _this$[ebp]
	jmp	??1?$_Iterator012@Ubidirectional_iterator_tag@std@@PAV?$Goal@VAbstRaven_Bot@@@@HPBQAV3@ABQAV3@U_Iterator_base12@2@@std@@QAE@XZ
__ehhandler$??0?$_List_unchecked_const_iterator@V?$_List_val@PAV?$Goal@VAbstRaven_Bot@@@@V?$allocator@PAV?$Goal@VAbstRaven_Bot@@@@@std@@@std@@U_Iterator_base12@2@@std@@QAE@PAU_Node@?$_List_nod@PAV?$Goal@VAbstRaven_Bot@@@@V?$allocator@PAV?$Goal@VAbstRaven_Bot@@@@@std@@@1@PBV?$_List_val@PAV?$Goal@VAbstRaven_Bot@@@@V?$allocator@PAV?$Goal@VAbstRaven_Bot@@@@@std@@@1@@Z:
	mov	edx, DWORD PTR [esp+8]
	lea	eax, DWORD PTR [edx+12]
	mov	ecx, DWORD PTR [edx-8]
	xor	ecx, eax
	call	@__security_check_cookie@4
	mov	eax, OFFSET __ehfuncinfo$??0?$_List_unchecked_const_iterator@V?$_List_val@PAV?$Goal@VAbstRaven_Bot@@@@V?$allocator@PAV?$Goal@VAbstRaven_Bot@@@@@std@@@std@@U_Iterator_base12@2@@std@@QAE@PAU_Node@?$_List_nod@PAV?$Goal@VAbstRaven_Bot@@@@V?$allocator@PAV?$Goal@VAbstRaven_Bot@@@@@std@@@1@PBV?$_List_val@PAV?$Goal@VAbstRaven_Bot@@@@V?$allocator@PAV?$Goal@VAbstRaven_Bot@@@@@std@@@1@@Z
	jmp	___CxxFrameHandler3
text$x	ENDS
??0?$_List_unchecked_const_iterator@V?$_List_val@PAV?$Goal@VAbstRaven_Bot@@@@V?$allocator@PAV?$Goal@VAbstRaven_Bot@@@@@std@@@std@@U_Iterator_base12@2@@std@@QAE@PAU_Node@?$_List_nod@PAV?$Goal@VAbstRaven_Bot@@@@V?$allocator@PAV?$Goal@VAbstRaven_Bot@@@@@std@@@1@PBV?$_List_val@PAV?$Goal@VAbstRaven_Bot@@@@V?$allocator@PAV?$Goal@VAbstRaven_Bot@@@@@std@@@1@@Z ENDP ; std::_List_unchecked_const_iterator<std::_List_val<Goal<AbstRaven_Bot> *,std::allocator<Goal<AbstRaven_Bot> *> >,std::_Iterator_base12>::_List_unchecked_const_iterator<std::_List_val<Goal<AbstRaven_Bot> *,std::allocator<Goal<AbstRaven_Bot> *> >,std::_Iterator_base12>
; Function compile flags: /Odtp /RTCsu
;	COMDAT ??0?$_Iterator012@Ubidirectional_iterator_tag@std@@PAV?$Goal@VAbstRaven_Bot@@@@HPBQAV3@ABQAV3@U_Iterator_base12@2@@std@@QAE@XZ
_TEXT	SEGMENT
_this$ = -4						; size = 4
??0?$_Iterator012@Ubidirectional_iterator_tag@std@@PAV?$Goal@VAbstRaven_Bot@@@@HPBQAV3@ABQAV3@U_Iterator_base12@2@@std@@QAE@XZ PROC ; std::_Iterator012<std::bidirectional_iterator_tag,Goal<AbstRaven_Bot> *,int,Goal<AbstRaven_Bot> * const *,Goal<AbstRaven_Bot> * const &,std::_Iterator_base12>::_Iterator012<std::bidirectional_iterator_tag,Goal<AbstRaven_Bot> *,int,Goal<AbstRaven_Bot> * const *,Goal<AbstRaven_Bot> * const &,std::_Iterator_base12>, COMDAT
; _this$ = ecx
	push	ebp
	mov	ebp, esp
	push	ecx
	mov	DWORD PTR [ebp-4], -858993460		; ccccccccH
	mov	DWORD PTR _this$[ebp], ecx
	mov	ecx, DWORD PTR _this$[ebp]
	call	??0_Iterator_base12@std@@QAE@XZ		; std::_Iterator_base12::_Iterator_base12
	mov	eax, DWORD PTR _this$[ebp]
	add	esp, 4
	cmp	ebp, esp
	call	__RTC_CheckEsp
	mov	esp, ebp
	pop	ebp
	ret	0
??0?$_Iterator012@Ubidirectional_iterator_tag@std@@PAV?$Goal@VAbstRaven_Bot@@@@HPBQAV3@ABQAV3@U_Iterator_base12@2@@std@@QAE@XZ ENDP ; std::_Iterator012<std::bidirectional_iterator_tag,Goal<AbstRaven_Bot> *,int,Goal<AbstRaven_Bot> * const *,Goal<AbstRaven_Bot> * const &,std::_Iterator_base12>::_Iterator012<std::bidirectional_iterator_tag,Goal<AbstRaven_Bot> *,int,Goal<AbstRaven_Bot> * const *,Goal<AbstRaven_Bot> * const &,std::_Iterator_base12>
; Function compile flags: /Odtp /RTCsu
; File c:\program files (x86)\microsoft visual studio 10.0\vc\include\xmemory
_TEXT	ENDS
;	COMDAT ?max_size@?$allocator@PAV?$Goal@VAbstRaven_Bot@@@@@std@@QBEIXZ
_TEXT	SEGMENT
tv65 = -12						; size = 4
__Count$ = -8						; size = 4
_this$ = -4						; size = 4
?max_size@?$allocator@PAV?$Goal@VAbstRaven_Bot@@@@@std@@QBEIXZ PROC ; std::allocator<Goal<AbstRaven_Bot> *>::max_size, COMDAT
; _this$ = ecx

; 217  : 		{	// estimate maximum array size

	push	ebp
	mov	ebp, esp
	sub	esp, 12					; 0000000cH
	mov	DWORD PTR [ebp-12], -858993460		; ccccccccH
	mov	DWORD PTR [ebp-8], -858993460		; ccccccccH
	mov	DWORD PTR [ebp-4], -858993460		; ccccccccH
	mov	DWORD PTR _this$[ebp], ecx

; 218  : 		_SIZT _Count = (_SIZT)(-1) / sizeof (_Ty);

	mov	DWORD PTR __Count$[ebp], 1073741823	; 3fffffffH

; 219  : 		return (0 < _Count ? _Count : 1);

	cmp	DWORD PTR __Count$[ebp], 0
	jbe	SHORT $LN3@max_size@4
	mov	eax, DWORD PTR __Count$[ebp]
	mov	DWORD PTR tv65[ebp], eax
	jmp	SHORT $LN4@max_size@4
$LN3@max_size@4:
	mov	DWORD PTR tv65[ebp], 1
$LN4@max_size@4:
	mov	eax, DWORD PTR tv65[ebp]

; 220  : 		}

	mov	esp, ebp
	pop	ebp
	ret	0
?max_size@?$allocator@PAV?$Goal@VAbstRaven_Bot@@@@@std@@QBEIXZ ENDP ; std::allocator<Goal<AbstRaven_Bot> *>::max_size
_TEXT	ENDS
PUBLIC	??$?8V?$_List_const_iterator@V?$_List_val@PAV?$Goal@VAbstRaven_Bot@@@@V?$allocator@PAV?$Goal@VAbstRaven_Bot@@@@@std@@@std@@@std@@V01@@std@@YA_NABV?$reverse_iterator@V?$_List_const_iterator@V?$_List_val@PAV?$Goal@VAbstRaven_Bot@@@@V?$allocator@PAV?$Goal@VAbstRaven_Bot@@@@@std@@@std@@@std@@@0@0@Z ; std::operator==<std::_List_const_iterator<std::_List_val<Goal<AbstRaven_Bot> *,std::allocator<Goal<AbstRaven_Bot> *> > >,std::_List_const_iterator<std::_List_val<Goal<AbstRaven_Bot> *,std::allocator<Goal<AbstRaven_Bot> *> > > >
; Function compile flags: /Odtp /RTCsu
; File c:\program files (x86)\microsoft visual studio 10.0\vc\include\xutility
;	COMDAT ??$?9V?$_List_const_iterator@V?$_List_val@PAV?$Goal@VAbstRaven_Bot@@@@V?$allocator@PAV?$Goal@VAbstRaven_Bot@@@@@std@@@std@@@std@@V01@@std@@YA_NABV?$reverse_iterator@V?$_List_const_iterator@V?$_List_val@PAV?$Goal@VAbstRaven_Bot@@@@V?$allocator@PAV?$Goal@VAbstRaven_Bot@@@@@std@@@std@@@std@@@0@0@Z
_TEXT	SEGMENT
__Left$ = 8						; size = 4
__Right$ = 12						; size = 4
??$?9V?$_List_const_iterator@V?$_List_val@PAV?$Goal@VAbstRaven_Bot@@@@V?$allocator@PAV?$Goal@VAbstRaven_Bot@@@@@std@@@std@@@std@@V01@@std@@YA_NABV?$reverse_iterator@V?$_List_const_iterator@V?$_List_val@PAV?$Goal@VAbstRaven_Bot@@@@V?$allocator@PAV?$Goal@VAbstRaven_Bot@@@@@std@@@std@@@std@@@0@0@Z PROC ; std::operator!=<std::_List_const_iterator<std::_List_val<Goal<AbstRaven_Bot> *,std::allocator<Goal<AbstRaven_Bot> *> > >,std::_List_const_iterator<std::_List_val<Goal<AbstRaven_Bot> *,std::allocator<Goal<AbstRaven_Bot> *> > > >, COMDAT

; 1362 : 	{	// test for reverse_iterator inequality

	push	ebp
	mov	ebp, esp

; 1363 : 	return (!(_Left == _Right));

	mov	eax, DWORD PTR __Right$[ebp]
	push	eax
	mov	ecx, DWORD PTR __Left$[ebp]
	push	ecx
	call	??$?8V?$_List_const_iterator@V?$_List_val@PAV?$Goal@VAbstRaven_Bot@@@@V?$allocator@PAV?$Goal@VAbstRaven_Bot@@@@@std@@@std@@@std@@V01@@std@@YA_NABV?$reverse_iterator@V?$_List_const_iterator@V?$_List_val@PAV?$Goal@VAbstRaven_Bot@@@@V?$allocator@PAV?$Goal@VAbstRaven_Bot@@@@@std@@@std@@@std@@@0@0@Z ; std::operator==<std::_List_const_iterator<std::_List_val<Goal<AbstRaven_Bot> *,std::allocator<Goal<AbstRaven_Bot> *> > >,std::_List_const_iterator<std::_List_val<Goal<AbstRaven_Bot> *,std::allocator<Goal<AbstRaven_Bot> *> > > >
	add	esp, 8
	movzx	eax, al
	neg	eax
	sbb	eax, eax
	add	eax, 1

; 1364 : 	}

	cmp	ebp, esp
	call	__RTC_CheckEsp
	pop	ebp
	ret	0
??$?9V?$_List_const_iterator@V?$_List_val@PAV?$Goal@VAbstRaven_Bot@@@@V?$allocator@PAV?$Goal@VAbstRaven_Bot@@@@@std@@@std@@@std@@V01@@std@@YA_NABV?$reverse_iterator@V?$_List_const_iterator@V?$_List_val@PAV?$Goal@VAbstRaven_Bot@@@@V?$allocator@PAV?$Goal@VAbstRaven_Bot@@@@@std@@@std@@@std@@@0@0@Z ENDP ; std::operator!=<std::_List_const_iterator<std::_List_val<Goal<AbstRaven_Bot> *,std::allocator<Goal<AbstRaven_Bot> *> > >,std::_List_const_iterator<std::_List_val<Goal<AbstRaven_Bot> *,std::allocator<Goal<AbstRaven_Bot> *> > > >
; Function compile flags: /Odtp /RTCsu
; File c:\program files (x86)\microsoft visual studio 10.0\vc\include\xmemory
_TEXT	ENDS
;	COMDAT ??$?8DD@std@@YA_NABV?$allocator@D@0@0@Z
_TEXT	SEGMENT
___formal$ = 8						; size = 4
___formal$ = 12						; size = 4
??$?8DD@std@@YA_NABV?$allocator@D@0@0@Z PROC		; std::operator==<char,char>, COMDAT

; 262  : 	{	// test for allocator equality

	push	ebp
	mov	ebp, esp

; 263  : 	return (true);

	mov	al, 1

; 264  : 	}

	pop	ebp
	ret	0
??$?8DD@std@@YA_NABV?$allocator@D@0@0@Z ENDP		; std::operator==<char,char>
; Function compile flags: /Odtp /RTCsu
; File c:\program files (x86)\microsoft visual studio 10.0\vc\include\utility
_TEXT	ENDS
;	COMDAT ??$forward@U_Container_proxy@std@@@std@@YA$$QAU_Container_proxy@0@AAU10@@Z
_TEXT	SEGMENT
__Arg$ = 8						; size = 4
??$forward@U_Container_proxy@std@@@std@@YA$$QAU_Container_proxy@0@AAU10@@Z PROC ; std::forward<std::_Container_proxy>, COMDAT

; 78   : 	{	// forward _Arg, given explicitly specified type parameter

	push	ebp
	mov	ebp, esp

; 79   : 	return ((_Ty&&)_Arg);

	mov	eax, DWORD PTR __Arg$[ebp]

; 80   : 	}

	pop	ebp
	ret	0
??$forward@U_Container_proxy@std@@@std@@YA$$QAU_Container_proxy@0@AAU10@@Z ENDP ; std::forward<std::_Container_proxy>
; Function compile flags: /Odtp /RTCsu
; File c:\program files (x86)\microsoft visual studio 10.0\vc\include\xutility
_TEXT	ENDS
;	COMDAT ??$_Ptr_cat@PAVGoal_Evaluator@@PAV1@@std@@YA?AU_Scalar_ptr_iterator_tag@0@PAPAVGoal_Evaluator@@0@Z
_TEXT	SEGMENT
__Cat$ = -5						; size = 1
___formal$ = 8						; size = 4
___formal$ = 12						; size = 4
??$_Ptr_cat@PAVGoal_Evaluator@@PAV1@@std@@YA?AU_Scalar_ptr_iterator_tag@0@PAPAVGoal_Evaluator@@0@Z PROC ; std::_Ptr_cat<Goal_Evaluator *,Goal_Evaluator *>, COMDAT

; 528  : 	{	// return pointer category from pointers

	push	ebp
	mov	ebp, esp
	sub	esp, 12					; 0000000cH
	mov	DWORD PTR [ebp-12], -858993460		; ccccccccH
	mov	DWORD PTR [ebp-8], -858993460		; ccccccccH
	mov	DWORD PTR [ebp-4], -858993460		; ccccccccH

; 529  : 	typename _Ptr_cat_helper<_Elem1, _Elem2>::_Type _Cat;
; 530  : 	return (_Cat);

	mov	al, BYTE PTR __Cat$[ebp]

; 531  : 	}

	push	edx
	mov	ecx, ebp
	push	eax
	lea	edx, DWORD PTR $LN5@Ptr_cat
	call	@_RTC_CheckStackVars@8
	pop	eax
	pop	edx
	mov	esp, ebp
	pop	ebp
	ret	0
	npad	1
$LN5@Ptr_cat:
	DD	1
	DD	$LN4@Ptr_cat
$LN4@Ptr_cat:
	DD	-5					; fffffffbH
	DD	1
	DD	$LN3@Ptr_cat
$LN3@Ptr_cat:
	DB	95					; 0000005fH
	DB	67					; 00000043H
	DB	97					; 00000061H
	DB	116					; 00000074H
	DB	0
??$_Ptr_cat@PAVGoal_Evaluator@@PAV1@@std@@YA?AU_Scalar_ptr_iterator_tag@0@PAPAVGoal_Evaluator@@0@Z ENDP ; std::_Ptr_cat<Goal_Evaluator *,Goal_Evaluator *>
; Function compile flags: /Odtp /RTCsu
_TEXT	ENDS
;	COMDAT ??$_Move@PAPAVGoal_Evaluator@@PAPAV1@@std@@YAPAPAVGoal_Evaluator@@PAPAV1@00U_Scalar_ptr_iterator_tag@0@@Z
_TEXT	SEGMENT
__Count$ = -4						; size = 4
__First$ = 8						; size = 4
__Last$ = 12						; size = 4
__Dest$ = 16						; size = 4
___formal$ = 20						; size = 1
??$_Move@PAPAVGoal_Evaluator@@PAPAV1@@std@@YAPAPAVGoal_Evaluator@@PAPAV1@00U_Scalar_ptr_iterator_tag@0@@Z PROC ; std::_Move<Goal_Evaluator * *,Goal_Evaluator * *>, COMDAT

; 2534 : 	{	// move [_First, _Last) to [_Dest, ...), pointers to scalars

	push	ebp
	mov	ebp, esp
	push	ecx
	mov	DWORD PTR [ebp-4], -858993460		; ccccccccH

; 2535 : 	ptrdiff_t _Count = _Last - _First;

	mov	eax, DWORD PTR __Last$[ebp]
	sub	eax, DWORD PTR __First$[ebp]
	sar	eax, 2
	mov	DWORD PTR __Count$[ebp], eax

; 2536 : 	_CSTD memmove(&*_Dest, &*_First,
; 2537 : 		_Count * sizeof (*_First));

	mov	ecx, DWORD PTR __Count$[ebp]
	shl	ecx, 2
	push	ecx
	mov	edx, DWORD PTR __First$[ebp]
	push	edx
	mov	eax, DWORD PTR __Dest$[ebp]
	push	eax
	call	_memmove
	add	esp, 12					; 0000000cH

; 2538 : 	return (_Dest + _Count);

	mov	ecx, DWORD PTR __Count$[ebp]
	mov	edx, DWORD PTR __Dest$[ebp]
	lea	eax, DWORD PTR [edx+ecx*4]

; 2539 : 	}

	add	esp, 4
	cmp	ebp, esp
	call	__RTC_CheckEsp
	mov	esp, ebp
	pop	ebp
	ret	0
??$_Move@PAPAVGoal_Evaluator@@PAPAV1@@std@@YAPAPAVGoal_Evaluator@@PAPAV1@00U_Scalar_ptr_iterator_tag@0@@Z ENDP ; std::_Move<Goal_Evaluator * *,Goal_Evaluator * *>
_TEXT	ENDS
PUBLIC	??$_Uninit_move@PAVGoal_Evaluator@@PAV1@PAV1@@std@@YAPAPAVGoal_Evaluator@@PAPAV1@00AAV?$allocator@PAVGoal_Evaluator@@@0@0U_Scalar_ptr_iterator_tag@0@@Z ; std::_Uninit_move<Goal_Evaluator *,Goal_Evaluator *,Goal_Evaluator *>
PUBLIC	??$_Val_type@PAPAVGoal_Evaluator@@@std@@YAPAPAVGoal_Evaluator@@PAPAV1@@Z ; std::_Val_type<Goal_Evaluator * *>
; Function compile flags: /Odtp /RTCsu
; File c:\program files (x86)\microsoft visual studio 10.0\vc\include\memory
;	COMDAT ??$_Uninitialized_move@PAPAVGoal_Evaluator@@PAPAV1@V?$allocator@PAVGoal_Evaluator@@@std@@@std@@YAPAPAVGoal_Evaluator@@PAPAV1@00AAV?$allocator@PAVGoal_Evaluator@@@0@@Z
_TEXT	SEGMENT
$T142563 = -1						; size = 1
__First$ = 8						; size = 4
__Last$ = 12						; size = 4
__Dest$ = 16						; size = 4
__Al$ = 20						; size = 4
??$_Uninitialized_move@PAPAVGoal_Evaluator@@PAPAV1@V?$allocator@PAVGoal_Evaluator@@@std@@@std@@YAPAPAVGoal_Evaluator@@PAPAV1@00AAV?$allocator@PAVGoal_Evaluator@@@0@@Z PROC ; std::_Uninitialized_move<Goal_Evaluator * *,Goal_Evaluator * *,std::allocator<Goal_Evaluator *> >, COMDAT

; 469  : 	{	// move [_First, _Last) to raw _Dest, using _Al

	push	ebp
	mov	ebp, esp
	push	ecx
	mov	DWORD PTR [ebp-4], -858993460		; ccccccccH

; 470  : 	return (_Uninit_move(_First, _Last, _Dest, _Al,
; 471  : 		_Val_type(_First), _Ptr_cat(_First, _Dest)));

	mov	eax, DWORD PTR __Dest$[ebp]
	push	eax
	mov	ecx, DWORD PTR __First$[ebp]
	push	ecx
	call	??$_Ptr_cat@PAVGoal_Evaluator@@PAV1@@std@@YA?AU_Scalar_ptr_iterator_tag@0@PAPAVGoal_Evaluator@@0@Z ; std::_Ptr_cat<Goal_Evaluator *,Goal_Evaluator *>
	add	esp, 8
	mov	BYTE PTR $T142563[ebp], al
	movzx	edx, BYTE PTR $T142563[ebp]
	push	edx
	mov	eax, DWORD PTR __First$[ebp]
	push	eax
	call	??$_Val_type@PAPAVGoal_Evaluator@@@std@@YAPAPAVGoal_Evaluator@@PAPAV1@@Z ; std::_Val_type<Goal_Evaluator * *>
	add	esp, 4
	push	eax
	mov	ecx, DWORD PTR __Al$[ebp]
	push	ecx
	mov	edx, DWORD PTR __Dest$[ebp]
	push	edx
	mov	eax, DWORD PTR __Last$[ebp]
	push	eax
	mov	ecx, DWORD PTR __First$[ebp]
	push	ecx
	call	??$_Uninit_move@PAVGoal_Evaluator@@PAV1@PAV1@@std@@YAPAPAVGoal_Evaluator@@PAPAV1@00AAV?$allocator@PAVGoal_Evaluator@@@0@0U_Scalar_ptr_iterator_tag@0@@Z ; std::_Uninit_move<Goal_Evaluator *,Goal_Evaluator *,Goal_Evaluator *>
	add	esp, 24					; 00000018H

; 472  : 	}

	add	esp, 4
	cmp	ebp, esp
	call	__RTC_CheckEsp
	mov	esp, ebp
	pop	ebp
	ret	0
??$_Uninitialized_move@PAPAVGoal_Evaluator@@PAPAV1@V?$allocator@PAVGoal_Evaluator@@@std@@@std@@YAPAPAVGoal_Evaluator@@PAPAV1@00AAV?$allocator@PAVGoal_Evaluator@@@0@@Z ENDP ; std::_Uninitialized_move<Goal_Evaluator * *,Goal_Evaluator * *,std::allocator<Goal_Evaluator *> >
; Function compile flags: /Odtp /RTCsu
; File c:\program files (x86)\microsoft visual studio 10.0\vc\include\xmemory
_TEXT	ENDS
;	COMDAT ??$_Destroy_range@V?$allocator@PAVGoal_Evaluator@@@std@@@std@@YAXPAPAVGoal_Evaluator@@0AAV?$allocator@PAVGoal_Evaluator@@@0@U_Scalar_ptr_iterator_tag@0@@Z
_TEXT	SEGMENT
__First$ = 8						; size = 4
__Last$ = 12						; size = 4
__Al$ = 16						; size = 4
___formal$ = 20						; size = 1
??$_Destroy_range@V?$allocator@PAVGoal_Evaluator@@@std@@@std@@YAXPAPAVGoal_Evaluator@@0AAV?$allocator@PAVGoal_Evaluator@@@0@U_Scalar_ptr_iterator_tag@0@@Z PROC ; std::_Destroy_range<std::allocator<Goal_Evaluator *> >, COMDAT

; 104  : 	{	// destroy [_First, _Last), scalar type (do nothing)

	push	ebp
	mov	ebp, esp

; 105  : 	}

	pop	ebp
	ret	0
??$_Destroy_range@V?$allocator@PAVGoal_Evaluator@@@std@@@std@@YAXPAPAVGoal_Evaluator@@0AAV?$allocator@PAVGoal_Evaluator@@@0@U_Scalar_ptr_iterator_tag@0@@Z ENDP ; std::_Destroy_range<std::allocator<Goal_Evaluator *> >
; Function compile flags: /Odtp /RTCsu
_TEXT	ENDS
;	COMDAT ??$_Destroy@U_Container_proxy@std@@@std@@YAXPAU_Container_proxy@0@@Z
_TEXT	SEGMENT
__Ptr$ = 8						; size = 4
??$_Destroy@U_Container_proxy@std@@@std@@YAXPAU_Container_proxy@0@@Z PROC ; std::_Destroy<std::_Container_proxy>, COMDAT

; 62   : 	{	// destroy object at _Ptr

	push	ebp
	mov	ebp, esp

; 63   : 	_Ptr->~_Ty();
; 64   : 	}

	pop	ebp
	ret	0
??$_Destroy@U_Container_proxy@std@@@std@@YAXPAU_Container_proxy@0@@Z ENDP ; std::_Destroy<std::_Container_proxy>
; Function compile flags: /Odtp /RTCsu
_TEXT	ENDS
;	COMDAT ??$addressof@PAV?$Goal@VAbstRaven_Bot@@@@@std@@YAPAPAV?$Goal@VAbstRaven_Bot@@@@AAPAV1@@Z
_TEXT	SEGMENT
__Val$ = 8						; size = 4
??$addressof@PAV?$Goal@VAbstRaven_Bot@@@@@std@@YAPAPAV?$Goal@VAbstRaven_Bot@@@@AAPAV1@@Z PROC ; std::addressof<Goal<AbstRaven_Bot> *>, COMDAT

; 110  : 	{	// return address of _Val

	push	ebp
	mov	ebp, esp

; 111  : 	return ((_Ty *) &(char&)_Val);

	mov	eax, DWORD PTR __Val$[ebp]

; 112  : 	}

	pop	ebp
	ret	0
??$addressof@PAV?$Goal@VAbstRaven_Bot@@@@@std@@YAPAPAV?$Goal@VAbstRaven_Bot@@@@AAPAV1@@Z ENDP ; std::addressof<Goal<AbstRaven_Bot> *>
_TEXT	ENDS
PUBLIC	?construct@?$allocator@PAV?$Goal@VAbstRaven_Bot@@@@@std@@QAEXPAPAV?$Goal@VAbstRaven_Bot@@@@ABQAV3@@Z ; std::allocator<Goal<AbstRaven_Bot> *>::construct
PUBLIC	??$forward@ABQAV?$Goal@VAbstRaven_Bot@@@@@std@@YAABQAV?$Goal@VAbstRaven_Bot@@@@ABQAV1@@Z ; std::forward<Goal<AbstRaven_Bot> * const &>
; Function compile flags: /Odtp /RTCsu
;	COMDAT ??$_Cons_val@V?$allocator@PAV?$Goal@VAbstRaven_Bot@@@@@std@@PAV?$Goal@VAbstRaven_Bot@@@@ABQAV3@@std@@YAXAAV?$allocator@PAV?$Goal@VAbstRaven_Bot@@@@@0@PAPAV?$Goal@VAbstRaven_Bot@@@@ABQAV2@@Z
_TEXT	SEGMENT
__Alval$ = 8						; size = 4
__Pdest$ = 12						; size = 4
__Src$ = 16						; size = 4
??$_Cons_val@V?$allocator@PAV?$Goal@VAbstRaven_Bot@@@@@std@@PAV?$Goal@VAbstRaven_Bot@@@@ABQAV3@@std@@YAXAAV?$allocator@PAV?$Goal@VAbstRaven_Bot@@@@@0@PAPAV?$Goal@VAbstRaven_Bot@@@@ABQAV2@@Z PROC ; std::_Cons_val<std::allocator<Goal<AbstRaven_Bot> *>,Goal<AbstRaven_Bot> *,Goal<AbstRaven_Bot> * const &>, COMDAT

; 279  : 	{	// construct using allocator

	push	ebp
	mov	ebp, esp

; 280  : 	_Alval.construct(_Pdest, _STD forward<_Ty2>(_Src));

	mov	eax, DWORD PTR __Src$[ebp]
	push	eax
	call	??$forward@ABQAV?$Goal@VAbstRaven_Bot@@@@@std@@YAABQAV?$Goal@VAbstRaven_Bot@@@@ABQAV1@@Z ; std::forward<Goal<AbstRaven_Bot> * const &>
	add	esp, 4
	push	eax
	mov	ecx, DWORD PTR __Pdest$[ebp]
	push	ecx
	mov	ecx, DWORD PTR __Alval$[ebp]
	call	?construct@?$allocator@PAV?$Goal@VAbstRaven_Bot@@@@@std@@QAEXPAPAV?$Goal@VAbstRaven_Bot@@@@ABQAV3@@Z ; std::allocator<Goal<AbstRaven_Bot> *>::construct

; 281  : 	}

	cmp	ebp, esp
	call	__RTC_CheckEsp
	pop	ebp
	ret	0
??$_Cons_val@V?$allocator@PAV?$Goal@VAbstRaven_Bot@@@@@std@@PAV?$Goal@VAbstRaven_Bot@@@@ABQAV3@@std@@YAXAAV?$allocator@PAV?$Goal@VAbstRaven_Bot@@@@@0@PAPAV?$Goal@VAbstRaven_Bot@@@@ABQAV2@@Z ENDP ; std::_Cons_val<std::allocator<Goal<AbstRaven_Bot> *>,Goal<AbstRaven_Bot> *,Goal<AbstRaven_Bot> * const &>
_TEXT	ENDS
PUBLIC	??$_Construct@PAV?$Goal@VAbstRaven_Bot@@@@ABQAV1@@std@@YAXPAPAV?$Goal@VAbstRaven_Bot@@@@ABQAV1@@Z ; std::_Construct<Goal<AbstRaven_Bot> *,Goal<AbstRaven_Bot> * const &>
; Function compile flags: /Odtp /RTCsu
;	COMDAT ?construct@?$allocator@PAV?$Goal@VAbstRaven_Bot@@@@@std@@QAEXPAPAV?$Goal@VAbstRaven_Bot@@@@ABQAV3@@Z
_TEXT	SEGMENT
_this$ = -4						; size = 4
__Ptr$ = 8						; size = 4
__Val$ = 12						; size = 4
?construct@?$allocator@PAV?$Goal@VAbstRaven_Bot@@@@@std@@QAEXPAPAV?$Goal@VAbstRaven_Bot@@@@ABQAV3@@Z PROC ; std::allocator<Goal<AbstRaven_Bot> *>::construct, COMDAT
; _this$ = ecx

; 196  : 		{	// construct object at _Ptr with value _Val

	push	ebp
	mov	ebp, esp
	push	ecx
	mov	DWORD PTR [ebp-4], -858993460		; ccccccccH
	mov	DWORD PTR _this$[ebp], ecx

; 197  : 		_Construct(_Ptr, _Val);

	mov	eax, DWORD PTR __Val$[ebp]
	push	eax
	mov	ecx, DWORD PTR __Ptr$[ebp]
	push	ecx
	call	??$_Construct@PAV?$Goal@VAbstRaven_Bot@@@@ABQAV1@@std@@YAXPAPAV?$Goal@VAbstRaven_Bot@@@@ABQAV1@@Z ; std::_Construct<Goal<AbstRaven_Bot> *,Goal<AbstRaven_Bot> * const &>
	add	esp, 8

; 198  : 		}

	add	esp, 4
	cmp	ebp, esp
	call	__RTC_CheckEsp
	mov	esp, ebp
	pop	ebp
	ret	8
?construct@?$allocator@PAV?$Goal@VAbstRaven_Bot@@@@@std@@QAEXPAPAV?$Goal@VAbstRaven_Bot@@@@ABQAV3@@Z ENDP ; std::allocator<Goal<AbstRaven_Bot> *>::construct
_TEXT	ENDS
PUBLIC	??$_Equal@V?$_List_const_iterator@V?$_List_val@PAV?$Goal@VAbstRaven_Bot@@@@V?$allocator@PAV?$Goal@VAbstRaven_Bot@@@@@std@@@std@@@std@@U?$iterator@Ubidirectional_iterator_tag@std@@PAV?$Goal@VAbstRaven_Bot@@@@HPBQAV3@ABQAV3@@2@@?$_Revranit@V?$_List_const_iterator@V?$_List_val@PAV?$Goal@VAbstRaven_Bot@@@@V?$allocator@PAV?$Goal@VAbstRaven_Bot@@@@@std@@@std@@@std@@U?$iterator@Ubidirectional_iterator_tag@std@@PAV?$Goal@VAbstRaven_Bot@@@@HPBQAV3@ABQAV3@@2@@std@@QBE_NABV01@@Z ; std::_Revranit<std::_List_const_iterator<std::_List_val<Goal<AbstRaven_Bot> *,std::allocator<Goal<AbstRaven_Bot> *> > >,std::iterator<std::bidirectional_iterator_tag,Goal<AbstRaven_Bot> *,int,Goal<AbstRaven_Bot> * const *,Goal<AbstRaven_Bot> * const &> >::_Equal<std::_List_const_iterator<std::_List_val<Goal<AbstRaven_Bot> *,std::allocator<Goal<AbstRaven_Bot> *> > >,std::iterator<std::bidirectional_iterator_tag,Goal<AbstRaven_Bot> *,int,Goal<AbstRaven_Bot> * const *,Goal<AbstRaven_Bot> * const &> >
; Function compile flags: /Odtp /RTCsu
; File c:\program files (x86)\microsoft visual studio 10.0\vc\include\xutility
;	COMDAT ??$?8V?$_List_const_iterator@V?$_List_val@PAV?$Goal@VAbstRaven_Bot@@@@V?$allocator@PAV?$Goal@VAbstRaven_Bot@@@@@std@@@std@@@std@@V01@@std@@YA_NABV?$reverse_iterator@V?$_List_const_iterator@V?$_List_val@PAV?$Goal@VAbstRaven_Bot@@@@V?$allocator@PAV?$Goal@VAbstRaven_Bot@@@@@std@@@std@@@std@@@0@0@Z
_TEXT	SEGMENT
__Left$ = 8						; size = 4
__Right$ = 12						; size = 4
??$?8V?$_List_const_iterator@V?$_List_val@PAV?$Goal@VAbstRaven_Bot@@@@V?$allocator@PAV?$Goal@VAbstRaven_Bot@@@@@std@@@std@@@std@@V01@@std@@YA_NABV?$reverse_iterator@V?$_List_const_iterator@V?$_List_val@PAV?$Goal@VAbstRaven_Bot@@@@V?$allocator@PAV?$Goal@VAbstRaven_Bot@@@@@std@@@std@@@std@@@0@0@Z PROC ; std::operator==<std::_List_const_iterator<std::_List_val<Goal<AbstRaven_Bot> *,std::allocator<Goal<AbstRaven_Bot> *> > >,std::_List_const_iterator<std::_List_val<Goal<AbstRaven_Bot> *,std::allocator<Goal<AbstRaven_Bot> *> > > >, COMDAT

; 1354 : 	{	// test for reverse_iterator equality

	push	ebp
	mov	ebp, esp

; 1355 : 	return (_Left._Equal(_Right));

	mov	eax, DWORD PTR __Right$[ebp]
	push	eax
	mov	ecx, DWORD PTR __Left$[ebp]
	call	??$_Equal@V?$_List_const_iterator@V?$_List_val@PAV?$Goal@VAbstRaven_Bot@@@@V?$allocator@PAV?$Goal@VAbstRaven_Bot@@@@@std@@@std@@@std@@U?$iterator@Ubidirectional_iterator_tag@std@@PAV?$Goal@VAbstRaven_Bot@@@@HPBQAV3@ABQAV3@@2@@?$_Revranit@V?$_List_const_iterator@V?$_List_val@PAV?$Goal@VAbstRaven_Bot@@@@V?$allocator@PAV?$Goal@VAbstRaven_Bot@@@@@std@@@std@@@std@@U?$iterator@Ubidirectional_iterator_tag@std@@PAV?$Goal@VAbstRaven_Bot@@@@HPBQAV3@ABQAV3@@2@@std@@QBE_NABV01@@Z ; std::_Revranit<std::_List_const_iterator<std::_List_val<Goal<AbstRaven_Bot> *,std::allocator<Goal<AbstRaven_Bot> *> > >,std::iterator<std::bidirectional_iterator_tag,Goal<AbstRaven_Bot> *,int,Goal<AbstRaven_Bot> * const *,Goal<AbstRaven_Bot> * const &> >::_Equal<std::_List_const_iterator<std::_List_val<Goal<AbstRaven_Bot> *,std::allocator<Goal<AbstRaven_Bot> *> > >,std::iterator<std::bidirectional_iterator_tag,Goal<AbstRaven_Bot> *,int,Goal<AbstRaven_Bot> * const *,Goal<AbstRaven_Bot> * const &> >

; 1356 : 	}

	cmp	ebp, esp
	call	__RTC_CheckEsp
	pop	ebp
	ret	0
??$?8V?$_List_const_iterator@V?$_List_val@PAV?$Goal@VAbstRaven_Bot@@@@V?$allocator@PAV?$Goal@VAbstRaven_Bot@@@@@std@@@std@@@std@@V01@@std@@YA_NABV?$reverse_iterator@V?$_List_const_iterator@V?$_List_val@PAV?$Goal@VAbstRaven_Bot@@@@V?$allocator@PAV?$Goal@VAbstRaven_Bot@@@@@std@@@std@@@std@@@0@0@Z ENDP ; std::operator==<std::_List_const_iterator<std::_List_val<Goal<AbstRaven_Bot> *,std::allocator<Goal<AbstRaven_Bot> *> > >,std::_List_const_iterator<std::_List_val<Goal<AbstRaven_Bot> *,std::allocator<Goal<AbstRaven_Bot> *> > > >
; Function compile flags: /Odtp /RTCsu
_TEXT	ENDS
;	COMDAT ??$_Val_type@PAPAVGoal_Evaluator@@@std@@YAPAPAVGoal_Evaluator@@PAPAV1@@Z
_TEXT	SEGMENT
___formal$ = 8						; size = 4
??$_Val_type@PAPAVGoal_Evaluator@@@std@@YAPAPAVGoal_Evaluator@@PAPAV1@@Z PROC ; std::_Val_type<Goal_Evaluator * *>, COMDAT

; 801  : 	{	// return value type from arbitrary argument

	push	ebp
	mov	ebp, esp

; 802  : 	return (0);

	xor	eax, eax

; 803  : 	}

	pop	ebp
	ret	0
??$_Val_type@PAPAVGoal_Evaluator@@@std@@YAPAPAVGoal_Evaluator@@PAPAV1@@Z ENDP ; std::_Val_type<Goal_Evaluator * *>
_TEXT	ENDS
PUBLIC	??$_Debug_pointer@PAVGoal_Evaluator@@@std@@YAXPAPAVGoal_Evaluator@@PB_WI@Z ; std::_Debug_pointer<Goal_Evaluator *>
PUBLIC	??$_Debug_range@PAPAVGoal_Evaluator@@@std@@YAXPAPAVGoal_Evaluator@@0PB_WI@Z ; std::_Debug_range<Goal_Evaluator * *>
PUBLIC	??_C@_1IM@LEDFCGBB@?$AAc?$AA?3?$AA?2?$AAP?$AAr?$AAo?$AAg?$AAr?$AAa?$AAm?$AA?5?$AAF?$AAi?$AAl?$AAe?$AAs?$AA?5?$AA?$CI?$AAx?$AA8?$AA6?$AA?$CJ?$AA?2?$AAM?$AAi?$AAc?$AAr?$AAo?$AAs?$AAo?$AAf?$AAt@ ; `string'
;	COMDAT ??_C@_1IM@LEDFCGBB@?$AAc?$AA?3?$AA?2?$AAP?$AAr?$AAo?$AAg?$AAr?$AAa?$AAm?$AA?5?$AAF?$AAi?$AAl?$AAe?$AAs?$AA?5?$AA?$CI?$AAx?$AA8?$AA6?$AA?$CJ?$AA?2?$AAM?$AAi?$AAc?$AAr?$AAo?$AAs?$AAo?$AAf?$AAt@
; File c:\program files (x86)\microsoft visual studio 10.0\vc\include\memory
CONST	SEGMENT
??_C@_1IM@LEDFCGBB@?$AAc?$AA?3?$AA?2?$AAP?$AAr?$AAo?$AAg?$AAr?$AAa?$AAm?$AA?5?$AAF?$AAi?$AAl?$AAe?$AAs?$AA?5?$AA?$CI?$AAx?$AA8?$AA6?$AA?$CJ?$AA?2?$AAM?$AAi?$AAc?$AAr?$AAo?$AAs?$AAo?$AAf?$AAt@ DB 'c'
	DB	00H, ':', 00H, '\', 00H, 'P', 00H, 'r', 00H, 'o', 00H, 'g', 00H
	DB	'r', 00H, 'a', 00H, 'm', 00H, ' ', 00H, 'F', 00H, 'i', 00H, 'l'
	DB	00H, 'e', 00H, 's', 00H, ' ', 00H, '(', 00H, 'x', 00H, '8', 00H
	DB	'6', 00H, ')', 00H, '\', 00H, 'M', 00H, 'i', 00H, 'c', 00H, 'r'
	DB	00H, 'o', 00H, 's', 00H, 'o', 00H, 'f', 00H, 't', 00H, ' ', 00H
	DB	'V', 00H, 'i', 00H, 's', 00H, 'u', 00H, 'a', 00H, 'l', 00H, ' '
	DB	00H, 'S', 00H, 't', 00H, 'u', 00H, 'd', 00H, 'i', 00H, 'o', 00H
	DB	' ', 00H, '1', 00H, '0', 00H, '.', 00H, '0', 00H, '\', 00H, 'V'
	DB	00H, 'C', 00H, '\', 00H, 'i', 00H, 'n', 00H, 'c', 00H, 'l', 00H
	DB	'u', 00H, 'd', 00H, 'e', 00H, '\', 00H, 'm', 00H, 'e', 00H, 'm'
	DB	00H, 'o', 00H, 'r', 00H, 'y', 00H, 00H, 00H	; `string'
; Function compile flags: /Odtp /RTCsu
CONST	ENDS
;	COMDAT ??$_Uninit_move@PAVGoal_Evaluator@@PAV1@PAV1@@std@@YAPAPAVGoal_Evaluator@@PAPAV1@00AAV?$allocator@PAVGoal_Evaluator@@@0@0U_Scalar_ptr_iterator_tag@0@@Z
_TEXT	SEGMENT
__Count$ = -4						; size = 4
__First$ = 8						; size = 4
__Last$ = 12						; size = 4
__Dest$ = 16						; size = 4
___formal$ = 20						; size = 4
___formal$ = 24						; size = 4
___formal$ = 28						; size = 1
??$_Uninit_move@PAVGoal_Evaluator@@PAV1@PAV1@@std@@YAPAPAVGoal_Evaluator@@PAPAV1@00AAV?$allocator@PAVGoal_Evaluator@@@0@0U_Scalar_ptr_iterator_tag@0@@Z PROC ; std::_Uninit_move<Goal_Evaluator *,Goal_Evaluator *,Goal_Evaluator *>, COMDAT

; 456  : 	{	// move [_First, _Last) to raw _Dest, scalar type

	push	ebp
	mov	ebp, esp
	push	ecx
	mov	DWORD PTR [ebp-4], -858993460		; ccccccccH

; 457  : 	_DEBUG_RANGE(_First, _Last);

	push	457					; 000001c9H
	push	OFFSET ??_C@_1IM@LEDFCGBB@?$AAc?$AA?3?$AA?2?$AAP?$AAr?$AAo?$AAg?$AAr?$AAa?$AAm?$AA?5?$AAF?$AAi?$AAl?$AAe?$AAs?$AA?5?$AA?$CI?$AAx?$AA8?$AA6?$AA?$CJ?$AA?2?$AAM?$AAi?$AAc?$AAr?$AAo?$AAs?$AAo?$AAf?$AAt@
	mov	eax, DWORD PTR __Last$[ebp]
	push	eax
	mov	ecx, DWORD PTR __First$[ebp]
	push	ecx
	call	??$_Debug_range@PAPAVGoal_Evaluator@@@std@@YAXPAPAVGoal_Evaluator@@0PB_WI@Z ; std::_Debug_range<Goal_Evaluator * *>
	add	esp, 16					; 00000010H

; 458  : 	_DEBUG_POINTER(_Dest);

	push	458					; 000001caH
	push	OFFSET ??_C@_1IM@LEDFCGBB@?$AAc?$AA?3?$AA?2?$AAP?$AAr?$AAo?$AAg?$AAr?$AAa?$AAm?$AA?5?$AAF?$AAi?$AAl?$AAe?$AAs?$AA?5?$AA?$CI?$AAx?$AA8?$AA6?$AA?$CJ?$AA?2?$AAM?$AAi?$AAc?$AAr?$AAo?$AAs?$AAo?$AAf?$AAt@
	mov	edx, DWORD PTR __Dest$[ebp]
	push	edx
	call	??$_Debug_pointer@PAVGoal_Evaluator@@@std@@YAXPAPAVGoal_Evaluator@@PB_WI@Z ; std::_Debug_pointer<Goal_Evaluator *>
	add	esp, 12					; 0000000cH

; 459  : 	size_t _Count = (size_t)(_Last - _First);

	mov	eax, DWORD PTR __Last$[ebp]
	sub	eax, DWORD PTR __First$[ebp]
	sar	eax, 2
	mov	DWORD PTR __Count$[ebp], eax

; 460  : 	return ((_Ty2 *)_CSTD memmove(&*_Dest, &*_First,
; 461  : 		_Count * sizeof (*_First)) + _Count);	// NB: non-overlapping move

	mov	ecx, DWORD PTR __Count$[ebp]
	shl	ecx, 2
	push	ecx
	mov	edx, DWORD PTR __First$[ebp]
	push	edx
	mov	eax, DWORD PTR __Dest$[ebp]
	push	eax
	call	_memmove
	add	esp, 12					; 0000000cH
	mov	ecx, DWORD PTR __Count$[ebp]
	lea	eax, DWORD PTR [eax+ecx*4]

; 462  : 	}

	add	esp, 4
	cmp	ebp, esp
	call	__RTC_CheckEsp
	mov	esp, ebp
	pop	ebp
	ret	0
??$_Uninit_move@PAVGoal_Evaluator@@PAV1@PAV1@@std@@YAPAPAVGoal_Evaluator@@PAPAV1@00AAV?$allocator@PAVGoal_Evaluator@@@0@0U_Scalar_ptr_iterator_tag@0@@Z ENDP ; std::_Uninit_move<Goal_Evaluator *,Goal_Evaluator *,Goal_Evaluator *>
; Function compile flags: /Odtp /RTCsu
; File c:\program files (x86)\microsoft visual studio 10.0\vc\include\utility
_TEXT	ENDS
;	COMDAT ??$forward@ABQAV?$Goal@VAbstRaven_Bot@@@@@std@@YAABQAV?$Goal@VAbstRaven_Bot@@@@ABQAV1@@Z
_TEXT	SEGMENT
__Arg$ = 8						; size = 4
??$forward@ABQAV?$Goal@VAbstRaven_Bot@@@@@std@@YAABQAV?$Goal@VAbstRaven_Bot@@@@ABQAV1@@Z PROC ; std::forward<Goal<AbstRaven_Bot> * const &>, COMDAT

; 78   : 	{	// forward _Arg, given explicitly specified type parameter

	push	ebp
	mov	ebp, esp

; 79   : 	return ((_Ty&&)_Arg);

	mov	eax, DWORD PTR __Arg$[ebp]

; 80   : 	}

	pop	ebp
	ret	0
??$forward@ABQAV?$Goal@VAbstRaven_Bot@@@@@std@@YAABQAV?$Goal@VAbstRaven_Bot@@@@ABQAV1@@Z ENDP ; std::forward<Goal<AbstRaven_Bot> * const &>
_TEXT	ENDS
;	COMDAT xdata$x
; File c:\program files (x86)\microsoft visual studio 10.0\vc\include\xmemory
xdata$x	SEGMENT
__unwindtable$??$_Construct@PAV?$Goal@VAbstRaven_Bot@@@@ABQAV1@@std@@YAXPAPAV?$Goal@VAbstRaven_Bot@@@@ABQAV1@@Z DD 0ffffffffH
	DD	FLAT:__unwindfunclet$??$_Construct@PAV?$Goal@VAbstRaven_Bot@@@@ABQAV1@@std@@YAXPAPAV?$Goal@VAbstRaven_Bot@@@@ABQAV1@@Z$0
__ehfuncinfo$??$_Construct@PAV?$Goal@VAbstRaven_Bot@@@@ABQAV1@@std@@YAXPAPAV?$Goal@VAbstRaven_Bot@@@@ABQAV1@@Z DD 019930522H
	DD	01H
	DD	FLAT:__unwindtable$??$_Construct@PAV?$Goal@VAbstRaven_Bot@@@@ABQAV1@@std@@YAXPAPAV?$Goal@VAbstRaven_Bot@@@@ABQAV1@@Z
	DD	2 DUP(00H)
	DD	2 DUP(00H)
	DD	00H
	DD	01H
; Function compile flags: /Odtp /RTCsu
xdata$x	ENDS
;	COMDAT ??$_Construct@PAV?$Goal@VAbstRaven_Bot@@@@ABQAV1@@std@@YAXPAPAV?$Goal@VAbstRaven_Bot@@@@ABQAV1@@Z
_TEXT	SEGMENT
tv73 = -28						; size = 4
$T142585 = -24						; size = 4
$T142584 = -20						; size = 4
__Vptr$ = -16						; size = 4
__$EHRec$ = -12						; size = 12
__Ptr$ = 8						; size = 4
__Val$ = 12						; size = 4
??$_Construct@PAV?$Goal@VAbstRaven_Bot@@@@ABQAV1@@std@@YAXPAPAV?$Goal@VAbstRaven_Bot@@@@ABQAV1@@Z PROC ; std::_Construct<Goal<AbstRaven_Bot> *,Goal<AbstRaven_Bot> * const &>, COMDAT

; 46   : 	{	// construct object at _Ptr with value _Val

	push	ebp
	mov	ebp, esp
	push	-1
	push	__ehhandler$??$_Construct@PAV?$Goal@VAbstRaven_Bot@@@@ABQAV1@@std@@YAXPAPAV?$Goal@VAbstRaven_Bot@@@@ABQAV1@@Z
	mov	eax, DWORD PTR fs:0
	push	eax
	sub	esp, 16					; 00000010H
	mov	eax, -858993460				; ccccccccH
	mov	DWORD PTR [ebp-28], eax
	mov	DWORD PTR [ebp-24], eax
	mov	DWORD PTR [ebp-20], eax
	mov	DWORD PTR [ebp-16], eax
	mov	eax, DWORD PTR ___security_cookie
	xor	eax, ebp
	push	eax
	lea	eax, DWORD PTR __$EHRec$[ebp]
	mov	DWORD PTR fs:0, eax

; 47   : 	void _FARQ *_Vptr = _Ptr;

	mov	eax, DWORD PTR __Ptr$[ebp]
	mov	DWORD PTR __Vptr$[ebp], eax

; 48   : 	::new (_Vptr) _Ty1(_STD forward<_Ty2>(_Val));

	mov	ecx, DWORD PTR __Vptr$[ebp]
	push	ecx
	push	4
	call	??2@YAPAXIPAX@Z				; operator new
	add	esp, 8
	mov	DWORD PTR $T142585[ebp], eax
	mov	DWORD PTR __$EHRec$[ebp+8], 0
	cmp	DWORD PTR $T142585[ebp], 0
	je	SHORT $LN3@Construct
	mov	edx, DWORD PTR __Val$[ebp]
	push	edx
	call	??$forward@ABQAV?$Goal@VAbstRaven_Bot@@@@@std@@YAABQAV?$Goal@VAbstRaven_Bot@@@@ABQAV1@@Z ; std::forward<Goal<AbstRaven_Bot> * const &>
	add	esp, 4
	mov	ecx, DWORD PTR $T142585[ebp]
	mov	edx, DWORD PTR [eax]
	mov	DWORD PTR [ecx], edx
	mov	eax, DWORD PTR $T142585[ebp]
	mov	DWORD PTR tv73[ebp], eax
	jmp	SHORT $LN4@Construct
$LN3@Construct:
	mov	DWORD PTR tv73[ebp], 0
$LN4@Construct:
	mov	ecx, DWORD PTR tv73[ebp]
	mov	DWORD PTR $T142584[ebp], ecx
	mov	DWORD PTR __$EHRec$[ebp+8], -1

; 49   : 	}

	mov	ecx, DWORD PTR __$EHRec$[ebp]
	mov	DWORD PTR fs:0, ecx
	pop	ecx
	add	esp, 28					; 0000001cH
	cmp	ebp, esp
	call	__RTC_CheckEsp
	mov	esp, ebp
	pop	ebp
	ret	0
_TEXT	ENDS
;	COMDAT text$x
text$x	SEGMENT
__unwindfunclet$??$_Construct@PAV?$Goal@VAbstRaven_Bot@@@@ABQAV1@@std@@YAXPAPAV?$Goal@VAbstRaven_Bot@@@@ABQAV1@@Z$0:
	mov	eax, DWORD PTR __Vptr$[ebp]
	push	eax
	mov	ecx, DWORD PTR $T142585[ebp]
	push	ecx
	call	??3@YAXPAX0@Z				; operator delete
	add	esp, 8
	ret	0
__ehhandler$??$_Construct@PAV?$Goal@VAbstRaven_Bot@@@@ABQAV1@@std@@YAXPAPAV?$Goal@VAbstRaven_Bot@@@@ABQAV1@@Z:
	mov	edx, DWORD PTR [esp+8]
	lea	eax, DWORD PTR [edx+12]
	mov	ecx, DWORD PTR [edx-20]
	xor	ecx, eax
	call	@__security_check_cookie@4
	mov	eax, OFFSET __ehfuncinfo$??$_Construct@PAV?$Goal@VAbstRaven_Bot@@@@ABQAV1@@std@@YAXPAPAV?$Goal@VAbstRaven_Bot@@@@ABQAV1@@Z
	jmp	___CxxFrameHandler3
text$x	ENDS
??$_Construct@PAV?$Goal@VAbstRaven_Bot@@@@ABQAV1@@std@@YAXPAPAV?$Goal@VAbstRaven_Bot@@@@ABQAV1@@Z ENDP ; std::_Construct<Goal<AbstRaven_Bot> *,Goal<AbstRaven_Bot> * const &>
PUBLIC	??8?$_List_const_iterator@V?$_List_val@PAV?$Goal@VAbstRaven_Bot@@@@V?$allocator@PAV?$Goal@VAbstRaven_Bot@@@@@std@@@std@@@std@@QBE_NABV01@@Z ; std::_List_const_iterator<std::_List_val<Goal<AbstRaven_Bot> *,std::allocator<Goal<AbstRaven_Bot> *> > >::operator==
PUBLIC	?base@?$_Revranit@V?$_List_const_iterator@V?$_List_val@PAV?$Goal@VAbstRaven_Bot@@@@V?$allocator@PAV?$Goal@VAbstRaven_Bot@@@@@std@@@std@@@std@@U?$iterator@Ubidirectional_iterator_tag@std@@PAV?$Goal@VAbstRaven_Bot@@@@HPBQAV3@ABQAV3@@2@@std@@QBE?AV?$_List_const_iterator@V?$_List_val@PAV?$Goal@VAbstRaven_Bot@@@@V?$allocator@PAV?$Goal@VAbstRaven_Bot@@@@@std@@@std@@@2@XZ ; std::_Revranit<std::_List_const_iterator<std::_List_val<Goal<AbstRaven_Bot> *,std::allocator<Goal<AbstRaven_Bot> *> > >,std::iterator<std::bidirectional_iterator_tag,Goal<AbstRaven_Bot> *,int,Goal<AbstRaven_Bot> * const *,Goal<AbstRaven_Bot> * const &> >::base
;	COMDAT xdata$x
; File c:\program files (x86)\microsoft visual studio 10.0\vc\include\xutility
xdata$x	SEGMENT
__unwindtable$??$_Equal@V?$_List_const_iterator@V?$_List_val@PAV?$Goal@VAbstRaven_Bot@@@@V?$allocator@PAV?$Goal@VAbstRaven_Bot@@@@@std@@@std@@@std@@U?$iterator@Ubidirectional_iterator_tag@std@@PAV?$Goal@VAbstRaven_Bot@@@@HPBQAV3@ABQAV3@@2@@?$_Revranit@V?$_List_const_iterator@V?$_List_val@PAV?$Goal@VAbstRaven_Bot@@@@V?$allocator@PAV?$Goal@VAbstRaven_Bot@@@@@std@@@std@@@std@@U?$iterator@Ubidirectional_iterator_tag@std@@PAV?$Goal@VAbstRaven_Bot@@@@HPBQAV3@ABQAV3@@2@@std@@QBE_NABV01@@Z DD 0ffffffffH
	DD	FLAT:__unwindfunclet$??$_Equal@V?$_List_const_iterator@V?$_List_val@PAV?$Goal@VAbstRaven_Bot@@@@V?$allocator@PAV?$Goal@VAbstRaven_Bot@@@@@std@@@std@@@std@@U?$iterator@Ubidirectional_iterator_tag@std@@PAV?$Goal@VAbstRaven_Bot@@@@HPBQAV3@ABQAV3@@2@@?$_Revranit@V?$_List_const_iterator@V?$_List_val@PAV?$Goal@VAbstRaven_Bot@@@@V?$allocator@PAV?$Goal@VAbstRaven_Bot@@@@@std@@@std@@@std@@U?$iterator@Ubidirectional_iterator_tag@std@@PAV?$Goal@VAbstRaven_Bot@@@@HPBQAV3@ABQAV3@@2@@std@@QBE_NABV01@@Z$0
__ehfuncinfo$??$_Equal@V?$_List_const_iterator@V?$_List_val@PAV?$Goal@VAbstRaven_Bot@@@@V?$allocator@PAV?$Goal@VAbstRaven_Bot@@@@@std@@@std@@@std@@U?$iterator@Ubidirectional_iterator_tag@std@@PAV?$Goal@VAbstRaven_Bot@@@@HPBQAV3@ABQAV3@@2@@?$_Revranit@V?$_List_const_iterator@V?$_List_val@PAV?$Goal@VAbstRaven_Bot@@@@V?$allocator@PAV?$Goal@VAbstRaven_Bot@@@@@std@@@std@@@std@@U?$iterator@Ubidirectional_iterator_tag@std@@PAV?$Goal@VAbstRaven_Bot@@@@HPBQAV3@ABQAV3@@2@@std@@QBE_NABV01@@Z DD 019930522H
	DD	01H
	DD	FLAT:__unwindtable$??$_Equal@V?$_List_const_iterator@V?$_List_val@PAV?$Goal@VAbstRaven_Bot@@@@V?$allocator@PAV?$Goal@VAbstRaven_Bot@@@@@std@@@std@@@std@@U?$iterator@Ubidirectional_iterator_tag@std@@PAV?$Goal@VAbstRaven_Bot@@@@HPBQAV3@ABQAV3@@2@@?$_Revranit@V?$_List_const_iterator@V?$_List_val@PAV?$Goal@VAbstRaven_Bot@@@@V?$allocator@PAV?$Goal@VAbstRaven_Bot@@@@@std@@@std@@@std@@U?$iterator@Ubidirectional_iterator_tag@std@@PAV?$Goal@VAbstRaven_Bot@@@@HPBQAV3@ABQAV3@@2@@std@@QBE_NABV01@@Z
	DD	2 DUP(00H)
	DD	2 DUP(00H)
	DD	00H
	DD	01H
; Function compile flags: /Odtp /RTCsu
xdata$x	ENDS
;	COMDAT ??$_Equal@V?$_List_const_iterator@V?$_List_val@PAV?$Goal@VAbstRaven_Bot@@@@V?$allocator@PAV?$Goal@VAbstRaven_Bot@@@@@std@@@std@@@std@@U?$iterator@Ubidirectional_iterator_tag@std@@PAV?$Goal@VAbstRaven_Bot@@@@HPBQAV3@ABQAV3@@2@@?$_Revranit@V?$_List_const_iterator@V?$_List_val@PAV?$Goal@VAbstRaven_Bot@@@@V?$allocator@PAV?$Goal@VAbstRaven_Bot@@@@@std@@@std@@@std@@U?$iterator@Ubidirectional_iterator_tag@std@@PAV?$Goal@VAbstRaven_Bot@@@@HPBQAV3@ABQAV3@@2@@std@@QBE_NABV01@@Z
_TEXT	SEGMENT
tv73 = -40						; size = 4
tv74 = -36						; size = 4
$T142598 = -32						; size = 12
$T142597 = -17						; size = 1
_this$ = -16						; size = 4
__$EHRec$ = -12						; size = 12
__Right$ = 8						; size = 4
??$_Equal@V?$_List_const_iterator@V?$_List_val@PAV?$Goal@VAbstRaven_Bot@@@@V?$allocator@PAV?$Goal@VAbstRaven_Bot@@@@@std@@@std@@@std@@U?$iterator@Ubidirectional_iterator_tag@std@@PAV?$Goal@VAbstRaven_Bot@@@@HPBQAV3@ABQAV3@@2@@?$_Revranit@V?$_List_const_iterator@V?$_List_val@PAV?$Goal@VAbstRaven_Bot@@@@V?$allocator@PAV?$Goal@VAbstRaven_Bot@@@@@std@@@std@@@std@@U?$iterator@Ubidirectional_iterator_tag@std@@PAV?$Goal@VAbstRaven_Bot@@@@HPBQAV3@ABQAV3@@2@@std@@QBE_NABV01@@Z PROC ; std::_Revranit<std::_List_const_iterator<std::_List_val<Goal<AbstRaven_Bot> *,std::allocator<Goal<AbstRaven_Bot> *> > >,std::iterator<std::bidirectional_iterator_tag,Goal<AbstRaven_Bot> *,int,Goal<AbstRaven_Bot> * const *,Goal<AbstRaven_Bot> * const &> >::_Equal<std::_List_const_iterator<std::_List_val<Goal<AbstRaven_Bot> *,std::allocator<Goal<AbstRaven_Bot> *> > >,std::iterator<std::bidirectional_iterator_tag,Goal<AbstRaven_Bot> *,int,Goal<AbstRaven_Bot> * const *,Goal<AbstRaven_Bot> * const &> >, COMDAT
; _this$ = ecx

; 1093 : 		bool _Equal(const _Revranit<_RanIt2, _Base2>& _Right) const

	push	ebp
	mov	ebp, esp
	push	-1
	push	__ehhandler$??$_Equal@V?$_List_const_iterator@V?$_List_val@PAV?$Goal@VAbstRaven_Bot@@@@V?$allocator@PAV?$Goal@VAbstRaven_Bot@@@@@std@@@std@@@std@@U?$iterator@Ubidirectional_iterator_tag@std@@PAV?$Goal@VAbstRaven_Bot@@@@HPBQAV3@ABQAV3@@2@@?$_Revranit@V?$_List_const_iterator@V?$_List_val@PAV?$Goal@VAbstRaven_Bot@@@@V?$allocator@PAV?$Goal@VAbstRaven_Bot@@@@@std@@@std@@@std@@U?$iterator@Ubidirectional_iterator_tag@std@@PAV?$Goal@VAbstRaven_Bot@@@@HPBQAV3@ABQAV3@@2@@std@@QBE_NABV01@@Z
	mov	eax, DWORD PTR fs:0
	push	eax
	sub	esp, 28					; 0000001cH
	mov	eax, -858993460				; ccccccccH
	mov	DWORD PTR [ebp-40], eax
	mov	DWORD PTR [ebp-36], eax
	mov	DWORD PTR [ebp-32], eax
	mov	DWORD PTR [ebp-28], eax
	mov	DWORD PTR [ebp-24], eax
	mov	DWORD PTR [ebp-20], eax
	mov	DWORD PTR [ebp-16], eax
	mov	eax, DWORD PTR ___security_cookie
	xor	eax, ebp
	push	eax
	lea	eax, DWORD PTR __$EHRec$[ebp]
	mov	DWORD PTR fs:0, eax
	mov	DWORD PTR _this$[ebp], ecx

; 1094 : 		{	// test for iterator equality
; 1095 : 		return (current == _Right.base());

	lea	eax, DWORD PTR $T142598[ebp]
	push	eax
	mov	ecx, DWORD PTR __Right$[ebp]
	call	?base@?$_Revranit@V?$_List_const_iterator@V?$_List_val@PAV?$Goal@VAbstRaven_Bot@@@@V?$allocator@PAV?$Goal@VAbstRaven_Bot@@@@@std@@@std@@@std@@U?$iterator@Ubidirectional_iterator_tag@std@@PAV?$Goal@VAbstRaven_Bot@@@@HPBQAV3@ABQAV3@@2@@std@@QBE?AV?$_List_const_iterator@V?$_List_val@PAV?$Goal@VAbstRaven_Bot@@@@V?$allocator@PAV?$Goal@VAbstRaven_Bot@@@@@std@@@std@@@2@XZ ; std::_Revranit<std::_List_const_iterator<std::_List_val<Goal<AbstRaven_Bot> *,std::allocator<Goal<AbstRaven_Bot> *> > >,std::iterator<std::bidirectional_iterator_tag,Goal<AbstRaven_Bot> *,int,Goal<AbstRaven_Bot> * const *,Goal<AbstRaven_Bot> * const &> >::base
	mov	DWORD PTR tv74[ebp], eax
	mov	ecx, DWORD PTR tv74[ebp]
	mov	DWORD PTR tv73[ebp], ecx
	mov	DWORD PTR __$EHRec$[ebp+8], 0
	mov	edx, DWORD PTR tv73[ebp]
	push	edx
	mov	ecx, DWORD PTR _this$[ebp]
	call	??8?$_List_const_iterator@V?$_List_val@PAV?$Goal@VAbstRaven_Bot@@@@V?$allocator@PAV?$Goal@VAbstRaven_Bot@@@@@std@@@std@@@std@@QBE_NABV01@@Z ; std::_List_const_iterator<std::_List_val<Goal<AbstRaven_Bot> *,std::allocator<Goal<AbstRaven_Bot> *> > >::operator==
	mov	BYTE PTR $T142597[ebp], al
	mov	DWORD PTR __$EHRec$[ebp+8], -1
	lea	ecx, DWORD PTR $T142598[ebp]
	call	??1?$_List_const_iterator@V?$_List_val@PAV?$Goal@VAbstRaven_Bot@@@@V?$allocator@PAV?$Goal@VAbstRaven_Bot@@@@@std@@@std@@@std@@QAE@XZ
	mov	al, BYTE PTR $T142597[ebp]

; 1096 : 		}

	mov	ecx, DWORD PTR __$EHRec$[ebp]
	mov	DWORD PTR fs:0, ecx
	pop	ecx
	add	esp, 40					; 00000028H
	cmp	ebp, esp
	call	__RTC_CheckEsp
	mov	esp, ebp
	pop	ebp
	ret	4
_TEXT	ENDS
;	COMDAT text$x
text$x	SEGMENT
__unwindfunclet$??$_Equal@V?$_List_const_iterator@V?$_List_val@PAV?$Goal@VAbstRaven_Bot@@@@V?$allocator@PAV?$Goal@VAbstRaven_Bot@@@@@std@@@std@@@std@@U?$iterator@Ubidirectional_iterator_tag@std@@PAV?$Goal@VAbstRaven_Bot@@@@HPBQAV3@ABQAV3@@2@@?$_Revranit@V?$_List_const_iterator@V?$_List_val@PAV?$Goal@VAbstRaven_Bot@@@@V?$allocator@PAV?$Goal@VAbstRaven_Bot@@@@@std@@@std@@@std@@U?$iterator@Ubidirectional_iterator_tag@std@@PAV?$Goal@VAbstRaven_Bot@@@@HPBQAV3@ABQAV3@@2@@std@@QBE_NABV01@@Z$0:
	lea	ecx, DWORD PTR $T142598[ebp]
	jmp	??1?$_List_const_iterator@V?$_List_val@PAV?$Goal@VAbstRaven_Bot@@@@V?$allocator@PAV?$Goal@VAbstRaven_Bot@@@@@std@@@std@@@std@@QAE@XZ
__ehhandler$??$_Equal@V?$_List_const_iterator@V?$_List_val@PAV?$Goal@VAbstRaven_Bot@@@@V?$allocator@PAV?$Goal@VAbstRaven_Bot@@@@@std@@@std@@@std@@U?$iterator@Ubidirectional_iterator_tag@std@@PAV?$Goal@VAbstRaven_Bot@@@@HPBQAV3@ABQAV3@@2@@?$_Revranit@V?$_List_const_iterator@V?$_List_val@PAV?$Goal@VAbstRaven_Bot@@@@V?$allocator@PAV?$Goal@VAbstRaven_Bot@@@@@std@@@std@@@std@@U?$iterator@Ubidirectional_iterator_tag@std@@PAV?$Goal@VAbstRaven_Bot@@@@HPBQAV3@ABQAV3@@2@@std@@QBE_NABV01@@Z:
	mov	edx, DWORD PTR [esp+8]
	lea	eax, DWORD PTR [edx+12]
	mov	ecx, DWORD PTR [edx-32]
	xor	ecx, eax
	call	@__security_check_cookie@4
	mov	eax, OFFSET __ehfuncinfo$??$_Equal@V?$_List_const_iterator@V?$_List_val@PAV?$Goal@VAbstRaven_Bot@@@@V?$allocator@PAV?$Goal@VAbstRaven_Bot@@@@@std@@@std@@@std@@U?$iterator@Ubidirectional_iterator_tag@std@@PAV?$Goal@VAbstRaven_Bot@@@@HPBQAV3@ABQAV3@@2@@?$_Revranit@V?$_List_const_iterator@V?$_List_val@PAV?$Goal@VAbstRaven_Bot@@@@V?$allocator@PAV?$Goal@VAbstRaven_Bot@@@@@std@@@std@@@std@@U?$iterator@Ubidirectional_iterator_tag@std@@PAV?$Goal@VAbstRaven_Bot@@@@HPBQAV3@ABQAV3@@2@@std@@QBE_NABV01@@Z
	jmp	___CxxFrameHandler3
text$x	ENDS
??$_Equal@V?$_List_const_iterator@V?$_List_val@PAV?$Goal@VAbstRaven_Bot@@@@V?$allocator@PAV?$Goal@VAbstRaven_Bot@@@@@std@@@std@@@std@@U?$iterator@Ubidirectional_iterator_tag@std@@PAV?$Goal@VAbstRaven_Bot@@@@HPBQAV3@ABQAV3@@2@@?$_Revranit@V?$_List_const_iterator@V?$_List_val@PAV?$Goal@VAbstRaven_Bot@@@@V?$allocator@PAV?$Goal@VAbstRaven_Bot@@@@@std@@@std@@@std@@U?$iterator@Ubidirectional_iterator_tag@std@@PAV?$Goal@VAbstRaven_Bot@@@@HPBQAV3@ABQAV3@@2@@std@@QBE_NABV01@@Z ENDP ; std::_Revranit<std::_List_const_iterator<std::_List_val<Goal<AbstRaven_Bot> *,std::allocator<Goal<AbstRaven_Bot> *> > >,std::iterator<std::bidirectional_iterator_tag,Goal<AbstRaven_Bot> *,int,Goal<AbstRaven_Bot> * const *,Goal<AbstRaven_Bot> * const &> >::_Equal<std::_List_const_iterator<std::_List_val<Goal<AbstRaven_Bot> *,std::allocator<Goal<AbstRaven_Bot> *> > >,std::iterator<std::bidirectional_iterator_tag,Goal<AbstRaven_Bot> *,int,Goal<AbstRaven_Bot> * const *,Goal<AbstRaven_Bot> * const &> >
PUBLIC	??_C@_1BDE@PCDGGLCE@?$AAs?$AAt?$AAd?$AA?3?$AA?3?$AA_?$AAL?$AAi?$AAs?$AAt?$AA_?$AAc?$AAo?$AAn?$AAs?$AAt?$AA_?$AAi?$AAt?$AAe?$AAr?$AAa?$AAt?$AAo?$AAr?$AA?$DM?$AAc?$AAl?$AAa?$AAs?$AAs?$AA?5@ ; `string'
PUBLIC	??_C@_1DI@MDELDGPI@?$AAl?$AAi?$AAs?$AAt?$AA?5?$AAi?$AAt?$AAe?$AAr?$AAa?$AAt?$AAo?$AAr?$AAs?$AA?5?$AAi?$AAn?$AAc?$AAo?$AAm?$AAp?$AAa?$AAt?$AAi?$AAb?$AAl?$AAe?$AA?$AA@ ; `string'
;	COMDAT ??_C@_1BDE@PCDGGLCE@?$AAs?$AAt?$AAd?$AA?3?$AA?3?$AA_?$AAL?$AAi?$AAs?$AAt?$AA_?$AAc?$AAo?$AAn?$AAs?$AAt?$AA_?$AAi?$AAt?$AAe?$AAr?$AAa?$AAt?$AAo?$AAr?$AA?$DM?$AAc?$AAl?$AAa?$AAs?$AAs?$AA?5@
; File c:\program files (x86)\microsoft visual studio 10.0\vc\include\list
CONST	SEGMENT
??_C@_1BDE@PCDGGLCE@?$AAs?$AAt?$AAd?$AA?3?$AA?3?$AA_?$AAL?$AAi?$AAs?$AAt?$AA_?$AAc?$AAo?$AAn?$AAs?$AAt?$AA_?$AAi?$AAt?$AAe?$AAr?$AAa?$AAt?$AAo?$AAr?$AA?$DM?$AAc?$AAl?$AAa?$AAs?$AAs?$AA?5@ DB 's'
	DB	00H, 't', 00H, 'd', 00H, ':', 00H, ':', 00H, '_', 00H, 'L', 00H
	DB	'i', 00H, 's', 00H, 't', 00H, '_', 00H, 'c', 00H, 'o', 00H, 'n'
	DB	00H, 's', 00H, 't', 00H, '_', 00H, 'i', 00H, 't', 00H, 'e', 00H
	DB	'r', 00H, 'a', 00H, 't', 00H, 'o', 00H, 'r', 00H, '<', 00H, 'c'
	DB	00H, 'l', 00H, 'a', 00H, 's', 00H, 's', 00H, ' ', 00H, 's', 00H
	DB	't', 00H, 'd', 00H, ':', 00H, ':', 00H, '_', 00H, 'L', 00H, 'i'
	DB	00H, 's', 00H, 't', 00H, '_', 00H, 'v', 00H, 'a', 00H, 'l', 00H
	DB	'<', 00H, 'c', 00H, 'l', 00H, 'a', 00H, 's', 00H, 's', 00H, ' '
	DB	00H, 'G', 00H, 'o', 00H, 'a', 00H, 'l', 00H, '<', 00H, 'c', 00H
	DB	'l', 00H, 'a', 00H, 's', 00H, 's', 00H, ' ', 00H, 'A', 00H, 'b'
	DB	00H, 's', 00H, 't', 00H, 'R', 00H, 'a', 00H, 'v', 00H, 'e', 00H
	DB	'n', 00H, '_', 00H, 'B', 00H, 'o', 00H, 't', 00H, '>', 00H, ' '
	DB	00H, '*', 00H, ',', 00H, 'c', 00H, 'l', 00H, 'a', 00H, 's', 00H
	DB	's', 00H, ' ', 00H, 's', 00H, 't', 00H, 'd', 00H, ':', 00H, ':'
	DB	00H, 'a', 00H, 'l', 00H, 'l', 00H, 'o', 00H, 'c', 00H, 'a', 00H
	DB	't', 00H, 'o', 00H, 'r', 00H, '<', 00H, 'c', 00H, 'l', 00H, 'a'
	DB	00H, 's', 00H, 's', 00H, ' ', 00H, 'G', 00H, 'o', 00H, 'a', 00H
	DB	'l', 00H, '<', 00H, 'c', 00H, 'l', 00H, 'a', 00H, 's', 00H, 's'
	DB	00H, ' ', 00H, 'A', 00H, 'b', 00H, 's', 00H, 't', 00H, 'R', 00H
	DB	'a', 00H, 'v', 00H, 'e', 00H, 'n', 00H, '_', 00H, 'B', 00H, 'o'
	DB	00H, 't', 00H, '>', 00H, ' ', 00H, '*', 00H, '>', 00H, ' ', 00H
	DB	'>', 00H, ' ', 00H, '>', 00H, ':', 00H, ':', 00H, 'o', 00H, 'p'
	DB	00H, 'e', 00H, 'r', 00H, 'a', 00H, 't', 00H, 'o', 00H, 'r', 00H
	DB	' ', 00H, '=', 00H, '=', 00H, 00H, 00H	; `string'
CONST	ENDS
;	COMDAT ??_C@_1DI@MDELDGPI@?$AAl?$AAi?$AAs?$AAt?$AA?5?$AAi?$AAt?$AAe?$AAr?$AAa?$AAt?$AAo?$AAr?$AAs?$AA?5?$AAi?$AAn?$AAc?$AAo?$AAm?$AAp?$AAa?$AAt?$AAi?$AAb?$AAl?$AAe?$AA?$AA@
CONST	SEGMENT
??_C@_1DI@MDELDGPI@?$AAl?$AAi?$AAs?$AAt?$AA?5?$AAi?$AAt?$AAe?$AAr?$AAa?$AAt?$AAo?$AAr?$AAs?$AA?5?$AAi?$AAn?$AAc?$AAo?$AAm?$AAp?$AAa?$AAt?$AAi?$AAb?$AAl?$AAe?$AA?$AA@ DB 'l'
	DB	00H, 'i', 00H, 's', 00H, 't', 00H, ' ', 00H, 'i', 00H, 't', 00H
	DB	'e', 00H, 'r', 00H, 'a', 00H, 't', 00H, 'o', 00H, 'r', 00H, 's'
	DB	00H, ' ', 00H, 'i', 00H, 'n', 00H, 'c', 00H, 'o', 00H, 'm', 00H
	DB	'p', 00H, 'a', 00H, 't', 00H, 'i', 00H, 'b', 00H, 'l', 00H, 'e'
	DB	00H, 00H, 00H				; `string'
; Function compile flags: /Odtp /RTCsu
CONST	ENDS
;	COMDAT ??8?$_List_const_iterator@V?$_List_val@PAV?$Goal@VAbstRaven_Bot@@@@V?$allocator@PAV?$Goal@VAbstRaven_Bot@@@@@std@@@std@@@std@@QBE_NABV01@@Z
_TEXT	SEGMENT
_this$ = -4						; size = 4
__Right$ = 8						; size = 4
??8?$_List_const_iterator@V?$_List_val@PAV?$Goal@VAbstRaven_Bot@@@@V?$allocator@PAV?$Goal@VAbstRaven_Bot@@@@@std@@@std@@@std@@QBE_NABV01@@Z PROC ; std::_List_const_iterator<std::_List_val<Goal<AbstRaven_Bot> *,std::allocator<Goal<AbstRaven_Bot> *> > >::operator==, COMDAT
; _this$ = ecx

; 281  : 		{	// test for iterator equality

	push	ebp
	mov	ebp, esp
	push	ecx
	push	esi
	mov	DWORD PTR [ebp-4], -858993460		; ccccccccH
	mov	DWORD PTR _this$[ebp], ecx

; 282  :  #if _ITERATOR_DEBUG_LEVEL == 2
; 283  : 		if (this->_Getcont() == 0
; 284  : 			|| this->_Getcont() != _Right._Getcont())

	mov	ecx, DWORD PTR _this$[ebp]
	call	?_Getcont@_Iterator_base12@std@@QBEPBU_Container_base12@2@XZ ; std::_Iterator_base12::_Getcont
	test	eax, eax
	je	SHORT $LN1@operator@6
	mov	ecx, DWORD PTR _this$[ebp]
	call	?_Getcont@_Iterator_base12@std@@QBEPBU_Container_base12@2@XZ ; std::_Iterator_base12::_Getcont
	mov	esi, eax
	mov	ecx, DWORD PTR __Right$[ebp]
	call	?_Getcont@_Iterator_base12@std@@QBEPBU_Container_base12@2@XZ ; std::_Iterator_base12::_Getcont
	cmp	esi, eax
	je	SHORT $LN2@operator@6
$LN1@operator@6:

; 285  : 			{	// report error
; 286  : 			_DEBUG_ERROR("list iterators incompatible");

	push	286					; 0000011eH
	push	OFFSET ??_C@_1II@KCMIDAEO@?$AAc?$AA?3?$AA?2?$AAP?$AAr?$AAo?$AAg?$AAr?$AAa?$AAm?$AA?5?$AAF?$AAi?$AAl?$AAe?$AAs?$AA?5?$AA?$CI?$AAx?$AA8?$AA6?$AA?$CJ?$AA?2?$AAM?$AAi?$AAc?$AAr?$AAo?$AAs?$AAo?$AAf?$AAt@
	push	OFFSET ??_C@_1DI@MDELDGPI@?$AAl?$AAi?$AAs?$AAt?$AA?5?$AAi?$AAt?$AAe?$AAr?$AAa?$AAt?$AAo?$AAr?$AAs?$AA?5?$AAi?$AAn?$AAc?$AAo?$AAm?$AAp?$AAa?$AAt?$AAi?$AAb?$AAl?$AAe?$AA?$AA@
	call	?_Debug_message@std@@YAXPB_W0I@Z	; std::_Debug_message
	add	esp, 12					; 0000000cH

; 287  : 			_SCL_SECURE_INVALID_ARGUMENT;

	mov	eax, OFFSET ??_C@_0CI@FNPHFCCM@Standard?5C?$CL?$CL?5Libraries?5Invalid?5A@
	test	eax, eax
	je	SHORT $LN5@operator@6
	xor	ecx, ecx
	jne	SHORT $LN6@operator@6
$LN5@operator@6:
	push	OFFSET ??_C@_1FO@GJIHNDLM@?$AA?$CC?$AAS?$AAt?$AAa?$AAn?$AAd?$AAa?$AAr?$AAd?$AA?5?$AAC?$AA?$CL?$AA?$CL?$AA?5?$AAL?$AAi?$AAb?$AAr?$AAa?$AAr?$AAi?$AAe?$AAs?$AA?5?$AAI?$AAn?$AAv?$AAa?$AAl?$AAi?$AAd?$AA?5@
	push	0
	push	287					; 0000011fH
	push	OFFSET ??_C@_1II@KCMIDAEO@?$AAc?$AA?3?$AA?2?$AAP?$AAr?$AAo?$AAg?$AAr?$AAa?$AAm?$AA?5?$AAF?$AAi?$AAl?$AAe?$AAs?$AA?5?$AA?$CI?$AAx?$AA8?$AA6?$AA?$CJ?$AA?2?$AAM?$AAi?$AAc?$AAr?$AAo?$AAs?$AAo?$AAf?$AAt@
	push	2
	call	__CrtDbgReportW
	add	esp, 20					; 00000014H
	cmp	eax, 1
	jne	SHORT $LN6@operator@6
	int	3
$LN6@operator@6:
	push	0
	push	287					; 0000011fH
	push	OFFSET ??_C@_1II@KCMIDAEO@?$AAc?$AA?3?$AA?2?$AAP?$AAr?$AAo?$AAg?$AAr?$AAa?$AAm?$AA?5?$AAF?$AAi?$AAl?$AAe?$AAs?$AA?5?$AA?$CI?$AAx?$AA8?$AA6?$AA?$CJ?$AA?2?$AAM?$AAi?$AAc?$AAr?$AAo?$AAs?$AAo?$AAf?$AAt@
	push	OFFSET ??_C@_1BDE@PCDGGLCE@?$AAs?$AAt?$AAd?$AA?3?$AA?3?$AA_?$AAL?$AAi?$AAs?$AAt?$AA_?$AAc?$AAo?$AAn?$AAs?$AAt?$AA_?$AAi?$AAt?$AAe?$AAr?$AAa?$AAt?$AAo?$AAr?$AA?$DM?$AAc?$AAl?$AAa?$AAs?$AAs?$AA?5@
	push	OFFSET ??_C@_1CG@JNLFBNGN@?$AA?$CC?$AAi?$AAn?$AAv?$AAa?$AAl?$AAi?$AAd?$AA?5?$AAa?$AAr?$AAg?$AAu?$AAm?$AAe?$AAn?$AAt?$AA?$CC?$AA?$AA@
	call	__invalid_parameter
	add	esp, 20					; 00000014H
$LN2@operator@6:

; 288  : 			}
; 289  : 
; 290  :  #elif _ITERATOR_DEBUG_LEVEL == 1
; 291  : 		_SCL_SECURE_VALIDATE(this->_Getcont() != 0
; 292  : 			&& this->_Getcont() == _Right._Getcont());
; 293  :  #endif /* _ITERATOR_DEBUG_LEVEL */
; 294  : 
; 295  : 		return (this->_Ptr == _Right._Ptr);

	mov	eax, DWORD PTR _this$[ebp]
	mov	ecx, DWORD PTR __Right$[ebp]
	mov	edx, DWORD PTR [eax+8]
	xor	eax, eax
	cmp	edx, DWORD PTR [ecx+8]
	sete	al

; 296  : 		}

	pop	esi
	add	esp, 4
	cmp	ebp, esp
	call	__RTC_CheckEsp
	mov	esp, ebp
	pop	ebp
	ret	4
??8?$_List_const_iterator@V?$_List_val@PAV?$Goal@VAbstRaven_Bot@@@@V?$allocator@PAV?$Goal@VAbstRaven_Bot@@@@@std@@@std@@@std@@QBE_NABV01@@Z ENDP ; std::_List_const_iterator<std::_List_val<Goal<AbstRaven_Bot> *,std::allocator<Goal<AbstRaven_Bot> *> > >::operator==
_TEXT	ENDS
PUBLIC	??$_Debug_range2@PAPAVGoal_Evaluator@@@std@@YAXPAPAVGoal_Evaluator@@0PB_WIUrandom_access_iterator_tag@0@@Z ; std::_Debug_range2<Goal_Evaluator * *>
PUBLIC	??$_Iter_cat@PAPAVGoal_Evaluator@@@std@@YA?AUrandom_access_iterator_tag@0@ABQAPAVGoal_Evaluator@@@Z ; std::_Iter_cat<Goal_Evaluator * *>
; Function compile flags: /Odtp /RTCsu
; File c:\program files (x86)\microsoft visual studio 10.0\vc\include\xutility
;	COMDAT ??$_Debug_range@PAPAVGoal_Evaluator@@@std@@YAXPAPAVGoal_Evaluator@@0PB_WI@Z
_TEXT	SEGMENT
$T142612 = -1						; size = 1
__First$ = 8						; size = 4
__Last$ = 12						; size = 4
__File$ = 16						; size = 4
__Line$ = 20						; size = 4
??$_Debug_range@PAPAVGoal_Evaluator@@@std@@YAXPAPAVGoal_Evaluator@@0PB_WI@Z PROC ; std::_Debug_range<Goal_Evaluator * *>, COMDAT

; 739  : 	{	// test iterator pair for valid range

	push	ebp
	mov	ebp, esp
	push	ecx
	mov	DWORD PTR [ebp-4], -858993460		; ccccccccH

; 740  : 	_Debug_range2(_First, _Last, _File, _Line, _Iter_cat(_First));

	lea	eax, DWORD PTR __First$[ebp]
	push	eax
	lea	ecx, DWORD PTR $T142612[ebp]
	push	ecx
	call	??$_Iter_cat@PAPAVGoal_Evaluator@@@std@@YA?AUrandom_access_iterator_tag@0@ABQAPAVGoal_Evaluator@@@Z ; std::_Iter_cat<Goal_Evaluator * *>
	add	esp, 8
	movzx	edx, BYTE PTR [eax]
	push	edx
	mov	eax, DWORD PTR __Line$[ebp]
	push	eax
	mov	ecx, DWORD PTR __File$[ebp]
	push	ecx
	mov	edx, DWORD PTR __Last$[ebp]
	push	edx
	mov	eax, DWORD PTR __First$[ebp]
	push	eax
	call	??$_Debug_range2@PAPAVGoal_Evaluator@@@std@@YAXPAPAVGoal_Evaluator@@0PB_WIUrandom_access_iterator_tag@0@@Z ; std::_Debug_range2<Goal_Evaluator * *>
	add	esp, 20					; 00000014H

; 741  : 	}

	add	esp, 4
	cmp	ebp, esp
	call	__RTC_CheckEsp
	mov	esp, ebp
	pop	ebp
	ret	0
??$_Debug_range@PAPAVGoal_Evaluator@@@std@@YAXPAPAVGoal_Evaluator@@0PB_WI@Z ENDP ; std::_Debug_range<Goal_Evaluator * *>
; Function compile flags: /Odtp /RTCsu
_TEXT	ENDS
;	COMDAT ??$_Debug_pointer@PAVGoal_Evaluator@@@std@@YAXPAPAVGoal_Evaluator@@PB_WI@Z
_TEXT	SEGMENT
__First$ = 8						; size = 4
__File$ = 12						; size = 4
__Line$ = 16						; size = 4
??$_Debug_pointer@PAVGoal_Evaluator@@@std@@YAXPAPAVGoal_Evaluator@@PB_WI@Z PROC ; std::_Debug_pointer<Goal_Evaluator *>, COMDAT

; 708  : 	{	// test iterator for non-singularity, pointers

	push	ebp
	mov	ebp, esp

; 709  : 	if (_First == 0)

	cmp	DWORD PTR __First$[ebp], 0
	jne	SHORT $LN2@Debug_poin@2

; 710  : 		_DEBUG_ERROR2("invalid null pointer", _File, _Line);

	mov	eax, DWORD PTR __Line$[ebp]
	push	eax
	mov	ecx, DWORD PTR __File$[ebp]
	push	ecx
	push	OFFSET ??_C@_1CK@EOPGIILJ@?$AAi?$AAn?$AAv?$AAa?$AAl?$AAi?$AAd?$AA?5?$AAn?$AAu?$AAl?$AAl?$AA?5?$AAp?$AAo?$AAi?$AAn?$AAt?$AAe?$AAr?$AA?$AA@
	call	?_Debug_message@std@@YAXPB_W0I@Z	; std::_Debug_message
	add	esp, 12					; 0000000cH
$LN2@Debug_poin@2:

; 711  : 	}

	cmp	ebp, esp
	call	__RTC_CheckEsp
	pop	ebp
	ret	0
??$_Debug_pointer@PAVGoal_Evaluator@@@std@@YAXPAPAVGoal_Evaluator@@PB_WI@Z ENDP ; std::_Debug_pointer<Goal_Evaluator *>
; Function compile flags: /Odtp /RTCsu
_TEXT	ENDS
;	COMDAT ?base@?$_Revranit@V?$_List_const_iterator@V?$_List_val@PAV?$Goal@VAbstRaven_Bot@@@@V?$allocator@PAV?$Goal@VAbstRaven_Bot@@@@@std@@@std@@@std@@U?$iterator@Ubidirectional_iterator_tag@std@@PAV?$Goal@VAbstRaven_Bot@@@@HPBQAV3@ABQAV3@@2@@std@@QBE?AV?$_List_const_iterator@V?$_List_val@PAV?$Goal@VAbstRaven_Bot@@@@V?$allocator@PAV?$Goal@VAbstRaven_Bot@@@@@std@@@std@@@2@XZ
_TEXT	SEGMENT
$T142618 = -8						; size = 4
_this$ = -4						; size = 4
___$ReturnUdt$ = 8					; size = 4
?base@?$_Revranit@V?$_List_const_iterator@V?$_List_val@PAV?$Goal@VAbstRaven_Bot@@@@V?$allocator@PAV?$Goal@VAbstRaven_Bot@@@@@std@@@std@@@std@@U?$iterator@Ubidirectional_iterator_tag@std@@PAV?$Goal@VAbstRaven_Bot@@@@HPBQAV3@ABQAV3@@2@@std@@QBE?AV?$_List_const_iterator@V?$_List_val@PAV?$Goal@VAbstRaven_Bot@@@@V?$allocator@PAV?$Goal@VAbstRaven_Bot@@@@@std@@@std@@@2@XZ PROC ; std::_Revranit<std::_List_const_iterator<std::_List_val<Goal<AbstRaven_Bot> *,std::allocator<Goal<AbstRaven_Bot> *> > >,std::iterator<std::bidirectional_iterator_tag,Goal<AbstRaven_Bot> *,int,Goal<AbstRaven_Bot> * const *,Goal<AbstRaven_Bot> * const &> >::base, COMDAT
; _this$ = ecx

; 1050 : 		{	// return wrapped iterator

	push	ebp
	mov	ebp, esp
	sub	esp, 8
	mov	DWORD PTR [ebp-8], -858993460		; ccccccccH
	mov	DWORD PTR [ebp-4], -858993460		; ccccccccH
	mov	DWORD PTR _this$[ebp], ecx
	mov	DWORD PTR $T142618[ebp], 0

; 1051 : 		return (current);

	mov	eax, DWORD PTR _this$[ebp]
	push	eax
	mov	ecx, DWORD PTR ___$ReturnUdt$[ebp]
	call	??0?$_List_const_iterator@V?$_List_val@PAV?$Goal@VAbstRaven_Bot@@@@V?$allocator@PAV?$Goal@VAbstRaven_Bot@@@@@std@@@std@@@std@@QAE@ABV01@@Z
	mov	ecx, DWORD PTR $T142618[ebp]
	or	ecx, 1
	mov	DWORD PTR $T142618[ebp], ecx
	mov	eax, DWORD PTR ___$ReturnUdt$[ebp]

; 1052 : 		}

	add	esp, 8
	cmp	ebp, esp
	call	__RTC_CheckEsp
	mov	esp, ebp
	pop	ebp
	ret	4
?base@?$_Revranit@V?$_List_const_iterator@V?$_List_val@PAV?$Goal@VAbstRaven_Bot@@@@V?$allocator@PAV?$Goal@VAbstRaven_Bot@@@@@std@@@std@@@std@@U?$iterator@Ubidirectional_iterator_tag@std@@PAV?$Goal@VAbstRaven_Bot@@@@HPBQAV3@ABQAV3@@2@@std@@QBE?AV?$_List_const_iterator@V?$_List_val@PAV?$Goal@VAbstRaven_Bot@@@@V?$allocator@PAV?$Goal@VAbstRaven_Bot@@@@@std@@@std@@@2@XZ ENDP ; std::_Revranit<std::_List_const_iterator<std::_List_val<Goal<AbstRaven_Bot> *,std::allocator<Goal<AbstRaven_Bot> *> > >,std::iterator<std::bidirectional_iterator_tag,Goal<AbstRaven_Bot> *,int,Goal<AbstRaven_Bot> * const *,Goal<AbstRaven_Bot> * const &> >::base
; Function compile flags: /Odtp /RTCsu
_TEXT	ENDS
;	COMDAT ??$_Iter_cat@PAPAVGoal_Evaluator@@@std@@YA?AUrandom_access_iterator_tag@0@ABQAPAVGoal_Evaluator@@@Z
_TEXT	SEGMENT
__Cat$ = -5						; size = 1
___$ReturnUdt$ = 8					; size = 4
___formal$ = 12						; size = 4
??$_Iter_cat@PAPAVGoal_Evaluator@@@std@@YA?AUrandom_access_iterator_tag@0@ABQAPAVGoal_Evaluator@@@Z PROC ; std::_Iter_cat<Goal_Evaluator * *>, COMDAT

; 488  : 	{	// return category from iterator argument

	push	ebp
	mov	ebp, esp
	sub	esp, 12					; 0000000cH
	mov	DWORD PTR [ebp-12], -858993460		; ccccccccH
	mov	DWORD PTR [ebp-8], -858993460		; ccccccccH
	mov	DWORD PTR [ebp-4], -858993460		; ccccccccH

; 489  : 	typename iterator_traits<_Iter>::iterator_category _Cat;
; 490  : 	return (_Cat);

	mov	eax, DWORD PTR ___$ReturnUdt$[ebp]
	mov	cl, BYTE PTR __Cat$[ebp]
	mov	BYTE PTR [eax], cl
	mov	eax, DWORD PTR ___$ReturnUdt$[ebp]

; 491  : 	}

	push	edx
	mov	ecx, ebp
	push	eax
	lea	edx, DWORD PTR $LN5@Iter_cat
	call	@_RTC_CheckStackVars@8
	pop	eax
	pop	edx
	mov	esp, ebp
	pop	ebp
	ret	0
	npad	1
$LN5@Iter_cat:
	DD	1
	DD	$LN4@Iter_cat
$LN4@Iter_cat:
	DD	-5					; fffffffbH
	DD	1
	DD	$LN3@Iter_cat
$LN3@Iter_cat:
	DB	95					; 0000005fH
	DB	67					; 00000043H
	DB	97					; 00000061H
	DB	116					; 00000074H
	DB	0
??$_Iter_cat@PAPAVGoal_Evaluator@@@std@@YA?AUrandom_access_iterator_tag@0@ABQAPAVGoal_Evaluator@@@Z ENDP ; std::_Iter_cat<Goal_Evaluator * *>
_TEXT	ENDS
PUBLIC	??_C@_1CO@DGLIKNHI@?$AAi?$AAn?$AAv?$AAa?$AAl?$AAi?$AAd?$AA?5?$AAi?$AAt?$AAe?$AAr?$AAa?$AAt?$AAo?$AAr?$AA?5?$AAr?$AAa?$AAn?$AAg?$AAe?$AA?$AA@ ; `string'
;	COMDAT ??_C@_1CO@DGLIKNHI@?$AAi?$AAn?$AAv?$AAa?$AAl?$AAi?$AAd?$AA?5?$AAi?$AAt?$AAe?$AAr?$AAa?$AAt?$AAo?$AAr?$AA?5?$AAr?$AAa?$AAn?$AAg?$AAe?$AA?$AA@
CONST	SEGMENT
??_C@_1CO@DGLIKNHI@?$AAi?$AAn?$AAv?$AAa?$AAl?$AAi?$AAd?$AA?5?$AAi?$AAt?$AAe?$AAr?$AAa?$AAt?$AAo?$AAr?$AA?5?$AAr?$AAa?$AAn?$AAg?$AAe?$AA?$AA@ DB 'i'
	DB	00H, 'n', 00H, 'v', 00H, 'a', 00H, 'l', 00H, 'i', 00H, 'd', 00H
	DB	' ', 00H, 'i', 00H, 't', 00H, 'e', 00H, 'r', 00H, 'a', 00H, 't'
	DB	00H, 'o', 00H, 'r', 00H, ' ', 00H, 'r', 00H, 'a', 00H, 'n', 00H
	DB	'g', 00H, 'e', 00H, 00H, 00H			; `string'
; Function compile flags: /Odtp /RTCsu
CONST	ENDS
;	COMDAT ??$_Debug_range2@PAPAVGoal_Evaluator@@@std@@YAXPAPAVGoal_Evaluator@@0PB_WIUrandom_access_iterator_tag@0@@Z
_TEXT	SEGMENT
__First$ = 8						; size = 4
__Last$ = 12						; size = 4
__File$ = 16						; size = 4
__Line$ = 20						; size = 4
___formal$ = 24						; size = 1
??$_Debug_range2@PAPAVGoal_Evaluator@@@std@@YAXPAPAVGoal_Evaluator@@0PB_WIUrandom_access_iterator_tag@0@@Z PROC ; std::_Debug_range2<Goal_Evaluator * *>, COMDAT

; 726  : 	{	// test iterator pair for valid range, random-access iterators

	push	ebp
	mov	ebp, esp

; 727  : 	if (_First != _Last)

	mov	eax, DWORD PTR __First$[ebp]
	cmp	eax, DWORD PTR __Last$[ebp]
	je	SHORT $LN3@Debug_rang

; 728  : 		{	// check for non-null pointers, valid range
; 729  : 		_DEBUG_POINTER2(_First, _File, _Line);

	mov	ecx, DWORD PTR __Line$[ebp]
	push	ecx
	mov	edx, DWORD PTR __File$[ebp]
	push	edx
	mov	eax, DWORD PTR __First$[ebp]
	push	eax
	call	??$_Debug_pointer@PAVGoal_Evaluator@@@std@@YAXPAPAVGoal_Evaluator@@PB_WI@Z ; std::_Debug_pointer<Goal_Evaluator *>
	add	esp, 12					; 0000000cH

; 730  : 		_DEBUG_POINTER2(_Last, _File, _Line);

	mov	ecx, DWORD PTR __Line$[ebp]
	push	ecx
	mov	edx, DWORD PTR __File$[ebp]
	push	edx
	mov	eax, DWORD PTR __Last$[ebp]
	push	eax
	call	??$_Debug_pointer@PAVGoal_Evaluator@@@std@@YAXPAPAVGoal_Evaluator@@PB_WI@Z ; std::_Debug_pointer<Goal_Evaluator *>
	add	esp, 12					; 0000000cH

; 731  : 		if (_Last < _First)

	mov	ecx, DWORD PTR __Last$[ebp]
	cmp	ecx, DWORD PTR __First$[ebp]
	jae	SHORT $LN3@Debug_rang

; 732  : 			_DEBUG_ERROR2("invalid iterator range", _File, _Line);

	mov	edx, DWORD PTR __Line$[ebp]
	push	edx
	mov	eax, DWORD PTR __File$[ebp]
	push	eax
	push	OFFSET ??_C@_1CO@DGLIKNHI@?$AAi?$AAn?$AAv?$AAa?$AAl?$AAi?$AAd?$AA?5?$AAi?$AAt?$AAe?$AAr?$AAa?$AAt?$AAo?$AAr?$AA?5?$AAr?$AAa?$AAn?$AAg?$AAe?$AA?$AA@
	call	?_Debug_message@std@@YAXPB_W0I@Z	; std::_Debug_message
	add	esp, 12					; 0000000cH
$LN3@Debug_rang:

; 733  : 		}
; 734  : 	}

	cmp	ebp, esp
	call	__RTC_CheckEsp
	pop	ebp
	ret	0
??$_Debug_range2@PAPAVGoal_Evaluator@@@std@@YAXPAPAVGoal_Evaluator@@0PB_WIUrandom_access_iterator_tag@0@@Z ENDP ; std::_Debug_range2<Goal_Evaluator * *>
_TEXT	ENDS
PUBLIC	?max@?$numeric_limits@H@std@@SAHXZ		; std::numeric_limits<int>::max
; Function compile flags: /Odtp /RTCsu
; File c:\users\teaja\documents\artificial-fun\labravenprojecttest\common\misc\utils.h
;	COMDAT ??__EMaxInt@@YAXXZ
text$yc	SEGMENT
??__EMaxInt@@YAXXZ PROC					; `dynamic initializer for 'MaxInt'', COMDAT

; 23   : const int     MaxInt    = (std::numeric_limits<int>::max)();

	push	ebp
	mov	ebp, esp
	call	?max@?$numeric_limits@H@std@@SAHXZ	; std::numeric_limits<int>::max
	mov	DWORD PTR _MaxInt, eax
	cmp	ebp, esp
	call	__RTC_CheckEsp
	pop	ebp
	ret	0
??__EMaxInt@@YAXXZ ENDP					; `dynamic initializer for 'MaxInt''
; Function compile flags: /Odtp /RTCsu
; File c:\program files (x86)\microsoft visual studio 10.0\vc\include\limits
text$yc	ENDS
;	COMDAT ?max@?$numeric_limits@H@std@@SAHXZ
_TEXT	SEGMENT
?max@?$numeric_limits@H@std@@SAHXZ PROC			; std::numeric_limits<int>::max, COMDAT

; 712  : 	static _Ty (__CRTDECL max)() _THROW0()

	push	ebp
	mov	ebp, esp

; 713  : 		{	// return maximum value
; 714  : 		return (INT_MAX);

	mov	eax, 2147483647				; 7fffffffH

; 715  : 		}

	pop	ebp
	ret	0
?max@?$numeric_limits@H@std@@SAHXZ ENDP			; std::numeric_limits<int>::max
_TEXT	ENDS
PUBLIC	?max@?$numeric_limits@N@std@@SANXZ		; std::numeric_limits<double>::max
; Function compile flags: /Odtp /RTCsu
; File c:\users\teaja\documents\artificial-fun\labravenprojecttest\common\misc\utils.h
;	COMDAT ??__EMaxDouble@@YAXXZ
text$yc	SEGMENT
??__EMaxDouble@@YAXXZ PROC				; `dynamic initializer for 'MaxDouble'', COMDAT

; 24   : const double  MaxDouble = (std::numeric_limits<double>::max)();

	push	ebp
	mov	ebp, esp
	call	?max@?$numeric_limits@N@std@@SANXZ	; std::numeric_limits<double>::max
	fstp	QWORD PTR _MaxDouble
	cmp	ebp, esp
	call	__RTC_CheckEsp
	pop	ebp
	ret	0
??__EMaxDouble@@YAXXZ ENDP				; `dynamic initializer for 'MaxDouble''
text$yc	ENDS
PUBLIC	__real@7fefffffffffffff
;	COMDAT __real@7fefffffffffffff
; File c:\program files (x86)\microsoft visual studio 10.0\vc\include\limits
CONST	SEGMENT
__real@7fefffffffffffff DQ 07fefffffffffffffr	; 1.79769e+308
; Function compile flags: /Odtp /RTCsu
CONST	ENDS
;	COMDAT ?max@?$numeric_limits@N@std@@SANXZ
_TEXT	SEGMENT
?max@?$numeric_limits@N@std@@SANXZ PROC			; std::numeric_limits<double>::max, COMDAT

; 1233 : 	static _Ty (__CRTDECL max)() _THROW0()

	push	ebp
	mov	ebp, esp

; 1234 : 		{	// return maximum value
; 1235 : 		return (DBL_MAX);

	fld	QWORD PTR __real@7fefffffffffffff

; 1236 : 		}

	pop	ebp
	ret	0
?max@?$numeric_limits@N@std@@SANXZ ENDP			; std::numeric_limits<double>::max
_TEXT	ENDS
PUBLIC	?min@?$numeric_limits@N@std@@SANXZ		; std::numeric_limits<double>::min
; Function compile flags: /Odtp /RTCsu
; File c:\users\teaja\documents\artificial-fun\labravenprojecttest\common\misc\utils.h
;	COMDAT ??__EMinDouble@@YAXXZ
text$yc	SEGMENT
??__EMinDouble@@YAXXZ PROC				; `dynamic initializer for 'MinDouble'', COMDAT

; 25   : const double  MinDouble = (std::numeric_limits<double>::min)();

	push	ebp
	mov	ebp, esp
	call	?min@?$numeric_limits@N@std@@SANXZ	; std::numeric_limits<double>::min
	fstp	QWORD PTR _MinDouble
	cmp	ebp, esp
	call	__RTC_CheckEsp
	pop	ebp
	ret	0
??__EMinDouble@@YAXXZ ENDP				; `dynamic initializer for 'MinDouble''
text$yc	ENDS
PUBLIC	__real@0010000000000000
;	COMDAT __real@0010000000000000
; File c:\program files (x86)\microsoft visual studio 10.0\vc\include\limits
CONST	SEGMENT
__real@0010000000000000 DQ 00010000000000000r	; 2.22507e-308
; Function compile flags: /Odtp /RTCsu
CONST	ENDS
;	COMDAT ?min@?$numeric_limits@N@std@@SANXZ
_TEXT	SEGMENT
?min@?$numeric_limits@N@std@@SANXZ PROC			; std::numeric_limits<double>::min, COMDAT

; 1228 : 	static _Ty (__CRTDECL min)() _THROW0()

	push	ebp
	mov	ebp, esp

; 1229 : 		{	// return minimum value
; 1230 : 		return (DBL_MIN);

	fld	QWORD PTR __real@0010000000000000

; 1231 : 		}

	pop	ebp
	ret	0
?min@?$numeric_limits@N@std@@SANXZ ENDP			; std::numeric_limits<double>::min
_TEXT	ENDS
PUBLIC	?max@?$numeric_limits@M@std@@SAMXZ		; std::numeric_limits<float>::max
; Function compile flags: /Odtp /RTCsu
; File c:\users\teaja\documents\artificial-fun\labravenprojecttest\common\misc\utils.h
;	COMDAT ??__EMaxFloat@@YAXXZ
text$yc	SEGMENT
??__EMaxFloat@@YAXXZ PROC				; `dynamic initializer for 'MaxFloat'', COMDAT

; 26   : const float   MaxFloat  = (std::numeric_limits<float>::max)();

	push	ebp
	mov	ebp, esp
	call	?max@?$numeric_limits@M@std@@SAMXZ	; std::numeric_limits<float>::max
	fstp	DWORD PTR _MaxFloat
	cmp	ebp, esp
	call	__RTC_CheckEsp
	pop	ebp
	ret	0
??__EMaxFloat@@YAXXZ ENDP				; `dynamic initializer for 'MaxFloat''
text$yc	ENDS
PUBLIC	__real@7f7fffff
;	COMDAT __real@7f7fffff
; File c:\program files (x86)\microsoft visual studio 10.0\vc\include\limits
CONST	SEGMENT
__real@7f7fffff DD 07f7fffffr			; 3.40282e+038
; Function compile flags: /Odtp /RTCsu
CONST	ENDS
;	COMDAT ?max@?$numeric_limits@M@std@@SAMXZ
_TEXT	SEGMENT
?max@?$numeric_limits@M@std@@SAMXZ PROC			; std::numeric_limits<float>::max, COMDAT

; 1166 : 	static _Ty (__CRTDECL max)() _THROW0()

	push	ebp
	mov	ebp, esp

; 1167 : 		{	// return maximum value
; 1168 : 		return (FLT_MAX);

	fld	DWORD PTR __real@7f7fffff

; 1169 : 		}

	pop	ebp
	ret	0
?max@?$numeric_limits@M@std@@SAMXZ ENDP			; std::numeric_limits<float>::max
_TEXT	ENDS
PUBLIC	?min@?$numeric_limits@M@std@@SAMXZ		; std::numeric_limits<float>::min
; Function compile flags: /Odtp /RTCsu
; File c:\users\teaja\documents\artificial-fun\labravenprojecttest\common\misc\utils.h
;	COMDAT ??__EMinFloat@@YAXXZ
text$yc	SEGMENT
??__EMinFloat@@YAXXZ PROC				; `dynamic initializer for 'MinFloat'', COMDAT

; 27   : const float   MinFloat  = (std::numeric_limits<float>::min)();

	push	ebp
	mov	ebp, esp
	call	?min@?$numeric_limits@M@std@@SAMXZ	; std::numeric_limits<float>::min
	fstp	DWORD PTR _MinFloat
	cmp	ebp, esp
	call	__RTC_CheckEsp
	pop	ebp
	ret	0
??__EMinFloat@@YAXXZ ENDP				; `dynamic initializer for 'MinFloat''
text$yc	ENDS
PUBLIC	__real@00800000
;	COMDAT __real@00800000
; File c:\program files (x86)\microsoft visual studio 10.0\vc\include\limits
CONST	SEGMENT
__real@00800000 DD 000800000r			; 1.17549e-038
; Function compile flags: /Odtp /RTCsu
CONST	ENDS
;	COMDAT ?min@?$numeric_limits@M@std@@SAMXZ
_TEXT	SEGMENT
?min@?$numeric_limits@M@std@@SAMXZ PROC			; std::numeric_limits<float>::min, COMDAT

; 1161 : 	static _Ty (__CRTDECL min)() _THROW0()

	push	ebp
	mov	ebp, esp

; 1162 : 		{	// return minimum value
; 1163 : 		return (FLT_MIN);

	fld	DWORD PTR __real@00800000

; 1164 : 		}

	pop	ebp
	ret	0
?min@?$numeric_limits@M@std@@SAMXZ ENDP			; std::numeric_limits<float>::min
; Function compile flags: /Odtp /RTCsu
; File c:\users\teaja\documents\artificial-fun\labravenprojecttest\common\misc\utils.h
_TEXT	ENDS
;	COMDAT ??__ETwoPi@@YAXXZ
text$yc	SEGMENT
??__ETwoPi@@YAXXZ PROC					; `dynamic initializer for 'TwoPi'', COMDAT

; 30   : const double   TwoPi     = Pi * 2;

	push	ebp
	mov	ebp, esp
	fld	QWORD PTR _Pi
	fadd	ST(0), ST(0)
	fstp	QWORD PTR _TwoPi
	pop	ebp
	ret	0
??__ETwoPi@@YAXXZ ENDP					; `dynamic initializer for 'TwoPi''
text$yc	ENDS
PUBLIC	__real@4000000000000000
;	COMDAT __real@4000000000000000
CONST	SEGMENT
__real@4000000000000000 DQ 04000000000000000r	; 2
; Function compile flags: /Odtp /RTCsu
CONST	ENDS
;	COMDAT ??__EHalfPi@@YAXXZ
text$yc	SEGMENT
??__EHalfPi@@YAXXZ PROC					; `dynamic initializer for 'HalfPi'', COMDAT

; 31   : const double   HalfPi    = Pi / 2;

	push	ebp
	mov	ebp, esp
	fld	QWORD PTR _Pi
	fdiv	QWORD PTR __real@4000000000000000
	fstp	QWORD PTR _HalfPi
	pop	ebp
	ret	0
??__EHalfPi@@YAXXZ ENDP					; `dynamic initializer for 'HalfPi''
text$yc	ENDS
PUBLIC	__real@4010000000000000
;	COMDAT __real@4010000000000000
CONST	SEGMENT
__real@4010000000000000 DQ 04010000000000000r	; 4
; Function compile flags: /Odtp /RTCsu
CONST	ENDS
;	COMDAT ??__EQuarterPi@@YAXXZ
text$yc	SEGMENT
??__EQuarterPi@@YAXXZ PROC				; `dynamic initializer for 'QuarterPi'', COMDAT

; 32   : const double   QuarterPi = Pi / 4;

	push	ebp
	mov	ebp, esp
	fld	QWORD PTR _Pi
	fdiv	QWORD PTR __real@4010000000000000
	fstp	QWORD PTR _QuarterPi
	pop	ebp
	ret	0
??__EQuarterPi@@YAXXZ ENDP				; `dynamic initializer for 'QuarterPi''
text$yc	ENDS
PUBLIC	??0id@locale@std@@QAE@I@Z			; std::locale::id::id
; Function compile flags: /Odtp /RTCsu
; File c:\program files (x86)\microsoft visual studio 10.0\vc\include\xlocnum
;	COMDAT ??__E?id@?$num_put@DV?$ostreambuf_iterator@DU?$char_traits@D@std@@@std@@@std@@2V0locale@2@A@@YAXXZ
text$yc	SEGMENT
??__E?id@?$num_put@DV?$ostreambuf_iterator@DU?$char_traits@D@std@@@std@@@std@@2V0locale@2@A@@YAXXZ PROC ; `dynamic initializer for 'std::num_put<char,std::ostreambuf_iterator<char,std::char_traits<char> > >::id'', COMDAT

; 1578 : 	__PURE_APPDOMAIN_GLOBAL locale::id num_put<_Elem, _OutIt>::id;

	push	ebp
	mov	ebp, esp
	push	0
	mov	ecx, OFFSET ?id@?$num_put@DV?$ostreambuf_iterator@DU?$char_traits@D@std@@@std@@@std@@2V0locale@2@A ; std::num_put<char,std::ostreambuf_iterator<char,std::char_traits<char> > >::id
	call	??0id@locale@std@@QAE@I@Z		; std::locale::id::id
	cmp	ebp, esp
	call	__RTC_CheckEsp
	pop	ebp
	ret	0
??__E?id@?$num_put@DV?$ostreambuf_iterator@DU?$char_traits@D@std@@@std@@@std@@2V0locale@2@A@@YAXXZ ENDP ; `dynamic initializer for 'std::num_put<char,std::ostreambuf_iterator<char,std::char_traits<char> > >::id''
; Function compile flags: /Odtp /RTCsu
; File c:\program files (x86)\microsoft visual studio 10.0\vc\include\xlocale
text$yc	ENDS
;	COMDAT ??0id@locale@std@@QAE@I@Z
_TEXT	SEGMENT
_this$ = -4						; size = 4
__Val$ = 8						; size = 4
??0id@locale@std@@QAE@I@Z PROC				; std::locale::id::id, COMDAT
; _this$ = ecx

; 71   : 			{	// construct with specified stamp value

	push	ebp
	mov	ebp, esp
	push	ecx
	mov	DWORD PTR [ebp-4], -858993460		; ccccccccH
	mov	DWORD PTR _this$[ebp], ecx
	mov	eax, DWORD PTR _this$[ebp]
	mov	ecx, DWORD PTR __Val$[ebp]
	mov	DWORD PTR [eax], ecx

; 72   : 			}

	mov	eax, DWORD PTR _this$[ebp]
	mov	esp, ebp
	pop	ebp
	ret	4
??0id@locale@std@@QAE@I@Z ENDP				; std::locale::id::id
; Function compile flags: /Odtp /RTCsu
; File c:\program files (x86)\microsoft visual studio 10.0\vc\include\xlocnum
_TEXT	ENDS
;	COMDAT ??__E?id@?$numpunct@D@std@@2V0locale@2@A@@YAXXZ
text$yc	SEGMENT
??__E?id@?$numpunct@D@std@@2V0locale@2@A@@YAXXZ PROC	; `dynamic initializer for 'std::numpunct<char>::id'', COMDAT

; 228  : 	__PURE_APPDOMAIN_GLOBAL locale::id numpunct<_Elem>::id;

	push	ebp
	mov	ebp, esp
	push	0
	mov	ecx, OFFSET ?id@?$numpunct@D@std@@2V0locale@2@A ; std::numpunct<char>::id
	call	??0id@locale@std@@QAE@I@Z		; std::locale::id::id
	cmp	ebp, esp
	call	__RTC_CheckEsp
	pop	ebp
	ret	0
??__E?id@?$numpunct@D@std@@2V0locale@2@A@@YAXXZ ENDP	; `dynamic initializer for 'std::numpunct<char>::id''
text$yc	ENDS
PUBLIC	?id@?$num_put@DV?$ostreambuf_iterator@DU?$char_traits@D@std@@@std@@@std@@2V0locale@2@A ; std::num_put<char,std::ostreambuf_iterator<char,std::char_traits<char> > >::id
PUBLIC	?id@?$numpunct@D@std@@2V0locale@2@A		; std::numpunct<char>::id
_BSS	SEGMENT
_MinDouble DQ	01H DUP (?)
_MaxFloat DD	01H DUP (?)
_MinFloat DD	01H DUP (?)
_TwoPi	DQ	01H DUP (?)
_BSS	ENDS
;	COMDAT ?id@?$num_put@DV?$ostreambuf_iterator@DU?$char_traits@D@std@@@std@@@std@@2V0locale@2@A
_BSS	SEGMENT
?id@?$num_put@DV?$ostreambuf_iterator@DU?$char_traits@D@std@@@std@@@std@@2V0locale@2@A DD 01H DUP (?) ; std::num_put<char,std::ostreambuf_iterator<char,std::char_traits<char> > >::id
_BSS	ENDS
_BSS	SEGMENT
_MaxInt	DD	01H DUP (?)
	ALIGN	8

_HalfPi	DQ	01H DUP (?)
_BSS	ENDS
;	COMDAT ?id@?$numpunct@D@std@@2V0locale@2@A
_BSS	SEGMENT
?id@?$numpunct@D@std@@2V0locale@2@A DD 01H DUP (?)	; std::numpunct<char>::id
_BSS	ENDS
_BSS	SEGMENT
_MaxDouble DQ	01H DUP (?)
_QuarterPi DQ	01H DUP (?)
_BSS	ENDS
CRT$XCU	SEGMENT
_MaxInt$initializer$ DD FLAT:??__EMaxInt@@YAXXZ
_MaxDouble$initializer$ DD FLAT:??__EMaxDouble@@YAXXZ
_MinDouble$initializer$ DD FLAT:??__EMinDouble@@YAXXZ
_MaxFloat$initializer$ DD FLAT:??__EMaxFloat@@YAXXZ
_MinFloat$initializer$ DD FLAT:??__EMinFloat@@YAXXZ
_TwoPi$initializer$ DD FLAT:??__ETwoPi@@YAXXZ
_HalfPi$initializer$ DD FLAT:??__EHalfPi@@YAXXZ
_QuarterPi$initializer$ DD FLAT:??__EQuarterPi@@YAXXZ
CRT$XCU	ENDS
;	COMDAT CRT$XCU
CRT$XCU	SEGMENT
?id$initializer$@?$num_put@DV?$ostreambuf_iterator@DU?$char_traits@D@std@@@std@@@std@@2P6AXXZA DD FLAT:??__E?id@?$num_put@DV?$ostreambuf_iterator@DU?$char_traits@D@std@@@std@@@std@@2V0locale@2@A@@YAXXZ ; std::num_put<char,std::ostreambuf_iterator<char,std::char_traits<char> > >::id$initializer$
CRT$XCU	ENDS
;	COMDAT CRT$XCU
CRT$XCU	SEGMENT
?id$initializer$@?$numpunct@D@std@@2P6AXXZA DD FLAT:??__E?id@?$numpunct@D@std@@2V0locale@2@A@@YAXXZ ; std::numpunct<char>::id$initializer$
CRT$XCU	ENDS
END
