; Listing generated by Microsoft (R) Optimizing Compiler Version 16.00.40219.01 

	TITLE	C:\Users\Teaja\Documents\Artificial-Fun\LabRavenProjectTest\Raven\triggers\Trigger_HealthGiver.cpp
	.686P
	.XMM
	include listing.inc
	.model	flat

INCLUDELIB LIBCMTD
INCLUDELIB OLDNAMES

PUBLIC	?has_denorm@_Num_base@std@@2W4float_denorm_style@2@B ; std::_Num_base::has_denorm
PUBLIC	?has_denorm_loss@_Num_base@std@@2_NB		; std::_Num_base::has_denorm_loss
PUBLIC	?has_infinity@_Num_base@std@@2_NB		; std::_Num_base::has_infinity
PUBLIC	?has_quiet_NaN@_Num_base@std@@2_NB		; std::_Num_base::has_quiet_NaN
PUBLIC	?has_signaling_NaN@_Num_base@std@@2_NB		; std::_Num_base::has_signaling_NaN
PUBLIC	?is_bounded@_Num_base@std@@2_NB			; std::_Num_base::is_bounded
PUBLIC	?is_exact@_Num_base@std@@2_NB			; std::_Num_base::is_exact
PUBLIC	?is_iec559@_Num_base@std@@2_NB			; std::_Num_base::is_iec559
PUBLIC	?is_integer@_Num_base@std@@2_NB			; std::_Num_base::is_integer
PUBLIC	?is_modulo@_Num_base@std@@2_NB			; std::_Num_base::is_modulo
PUBLIC	?is_signed@_Num_base@std@@2_NB			; std::_Num_base::is_signed
PUBLIC	?is_specialized@_Num_base@std@@2_NB		; std::_Num_base::is_specialized
PUBLIC	?tinyness_before@_Num_base@std@@2_NB		; std::_Num_base::tinyness_before
PUBLIC	?traps@_Num_base@std@@2_NB			; std::_Num_base::traps
PUBLIC	?round_style@_Num_base@std@@2W4float_round_style@2@B ; std::_Num_base::round_style
PUBLIC	?digits@_Num_base@std@@2HB			; std::_Num_base::digits
PUBLIC	?digits10@_Num_base@std@@2HB			; std::_Num_base::digits10
PUBLIC	?max_digits10@_Num_base@std@@2HB		; std::_Num_base::max_digits10
PUBLIC	?max_exponent@_Num_base@std@@2HB		; std::_Num_base::max_exponent
PUBLIC	?max_exponent10@_Num_base@std@@2HB		; std::_Num_base::max_exponent10
PUBLIC	?min_exponent@_Num_base@std@@2HB		; std::_Num_base::min_exponent
PUBLIC	?min_exponent10@_Num_base@std@@2HB		; std::_Num_base::min_exponent10
PUBLIC	?radix@_Num_base@std@@2HB			; std::_Num_base::radix
PUBLIC	?is_bounded@_Num_int_base@std@@2_NB		; std::_Num_int_base::is_bounded
PUBLIC	?is_exact@_Num_int_base@std@@2_NB		; std::_Num_int_base::is_exact
PUBLIC	?is_integer@_Num_int_base@std@@2_NB		; std::_Num_int_base::is_integer
PUBLIC	?is_modulo@_Num_int_base@std@@2_NB		; std::_Num_int_base::is_modulo
PUBLIC	?is_specialized@_Num_int_base@std@@2_NB		; std::_Num_int_base::is_specialized
PUBLIC	?radix@_Num_int_base@std@@2HB			; std::_Num_int_base::radix
PUBLIC	?has_denorm@_Num_float_base@std@@2W4float_denorm_style@2@B ; std::_Num_float_base::has_denorm
PUBLIC	?has_denorm_loss@_Num_float_base@std@@2_NB	; std::_Num_float_base::has_denorm_loss
PUBLIC	?has_infinity@_Num_float_base@std@@2_NB		; std::_Num_float_base::has_infinity
PUBLIC	?has_quiet_NaN@_Num_float_base@std@@2_NB	; std::_Num_float_base::has_quiet_NaN
PUBLIC	?has_signaling_NaN@_Num_float_base@std@@2_NB	; std::_Num_float_base::has_signaling_NaN
PUBLIC	?is_bounded@_Num_float_base@std@@2_NB		; std::_Num_float_base::is_bounded
PUBLIC	?is_exact@_Num_float_base@std@@2_NB		; std::_Num_float_base::is_exact
PUBLIC	?is_iec559@_Num_float_base@std@@2_NB		; std::_Num_float_base::is_iec559
PUBLIC	?is_integer@_Num_float_base@std@@2_NB		; std::_Num_float_base::is_integer
PUBLIC	?is_modulo@_Num_float_base@std@@2_NB		; std::_Num_float_base::is_modulo
PUBLIC	?is_signed@_Num_float_base@std@@2_NB		; std::_Num_float_base::is_signed
PUBLIC	?is_specialized@_Num_float_base@std@@2_NB	; std::_Num_float_base::is_specialized
PUBLIC	?tinyness_before@_Num_float_base@std@@2_NB	; std::_Num_float_base::tinyness_before
PUBLIC	?traps@_Num_float_base@std@@2_NB		; std::_Num_float_base::traps
PUBLIC	?round_style@_Num_float_base@std@@2W4float_round_style@2@B ; std::_Num_float_base::round_style
PUBLIC	?radix@_Num_float_base@std@@2HB			; std::_Num_float_base::radix
PUBLIC	?is_signed@?$numeric_limits@D@std@@2_NB		; std::numeric_limits<char>::is_signed
PUBLIC	?digits@?$numeric_limits@D@std@@2HB		; std::numeric_limits<char>::digits
PUBLIC	?digits10@?$numeric_limits@D@std@@2HB		; std::numeric_limits<char>::digits10
PUBLIC	?max_digits10@?$numeric_limits@D@std@@2HB	; std::numeric_limits<char>::max_digits10
PUBLIC	?is_signed@?$numeric_limits@_W@std@@2_NB	; std::numeric_limits<wchar_t>::is_signed
PUBLIC	?digits@?$numeric_limits@_W@std@@2HB		; std::numeric_limits<wchar_t>::digits
PUBLIC	?digits10@?$numeric_limits@_W@std@@2HB		; std::numeric_limits<wchar_t>::digits10
PUBLIC	?max_digits10@?$numeric_limits@_W@std@@2HB	; std::numeric_limits<wchar_t>::max_digits10
PUBLIC	?is_modulo@?$numeric_limits@_N@std@@2_NB	; std::numeric_limits<bool>::is_modulo
PUBLIC	?is_signed@?$numeric_limits@_N@std@@2_NB	; std::numeric_limits<bool>::is_signed
PUBLIC	?digits@?$numeric_limits@_N@std@@2HB		; std::numeric_limits<bool>::digits
PUBLIC	?digits10@?$numeric_limits@_N@std@@2HB		; std::numeric_limits<bool>::digits10
PUBLIC	?max_digits10@?$numeric_limits@_N@std@@2HB	; std::numeric_limits<bool>::max_digits10
PUBLIC	?is_signed@?$numeric_limits@C@std@@2_NB		; std::numeric_limits<signed char>::is_signed
PUBLIC	?digits@?$numeric_limits@C@std@@2HB		; std::numeric_limits<signed char>::digits
PUBLIC	?digits10@?$numeric_limits@C@std@@2HB		; std::numeric_limits<signed char>::digits10
PUBLIC	?max_digits10@?$numeric_limits@C@std@@2HB	; std::numeric_limits<signed char>::max_digits10
PUBLIC	?is_signed@?$numeric_limits@E@std@@2_NB		; std::numeric_limits<unsigned char>::is_signed
PUBLIC	?digits@?$numeric_limits@E@std@@2HB		; std::numeric_limits<unsigned char>::digits
PUBLIC	?digits10@?$numeric_limits@E@std@@2HB		; std::numeric_limits<unsigned char>::digits10
PUBLIC	?max_digits10@?$numeric_limits@E@std@@2HB	; std::numeric_limits<unsigned char>::max_digits10
PUBLIC	?is_signed@?$numeric_limits@F@std@@2_NB		; std::numeric_limits<short>::is_signed
PUBLIC	?digits@?$numeric_limits@F@std@@2HB		; std::numeric_limits<short>::digits
PUBLIC	?digits10@?$numeric_limits@F@std@@2HB		; std::numeric_limits<short>::digits10
PUBLIC	?max_digits10@?$numeric_limits@F@std@@2HB	; std::numeric_limits<short>::max_digits10
PUBLIC	?is_signed@?$numeric_limits@G@std@@2_NB		; std::numeric_limits<unsigned short>::is_signed
PUBLIC	?digits@?$numeric_limits@G@std@@2HB		; std::numeric_limits<unsigned short>::digits
PUBLIC	?digits10@?$numeric_limits@G@std@@2HB		; std::numeric_limits<unsigned short>::digits10
PUBLIC	?max_digits10@?$numeric_limits@G@std@@2HB	; std::numeric_limits<unsigned short>::max_digits10
PUBLIC	?is_signed@?$numeric_limits@H@std@@2_NB		; std::numeric_limits<int>::is_signed
PUBLIC	?digits@?$numeric_limits@H@std@@2HB		; std::numeric_limits<int>::digits
PUBLIC	?digits10@?$numeric_limits@H@std@@2HB		; std::numeric_limits<int>::digits10
PUBLIC	?max_digits10@?$numeric_limits@H@std@@2HB	; std::numeric_limits<int>::max_digits10
PUBLIC	?is_signed@?$numeric_limits@I@std@@2_NB		; std::numeric_limits<unsigned int>::is_signed
PUBLIC	?digits@?$numeric_limits@I@std@@2HB		; std::numeric_limits<unsigned int>::digits
PUBLIC	?digits10@?$numeric_limits@I@std@@2HB		; std::numeric_limits<unsigned int>::digits10
PUBLIC	?max_digits10@?$numeric_limits@I@std@@2HB	; std::numeric_limits<unsigned int>::max_digits10
PUBLIC	?is_signed@?$numeric_limits@J@std@@2_NB		; std::numeric_limits<long>::is_signed
PUBLIC	?digits@?$numeric_limits@J@std@@2HB		; std::numeric_limits<long>::digits
PUBLIC	?digits10@?$numeric_limits@J@std@@2HB		; std::numeric_limits<long>::digits10
PUBLIC	?max_digits10@?$numeric_limits@J@std@@2HB	; std::numeric_limits<long>::max_digits10
PUBLIC	?is_signed@?$numeric_limits@K@std@@2_NB		; std::numeric_limits<unsigned long>::is_signed
PUBLIC	?digits@?$numeric_limits@K@std@@2HB		; std::numeric_limits<unsigned long>::digits
PUBLIC	?digits10@?$numeric_limits@K@std@@2HB		; std::numeric_limits<unsigned long>::digits10
PUBLIC	?max_digits10@?$numeric_limits@K@std@@2HB	; std::numeric_limits<unsigned long>::max_digits10
PUBLIC	?is_signed@?$numeric_limits@_J@std@@2_NB	; std::numeric_limits<__int64>::is_signed
PUBLIC	?digits@?$numeric_limits@_J@std@@2HB		; std::numeric_limits<__int64>::digits
PUBLIC	?digits10@?$numeric_limits@_J@std@@2HB		; std::numeric_limits<__int64>::digits10
PUBLIC	?max_digits10@?$numeric_limits@_J@std@@2HB	; std::numeric_limits<__int64>::max_digits10
PUBLIC	?is_signed@?$numeric_limits@_K@std@@2_NB	; std::numeric_limits<unsigned __int64>::is_signed
PUBLIC	?digits@?$numeric_limits@_K@std@@2HB		; std::numeric_limits<unsigned __int64>::digits
PUBLIC	?digits10@?$numeric_limits@_K@std@@2HB		; std::numeric_limits<unsigned __int64>::digits10
PUBLIC	?max_digits10@?$numeric_limits@_K@std@@2HB	; std::numeric_limits<unsigned __int64>::max_digits10
PUBLIC	?digits@?$numeric_limits@M@std@@2HB		; std::numeric_limits<float>::digits
PUBLIC	?digits10@?$numeric_limits@M@std@@2HB		; std::numeric_limits<float>::digits10
PUBLIC	?max_digits10@?$numeric_limits@M@std@@2HB	; std::numeric_limits<float>::max_digits10
PUBLIC	?max_exponent@?$numeric_limits@M@std@@2HB	; std::numeric_limits<float>::max_exponent
PUBLIC	?max_exponent10@?$numeric_limits@M@std@@2HB	; std::numeric_limits<float>::max_exponent10
PUBLIC	?min_exponent@?$numeric_limits@M@std@@2HB	; std::numeric_limits<float>::min_exponent
PUBLIC	?min_exponent10@?$numeric_limits@M@std@@2HB	; std::numeric_limits<float>::min_exponent10
PUBLIC	?digits@?$numeric_limits@N@std@@2HB		; std::numeric_limits<double>::digits
PUBLIC	?digits10@?$numeric_limits@N@std@@2HB		; std::numeric_limits<double>::digits10
PUBLIC	?max_digits10@?$numeric_limits@N@std@@2HB	; std::numeric_limits<double>::max_digits10
PUBLIC	?max_exponent@?$numeric_limits@N@std@@2HB	; std::numeric_limits<double>::max_exponent
PUBLIC	?max_exponent10@?$numeric_limits@N@std@@2HB	; std::numeric_limits<double>::max_exponent10
PUBLIC	?min_exponent@?$numeric_limits@N@std@@2HB	; std::numeric_limits<double>::min_exponent
PUBLIC	?min_exponent10@?$numeric_limits@N@std@@2HB	; std::numeric_limits<double>::min_exponent10
PUBLIC	?digits@?$numeric_limits@O@std@@2HB		; std::numeric_limits<long double>::digits
PUBLIC	?digits10@?$numeric_limits@O@std@@2HB		; std::numeric_limits<long double>::digits10
PUBLIC	?max_digits10@?$numeric_limits@O@std@@2HB	; std::numeric_limits<long double>::max_digits10
PUBLIC	?max_exponent@?$numeric_limits@O@std@@2HB	; std::numeric_limits<long double>::max_exponent
PUBLIC	?max_exponent10@?$numeric_limits@O@std@@2HB	; std::numeric_limits<long double>::max_exponent10
PUBLIC	?min_exponent@?$numeric_limits@O@std@@2HB	; std::numeric_limits<long double>::min_exponent
PUBLIC	?min_exponent10@?$numeric_limits@O@std@@2HB	; std::numeric_limits<long double>::min_exponent10
PUBLIC	?value@?$integral_constant@_N$0A@@tr1@std@@2_NB	; std::tr1::integral_constant<bool,0>::value
PUBLIC	?value@?$integral_constant@_N$00@tr1@std@@2_NB	; std::tr1::integral_constant<bool,1>::value
PUBLIC	?value@?$integral_constant@I$0A@@tr1@std@@2IB	; std::tr1::integral_constant<unsigned int,0>::value
PUBLIC	?_Rank@?$_Arithmetic_traits@_N@std@@2HB		; std::_Arithmetic_traits<bool>::_Rank
PUBLIC	?_Rank@?$_Arithmetic_traits@D@std@@2HB		; std::_Arithmetic_traits<char>::_Rank
PUBLIC	?_Rank@?$_Arithmetic_traits@C@std@@2HB		; std::_Arithmetic_traits<signed char>::_Rank
PUBLIC	?_Rank@?$_Arithmetic_traits@E@std@@2HB		; std::_Arithmetic_traits<unsigned char>::_Rank
PUBLIC	?_Rank@?$_Arithmetic_traits@F@std@@2HB		; std::_Arithmetic_traits<short>::_Rank
PUBLIC	?_Rank@?$_Arithmetic_traits@G@std@@2HB		; std::_Arithmetic_traits<unsigned short>::_Rank
PUBLIC	?_Rank@?$_Arithmetic_traits@H@std@@2HB		; std::_Arithmetic_traits<int>::_Rank
PUBLIC	?_Rank@?$_Arithmetic_traits@I@std@@2HB		; std::_Arithmetic_traits<unsigned int>::_Rank
PUBLIC	?_Rank@?$_Arithmetic_traits@J@std@@2HB		; std::_Arithmetic_traits<long>::_Rank
PUBLIC	?_Rank@?$_Arithmetic_traits@K@std@@2HB		; std::_Arithmetic_traits<unsigned long>::_Rank
PUBLIC	?_Rank@?$_Arithmetic_traits@_J@std@@2HB		; std::_Arithmetic_traits<__int64>::_Rank
PUBLIC	?_Rank@?$_Arithmetic_traits@_K@std@@2HB		; std::_Arithmetic_traits<unsigned __int64>::_Rank
PUBLIC	?_Rank@?$_Arithmetic_traits@M@std@@2HB		; std::_Arithmetic_traits<float>::_Rank
PUBLIC	?_Rank@?$_Arithmetic_traits@N@std@@2HB		; std::_Arithmetic_traits<double>::_Rank
PUBLIC	?_Rank@?$_Arithmetic_traits@O@std@@2HB		; std::_Arithmetic_traits<long double>::_Rank
PUBLIC	?collate@?$_Locbase@H@std@@2HB			; std::_Locbase<int>::collate
PUBLIC	?ctype@?$_Locbase@H@std@@2HB			; std::_Locbase<int>::ctype
PUBLIC	?monetary@?$_Locbase@H@std@@2HB			; std::_Locbase<int>::monetary
PUBLIC	?numeric@?$_Locbase@H@std@@2HB			; std::_Locbase<int>::numeric
PUBLIC	?time@?$_Locbase@H@std@@2HB			; std::_Locbase<int>::time
PUBLIC	?messages@?$_Locbase@H@std@@2HB			; std::_Locbase<int>::messages
PUBLIC	?all@?$_Locbase@H@std@@2HB			; std::_Locbase<int>::all
PUBLIC	?none@?$_Locbase@H@std@@2HB			; std::_Locbase<int>::none
PUBLIC	?table_size@?$ctype@D@std@@2IB			; std::ctype<char>::table_size
PUBLIC	?skipws@?$_Iosb@H@std@@2W4_Fmtflags@12@B	; std::_Iosb<int>::skipws
PUBLIC	?unitbuf@?$_Iosb@H@std@@2W4_Fmtflags@12@B	; std::_Iosb<int>::unitbuf
PUBLIC	?uppercase@?$_Iosb@H@std@@2W4_Fmtflags@12@B	; std::_Iosb<int>::uppercase
PUBLIC	?showbase@?$_Iosb@H@std@@2W4_Fmtflags@12@B	; std::_Iosb<int>::showbase
PUBLIC	?showpoint@?$_Iosb@H@std@@2W4_Fmtflags@12@B	; std::_Iosb<int>::showpoint
PUBLIC	?showpos@?$_Iosb@H@std@@2W4_Fmtflags@12@B	; std::_Iosb<int>::showpos
PUBLIC	?left@?$_Iosb@H@std@@2W4_Fmtflags@12@B		; std::_Iosb<int>::left
PUBLIC	?right@?$_Iosb@H@std@@2W4_Fmtflags@12@B		; std::_Iosb<int>::right
PUBLIC	?internal@?$_Iosb@H@std@@2W4_Fmtflags@12@B	; std::_Iosb<int>::internal
PUBLIC	?dec@?$_Iosb@H@std@@2W4_Fmtflags@12@B		; std::_Iosb<int>::dec
PUBLIC	?oct@?$_Iosb@H@std@@2W4_Fmtflags@12@B		; std::_Iosb<int>::oct
PUBLIC	?hex@?$_Iosb@H@std@@2W4_Fmtflags@12@B		; std::_Iosb<int>::hex
PUBLIC	?scientific@?$_Iosb@H@std@@2W4_Fmtflags@12@B	; std::_Iosb<int>::scientific
PUBLIC	?fixed@?$_Iosb@H@std@@2W4_Fmtflags@12@B		; std::_Iosb<int>::fixed
PUBLIC	?hexfloat@?$_Iosb@H@std@@2W4_Fmtflags@12@B	; std::_Iosb<int>::hexfloat
PUBLIC	?boolalpha@?$_Iosb@H@std@@2W4_Fmtflags@12@B	; std::_Iosb<int>::boolalpha
PUBLIC	?_Stdio@?$_Iosb@H@std@@2W4_Fmtflags@12@B	; std::_Iosb<int>::_Stdio
PUBLIC	?adjustfield@?$_Iosb@H@std@@2W4_Fmtflags@12@B	; std::_Iosb<int>::adjustfield
PUBLIC	?basefield@?$_Iosb@H@std@@2W4_Fmtflags@12@B	; std::_Iosb<int>::basefield
PUBLIC	?floatfield@?$_Iosb@H@std@@2W4_Fmtflags@12@B	; std::_Iosb<int>::floatfield
PUBLIC	?goodbit@?$_Iosb@H@std@@2W4_Iostate@12@B	; std::_Iosb<int>::goodbit
PUBLIC	?eofbit@?$_Iosb@H@std@@2W4_Iostate@12@B		; std::_Iosb<int>::eofbit
PUBLIC	?failbit@?$_Iosb@H@std@@2W4_Iostate@12@B	; std::_Iosb<int>::failbit
PUBLIC	?badbit@?$_Iosb@H@std@@2W4_Iostate@12@B		; std::_Iosb<int>::badbit
PUBLIC	?_Hardfail@?$_Iosb@H@std@@2W4_Iostate@12@B	; std::_Iosb<int>::_Hardfail
PUBLIC	?in@?$_Iosb@H@std@@2W4_Openmode@12@B		; std::_Iosb<int>::in
PUBLIC	?out@?$_Iosb@H@std@@2W4_Openmode@12@B		; std::_Iosb<int>::out
PUBLIC	?ate@?$_Iosb@H@std@@2W4_Openmode@12@B		; std::_Iosb<int>::ate
PUBLIC	?app@?$_Iosb@H@std@@2W4_Openmode@12@B		; std::_Iosb<int>::app
PUBLIC	?trunc@?$_Iosb@H@std@@2W4_Openmode@12@B		; std::_Iosb<int>::trunc
PUBLIC	?_Nocreate@?$_Iosb@H@std@@2W4_Openmode@12@B	; std::_Iosb<int>::_Nocreate
PUBLIC	?_Noreplace@?$_Iosb@H@std@@2W4_Openmode@12@B	; std::_Iosb<int>::_Noreplace
PUBLIC	?binary@?$_Iosb@H@std@@2W4_Openmode@12@B	; std::_Iosb<int>::binary
PUBLIC	?beg@?$_Iosb@H@std@@2W4_Seekdir@12@B		; std::_Iosb<int>::beg
PUBLIC	?cur@?$_Iosb@H@std@@2W4_Seekdir@12@B		; std::_Iosb<int>::cur
PUBLIC	?end@?$_Iosb@H@std@@2W4_Seekdir@12@B		; std::_Iosb<int>::end
CONST	SEGMENT
_Pi	DQ	0400921f9f01b866er		; 3.14159
_pi	DQ	0400921f9f01b866er		; 3.14159
_colors	DD	0ffH
	DD	0ff0000H
	DD	0ff00H
	DD	00H
	DD	0c8c8ffH
	DD	0c8c8c8H
	DD	0ffffH
	DD	0aaffH
	DD	0aa00ffH
	DD	05a85H
	DD	0ffffffH
	DD	06400H
	DD	0ffff00H
	DD	0c8c8c8H
	DD	0e6e6ffH
$SG132380 DB	'DefaultGiverTriggerRange', 00H
	ORG $+3
$SG132382 DB	'Health_RespawnDelay', 00H
CONST	ENDS
;	COMDAT ?end@?$_Iosb@H@std@@2W4_Seekdir@12@B
CONST	SEGMENT
?end@?$_Iosb@H@std@@2W4_Seekdir@12@B DD 02H		; std::_Iosb<int>::end
CONST	ENDS
;	COMDAT ?cur@?$_Iosb@H@std@@2W4_Seekdir@12@B
CONST	SEGMENT
?cur@?$_Iosb@H@std@@2W4_Seekdir@12@B DD 01H		; std::_Iosb<int>::cur
CONST	ENDS
;	COMDAT ?beg@?$_Iosb@H@std@@2W4_Seekdir@12@B
CONST	SEGMENT
?beg@?$_Iosb@H@std@@2W4_Seekdir@12@B DD 00H		; std::_Iosb<int>::beg
CONST	ENDS
;	COMDAT ?binary@?$_Iosb@H@std@@2W4_Openmode@12@B
CONST	SEGMENT
?binary@?$_Iosb@H@std@@2W4_Openmode@12@B DD 020H	; std::_Iosb<int>::binary
CONST	ENDS
;	COMDAT ?_Noreplace@?$_Iosb@H@std@@2W4_Openmode@12@B
CONST	SEGMENT
?_Noreplace@?$_Iosb@H@std@@2W4_Openmode@12@B DD 080H	; std::_Iosb<int>::_Noreplace
CONST	ENDS
;	COMDAT ?_Nocreate@?$_Iosb@H@std@@2W4_Openmode@12@B
CONST	SEGMENT
?_Nocreate@?$_Iosb@H@std@@2W4_Openmode@12@B DD 040H	; std::_Iosb<int>::_Nocreate
CONST	ENDS
;	COMDAT ?trunc@?$_Iosb@H@std@@2W4_Openmode@12@B
CONST	SEGMENT
?trunc@?$_Iosb@H@std@@2W4_Openmode@12@B DD 010H		; std::_Iosb<int>::trunc
CONST	ENDS
;	COMDAT ?app@?$_Iosb@H@std@@2W4_Openmode@12@B
CONST	SEGMENT
?app@?$_Iosb@H@std@@2W4_Openmode@12@B DD 08H		; std::_Iosb<int>::app
CONST	ENDS
;	COMDAT ?ate@?$_Iosb@H@std@@2W4_Openmode@12@B
CONST	SEGMENT
?ate@?$_Iosb@H@std@@2W4_Openmode@12@B DD 04H		; std::_Iosb<int>::ate
CONST	ENDS
;	COMDAT ?out@?$_Iosb@H@std@@2W4_Openmode@12@B
CONST	SEGMENT
?out@?$_Iosb@H@std@@2W4_Openmode@12@B DD 02H		; std::_Iosb<int>::out
CONST	ENDS
;	COMDAT ?in@?$_Iosb@H@std@@2W4_Openmode@12@B
CONST	SEGMENT
?in@?$_Iosb@H@std@@2W4_Openmode@12@B DD 01H		; std::_Iosb<int>::in
CONST	ENDS
;	COMDAT ?_Hardfail@?$_Iosb@H@std@@2W4_Iostate@12@B
CONST	SEGMENT
?_Hardfail@?$_Iosb@H@std@@2W4_Iostate@12@B DD 010H	; std::_Iosb<int>::_Hardfail
CONST	ENDS
;	COMDAT ?badbit@?$_Iosb@H@std@@2W4_Iostate@12@B
CONST	SEGMENT
?badbit@?$_Iosb@H@std@@2W4_Iostate@12@B DD 04H		; std::_Iosb<int>::badbit
CONST	ENDS
;	COMDAT ?failbit@?$_Iosb@H@std@@2W4_Iostate@12@B
CONST	SEGMENT
?failbit@?$_Iosb@H@std@@2W4_Iostate@12@B DD 02H		; std::_Iosb<int>::failbit
CONST	ENDS
;	COMDAT ?eofbit@?$_Iosb@H@std@@2W4_Iostate@12@B
CONST	SEGMENT
?eofbit@?$_Iosb@H@std@@2W4_Iostate@12@B DD 01H		; std::_Iosb<int>::eofbit
CONST	ENDS
;	COMDAT ?goodbit@?$_Iosb@H@std@@2W4_Iostate@12@B
CONST	SEGMENT
?goodbit@?$_Iosb@H@std@@2W4_Iostate@12@B DD 00H		; std::_Iosb<int>::goodbit
CONST	ENDS
;	COMDAT ?floatfield@?$_Iosb@H@std@@2W4_Fmtflags@12@B
CONST	SEGMENT
?floatfield@?$_Iosb@H@std@@2W4_Fmtflags@12@B DD 03000H	; std::_Iosb<int>::floatfield
CONST	ENDS
;	COMDAT ?basefield@?$_Iosb@H@std@@2W4_Fmtflags@12@B
CONST	SEGMENT
?basefield@?$_Iosb@H@std@@2W4_Fmtflags@12@B DD 0e00H	; std::_Iosb<int>::basefield
CONST	ENDS
;	COMDAT ?adjustfield@?$_Iosb@H@std@@2W4_Fmtflags@12@B
CONST	SEGMENT
?adjustfield@?$_Iosb@H@std@@2W4_Fmtflags@12@B DD 01c0H	; std::_Iosb<int>::adjustfield
CONST	ENDS
;	COMDAT ?_Stdio@?$_Iosb@H@std@@2W4_Fmtflags@12@B
CONST	SEGMENT
?_Stdio@?$_Iosb@H@std@@2W4_Fmtflags@12@B DD 08000H	; std::_Iosb<int>::_Stdio
CONST	ENDS
;	COMDAT ?boolalpha@?$_Iosb@H@std@@2W4_Fmtflags@12@B
CONST	SEGMENT
?boolalpha@?$_Iosb@H@std@@2W4_Fmtflags@12@B DD 04000H	; std::_Iosb<int>::boolalpha
CONST	ENDS
;	COMDAT ?hexfloat@?$_Iosb@H@std@@2W4_Fmtflags@12@B
CONST	SEGMENT
?hexfloat@?$_Iosb@H@std@@2W4_Fmtflags@12@B DD 03000H	; std::_Iosb<int>::hexfloat
CONST	ENDS
;	COMDAT ?fixed@?$_Iosb@H@std@@2W4_Fmtflags@12@B
CONST	SEGMENT
?fixed@?$_Iosb@H@std@@2W4_Fmtflags@12@B DD 02000H	; std::_Iosb<int>::fixed
CONST	ENDS
;	COMDAT ?scientific@?$_Iosb@H@std@@2W4_Fmtflags@12@B
CONST	SEGMENT
?scientific@?$_Iosb@H@std@@2W4_Fmtflags@12@B DD 01000H	; std::_Iosb<int>::scientific
CONST	ENDS
;	COMDAT ?hex@?$_Iosb@H@std@@2W4_Fmtflags@12@B
CONST	SEGMENT
?hex@?$_Iosb@H@std@@2W4_Fmtflags@12@B DD 0800H		; std::_Iosb<int>::hex
CONST	ENDS
;	COMDAT ?oct@?$_Iosb@H@std@@2W4_Fmtflags@12@B
CONST	SEGMENT
?oct@?$_Iosb@H@std@@2W4_Fmtflags@12@B DD 0400H		; std::_Iosb<int>::oct
CONST	ENDS
;	COMDAT ?dec@?$_Iosb@H@std@@2W4_Fmtflags@12@B
CONST	SEGMENT
?dec@?$_Iosb@H@std@@2W4_Fmtflags@12@B DD 0200H		; std::_Iosb<int>::dec
CONST	ENDS
;	COMDAT ?internal@?$_Iosb@H@std@@2W4_Fmtflags@12@B
CONST	SEGMENT
?internal@?$_Iosb@H@std@@2W4_Fmtflags@12@B DD 0100H	; std::_Iosb<int>::internal
CONST	ENDS
;	COMDAT ?right@?$_Iosb@H@std@@2W4_Fmtflags@12@B
CONST	SEGMENT
?right@?$_Iosb@H@std@@2W4_Fmtflags@12@B DD 080H		; std::_Iosb<int>::right
CONST	ENDS
;	COMDAT ?left@?$_Iosb@H@std@@2W4_Fmtflags@12@B
CONST	SEGMENT
?left@?$_Iosb@H@std@@2W4_Fmtflags@12@B DD 040H		; std::_Iosb<int>::left
CONST	ENDS
;	COMDAT ?showpos@?$_Iosb@H@std@@2W4_Fmtflags@12@B
CONST	SEGMENT
?showpos@?$_Iosb@H@std@@2W4_Fmtflags@12@B DD 020H	; std::_Iosb<int>::showpos
CONST	ENDS
;	COMDAT ?showpoint@?$_Iosb@H@std@@2W4_Fmtflags@12@B
CONST	SEGMENT
?showpoint@?$_Iosb@H@std@@2W4_Fmtflags@12@B DD 010H	; std::_Iosb<int>::showpoint
CONST	ENDS
;	COMDAT ?showbase@?$_Iosb@H@std@@2W4_Fmtflags@12@B
CONST	SEGMENT
?showbase@?$_Iosb@H@std@@2W4_Fmtflags@12@B DD 08H	; std::_Iosb<int>::showbase
CONST	ENDS
;	COMDAT ?uppercase@?$_Iosb@H@std@@2W4_Fmtflags@12@B
CONST	SEGMENT
?uppercase@?$_Iosb@H@std@@2W4_Fmtflags@12@B DD 04H	; std::_Iosb<int>::uppercase
CONST	ENDS
;	COMDAT ?unitbuf@?$_Iosb@H@std@@2W4_Fmtflags@12@B
CONST	SEGMENT
?unitbuf@?$_Iosb@H@std@@2W4_Fmtflags@12@B DD 02H	; std::_Iosb<int>::unitbuf
CONST	ENDS
;	COMDAT ?skipws@?$_Iosb@H@std@@2W4_Fmtflags@12@B
CONST	SEGMENT
?skipws@?$_Iosb@H@std@@2W4_Fmtflags@12@B DD 01H		; std::_Iosb<int>::skipws
CONST	ENDS
;	COMDAT ?table_size@?$ctype@D@std@@2IB
CONST	SEGMENT
?table_size@?$ctype@D@std@@2IB DD 0100H			; std::ctype<char>::table_size
CONST	ENDS
;	COMDAT ?none@?$_Locbase@H@std@@2HB
CONST	SEGMENT
?none@?$_Locbase@H@std@@2HB DD 00H			; std::_Locbase<int>::none
CONST	ENDS
;	COMDAT ?all@?$_Locbase@H@std@@2HB
CONST	SEGMENT
?all@?$_Locbase@H@std@@2HB DD 03fH			; std::_Locbase<int>::all
CONST	ENDS
;	COMDAT ?messages@?$_Locbase@H@std@@2HB
CONST	SEGMENT
?messages@?$_Locbase@H@std@@2HB DD 020H			; std::_Locbase<int>::messages
CONST	ENDS
;	COMDAT ?time@?$_Locbase@H@std@@2HB
CONST	SEGMENT
?time@?$_Locbase@H@std@@2HB DD 010H			; std::_Locbase<int>::time
CONST	ENDS
;	COMDAT ?numeric@?$_Locbase@H@std@@2HB
CONST	SEGMENT
?numeric@?$_Locbase@H@std@@2HB DD 08H			; std::_Locbase<int>::numeric
CONST	ENDS
;	COMDAT ?monetary@?$_Locbase@H@std@@2HB
CONST	SEGMENT
?monetary@?$_Locbase@H@std@@2HB DD 04H			; std::_Locbase<int>::monetary
CONST	ENDS
;	COMDAT ?ctype@?$_Locbase@H@std@@2HB
CONST	SEGMENT
?ctype@?$_Locbase@H@std@@2HB DD 02H			; std::_Locbase<int>::ctype
CONST	ENDS
;	COMDAT ?collate@?$_Locbase@H@std@@2HB
CONST	SEGMENT
?collate@?$_Locbase@H@std@@2HB DD 01H			; std::_Locbase<int>::collate
CONST	ENDS
;	COMDAT ?_Rank@?$_Arithmetic_traits@O@std@@2HB
CONST	SEGMENT
?_Rank@?$_Arithmetic_traits@O@std@@2HB DD 09H		; std::_Arithmetic_traits<long double>::_Rank
CONST	ENDS
;	COMDAT ?_Rank@?$_Arithmetic_traits@N@std@@2HB
CONST	SEGMENT
?_Rank@?$_Arithmetic_traits@N@std@@2HB DD 08H		; std::_Arithmetic_traits<double>::_Rank
CONST	ENDS
;	COMDAT ?_Rank@?$_Arithmetic_traits@M@std@@2HB
CONST	SEGMENT
?_Rank@?$_Arithmetic_traits@M@std@@2HB DD 07H		; std::_Arithmetic_traits<float>::_Rank
CONST	ENDS
;	COMDAT ?_Rank@?$_Arithmetic_traits@_K@std@@2HB
CONST	SEGMENT
?_Rank@?$_Arithmetic_traits@_K@std@@2HB DD 06H		; std::_Arithmetic_traits<unsigned __int64>::_Rank
CONST	ENDS
;	COMDAT ?_Rank@?$_Arithmetic_traits@_J@std@@2HB
CONST	SEGMENT
?_Rank@?$_Arithmetic_traits@_J@std@@2HB DD 06H		; std::_Arithmetic_traits<__int64>::_Rank
CONST	ENDS
;	COMDAT ?_Rank@?$_Arithmetic_traits@K@std@@2HB
CONST	SEGMENT
?_Rank@?$_Arithmetic_traits@K@std@@2HB DD 05H		; std::_Arithmetic_traits<unsigned long>::_Rank
CONST	ENDS
;	COMDAT ?_Rank@?$_Arithmetic_traits@J@std@@2HB
CONST	SEGMENT
?_Rank@?$_Arithmetic_traits@J@std@@2HB DD 05H		; std::_Arithmetic_traits<long>::_Rank
CONST	ENDS
;	COMDAT ?_Rank@?$_Arithmetic_traits@I@std@@2HB
CONST	SEGMENT
?_Rank@?$_Arithmetic_traits@I@std@@2HB DD 04H		; std::_Arithmetic_traits<unsigned int>::_Rank
CONST	ENDS
;	COMDAT ?_Rank@?$_Arithmetic_traits@H@std@@2HB
CONST	SEGMENT
?_Rank@?$_Arithmetic_traits@H@std@@2HB DD 04H		; std::_Arithmetic_traits<int>::_Rank
CONST	ENDS
;	COMDAT ?_Rank@?$_Arithmetic_traits@G@std@@2HB
CONST	SEGMENT
?_Rank@?$_Arithmetic_traits@G@std@@2HB DD 03H		; std::_Arithmetic_traits<unsigned short>::_Rank
CONST	ENDS
;	COMDAT ?_Rank@?$_Arithmetic_traits@F@std@@2HB
CONST	SEGMENT
?_Rank@?$_Arithmetic_traits@F@std@@2HB DD 03H		; std::_Arithmetic_traits<short>::_Rank
CONST	ENDS
;	COMDAT ?_Rank@?$_Arithmetic_traits@E@std@@2HB
CONST	SEGMENT
?_Rank@?$_Arithmetic_traits@E@std@@2HB DD 02H		; std::_Arithmetic_traits<unsigned char>::_Rank
CONST	ENDS
;	COMDAT ?_Rank@?$_Arithmetic_traits@C@std@@2HB
CONST	SEGMENT
?_Rank@?$_Arithmetic_traits@C@std@@2HB DD 02H		; std::_Arithmetic_traits<signed char>::_Rank
CONST	ENDS
;	COMDAT ?_Rank@?$_Arithmetic_traits@D@std@@2HB
CONST	SEGMENT
?_Rank@?$_Arithmetic_traits@D@std@@2HB DD 02H		; std::_Arithmetic_traits<char>::_Rank
CONST	ENDS
;	COMDAT ?_Rank@?$_Arithmetic_traits@_N@std@@2HB
CONST	SEGMENT
?_Rank@?$_Arithmetic_traits@_N@std@@2HB DD 01H		; std::_Arithmetic_traits<bool>::_Rank
CONST	ENDS
;	COMDAT ?value@?$integral_constant@I$0A@@tr1@std@@2IB
CONST	SEGMENT
?value@?$integral_constant@I$0A@@tr1@std@@2IB DD 00H	; std::tr1::integral_constant<unsigned int,0>::value
CONST	ENDS
;	COMDAT ?value@?$integral_constant@_N$00@tr1@std@@2_NB
CONST	SEGMENT
?value@?$integral_constant@_N$00@tr1@std@@2_NB DB 01H	; std::tr1::integral_constant<bool,1>::value
CONST	ENDS
;	COMDAT ?value@?$integral_constant@_N$0A@@tr1@std@@2_NB
CONST	SEGMENT
?value@?$integral_constant@_N$0A@@tr1@std@@2_NB DB 00H	; std::tr1::integral_constant<bool,0>::value
CONST	ENDS
;	COMDAT ?min_exponent10@?$numeric_limits@O@std@@2HB
CONST	SEGMENT
?min_exponent10@?$numeric_limits@O@std@@2HB DD 0fffffecdH ; std::numeric_limits<long double>::min_exponent10
CONST	ENDS
;	COMDAT ?min_exponent@?$numeric_limits@O@std@@2HB
CONST	SEGMENT
?min_exponent@?$numeric_limits@O@std@@2HB DD 0fffffc03H	; std::numeric_limits<long double>::min_exponent
CONST	ENDS
;	COMDAT ?max_exponent10@?$numeric_limits@O@std@@2HB
CONST	SEGMENT
?max_exponent10@?$numeric_limits@O@std@@2HB DD 0134H	; std::numeric_limits<long double>::max_exponent10
CONST	ENDS
;	COMDAT ?max_exponent@?$numeric_limits@O@std@@2HB
CONST	SEGMENT
?max_exponent@?$numeric_limits@O@std@@2HB DD 0400H	; std::numeric_limits<long double>::max_exponent
CONST	ENDS
;	COMDAT ?max_digits10@?$numeric_limits@O@std@@2HB
CONST	SEGMENT
?max_digits10@?$numeric_limits@O@std@@2HB DD 011H	; std::numeric_limits<long double>::max_digits10
CONST	ENDS
;	COMDAT ?digits10@?$numeric_limits@O@std@@2HB
CONST	SEGMENT
?digits10@?$numeric_limits@O@std@@2HB DD 0fH		; std::numeric_limits<long double>::digits10
CONST	ENDS
;	COMDAT ?digits@?$numeric_limits@O@std@@2HB
CONST	SEGMENT
?digits@?$numeric_limits@O@std@@2HB DD 035H		; std::numeric_limits<long double>::digits
CONST	ENDS
;	COMDAT ?min_exponent10@?$numeric_limits@N@std@@2HB
CONST	SEGMENT
?min_exponent10@?$numeric_limits@N@std@@2HB DD 0fffffecdH ; std::numeric_limits<double>::min_exponent10
CONST	ENDS
;	COMDAT ?min_exponent@?$numeric_limits@N@std@@2HB
CONST	SEGMENT
?min_exponent@?$numeric_limits@N@std@@2HB DD 0fffffc03H	; std::numeric_limits<double>::min_exponent
CONST	ENDS
;	COMDAT ?max_exponent10@?$numeric_limits@N@std@@2HB
CONST	SEGMENT
?max_exponent10@?$numeric_limits@N@std@@2HB DD 0134H	; std::numeric_limits<double>::max_exponent10
CONST	ENDS
;	COMDAT ?max_exponent@?$numeric_limits@N@std@@2HB
CONST	SEGMENT
?max_exponent@?$numeric_limits@N@std@@2HB DD 0400H	; std::numeric_limits<double>::max_exponent
CONST	ENDS
;	COMDAT ?max_digits10@?$numeric_limits@N@std@@2HB
CONST	SEGMENT
?max_digits10@?$numeric_limits@N@std@@2HB DD 011H	; std::numeric_limits<double>::max_digits10
CONST	ENDS
;	COMDAT ?digits10@?$numeric_limits@N@std@@2HB
CONST	SEGMENT
?digits10@?$numeric_limits@N@std@@2HB DD 0fH		; std::numeric_limits<double>::digits10
CONST	ENDS
;	COMDAT ?digits@?$numeric_limits@N@std@@2HB
CONST	SEGMENT
?digits@?$numeric_limits@N@std@@2HB DD 035H		; std::numeric_limits<double>::digits
CONST	ENDS
;	COMDAT ?min_exponent10@?$numeric_limits@M@std@@2HB
CONST	SEGMENT
?min_exponent10@?$numeric_limits@M@std@@2HB DD 0ffffffdbH ; std::numeric_limits<float>::min_exponent10
CONST	ENDS
;	COMDAT ?min_exponent@?$numeric_limits@M@std@@2HB
CONST	SEGMENT
?min_exponent@?$numeric_limits@M@std@@2HB DD 0ffffff83H	; std::numeric_limits<float>::min_exponent
CONST	ENDS
;	COMDAT ?max_exponent10@?$numeric_limits@M@std@@2HB
CONST	SEGMENT
?max_exponent10@?$numeric_limits@M@std@@2HB DD 026H	; std::numeric_limits<float>::max_exponent10
CONST	ENDS
;	COMDAT ?max_exponent@?$numeric_limits@M@std@@2HB
CONST	SEGMENT
?max_exponent@?$numeric_limits@M@std@@2HB DD 080H	; std::numeric_limits<float>::max_exponent
CONST	ENDS
;	COMDAT ?max_digits10@?$numeric_limits@M@std@@2HB
CONST	SEGMENT
?max_digits10@?$numeric_limits@M@std@@2HB DD 08H	; std::numeric_limits<float>::max_digits10
CONST	ENDS
;	COMDAT ?digits10@?$numeric_limits@M@std@@2HB
CONST	SEGMENT
?digits10@?$numeric_limits@M@std@@2HB DD 06H		; std::numeric_limits<float>::digits10
CONST	ENDS
;	COMDAT ?digits@?$numeric_limits@M@std@@2HB
CONST	SEGMENT
?digits@?$numeric_limits@M@std@@2HB DD 018H		; std::numeric_limits<float>::digits
CONST	ENDS
;	COMDAT ?max_digits10@?$numeric_limits@_K@std@@2HB
CONST	SEGMENT
?max_digits10@?$numeric_limits@_K@std@@2HB DD 015H	; std::numeric_limits<unsigned __int64>::max_digits10
CONST	ENDS
;	COMDAT ?digits10@?$numeric_limits@_K@std@@2HB
CONST	SEGMENT
?digits10@?$numeric_limits@_K@std@@2HB DD 013H		; std::numeric_limits<unsigned __int64>::digits10
CONST	ENDS
;	COMDAT ?digits@?$numeric_limits@_K@std@@2HB
CONST	SEGMENT
?digits@?$numeric_limits@_K@std@@2HB DD 040H		; std::numeric_limits<unsigned __int64>::digits
CONST	ENDS
;	COMDAT ?is_signed@?$numeric_limits@_K@std@@2_NB
CONST	SEGMENT
?is_signed@?$numeric_limits@_K@std@@2_NB DB 00H		; std::numeric_limits<unsigned __int64>::is_signed
CONST	ENDS
;	COMDAT ?max_digits10@?$numeric_limits@_J@std@@2HB
CONST	SEGMENT
?max_digits10@?$numeric_limits@_J@std@@2HB DD 014H	; std::numeric_limits<__int64>::max_digits10
CONST	ENDS
;	COMDAT ?digits10@?$numeric_limits@_J@std@@2HB
CONST	SEGMENT
?digits10@?$numeric_limits@_J@std@@2HB DD 012H		; std::numeric_limits<__int64>::digits10
CONST	ENDS
;	COMDAT ?digits@?$numeric_limits@_J@std@@2HB
CONST	SEGMENT
?digits@?$numeric_limits@_J@std@@2HB DD 03fH		; std::numeric_limits<__int64>::digits
CONST	ENDS
;	COMDAT ?is_signed@?$numeric_limits@_J@std@@2_NB
CONST	SEGMENT
?is_signed@?$numeric_limits@_J@std@@2_NB DB 01H		; std::numeric_limits<__int64>::is_signed
CONST	ENDS
;	COMDAT ?max_digits10@?$numeric_limits@K@std@@2HB
CONST	SEGMENT
?max_digits10@?$numeric_limits@K@std@@2HB DD 0bH	; std::numeric_limits<unsigned long>::max_digits10
CONST	ENDS
;	COMDAT ?digits10@?$numeric_limits@K@std@@2HB
CONST	SEGMENT
?digits10@?$numeric_limits@K@std@@2HB DD 09H		; std::numeric_limits<unsigned long>::digits10
CONST	ENDS
;	COMDAT ?digits@?$numeric_limits@K@std@@2HB
CONST	SEGMENT
?digits@?$numeric_limits@K@std@@2HB DD 020H		; std::numeric_limits<unsigned long>::digits
CONST	ENDS
;	COMDAT ?is_signed@?$numeric_limits@K@std@@2_NB
CONST	SEGMENT
?is_signed@?$numeric_limits@K@std@@2_NB DB 00H		; std::numeric_limits<unsigned long>::is_signed
CONST	ENDS
;	COMDAT ?max_digits10@?$numeric_limits@J@std@@2HB
CONST	SEGMENT
?max_digits10@?$numeric_limits@J@std@@2HB DD 0bH	; std::numeric_limits<long>::max_digits10
CONST	ENDS
;	COMDAT ?digits10@?$numeric_limits@J@std@@2HB
CONST	SEGMENT
?digits10@?$numeric_limits@J@std@@2HB DD 09H		; std::numeric_limits<long>::digits10
CONST	ENDS
;	COMDAT ?digits@?$numeric_limits@J@std@@2HB
CONST	SEGMENT
?digits@?$numeric_limits@J@std@@2HB DD 01fH		; std::numeric_limits<long>::digits
CONST	ENDS
;	COMDAT ?is_signed@?$numeric_limits@J@std@@2_NB
CONST	SEGMENT
?is_signed@?$numeric_limits@J@std@@2_NB DB 01H		; std::numeric_limits<long>::is_signed
CONST	ENDS
;	COMDAT ?max_digits10@?$numeric_limits@I@std@@2HB
CONST	SEGMENT
?max_digits10@?$numeric_limits@I@std@@2HB DD 0bH	; std::numeric_limits<unsigned int>::max_digits10
CONST	ENDS
;	COMDAT ?digits10@?$numeric_limits@I@std@@2HB
CONST	SEGMENT
?digits10@?$numeric_limits@I@std@@2HB DD 09H		; std::numeric_limits<unsigned int>::digits10
CONST	ENDS
;	COMDAT ?digits@?$numeric_limits@I@std@@2HB
CONST	SEGMENT
?digits@?$numeric_limits@I@std@@2HB DD 020H		; std::numeric_limits<unsigned int>::digits
CONST	ENDS
;	COMDAT ?is_signed@?$numeric_limits@I@std@@2_NB
CONST	SEGMENT
?is_signed@?$numeric_limits@I@std@@2_NB DB 00H		; std::numeric_limits<unsigned int>::is_signed
CONST	ENDS
;	COMDAT ?max_digits10@?$numeric_limits@H@std@@2HB
CONST	SEGMENT
?max_digits10@?$numeric_limits@H@std@@2HB DD 0bH	; std::numeric_limits<int>::max_digits10
CONST	ENDS
;	COMDAT ?digits10@?$numeric_limits@H@std@@2HB
CONST	SEGMENT
?digits10@?$numeric_limits@H@std@@2HB DD 09H		; std::numeric_limits<int>::digits10
CONST	ENDS
;	COMDAT ?digits@?$numeric_limits@H@std@@2HB
CONST	SEGMENT
?digits@?$numeric_limits@H@std@@2HB DD 01fH		; std::numeric_limits<int>::digits
CONST	ENDS
;	COMDAT ?is_signed@?$numeric_limits@H@std@@2_NB
CONST	SEGMENT
?is_signed@?$numeric_limits@H@std@@2_NB DB 01H		; std::numeric_limits<int>::is_signed
CONST	ENDS
;	COMDAT ?max_digits10@?$numeric_limits@G@std@@2HB
CONST	SEGMENT
?max_digits10@?$numeric_limits@G@std@@2HB DD 06H	; std::numeric_limits<unsigned short>::max_digits10
CONST	ENDS
;	COMDAT ?digits10@?$numeric_limits@G@std@@2HB
CONST	SEGMENT
?digits10@?$numeric_limits@G@std@@2HB DD 04H		; std::numeric_limits<unsigned short>::digits10
CONST	ENDS
;	COMDAT ?digits@?$numeric_limits@G@std@@2HB
CONST	SEGMENT
?digits@?$numeric_limits@G@std@@2HB DD 010H		; std::numeric_limits<unsigned short>::digits
CONST	ENDS
;	COMDAT ?is_signed@?$numeric_limits@G@std@@2_NB
CONST	SEGMENT
?is_signed@?$numeric_limits@G@std@@2_NB DB 00H		; std::numeric_limits<unsigned short>::is_signed
CONST	ENDS
;	COMDAT ?max_digits10@?$numeric_limits@F@std@@2HB
CONST	SEGMENT
?max_digits10@?$numeric_limits@F@std@@2HB DD 06H	; std::numeric_limits<short>::max_digits10
CONST	ENDS
;	COMDAT ?digits10@?$numeric_limits@F@std@@2HB
CONST	SEGMENT
?digits10@?$numeric_limits@F@std@@2HB DD 04H		; std::numeric_limits<short>::digits10
CONST	ENDS
;	COMDAT ?digits@?$numeric_limits@F@std@@2HB
CONST	SEGMENT
?digits@?$numeric_limits@F@std@@2HB DD 0fH		; std::numeric_limits<short>::digits
CONST	ENDS
;	COMDAT ?is_signed@?$numeric_limits@F@std@@2_NB
CONST	SEGMENT
?is_signed@?$numeric_limits@F@std@@2_NB DB 01H		; std::numeric_limits<short>::is_signed
CONST	ENDS
;	COMDAT ?max_digits10@?$numeric_limits@E@std@@2HB
CONST	SEGMENT
?max_digits10@?$numeric_limits@E@std@@2HB DD 04H	; std::numeric_limits<unsigned char>::max_digits10
CONST	ENDS
;	COMDAT ?digits10@?$numeric_limits@E@std@@2HB
CONST	SEGMENT
?digits10@?$numeric_limits@E@std@@2HB DD 02H		; std::numeric_limits<unsigned char>::digits10
CONST	ENDS
;	COMDAT ?digits@?$numeric_limits@E@std@@2HB
CONST	SEGMENT
?digits@?$numeric_limits@E@std@@2HB DD 08H		; std::numeric_limits<unsigned char>::digits
CONST	ENDS
;	COMDAT ?is_signed@?$numeric_limits@E@std@@2_NB
CONST	SEGMENT
?is_signed@?$numeric_limits@E@std@@2_NB DB 00H		; std::numeric_limits<unsigned char>::is_signed
CONST	ENDS
;	COMDAT ?max_digits10@?$numeric_limits@C@std@@2HB
CONST	SEGMENT
?max_digits10@?$numeric_limits@C@std@@2HB DD 04H	; std::numeric_limits<signed char>::max_digits10
CONST	ENDS
;	COMDAT ?digits10@?$numeric_limits@C@std@@2HB
CONST	SEGMENT
?digits10@?$numeric_limits@C@std@@2HB DD 02H		; std::numeric_limits<signed char>::digits10
CONST	ENDS
;	COMDAT ?digits@?$numeric_limits@C@std@@2HB
CONST	SEGMENT
?digits@?$numeric_limits@C@std@@2HB DD 07H		; std::numeric_limits<signed char>::digits
CONST	ENDS
;	COMDAT ?is_signed@?$numeric_limits@C@std@@2_NB
CONST	SEGMENT
?is_signed@?$numeric_limits@C@std@@2_NB DB 01H		; std::numeric_limits<signed char>::is_signed
CONST	ENDS
;	COMDAT ?max_digits10@?$numeric_limits@_N@std@@2HB
CONST	SEGMENT
?max_digits10@?$numeric_limits@_N@std@@2HB DD 00H	; std::numeric_limits<bool>::max_digits10
CONST	ENDS
;	COMDAT ?digits10@?$numeric_limits@_N@std@@2HB
CONST	SEGMENT
?digits10@?$numeric_limits@_N@std@@2HB DD 00H		; std::numeric_limits<bool>::digits10
CONST	ENDS
;	COMDAT ?digits@?$numeric_limits@_N@std@@2HB
CONST	SEGMENT
?digits@?$numeric_limits@_N@std@@2HB DD 01H		; std::numeric_limits<bool>::digits
CONST	ENDS
;	COMDAT ?is_signed@?$numeric_limits@_N@std@@2_NB
CONST	SEGMENT
?is_signed@?$numeric_limits@_N@std@@2_NB DB 00H		; std::numeric_limits<bool>::is_signed
CONST	ENDS
;	COMDAT ?is_modulo@?$numeric_limits@_N@std@@2_NB
CONST	SEGMENT
?is_modulo@?$numeric_limits@_N@std@@2_NB DB 00H		; std::numeric_limits<bool>::is_modulo
CONST	ENDS
;	COMDAT ?max_digits10@?$numeric_limits@_W@std@@2HB
CONST	SEGMENT
?max_digits10@?$numeric_limits@_W@std@@2HB DD 06H	; std::numeric_limits<wchar_t>::max_digits10
CONST	ENDS
;	COMDAT ?digits10@?$numeric_limits@_W@std@@2HB
CONST	SEGMENT
?digits10@?$numeric_limits@_W@std@@2HB DD 04H		; std::numeric_limits<wchar_t>::digits10
CONST	ENDS
;	COMDAT ?digits@?$numeric_limits@_W@std@@2HB
CONST	SEGMENT
?digits@?$numeric_limits@_W@std@@2HB DD 010H		; std::numeric_limits<wchar_t>::digits
CONST	ENDS
;	COMDAT ?is_signed@?$numeric_limits@_W@std@@2_NB
CONST	SEGMENT
?is_signed@?$numeric_limits@_W@std@@2_NB DB 00H		; std::numeric_limits<wchar_t>::is_signed
CONST	ENDS
;	COMDAT ?max_digits10@?$numeric_limits@D@std@@2HB
CONST	SEGMENT
?max_digits10@?$numeric_limits@D@std@@2HB DD 04H	; std::numeric_limits<char>::max_digits10
CONST	ENDS
;	COMDAT ?digits10@?$numeric_limits@D@std@@2HB
CONST	SEGMENT
?digits10@?$numeric_limits@D@std@@2HB DD 02H		; std::numeric_limits<char>::digits10
CONST	ENDS
;	COMDAT ?digits@?$numeric_limits@D@std@@2HB
CONST	SEGMENT
?digits@?$numeric_limits@D@std@@2HB DD 07H		; std::numeric_limits<char>::digits
CONST	ENDS
;	COMDAT ?is_signed@?$numeric_limits@D@std@@2_NB
CONST	SEGMENT
?is_signed@?$numeric_limits@D@std@@2_NB DB 01H		; std::numeric_limits<char>::is_signed
CONST	ENDS
;	COMDAT ?radix@_Num_float_base@std@@2HB
CONST	SEGMENT
?radix@_Num_float_base@std@@2HB DD 02H			; std::_Num_float_base::radix
CONST	ENDS
;	COMDAT ?round_style@_Num_float_base@std@@2W4float_round_style@2@B
CONST	SEGMENT
?round_style@_Num_float_base@std@@2W4float_round_style@2@B DD 01H ; std::_Num_float_base::round_style
CONST	ENDS
;	COMDAT ?traps@_Num_float_base@std@@2_NB
CONST	SEGMENT
?traps@_Num_float_base@std@@2_NB DB 01H			; std::_Num_float_base::traps
CONST	ENDS
;	COMDAT ?tinyness_before@_Num_float_base@std@@2_NB
CONST	SEGMENT
?tinyness_before@_Num_float_base@std@@2_NB DB 01H	; std::_Num_float_base::tinyness_before
CONST	ENDS
;	COMDAT ?is_specialized@_Num_float_base@std@@2_NB
CONST	SEGMENT
?is_specialized@_Num_float_base@std@@2_NB DB 01H	; std::_Num_float_base::is_specialized
CONST	ENDS
;	COMDAT ?is_signed@_Num_float_base@std@@2_NB
CONST	SEGMENT
?is_signed@_Num_float_base@std@@2_NB DB 01H		; std::_Num_float_base::is_signed
CONST	ENDS
;	COMDAT ?is_modulo@_Num_float_base@std@@2_NB
CONST	SEGMENT
?is_modulo@_Num_float_base@std@@2_NB DB 00H		; std::_Num_float_base::is_modulo
CONST	ENDS
;	COMDAT ?is_integer@_Num_float_base@std@@2_NB
CONST	SEGMENT
?is_integer@_Num_float_base@std@@2_NB DB 00H		; std::_Num_float_base::is_integer
CONST	ENDS
;	COMDAT ?is_iec559@_Num_float_base@std@@2_NB
CONST	SEGMENT
?is_iec559@_Num_float_base@std@@2_NB DB 01H		; std::_Num_float_base::is_iec559
CONST	ENDS
;	COMDAT ?is_exact@_Num_float_base@std@@2_NB
CONST	SEGMENT
?is_exact@_Num_float_base@std@@2_NB DB 00H		; std::_Num_float_base::is_exact
CONST	ENDS
;	COMDAT ?is_bounded@_Num_float_base@std@@2_NB
CONST	SEGMENT
?is_bounded@_Num_float_base@std@@2_NB DB 01H		; std::_Num_float_base::is_bounded
CONST	ENDS
;	COMDAT ?has_signaling_NaN@_Num_float_base@std@@2_NB
CONST	SEGMENT
?has_signaling_NaN@_Num_float_base@std@@2_NB DB 01H	; std::_Num_float_base::has_signaling_NaN
CONST	ENDS
;	COMDAT ?has_quiet_NaN@_Num_float_base@std@@2_NB
CONST	SEGMENT
?has_quiet_NaN@_Num_float_base@std@@2_NB DB 01H		; std::_Num_float_base::has_quiet_NaN
CONST	ENDS
;	COMDAT ?has_infinity@_Num_float_base@std@@2_NB
CONST	SEGMENT
?has_infinity@_Num_float_base@std@@2_NB DB 01H		; std::_Num_float_base::has_infinity
CONST	ENDS
;	COMDAT ?has_denorm_loss@_Num_float_base@std@@2_NB
CONST	SEGMENT
?has_denorm_loss@_Num_float_base@std@@2_NB DB 01H	; std::_Num_float_base::has_denorm_loss
CONST	ENDS
;	COMDAT ?has_denorm@_Num_float_base@std@@2W4float_denorm_style@2@B
CONST	SEGMENT
?has_denorm@_Num_float_base@std@@2W4float_denorm_style@2@B DD 01H ; std::_Num_float_base::has_denorm
CONST	ENDS
;	COMDAT ?radix@_Num_int_base@std@@2HB
CONST	SEGMENT
?radix@_Num_int_base@std@@2HB DD 02H			; std::_Num_int_base::radix
CONST	ENDS
;	COMDAT ?is_specialized@_Num_int_base@std@@2_NB
CONST	SEGMENT
?is_specialized@_Num_int_base@std@@2_NB DB 01H		; std::_Num_int_base::is_specialized
CONST	ENDS
;	COMDAT ?is_modulo@_Num_int_base@std@@2_NB
CONST	SEGMENT
?is_modulo@_Num_int_base@std@@2_NB DB 01H		; std::_Num_int_base::is_modulo
CONST	ENDS
;	COMDAT ?is_integer@_Num_int_base@std@@2_NB
CONST	SEGMENT
?is_integer@_Num_int_base@std@@2_NB DB 01H		; std::_Num_int_base::is_integer
CONST	ENDS
;	COMDAT ?is_exact@_Num_int_base@std@@2_NB
CONST	SEGMENT
?is_exact@_Num_int_base@std@@2_NB DB 01H		; std::_Num_int_base::is_exact
CONST	ENDS
;	COMDAT ?is_bounded@_Num_int_base@std@@2_NB
CONST	SEGMENT
?is_bounded@_Num_int_base@std@@2_NB DB 01H		; std::_Num_int_base::is_bounded
CONST	ENDS
;	COMDAT ?radix@_Num_base@std@@2HB
CONST	SEGMENT
?radix@_Num_base@std@@2HB DD 00H			; std::_Num_base::radix
CONST	ENDS
;	COMDAT ?min_exponent10@_Num_base@std@@2HB
CONST	SEGMENT
?min_exponent10@_Num_base@std@@2HB DD 00H		; std::_Num_base::min_exponent10
CONST	ENDS
;	COMDAT ?min_exponent@_Num_base@std@@2HB
CONST	SEGMENT
?min_exponent@_Num_base@std@@2HB DD 00H			; std::_Num_base::min_exponent
CONST	ENDS
;	COMDAT ?max_exponent10@_Num_base@std@@2HB
CONST	SEGMENT
?max_exponent10@_Num_base@std@@2HB DD 00H		; std::_Num_base::max_exponent10
CONST	ENDS
;	COMDAT ?max_exponent@_Num_base@std@@2HB
CONST	SEGMENT
?max_exponent@_Num_base@std@@2HB DD 00H			; std::_Num_base::max_exponent
CONST	ENDS
;	COMDAT ?max_digits10@_Num_base@std@@2HB
CONST	SEGMENT
?max_digits10@_Num_base@std@@2HB DD 00H			; std::_Num_base::max_digits10
CONST	ENDS
;	COMDAT ?digits10@_Num_base@std@@2HB
CONST	SEGMENT
?digits10@_Num_base@std@@2HB DD 00H			; std::_Num_base::digits10
CONST	ENDS
;	COMDAT ?digits@_Num_base@std@@2HB
CONST	SEGMENT
?digits@_Num_base@std@@2HB DD 00H			; std::_Num_base::digits
CONST	ENDS
;	COMDAT ?round_style@_Num_base@std@@2W4float_round_style@2@B
CONST	SEGMENT
?round_style@_Num_base@std@@2W4float_round_style@2@B DD 00H ; std::_Num_base::round_style
CONST	ENDS
;	COMDAT ?traps@_Num_base@std@@2_NB
CONST	SEGMENT
?traps@_Num_base@std@@2_NB DB 00H			; std::_Num_base::traps
CONST	ENDS
;	COMDAT ?tinyness_before@_Num_base@std@@2_NB
CONST	SEGMENT
?tinyness_before@_Num_base@std@@2_NB DB 00H		; std::_Num_base::tinyness_before
CONST	ENDS
;	COMDAT ?is_specialized@_Num_base@std@@2_NB
CONST	SEGMENT
?is_specialized@_Num_base@std@@2_NB DB 00H		; std::_Num_base::is_specialized
CONST	ENDS
;	COMDAT ?is_signed@_Num_base@std@@2_NB
CONST	SEGMENT
?is_signed@_Num_base@std@@2_NB DB 00H			; std::_Num_base::is_signed
CONST	ENDS
;	COMDAT ?is_modulo@_Num_base@std@@2_NB
CONST	SEGMENT
?is_modulo@_Num_base@std@@2_NB DB 00H			; std::_Num_base::is_modulo
CONST	ENDS
;	COMDAT ?is_integer@_Num_base@std@@2_NB
CONST	SEGMENT
?is_integer@_Num_base@std@@2_NB DB 00H			; std::_Num_base::is_integer
CONST	ENDS
;	COMDAT ?is_iec559@_Num_base@std@@2_NB
CONST	SEGMENT
?is_iec559@_Num_base@std@@2_NB DB 00H			; std::_Num_base::is_iec559
CONST	ENDS
;	COMDAT ?is_exact@_Num_base@std@@2_NB
CONST	SEGMENT
?is_exact@_Num_base@std@@2_NB DB 00H			; std::_Num_base::is_exact
CONST	ENDS
;	COMDAT ?is_bounded@_Num_base@std@@2_NB
CONST	SEGMENT
?is_bounded@_Num_base@std@@2_NB DB 00H			; std::_Num_base::is_bounded
CONST	ENDS
;	COMDAT ?has_signaling_NaN@_Num_base@std@@2_NB
CONST	SEGMENT
?has_signaling_NaN@_Num_base@std@@2_NB DB 00H		; std::_Num_base::has_signaling_NaN
CONST	ENDS
;	COMDAT ?has_quiet_NaN@_Num_base@std@@2_NB
CONST	SEGMENT
?has_quiet_NaN@_Num_base@std@@2_NB DB 00H		; std::_Num_base::has_quiet_NaN
CONST	ENDS
;	COMDAT ?has_infinity@_Num_base@std@@2_NB
CONST	SEGMENT
?has_infinity@_Num_base@std@@2_NB DB 00H		; std::_Num_base::has_infinity
CONST	ENDS
;	COMDAT ?has_denorm_loss@_Num_base@std@@2_NB
CONST	SEGMENT
?has_denorm_loss@_Num_base@std@@2_NB DB 00H		; std::_Num_base::has_denorm_loss
CONST	ENDS
;	COMDAT ?has_denorm@_Num_base@std@@2W4float_denorm_style@2@B
CONST	SEGMENT
?has_denorm@_Num_base@std@@2W4float_denorm_style@2@B DD 00H ; std::_Num_base::has_denorm
CONST	ENDS
PUBLIC	??1?$Trigger_Respawning@VAbstRaven_Bot@@@@UAE@XZ ; Trigger_Respawning<AbstRaven_Bot>::~Trigger_Respawning<AbstRaven_Bot>
PUBLIC	?Read@Trigger_HealthGiver@@UAEXAAV?$basic_ifstream@DU?$char_traits@D@std@@@std@@@Z ; Trigger_HealthGiver::Read
PUBLIC	??_7Trigger_HealthGiver@@6B@			; Trigger_HealthGiver::`vftable'
PUBLIC	??0?$Trigger_Respawning@VAbstRaven_Bot@@@@QAE@H@Z ; Trigger_Respawning<AbstRaven_Bot>::Trigger_Respawning<AbstRaven_Bot>
PUBLIC	??$GetValueFromStream@H@@YAHAAV?$basic_ifstream@DU?$char_traits@D@std@@@std@@@Z ; GetValueFromStream<int>
PUBLIC	??0Trigger_HealthGiver@@QAE@AAV?$basic_ifstream@DU?$char_traits@D@std@@@std@@@Z ; Trigger_HealthGiver::Trigger_HealthGiver
PUBLIC	??_R4Trigger_HealthGiver@@6B@			; Trigger_HealthGiver::`RTTI Complete Object Locator'
PUBLIC	??_R0?AVTrigger_HealthGiver@@@8			; Trigger_HealthGiver `RTTI Type Descriptor'
PUBLIC	??_R3Trigger_HealthGiver@@8			; Trigger_HealthGiver::`RTTI Class Hierarchy Descriptor'
PUBLIC	??_R2Trigger_HealthGiver@@8			; Trigger_HealthGiver::`RTTI Base Class Array'
PUBLIC	??_R1A@?0A@EA@Trigger_HealthGiver@@8		; Trigger_HealthGiver::`RTTI Base Class Descriptor at (0,-1,0,64)'
PUBLIC	??_R1A@?0A@EA@?$Trigger_Respawning@VAbstRaven_Bot@@@@8 ; Trigger_Respawning<AbstRaven_Bot>::`RTTI Base Class Descriptor at (0,-1,0,64)'
PUBLIC	??_R0?AV?$Trigger_Respawning@VAbstRaven_Bot@@@@@8 ; Trigger_Respawning<AbstRaven_Bot> `RTTI Type Descriptor'
PUBLIC	??_R3?$Trigger_Respawning@VAbstRaven_Bot@@@@8	; Trigger_Respawning<AbstRaven_Bot>::`RTTI Class Hierarchy Descriptor'
PUBLIC	??_R2?$Trigger_Respawning@VAbstRaven_Bot@@@@8	; Trigger_Respawning<AbstRaven_Bot>::`RTTI Base Class Array'
PUBLIC	??_R1A@?0A@EA@?$Trigger@VAbstRaven_Bot@@@@8	; Trigger<AbstRaven_Bot>::`RTTI Base Class Descriptor at (0,-1,0,64)'
PUBLIC	??_R0?AV?$Trigger@VAbstRaven_Bot@@@@@8		; Trigger<AbstRaven_Bot> `RTTI Type Descriptor'
PUBLIC	??_R3?$Trigger@VAbstRaven_Bot@@@@8		; Trigger<AbstRaven_Bot>::`RTTI Class Hierarchy Descriptor'
PUBLIC	??_R2?$Trigger@VAbstRaven_Bot@@@@8		; Trigger<AbstRaven_Bot>::`RTTI Base Class Array'
PUBLIC	??_R1A@?0A@EA@BaseGameEntity@@8			; BaseGameEntity::`RTTI Base Class Descriptor at (0,-1,0,64)'
PUBLIC	??_R0?AVBaseGameEntity@@@8			; BaseGameEntity `RTTI Type Descriptor'
PUBLIC	??_R3BaseGameEntity@@8				; BaseGameEntity::`RTTI Class Hierarchy Descriptor'
PUBLIC	??_R2BaseGameEntity@@8				; BaseGameEntity::`RTTI Base Class Array'
PUBLIC	?Update@?$Trigger_Respawning@VAbstRaven_Bot@@@@UAEXXZ ; Trigger_Respawning<AbstRaven_Bot>::Update
PUBLIC	?Render@Trigger_HealthGiver@@UAEXXZ		; Trigger_HealthGiver::Render
PUBLIC	?HandleMessage@BaseGameEntity@@UAE_NABUTelegram@@@Z ; BaseGameEntity::HandleMessage
PUBLIC	?Write@BaseGameEntity@@UBEXAAV?$basic_ostream@DU?$char_traits@D@std@@@std@@@Z ; BaseGameEntity::Write
PUBLIC	?Try@Trigger_HealthGiver@@UAEXPAVAbstRaven_Bot@@@Z ; Trigger_HealthGiver::Try
EXTRN	___security_cookie:DWORD
EXTRN	___CxxFrameHandler3:PROC
EXTRN	@__security_check_cookie@4:PROC
EXTRN	__RTC_CheckEsp:PROC
EXTRN	__RTC_Shutdown:PROC
EXTRN	__RTC_InitBase:PROC
EXTRN	??_7type_info@@6B@:QWORD			; type_info::`vftable'
EXTRN	??_ETrigger_HealthGiver@@UAEPAXI@Z:PROC		; Trigger_HealthGiver::`vector deleting destructor'
;	COMDAT ??_R2BaseGameEntity@@8
; File c:\users\teaja\documents\artificial-fun\labravenprojecttest\raven\triggers\trigger_healthgiver.cpp
rdata$r	SEGMENT
??_R2BaseGameEntity@@8 DD FLAT:??_R1A@?0A@EA@BaseGameEntity@@8 ; BaseGameEntity::`RTTI Base Class Array'
rdata$r	ENDS
;	COMDAT ??_R3BaseGameEntity@@8
rdata$r	SEGMENT
??_R3BaseGameEntity@@8 DD 00H				; BaseGameEntity::`RTTI Class Hierarchy Descriptor'
	DD	00H
	DD	01H
	DD	FLAT:??_R2BaseGameEntity@@8
rdata$r	ENDS
;	COMDAT ??_R0?AVBaseGameEntity@@@8
_DATA	SEGMENT
??_R0?AVBaseGameEntity@@@8 DD FLAT:??_7type_info@@6B@	; BaseGameEntity `RTTI Type Descriptor'
	DD	00H
	DB	'.?AVBaseGameEntity@@', 00H
_DATA	ENDS
;	COMDAT ??_R1A@?0A@EA@BaseGameEntity@@8
rdata$r	SEGMENT
??_R1A@?0A@EA@BaseGameEntity@@8 DD FLAT:??_R0?AVBaseGameEntity@@@8 ; BaseGameEntity::`RTTI Base Class Descriptor at (0,-1,0,64)'
	DD	00H
	DD	00H
	DD	0ffffffffH
	DD	00H
	DD	040H
	DD	FLAT:??_R3BaseGameEntity@@8
rdata$r	ENDS
;	COMDAT ??_R2?$Trigger@VAbstRaven_Bot@@@@8
rdata$r	SEGMENT
??_R2?$Trigger@VAbstRaven_Bot@@@@8 DD FLAT:??_R1A@?0A@EA@?$Trigger@VAbstRaven_Bot@@@@8 ; Trigger<AbstRaven_Bot>::`RTTI Base Class Array'
	DD	FLAT:??_R1A@?0A@EA@BaseGameEntity@@8
rdata$r	ENDS
;	COMDAT ??_R3?$Trigger@VAbstRaven_Bot@@@@8
rdata$r	SEGMENT
??_R3?$Trigger@VAbstRaven_Bot@@@@8 DD 00H		; Trigger<AbstRaven_Bot>::`RTTI Class Hierarchy Descriptor'
	DD	00H
	DD	02H
	DD	FLAT:??_R2?$Trigger@VAbstRaven_Bot@@@@8
rdata$r	ENDS
;	COMDAT ??_R0?AV?$Trigger@VAbstRaven_Bot@@@@@8
_DATA	SEGMENT
??_R0?AV?$Trigger@VAbstRaven_Bot@@@@@8 DD FLAT:??_7type_info@@6B@ ; Trigger<AbstRaven_Bot> `RTTI Type Descriptor'
	DD	00H
	DB	'.?AV?$Trigger@VAbstRaven_Bot@@@@', 00H
_DATA	ENDS
;	COMDAT ??_R1A@?0A@EA@?$Trigger@VAbstRaven_Bot@@@@8
rdata$r	SEGMENT
??_R1A@?0A@EA@?$Trigger@VAbstRaven_Bot@@@@8 DD FLAT:??_R0?AV?$Trigger@VAbstRaven_Bot@@@@@8 ; Trigger<AbstRaven_Bot>::`RTTI Base Class Descriptor at (0,-1,0,64)'
	DD	01H
	DD	00H
	DD	0ffffffffH
	DD	00H
	DD	040H
	DD	FLAT:??_R3?$Trigger@VAbstRaven_Bot@@@@8
rdata$r	ENDS
;	COMDAT ??_R2?$Trigger_Respawning@VAbstRaven_Bot@@@@8
rdata$r	SEGMENT
??_R2?$Trigger_Respawning@VAbstRaven_Bot@@@@8 DD FLAT:??_R1A@?0A@EA@?$Trigger_Respawning@VAbstRaven_Bot@@@@8 ; Trigger_Respawning<AbstRaven_Bot>::`RTTI Base Class Array'
	DD	FLAT:??_R1A@?0A@EA@?$Trigger@VAbstRaven_Bot@@@@8
	DD	FLAT:??_R1A@?0A@EA@BaseGameEntity@@8
rdata$r	ENDS
;	COMDAT ??_R3?$Trigger_Respawning@VAbstRaven_Bot@@@@8
rdata$r	SEGMENT
??_R3?$Trigger_Respawning@VAbstRaven_Bot@@@@8 DD 00H	; Trigger_Respawning<AbstRaven_Bot>::`RTTI Class Hierarchy Descriptor'
	DD	00H
	DD	03H
	DD	FLAT:??_R2?$Trigger_Respawning@VAbstRaven_Bot@@@@8
rdata$r	ENDS
;	COMDAT ??_R0?AV?$Trigger_Respawning@VAbstRaven_Bot@@@@@8
_DATA	SEGMENT
??_R0?AV?$Trigger_Respawning@VAbstRaven_Bot@@@@@8 DD FLAT:??_7type_info@@6B@ ; Trigger_Respawning<AbstRaven_Bot> `RTTI Type Descriptor'
	DD	00H
	DB	'.?AV?$Trigger_Respawning@VAbstRaven_Bot@@@@', 00H
_DATA	ENDS
;	COMDAT ??_R1A@?0A@EA@?$Trigger_Respawning@VAbstRaven_Bot@@@@8
rdata$r	SEGMENT
??_R1A@?0A@EA@?$Trigger_Respawning@VAbstRaven_Bot@@@@8 DD FLAT:??_R0?AV?$Trigger_Respawning@VAbstRaven_Bot@@@@@8 ; Trigger_Respawning<AbstRaven_Bot>::`RTTI Base Class Descriptor at (0,-1,0,64)'
	DD	02H
	DD	00H
	DD	0ffffffffH
	DD	00H
	DD	040H
	DD	FLAT:??_R3?$Trigger_Respawning@VAbstRaven_Bot@@@@8
rdata$r	ENDS
;	COMDAT ??_R1A@?0A@EA@Trigger_HealthGiver@@8
rdata$r	SEGMENT
??_R1A@?0A@EA@Trigger_HealthGiver@@8 DD FLAT:??_R0?AVTrigger_HealthGiver@@@8 ; Trigger_HealthGiver::`RTTI Base Class Descriptor at (0,-1,0,64)'
	DD	03H
	DD	00H
	DD	0ffffffffH
	DD	00H
	DD	040H
	DD	FLAT:??_R3Trigger_HealthGiver@@8
rdata$r	ENDS
;	COMDAT ??_R2Trigger_HealthGiver@@8
rdata$r	SEGMENT
??_R2Trigger_HealthGiver@@8 DD FLAT:??_R1A@?0A@EA@Trigger_HealthGiver@@8 ; Trigger_HealthGiver::`RTTI Base Class Array'
	DD	FLAT:??_R1A@?0A@EA@?$Trigger_Respawning@VAbstRaven_Bot@@@@8
	DD	FLAT:??_R1A@?0A@EA@?$Trigger@VAbstRaven_Bot@@@@8
	DD	FLAT:??_R1A@?0A@EA@BaseGameEntity@@8
rdata$r	ENDS
;	COMDAT ??_R3Trigger_HealthGiver@@8
rdata$r	SEGMENT
??_R3Trigger_HealthGiver@@8 DD 00H			; Trigger_HealthGiver::`RTTI Class Hierarchy Descriptor'
	DD	00H
	DD	04H
	DD	FLAT:??_R2Trigger_HealthGiver@@8
rdata$r	ENDS
;	COMDAT ??_R0?AVTrigger_HealthGiver@@@8
_DATA	SEGMENT
??_R0?AVTrigger_HealthGiver@@@8 DD FLAT:??_7type_info@@6B@ ; Trigger_HealthGiver `RTTI Type Descriptor'
	DD	00H
	DB	'.?AVTrigger_HealthGiver@@', 00H
_DATA	ENDS
;	COMDAT ??_R4Trigger_HealthGiver@@6B@
rdata$r	SEGMENT
??_R4Trigger_HealthGiver@@6B@ DD 00H			; Trigger_HealthGiver::`RTTI Complete Object Locator'
	DD	00H
	DD	00H
	DD	FLAT:??_R0?AVTrigger_HealthGiver@@@8
	DD	FLAT:??_R3Trigger_HealthGiver@@8
rdata$r	ENDS
;	COMDAT ??_7Trigger_HealthGiver@@6B@
CONST	SEGMENT
??_7Trigger_HealthGiver@@6B@ DD FLAT:??_R4Trigger_HealthGiver@@6B@ ; Trigger_HealthGiver::`vftable'
	DD	FLAT:??_ETrigger_HealthGiver@@UAEPAXI@Z
	DD	FLAT:?Update@?$Trigger_Respawning@VAbstRaven_Bot@@@@UAEXXZ
	DD	FLAT:?Render@Trigger_HealthGiver@@UAEXXZ
	DD	FLAT:?HandleMessage@BaseGameEntity@@UAE_NABUTelegram@@@Z
	DD	FLAT:?Write@BaseGameEntity@@UBEXAAV?$basic_ostream@DU?$char_traits@D@std@@@std@@@Z
	DD	FLAT:?Read@Trigger_HealthGiver@@UAEXAAV?$basic_ifstream@DU?$char_traits@D@std@@@std@@@Z
	DD	FLAT:?Try@Trigger_HealthGiver@@UAEXPAVAbstRaven_Bot@@@Z
CONST	ENDS
xdata$x	SEGMENT
__unwindtable$??0Trigger_HealthGiver@@QAE@AAV?$basic_ifstream@DU?$char_traits@D@std@@@std@@@Z DD 0ffffffffH
	DD	FLAT:__unwindfunclet$??0Trigger_HealthGiver@@QAE@AAV?$basic_ifstream@DU?$char_traits@D@std@@@std@@@Z$0
__ehfuncinfo$??0Trigger_HealthGiver@@QAE@AAV?$basic_ifstream@DU?$char_traits@D@std@@@std@@@Z DD 019930522H
	DD	01H
	DD	FLAT:__unwindtable$??0Trigger_HealthGiver@@QAE@AAV?$basic_ifstream@DU?$char_traits@D@std@@@std@@@Z
	DD	2 DUP(00H)
	DD	2 DUP(00H)
	DD	00H
	DD	01H
xdata$x	ENDS
;	COMDAT rtc$TMZ
rtc$TMZ	SEGMENT
__RTC_Shutdown.rtc$TMZ DD FLAT:__RTC_Shutdown
rtc$TMZ	ENDS
;	COMDAT rtc$IMZ
rtc$IMZ	SEGMENT
__RTC_InitBase.rtc$IMZ DD FLAT:__RTC_InitBase
; Function compile flags: /Odtp /RTCsu
rtc$IMZ	ENDS
_TEXT	SEGMENT
_this$ = -16						; size = 4
__$EHRec$ = -12						; size = 12
_datafile$ = 8						; size = 4
??0Trigger_HealthGiver@@QAE@AAV?$basic_ifstream@DU?$char_traits@D@std@@@std@@@Z PROC ; Trigger_HealthGiver::Trigger_HealthGiver
; _this$ = ecx

; 14   : {

	push	ebp
	mov	ebp, esp
	push	-1
	push	__ehhandler$??0Trigger_HealthGiver@@QAE@AAV?$basic_ifstream@DU?$char_traits@D@std@@@std@@@Z
	mov	eax, DWORD PTR fs:0
	push	eax
	push	ecx
	mov	DWORD PTR [ebp-16], -858993460		; ccccccccH
	mov	eax, DWORD PTR ___security_cookie
	xor	eax, ebp
	push	eax
	lea	eax, DWORD PTR __$EHRec$[ebp]
	mov	DWORD PTR fs:0, eax
	mov	DWORD PTR _this$[ebp], ecx
	mov	eax, DWORD PTR _datafile$[ebp]
	push	eax
	call	??$GetValueFromStream@H@@YAHAAV?$basic_ifstream@DU?$char_traits@D@std@@@std@@@Z ; GetValueFromStream<int>
	add	esp, 4
	push	eax
	mov	ecx, DWORD PTR _this$[ebp]
	call	??0?$Trigger_Respawning@VAbstRaven_Bot@@@@QAE@H@Z ; Trigger_Respawning<AbstRaven_Bot>::Trigger_Respawning<AbstRaven_Bot>
	mov	DWORD PTR __$EHRec$[ebp+8], 0
	mov	ecx, DWORD PTR _this$[ebp]
	mov	DWORD PTR [ecx], OFFSET ??_7Trigger_HealthGiver@@6B@

; 15   :   Read(datafile);

	mov	edx, DWORD PTR _datafile$[ebp]
	push	edx
	mov	ecx, DWORD PTR _this$[ebp]
	call	?Read@Trigger_HealthGiver@@UAEXAAV?$basic_ifstream@DU?$char_traits@D@std@@@std@@@Z ; Trigger_HealthGiver::Read

; 16   : }

	mov	DWORD PTR __$EHRec$[ebp+8], -1
	mov	eax, DWORD PTR _this$[ebp]
	mov	ecx, DWORD PTR __$EHRec$[ebp]
	mov	DWORD PTR fs:0, ecx
	pop	ecx
	add	esp, 16					; 00000010H
	cmp	ebp, esp
	call	__RTC_CheckEsp
	mov	esp, ebp
	pop	ebp
	ret	4
_TEXT	ENDS
text$x	SEGMENT
__unwindfunclet$??0Trigger_HealthGiver@@QAE@AAV?$basic_ifstream@DU?$char_traits@D@std@@@std@@@Z$0:
	mov	ecx, DWORD PTR _this$[ebp]
	jmp	??1?$Trigger_Respawning@VAbstRaven_Bot@@@@UAE@XZ ; Trigger_Respawning<AbstRaven_Bot>::~Trigger_Respawning<AbstRaven_Bot>
__ehhandler$??0Trigger_HealthGiver@@QAE@AAV?$basic_ifstream@DU?$char_traits@D@std@@@std@@@Z:
	mov	edx, DWORD PTR [esp+8]
	lea	eax, DWORD PTR [edx+12]
	mov	ecx, DWORD PTR [edx-8]
	xor	ecx, eax
	call	@__security_check_cookie@4
	mov	eax, OFFSET __ehfuncinfo$??0Trigger_HealthGiver@@QAE@AAV?$basic_ifstream@DU?$char_traits@D@std@@@std@@@Z
	jmp	___CxxFrameHandler3
text$x	ENDS
??0Trigger_HealthGiver@@QAE@AAV?$basic_ifstream@DU?$char_traits@D@std@@@std@@@Z ENDP ; Trigger_HealthGiver::Trigger_HealthGiver
; Function compile flags: /Odtp /RTCsu
; File c:\users\teaja\documents\artificial-fun\labravenprojecttest\common\game\basegameentity.h
;	COMDAT ?HandleMessage@BaseGameEntity@@UAE_NABUTelegram@@@Z
_TEXT	SEGMENT
_this$ = -4						; size = 4
_msg$ = 8						; size = 4
?HandleMessage@BaseGameEntity@@UAE_NABUTelegram@@@Z PROC ; BaseGameEntity::HandleMessage, COMDAT
; _this$ = ecx

; 75   :   virtual bool HandleMessage(const Telegram& msg){return false;}

	push	ebp
	mov	ebp, esp
	push	ecx
	mov	DWORD PTR [ebp-4], -858993460		; ccccccccH
	mov	DWORD PTR _this$[ebp], ecx
	xor	al, al
	mov	esp, ebp
	pop	ebp
	ret	4
?HandleMessage@BaseGameEntity@@UAE_NABUTelegram@@@Z ENDP ; BaseGameEntity::HandleMessage
; Function compile flags: /Odtp /RTCsu
_TEXT	ENDS
;	COMDAT ?Write@BaseGameEntity@@UBEXAAV?$basic_ostream@DU?$char_traits@D@std@@@std@@@Z
_TEXT	SEGMENT
_this$ = -4						; size = 4
_os$ = 8						; size = 4
?Write@BaseGameEntity@@UBEXAAV?$basic_ostream@DU?$char_traits@D@std@@@std@@@Z PROC ; BaseGameEntity::Write, COMDAT
; _this$ = ecx

; 78   :   virtual void Write(std::ostream&  os)const{}

	push	ebp
	mov	ebp, esp
	push	ecx
	mov	DWORD PTR [ebp-4], -858993460		; ccccccccH
	mov	DWORD PTR _this$[ebp], ecx
	mov	esp, ebp
	pop	ebp
	ret	4
?Write@BaseGameEntity@@UBEXAAV?$basic_ostream@DU?$char_traits@D@std@@@std@@@Z ENDP ; BaseGameEntity::Write
_TEXT	ENDS
PUBLIC	??1Trigger_HealthGiver@@UAE@XZ			; Trigger_HealthGiver::~Trigger_HealthGiver
EXTRN	??3@YAXPAX@Z:PROC				; operator delete
; Function compile flags: /Odtp /RTCsu
;	COMDAT ??_GTrigger_HealthGiver@@UAEPAXI@Z
_TEXT	SEGMENT
_this$ = -4						; size = 4
___flags$ = 8						; size = 4
??_GTrigger_HealthGiver@@UAEPAXI@Z PROC			; Trigger_HealthGiver::`scalar deleting destructor', COMDAT
; _this$ = ecx
	push	ebp
	mov	ebp, esp
	push	ecx
	mov	DWORD PTR [ebp-4], -858993460		; ccccccccH
	mov	DWORD PTR _this$[ebp], ecx
	mov	ecx, DWORD PTR _this$[ebp]
	call	??1Trigger_HealthGiver@@UAE@XZ
	mov	eax, DWORD PTR ___flags$[ebp]
	and	eax, 1
	je	SHORT $LN1@scalar
	mov	ecx, DWORD PTR _this$[ebp]
	push	ecx
	call	??3@YAXPAX@Z				; operator delete
	add	esp, 4
$LN1@scalar:
	mov	eax, DWORD PTR _this$[ebp]
	add	esp, 4
	cmp	ebp, esp
	call	__RTC_CheckEsp
	mov	esp, ebp
	pop	ebp
	ret	4
??_GTrigger_HealthGiver@@UAEPAXI@Z ENDP			; Trigger_HealthGiver::`scalar deleting destructor'
; Function compile flags: /Odtp /RTCsu
_TEXT	ENDS
;	COMDAT ??1Trigger_HealthGiver@@UAE@XZ
_TEXT	SEGMENT
_this$ = -4						; size = 4
??1Trigger_HealthGiver@@UAE@XZ PROC			; Trigger_HealthGiver::~Trigger_HealthGiver, COMDAT
; _this$ = ecx
	push	ebp
	mov	ebp, esp
	push	ecx
	mov	DWORD PTR [ebp-4], -858993460		; ccccccccH
	mov	DWORD PTR _this$[ebp], ecx
	mov	ecx, DWORD PTR _this$[ebp]
	call	??1?$Trigger_Respawning@VAbstRaven_Bot@@@@UAE@XZ ; Trigger_Respawning<AbstRaven_Bot>::~Trigger_Respawning<AbstRaven_Bot>
	add	esp, 4
	cmp	ebp, esp
	call	__RTC_CheckEsp
	mov	esp, ebp
	pop	ebp
	ret	0
??1Trigger_HealthGiver@@UAE@XZ ENDP			; Trigger_HealthGiver::~Trigger_HealthGiver
_TEXT	ENDS
PUBLIC	?Deactivate@?$Trigger_Respawning@VAbstRaven_Bot@@@@IAEXXZ ; Trigger_Respawning<AbstRaven_Bot>::Deactivate
PUBLIC	?isTouchingTrigger@?$Trigger@VAbstRaven_Bot@@@@IBE_NUVector2D@@N@Z ; Trigger<AbstRaven_Bot>::isTouchingTrigger
PUBLIC	?Pos@BaseGameEntity@@QBE?AUVector2D@@XZ		; BaseGameEntity::Pos
PUBLIC	?BRadius@BaseGameEntity@@QBENXZ			; BaseGameEntity::BRadius
PUBLIC	?isActive@?$Trigger@VAbstRaven_Bot@@@@QAE_NXZ	; Trigger<AbstRaven_Bot>::isActive
EXTRN	?IncreaseHealth@AbstRaven_Bot@@QAEXI@Z:PROC	; AbstRaven_Bot::IncreaseHealth
EXTRN	__fltused:DWORD
; Function compile flags: /Odtp /RTCsu
; File c:\users\teaja\documents\artificial-fun\labravenprojecttest\raven\triggers\trigger_healthgiver.cpp
_TEXT	SEGMENT
$T140904 = -20						; size = 16
_this$ = -4						; size = 4
_pBot$ = 8						; size = 4
?Try@Trigger_HealthGiver@@UAEXPAVAbstRaven_Bot@@@Z PROC	; Trigger_HealthGiver::Try
; _this$ = ecx

; 20   : {

	push	ebp
	mov	ebp, esp
	sub	esp, 20					; 00000014H
	mov	eax, -858993460				; ccccccccH
	mov	DWORD PTR [ebp-20], eax
	mov	DWORD PTR [ebp-16], eax
	mov	DWORD PTR [ebp-12], eax
	mov	DWORD PTR [ebp-8], eax
	mov	DWORD PTR [ebp-4], eax
	mov	DWORD PTR _this$[ebp], ecx

; 21   :   if (isActive() && isTouchingTrigger(pBot->Pos(), pBot->BRadius()))

	mov	ecx, DWORD PTR _this$[ebp]
	call	?isActive@?$Trigger@VAbstRaven_Bot@@@@QAE_NXZ ; Trigger<AbstRaven_Bot>::isActive
	movzx	eax, al
	test	eax, eax
	je	SHORT $LN1@Try
	mov	ecx, DWORD PTR _pBot$[ebp]
	call	?BRadius@BaseGameEntity@@QBENXZ		; BaseGameEntity::BRadius
	sub	esp, 8
	fstp	QWORD PTR [esp]
	lea	ecx, DWORD PTR $T140904[ebp]
	push	ecx
	mov	ecx, DWORD PTR _pBot$[ebp]
	call	?Pos@BaseGameEntity@@QBE?AUVector2D@@XZ	; BaseGameEntity::Pos
	sub	esp, 16					; 00000010H
	mov	edx, esp
	mov	ecx, DWORD PTR [eax]
	mov	DWORD PTR [edx], ecx
	mov	ecx, DWORD PTR [eax+4]
	mov	DWORD PTR [edx+4], ecx
	mov	ecx, DWORD PTR [eax+8]
	mov	DWORD PTR [edx+8], ecx
	mov	eax, DWORD PTR [eax+12]
	mov	DWORD PTR [edx+12], eax
	mov	ecx, DWORD PTR _this$[ebp]
	call	?isTouchingTrigger@?$Trigger@VAbstRaven_Bot@@@@IBE_NUVector2D@@N@Z ; Trigger<AbstRaven_Bot>::isTouchingTrigger
	movzx	ecx, al
	test	ecx, ecx
	je	SHORT $LN1@Try

; 22   :   {
; 23   :     pBot->IncreaseHealth(m_iHealthGiven);

	mov	edx, DWORD PTR _this$[ebp]
	mov	eax, DWORD PTR [edx+88]
	push	eax
	mov	ecx, DWORD PTR _pBot$[ebp]
	call	?IncreaseHealth@AbstRaven_Bot@@QAEXI@Z	; AbstRaven_Bot::IncreaseHealth

; 24   : 
; 25   :     Deactivate();

	mov	ecx, DWORD PTR _this$[ebp]
	call	?Deactivate@?$Trigger_Respawning@VAbstRaven_Bot@@@@IAEXXZ ; Trigger_Respawning<AbstRaven_Bot>::Deactivate
$LN1@Try:

; 26   :   } 
; 27   : }

	add	esp, 20					; 00000014H
	cmp	ebp, esp
	call	__RTC_CheckEsp
	mov	esp, ebp
	pop	ebp
	ret	4
?Try@Trigger_HealthGiver@@UAEXPAVAbstRaven_Bot@@@Z ENDP	; Trigger_HealthGiver::Try
; Function compile flags: /Odtp /RTCsu
; File c:\users\teaja\documents\artificial-fun\labravenprojecttest\common\game\basegameentity.h
_TEXT	ENDS
;	COMDAT ?Pos@BaseGameEntity@@QBE?AUVector2D@@XZ
_TEXT	SEGMENT
_this$ = -4						; size = 4
___$ReturnUdt$ = 8					; size = 4
?Pos@BaseGameEntity@@QBE?AUVector2D@@XZ PROC		; BaseGameEntity::Pos, COMDAT
; _this$ = ecx

; 89   :   Vector2D     Pos()const{return m_vPosition;}

	push	ebp
	mov	ebp, esp
	push	ecx
	mov	DWORD PTR [ebp-4], -858993460		; ccccccccH
	mov	DWORD PTR _this$[ebp], ecx
	mov	eax, DWORD PTR _this$[ebp]
	add	eax, 24					; 00000018H
	mov	ecx, DWORD PTR ___$ReturnUdt$[ebp]
	mov	edx, DWORD PTR [eax]
	mov	DWORD PTR [ecx], edx
	mov	edx, DWORD PTR [eax+4]
	mov	DWORD PTR [ecx+4], edx
	mov	edx, DWORD PTR [eax+8]
	mov	DWORD PTR [ecx+8], edx
	mov	eax, DWORD PTR [eax+12]
	mov	DWORD PTR [ecx+12], eax
	mov	eax, DWORD PTR ___$ReturnUdt$[ebp]
	mov	esp, ebp
	pop	ebp
	ret	4
?Pos@BaseGameEntity@@QBE?AUVector2D@@XZ ENDP		; BaseGameEntity::Pos
; Function compile flags: /Odtp /RTCsu
_TEXT	ENDS
;	COMDAT ?BRadius@BaseGameEntity@@QBENXZ
_TEXT	SEGMENT
_this$ = -4						; size = 4
?BRadius@BaseGameEntity@@QBENXZ PROC			; BaseGameEntity::BRadius, COMDAT
; _this$ = ecx

; 92   :   double       BRadius()const{return m_dBoundingRadius;}

	push	ebp
	mov	ebp, esp
	push	ecx
	mov	DWORD PTR [ebp-4], -858993460		; ccccccccH
	mov	DWORD PTR _this$[ebp], ecx
	mov	eax, DWORD PTR _this$[ebp]
	fld	QWORD PTR [eax+56]
	mov	esp, ebp
	pop	ebp
	ret	0
?BRadius@BaseGameEntity@@QBENXZ ENDP			; BaseGameEntity::BRadius
_TEXT	ENDS
PUBLIC	?Line@Cgdi@@QAEXNNNN@Z				; Cgdi::Line
PUBLIC	?RedPen@Cgdi@@QAEXXZ				; Cgdi::RedPen
PUBLIC	?Rect@Cgdi@@QAEXNNNN@Z				; Cgdi::Rect
PUBLIC	__real@3ff0000000000000
PUBLIC	__real@4014000000000000
PUBLIC	?WhiteBrush@Cgdi@@QAEXXZ			; Cgdi::WhiteBrush
PUBLIC	?BlackPen@Cgdi@@QAEXXZ				; Cgdi::BlackPen
EXTRN	?Instance@Cgdi@@SAPAV1@XZ:PROC			; Cgdi::Instance
;	COMDAT __real@3ff0000000000000
; File c:\users\teaja\documents\artificial-fun\labravenprojecttest\raven\triggers\trigger_healthgiver.cpp
CONST	SEGMENT
__real@3ff0000000000000 DQ 03ff0000000000000r	; 1
CONST	ENDS
;	COMDAT __real@4014000000000000
CONST	SEGMENT
__real@4014000000000000 DQ 04014000000000000r	; 5
; Function compile flags: /Odtp /RTCsu
CONST	ENDS
_TEXT	SEGMENT
$T140922 = -200						; size = 16
$T140921 = -184						; size = 16
$T140920 = -168						; size = 16
$T140919 = -152						; size = 16
$T140918 = -136						; size = 16
$T140917 = -120						; size = 16
$T140916 = -104						; size = 16
$T140915 = -88						; size = 16
$T140914 = -72						; size = 16
$T140913 = -56						; size = 16
$T140912 = -40						; size = 16
$T140911 = -24						; size = 16
_sz$132263 = -8						; size = 4
_this$ = -4						; size = 4
?Render@Trigger_HealthGiver@@UAEXXZ PROC		; Trigger_HealthGiver::Render
; _this$ = ecx

; 31   : {

	push	ebp
	mov	ebp, esp
	sub	esp, 200				; 000000c8H
	push	edi
	push	ecx
	lea	edi, DWORD PTR [ebp-200]
	mov	ecx, 50					; 00000032H
	mov	eax, -858993460				; ccccccccH
	rep stosd
	pop	ecx
	mov	DWORD PTR _this$[ebp], ecx

; 32   :   if (isActive())

	mov	ecx, DWORD PTR _this$[ebp]
	call	?isActive@?$Trigger@VAbstRaven_Bot@@@@QAE_NXZ ; Trigger<AbstRaven_Bot>::isActive
	movzx	eax, al
	test	eax, eax
	je	$LN1@Render

; 33   :   {
; 34   :     gdi->BlackPen();

	call	?Instance@Cgdi@@SAPAV1@XZ		; Cgdi::Instance
	mov	ecx, eax
	call	?BlackPen@Cgdi@@QAEXXZ			; Cgdi::BlackPen

; 35   :     gdi->WhiteBrush();

	call	?Instance@Cgdi@@SAPAV1@XZ		; Cgdi::Instance
	mov	ecx, eax
	call	?WhiteBrush@Cgdi@@QAEXXZ		; Cgdi::WhiteBrush

; 36   :     const int sz = 5;

	mov	DWORD PTR _sz$132263[ebp], 5

; 37   :     gdi->Rect(Pos().x-sz, Pos().y-sz, Pos().x+sz+1, Pos().y+sz+1);

	lea	ecx, DWORD PTR $T140911[ebp]
	push	ecx
	mov	ecx, DWORD PTR _this$[ebp]
	call	?Pos@BaseGameEntity@@QBE?AUVector2D@@XZ	; BaseGameEntity::Pos
	fld	QWORD PTR [eax+8]
	fadd	QWORD PTR __real@4014000000000000
	fadd	QWORD PTR __real@3ff0000000000000
	sub	esp, 8
	fstp	QWORD PTR [esp]
	lea	edx, DWORD PTR $T140912[ebp]
	push	edx
	mov	ecx, DWORD PTR _this$[ebp]
	call	?Pos@BaseGameEntity@@QBE?AUVector2D@@XZ	; BaseGameEntity::Pos
	fld	QWORD PTR [eax]
	fadd	QWORD PTR __real@4014000000000000
	fadd	QWORD PTR __real@3ff0000000000000
	sub	esp, 8
	fstp	QWORD PTR [esp]
	lea	eax, DWORD PTR $T140913[ebp]
	push	eax
	mov	ecx, DWORD PTR _this$[ebp]
	call	?Pos@BaseGameEntity@@QBE?AUVector2D@@XZ	; BaseGameEntity::Pos
	fld	QWORD PTR [eax+8]
	fsub	QWORD PTR __real@4014000000000000
	sub	esp, 8
	fstp	QWORD PTR [esp]
	lea	ecx, DWORD PTR $T140914[ebp]
	push	ecx
	mov	ecx, DWORD PTR _this$[ebp]
	call	?Pos@BaseGameEntity@@QBE?AUVector2D@@XZ	; BaseGameEntity::Pos
	fld	QWORD PTR [eax]
	fsub	QWORD PTR __real@4014000000000000
	sub	esp, 8
	fstp	QWORD PTR [esp]
	call	?Instance@Cgdi@@SAPAV1@XZ		; Cgdi::Instance
	mov	ecx, eax
	call	?Rect@Cgdi@@QAEXNNNN@Z			; Cgdi::Rect

; 38   :     gdi->RedPen();

	call	?Instance@Cgdi@@SAPAV1@XZ		; Cgdi::Instance
	mov	ecx, eax
	call	?RedPen@Cgdi@@QAEXXZ			; Cgdi::RedPen

; 39   :     gdi->Line(Pos().x, Pos().y-sz, Pos().x, Pos().y+sz+1);

	lea	edx, DWORD PTR $T140915[ebp]
	push	edx
	mov	ecx, DWORD PTR _this$[ebp]
	call	?Pos@BaseGameEntity@@QBE?AUVector2D@@XZ	; BaseGameEntity::Pos
	fld	QWORD PTR [eax+8]
	fadd	QWORD PTR __real@4014000000000000
	fadd	QWORD PTR __real@3ff0000000000000
	sub	esp, 8
	fstp	QWORD PTR [esp]
	lea	eax, DWORD PTR $T140916[ebp]
	push	eax
	mov	ecx, DWORD PTR _this$[ebp]
	call	?Pos@BaseGameEntity@@QBE?AUVector2D@@XZ	; BaseGameEntity::Pos
	sub	esp, 8
	fld	QWORD PTR [eax]
	fstp	QWORD PTR [esp]
	lea	ecx, DWORD PTR $T140917[ebp]
	push	ecx
	mov	ecx, DWORD PTR _this$[ebp]
	call	?Pos@BaseGameEntity@@QBE?AUVector2D@@XZ	; BaseGameEntity::Pos
	fld	QWORD PTR [eax+8]
	fsub	QWORD PTR __real@4014000000000000
	sub	esp, 8
	fstp	QWORD PTR [esp]
	lea	edx, DWORD PTR $T140918[ebp]
	push	edx
	mov	ecx, DWORD PTR _this$[ebp]
	call	?Pos@BaseGameEntity@@QBE?AUVector2D@@XZ	; BaseGameEntity::Pos
	sub	esp, 8
	fld	QWORD PTR [eax]
	fstp	QWORD PTR [esp]
	call	?Instance@Cgdi@@SAPAV1@XZ		; Cgdi::Instance
	mov	ecx, eax
	call	?Line@Cgdi@@QAEXNNNN@Z			; Cgdi::Line

; 40   :     gdi->Line(Pos().x-sz, Pos().y, Pos().x+sz+1, Pos().y);

	lea	eax, DWORD PTR $T140919[ebp]
	push	eax
	mov	ecx, DWORD PTR _this$[ebp]
	call	?Pos@BaseGameEntity@@QBE?AUVector2D@@XZ	; BaseGameEntity::Pos
	sub	esp, 8
	fld	QWORD PTR [eax+8]
	fstp	QWORD PTR [esp]
	lea	ecx, DWORD PTR $T140920[ebp]
	push	ecx
	mov	ecx, DWORD PTR _this$[ebp]
	call	?Pos@BaseGameEntity@@QBE?AUVector2D@@XZ	; BaseGameEntity::Pos
	fld	QWORD PTR [eax]
	fadd	QWORD PTR __real@4014000000000000
	fadd	QWORD PTR __real@3ff0000000000000
	sub	esp, 8
	fstp	QWORD PTR [esp]
	lea	edx, DWORD PTR $T140921[ebp]
	push	edx
	mov	ecx, DWORD PTR _this$[ebp]
	call	?Pos@BaseGameEntity@@QBE?AUVector2D@@XZ	; BaseGameEntity::Pos
	sub	esp, 8
	fld	QWORD PTR [eax+8]
	fstp	QWORD PTR [esp]
	lea	eax, DWORD PTR $T140922[ebp]
	push	eax
	mov	ecx, DWORD PTR _this$[ebp]
	call	?Pos@BaseGameEntity@@QBE?AUVector2D@@XZ	; BaseGameEntity::Pos
	fld	QWORD PTR [eax]
	fsub	QWORD PTR __real@4014000000000000
	sub	esp, 8
	fstp	QWORD PTR [esp]
	call	?Instance@Cgdi@@SAPAV1@XZ		; Cgdi::Instance
	mov	ecx, eax
	call	?Line@Cgdi@@QAEXNNNN@Z			; Cgdi::Line
$LN1@Render:

; 41   :   }
; 42   : }

	pop	edi
	add	esp, 200				; 000000c8H
	cmp	ebp, esp
	call	__RTC_CheckEsp
	mov	esp, ebp
	pop	ebp
	ret	0
?Render@Trigger_HealthGiver@@UAEXXZ ENDP		; Trigger_HealthGiver::Render
_TEXT	ENDS
EXTRN	__imp__SelectObject@8:PROC
; Function compile flags: /Odtp /RTCsu
; File c:\users\teaja\documents\artificial-fun\labravenprojecttest\common\misc\cgdi.h
;	COMDAT ?BlackPen@Cgdi@@QAEXXZ
_TEXT	SEGMENT
_this$ = -4						; size = 4
?BlackPen@Cgdi@@QAEXXZ PROC				; Cgdi::BlackPen, COMDAT
; _this$ = ecx

; 136  :   void BlackPen(){if(m_hdc){SelectObject(m_hdc, m_BlackPen);}}

	push	ebp
	mov	ebp, esp
	push	ecx
	push	esi
	mov	DWORD PTR [ebp-4], -858993460		; ccccccccH
	mov	DWORD PTR _this$[ebp], ecx
	mov	eax, DWORD PTR _this$[ebp]
	cmp	DWORD PTR [eax+124], 0
	je	SHORT $LN2@BlackPen
	mov	esi, esp
	mov	ecx, DWORD PTR _this$[ebp]
	mov	edx, DWORD PTR [ecx+4]
	push	edx
	mov	eax, DWORD PTR _this$[ebp]
	mov	ecx, DWORD PTR [eax+124]
	push	ecx
	call	DWORD PTR __imp__SelectObject@8
	cmp	esi, esp
	call	__RTC_CheckEsp
$LN2@BlackPen:
	pop	esi
	add	esp, 4
	cmp	ebp, esp
	call	__RTC_CheckEsp
	mov	esp, ebp
	pop	ebp
	ret	0
?BlackPen@Cgdi@@QAEXXZ ENDP				; Cgdi::BlackPen
; Function compile flags: /Odtp /RTCsu
_TEXT	ENDS
;	COMDAT ?RedPen@Cgdi@@QAEXXZ
_TEXT	SEGMENT
_this$ = -4						; size = 4
?RedPen@Cgdi@@QAEXXZ PROC				; Cgdi::RedPen, COMDAT
; _this$ = ecx

; 138  :   void RedPen()  {if(m_hdc){SelectObject(m_hdc, m_RedPen);}}

	push	ebp
	mov	ebp, esp
	push	ecx
	push	esi
	mov	DWORD PTR [ebp-4], -858993460		; ccccccccH
	mov	DWORD PTR _this$[ebp], ecx
	mov	eax, DWORD PTR _this$[ebp]
	cmp	DWORD PTR [eax+124], 0
	je	SHORT $LN2@RedPen
	mov	esi, esp
	mov	ecx, DWORD PTR _this$[ebp]
	mov	edx, DWORD PTR [ecx+12]
	push	edx
	mov	eax, DWORD PTR _this$[ebp]
	mov	ecx, DWORD PTR [eax+124]
	push	ecx
	call	DWORD PTR __imp__SelectObject@8
	cmp	esi, esp
	call	__RTC_CheckEsp
$LN2@RedPen:
	pop	esi
	add	esp, 4
	cmp	ebp, esp
	call	__RTC_CheckEsp
	mov	esp, ebp
	pop	ebp
	ret	0
?RedPen@Cgdi@@QAEXXZ ENDP				; Cgdi::RedPen
_TEXT	ENDS
EXTRN	__imp__GetStockObject@4:PROC
; Function compile flags: /Odtp /RTCsu
;	COMDAT ?WhiteBrush@Cgdi@@QAEXXZ
_TEXT	SEGMENT
_this$ = -4						; size = 4
?WhiteBrush@Cgdi@@QAEXXZ PROC				; Cgdi::WhiteBrush, COMDAT
; _this$ = ecx

; 160  :   void WhiteBrush(){if(m_hdc)SelectObject(m_hdc, GetStockObject(WHITE_BRUSH));} 

	push	ebp
	mov	ebp, esp
	push	ecx
	push	esi
	mov	DWORD PTR [ebp-4], -858993460		; ccccccccH
	mov	DWORD PTR _this$[ebp], ecx
	mov	eax, DWORD PTR _this$[ebp]
	cmp	DWORD PTR [eax+124], 0
	je	SHORT $LN2@WhiteBrush
	mov	esi, esp
	push	0
	call	DWORD PTR __imp__GetStockObject@4
	cmp	esi, esp
	call	__RTC_CheckEsp
	mov	esi, esp
	push	eax
	mov	ecx, DWORD PTR _this$[ebp]
	mov	edx, DWORD PTR [ecx+124]
	push	edx
	call	DWORD PTR __imp__SelectObject@8
	cmp	esi, esp
	call	__RTC_CheckEsp
$LN2@WhiteBrush:
	pop	esi
	add	esp, 4
	cmp	ebp, esp
	call	__RTC_CheckEsp
	mov	esp, ebp
	pop	ebp
	ret	0
?WhiteBrush@Cgdi@@QAEXXZ ENDP				; Cgdi::WhiteBrush
_TEXT	ENDS
EXTRN	__imp__LineTo@12:PROC
EXTRN	__imp__MoveToEx@16:PROC
EXTRN	__ftol2_sse:PROC
; Function compile flags: /Odtp /RTCsu
;	COMDAT ?Line@Cgdi@@QAEXNNNN@Z
_TEXT	SEGMENT
_this$ = -4						; size = 4
_a$ = 8							; size = 8
_b$ = 16						; size = 8
_x$ = 24						; size = 8
_y$ = 32						; size = 8
?Line@Cgdi@@QAEXNNNN@Z PROC				; Cgdi::Line, COMDAT
; _this$ = ecx

; 256  :   {

	push	ebp
	mov	ebp, esp
	push	ecx
	push	esi
	mov	DWORD PTR [ebp-4], -858993460		; ccccccccH
	mov	DWORD PTR _this$[ebp], ecx

; 257  :     MoveToEx(m_hdc, (int)a, (int)b, NULL);

	mov	esi, esp
	push	0
	fld	QWORD PTR _b$[ebp]
	call	__ftol2_sse
	push	eax
	fld	QWORD PTR _a$[ebp]
	call	__ftol2_sse
	push	eax
	mov	eax, DWORD PTR _this$[ebp]
	mov	ecx, DWORD PTR [eax+124]
	push	ecx
	call	DWORD PTR __imp__MoveToEx@16
	cmp	esi, esp
	call	__RTC_CheckEsp

; 258  :     LineTo(m_hdc, (int)x, (int)y);

	fld	QWORD PTR _y$[ebp]
	call	__ftol2_sse
	mov	esi, esp
	push	eax
	fld	QWORD PTR _x$[ebp]
	call	__ftol2_sse
	push	eax
	mov	edx, DWORD PTR _this$[ebp]
	mov	eax, DWORD PTR [edx+124]
	push	eax
	call	DWORD PTR __imp__LineTo@12
	cmp	esi, esp
	call	__RTC_CheckEsp

; 259  :   }

	pop	esi
	add	esp, 4
	cmp	ebp, esp
	call	__RTC_CheckEsp
	mov	esp, ebp
	pop	ebp
	ret	32					; 00000020H
?Line@Cgdi@@QAEXNNNN@Z ENDP				; Cgdi::Line
_TEXT	ENDS
EXTRN	__imp__Rectangle@20:PROC
; Function compile flags: /Odtp /RTCsu
;	COMDAT ?Rect@Cgdi@@QAEXNNNN@Z
_TEXT	SEGMENT
_this$ = -4						; size = 4
_left$ = 8						; size = 8
_top$ = 16						; size = 8
_right$ = 24						; size = 8
_bot$ = 32						; size = 8
?Rect@Cgdi@@QAEXNNNN@Z PROC				; Cgdi::Rect, COMDAT
; _this$ = ecx

; 318  :   {

	push	ebp
	mov	ebp, esp
	push	ecx
	push	esi
	mov	DWORD PTR [ebp-4], -858993460		; ccccccccH
	mov	DWORD PTR _this$[ebp], ecx

; 319  :     Rectangle(m_hdc, (int)left, (int)top, (int)right, (int)bot);

	fld	QWORD PTR _bot$[ebp]
	call	__ftol2_sse
	mov	esi, esp
	push	eax
	fld	QWORD PTR _right$[ebp]
	call	__ftol2_sse
	push	eax
	fld	QWORD PTR _top$[ebp]
	call	__ftol2_sse
	push	eax
	fld	QWORD PTR _left$[ebp]
	call	__ftol2_sse
	push	eax
	mov	eax, DWORD PTR _this$[ebp]
	mov	ecx, DWORD PTR [eax+124]
	push	ecx
	call	DWORD PTR __imp__Rectangle@20
	cmp	esi, esp
	call	__RTC_CheckEsp

; 320  :   }

	pop	esi
	add	esp, 4
	cmp	ebp, esp
	call	__RTC_CheckEsp
	mov	esp, ebp
	pop	ebp
	ret	32					; 00000020H
?Rect@Cgdi@@QAEXNNNN@Z ENDP				; Cgdi::Rect
_TEXT	ENDS
PUBLIC	?SetEntityType@BaseGameEntity@@QAEXH@Z		; BaseGameEntity::SetEntityType
PUBLIC	?SetRespawnDelay@?$Trigger_Respawning@VAbstRaven_Bot@@@@QAEXI@Z ; Trigger_Respawning<AbstRaven_Bot>::SetRespawnDelay
PUBLIC	__real@404e000000000000
PUBLIC	?AddCircularTriggerRegion@?$Trigger@VAbstRaven_Bot@@@@IAEXUVector2D@@N@Z ; Trigger<AbstRaven_Bot>::AddCircularTriggerRegion
PUBLIC	?GetDouble@Scriptor@@QAENPAD@Z			; Scriptor::GetDouble
PUBLIC	?SetGraphNodeIndex@?$Trigger@VAbstRaven_Bot@@@@IAEXH@Z ; Trigger<AbstRaven_Bot>::SetGraphNodeIndex
PUBLIC	?SetBRadius@BaseGameEntity@@QAEXN@Z		; BaseGameEntity::SetBRadius
PUBLIC	?SetPos@BaseGameEntity@@QAEXUVector2D@@@Z	; BaseGameEntity::SetPos
PUBLIC	??0Vector2D@@QAE@NN@Z				; Vector2D::Vector2D
PUBLIC	??5?$basic_istream@DU?$char_traits@D@std@@@std@@QAEAAV01@AAH@Z ; std::basic_istream<char,std::char_traits<char> >::operator>>
PUBLIC	??5?$basic_istream@DU?$char_traits@D@std@@@std@@QAEAAV01@AAN@Z ; std::basic_istream<char,std::char_traits<char> >::operator>>
EXTRN	?Instance@Raven_Scriptor@@SAPAV1@XZ:PROC	; Raven_Scriptor::Instance
EXTRN	@_RTC_CheckStackVars@8:PROC
;	COMDAT __real@404e000000000000
; File c:\users\teaja\documents\artificial-fun\labravenprojecttest\raven\triggers\trigger_healthgiver.cpp
CONST	SEGMENT
__real@404e000000000000 DQ 0404e000000000000r	; 60
; Function compile flags: /Odtp /RTCsu
CONST	ENDS
_TEXT	SEGMENT
tv242 = -112						; size = 8
tv240 = -104						; size = 4
tv237 = -98						; size = 2
$T140940 = -96						; size = 16
$T140939 = -80						; size = 16
_GraphNodeIndex$ = -60					; size = 4
_r$ = -48						; size = 8
_y$ = -32						; size = 8
_x$ = -16						; size = 8
_this$ = -4						; size = 4
_in$ = 8						; size = 4
?Read@Trigger_HealthGiver@@UAEXAAV?$basic_ifstream@DU?$char_traits@D@std@@@std@@@Z PROC ; Trigger_HealthGiver::Read
; _this$ = ecx

; 46   : {

	push	ebp
	mov	ebp, esp
	sub	esp, 112				; 00000070H
	push	edi
	push	ecx
	lea	edi, DWORD PTR [ebp-112]
	mov	ecx, 28					; 0000001cH
	mov	eax, -858993460				; ccccccccH
	rep stosd
	pop	ecx
	mov	DWORD PTR _this$[ebp], ecx

; 47   :   double x, y, r;
; 48   :   int GraphNodeIndex;
; 49   :   
; 50   :   in >> x >> y  >> r >> m_iHealthGiven >> GraphNodeIndex;

	lea	eax, DWORD PTR _GraphNodeIndex$[ebp]
	push	eax
	mov	ecx, DWORD PTR _this$[ebp]
	add	ecx, 88					; 00000058H
	push	ecx
	lea	edx, DWORD PTR _r$[ebp]
	push	edx
	lea	eax, DWORD PTR _y$[ebp]
	push	eax
	lea	ecx, DWORD PTR _x$[ebp]
	push	ecx
	mov	ecx, DWORD PTR _in$[ebp]
	call	??5?$basic_istream@DU?$char_traits@D@std@@@std@@QAEAAV01@AAN@Z ; std::basic_istream<char,std::char_traits<char> >::operator>>
	mov	ecx, eax
	call	??5?$basic_istream@DU?$char_traits@D@std@@@std@@QAEAAV01@AAN@Z ; std::basic_istream<char,std::char_traits<char> >::operator>>
	mov	ecx, eax
	call	??5?$basic_istream@DU?$char_traits@D@std@@@std@@QAEAAV01@AAN@Z ; std::basic_istream<char,std::char_traits<char> >::operator>>
	mov	ecx, eax
	call	??5?$basic_istream@DU?$char_traits@D@std@@@std@@QAEAAV01@AAH@Z ; std::basic_istream<char,std::char_traits<char> >::operator>>
	mov	ecx, eax
	call	??5?$basic_istream@DU?$char_traits@D@std@@@std@@QAEAAV01@AAH@Z ; std::basic_istream<char,std::char_traits<char> >::operator>>

; 51   : 
; 52   :   SetPos(Vector2D(x,y)); 

	sub	esp, 8
	fld	QWORD PTR _y$[ebp]
	fstp	QWORD PTR [esp]
	sub	esp, 8
	fld	QWORD PTR _x$[ebp]
	fstp	QWORD PTR [esp]
	lea	ecx, DWORD PTR $T140939[ebp]
	call	??0Vector2D@@QAE@NN@Z			; Vector2D::Vector2D
	sub	esp, 16					; 00000010H
	mov	edx, esp
	mov	ecx, DWORD PTR [eax]
	mov	DWORD PTR [edx], ecx
	mov	ecx, DWORD PTR [eax+4]
	mov	DWORD PTR [edx+4], ecx
	mov	ecx, DWORD PTR [eax+8]
	mov	DWORD PTR [edx+8], ecx
	mov	eax, DWORD PTR [eax+12]
	mov	DWORD PTR [edx+12], eax
	mov	ecx, DWORD PTR _this$[ebp]
	call	?SetPos@BaseGameEntity@@QAEXUVector2D@@@Z ; BaseGameEntity::SetPos

; 53   :   SetBRadius(r);

	sub	esp, 8
	fld	QWORD PTR _r$[ebp]
	fstp	QWORD PTR [esp]
	mov	ecx, DWORD PTR _this$[ebp]
	call	?SetBRadius@BaseGameEntity@@QAEXN@Z	; BaseGameEntity::SetBRadius

; 54   :   SetGraphNodeIndex(GraphNodeIndex);

	mov	ecx, DWORD PTR _GraphNodeIndex$[ebp]
	push	ecx
	mov	ecx, DWORD PTR _this$[ebp]
	call	?SetGraphNodeIndex@?$Trigger@VAbstRaven_Bot@@@@IAEXH@Z ; Trigger<AbstRaven_Bot>::SetGraphNodeIndex

; 55   : 
; 56   :   //create this trigger's region of fluence
; 57   :   AddCircularTriggerRegion(Pos(), script->GetDouble("DefaultGiverTriggerRange"));

	push	OFFSET $SG132380
	call	?Instance@Raven_Scriptor@@SAPAV1@XZ	; Raven_Scriptor::Instance
	mov	ecx, eax
	call	?GetDouble@Scriptor@@QAENPAD@Z		; Scriptor::GetDouble
	sub	esp, 8
	fstp	QWORD PTR [esp]
	lea	edx, DWORD PTR $T140940[ebp]
	push	edx
	mov	ecx, DWORD PTR _this$[ebp]
	call	?Pos@BaseGameEntity@@QBE?AUVector2D@@XZ	; BaseGameEntity::Pos
	sub	esp, 16					; 00000010H
	mov	ecx, esp
	mov	edx, DWORD PTR [eax]
	mov	DWORD PTR [ecx], edx
	mov	edx, DWORD PTR [eax+4]
	mov	DWORD PTR [ecx+4], edx
	mov	edx, DWORD PTR [eax+8]
	mov	DWORD PTR [ecx+8], edx
	mov	eax, DWORD PTR [eax+12]
	mov	DWORD PTR [ecx+12], eax
	mov	ecx, DWORD PTR _this$[ebp]
	call	?AddCircularTriggerRegion@?$Trigger@VAbstRaven_Bot@@@@IAEXUVector2D@@N@Z ; Trigger<AbstRaven_Bot>::AddCircularTriggerRegion

; 58   : 
; 59   :   SetRespawnDelay((unsigned int)(script->GetDouble("Health_RespawnDelay") * FrameRate));

	push	OFFSET $SG132382
	call	?Instance@Raven_Scriptor@@SAPAV1@XZ	; Raven_Scriptor::Instance
	mov	ecx, eax
	call	?GetDouble@Scriptor@@QAENPAD@Z		; Scriptor::GetDouble
	fmul	QWORD PTR __real@404e000000000000
	fnstcw	WORD PTR tv237[ebp]
	movzx	eax, WORD PTR tv237[ebp]
	or	eax, 3072				; 00000c00H
	mov	DWORD PTR tv240[ebp], eax
	fldcw	WORD PTR tv240[ebp]
	fistp	QWORD PTR tv242[ebp]
	fldcw	WORD PTR tv237[ebp]
	mov	ecx, DWORD PTR tv242[ebp]
	push	ecx
	mov	ecx, DWORD PTR _this$[ebp]
	call	?SetRespawnDelay@?$Trigger_Respawning@VAbstRaven_Bot@@@@QAEXI@Z ; Trigger_Respawning<AbstRaven_Bot>::SetRespawnDelay

; 60   :   SetEntityType(type_health);

	push	4
	mov	ecx, DWORD PTR _this$[ebp]
	call	?SetEntityType@BaseGameEntity@@QAEXH@Z	; BaseGameEntity::SetEntityType

; 61   : }

	push	edx
	mov	ecx, ebp
	push	eax
	lea	edx, DWORD PTR $LN8@Read
	call	@_RTC_CheckStackVars@8
	pop	eax
	pop	edx
	pop	edi
	add	esp, 112				; 00000070H
	cmp	ebp, esp
	call	__RTC_CheckEsp
	mov	esp, ebp
	pop	ebp
	ret	4
	npad	3
$LN8@Read:
	DD	4
	DD	$LN7@Read
$LN7@Read:
	DD	-16					; fffffff0H
	DD	8
	DD	$LN3@Read
	DD	-32					; ffffffe0H
	DD	8
	DD	$LN4@Read
	DD	-48					; ffffffd0H
	DD	8
	DD	$LN5@Read
	DD	-60					; ffffffc4H
	DD	4
	DD	$LN6@Read
$LN6@Read:
	DB	71					; 00000047H
	DB	114					; 00000072H
	DB	97					; 00000061H
	DB	112					; 00000070H
	DB	104					; 00000068H
	DB	78					; 0000004eH
	DB	111					; 0000006fH
	DB	100					; 00000064H
	DB	101					; 00000065H
	DB	73					; 00000049H
	DB	110					; 0000006eH
	DB	100					; 00000064H
	DB	101					; 00000065H
	DB	120					; 00000078H
	DB	0
$LN5@Read:
	DB	114					; 00000072H
	DB	0
$LN4@Read:
	DB	121					; 00000079H
	DB	0
$LN3@Read:
	DB	120					; 00000078H
	DB	0
?Read@Trigger_HealthGiver@@UAEXAAV?$basic_ifstream@DU?$char_traits@D@std@@@std@@@Z ENDP ; Trigger_HealthGiver::Read
; Function compile flags: /Odtp /RTCsu
; File c:\users\teaja\documents\artificial-fun\labravenprojecttest\common\2d\vector2d.h
_TEXT	ENDS
;	COMDAT ??0Vector2D@@QAE@NN@Z
_TEXT	SEGMENT
_this$ = -4						; size = 4
_a$ = 8							; size = 8
_b$ = 16						; size = 8
??0Vector2D@@QAE@NN@Z PROC				; Vector2D::Vector2D, COMDAT
; _this$ = ecx

; 25   :   Vector2D(double a, double b):x(a),y(b){}

	push	ebp
	mov	ebp, esp
	push	ecx
	mov	DWORD PTR [ebp-4], -858993460		; ccccccccH
	mov	DWORD PTR _this$[ebp], ecx
	mov	eax, DWORD PTR _this$[ebp]
	fld	QWORD PTR _a$[ebp]
	fstp	QWORD PTR [eax]
	mov	ecx, DWORD PTR _this$[ebp]
	fld	QWORD PTR _b$[ebp]
	fstp	QWORD PTR [ecx+8]
	mov	eax, DWORD PTR _this$[ebp]
	mov	esp, ebp
	pop	ebp
	ret	16					; 00000010H
??0Vector2D@@QAE@NN@Z ENDP				; Vector2D::Vector2D
; Function compile flags: /Odtp /RTCsu
; File c:\users\teaja\documents\artificial-fun\labravenprojecttest\common\game\basegameentity.h
_TEXT	ENDS
;	COMDAT ?SetPos@BaseGameEntity@@QAEXUVector2D@@@Z
_TEXT	SEGMENT
_this$ = -4						; size = 4
_new_pos$ = 8						; size = 16
?SetPos@BaseGameEntity@@QAEXUVector2D@@@Z PROC		; BaseGameEntity::SetPos, COMDAT
; _this$ = ecx

; 90   :   void         SetPos(Vector2D new_pos){m_vPosition = new_pos;}

	push	ebp
	mov	ebp, esp
	push	ecx
	mov	DWORD PTR [ebp-4], -858993460		; ccccccccH
	mov	DWORD PTR _this$[ebp], ecx
	mov	eax, DWORD PTR _this$[ebp]
	add	eax, 24					; 00000018H
	mov	ecx, DWORD PTR _new_pos$[ebp]
	mov	DWORD PTR [eax], ecx
	mov	edx, DWORD PTR _new_pos$[ebp+4]
	mov	DWORD PTR [eax+4], edx
	mov	ecx, DWORD PTR _new_pos$[ebp+8]
	mov	DWORD PTR [eax+8], ecx
	mov	edx, DWORD PTR _new_pos$[ebp+12]
	mov	DWORD PTR [eax+12], edx
	mov	esp, ebp
	pop	ebp
	ret	16					; 00000010H
?SetPos@BaseGameEntity@@QAEXUVector2D@@@Z ENDP		; BaseGameEntity::SetPos
; Function compile flags: /Odtp /RTCsu
_TEXT	ENDS
;	COMDAT ?SetBRadius@BaseGameEntity@@QAEXN@Z
_TEXT	SEGMENT
_this$ = -4						; size = 4
_r$ = 8							; size = 8
?SetBRadius@BaseGameEntity@@QAEXN@Z PROC		; BaseGameEntity::SetBRadius, COMDAT
; _this$ = ecx

; 93   :   void         SetBRadius(double r){m_dBoundingRadius = r;}

	push	ebp
	mov	ebp, esp
	push	ecx
	mov	DWORD PTR [ebp-4], -858993460		; ccccccccH
	mov	DWORD PTR _this$[ebp], ecx
	mov	eax, DWORD PTR _this$[ebp]
	fld	QWORD PTR _r$[ebp]
	fstp	QWORD PTR [eax+56]
	mov	esp, ebp
	pop	ebp
	ret	8
?SetBRadius@BaseGameEntity@@QAEXN@Z ENDP		; BaseGameEntity::SetBRadius
; Function compile flags: /Odtp /RTCsu
_TEXT	ENDS
;	COMDAT ?SetEntityType@BaseGameEntity@@QAEXH@Z
_TEXT	SEGMENT
_this$ = -4						; size = 4
_new_type$ = 8						; size = 4
?SetEntityType@BaseGameEntity@@QAEXH@Z PROC		; BaseGameEntity::SetEntityType, COMDAT
; _this$ = ecx

; 105  :   void         SetEntityType(int new_type){m_iType = new_type;}

	push	ebp
	mov	ebp, esp
	push	ecx
	mov	DWORD PTR [ebp-4], -858993460		; ccccccccH
	mov	DWORD PTR _this$[ebp], ecx
	mov	eax, DWORD PTR _this$[ebp]
	mov	ecx, DWORD PTR _new_type$[ebp]
	mov	DWORD PTR [eax+12], ecx
	mov	esp, ebp
	pop	ebp
	ret	4
?SetEntityType@BaseGameEntity@@QAEXH@Z ENDP		; BaseGameEntity::SetEntityType
_TEXT	ENDS
PUBLIC	??$PopLuaNumber@N@@YANPAUlua_State@@PBD@Z	; PopLuaNumber<double>
; Function compile flags: /Odtp /RTCsu
; File c:\users\teaja\documents\artificial-fun\labravenprojecttest\common\script\scriptor.h
;	COMDAT ?GetDouble@Scriptor@@QAENPAD@Z
_TEXT	SEGMENT
_this$ = -4						; size = 4
_VariableName$ = 8					; size = 4
?GetDouble@Scriptor@@QAENPAD@Z PROC			; Scriptor::GetDouble, COMDAT
; _this$ = ecx

; 61   :   {

	push	ebp
	mov	ebp, esp
	push	ecx
	mov	DWORD PTR [ebp-4], -858993460		; ccccccccH
	mov	DWORD PTR _this$[ebp], ecx

; 62   :     return PopLuaNumber<double>(m_pLuaState, VariableName);

	mov	eax, DWORD PTR _VariableName$[ebp]
	push	eax
	mov	ecx, DWORD PTR _this$[ebp]
	mov	edx, DWORD PTR [ecx]
	push	edx
	call	??$PopLuaNumber@N@@YANPAUlua_State@@PBD@Z ; PopLuaNumber<double>
	add	esp, 8

; 63   :   }

	add	esp, 4
	cmp	ebp, esp
	call	__RTC_CheckEsp
	mov	esp, ebp
	pop	ebp
	ret	4
?GetDouble@Scriptor@@QAENPAD@Z ENDP			; Scriptor::GetDouble
_TEXT	ENDS
PUBLIC	??1sentry@?$basic_istream@DU?$char_traits@D@std@@@std@@QAE@XZ ; std::basic_istream<char,std::char_traits<char> >::sentry::~sentry
PUBLIC	?setstate@?$basic_ios@DU?$char_traits@D@std@@@std@@QAEXH_N@Z ; std::basic_ios<char,std::char_traits<char> >::setstate
PUBLIC	?get@?$num_get@DV?$istreambuf_iterator@DU?$char_traits@D@std@@@std@@@std@@QBE?AV?$istreambuf_iterator@DU?$char_traits@D@std@@@2@V32@0AAVios_base@2@AAHAAJ@Z ; std::num_get<char,std::istreambuf_iterator<char,std::char_traits<char> > >::get
PUBLIC	??0?$istreambuf_iterator@DU?$char_traits@D@std@@@std@@QAE@PAV?$basic_streambuf@DU?$char_traits@D@std@@@1@@Z ; std::istreambuf_iterator<char,std::char_traits<char> >::istreambuf_iterator<char,std::char_traits<char> >
PUBLIC	?rdbuf@?$basic_ios@DU?$char_traits@D@std@@@std@@QBEPAV?$basic_streambuf@DU?$char_traits@D@std@@@2@XZ ; std::basic_ios<char,std::char_traits<char> >::rdbuf
PUBLIC	??1locale@std@@QAE@XZ				; std::locale::~locale
PUBLIC	??$use_facet@V?$num_get@DV?$istreambuf_iterator@DU?$char_traits@D@std@@@std@@@std@@@std@@YAABV?$num_get@DV?$istreambuf_iterator@DU?$char_traits@D@std@@@std@@@0@ABVlocale@0@@Z ; std::use_facet<std::num_get<char,std::istreambuf_iterator<char,std::char_traits<char> > > >
PUBLIC	?getloc@ios_base@std@@QBE?AVlocale@2@XZ		; std::ios_base::getloc
PUBLIC	??Bsentry@?$basic_istream@DU?$char_traits@D@std@@@std@@QBEPQ_Bool_struct@2@HXZ ; std::basic_istream<char,std::char_traits<char> >::sentry::operator int std::_Bool_struct::*
PUBLIC	??0sentry@?$basic_istream@DU?$char_traits@D@std@@@std@@QAE@AAV12@_N@Z ; std::basic_istream<char,std::char_traits<char> >::sentry::sentry
;	COMDAT xdata$x
; File c:\program files (x86)\microsoft visual studio 10.0\vc\include\istream
xdata$x	SEGMENT
__catchsym$??5?$basic_istream@DU?$char_traits@D@std@@@std@@QAEAAV01@AAH@Z$4 DD 040H
	DD	00H
	DD	00H
	DD	FLAT:__catch$??5?$basic_istream@DU?$char_traits@D@std@@@std@@QAEAAV01@AAH@Z$0
__tryblocktable$??5?$basic_istream@DU?$char_traits@D@std@@@std@@QAEAAV01@AAH@Z DD 02H
	DD	02H
	DD	03H
	DD	01H
	DD	FLAT:__catchsym$??5?$basic_istream@DU?$char_traits@D@std@@@std@@QAEAAV01@AAH@Z$4
__unwindtable$??5?$basic_istream@DU?$char_traits@D@std@@@std@@QAEAAV01@AAH@Z DD 0ffffffffH
	DD	FLAT:__unwindfunclet$??5?$basic_istream@DU?$char_traits@D@std@@@std@@QAEAAV01@AAH@Z$2
	DD	00H
	DD	FLAT:__unwindfunclet$??5?$basic_istream@DU?$char_traits@D@std@@@std@@QAEAAV01@AAH@Z$3
	DD	00H
	DD	00H
	DD	00H
	DD	00H
__ehfuncinfo$??5?$basic_istream@DU?$char_traits@D@std@@@std@@QAEAAV01@AAH@Z DD 019930522H
	DD	04H
	DD	FLAT:__unwindtable$??5?$basic_istream@DU?$char_traits@D@std@@@std@@QAEAAV01@AAH@Z
	DD	01H
	DD	FLAT:__tryblocktable$??5?$basic_istream@DU?$char_traits@D@std@@@std@@QAEAAV01@AAH@Z
	DD	2 DUP(00H)
	DD	00H
	DD	01H
; Function compile flags: /Odtp /RTCsu
xdata$x	ENDS
;	COMDAT ??5?$basic_istream@DU?$char_traits@D@std@@@std@@QAEAAV01@AAH@Z
_TEXT	SEGMENT
tv189 = -112						; size = 4
tv134 = -108						; size = 4
tv186 = -104						; size = 4
tv65 = -100						; size = 4
$T140967 = -96						; size = 4
$T140966 = -92						; size = 8
$T140965 = -84						; size = 8
$T140964 = -76						; size = 8
$T140961 = -68						; size = 4
__Nget_fac$132846 = -64					; size = 4
__Tmp$132845 = -56					; size = 4
__Ok$ = -44						; size = 8
__State$ = -28						; size = 4
_this$ = -20						; size = 4
__$EHRec$ = -16						; size = 16
__Val$ = 8						; size = 4
??5?$basic_istream@DU?$char_traits@D@std@@@std@@QAEAAV01@AAH@Z PROC ; std::basic_istream<char,std::char_traits<char> >::operator>>, COMDAT
; _this$ = ecx

; 273  : 		{	// extract an int

	push	ebp
	mov	ebp, esp
	push	-1
	push	__ehhandler$??5?$basic_istream@DU?$char_traits@D@std@@@std@@QAEAAV01@AAH@Z
	mov	eax, DWORD PTR fs:0
	push	eax
	push	ecx
	sub	esp, 96					; 00000060H
	push	ebx
	push	esi
	push	edi
	push	ecx
	lea	edi, DWORD PTR [ebp-112]
	mov	ecx, 24					; 00000018H
	mov	eax, -858993460				; ccccccccH
	rep stosd
	pop	ecx
	mov	eax, DWORD PTR ___security_cookie
	xor	eax, ebp
	push	eax
	lea	eax, DWORD PTR __$EHRec$[ebp+4]
	mov	DWORD PTR fs:0, eax
	mov	DWORD PTR __$EHRec$[ebp], esp
	mov	DWORD PTR _this$[ebp], ecx

; 274  : 		ios_base::iostate _State = ios_base::goodbit;

	mov	DWORD PTR __State$[ebp], 0

; 275  : 		const sentry _Ok(*this);

	push	0
	mov	eax, DWORD PTR _this$[ebp]
	push	eax
	lea	ecx, DWORD PTR __Ok$[ebp]
	call	??0sentry@?$basic_istream@DU?$char_traits@D@std@@@std@@QAE@AAV12@_N@Z ; std::basic_istream<char,std::char_traits<char> >::sentry::sentry
	mov	DWORD PTR __$EHRec$[ebp+12], 0

; 276  : 
; 277  : 		if (_Ok)

	lea	ecx, DWORD PTR __Ok$[ebp]
	call	??Bsentry@?$basic_istream@DU?$char_traits@D@std@@@std@@QBEPQ_Bool_struct@2@HXZ ; std::basic_istream<char,std::char_traits<char> >::sentry::operator int std::_Bool_struct::*
	cmp	eax, -1
	je	$LN5@operator

; 278  : 			{	// state okay, use facet to extract
; 279  : 			long _Tmp = 0;

	mov	DWORD PTR __Tmp$132845[ebp], 0

; 280  : 			const _Nget& _Nget_fac = _USE(ios_base::getloc(), _Nget);

	lea	ecx, DWORD PTR $T140961[ebp]
	push	ecx
	mov	edx, DWORD PTR _this$[ebp]
	mov	eax, DWORD PTR [edx]
	mov	ecx, DWORD PTR _this$[ebp]
	add	ecx, DWORD PTR [eax+4]
	call	?getloc@ios_base@std@@QBE?AVlocale@2@XZ	; std::ios_base::getloc
	mov	DWORD PTR tv65[ebp], eax
	mov	ecx, DWORD PTR tv65[ebp]
	mov	DWORD PTR tv186[ebp], ecx
	mov	BYTE PTR __$EHRec$[ebp+12], 1
	mov	edx, DWORD PTR tv186[ebp]
	push	edx
	call	??$use_facet@V?$num_get@DV?$istreambuf_iterator@DU?$char_traits@D@std@@@std@@@std@@@std@@YAABV?$num_get@DV?$istreambuf_iterator@DU?$char_traits@D@std@@@std@@@0@ABVlocale@0@@Z ; std::use_facet<std::num_get<char,std::istreambuf_iterator<char,std::char_traits<char> > > >
	add	esp, 4
	mov	DWORD PTR __Nget_fac$132846[ebp], eax
	mov	BYTE PTR __$EHRec$[ebp+12], 0
	lea	ecx, DWORD PTR $T140961[ebp]
	call	??1locale@std@@QAE@XZ			; std::locale::~locale

; 281  : 
; 282  : 			_TRY_IO_BEGIN

	mov	BYTE PTR __$EHRec$[ebp+12], 2

; 283  : 			_Nget_fac.get(_Iter(_Myios::rdbuf()), _Iter(0),
; 284  : 				*this, _State, _Tmp);

	cmp	DWORD PTR _this$[ebp], 0
	jne	SHORT $LN8@operator
	mov	DWORD PTR tv134[ebp], 0
	jmp	SHORT $LN9@operator
$LN8@operator:
	mov	eax, DWORD PTR _this$[ebp]
	mov	ecx, DWORD PTR [eax]
	mov	edx, DWORD PTR _this$[ebp]
	add	edx, DWORD PTR [ecx+4]
	mov	DWORD PTR tv134[ebp], edx
$LN9@operator:
	mov	eax, DWORD PTR _this$[ebp]
	mov	ecx, DWORD PTR [eax]
	mov	edx, DWORD PTR _this$[ebp]
	add	edx, DWORD PTR [ecx+4]
	mov	ecx, edx
	call	?rdbuf@?$basic_ios@DU?$char_traits@D@std@@@std@@QBEPAV?$basic_streambuf@DU?$char_traits@D@std@@@2@XZ ; std::basic_ios<char,std::char_traits<char> >::rdbuf
	mov	DWORD PTR tv189[ebp], eax
	lea	eax, DWORD PTR __Tmp$132845[ebp]
	push	eax
	lea	ecx, DWORD PTR __State$[ebp]
	push	ecx
	mov	edx, DWORD PTR tv134[ebp]
	push	edx
	push	0
	lea	ecx, DWORD PTR $T140964[ebp]
	call	??0?$istreambuf_iterator@DU?$char_traits@D@std@@@std@@QAE@PAV?$basic_streambuf@DU?$char_traits@D@std@@@1@@Z ; std::istreambuf_iterator<char,std::char_traits<char> >::istreambuf_iterator<char,std::char_traits<char> >
	mov	ecx, DWORD PTR [eax+4]
	push	ecx
	mov	edx, DWORD PTR [eax]
	push	edx
	mov	eax, DWORD PTR tv189[ebp]
	push	eax
	lea	ecx, DWORD PTR $T140965[ebp]
	call	??0?$istreambuf_iterator@DU?$char_traits@D@std@@@std@@QAE@PAV?$basic_streambuf@DU?$char_traits@D@std@@@1@@Z ; std::istreambuf_iterator<char,std::char_traits<char> >::istreambuf_iterator<char,std::char_traits<char> >
	mov	ecx, DWORD PTR [eax+4]
	push	ecx
	mov	edx, DWORD PTR [eax]
	push	edx
	lea	eax, DWORD PTR $T140966[ebp]
	push	eax
	mov	ecx, DWORD PTR __Nget_fac$132846[ebp]
	call	?get@?$num_get@DV?$istreambuf_iterator@DU?$char_traits@D@std@@@std@@@std@@QBE?AV?$istreambuf_iterator@DU?$char_traits@D@std@@@2@V32@0AAVios_base@2@AAHAAJ@Z ; std::num_get<char,std::istreambuf_iterator<char,std::char_traits<char> > >::get
	jmp	SHORT $LN10@operator
__catch$??5?$basic_istream@DU?$char_traits@D@std@@@std@@QAEAAV01@AAH@Z$0:

; 285  : 			_CATCH_IO_END

	push	1
	push	4
	mov	ecx, DWORD PTR _this$[ebp]
	mov	edx, DWORD PTR [ecx]
	mov	ecx, DWORD PTR _this$[ebp]
	add	ecx, DWORD PTR [edx+4]
	call	?setstate@?$basic_ios@DU?$char_traits@D@std@@@std@@QAEXH_N@Z ; std::basic_ios<char,std::char_traits<char> >::setstate
	mov	DWORD PTR __$EHRec$[ebp+12], 0
	mov	eax, __tryend$??5?$basic_istream@DU?$char_traits@D@std@@@std@@QAEAAV01@AAH@Z$1
	ret	0
$LN10@operator:
	mov	DWORD PTR __$EHRec$[ebp+12], 0
__tryend$??5?$basic_istream@DU?$char_traits@D@std@@@std@@QAEAAV01@AAH@Z$1:

; 286  : 
; 287  : 			if (_State & ios_base::failbit
; 288  : 				|| _Tmp < INT_MIN || INT_MAX < _Tmp)

	mov	eax, DWORD PTR __State$[ebp]
	and	eax, 2
	jne	SHORT $LN2@operator
	cmp	DWORD PTR __Tmp$132845[ebp], -2147483648 ; 80000000H
	jl	SHORT $LN2@operator
	cmp	DWORD PTR __Tmp$132845[ebp], 2147483647	; 7fffffffH
	jle	SHORT $LN3@operator
$LN2@operator:

; 289  : 				_State |= ios_base::failbit;

	mov	ecx, DWORD PTR __State$[ebp]
	or	ecx, 2
	mov	DWORD PTR __State$[ebp], ecx

; 290  : 			else

	jmp	SHORT $LN5@operator
$LN3@operator:

; 291  : 				_Val = _Tmp;

	mov	edx, DWORD PTR __Val$[ebp]
	mov	eax, DWORD PTR __Tmp$132845[ebp]
	mov	DWORD PTR [edx], eax
$LN5@operator:

; 292  : 			}
; 293  : 
; 294  : 		_Myios::setstate(_State);

	push	0
	mov	ecx, DWORD PTR __State$[ebp]
	push	ecx
	mov	edx, DWORD PTR _this$[ebp]
	mov	eax, DWORD PTR [edx]
	mov	ecx, DWORD PTR _this$[ebp]
	add	ecx, DWORD PTR [eax+4]
	call	?setstate@?$basic_ios@DU?$char_traits@D@std@@@std@@QAEXH_N@Z ; std::basic_ios<char,std::char_traits<char> >::setstate

; 295  : 		return (*this);

	mov	ecx, DWORD PTR _this$[ebp]
	mov	DWORD PTR $T140967[ebp], ecx
	mov	DWORD PTR __$EHRec$[ebp+12], -1
	lea	ecx, DWORD PTR __Ok$[ebp]
	call	??1sentry@?$basic_istream@DU?$char_traits@D@std@@@std@@QAE@XZ
	mov	eax, DWORD PTR $T140967[ebp]

; 296  : 		}

	push	edx
	mov	ecx, ebp
	push	eax
	lea	edx, DWORD PTR $LN22@operator
	call	@_RTC_CheckStackVars@8
	pop	eax
	pop	edx
	mov	ecx, DWORD PTR __$EHRec$[ebp+4]
	mov	DWORD PTR fs:0, ecx
	pop	ecx
	pop	edi
	pop	esi
	pop	ebx
	add	esp, 112				; 00000070H
	cmp	ebp, esp
	call	__RTC_CheckEsp
	mov	esp, ebp
	pop	ebp
	ret	4
	npad	2
$LN22@operator:
	DD	3
	DD	$LN21@operator
$LN21@operator:
	DD	-28					; ffffffe4H
	DD	4
	DD	$LN17@operator
	DD	-44					; ffffffd4H
	DD	8
	DD	$LN18@operator
	DD	-56					; ffffffc8H
	DD	4
	DD	$LN19@operator
$LN19@operator:
	DB	95					; 0000005fH
	DB	84					; 00000054H
	DB	109					; 0000006dH
	DB	112					; 00000070H
	DB	0
$LN18@operator:
	DB	95					; 0000005fH
	DB	79					; 0000004fH
	DB	107					; 0000006bH
	DB	0
$LN17@operator:
	DB	95					; 0000005fH
	DB	83					; 00000053H
	DB	116					; 00000074H
	DB	97					; 00000061H
	DB	116					; 00000074H
	DB	101					; 00000065H
	DB	0
_TEXT	ENDS
;	COMDAT text$x
text$x	SEGMENT
__unwindfunclet$??5?$basic_istream@DU?$char_traits@D@std@@@std@@QAEAAV01@AAH@Z$2:
	lea	ecx, DWORD PTR __Ok$[ebp]
	jmp	??1sentry@?$basic_istream@DU?$char_traits@D@std@@@std@@QAE@XZ
__unwindfunclet$??5?$basic_istream@DU?$char_traits@D@std@@@std@@QAEAAV01@AAH@Z$3:
	lea	ecx, DWORD PTR $T140961[ebp]
	jmp	??1locale@std@@QAE@XZ			; std::locale::~locale
__ehhandler$??5?$basic_istream@DU?$char_traits@D@std@@@std@@QAEAAV01@AAH@Z:
	mov	edx, DWORD PTR [esp+8]
	lea	eax, DWORD PTR [edx+12]
	mov	ecx, DWORD PTR [edx-116]
	xor	ecx, eax
	call	@__security_check_cookie@4
	mov	eax, OFFSET __ehfuncinfo$??5?$basic_istream@DU?$char_traits@D@std@@@std@@QAEAAV01@AAH@Z
	jmp	___CxxFrameHandler3
text$x	ENDS
??5?$basic_istream@DU?$char_traits@D@std@@@std@@QAEAAV01@AAH@Z ENDP ; std::basic_istream<char,std::char_traits<char> >::operator>>
PUBLIC	??$_DebugHeapDelete@Vfacet@locale@std@@@std@@YAXPAVfacet@locale@0@@Z ; std::_DebugHeapDelete<std::locale::facet>
PUBLIC	?_Decref@facet@locale@std@@QAEPAV123@XZ		; std::locale::facet::_Decref
; Function compile flags: /Odtp /RTCsu
; File c:\program files (x86)\microsoft visual studio 10.0\vc\include\xlocale
;	COMDAT ??1locale@std@@QAE@XZ
_TEXT	SEGMENT
_this$ = -4						; size = 4
??1locale@std@@QAE@XZ PROC				; std::locale::~locale, COMDAT
; _this$ = ecx

; 409  : 		{	// destroy the object

	push	ebp
	mov	ebp, esp
	push	ecx
	mov	DWORD PTR [ebp-4], -858993460		; ccccccccH
	mov	DWORD PTR _this$[ebp], ecx

; 410  : 		if (_Ptr != 0)

	mov	eax, DWORD PTR _this$[ebp]
	cmp	DWORD PTR [eax], 0
	je	SHORT $LN2@locale

; 411  : 			_DELETE_CRT(_Ptr->_Decref());

	mov	ecx, DWORD PTR _this$[ebp]
	mov	ecx, DWORD PTR [ecx]
	call	?_Decref@facet@locale@std@@QAEPAV123@XZ	; std::locale::facet::_Decref
	push	eax
	call	??$_DebugHeapDelete@Vfacet@locale@std@@@std@@YAXPAVfacet@locale@0@@Z ; std::_DebugHeapDelete<std::locale::facet>
	add	esp, 4
$LN2@locale:

; 412  : 		}

	add	esp, 4
	cmp	ebp, esp
	call	__RTC_CheckEsp
	mov	esp, ebp
	pop	ebp
	ret	0
??1locale@std@@QAE@XZ ENDP				; std::locale::~locale
_TEXT	ENDS
EXTRN	??1_Lockit@std@@QAE@XZ:PROC			; std::_Lockit::~_Lockit
EXTRN	??0_Lockit@std@@QAE@H@Z:PROC			; std::_Lockit::_Lockit
; Function compile flags: /Odtp /RTCsu
;	COMDAT ?_Decref@facet@locale@std@@QAEPAV123@XZ
_TEXT	SEGMENT
$T140992 = -20						; size = 4
__Lock$33249 = -12					; size = 4
_this$ = -4						; size = 4
?_Decref@facet@locale@std@@QAEPAV123@XZ PROC		; std::locale::facet::_Decref, COMDAT
; _this$ = ecx

; 119  : 			{	// safely decrement the reference count, return this when dead

	push	ebp
	mov	ebp, esp
	sub	esp, 20					; 00000014H
	mov	eax, -858993460				; ccccccccH
	mov	DWORD PTR [ebp-20], eax
	mov	DWORD PTR [ebp-16], eax
	mov	DWORD PTR [ebp-12], eax
	mov	DWORD PTR [ebp-8], eax
	mov	DWORD PTR [ebp-4], eax
	mov	DWORD PTR _this$[ebp], ecx

; 120  : 			_BEGIN_LOCK(_LOCK_LOCALE)

	push	0
	lea	ecx, DWORD PTR __Lock$33249[ebp]
	call	??0_Lockit@std@@QAE@H@Z			; std::_Lockit::_Lockit

; 121  : 				if (0 < _Refs && _Refs < (size_t)(-1))

	mov	eax, DWORD PTR _this$[ebp]
	cmp	DWORD PTR [eax+4], 0
	jbe	SHORT $LN1@Decref
	mov	ecx, DWORD PTR _this$[ebp]
	cmp	DWORD PTR [ecx+4], -1
	jae	SHORT $LN1@Decref

; 122  : 					--_Refs;

	mov	edx, DWORD PTR _this$[ebp]
	mov	eax, DWORD PTR [edx+4]
	sub	eax, 1
	mov	ecx, DWORD PTR _this$[ebp]
	mov	DWORD PTR [ecx+4], eax
$LN1@Decref:

; 123  : 				return (_Refs == 0 ? this : 0);

	mov	edx, DWORD PTR _this$[ebp]
	mov	eax, DWORD PTR [edx+4]
	neg	eax
	sbb	eax, eax
	not	eax
	and	eax, DWORD PTR _this$[ebp]
	mov	DWORD PTR $T140992[ebp], eax
	lea	ecx, DWORD PTR __Lock$33249[ebp]
	call	??1_Lockit@std@@QAE@XZ			; std::_Lockit::~_Lockit
	mov	eax, DWORD PTR $T140992[ebp]

; 124  : 			_END_LOCK()
; 125  : 			}

	push	edx
	mov	ecx, ebp
	push	eax
	lea	edx, DWORD PTR $LN7@Decref
	call	@_RTC_CheckStackVars@8
	pop	eax
	pop	edx
	add	esp, 20					; 00000014H
	cmp	ebp, esp
	call	__RTC_CheckEsp
	mov	esp, ebp
	pop	ebp
	ret	0
$LN7@Decref:
	DD	1
	DD	$LN6@Decref
$LN6@Decref:
	DD	-12					; fffffff4H
	DD	4
	DD	$LN5@Decref
$LN5@Decref:
	DB	95					; 0000005fH
	DB	76					; 0000004cH
	DB	111					; 0000006fH
	DB	99					; 00000063H
	DB	107					; 0000006bH
	DB	0
?_Decref@facet@locale@std@@QAEPAV123@XZ ENDP		; std::locale::facet::_Decref
_TEXT	ENDS
PUBLIC	??0locale@std@@QAE@ABV01@@Z			; std::locale::locale
; Function compile flags: /Odtp /RTCsu
; File c:\program files (x86)\microsoft visual studio 10.0\vc\include\xiosbase
;	COMDAT ?getloc@ios_base@std@@QBE?AVlocale@2@XZ
_TEXT	SEGMENT
$T141000 = -8						; size = 4
_this$ = -4						; size = 4
___$ReturnUdt$ = 8					; size = 4
?getloc@ios_base@std@@QBE?AVlocale@2@XZ PROC		; std::ios_base::getloc, COMDAT
; _this$ = ecx

; 451  : 		{	// get locale

	push	ebp
	mov	ebp, esp
	sub	esp, 8
	mov	DWORD PTR [ebp-8], -858993460		; ccccccccH
	mov	DWORD PTR [ebp-4], -858993460		; ccccccccH
	mov	DWORD PTR _this$[ebp], ecx
	mov	DWORD PTR $T141000[ebp], 0

; 452  : 		return (*_Ploc);

	mov	eax, DWORD PTR _this$[ebp]
	mov	ecx, DWORD PTR [eax+48]
	push	ecx
	mov	ecx, DWORD PTR ___$ReturnUdt$[ebp]
	call	??0locale@std@@QAE@ABV01@@Z		; std::locale::locale
	mov	edx, DWORD PTR $T141000[ebp]
	or	edx, 1
	mov	DWORD PTR $T141000[ebp], edx
	mov	eax, DWORD PTR ___$ReturnUdt$[ebp]

; 453  : 		}

	add	esp, 8
	cmp	ebp, esp
	call	__RTC_CheckEsp
	mov	esp, ebp
	pop	ebp
	ret	4
?getloc@ios_base@std@@QBE?AVlocale@2@XZ ENDP		; std::ios_base::getloc
_TEXT	ENDS
PUBLIC	?_Incref@facet@locale@std@@QAEXXZ		; std::locale::facet::_Incref
; Function compile flags: /Odtp /RTCsu
; File c:\program files (x86)\microsoft visual studio 10.0\vc\include\xlocale
;	COMDAT ??0locale@std@@QAE@ABV01@@Z
_TEXT	SEGMENT
_this$ = -4						; size = 4
__Right$ = 8						; size = 4
??0locale@std@@QAE@ABV01@@Z PROC			; std::locale::locale, COMDAT
; _this$ = ecx

; 309  : 		{	// construct by copying

	push	ebp
	mov	ebp, esp
	push	ecx
	mov	DWORD PTR [ebp-4], -858993460		; ccccccccH
	mov	DWORD PTR _this$[ebp], ecx
	mov	eax, DWORD PTR _this$[ebp]
	mov	ecx, DWORD PTR __Right$[ebp]
	mov	edx, DWORD PTR [ecx]
	mov	DWORD PTR [eax], edx

; 310  : 		_Ptr->_Incref();

	mov	eax, DWORD PTR _this$[ebp]
	mov	ecx, DWORD PTR [eax]
	call	?_Incref@facet@locale@std@@QAEXXZ	; std::locale::facet::_Incref

; 311  : 		}

	mov	eax, DWORD PTR _this$[ebp]
	add	esp, 4
	cmp	ebp, esp
	call	__RTC_CheckEsp
	mov	esp, ebp
	pop	ebp
	ret	4
??0locale@std@@QAE@ABV01@@Z ENDP			; std::locale::locale
; Function compile flags: /Odtp /RTCsu
_TEXT	ENDS
;	COMDAT ?_Incref@facet@locale@std@@QAEXXZ
_TEXT	SEGMENT
__Lock$33244 = -12					; size = 4
_this$ = -4						; size = 4
?_Incref@facet@locale@std@@QAEXXZ PROC			; std::locale::facet::_Incref, COMDAT
; _this$ = ecx

; 111  : 			{	// safely increment the reference count

	push	ebp
	mov	ebp, esp
	sub	esp, 16					; 00000010H
	mov	eax, -858993460				; ccccccccH
	mov	DWORD PTR [ebp-16], eax
	mov	DWORD PTR [ebp-12], eax
	mov	DWORD PTR [ebp-8], eax
	mov	DWORD PTR [ebp-4], eax
	mov	DWORD PTR _this$[ebp], ecx

; 112  : 			_BEGIN_LOCK(_LOCK_LOCALE)

	push	0
	lea	ecx, DWORD PTR __Lock$33244[ebp]
	call	??0_Lockit@std@@QAE@H@Z			; std::_Lockit::_Lockit

; 113  : 				if (_Refs < (size_t)(-1))

	mov	eax, DWORD PTR _this$[ebp]
	cmp	DWORD PTR [eax+4], -1
	jae	SHORT $LN1@Incref

; 114  : 					++_Refs;

	mov	ecx, DWORD PTR _this$[ebp]
	mov	edx, DWORD PTR [ecx+4]
	add	edx, 1
	mov	eax, DWORD PTR _this$[ebp]
	mov	DWORD PTR [eax+4], edx
$LN1@Incref:

; 115  : 			_END_LOCK()

	lea	ecx, DWORD PTR __Lock$33244[ebp]
	call	??1_Lockit@std@@QAE@XZ			; std::_Lockit::~_Lockit

; 116  : 			}

	push	edx
	mov	ecx, ebp
	push	eax
	lea	edx, DWORD PTR $LN7@Incref
	call	@_RTC_CheckStackVars@8
	pop	eax
	pop	edx
	add	esp, 16					; 00000010H
	cmp	ebp, esp
	call	__RTC_CheckEsp
	mov	esp, ebp
	pop	ebp
	ret	0
	npad	1
$LN7@Incref:
	DD	1
	DD	$LN6@Incref
$LN6@Incref:
	DD	-12					; fffffff4H
	DD	4
	DD	$LN5@Incref
$LN5@Incref:
	DB	95					; 0000005fH
	DB	76					; 0000004cH
	DB	111					; 0000006fH
	DB	99					; 00000063H
	DB	107					; 0000006bH
	DB	0
?_Incref@facet@locale@std@@QAEXXZ ENDP			; std::locale::facet::_Incref
_TEXT	ENDS
PUBLIC	??1_Sentry_base@?$basic_istream@DU?$char_traits@D@std@@@std@@QAE@XZ ; std::basic_istream<char,std::char_traits<char> >::_Sentry_base::~_Sentry_base
; Function compile flags: /Odtp /RTCsu
;	COMDAT ??1sentry@?$basic_istream@DU?$char_traits@D@std@@@std@@QAE@XZ
_TEXT	SEGMENT
_this$ = -4						; size = 4
??1sentry@?$basic_istream@DU?$char_traits@D@std@@@std@@QAE@XZ PROC ; std::basic_istream<char,std::char_traits<char> >::sentry::~sentry, COMDAT
; _this$ = ecx
	push	ebp
	mov	ebp, esp
	push	ecx
	mov	DWORD PTR [ebp-4], -858993460		; ccccccccH
	mov	DWORD PTR _this$[ebp], ecx
	mov	ecx, DWORD PTR _this$[ebp]
	call	??1_Sentry_base@?$basic_istream@DU?$char_traits@D@std@@@std@@QAE@XZ ; std::basic_istream<char,std::char_traits<char> >::_Sentry_base::~_Sentry_base
	add	esp, 4
	cmp	ebp, esp
	call	__RTC_CheckEsp
	mov	esp, ebp
	pop	ebp
	ret	0
??1sentry@?$basic_istream@DU?$char_traits@D@std@@@std@@QAE@XZ ENDP ; std::basic_istream<char,std::char_traits<char> >::sentry::~sentry
_TEXT	ENDS
PUBLIC	?clear@?$basic_ios@DU?$char_traits@D@std@@@std@@QAEXH_N@Z ; std::basic_ios<char,std::char_traits<char> >::clear
PUBLIC	?rdstate@ios_base@std@@QBEHXZ			; std::ios_base::rdstate
; Function compile flags: /Odtp /RTCsu
; File c:\program files (x86)\microsoft visual studio 10.0\vc\include\ios
;	COMDAT ?setstate@?$basic_ios@DU?$char_traits@D@std@@@std@@QAEXH_N@Z
_TEXT	SEGMENT
_this$ = -4						; size = 4
__State$ = 8						; size = 4
__Reraise$ = 12						; size = 1
?setstate@?$basic_ios@DU?$char_traits@D@std@@@std@@QAEXH_N@Z PROC ; std::basic_ios<char,std::char_traits<char> >::setstate, COMDAT
; _this$ = ecx

; 54   : 		{	// merge _State into state, possible reraise exception

	push	ebp
	mov	ebp, esp
	push	ecx
	mov	DWORD PTR [ebp-4], -858993460		; ccccccccH
	mov	DWORD PTR _this$[ebp], ecx

; 55   : 		if (_State != goodbit)

	cmp	DWORD PTR __State$[ebp], 0
	je	SHORT $LN2@setstate

; 56   : 			clear((iostate)((int)rdstate() | (int)_State), _Reraise);

	movzx	eax, BYTE PTR __Reraise$[ebp]
	push	eax
	mov	ecx, DWORD PTR _this$[ebp]
	call	?rdstate@ios_base@std@@QBEHXZ		; std::ios_base::rdstate
	or	eax, DWORD PTR __State$[ebp]
	push	eax
	mov	ecx, DWORD PTR _this$[ebp]
	call	?clear@?$basic_ios@DU?$char_traits@D@std@@@std@@QAEXH_N@Z ; std::basic_ios<char,std::char_traits<char> >::clear
$LN2@setstate:

; 57   : 		}

	add	esp, 4
	cmp	ebp, esp
	call	__RTC_CheckEsp
	mov	esp, ebp
	pop	ebp
	ret	8
?setstate@?$basic_ios@DU?$char_traits@D@std@@@std@@QAEXH_N@Z ENDP ; std::basic_ios<char,std::char_traits<char> >::setstate
; Function compile flags: /Odtp /RTCsu
; File c:\program files (x86)\microsoft visual studio 10.0\vc\include\xiosbase
_TEXT	ENDS
;	COMDAT ?rdstate@ios_base@std@@QBEHXZ
_TEXT	SEGMENT
_this$ = -4						; size = 4
?rdstate@ios_base@std@@QBEHXZ PROC			; std::ios_base::rdstate, COMDAT
; _this$ = ecx

; 335  : 		{	// return stream state

	push	ebp
	mov	ebp, esp
	push	ecx
	mov	DWORD PTR [ebp-4], -858993460		; ccccccccH
	mov	DWORD PTR _this$[ebp], ecx

; 336  : 		return (_Mystate);

	mov	eax, DWORD PTR _this$[ebp]
	mov	eax, DWORD PTR [eax+12]

; 337  : 		}

	mov	esp, ebp
	pop	ebp
	ret	0
?rdstate@ios_base@std@@QBEHXZ ENDP			; std::ios_base::rdstate
; Function compile flags: /Odtp /RTCsu
; File c:\program files (x86)\microsoft visual studio 10.0\vc\include\ios
_TEXT	ENDS
;	COMDAT ?rdbuf@?$basic_ios@DU?$char_traits@D@std@@@std@@QBEPAV?$basic_streambuf@DU?$char_traits@D@std@@@2@XZ
_TEXT	SEGMENT
_this$ = -4						; size = 4
?rdbuf@?$basic_ios@DU?$char_traits@D@std@@@std@@QBEPAV?$basic_streambuf@DU?$char_traits@D@std@@@2@XZ PROC ; std::basic_ios<char,std::char_traits<char> >::rdbuf, COMDAT
; _this$ = ecx

; 85   : 		{	// return stream buffer pointer

	push	ebp
	mov	ebp, esp
	push	ecx
	mov	DWORD PTR [ebp-4], -858993460		; ccccccccH
	mov	DWORD PTR _this$[ebp], ecx

; 86   : 		return (_Mystrbuf);

	mov	eax, DWORD PTR _this$[ebp]
	mov	eax, DWORD PTR [eax+56]

; 87   : 		}

	mov	esp, ebp
	pop	ebp
	ret	0
?rdbuf@?$basic_ios@DU?$char_traits@D@std@@@std@@QBEPAV?$basic_streambuf@DU?$char_traits@D@std@@@2@XZ ENDP ; std::basic_ios<char,std::char_traits<char> >::rdbuf
_TEXT	ENDS
PUBLIC	?get@?$num_get@DV?$istreambuf_iterator@DU?$char_traits@D@std@@@std@@@std@@QBE?AV?$istreambuf_iterator@DU?$char_traits@D@std@@@2@V32@0AAVios_base@2@AAHAAN@Z ; std::num_get<char,std::istreambuf_iterator<char,std::char_traits<char> > >::get
;	COMDAT xdata$x
; File c:\program files (x86)\microsoft visual studio 10.0\vc\include\istream
xdata$x	SEGMENT
__catchsym$??5?$basic_istream@DU?$char_traits@D@std@@@std@@QAEAAV01@AAN@Z$4 DD 040H
	DD	00H
	DD	00H
	DD	FLAT:__catch$??5?$basic_istream@DU?$char_traits@D@std@@@std@@QAEAAV01@AAN@Z$0
__tryblocktable$??5?$basic_istream@DU?$char_traits@D@std@@@std@@QAEAAV01@AAN@Z DD 02H
	DD	02H
	DD	03H
	DD	01H
	DD	FLAT:__catchsym$??5?$basic_istream@DU?$char_traits@D@std@@@std@@QAEAAV01@AAN@Z$4
__unwindtable$??5?$basic_istream@DU?$char_traits@D@std@@@std@@QAEAAV01@AAN@Z DD 0ffffffffH
	DD	FLAT:__unwindfunclet$??5?$basic_istream@DU?$char_traits@D@std@@@std@@QAEAAV01@AAN@Z$2
	DD	00H
	DD	FLAT:__unwindfunclet$??5?$basic_istream@DU?$char_traits@D@std@@@std@@QAEAAV01@AAN@Z$3
	DD	00H
	DD	00H
	DD	00H
	DD	00H
__ehfuncinfo$??5?$basic_istream@DU?$char_traits@D@std@@@std@@QAEAAV01@AAN@Z DD 019930522H
	DD	04H
	DD	FLAT:__unwindtable$??5?$basic_istream@DU?$char_traits@D@std@@@std@@QAEAAV01@AAN@Z
	DD	01H
	DD	FLAT:__tryblocktable$??5?$basic_istream@DU?$char_traits@D@std@@@std@@QAEAAV01@AAN@Z
	DD	2 DUP(00H)
	DD	00H
	DD	01H
; Function compile flags: /Odtp /RTCsu
xdata$x	ENDS
;	COMDAT ??5?$basic_istream@DU?$char_traits@D@std@@@std@@QAEAAV01@AAN@Z
_TEXT	SEGMENT
tv184 = -100						; size = 4
tv134 = -96						; size = 4
tv181 = -92						; size = 4
tv65 = -88						; size = 4
$T141027 = -84						; size = 4
$T141026 = -80						; size = 8
$T141025 = -72						; size = 8
$T141024 = -64						; size = 8
$T141021 = -56						; size = 4
__Nget_fac$133118 = -52					; size = 4
__Ok$ = -44						; size = 8
__State$ = -28						; size = 4
_this$ = -20						; size = 4
__$EHRec$ = -16						; size = 16
__Val$ = 8						; size = 4
??5?$basic_istream@DU?$char_traits@D@std@@@std@@QAEAAV01@AAN@Z PROC ; std::basic_istream<char,std::char_traits<char> >::operator>>, COMDAT
; _this$ = ecx

; 412  : 		{	// extract a double

	push	ebp
	mov	ebp, esp
	push	-1
	push	__ehhandler$??5?$basic_istream@DU?$char_traits@D@std@@@std@@QAEAAV01@AAN@Z
	mov	eax, DWORD PTR fs:0
	push	eax
	push	ecx
	sub	esp, 84					; 00000054H
	push	ebx
	push	esi
	push	edi
	push	ecx
	lea	edi, DWORD PTR [ebp-100]
	mov	ecx, 21					; 00000015H
	mov	eax, -858993460				; ccccccccH
	rep stosd
	pop	ecx
	mov	eax, DWORD PTR ___security_cookie
	xor	eax, ebp
	push	eax
	lea	eax, DWORD PTR __$EHRec$[ebp+4]
	mov	DWORD PTR fs:0, eax
	mov	DWORD PTR __$EHRec$[ebp], esp
	mov	DWORD PTR _this$[ebp], ecx

; 413  : 		ios_base::iostate _State = ios_base::goodbit;

	mov	DWORD PTR __State$[ebp], 0

; 414  : 		const sentry _Ok(*this);

	push	0
	mov	eax, DWORD PTR _this$[ebp]
	push	eax
	lea	ecx, DWORD PTR __Ok$[ebp]
	call	??0sentry@?$basic_istream@DU?$char_traits@D@std@@@std@@QAE@AAV12@_N@Z ; std::basic_istream<char,std::char_traits<char> >::sentry::sentry
	mov	DWORD PTR __$EHRec$[ebp+12], 0

; 415  : 		if (_Ok)

	lea	ecx, DWORD PTR __Ok$[ebp]
	call	??Bsentry@?$basic_istream@DU?$char_traits@D@std@@@std@@QBEPQ_Bool_struct@2@HXZ ; std::basic_istream<char,std::char_traits<char> >::sentry::operator int std::_Bool_struct::*
	cmp	eax, -1
	je	$LN2@operator@2

; 416  : 			{	// state okay, use facet to extract
; 417  : 			const _Nget& _Nget_fac = _USE(ios_base::getloc(), _Nget);

	lea	ecx, DWORD PTR $T141021[ebp]
	push	ecx
	mov	edx, DWORD PTR _this$[ebp]
	mov	eax, DWORD PTR [edx]
	mov	ecx, DWORD PTR _this$[ebp]
	add	ecx, DWORD PTR [eax+4]
	call	?getloc@ios_base@std@@QBE?AVlocale@2@XZ	; std::ios_base::getloc
	mov	DWORD PTR tv65[ebp], eax
	mov	ecx, DWORD PTR tv65[ebp]
	mov	DWORD PTR tv181[ebp], ecx
	mov	BYTE PTR __$EHRec$[ebp+12], 1
	mov	edx, DWORD PTR tv181[ebp]
	push	edx
	call	??$use_facet@V?$num_get@DV?$istreambuf_iterator@DU?$char_traits@D@std@@@std@@@std@@@std@@YAABV?$num_get@DV?$istreambuf_iterator@DU?$char_traits@D@std@@@std@@@0@ABVlocale@0@@Z ; std::use_facet<std::num_get<char,std::istreambuf_iterator<char,std::char_traits<char> > > >
	add	esp, 4
	mov	DWORD PTR __Nget_fac$133118[ebp], eax
	mov	BYTE PTR __$EHRec$[ebp+12], 0
	lea	ecx, DWORD PTR $T141021[ebp]
	call	??1locale@std@@QAE@XZ			; std::locale::~locale

; 418  : 
; 419  : 			_TRY_IO_BEGIN

	mov	BYTE PTR __$EHRec$[ebp+12], 2

; 420  : 			_Nget_fac.get(_Iter(_Myios::rdbuf()), _Iter(0),
; 421  : 				*this, _State, _Val);

	cmp	DWORD PTR _this$[ebp], 0
	jne	SHORT $LN5@operator@2
	mov	DWORD PTR tv134[ebp], 0
	jmp	SHORT $LN6@operator@2
$LN5@operator@2:
	mov	eax, DWORD PTR _this$[ebp]
	mov	ecx, DWORD PTR [eax]
	mov	edx, DWORD PTR _this$[ebp]
	add	edx, DWORD PTR [ecx+4]
	mov	DWORD PTR tv134[ebp], edx
$LN6@operator@2:
	mov	eax, DWORD PTR _this$[ebp]
	mov	ecx, DWORD PTR [eax]
	mov	edx, DWORD PTR _this$[ebp]
	add	edx, DWORD PTR [ecx+4]
	mov	ecx, edx
	call	?rdbuf@?$basic_ios@DU?$char_traits@D@std@@@std@@QBEPAV?$basic_streambuf@DU?$char_traits@D@std@@@2@XZ ; std::basic_ios<char,std::char_traits<char> >::rdbuf
	mov	DWORD PTR tv184[ebp], eax
	mov	eax, DWORD PTR __Val$[ebp]
	push	eax
	lea	ecx, DWORD PTR __State$[ebp]
	push	ecx
	mov	edx, DWORD PTR tv134[ebp]
	push	edx
	push	0
	lea	ecx, DWORD PTR $T141024[ebp]
	call	??0?$istreambuf_iterator@DU?$char_traits@D@std@@@std@@QAE@PAV?$basic_streambuf@DU?$char_traits@D@std@@@1@@Z ; std::istreambuf_iterator<char,std::char_traits<char> >::istreambuf_iterator<char,std::char_traits<char> >
	mov	ecx, DWORD PTR [eax+4]
	push	ecx
	mov	edx, DWORD PTR [eax]
	push	edx
	mov	eax, DWORD PTR tv184[ebp]
	push	eax
	lea	ecx, DWORD PTR $T141025[ebp]
	call	??0?$istreambuf_iterator@DU?$char_traits@D@std@@@std@@QAE@PAV?$basic_streambuf@DU?$char_traits@D@std@@@1@@Z ; std::istreambuf_iterator<char,std::char_traits<char> >::istreambuf_iterator<char,std::char_traits<char> >
	mov	ecx, DWORD PTR [eax+4]
	push	ecx
	mov	edx, DWORD PTR [eax]
	push	edx
	lea	eax, DWORD PTR $T141026[ebp]
	push	eax
	mov	ecx, DWORD PTR __Nget_fac$133118[ebp]
	call	?get@?$num_get@DV?$istreambuf_iterator@DU?$char_traits@D@std@@@std@@@std@@QBE?AV?$istreambuf_iterator@DU?$char_traits@D@std@@@2@V32@0AAVios_base@2@AAHAAN@Z ; std::num_get<char,std::istreambuf_iterator<char,std::char_traits<char> > >::get
	jmp	SHORT $LN7@operator@2
__catch$??5?$basic_istream@DU?$char_traits@D@std@@@std@@QAEAAV01@AAN@Z$0:

; 422  : 			_CATCH_IO_END

	push	1
	push	4
	mov	ecx, DWORD PTR _this$[ebp]
	mov	edx, DWORD PTR [ecx]
	mov	ecx, DWORD PTR _this$[ebp]
	add	ecx, DWORD PTR [edx+4]
	call	?setstate@?$basic_ios@DU?$char_traits@D@std@@@std@@QAEXH_N@Z ; std::basic_ios<char,std::char_traits<char> >::setstate
	mov	DWORD PTR __$EHRec$[ebp+12], 0
	mov	eax, $LN2@operator@2
	ret	0
$LN7@operator@2:
	mov	DWORD PTR __$EHRec$[ebp+12], 0
$LN2@operator@2:

; 423  : 			}
; 424  : 
; 425  : 		_Myios::setstate(_State);

	push	0
	mov	eax, DWORD PTR __State$[ebp]
	push	eax
	mov	ecx, DWORD PTR _this$[ebp]
	mov	edx, DWORD PTR [ecx]
	mov	ecx, DWORD PTR _this$[ebp]
	add	ecx, DWORD PTR [edx+4]
	call	?setstate@?$basic_ios@DU?$char_traits@D@std@@@std@@QAEXH_N@Z ; std::basic_ios<char,std::char_traits<char> >::setstate

; 426  : 		return (*this);

	mov	eax, DWORD PTR _this$[ebp]
	mov	DWORD PTR $T141027[ebp], eax
	mov	DWORD PTR __$EHRec$[ebp+12], -1
	lea	ecx, DWORD PTR __Ok$[ebp]
	call	??1sentry@?$basic_istream@DU?$char_traits@D@std@@@std@@QAE@XZ
	mov	eax, DWORD PTR $T141027[ebp]

; 427  : 		}

	push	edx
	mov	ecx, ebp
	push	eax
	lea	edx, DWORD PTR $LN18@operator@2
	call	@_RTC_CheckStackVars@8
	pop	eax
	pop	edx
	mov	ecx, DWORD PTR __$EHRec$[ebp+4]
	mov	DWORD PTR fs:0, ecx
	pop	ecx
	pop	edi
	pop	esi
	pop	ebx
	add	esp, 100				; 00000064H
	cmp	ebp, esp
	call	__RTC_CheckEsp
	mov	esp, ebp
	pop	ebp
	ret	4
	npad	2
$LN18@operator@2:
	DD	2
	DD	$LN17@operator@2
$LN17@operator@2:
	DD	-28					; ffffffe4H
	DD	4
	DD	$LN14@operator@2
	DD	-44					; ffffffd4H
	DD	8
	DD	$LN15@operator@2
$LN15@operator@2:
	DB	95					; 0000005fH
	DB	79					; 0000004fH
	DB	107					; 0000006bH
	DB	0
$LN14@operator@2:
	DB	95					; 0000005fH
	DB	83					; 00000053H
	DB	116					; 00000074H
	DB	97					; 00000061H
	DB	116					; 00000074H
	DB	101					; 00000065H
	DB	0
_TEXT	ENDS
;	COMDAT text$x
text$x	SEGMENT
__unwindfunclet$??5?$basic_istream@DU?$char_traits@D@std@@@std@@QAEAAV01@AAN@Z$2:
	lea	ecx, DWORD PTR __Ok$[ebp]
	jmp	??1sentry@?$basic_istream@DU?$char_traits@D@std@@@std@@QAE@XZ
__unwindfunclet$??5?$basic_istream@DU?$char_traits@D@std@@@std@@QAEAAV01@AAN@Z$3:
	lea	ecx, DWORD PTR $T141021[ebp]
	jmp	??1locale@std@@QAE@XZ			; std::locale::~locale
__ehhandler$??5?$basic_istream@DU?$char_traits@D@std@@@std@@QAEAAV01@AAN@Z:
	mov	edx, DWORD PTR [esp+8]
	lea	eax, DWORD PTR [edx+12]
	mov	ecx, DWORD PTR [edx-104]
	xor	ecx, eax
	call	@__security_check_cookie@4
	mov	eax, OFFSET __ehfuncinfo$??5?$basic_istream@DU?$char_traits@D@std@@@std@@QAEAAV01@AAN@Z
	jmp	___CxxFrameHandler3
text$x	ENDS
??5?$basic_istream@DU?$char_traits@D@std@@@std@@QAEAAV01@AAN@Z ENDP ; std::basic_istream<char,std::char_traits<char> >::operator>>
PUBLIC	?_Ipfx@?$basic_istream@DU?$char_traits@D@std@@@std@@QAE_N_N@Z ; std::basic_istream<char,std::char_traits<char> >::_Ipfx
PUBLIC	??0_Sentry_base@?$basic_istream@DU?$char_traits@D@std@@@std@@QAE@AAV12@@Z ; std::basic_istream<char,std::char_traits<char> >::_Sentry_base::_Sentry_base
;	COMDAT xdata$x
xdata$x	SEGMENT
__unwindtable$??0sentry@?$basic_istream@DU?$char_traits@D@std@@@std@@QAE@AAV12@_N@Z DD 0ffffffffH
	DD	FLAT:__unwindfunclet$??0sentry@?$basic_istream@DU?$char_traits@D@std@@@std@@QAE@AAV12@_N@Z$0
__ehfuncinfo$??0sentry@?$basic_istream@DU?$char_traits@D@std@@@std@@QAE@AAV12@_N@Z DD 019930522H
	DD	01H
	DD	FLAT:__unwindtable$??0sentry@?$basic_istream@DU?$char_traits@D@std@@@std@@QAE@AAV12@_N@Z
	DD	2 DUP(00H)
	DD	2 DUP(00H)
	DD	00H
	DD	01H
; Function compile flags: /Odtp /RTCsu
xdata$x	ENDS
;	COMDAT ??0sentry@?$basic_istream@DU?$char_traits@D@std@@@std@@QAE@AAV12@_N@Z
_TEXT	SEGMENT
_this$ = -16						; size = 4
__$EHRec$ = -12						; size = 12
__Istr$ = 8						; size = 4
__Noskip$ = 12						; size = 1
??0sentry@?$basic_istream@DU?$char_traits@D@std@@@std@@QAE@AAV12@_N@Z PROC ; std::basic_istream<char,std::char_traits<char> >::sentry::sentry, COMDAT
; _this$ = ecx

; 99   : 			{	// construct locking and calling _Ipfx

	push	ebp
	mov	ebp, esp
	push	-1
	push	__ehhandler$??0sentry@?$basic_istream@DU?$char_traits@D@std@@@std@@QAE@AAV12@_N@Z
	mov	eax, DWORD PTR fs:0
	push	eax
	push	ecx
	mov	DWORD PTR [ebp-16], -858993460		; ccccccccH
	mov	eax, DWORD PTR ___security_cookie
	xor	eax, ebp
	push	eax
	lea	eax, DWORD PTR __$EHRec$[ebp]
	mov	DWORD PTR fs:0, eax
	mov	DWORD PTR _this$[ebp], ecx
	mov	eax, DWORD PTR __Istr$[ebp]
	push	eax
	mov	ecx, DWORD PTR _this$[ebp]
	call	??0_Sentry_base@?$basic_istream@DU?$char_traits@D@std@@@std@@QAE@AAV12@@Z ; std::basic_istream<char,std::char_traits<char> >::_Sentry_base::_Sentry_base
	mov	DWORD PTR __$EHRec$[ebp+8], 0

; 100  : 			_Ok = this->_Myistr._Ipfx(_Noskip);

	movzx	ecx, BYTE PTR __Noskip$[ebp]
	push	ecx
	mov	edx, DWORD PTR _this$[ebp]
	mov	ecx, DWORD PTR [edx]
	call	?_Ipfx@?$basic_istream@DU?$char_traits@D@std@@@std@@QAE_N_N@Z ; std::basic_istream<char,std::char_traits<char> >::_Ipfx
	mov	ecx, DWORD PTR _this$[ebp]
	mov	BYTE PTR [ecx+4], al

; 101  : 			}

	mov	DWORD PTR __$EHRec$[ebp+8], -1
	mov	eax, DWORD PTR _this$[ebp]
	mov	ecx, DWORD PTR __$EHRec$[ebp]
	mov	DWORD PTR fs:0, ecx
	pop	ecx
	add	esp, 16					; 00000010H
	cmp	ebp, esp
	call	__RTC_CheckEsp
	mov	esp, ebp
	pop	ebp
	ret	8
_TEXT	ENDS
;	COMDAT text$x
text$x	SEGMENT
__unwindfunclet$??0sentry@?$basic_istream@DU?$char_traits@D@std@@@std@@QAE@AAV12@_N@Z$0:
	mov	ecx, DWORD PTR _this$[ebp]
	jmp	??1_Sentry_base@?$basic_istream@DU?$char_traits@D@std@@@std@@QAE@XZ ; std::basic_istream<char,std::char_traits<char> >::_Sentry_base::~_Sentry_base
__ehhandler$??0sentry@?$basic_istream@DU?$char_traits@D@std@@@std@@QAE@AAV12@_N@Z:
	mov	edx, DWORD PTR [esp+8]
	lea	eax, DWORD PTR [edx+12]
	mov	ecx, DWORD PTR [edx-8]
	xor	ecx, eax
	call	@__security_check_cookie@4
	mov	eax, OFFSET __ehfuncinfo$??0sentry@?$basic_istream@DU?$char_traits@D@std@@@std@@QAE@AAV12@_N@Z
	jmp	___CxxFrameHandler3
text$x	ENDS
??0sentry@?$basic_istream@DU?$char_traits@D@std@@@std@@QAE@AAV12@_N@Z ENDP ; std::basic_istream<char,std::char_traits<char> >::sentry::sentry
; Function compile flags: /Odtp /RTCsu
;	COMDAT ??Bsentry@?$basic_istream@DU?$char_traits@D@std@@@std@@QBEPQ_Bool_struct@2@HXZ
_TEXT	SEGMENT
_this$ = -4						; size = 4
??Bsentry@?$basic_istream@DU?$char_traits@D@std@@@std@@QBEPQ_Bool_struct@2@HXZ PROC ; std::basic_istream<char,std::char_traits<char> >::sentry::operator int std::_Bool_struct::*, COMDAT
; _this$ = ecx

; 104  : 			{	// test if _Ipfx succeeded

	push	ebp
	mov	ebp, esp
	push	ecx
	mov	DWORD PTR [ebp-4], -858993460		; ccccccccH
	mov	DWORD PTR _this$[ebp], ecx

; 105  : 			return (_Ok ? _CONVERTIBLE_TO_TRUE : 0);

	mov	eax, DWORD PTR _this$[ebp]
	movzx	eax, BYTE PTR [eax+4]
	neg	eax
	sbb	eax, eax
	neg	eax
	sub	eax, 1

; 106  : 			}

	mov	esp, ebp
	pop	ebp
	ret	0
??Bsentry@?$basic_istream@DU?$char_traits@D@std@@@std@@QBEPQ_Bool_struct@2@HXZ ENDP ; std::basic_istream<char,std::char_traits<char> >::sentry::operator int std::_Bool_struct::*
; Function compile flags: /Odtp /RTCsu
_TEXT	ENDS
;	COMDAT ??1_Sentry_base@?$basic_istream@DU?$char_traits@D@std@@@std@@QAE@XZ
_TEXT	SEGMENT
tv90 = -8						; size = 4
_this$ = -4						; size = 4
??1_Sentry_base@?$basic_istream@DU?$char_traits@D@std@@@std@@QAE@XZ PROC ; std::basic_istream<char,std::char_traits<char> >::_Sentry_base::~_Sentry_base, COMDAT
; _this$ = ecx

; 82   : 			{	// destroy after unlocking

	push	ebp
	mov	ebp, esp
	sub	esp, 8
	push	esi
	mov	DWORD PTR [ebp-8], -858993460		; ccccccccH
	mov	DWORD PTR [ebp-4], -858993460		; ccccccccH
	mov	DWORD PTR _this$[ebp], ecx

; 83   : 			if (_Myistr.rdbuf() != 0)

	mov	eax, DWORD PTR _this$[ebp]
	mov	ecx, DWORD PTR [eax]
	mov	edx, DWORD PTR [ecx]
	mov	eax, DWORD PTR _this$[ebp]
	mov	ecx, DWORD PTR [eax]
	add	ecx, DWORD PTR [edx+4]
	call	?rdbuf@?$basic_ios@DU?$char_traits@D@std@@@std@@QBEPAV?$basic_streambuf@DU?$char_traits@D@std@@@2@XZ ; std::basic_ios<char,std::char_traits<char> >::rdbuf
	test	eax, eax
	je	SHORT $LN2@Sentry_bas

; 84   : 				_Myistr.rdbuf()->_Unlock();

	mov	ecx, DWORD PTR _this$[ebp]
	mov	edx, DWORD PTR [ecx]
	mov	eax, DWORD PTR [edx]
	mov	ecx, DWORD PTR _this$[ebp]
	mov	ecx, DWORD PTR [ecx]
	add	ecx, DWORD PTR [eax+4]
	call	?rdbuf@?$basic_ios@DU?$char_traits@D@std@@@std@@QBEPAV?$basic_streambuf@DU?$char_traits@D@std@@@2@XZ ; std::basic_ios<char,std::char_traits<char> >::rdbuf
	mov	DWORD PTR tv90[ebp], eax
	mov	edx, DWORD PTR tv90[ebp]
	mov	eax, DWORD PTR [edx]
	mov	esi, esp
	mov	ecx, DWORD PTR tv90[ebp]
	mov	edx, DWORD PTR [eax+8]
	call	edx
	cmp	esi, esp
	call	__RTC_CheckEsp
$LN2@Sentry_bas:

; 85   : 			}

	pop	esi
	add	esp, 8
	cmp	ebp, esp
	call	__RTC_CheckEsp
	mov	esp, ebp
	pop	ebp
	ret	0
??1_Sentry_base@?$basic_istream@DU?$char_traits@D@std@@@std@@QAE@XZ ENDP ; std::basic_istream<char,std::char_traits<char> >::_Sentry_base::~_Sentry_base
_TEXT	ENDS
PUBLIC	?SetInactive@?$Trigger@VAbstRaven_Bot@@@@IAEXXZ	; Trigger<AbstRaven_Bot>::SetInactive
; Function compile flags: /Odtp /RTCsu
; File c:\users\teaja\documents\artificial-fun\labravenprojecttest\common\triggers\trigger_respawning.h
;	COMDAT ?Deactivate@?$Trigger_Respawning@VAbstRaven_Bot@@@@IAEXXZ
_TEXT	SEGMENT
_this$ = -4						; size = 4
?Deactivate@?$Trigger_Respawning@VAbstRaven_Bot@@@@IAEXXZ PROC ; Trigger_Respawning<AbstRaven_Bot>::Deactivate, COMDAT
; _this$ = ecx

; 34   :   {

	push	ebp
	mov	ebp, esp
	push	ecx
	mov	DWORD PTR [ebp-4], -858993460		; ccccccccH
	mov	DWORD PTR _this$[ebp], ecx

; 35   :     SetInactive();

	mov	ecx, DWORD PTR _this$[ebp]
	call	?SetInactive@?$Trigger@VAbstRaven_Bot@@@@IAEXXZ ; Trigger<AbstRaven_Bot>::SetInactive

; 36   :     m_iNumUpdatesRemainingUntilRespawn = m_iNumUpdatesBetweenRespawns;

	mov	eax, DWORD PTR _this$[ebp]
	mov	ecx, DWORD PTR _this$[ebp]
	mov	edx, DWORD PTR [ecx+80]
	mov	DWORD PTR [eax+84], edx

; 37   :   }

	add	esp, 4
	cmp	ebp, esp
	call	__RTC_CheckEsp
	mov	esp, ebp
	pop	ebp
	ret	0
?Deactivate@?$Trigger_Respawning@VAbstRaven_Bot@@@@IAEXXZ ENDP ; Trigger_Respawning<AbstRaven_Bot>::Deactivate
_TEXT	ENDS
PUBLIC	??_7?$Trigger_Respawning@VAbstRaven_Bot@@@@6B@	; Trigger_Respawning<AbstRaven_Bot>::`vftable'
PUBLIC	??0?$Trigger@VAbstRaven_Bot@@@@QAE@I@Z		; Trigger<AbstRaven_Bot>::Trigger<AbstRaven_Bot>
PUBLIC	??_R4?$Trigger_Respawning@VAbstRaven_Bot@@@@6B@	; Trigger_Respawning<AbstRaven_Bot>::`RTTI Complete Object Locator'
PUBLIC	?Read@BaseGameEntity@@UAEXAAV?$basic_ifstream@DU?$char_traits@D@std@@@std@@@Z ; BaseGameEntity::Read
EXTRN	??_E?$Trigger_Respawning@VAbstRaven_Bot@@@@UAEPAXI@Z:PROC ; Trigger_Respawning<AbstRaven_Bot>::`vector deleting destructor'
EXTRN	__purecall:PROC
;	COMDAT ??_R4?$Trigger_Respawning@VAbstRaven_Bot@@@@6B@
rdata$r	SEGMENT
??_R4?$Trigger_Respawning@VAbstRaven_Bot@@@@6B@ DD 00H	; Trigger_Respawning<AbstRaven_Bot>::`RTTI Complete Object Locator'
	DD	00H
	DD	00H
	DD	FLAT:??_R0?AV?$Trigger_Respawning@VAbstRaven_Bot@@@@@8
	DD	FLAT:??_R3?$Trigger_Respawning@VAbstRaven_Bot@@@@8
rdata$r	ENDS
;	COMDAT ??_7?$Trigger_Respawning@VAbstRaven_Bot@@@@6B@
CONST	SEGMENT
??_7?$Trigger_Respawning@VAbstRaven_Bot@@@@6B@ DD FLAT:??_R4?$Trigger_Respawning@VAbstRaven_Bot@@@@6B@ ; Trigger_Respawning<AbstRaven_Bot>::`vftable'
	DD	FLAT:??_E?$Trigger_Respawning@VAbstRaven_Bot@@@@UAEPAXI@Z
	DD	FLAT:?Update@?$Trigger_Respawning@VAbstRaven_Bot@@@@UAEXXZ
	DD	FLAT:__purecall
	DD	FLAT:?HandleMessage@BaseGameEntity@@UAE_NABUTelegram@@@Z
	DD	FLAT:?Write@BaseGameEntity@@UBEXAAV?$basic_ostream@DU?$char_traits@D@std@@@std@@@Z
	DD	FLAT:?Read@BaseGameEntity@@UAEXAAV?$basic_ifstream@DU?$char_traits@D@std@@@std@@@Z
	DD	FLAT:__purecall
; Function compile flags: /Odtp /RTCsu
CONST	ENDS
;	COMDAT ??0?$Trigger_Respawning@VAbstRaven_Bot@@@@QAE@H@Z
_TEXT	SEGMENT
_this$ = -4						; size = 4
_id$ = 8						; size = 4
??0?$Trigger_Respawning@VAbstRaven_Bot@@@@QAE@H@Z PROC	; Trigger_Respawning<AbstRaven_Bot>::Trigger_Respawning<AbstRaven_Bot>, COMDAT
; _this$ = ecx

; 44   :   {}

	push	ebp
	mov	ebp, esp
	push	ecx
	mov	DWORD PTR [ebp-4], -858993460		; ccccccccH
	mov	DWORD PTR _this$[ebp], ecx
	mov	eax, DWORD PTR _id$[ebp]
	push	eax
	mov	ecx, DWORD PTR _this$[ebp]
	call	??0?$Trigger@VAbstRaven_Bot@@@@QAE@I@Z	; Trigger<AbstRaven_Bot>::Trigger<AbstRaven_Bot>
	mov	ecx, DWORD PTR _this$[ebp]
	mov	DWORD PTR [ecx], OFFSET ??_7?$Trigger_Respawning@VAbstRaven_Bot@@@@6B@
	mov	edx, DWORD PTR _this$[ebp]
	mov	DWORD PTR [edx+80], 0
	mov	eax, DWORD PTR _this$[ebp]
	mov	DWORD PTR [eax+84], 0
	mov	eax, DWORD PTR _this$[ebp]
	add	esp, 4
	cmp	ebp, esp
	call	__RTC_CheckEsp
	mov	esp, ebp
	pop	ebp
	ret	4
??0?$Trigger_Respawning@VAbstRaven_Bot@@@@QAE@H@Z ENDP	; Trigger_Respawning<AbstRaven_Bot>::Trigger_Respawning<AbstRaven_Bot>
; Function compile flags: /Odtp /RTCsu
; File c:\users\teaja\documents\artificial-fun\labravenprojecttest\common\game\basegameentity.h
_TEXT	ENDS
;	COMDAT ?Read@BaseGameEntity@@UAEXAAV?$basic_ifstream@DU?$char_traits@D@std@@@std@@@Z
_TEXT	SEGMENT
_this$ = -4						; size = 4
_is$ = 8						; size = 4
?Read@BaseGameEntity@@UAEXAAV?$basic_ifstream@DU?$char_traits@D@std@@@std@@@Z PROC ; BaseGameEntity::Read, COMDAT
; _this$ = ecx

; 79   :   virtual void Read (std::ifstream& is){}

	push	ebp
	mov	ebp, esp
	push	ecx
	mov	DWORD PTR [ebp-4], -858993460		; ccccccccH
	mov	DWORD PTR _this$[ebp], ecx
	mov	esp, ebp
	pop	ebp
	ret	4
?Read@BaseGameEntity@@UAEXAAV?$basic_ifstream@DU?$char_traits@D@std@@@std@@@Z ENDP ; BaseGameEntity::Read
_TEXT	ENDS
PUBLIC	??1?$Trigger@VAbstRaven_Bot@@@@UAE@XZ		; Trigger<AbstRaven_Bot>::~Trigger<AbstRaven_Bot>
; Function compile flags: /Odtp /RTCsu
; File c:\users\teaja\documents\artificial-fun\labravenprojecttest\common\triggers\trigger_respawning.h
;	COMDAT ??1?$Trigger_Respawning@VAbstRaven_Bot@@@@UAE@XZ
_TEXT	SEGMENT
_this$ = -4						; size = 4
??1?$Trigger_Respawning@VAbstRaven_Bot@@@@UAE@XZ PROC	; Trigger_Respawning<AbstRaven_Bot>::~Trigger_Respawning<AbstRaven_Bot>, COMDAT
; _this$ = ecx

; 46   :   virtual ~Trigger_Respawning(){}

	push	ebp
	mov	ebp, esp
	push	ecx
	mov	DWORD PTR [ebp-4], -858993460		; ccccccccH
	mov	DWORD PTR _this$[ebp], ecx
	mov	eax, DWORD PTR _this$[ebp]
	mov	DWORD PTR [eax], OFFSET ??_7?$Trigger_Respawning@VAbstRaven_Bot@@@@6B@
	mov	ecx, DWORD PTR _this$[ebp]
	call	??1?$Trigger@VAbstRaven_Bot@@@@UAE@XZ	; Trigger<AbstRaven_Bot>::~Trigger<AbstRaven_Bot>
	add	esp, 4
	cmp	ebp, esp
	call	__RTC_CheckEsp
	mov	esp, ebp
	pop	ebp
	ret	0
??1?$Trigger_Respawning@VAbstRaven_Bot@@@@UAE@XZ ENDP	; Trigger_Respawning<AbstRaven_Bot>::~Trigger_Respawning<AbstRaven_Bot>
_TEXT	ENDS
PUBLIC	?SetActive@?$Trigger@VAbstRaven_Bot@@@@IAEXXZ	; Trigger<AbstRaven_Bot>::SetActive
; Function compile flags: /Odtp /RTCsu
;	COMDAT ?Update@?$Trigger_Respawning@VAbstRaven_Bot@@@@UAEXXZ
_TEXT	SEGMENT
tv66 = -8						; size = 4
_this$ = -4						; size = 4
?Update@?$Trigger_Respawning@VAbstRaven_Bot@@@@UAEXXZ PROC ; Trigger_Respawning<AbstRaven_Bot>::Update, COMDAT
; _this$ = ecx

; 53   :   {

	push	ebp
	mov	ebp, esp
	sub	esp, 8
	mov	DWORD PTR [ebp-8], -858993460		; ccccccccH
	mov	DWORD PTR [ebp-4], -858993460		; ccccccccH
	mov	DWORD PTR _this$[ebp], ecx

; 54   :     if ( (--m_iNumUpdatesRemainingUntilRespawn <= 0) && !isActive())

	mov	eax, DWORD PTR _this$[ebp]
	mov	ecx, DWORD PTR [eax+84]
	sub	ecx, 1
	mov	DWORD PTR tv66[ebp], ecx
	mov	edx, DWORD PTR _this$[ebp]
	mov	eax, DWORD PTR tv66[ebp]
	mov	DWORD PTR [edx+84], eax
	cmp	DWORD PTR tv66[ebp], 0
	jg	SHORT $LN2@Update
	mov	ecx, DWORD PTR _this$[ebp]
	call	?isActive@?$Trigger@VAbstRaven_Bot@@@@QAE_NXZ ; Trigger<AbstRaven_Bot>::isActive
	movzx	ecx, al
	test	ecx, ecx
	jne	SHORT $LN2@Update

; 55   :     {
; 56   :       SetActive();

	mov	ecx, DWORD PTR _this$[ebp]
	call	?SetActive@?$Trigger@VAbstRaven_Bot@@@@IAEXXZ ; Trigger<AbstRaven_Bot>::SetActive
$LN2@Update:

; 57   :     }
; 58   :   }

	add	esp, 8
	cmp	ebp, esp
	call	__RTC_CheckEsp
	mov	esp, ebp
	pop	ebp
	ret	0
?Update@?$Trigger_Respawning@VAbstRaven_Bot@@@@UAEXXZ ENDP ; Trigger_Respawning<AbstRaven_Bot>::Update
; Function compile flags: /Odtp /RTCsu
_TEXT	ENDS
;	COMDAT ?SetRespawnDelay@?$Trigger_Respawning@VAbstRaven_Bot@@@@QAEXI@Z
_TEXT	SEGMENT
_this$ = -4						; size = 4
_numTicks$ = 8						; size = 4
?SetRespawnDelay@?$Trigger_Respawning@VAbstRaven_Bot@@@@QAEXI@Z PROC ; Trigger_Respawning<AbstRaven_Bot>::SetRespawnDelay, COMDAT
; _this$ = ecx

; 61   :   {m_iNumUpdatesBetweenRespawns = numTicks;}

	push	ebp
	mov	ebp, esp
	push	ecx
	mov	DWORD PTR [ebp-4], -858993460		; ccccccccH
	mov	DWORD PTR _this$[ebp], ecx
	mov	eax, DWORD PTR _this$[ebp]
	mov	ecx, DWORD PTR _numTicks$[ebp]
	mov	DWORD PTR [eax+80], ecx
	mov	esp, ebp
	pop	ebp
	ret	4
?SetRespawnDelay@?$Trigger_Respawning@VAbstRaven_Bot@@@@QAEXI@Z ENDP ; Trigger_Respawning<AbstRaven_Bot>::SetRespawnDelay
; Function compile flags: /Odtp /RTCsu
; File c:\users\teaja\documents\artificial-fun\labravenprojecttest\common\triggers\trigger.h
_TEXT	ENDS
;	COMDAT ?SetGraphNodeIndex@?$Trigger@VAbstRaven_Bot@@@@IAEXH@Z
_TEXT	SEGMENT
_this$ = -4						; size = 4
_idx$ = 8						; size = 4
?SetGraphNodeIndex@?$Trigger@VAbstRaven_Bot@@@@IAEXH@Z PROC ; Trigger<AbstRaven_Bot>::SetGraphNodeIndex, COMDAT
; _this$ = ecx

; 43   :   void SetGraphNodeIndex(int idx){m_iGraphNodeIndex = idx;}

	push	ebp
	mov	ebp, esp
	push	ecx
	mov	DWORD PTR [ebp-4], -858993460		; ccccccccH
	mov	DWORD PTR _this$[ebp], ecx
	mov	eax, DWORD PTR _this$[ebp]
	mov	ecx, DWORD PTR _idx$[ebp]
	mov	DWORD PTR [eax+72], ecx
	mov	esp, ebp
	pop	ebp
	ret	4
?SetGraphNodeIndex@?$Trigger@VAbstRaven_Bot@@@@IAEXH@Z ENDP ; Trigger<AbstRaven_Bot>::SetGraphNodeIndex
_TEXT	ENDS
PUBLIC	??1BaseGameEntity@@UAE@XZ			; BaseGameEntity::~BaseGameEntity
PUBLIC	??_7?$Trigger@VAbstRaven_Bot@@@@6B@		; Trigger<AbstRaven_Bot>::`vftable'
PUBLIC	??_R4?$Trigger@VAbstRaven_Bot@@@@6B@		; Trigger<AbstRaven_Bot>::`RTTI Complete Object Locator'
EXTRN	??_E?$Trigger@VAbstRaven_Bot@@@@UAEPAXI@Z:PROC	; Trigger<AbstRaven_Bot>::`vector deleting destructor'
;	COMDAT ??_R4?$Trigger@VAbstRaven_Bot@@@@6B@
rdata$r	SEGMENT
??_R4?$Trigger@VAbstRaven_Bot@@@@6B@ DD 00H		; Trigger<AbstRaven_Bot>::`RTTI Complete Object Locator'
	DD	00H
	DD	00H
	DD	FLAT:??_R0?AV?$Trigger@VAbstRaven_Bot@@@@@8
	DD	FLAT:??_R3?$Trigger@VAbstRaven_Bot@@@@8
rdata$r	ENDS
;	COMDAT ??_7?$Trigger@VAbstRaven_Bot@@@@6B@
CONST	SEGMENT
??_7?$Trigger@VAbstRaven_Bot@@@@6B@ DD FLAT:??_R4?$Trigger@VAbstRaven_Bot@@@@6B@ ; Trigger<AbstRaven_Bot>::`vftable'
	DD	FLAT:??_E?$Trigger@VAbstRaven_Bot@@@@UAEPAXI@Z
	DD	FLAT:__purecall
	DD	FLAT:__purecall
	DD	FLAT:?HandleMessage@BaseGameEntity@@UAE_NABUTelegram@@@Z
	DD	FLAT:?Write@BaseGameEntity@@UBEXAAV?$basic_ostream@DU?$char_traits@D@std@@@std@@@Z
	DD	FLAT:?Read@BaseGameEntity@@UAEXAAV?$basic_ifstream@DU?$char_traits@D@std@@@std@@@Z
	DD	FLAT:__purecall
CONST	ENDS
;	COMDAT xdata$x
xdata$x	SEGMENT
__unwindtable$??1?$Trigger@VAbstRaven_Bot@@@@UAE@XZ DD 0ffffffffH
	DD	FLAT:__unwindfunclet$??1?$Trigger@VAbstRaven_Bot@@@@UAE@XZ$0
__ehfuncinfo$??1?$Trigger@VAbstRaven_Bot@@@@UAE@XZ DD 019930522H
	DD	01H
	DD	FLAT:__unwindtable$??1?$Trigger@VAbstRaven_Bot@@@@UAE@XZ
	DD	2 DUP(00H)
	DD	2 DUP(00H)
	DD	00H
	DD	01H
; Function compile flags: /Odtp /RTCsu
xdata$x	ENDS
;	COMDAT ??1?$Trigger@VAbstRaven_Bot@@@@UAE@XZ
_TEXT	SEGMENT
tv81 = -28						; size = 4
$T141079 = -24						; size = 4
$T141078 = -20						; size = 4
_this$ = -16						; size = 4
__$EHRec$ = -12						; size = 12
??1?$Trigger@VAbstRaven_Bot@@@@UAE@XZ PROC		; Trigger<AbstRaven_Bot>::~Trigger<AbstRaven_Bot>, COMDAT
; _this$ = ecx

; 67   :   virtual ~Trigger(){delete m_pRegionOfInfluence;}

	push	ebp
	mov	ebp, esp
	push	-1
	push	__ehhandler$??1?$Trigger@VAbstRaven_Bot@@@@UAE@XZ
	mov	eax, DWORD PTR fs:0
	push	eax
	sub	esp, 16					; 00000010H
	push	esi
	mov	eax, -858993460				; ccccccccH
	mov	DWORD PTR [ebp-28], eax
	mov	DWORD PTR [ebp-24], eax
	mov	DWORD PTR [ebp-20], eax
	mov	DWORD PTR [ebp-16], eax
	mov	eax, DWORD PTR ___security_cookie
	xor	eax, ebp
	push	eax
	lea	eax, DWORD PTR __$EHRec$[ebp]
	mov	DWORD PTR fs:0, eax
	mov	DWORD PTR _this$[ebp], ecx
	mov	eax, DWORD PTR _this$[ebp]
	mov	DWORD PTR [eax], OFFSET ??_7?$Trigger@VAbstRaven_Bot@@@@6B@
	mov	DWORD PTR __$EHRec$[ebp+8], 0
	mov	ecx, DWORD PTR _this$[ebp]
	mov	edx, DWORD PTR [ecx+64]
	mov	DWORD PTR $T141079[ebp], edx
	mov	eax, DWORD PTR $T141079[ebp]
	mov	DWORD PTR $T141078[ebp], eax
	cmp	DWORD PTR $T141078[ebp], 0
	je	SHORT $LN3@Trigger
	mov	esi, esp
	push	1
	mov	ecx, DWORD PTR $T141078[ebp]
	mov	edx, DWORD PTR [ecx]
	mov	ecx, DWORD PTR $T141078[ebp]
	mov	eax, DWORD PTR [edx]
	call	eax
	cmp	esi, esp
	call	__RTC_CheckEsp
	mov	DWORD PTR tv81[ebp], eax
	jmp	SHORT $LN1@Trigger
$LN3@Trigger:
	mov	DWORD PTR tv81[ebp], 0
$LN1@Trigger:
	mov	DWORD PTR __$EHRec$[ebp+8], -1
	mov	ecx, DWORD PTR _this$[ebp]
	call	??1BaseGameEntity@@UAE@XZ		; BaseGameEntity::~BaseGameEntity
	mov	ecx, DWORD PTR __$EHRec$[ebp]
	mov	DWORD PTR fs:0, ecx
	pop	ecx
	pop	esi
	add	esp, 28					; 0000001cH
	cmp	ebp, esp
	call	__RTC_CheckEsp
	mov	esp, ebp
	pop	ebp
	ret	0
_TEXT	ENDS
;	COMDAT text$x
text$x	SEGMENT
__unwindfunclet$??1?$Trigger@VAbstRaven_Bot@@@@UAE@XZ$0:
	mov	ecx, DWORD PTR _this$[ebp]
	jmp	??1BaseGameEntity@@UAE@XZ		; BaseGameEntity::~BaseGameEntity
__ehhandler$??1?$Trigger@VAbstRaven_Bot@@@@UAE@XZ:
	mov	edx, DWORD PTR [esp+8]
	lea	eax, DWORD PTR [edx+12]
	mov	ecx, DWORD PTR [edx-24]
	xor	ecx, eax
	call	@__security_check_cookie@4
	mov	eax, OFFSET __ehfuncinfo$??1?$Trigger@VAbstRaven_Bot@@@@UAE@XZ
	jmp	___CxxFrameHandler3
text$x	ENDS
??1?$Trigger@VAbstRaven_Bot@@@@UAE@XZ ENDP		; Trigger<AbstRaven_Bot>::~Trigger<AbstRaven_Bot>
PUBLIC	??_7BaseGameEntity@@6B@				; BaseGameEntity::`vftable'
PUBLIC	??_R4BaseGameEntity@@6B@			; BaseGameEntity::`RTTI Complete Object Locator'
PUBLIC	?Update@BaseGameEntity@@UAEXXZ			; BaseGameEntity::Update
EXTRN	??_EBaseGameEntity@@UAEPAXI@Z:PROC		; BaseGameEntity::`vector deleting destructor'
;	COMDAT ??_R4BaseGameEntity@@6B@
; File c:\users\teaja\documents\artificial-fun\labravenprojecttest\common\game\basegameentity.h
rdata$r	SEGMENT
??_R4BaseGameEntity@@6B@ DD 00H				; BaseGameEntity::`RTTI Complete Object Locator'
	DD	00H
	DD	00H
	DD	FLAT:??_R0?AVBaseGameEntity@@@8
	DD	FLAT:??_R3BaseGameEntity@@8
rdata$r	ENDS
;	COMDAT ??_7BaseGameEntity@@6B@
CONST	SEGMENT
??_7BaseGameEntity@@6B@ DD FLAT:??_R4BaseGameEntity@@6B@ ; BaseGameEntity::`vftable'
	DD	FLAT:??_EBaseGameEntity@@UAEPAXI@Z
	DD	FLAT:?Update@BaseGameEntity@@UAEXXZ
	DD	FLAT:__purecall
	DD	FLAT:?HandleMessage@BaseGameEntity@@UAE_NABUTelegram@@@Z
	DD	FLAT:?Write@BaseGameEntity@@UBEXAAV?$basic_ostream@DU?$char_traits@D@std@@@std@@@Z
	DD	FLAT:?Read@BaseGameEntity@@UAEXAAV?$basic_ifstream@DU?$char_traits@D@std@@@std@@@Z
; Function compile flags: /Odtp /RTCsu
CONST	ENDS
;	COMDAT ??1BaseGameEntity@@UAE@XZ
_TEXT	SEGMENT
_this$ = -4						; size = 4
??1BaseGameEntity@@UAE@XZ PROC				; BaseGameEntity::~BaseGameEntity, COMDAT
; _this$ = ecx

; 69   :   virtual ~BaseGameEntity(){}

	push	ebp
	mov	ebp, esp
	push	ecx
	mov	DWORD PTR [ebp-4], -858993460		; ccccccccH
	mov	DWORD PTR _this$[ebp], ecx
	mov	eax, DWORD PTR _this$[ebp]
	mov	DWORD PTR [eax], OFFSET ??_7BaseGameEntity@@6B@
	mov	esp, ebp
	pop	ebp
	ret	0
??1BaseGameEntity@@UAE@XZ ENDP				; BaseGameEntity::~BaseGameEntity
; Function compile flags: /Odtp /RTCsu
_TEXT	ENDS
;	COMDAT ?Update@BaseGameEntity@@UAEXXZ
_TEXT	SEGMENT
_this$ = -4						; size = 4
?Update@BaseGameEntity@@UAEXXZ PROC			; BaseGameEntity::Update, COMDAT
; _this$ = ecx

; 71   :   virtual void Update(){}; 

	push	ebp
	mov	ebp, esp
	push	ecx
	mov	DWORD PTR [ebp-4], -858993460		; ccccccccH
	mov	DWORD PTR _this$[ebp], ecx
	mov	esp, ebp
	pop	ebp
	ret	0
?Update@BaseGameEntity@@UAEXXZ ENDP			; BaseGameEntity::Update
; Function compile flags: /Odtp /RTCsu
_TEXT	ENDS
;	COMDAT ??_GBaseGameEntity@@UAEPAXI@Z
_TEXT	SEGMENT
_this$ = -4						; size = 4
___flags$ = 8						; size = 4
??_GBaseGameEntity@@UAEPAXI@Z PROC			; BaseGameEntity::`scalar deleting destructor', COMDAT
; _this$ = ecx
	push	ebp
	mov	ebp, esp
	push	ecx
	mov	DWORD PTR [ebp-4], -858993460		; ccccccccH
	mov	DWORD PTR _this$[ebp], ecx
	mov	ecx, DWORD PTR _this$[ebp]
	call	??1BaseGameEntity@@UAE@XZ		; BaseGameEntity::~BaseGameEntity
	mov	eax, DWORD PTR ___flags$[ebp]
	and	eax, 1
	je	SHORT $LN1@scalar@2
	mov	ecx, DWORD PTR _this$[ebp]
	push	ecx
	call	??3@YAXPAX@Z				; operator delete
	add	esp, 4
$LN1@scalar@2:
	mov	eax, DWORD PTR _this$[ebp]
	add	esp, 4
	cmp	ebp, esp
	call	__RTC_CheckEsp
	mov	esp, ebp
	pop	ebp
	ret	4
??_GBaseGameEntity@@UAEPAXI@Z ENDP			; BaseGameEntity::`scalar deleting destructor'
; Function compile flags: /Odtp /RTCsu
; File c:\users\teaja\documents\artificial-fun\labravenprojecttest\common\triggers\trigger.h
_TEXT	ENDS
;	COMDAT ?isActive@?$Trigger@VAbstRaven_Bot@@@@QAE_NXZ
_TEXT	SEGMENT
_this$ = -4						; size = 4
?isActive@?$Trigger@VAbstRaven_Bot@@@@QAE_NXZ PROC	; Trigger<AbstRaven_Bot>::isActive, COMDAT
; _this$ = ecx

; 80   :   bool isActive(){return m_bActive;}

	push	ebp
	mov	ebp, esp
	push	ecx
	mov	DWORD PTR [ebp-4], -858993460		; ccccccccH
	mov	DWORD PTR _this$[ebp], ecx
	mov	eax, DWORD PTR _this$[ebp]
	mov	al, BYTE PTR [eax+69]
	mov	esp, ebp
	pop	ebp
	ret	0
?isActive@?$Trigger@VAbstRaven_Bot@@@@QAE_NXZ ENDP	; Trigger<AbstRaven_Bot>::isActive
; Function compile flags: /Odtp /RTCsu
_TEXT	ENDS
;	COMDAT ??_G?$Trigger_Respawning@VAbstRaven_Bot@@@@UAEPAXI@Z
_TEXT	SEGMENT
_this$ = -4						; size = 4
___flags$ = 8						; size = 4
??_G?$Trigger_Respawning@VAbstRaven_Bot@@@@UAEPAXI@Z PROC ; Trigger_Respawning<AbstRaven_Bot>::`scalar deleting destructor', COMDAT
; _this$ = ecx
	push	ebp
	mov	ebp, esp
	push	ecx
	mov	DWORD PTR [ebp-4], -858993460		; ccccccccH
	mov	DWORD PTR _this$[ebp], ecx
	mov	ecx, DWORD PTR _this$[ebp]
	call	??1?$Trigger_Respawning@VAbstRaven_Bot@@@@UAE@XZ ; Trigger_Respawning<AbstRaven_Bot>::~Trigger_Respawning<AbstRaven_Bot>
	mov	eax, DWORD PTR ___flags$[ebp]
	and	eax, 1
	je	SHORT $LN1@scalar@3
	mov	ecx, DWORD PTR _this$[ebp]
	push	ecx
	call	??3@YAXPAX@Z				; operator delete
	add	esp, 4
$LN1@scalar@3:
	mov	eax, DWORD PTR _this$[ebp]
	add	esp, 4
	cmp	ebp, esp
	call	__RTC_CheckEsp
	mov	esp, ebp
	pop	ebp
	ret	4
??_G?$Trigger_Respawning@VAbstRaven_Bot@@@@UAEPAXI@Z ENDP ; Trigger_Respawning<AbstRaven_Bot>::`scalar deleting destructor'
; Function compile flags: /Odtp /RTCsu
_TEXT	ENDS
;	COMDAT ??_G?$Trigger@VAbstRaven_Bot@@@@UAEPAXI@Z
_TEXT	SEGMENT
_this$ = -4						; size = 4
___flags$ = 8						; size = 4
??_G?$Trigger@VAbstRaven_Bot@@@@UAEPAXI@Z PROC		; Trigger<AbstRaven_Bot>::`scalar deleting destructor', COMDAT
; _this$ = ecx
	push	ebp
	mov	ebp, esp
	push	ecx
	mov	DWORD PTR [ebp-4], -858993460		; ccccccccH
	mov	DWORD PTR _this$[ebp], ecx
	mov	ecx, DWORD PTR _this$[ebp]
	call	??1?$Trigger@VAbstRaven_Bot@@@@UAE@XZ	; Trigger<AbstRaven_Bot>::~Trigger<AbstRaven_Bot>
	mov	eax, DWORD PTR ___flags$[ebp]
	and	eax, 1
	je	SHORT $LN1@scalar@4
	mov	ecx, DWORD PTR _this$[ebp]
	push	ecx
	call	??3@YAXPAX@Z				; operator delete
	add	esp, 4
$LN1@scalar@4:
	mov	eax, DWORD PTR _this$[ebp]
	add	esp, 4
	cmp	ebp, esp
	call	__RTC_CheckEsp
	mov	esp, ebp
	pop	ebp
	ret	4
??_G?$Trigger@VAbstRaven_Bot@@@@UAEPAXI@Z ENDP		; Trigger<AbstRaven_Bot>::`scalar deleting destructor'
_TEXT	ENDS
PUBLIC	?clear@ios_base@std@@QAEXH_N@Z			; std::ios_base::clear
; Function compile flags: /Odtp /RTCsu
; File c:\program files (x86)\microsoft visual studio 10.0\vc\include\ios
;	COMDAT ?clear@?$basic_ios@DU?$char_traits@D@std@@@std@@QAEXH_N@Z
_TEXT	SEGMENT
tv73 = -8						; size = 4
_this$ = -4						; size = 4
__State$ = 8						; size = 4
__Reraise$ = 12						; size = 1
?clear@?$basic_ios@DU?$char_traits@D@std@@@std@@QAEXH_N@Z PROC ; std::basic_ios<char,std::char_traits<char> >::clear, COMDAT
; _this$ = ecx

; 42   : 		{	// set state, possibly reraise exception

	push	ebp
	mov	ebp, esp
	sub	esp, 8
	mov	DWORD PTR [ebp-8], -858993460		; ccccccccH
	mov	DWORD PTR [ebp-4], -858993460		; ccccccccH
	mov	DWORD PTR _this$[ebp], ecx

; 43   : 		ios_base::clear((iostate)(_Mystrbuf == 0
; 44   : 			? (int)_State | (int)badbit : (int)_State), _Reraise);

	mov	eax, DWORD PTR _this$[ebp]
	cmp	DWORD PTR [eax+56], 0
	jne	SHORT $LN3@clear
	mov	ecx, DWORD PTR __State$[ebp]
	or	ecx, 4
	mov	DWORD PTR tv73[ebp], ecx
	jmp	SHORT $LN4@clear
$LN3@clear:
	mov	edx, DWORD PTR __State$[ebp]
	mov	DWORD PTR tv73[ebp], edx
$LN4@clear:
	movzx	eax, BYTE PTR __Reraise$[ebp]
	push	eax
	mov	ecx, DWORD PTR tv73[ebp]
	push	ecx
	mov	ecx, DWORD PTR _this$[ebp]
	call	?clear@ios_base@std@@QAEXH_N@Z		; std::ios_base::clear

; 45   : 		}

	add	esp, 8
	cmp	ebp, esp
	call	__RTC_CheckEsp
	mov	esp, ebp
	pop	ebp
	ret	8
?clear@?$basic_ios@DU?$char_traits@D@std@@@std@@QAEXH_N@Z ENDP ; std::basic_ios<char,std::char_traits<char> >::clear
_TEXT	ENDS
PUBLIC	??_C@_0BF@OOHOMBOF@ios_base?3?3eofbit?5set?$AA@	; `string'
PUBLIC	??_C@_0BG@FMKFHCIL@ios_base?3?3failbit?5set?$AA@ ; `string'
PUBLIC	__TI4?AVfailure@ios_base@std@@
PUBLIC	??0failure@ios_base@std@@QAE@PBDABVerror_code@2@@Z ; std::ios_base::failure::failure
PUBLIC	??_C@_0BF@PHHKMMFD@ios_base?3?3badbit?5set?$AA@	; `string'
PUBLIC	?make_error_code@std@@YA?AVerror_code@1@W4io_errc@31@@Z ; std::make_error_code
PUBLIC	??1failure@ios_base@std@@UAE@XZ			; std::ios_base::failure::~failure
PUBLIC	__CTA4?AVfailure@ios_base@std@@
PUBLIC	__CT??_R0?AVfailure@ios_base@std@@@8??0failure@ios_base@std@@QAE@ABV012@@Z20
PUBLIC	??_R0?AVfailure@ios_base@std@@@8		; std::ios_base::failure `RTTI Type Descriptor'
PUBLIC	??0failure@ios_base@std@@QAE@ABV012@@Z		; std::ios_base::failure::failure
PUBLIC	__CT??_R0?AVsystem_error@std@@@8??0system_error@std@@QAE@ABV01@@Z20
PUBLIC	??_R0?AVsystem_error@std@@@8			; std::system_error `RTTI Type Descriptor'
PUBLIC	??0system_error@std@@QAE@ABV01@@Z		; std::system_error::system_error
PUBLIC	__CT??_R0?AVruntime_error@std@@@8??0runtime_error@std@@QAE@ABV01@@Z12
PUBLIC	??_R0?AVruntime_error@std@@@8			; std::runtime_error `RTTI Type Descriptor'
PUBLIC	??0runtime_error@std@@QAE@ABV01@@Z		; std::runtime_error::runtime_error
PUBLIC	__CT??_R0?AVexception@std@@@8??0exception@std@@QAE@ABV01@@Z12
PUBLIC	??_R0?AVexception@std@@@8			; std::exception `RTTI Type Descriptor'
EXTRN	__CxxThrowException@8:PROC
EXTRN	??0exception@std@@QAE@ABV01@@Z:PROC		; std::exception::exception
;	COMDAT ??_R0?AVexception@std@@@8
; File c:\program files (x86)\microsoft visual studio 10.0\vc\include\xiosbase
_DATA	SEGMENT
??_R0?AVexception@std@@@8 DD FLAT:??_7type_info@@6B@	; std::exception `RTTI Type Descriptor'
	DD	00H
	DB	'.?AVexception@std@@', 00H
_DATA	ENDS
;	COMDAT __CT??_R0?AVexception@std@@@8??0exception@std@@QAE@ABV01@@Z12
xdata$x	SEGMENT
__CT??_R0?AVexception@std@@@8??0exception@std@@QAE@ABV01@@Z12 DD 00H
	DD	FLAT:??_R0?AVexception@std@@@8
	DD	00H
	DD	0ffffffffH
	ORG $+4
	DD	0cH
	DD	FLAT:??0exception@std@@QAE@ABV01@@Z
xdata$x	ENDS
;	COMDAT ??_R0?AVruntime_error@std@@@8
_DATA	SEGMENT
??_R0?AVruntime_error@std@@@8 DD FLAT:??_7type_info@@6B@ ; std::runtime_error `RTTI Type Descriptor'
	DD	00H
	DB	'.?AVruntime_error@std@@', 00H
_DATA	ENDS
;	COMDAT __CT??_R0?AVruntime_error@std@@@8??0runtime_error@std@@QAE@ABV01@@Z12
xdata$x	SEGMENT
__CT??_R0?AVruntime_error@std@@@8??0runtime_error@std@@QAE@ABV01@@Z12 DD 00H
	DD	FLAT:??_R0?AVruntime_error@std@@@8
	DD	00H
	DD	0ffffffffH
	ORG $+4
	DD	0cH
	DD	FLAT:??0runtime_error@std@@QAE@ABV01@@Z
xdata$x	ENDS
;	COMDAT ??_R0?AVsystem_error@std@@@8
_DATA	SEGMENT
??_R0?AVsystem_error@std@@@8 DD FLAT:??_7type_info@@6B@	; std::system_error `RTTI Type Descriptor'
	DD	00H
	DB	'.?AVsystem_error@std@@', 00H
_DATA	ENDS
;	COMDAT __CT??_R0?AVsystem_error@std@@@8??0system_error@std@@QAE@ABV01@@Z20
xdata$x	SEGMENT
__CT??_R0?AVsystem_error@std@@@8??0system_error@std@@QAE@ABV01@@Z20 DD 00H
	DD	FLAT:??_R0?AVsystem_error@std@@@8
	DD	00H
	DD	0ffffffffH
	ORG $+4
	DD	014H
	DD	FLAT:??0system_error@std@@QAE@ABV01@@Z
xdata$x	ENDS
;	COMDAT ??_R0?AVfailure@ios_base@std@@@8
_DATA	SEGMENT
??_R0?AVfailure@ios_base@std@@@8 DD FLAT:??_7type_info@@6B@ ; std::ios_base::failure `RTTI Type Descriptor'
	DD	00H
	DB	'.?AVfailure@ios_base@std@@', 00H
_DATA	ENDS
;	COMDAT __CT??_R0?AVfailure@ios_base@std@@@8??0failure@ios_base@std@@QAE@ABV012@@Z20
xdata$x	SEGMENT
__CT??_R0?AVfailure@ios_base@std@@@8??0failure@ios_base@std@@QAE@ABV012@@Z20 DD 00H
	DD	FLAT:??_R0?AVfailure@ios_base@std@@@8
	DD	00H
	DD	0ffffffffH
	ORG $+4
	DD	014H
	DD	FLAT:??0failure@ios_base@std@@QAE@ABV012@@Z
xdata$x	ENDS
;	COMDAT __CTA4?AVfailure@ios_base@std@@
xdata$x	SEGMENT
__CTA4?AVfailure@ios_base@std@@ DD 04H
	DD	FLAT:__CT??_R0?AVfailure@ios_base@std@@@8??0failure@ios_base@std@@QAE@ABV012@@Z20
	DD	FLAT:__CT??_R0?AVsystem_error@std@@@8??0system_error@std@@QAE@ABV01@@Z20
	DD	FLAT:__CT??_R0?AVruntime_error@std@@@8??0runtime_error@std@@QAE@ABV01@@Z12
	DD	FLAT:__CT??_R0?AVexception@std@@@8??0exception@std@@QAE@ABV01@@Z12
xdata$x	ENDS
;	COMDAT ??_C@_0BF@OOHOMBOF@ios_base?3?3eofbit?5set?$AA@
CONST	SEGMENT
??_C@_0BF@OOHOMBOF@ios_base?3?3eofbit?5set?$AA@ DB 'ios_base::eofbit set', 00H ; `string'
CONST	ENDS
;	COMDAT ??_C@_0BG@FMKFHCIL@ios_base?3?3failbit?5set?$AA@
CONST	SEGMENT
??_C@_0BG@FMKFHCIL@ios_base?3?3failbit?5set?$AA@ DB 'ios_base::failbit se'
	DB	't', 00H					; `string'
CONST	ENDS
;	COMDAT __TI4?AVfailure@ios_base@std@@
xdata$x	SEGMENT
__TI4?AVfailure@ios_base@std@@ DD 00H
	DD	FLAT:??1failure@ios_base@std@@UAE@XZ
	DD	00H
	DD	FLAT:__CTA4?AVfailure@ios_base@std@@
xdata$x	ENDS
;	COMDAT ??_C@_0BF@PHHKMMFD@ios_base?3?3badbit?5set?$AA@
CONST	SEGMENT
??_C@_0BF@PHHKMMFD@ios_base?3?3badbit?5set?$AA@ DB 'ios_base::badbit set', 00H ; `string'
; Function compile flags: /Odtp /RTCsu
CONST	ENDS
;	COMDAT ?clear@ios_base@std@@QAEXH_N@Z
_TEXT	SEGMENT
$T141113 = -88						; size = 8
$T141112 = -80						; size = 20
$T141111 = -60						; size = 8
$T141110 = -52						; size = 20
$T141109 = -32						; size = 8
$T141108 = -24						; size = 20
_this$ = -4						; size = 4
__State$ = 8						; size = 4
__Reraise$ = 12						; size = 1
?clear@ios_base@std@@QAEXH_N@Z PROC			; std::ios_base::clear, COMDAT
; _this$ = ecx

; 310  : 		{	// set state, possibly reraise exception

	push	ebp
	mov	ebp, esp
	sub	esp, 88					; 00000058H
	push	edi
	push	ecx
	lea	edi, DWORD PTR [ebp-88]
	mov	ecx, 22					; 00000016H
	mov	eax, -858993460				; ccccccccH
	rep stosd
	pop	ecx
	mov	DWORD PTR _this$[ebp], ecx

; 311  : 		_Mystate = (iostate)(_State & _Statmask);

	mov	eax, DWORD PTR __State$[ebp]
	and	eax, 23					; 00000017H
	mov	ecx, DWORD PTR _this$[ebp]
	mov	DWORD PTR [ecx+12], eax

; 312  : 		if ((_Mystate & _Except) == 0)

	mov	edx, DWORD PTR _this$[ebp]
	mov	eax, DWORD PTR _this$[ebp]
	mov	ecx, DWORD PTR [edx+12]
	and	ecx, DWORD PTR [eax+16]
	jne	SHORT $LN8@clear@2
	jmp	$LN10@clear@2
$LN8@clear@2:

; 313  : 			;
; 314  : 		else if (_Reraise)

	movzx	edx, BYTE PTR __Reraise$[ebp]
	test	edx, edx
	je	SHORT $LN6@clear@2

; 315  : 			_RERAISE;

	push	0
	push	0
	call	__CxxThrowException@8
	jmp	$LN10@clear@2
$LN6@clear@2:

; 316  : 		else if (_Mystate & _Except & badbit)

	mov	eax, DWORD PTR _this$[ebp]
	mov	ecx, DWORD PTR _this$[ebp]
	mov	edx, DWORD PTR [eax+12]
	and	edx, DWORD PTR [ecx+16]
	and	edx, 4
	je	SHORT $LN4@clear@2

; 317  : 			_THROW_NCEE(failure, "ios_base::badbit set");

	push	1
	lea	eax, DWORD PTR $T141109[ebp]
	push	eax
	call	?make_error_code@std@@YA?AVerror_code@1@W4io_errc@31@@Z ; std::make_error_code
	add	esp, 8
	push	eax
	push	OFFSET ??_C@_0BF@PHHKMMFD@ios_base?3?3badbit?5set?$AA@
	lea	ecx, DWORD PTR $T141108[ebp]
	call	??0failure@ios_base@std@@QAE@PBDABVerror_code@2@@Z ; std::ios_base::failure::failure
	push	OFFSET __TI4?AVfailure@ios_base@std@@
	lea	ecx, DWORD PTR $T141108[ebp]
	push	ecx
	call	__CxxThrowException@8
	jmp	SHORT $LN10@clear@2
$LN4@clear@2:

; 318  : 		else if (_Mystate & _Except & failbit)

	mov	edx, DWORD PTR _this$[ebp]
	mov	eax, DWORD PTR _this$[ebp]
	mov	ecx, DWORD PTR [edx+12]
	and	ecx, DWORD PTR [eax+16]
	and	ecx, 2
	je	SHORT $LN2@clear@2

; 319  : 			_THROW_NCEE(failure, "ios_base::failbit set");

	push	1
	lea	edx, DWORD PTR $T141111[ebp]
	push	edx
	call	?make_error_code@std@@YA?AVerror_code@1@W4io_errc@31@@Z ; std::make_error_code
	add	esp, 8
	push	eax
	push	OFFSET ??_C@_0BG@FMKFHCIL@ios_base?3?3failbit?5set?$AA@
	lea	ecx, DWORD PTR $T141110[ebp]
	call	??0failure@ios_base@std@@QAE@PBDABVerror_code@2@@Z ; std::ios_base::failure::failure
	push	OFFSET __TI4?AVfailure@ios_base@std@@
	lea	eax, DWORD PTR $T141110[ebp]
	push	eax
	call	__CxxThrowException@8

; 320  : 		else

	jmp	SHORT $LN10@clear@2
$LN2@clear@2:

; 321  : 			_THROW_NCEE(failure, "ios_base::eofbit set");

	push	1
	lea	ecx, DWORD PTR $T141113[ebp]
	push	ecx
	call	?make_error_code@std@@YA?AVerror_code@1@W4io_errc@31@@Z ; std::make_error_code
	add	esp, 8
	push	eax
	push	OFFSET ??_C@_0BF@OOHOMBOF@ios_base?3?3eofbit?5set?$AA@
	lea	ecx, DWORD PTR $T141112[ebp]
	call	??0failure@ios_base@std@@QAE@PBDABVerror_code@2@@Z ; std::ios_base::failure::failure
	push	OFFSET __TI4?AVfailure@ios_base@std@@
	lea	edx, DWORD PTR $T141112[ebp]
	push	edx
	call	__CxxThrowException@8
$LN10@clear@2:

; 322  : 		}

	pop	edi
	add	esp, 88					; 00000058H
	cmp	ebp, esp
	call	__RTC_CheckEsp
	mov	esp, ebp
	pop	ebp
	ret	8
?clear@ios_base@std@@QAEXH_N@Z ENDP			; std::ios_base::clear
_TEXT	ENDS
PUBLIC	??_7runtime_error@std@@6B@			; std::runtime_error::`vftable'
PUBLIC	??_R4runtime_error@std@@6B@			; std::runtime_error::`RTTI Complete Object Locator'
PUBLIC	??_R3runtime_error@std@@8			; std::runtime_error::`RTTI Class Hierarchy Descriptor'
PUBLIC	??_R2runtime_error@std@@8			; std::runtime_error::`RTTI Base Class Array'
PUBLIC	??_R1A@?0A@EA@runtime_error@std@@8		; std::runtime_error::`RTTI Base Class Descriptor at (0,-1,0,64)'
PUBLIC	??_R1A@?0A@EA@exception@std@@8			; std::exception::`RTTI Base Class Descriptor at (0,-1,0,64)'
PUBLIC	??_R3exception@std@@8				; std::exception::`RTTI Class Hierarchy Descriptor'
PUBLIC	??_R2exception@std@@8				; std::exception::`RTTI Base Class Array'
EXTRN	??_Eruntime_error@std@@UAEPAXI@Z:PROC		; std::runtime_error::`vector deleting destructor'
EXTRN	?what@exception@std@@UBEPBDXZ:PROC		; std::exception::what
;	COMDAT ??_R2exception@std@@8
rdata$r	SEGMENT
??_R2exception@std@@8 DD FLAT:??_R1A@?0A@EA@exception@std@@8 ; std::exception::`RTTI Base Class Array'
rdata$r	ENDS
;	COMDAT ??_R3exception@std@@8
rdata$r	SEGMENT
??_R3exception@std@@8 DD 00H				; std::exception::`RTTI Class Hierarchy Descriptor'
	DD	00H
	DD	01H
	DD	FLAT:??_R2exception@std@@8
rdata$r	ENDS
;	COMDAT ??_R1A@?0A@EA@exception@std@@8
rdata$r	SEGMENT
??_R1A@?0A@EA@exception@std@@8 DD FLAT:??_R0?AVexception@std@@@8 ; std::exception::`RTTI Base Class Descriptor at (0,-1,0,64)'
	DD	00H
	DD	00H
	DD	0ffffffffH
	DD	00H
	DD	040H
	DD	FLAT:??_R3exception@std@@8
rdata$r	ENDS
;	COMDAT ??_R1A@?0A@EA@runtime_error@std@@8
rdata$r	SEGMENT
??_R1A@?0A@EA@runtime_error@std@@8 DD FLAT:??_R0?AVruntime_error@std@@@8 ; std::runtime_error::`RTTI Base Class Descriptor at (0,-1,0,64)'
	DD	01H
	DD	00H
	DD	0ffffffffH
	DD	00H
	DD	040H
	DD	FLAT:??_R3runtime_error@std@@8
rdata$r	ENDS
;	COMDAT ??_R2runtime_error@std@@8
rdata$r	SEGMENT
??_R2runtime_error@std@@8 DD FLAT:??_R1A@?0A@EA@runtime_error@std@@8 ; std::runtime_error::`RTTI Base Class Array'
	DD	FLAT:??_R1A@?0A@EA@exception@std@@8
rdata$r	ENDS
;	COMDAT ??_R3runtime_error@std@@8
rdata$r	SEGMENT
??_R3runtime_error@std@@8 DD 00H			; std::runtime_error::`RTTI Class Hierarchy Descriptor'
	DD	00H
	DD	02H
	DD	FLAT:??_R2runtime_error@std@@8
rdata$r	ENDS
;	COMDAT ??_R4runtime_error@std@@6B@
rdata$r	SEGMENT
??_R4runtime_error@std@@6B@ DD 00H			; std::runtime_error::`RTTI Complete Object Locator'
	DD	00H
	DD	00H
	DD	FLAT:??_R0?AVruntime_error@std@@@8
	DD	FLAT:??_R3runtime_error@std@@8
rdata$r	ENDS
;	COMDAT ??_7runtime_error@std@@6B@
CONST	SEGMENT
??_7runtime_error@std@@6B@ DD FLAT:??_R4runtime_error@std@@6B@ ; std::runtime_error::`vftable'
	DD	FLAT:??_Eruntime_error@std@@UAEPAXI@Z
	DD	FLAT:?what@exception@std@@UBEPBDXZ
; Function compile flags: /Odtp /RTCsu
CONST	ENDS
;	COMDAT ??0runtime_error@std@@QAE@ABV01@@Z
_TEXT	SEGMENT
_this$ = -4						; size = 4
___that$ = 8						; size = 4
??0runtime_error@std@@QAE@ABV01@@Z PROC			; std::runtime_error::runtime_error, COMDAT
; _this$ = ecx
	push	ebp
	mov	ebp, esp
	push	ecx
	mov	DWORD PTR [ebp-4], -858993460		; ccccccccH
	mov	DWORD PTR _this$[ebp], ecx
	mov	eax, DWORD PTR ___that$[ebp]
	push	eax
	mov	ecx, DWORD PTR _this$[ebp]
	call	??0exception@std@@QAE@ABV01@@Z		; std::exception::exception
	mov	ecx, DWORD PTR _this$[ebp]
	mov	DWORD PTR [ecx], OFFSET ??_7runtime_error@std@@6B@
	mov	eax, DWORD PTR _this$[ebp]
	add	esp, 4
	cmp	ebp, esp
	call	__RTC_CheckEsp
	mov	esp, ebp
	pop	ebp
	ret	4
??0runtime_error@std@@QAE@ABV01@@Z ENDP			; std::runtime_error::runtime_error
_TEXT	ENDS
PUBLIC	??1runtime_error@std@@UAE@XZ			; std::runtime_error::~runtime_error
; Function compile flags: /Odtp /RTCsu
;	COMDAT ??_Gruntime_error@std@@UAEPAXI@Z
_TEXT	SEGMENT
_this$ = -4						; size = 4
___flags$ = 8						; size = 4
??_Gruntime_error@std@@UAEPAXI@Z PROC			; std::runtime_error::`scalar deleting destructor', COMDAT
; _this$ = ecx
	push	ebp
	mov	ebp, esp
	push	ecx
	mov	DWORD PTR [ebp-4], -858993460		; ccccccccH
	mov	DWORD PTR _this$[ebp], ecx
	mov	ecx, DWORD PTR _this$[ebp]
	call	??1runtime_error@std@@UAE@XZ
	mov	eax, DWORD PTR ___flags$[ebp]
	and	eax, 1
	je	SHORT $LN1@scalar@5
	mov	ecx, DWORD PTR _this$[ebp]
	push	ecx
	call	??3@YAXPAX@Z				; operator delete
	add	esp, 4
$LN1@scalar@5:
	mov	eax, DWORD PTR _this$[ebp]
	add	esp, 4
	cmp	ebp, esp
	call	__RTC_CheckEsp
	mov	esp, ebp
	pop	ebp
	ret	4
??_Gruntime_error@std@@UAEPAXI@Z ENDP			; std::runtime_error::`scalar deleting destructor'
_TEXT	ENDS
EXTRN	??1exception@std@@UAE@XZ:PROC			; std::exception::~exception
; Function compile flags: /Odtp /RTCsu
;	COMDAT ??1runtime_error@std@@UAE@XZ
_TEXT	SEGMENT
_this$ = -4						; size = 4
??1runtime_error@std@@UAE@XZ PROC			; std::runtime_error::~runtime_error, COMDAT
; _this$ = ecx
	push	ebp
	mov	ebp, esp
	push	ecx
	mov	DWORD PTR [ebp-4], -858993460		; ccccccccH
	mov	DWORD PTR _this$[ebp], ecx
	mov	ecx, DWORD PTR _this$[ebp]
	call	??1exception@std@@UAE@XZ		; std::exception::~exception
	add	esp, 4
	cmp	ebp, esp
	call	__RTC_CheckEsp
	mov	esp, ebp
	pop	ebp
	ret	0
??1runtime_error@std@@UAE@XZ ENDP			; std::runtime_error::~runtime_error
_TEXT	ENDS
PUBLIC	??0error_code@std@@QAE@HABVerror_category@1@@Z	; std::error_code::error_code
EXTRN	?iostream_category@std@@YAABVerror_category@1@XZ:PROC ; std::iostream_category
; Function compile flags: /Odtp /RTCsu
; File c:\program files (x86)\microsoft visual studio 10.0\vc\include\system_error
;	COMDAT ?make_error_code@std@@YA?AVerror_code@1@W4io_errc@31@@Z
_TEXT	SEGMENT
___$ReturnUdt$ = 8					; size = 4
__Errno$ = 12						; size = 4
?make_error_code@std@@YA?AVerror_code@1@W4io_errc@31@@Z PROC ; std::make_error_code, COMDAT

; 446  : 	{	// make an error_code

	push	ebp
	mov	ebp, esp

; 447  : 	return (error_code(_Errno, iostream_category()));

	call	?iostream_category@std@@YAABVerror_category@1@XZ ; std::iostream_category
	push	eax
	mov	eax, DWORD PTR __Errno$[ebp]
	push	eax
	mov	ecx, DWORD PTR ___$ReturnUdt$[ebp]
	call	??0error_code@std@@QAE@HABVerror_category@1@@Z ; std::error_code::error_code
	mov	eax, DWORD PTR ___$ReturnUdt$[ebp]

; 448  : 	}

	cmp	ebp, esp
	call	__RTC_CheckEsp
	pop	ebp
	ret	0
?make_error_code@std@@YA?AVerror_code@1@W4io_errc@31@@Z ENDP ; std::make_error_code
; Function compile flags: /Odtp /RTCsu
_TEXT	ENDS
;	COMDAT ??0error_code@std@@QAE@HABVerror_category@1@@Z
_TEXT	SEGMENT
_this$ = -4						; size = 4
__Val$ = 8						; size = 4
__Cat$ = 12						; size = 4
??0error_code@std@@QAE@HABVerror_category@1@@Z PROC	; std::error_code::error_code, COMDAT
; _this$ = ecx

; 204  : 		{	// construct from error code and category

	push	ebp
	mov	ebp, esp
	push	ecx
	mov	DWORD PTR [ebp-4], -858993460		; ccccccccH
	mov	DWORD PTR _this$[ebp], ecx
	mov	eax, DWORD PTR _this$[ebp]
	mov	ecx, DWORD PTR __Val$[ebp]
	mov	DWORD PTR [eax], ecx
	mov	edx, DWORD PTR _this$[ebp]
	mov	eax, DWORD PTR __Cat$[ebp]
	mov	DWORD PTR [edx+4], eax

; 205  : 		}

	mov	eax, DWORD PTR _this$[ebp]
	mov	esp, ebp
	pop	ebp
	ret	8
??0error_code@std@@QAE@HABVerror_category@1@@Z ENDP	; std::error_code::error_code
_TEXT	ENDS
PUBLIC	??_7failure@ios_base@std@@6B@			; std::ios_base::failure::`vftable'
PUBLIC	??0system_error@std@@QAE@Verror_code@1@PBD@Z	; std::system_error::system_error
PUBLIC	??_R4failure@ios_base@std@@6B@			; std::ios_base::failure::`RTTI Complete Object Locator'
PUBLIC	??_R3failure@ios_base@std@@8			; std::ios_base::failure::`RTTI Class Hierarchy Descriptor'
PUBLIC	??_R2failure@ios_base@std@@8			; std::ios_base::failure::`RTTI Base Class Array'
PUBLIC	??_R1A@?0A@EA@failure@ios_base@std@@8		; std::ios_base::failure::`RTTI Base Class Descriptor at (0,-1,0,64)'
PUBLIC	??_R1A@?0A@EA@system_error@std@@8		; std::system_error::`RTTI Base Class Descriptor at (0,-1,0,64)'
PUBLIC	??_R3system_error@std@@8			; std::system_error::`RTTI Class Hierarchy Descriptor'
PUBLIC	??_R2system_error@std@@8			; std::system_error::`RTTI Base Class Array'
EXTRN	??_Efailure@ios_base@std@@UAEPAXI@Z:PROC	; std::ios_base::failure::`vector deleting destructor'
;	COMDAT ??_R2system_error@std@@8
; File c:\program files (x86)\microsoft visual studio 10.0\vc\include\xiosbase
rdata$r	SEGMENT
??_R2system_error@std@@8 DD FLAT:??_R1A@?0A@EA@system_error@std@@8 ; std::system_error::`RTTI Base Class Array'
	DD	FLAT:??_R1A@?0A@EA@runtime_error@std@@8
	DD	FLAT:??_R1A@?0A@EA@exception@std@@8
rdata$r	ENDS
;	COMDAT ??_R3system_error@std@@8
rdata$r	SEGMENT
??_R3system_error@std@@8 DD 00H				; std::system_error::`RTTI Class Hierarchy Descriptor'
	DD	00H
	DD	03H
	DD	FLAT:??_R2system_error@std@@8
rdata$r	ENDS
;	COMDAT ??_R1A@?0A@EA@system_error@std@@8
rdata$r	SEGMENT
??_R1A@?0A@EA@system_error@std@@8 DD FLAT:??_R0?AVsystem_error@std@@@8 ; std::system_error::`RTTI Base Class Descriptor at (0,-1,0,64)'
	DD	02H
	DD	00H
	DD	0ffffffffH
	DD	00H
	DD	040H
	DD	FLAT:??_R3system_error@std@@8
rdata$r	ENDS
;	COMDAT ??_R1A@?0A@EA@failure@ios_base@std@@8
rdata$r	SEGMENT
??_R1A@?0A@EA@failure@ios_base@std@@8 DD FLAT:??_R0?AVfailure@ios_base@std@@@8 ; std::ios_base::failure::`RTTI Base Class Descriptor at (0,-1,0,64)'
	DD	03H
	DD	00H
	DD	0ffffffffH
	DD	00H
	DD	040H
	DD	FLAT:??_R3failure@ios_base@std@@8
rdata$r	ENDS
;	COMDAT ??_R2failure@ios_base@std@@8
rdata$r	SEGMENT
??_R2failure@ios_base@std@@8 DD FLAT:??_R1A@?0A@EA@failure@ios_base@std@@8 ; std::ios_base::failure::`RTTI Base Class Array'
	DD	FLAT:??_R1A@?0A@EA@system_error@std@@8
	DD	FLAT:??_R1A@?0A@EA@runtime_error@std@@8
	DD	FLAT:??_R1A@?0A@EA@exception@std@@8
rdata$r	ENDS
;	COMDAT ??_R3failure@ios_base@std@@8
rdata$r	SEGMENT
??_R3failure@ios_base@std@@8 DD 00H			; std::ios_base::failure::`RTTI Class Hierarchy Descriptor'
	DD	00H
	DD	04H
	DD	FLAT:??_R2failure@ios_base@std@@8
rdata$r	ENDS
;	COMDAT ??_R4failure@ios_base@std@@6B@
rdata$r	SEGMENT
??_R4failure@ios_base@std@@6B@ DD 00H			; std::ios_base::failure::`RTTI Complete Object Locator'
	DD	00H
	DD	00H
	DD	FLAT:??_R0?AVfailure@ios_base@std@@@8
	DD	FLAT:??_R3failure@ios_base@std@@8
rdata$r	ENDS
;	COMDAT ??_7failure@ios_base@std@@6B@
CONST	SEGMENT
??_7failure@ios_base@std@@6B@ DD FLAT:??_R4failure@ios_base@std@@6B@ ; std::ios_base::failure::`vftable'
	DD	FLAT:??_Efailure@ios_base@std@@UAEPAXI@Z
	DD	FLAT:?what@exception@std@@UBEPBDXZ
; Function compile flags: /Odtp /RTCsu
CONST	ENDS
;	COMDAT ??0failure@ios_base@std@@QAE@PBDABVerror_code@2@@Z
_TEXT	SEGMENT
_this$ = -4						; size = 4
__Message$ = 8						; size = 4
__Errcode$ = 12						; size = 4
??0failure@ios_base@std@@QAE@PBDABVerror_code@2@@Z PROC	; std::ios_base::failure::failure, COMDAT
; _this$ = ecx

; 237  : 			{	// construct with message

	push	ebp
	mov	ebp, esp
	push	ecx
	mov	DWORD PTR [ebp-4], -858993460		; ccccccccH
	mov	DWORD PTR _this$[ebp], ecx
	mov	eax, DWORD PTR __Message$[ebp]
	push	eax
	mov	ecx, DWORD PTR __Errcode$[ebp]
	mov	edx, DWORD PTR [ecx+4]
	push	edx
	mov	eax, DWORD PTR [ecx]
	push	eax
	mov	ecx, DWORD PTR _this$[ebp]
	call	??0system_error@std@@QAE@Verror_code@1@PBD@Z ; std::system_error::system_error
	mov	ecx, DWORD PTR _this$[ebp]
	mov	DWORD PTR [ecx], OFFSET ??_7failure@ios_base@std@@6B@

; 238  : 			}

	mov	eax, DWORD PTR _this$[ebp]
	add	esp, 4
	cmp	ebp, esp
	call	__RTC_CheckEsp
	mov	esp, ebp
	pop	ebp
	ret	8
??0failure@ios_base@std@@QAE@PBDABVerror_code@2@@Z ENDP	; std::ios_base::failure::failure
_TEXT	ENDS
PUBLIC	?_Makestr@system_error@std@@AAEXXZ		; std::system_error::_Makestr
PUBLIC	??_7system_error@std@@6B@			; std::system_error::`vftable'
PUBLIC	??0runtime_error@std@@QAE@PBD@Z			; std::runtime_error::runtime_error
PUBLIC	??_R4system_error@std@@6B@			; std::system_error::`RTTI Complete Object Locator'
EXTRN	??_Esystem_error@std@@UAEPAXI@Z:PROC		; std::system_error::`vector deleting destructor'
;	COMDAT ??_R4system_error@std@@6B@
; File c:\program files (x86)\microsoft visual studio 10.0\vc\include\system_error
rdata$r	SEGMENT
??_R4system_error@std@@6B@ DD 00H			; std::system_error::`RTTI Complete Object Locator'
	DD	00H
	DD	00H
	DD	FLAT:??_R0?AVsystem_error@std@@@8
	DD	FLAT:??_R3system_error@std@@8
rdata$r	ENDS
;	COMDAT ??_7system_error@std@@6B@
CONST	SEGMENT
??_7system_error@std@@6B@ DD FLAT:??_R4system_error@std@@6B@ ; std::system_error::`vftable'
	DD	FLAT:??_Esystem_error@std@@UAEPAXI@Z
	DD	FLAT:?what@exception@std@@UBEPBDXZ
CONST	ENDS
;	COMDAT xdata$x
xdata$x	SEGMENT
__unwindtable$??0system_error@std@@QAE@Verror_code@1@PBD@Z DD 0ffffffffH
	DD	FLAT:__unwindfunclet$??0system_error@std@@QAE@Verror_code@1@PBD@Z$0
__ehfuncinfo$??0system_error@std@@QAE@Verror_code@1@PBD@Z DD 019930522H
	DD	01H
	DD	FLAT:__unwindtable$??0system_error@std@@QAE@Verror_code@1@PBD@Z
	DD	2 DUP(00H)
	DD	2 DUP(00H)
	DD	00H
	DD	01H
; Function compile flags: /Odtp /RTCsu
xdata$x	ENDS
;	COMDAT ??0system_error@std@@QAE@Verror_code@1@PBD@Z
_TEXT	SEGMENT
_this$ = -16						; size = 4
__$EHRec$ = -12						; size = 12
__Errcode$ = 8						; size = 8
__Message$ = 16						; size = 4
??0system_error@std@@QAE@Verror_code@1@PBD@Z PROC	; std::system_error::system_error, COMDAT
; _this$ = ecx

; 516  : 		{	// construct from error code and message string

	push	ebp
	mov	ebp, esp
	push	-1
	push	__ehhandler$??0system_error@std@@QAE@Verror_code@1@PBD@Z
	mov	eax, DWORD PTR fs:0
	push	eax
	push	ecx
	mov	DWORD PTR [ebp-16], -858993460		; ccccccccH
	mov	eax, DWORD PTR ___security_cookie
	xor	eax, ebp
	push	eax
	lea	eax, DWORD PTR __$EHRec$[ebp]
	mov	DWORD PTR fs:0, eax
	mov	DWORD PTR _this$[ebp], ecx
	mov	eax, DWORD PTR __Message$[ebp]
	push	eax
	mov	ecx, DWORD PTR _this$[ebp]
	call	??0runtime_error@std@@QAE@PBD@Z		; std::runtime_error::runtime_error
	mov	DWORD PTR __$EHRec$[ebp+8], 0
	mov	ecx, DWORD PTR _this$[ebp]
	mov	DWORD PTR [ecx], OFFSET ??_7system_error@std@@6B@
	mov	edx, DWORD PTR _this$[ebp]
	mov	eax, DWORD PTR __Errcode$[ebp]
	mov	DWORD PTR [edx+12], eax
	mov	ecx, DWORD PTR __Errcode$[ebp+4]
	mov	DWORD PTR [edx+16], ecx

; 517  : 		_Makestr();

	mov	ecx, DWORD PTR _this$[ebp]
	call	?_Makestr@system_error@std@@AAEXXZ	; std::system_error::_Makestr

; 518  : 		}

	mov	DWORD PTR __$EHRec$[ebp+8], -1
	mov	eax, DWORD PTR _this$[ebp]
	mov	ecx, DWORD PTR __$EHRec$[ebp]
	mov	DWORD PTR fs:0, ecx
	pop	ecx
	add	esp, 16					; 00000010H
	cmp	ebp, esp
	call	__RTC_CheckEsp
	mov	esp, ebp
	pop	ebp
	ret	12					; 0000000cH
_TEXT	ENDS
;	COMDAT text$x
text$x	SEGMENT
__unwindfunclet$??0system_error@std@@QAE@Verror_code@1@PBD@Z$0:
	mov	ecx, DWORD PTR _this$[ebp]
	jmp	??1runtime_error@std@@UAE@XZ
__ehhandler$??0system_error@std@@QAE@Verror_code@1@PBD@Z:
	mov	edx, DWORD PTR [esp+8]
	lea	eax, DWORD PTR [edx+12]
	mov	ecx, DWORD PTR [edx-8]
	xor	ecx, eax
	call	@__security_check_cookie@4
	mov	eax, OFFSET __ehfuncinfo$??0system_error@std@@QAE@Verror_code@1@PBD@Z
	jmp	___CxxFrameHandler3
text$x	ENDS
??0system_error@std@@QAE@Verror_code@1@PBD@Z ENDP	; std::system_error::system_error
EXTRN	??0exception@std@@QAE@ABQBD@Z:PROC		; std::exception::exception
; Function compile flags: /Odtp /RTCsu
; File c:\program files (x86)\microsoft visual studio 10.0\vc\include\stdexcept
;	COMDAT ??0runtime_error@std@@QAE@PBD@Z
_TEXT	SEGMENT
_this$ = -4						; size = 4
__Message$ = 8						; size = 4
??0runtime_error@std@@QAE@PBD@Z PROC			; std::runtime_error::runtime_error, COMDAT
; _this$ = ecx

; 170  : 		{	// construct from message string

	push	ebp
	mov	ebp, esp
	push	ecx
	mov	DWORD PTR [ebp-4], -858993460		; ccccccccH
	mov	DWORD PTR _this$[ebp], ecx
	lea	eax, DWORD PTR __Message$[ebp]
	push	eax
	mov	ecx, DWORD PTR _this$[ebp]
	call	??0exception@std@@QAE@ABQBD@Z		; std::exception::exception
	mov	ecx, DWORD PTR _this$[ebp]
	mov	DWORD PTR [ecx], OFFSET ??_7runtime_error@std@@6B@

; 171  : 		}

	mov	eax, DWORD PTR _this$[ebp]
	add	esp, 4
	cmp	ebp, esp
	call	__RTC_CheckEsp
	mov	esp, ebp
	pop	ebp
	ret	4
??0runtime_error@std@@QAE@PBD@Z ENDP			; std::runtime_error::runtime_error
; Function compile flags: /Odtp /RTCsu
; File c:\program files (x86)\microsoft visual studio 10.0\vc\include\system_error
_TEXT	ENDS
;	COMDAT ?_Makestr@system_error@std@@AAEXXZ
_TEXT	SEGMENT
_this$ = -4						; size = 4
?_Makestr@system_error@std@@AAEXXZ PROC			; std::system_error::_Makestr, COMDAT
; _this$ = ecx

; 562  : 		{	// compose error message

	push	ebp
	mov	ebp, esp
	push	ecx
	mov	DWORD PTR [ebp-4], -858993460		; ccccccccH
	mov	DWORD PTR _this$[ebp], ecx

; 563  : //		_Mymes = this->runtime_error::what();
; 564  : //		if (!_Mymes.empty())
; 565  : //			_Mymes.append(": ");
; 566  : //		_Mymes.append(_Mycode.message());
; 567  : 		}

	mov	esp, ebp
	pop	ebp
	ret	0
?_Makestr@system_error@std@@AAEXXZ ENDP			; std::system_error::_Makestr
_TEXT	ENDS
PUBLIC	??1system_error@std@@UAE@XZ			; std::system_error::~system_error
; Function compile flags: /Odtp /RTCsu
;	COMDAT ??_Gsystem_error@std@@UAEPAXI@Z
_TEXT	SEGMENT
_this$ = -4						; size = 4
___flags$ = 8						; size = 4
??_Gsystem_error@std@@UAEPAXI@Z PROC			; std::system_error::`scalar deleting destructor', COMDAT
; _this$ = ecx
	push	ebp
	mov	ebp, esp
	push	ecx
	mov	DWORD PTR [ebp-4], -858993460		; ccccccccH
	mov	DWORD PTR _this$[ebp], ecx
	mov	ecx, DWORD PTR _this$[ebp]
	call	??1system_error@std@@UAE@XZ
	mov	eax, DWORD PTR ___flags$[ebp]
	and	eax, 1
	je	SHORT $LN1@scalar@6
	mov	ecx, DWORD PTR _this$[ebp]
	push	ecx
	call	??3@YAXPAX@Z				; operator delete
	add	esp, 4
$LN1@scalar@6:
	mov	eax, DWORD PTR _this$[ebp]
	add	esp, 4
	cmp	ebp, esp
	call	__RTC_CheckEsp
	mov	esp, ebp
	pop	ebp
	ret	4
??_Gsystem_error@std@@UAEPAXI@Z ENDP			; std::system_error::`scalar deleting destructor'
; Function compile flags: /Odtp /RTCsu
_TEXT	ENDS
;	COMDAT ??1system_error@std@@UAE@XZ
_TEXT	SEGMENT
_this$ = -4						; size = 4
??1system_error@std@@UAE@XZ PROC			; std::system_error::~system_error, COMDAT
; _this$ = ecx
	push	ebp
	mov	ebp, esp
	push	ecx
	mov	DWORD PTR [ebp-4], -858993460		; ccccccccH
	mov	DWORD PTR _this$[ebp], ecx
	mov	ecx, DWORD PTR _this$[ebp]
	call	??1runtime_error@std@@UAE@XZ
	add	esp, 4
	cmp	ebp, esp
	call	__RTC_CheckEsp
	mov	esp, ebp
	pop	ebp
	ret	0
??1system_error@std@@UAE@XZ ENDP			; std::system_error::~system_error
; Function compile flags: /Odtp /RTCsu
_TEXT	ENDS
;	COMDAT ??_Gfailure@ios_base@std@@UAEPAXI@Z
_TEXT	SEGMENT
_this$ = -4						; size = 4
___flags$ = 8						; size = 4
??_Gfailure@ios_base@std@@UAEPAXI@Z PROC		; std::ios_base::failure::`scalar deleting destructor', COMDAT
; _this$ = ecx
	push	ebp
	mov	ebp, esp
	push	ecx
	mov	DWORD PTR [ebp-4], -858993460		; ccccccccH
	mov	DWORD PTR _this$[ebp], ecx
	mov	ecx, DWORD PTR _this$[ebp]
	call	??1failure@ios_base@std@@UAE@XZ
	mov	eax, DWORD PTR ___flags$[ebp]
	and	eax, 1
	je	SHORT $LN1@scalar@7
	mov	ecx, DWORD PTR _this$[ebp]
	push	ecx
	call	??3@YAXPAX@Z				; operator delete
	add	esp, 4
$LN1@scalar@7:
	mov	eax, DWORD PTR _this$[ebp]
	add	esp, 4
	cmp	ebp, esp
	call	__RTC_CheckEsp
	mov	esp, ebp
	pop	ebp
	ret	4
??_Gfailure@ios_base@std@@UAEPAXI@Z ENDP		; std::ios_base::failure::`scalar deleting destructor'
; Function compile flags: /Odtp /RTCsu
_TEXT	ENDS
;	COMDAT ??1failure@ios_base@std@@UAE@XZ
_TEXT	SEGMENT
_this$ = -4						; size = 4
??1failure@ios_base@std@@UAE@XZ PROC			; std::ios_base::failure::~failure, COMDAT
; _this$ = ecx
	push	ebp
	mov	ebp, esp
	push	ecx
	mov	DWORD PTR [ebp-4], -858993460		; ccccccccH
	mov	DWORD PTR _this$[ebp], ecx
	mov	ecx, DWORD PTR _this$[ebp]
	call	??1system_error@std@@UAE@XZ
	add	esp, 4
	cmp	ebp, esp
	call	__RTC_CheckEsp
	mov	esp, ebp
	pop	ebp
	ret	0
??1failure@ios_base@std@@UAE@XZ ENDP			; std::ios_base::failure::~failure
; Function compile flags: /Odtp /RTCsu
_TEXT	ENDS
;	COMDAT ??0failure@ios_base@std@@QAE@ABV012@@Z
_TEXT	SEGMENT
_this$ = -4						; size = 4
___that$ = 8						; size = 4
??0failure@ios_base@std@@QAE@ABV012@@Z PROC		; std::ios_base::failure::failure, COMDAT
; _this$ = ecx
	push	ebp
	mov	ebp, esp
	push	ecx
	mov	DWORD PTR [ebp-4], -858993460		; ccccccccH
	mov	DWORD PTR _this$[ebp], ecx
	mov	eax, DWORD PTR ___that$[ebp]
	push	eax
	mov	ecx, DWORD PTR _this$[ebp]
	call	??0system_error@std@@QAE@ABV01@@Z
	mov	ecx, DWORD PTR _this$[ebp]
	mov	DWORD PTR [ecx], OFFSET ??_7failure@ios_base@std@@6B@
	mov	eax, DWORD PTR _this$[ebp]
	add	esp, 4
	cmp	ebp, esp
	call	__RTC_CheckEsp
	mov	esp, ebp
	pop	ebp
	ret	4
??0failure@ios_base@std@@QAE@ABV012@@Z ENDP		; std::ios_base::failure::failure
; Function compile flags: /Odtp /RTCsu
_TEXT	ENDS
;	COMDAT ??0system_error@std@@QAE@ABV01@@Z
_TEXT	SEGMENT
_this$ = -4						; size = 4
___that$ = 8						; size = 4
??0system_error@std@@QAE@ABV01@@Z PROC			; std::system_error::system_error, COMDAT
; _this$ = ecx
	push	ebp
	mov	ebp, esp
	push	ecx
	mov	DWORD PTR [ebp-4], -858993460		; ccccccccH
	mov	DWORD PTR _this$[ebp], ecx
	mov	eax, DWORD PTR ___that$[ebp]
	push	eax
	mov	ecx, DWORD PTR _this$[ebp]
	call	??0runtime_error@std@@QAE@ABV01@@Z
	mov	ecx, DWORD PTR _this$[ebp]
	mov	DWORD PTR [ecx], OFFSET ??_7system_error@std@@6B@
	mov	edx, DWORD PTR ___that$[ebp]
	mov	eax, DWORD PTR [edx+12]
	mov	ecx, DWORD PTR [edx+16]
	mov	edx, DWORD PTR _this$[ebp]
	mov	DWORD PTR [edx+12], eax
	mov	DWORD PTR [edx+16], ecx
	mov	eax, DWORD PTR _this$[ebp]
	add	esp, 4
	cmp	ebp, esp
	call	__RTC_CheckEsp
	mov	esp, ebp
	pop	ebp
	ret	4
??0system_error@std@@QAE@ABV01@@Z ENDP			; std::system_error::system_error
_TEXT	ENDS
PUBLIC	?is@?$ctype@D@std@@QBE_NFD@Z			; std::ctype<char>::is
PUBLIC	?to_char_type@?$char_traits@D@std@@SADABH@Z	; std::char_traits<char>::to_char_type
PUBLIC	?eq_int_type@?$char_traits@D@std@@SA_NABH0@Z	; std::char_traits<char>::eq_int_type
PUBLIC	?eof@?$char_traits@D@std@@SAHXZ			; std::char_traits<char>::eof
PUBLIC	?snextc@?$basic_streambuf@DU?$char_traits@D@std@@@std@@QAEHXZ ; std::basic_streambuf<char,std::char_traits<char> >::snextc
PUBLIC	?sgetc@?$basic_streambuf@DU?$char_traits@D@std@@@std@@QAEHXZ ; std::basic_streambuf<char,std::char_traits<char> >::sgetc
PUBLIC	??$use_facet@V?$ctype@D@std@@@std@@YAABV?$ctype@D@0@ABVlocale@0@@Z ; std::use_facet<std::ctype<char> >
PUBLIC	?flags@ios_base@std@@QBEHXZ			; std::ios_base::flags
PUBLIC	?flush@?$basic_ostream@DU?$char_traits@D@std@@@std@@QAEAAV12@XZ ; std::basic_ostream<char,std::char_traits<char> >::flush
PUBLIC	?tie@?$basic_ios@DU?$char_traits@D@std@@@std@@QBEPAV?$basic_ostream@DU?$char_traits@D@std@@@2@XZ ; std::basic_ios<char,std::char_traits<char> >::tie
PUBLIC	?good@ios_base@std@@QBE_NXZ			; std::ios_base::good
;	COMDAT xdata$x
; File c:\program files (x86)\microsoft visual studio 10.0\vc\include\istream
xdata$x	SEGMENT
__catchsym$?_Ipfx@?$basic_istream@DU?$char_traits@D@std@@@std@@QAE_N_N@Z$3 DD 040H
	DD	00H
	DD	00H
	DD	FLAT:__catch$?_Ipfx@?$basic_istream@DU?$char_traits@D@std@@@std@@QAE_N_N@Z$0
__tryblocktable$?_Ipfx@?$basic_istream@DU?$char_traits@D@std@@@std@@QAE_N_N@Z DD 01H
	DD	01H
	DD	02H
	DD	01H
	DD	FLAT:__catchsym$?_Ipfx@?$basic_istream@DU?$char_traits@D@std@@@std@@QAE_N_N@Z$3
__unwindtable$?_Ipfx@?$basic_istream@DU?$char_traits@D@std@@@std@@QAE_N_N@Z DD 0ffffffffH
	DD	FLAT:__unwindfunclet$?_Ipfx@?$basic_istream@DU?$char_traits@D@std@@@std@@QAE_N_N@Z$2
	DD	0ffffffffH
	DD	00H
	DD	0ffffffffH
	DD	00H
__ehfuncinfo$?_Ipfx@?$basic_istream@DU?$char_traits@D@std@@@std@@QAE_N_N@Z DD 019930522H
	DD	03H
	DD	FLAT:__unwindtable$?_Ipfx@?$basic_istream@DU?$char_traits@D@std@@@std@@QAE_N_N@Z
	DD	01H
	DD	FLAT:__tryblocktable$?_Ipfx@?$basic_istream@DU?$char_traits@D@std@@@std@@QAE_N_N@Z
	DD	2 DUP(00H)
	DD	00H
	DD	01H
; Function compile flags: /Odtp /RTCsu
xdata$x	ENDS
;	COMDAT ?_Ipfx@?$basic_istream@DU?$char_traits@D@std@@@std@@QAE_N_N@Z
_TEXT	SEGMENT
tv264 = -75						; size = 1
tv263 = -74						; size = 1
tv262 = -73						; size = 1
tv261 = -72						; size = 4
tv260 = -68						; size = 4
tv259 = -64						; size = 4
tv258 = -60						; size = 4
tv257 = -56						; size = 4
tv254 = -52						; size = 4
tv256 = -48						; size = 4
$T141162 = -44						; size = 4
$T141161 = -40						; size = 4
__Meta$134348 = -32					; size = 4
__Ctype_fac$134344 = -24				; size = 4
_this$ = -20						; size = 4
__$EHRec$ = -16						; size = 16
__Noskip$ = 8						; size = 1
?_Ipfx@?$basic_istream@DU?$char_traits@D@std@@@std@@QAE_N_N@Z PROC ; std::basic_istream<char,std::char_traits<char> >::_Ipfx, COMDAT
; _this$ = ecx

; 116  : 		{	// test stream state and skip whitespace as needed

	push	ebp
	mov	ebp, esp
	push	-1
	push	__ehhandler$?_Ipfx@?$basic_istream@DU?$char_traits@D@std@@@std@@QAE_N_N@Z
	mov	eax, DWORD PTR fs:0
	push	eax
	push	ecx
	sub	esp, 60					; 0000003cH
	push	ebx
	push	esi
	push	edi
	push	ecx
	lea	edi, DWORD PTR [ebp-76]
	mov	ecx, 15					; 0000000fH
	mov	eax, -858993460				; ccccccccH
	rep stosd
	pop	ecx
	mov	eax, DWORD PTR ___security_cookie
	xor	eax, ebp
	push	eax
	lea	eax, DWORD PTR __$EHRec$[ebp+4]
	mov	DWORD PTR fs:0, eax
	mov	DWORD PTR __$EHRec$[ebp], esp
	mov	DWORD PTR _this$[ebp], ecx

; 117  : 		if (ios_base::good())

	mov	eax, DWORD PTR _this$[ebp]
	mov	ecx, DWORD PTR [eax]
	mov	edx, DWORD PTR _this$[ebp]
	add	edx, DWORD PTR [ecx+4]
	mov	ecx, edx
	call	?good@ios_base@std@@QBE_NXZ		; std::ios_base::good
	movzx	eax, al
	test	eax, eax
	je	$LN11@Ipfx

; 118  : 			{	// state okay, flush tied stream and skip whitespace
; 119  : 			if (_Myios::tie() != 0)

	mov	ecx, DWORD PTR _this$[ebp]
	mov	edx, DWORD PTR [ecx]
	mov	ecx, DWORD PTR _this$[ebp]
	add	ecx, DWORD PTR [edx+4]
	call	?tie@?$basic_ios@DU?$char_traits@D@std@@@std@@QBEPAV?$basic_ostream@DU?$char_traits@D@std@@@2@XZ ; std::basic_ios<char,std::char_traits<char> >::tie
	test	eax, eax
	je	SHORT $LN10@Ipfx

; 120  : 				_Myios::tie()->flush();

	mov	eax, DWORD PTR _this$[ebp]
	mov	ecx, DWORD PTR [eax]
	mov	edx, DWORD PTR _this$[ebp]
	add	edx, DWORD PTR [ecx+4]
	mov	ecx, edx
	call	?tie@?$basic_ios@DU?$char_traits@D@std@@@std@@QBEPAV?$basic_ostream@DU?$char_traits@D@std@@@2@XZ ; std::basic_ios<char,std::char_traits<char> >::tie
	mov	ecx, eax
	call	?flush@?$basic_ostream@DU?$char_traits@D@std@@@std@@QAEAAV12@XZ ; std::basic_ostream<char,std::char_traits<char> >::flush
$LN10@Ipfx:

; 121  : 
; 122  : 			if (!_Noskip && ios_base::flags() & ios_base::skipws)

	movzx	eax, BYTE PTR __Noskip$[ebp]
	test	eax, eax
	jne	$LN9@Ipfx
	mov	ecx, DWORD PTR _this$[ebp]
	mov	edx, DWORD PTR [ecx]
	mov	ecx, DWORD PTR _this$[ebp]
	add	ecx, DWORD PTR [edx+4]
	call	?flags@ios_base@std@@QBEHXZ		; std::ios_base::flags
	and	eax, 1
	je	$LN9@Ipfx

; 123  : 				{	// skip whitespace
; 124  : 				const _Ctype& _Ctype_fac = _USE(ios_base::getloc(), _Ctype);

	lea	eax, DWORD PTR $T141161[ebp]
	push	eax
	mov	ecx, DWORD PTR _this$[ebp]
	mov	edx, DWORD PTR [ecx]
	mov	ecx, DWORD PTR _this$[ebp]
	add	ecx, DWORD PTR [edx+4]
	call	?getloc@ios_base@std@@QBE?AVlocale@2@XZ	; std::ios_base::getloc
	mov	DWORD PTR tv256[ebp], eax
	mov	eax, DWORD PTR tv256[ebp]
	mov	DWORD PTR tv254[ebp], eax
	mov	DWORD PTR __$EHRec$[ebp+12], 0
	mov	ecx, DWORD PTR tv254[ebp]
	push	ecx
	call	??$use_facet@V?$ctype@D@std@@@std@@YAABV?$ctype@D@0@ABVlocale@0@@Z ; std::use_facet<std::ctype<char> >
	add	esp, 4
	mov	DWORD PTR __Ctype_fac$134344[ebp], eax
	mov	DWORD PTR __$EHRec$[ebp+12], -1
	lea	ecx, DWORD PTR $T141161[ebp]
	call	??1locale@std@@QAE@XZ			; std::locale::~locale

; 125  : 
; 126  : 				_TRY_IO_BEGIN

	mov	DWORD PTR __$EHRec$[ebp+12], 1

; 127  : 				int_type _Meta = _Myios::rdbuf()->sgetc();

	mov	edx, DWORD PTR _this$[ebp]
	mov	eax, DWORD PTR [edx]
	mov	ecx, DWORD PTR _this$[ebp]
	add	ecx, DWORD PTR [eax+4]
	call	?rdbuf@?$basic_ios@DU?$char_traits@D@std@@@std@@QBEPAV?$basic_streambuf@DU?$char_traits@D@std@@@2@XZ ; std::basic_ios<char,std::char_traits<char> >::rdbuf
	mov	DWORD PTR tv257[ebp], eax
	mov	ecx, DWORD PTR tv257[ebp]
	call	?sgetc@?$basic_streambuf@DU?$char_traits@D@std@@@std@@QAEHXZ ; std::basic_streambuf<char,std::char_traits<char> >::sgetc
	mov	DWORD PTR tv258[ebp], eax
	mov	ecx, DWORD PTR tv258[ebp]
	mov	DWORD PTR __Meta$134348[ebp], ecx
	jmp	SHORT $LN7@Ipfx
$LN6@Ipfx:

; 128  : 
; 129  : 				for (; ; _Meta = _Myios::rdbuf()->snextc())

	mov	edx, DWORD PTR _this$[ebp]
	mov	eax, DWORD PTR [edx]
	mov	ecx, DWORD PTR _this$[ebp]
	add	ecx, DWORD PTR [eax+4]
	call	?rdbuf@?$basic_ios@DU?$char_traits@D@std@@@std@@QBEPAV?$basic_streambuf@DU?$char_traits@D@std@@@2@XZ ; std::basic_ios<char,std::char_traits<char> >::rdbuf
	mov	DWORD PTR tv259[ebp], eax
	mov	ecx, DWORD PTR tv259[ebp]
	call	?snextc@?$basic_streambuf@DU?$char_traits@D@std@@@std@@QAEHXZ ; std::basic_streambuf<char,std::char_traits<char> >::snextc
	mov	DWORD PTR tv260[ebp], eax
	mov	ecx, DWORD PTR tv260[ebp]
	mov	DWORD PTR __Meta$134348[ebp], ecx
$LN7@Ipfx:

; 130  : 					if (_Traits::eq_int_type(_Traits::eof(), _Meta))

	call	?eof@?$char_traits@D@std@@SAHXZ		; std::char_traits<char>::eof
	mov	DWORD PTR tv261[ebp], eax
	mov	edx, DWORD PTR tv261[ebp]
	mov	DWORD PTR $T141162[ebp], edx
	lea	eax, DWORD PTR __Meta$134348[ebp]
	push	eax
	lea	ecx, DWORD PTR $T141162[ebp]
	push	ecx
	call	?eq_int_type@?$char_traits@D@std@@SA_NABH0@Z ; std::char_traits<char>::eq_int_type
	add	esp, 8
	mov	BYTE PTR tv262[ebp], al
	movzx	edx, BYTE PTR tv262[ebp]
	test	edx, edx
	je	SHORT $LN4@Ipfx

; 131  : 						{	// end of file, quit
; 132  : 						_Myios::setstate(ios_base::eofbit);

	push	0
	push	1
	mov	eax, DWORD PTR _this$[ebp]
	mov	ecx, DWORD PTR [eax]
	mov	edx, DWORD PTR _this$[ebp]
	add	edx, DWORD PTR [ecx+4]
	mov	ecx, edx
	call	?setstate@?$basic_ios@DU?$char_traits@D@std@@@std@@QAEXH_N@Z ; std::basic_ios<char,std::char_traits<char> >::setstate

; 133  : 						break;

	jmp	SHORT $LN5@Ipfx

; 134  : 						}
; 135  : 					else if (!_Ctype_fac.is(_Ctype::space,

	jmp	SHORT $LN3@Ipfx
$LN4@Ipfx:

; 136  : 						_Traits::to_char_type(_Meta)))

	lea	eax, DWORD PTR __Meta$134348[ebp]
	push	eax
	call	?to_char_type@?$char_traits@D@std@@SADABH@Z ; std::char_traits<char>::to_char_type
	add	esp, 4
	mov	BYTE PTR tv263[ebp], al
	movzx	ecx, BYTE PTR tv263[ebp]
	push	ecx
	push	72					; 00000048H
	mov	ecx, DWORD PTR __Ctype_fac$134344[ebp]
	call	?is@?$ctype@D@std@@QBE_NFD@Z		; std::ctype<char>::is
	mov	BYTE PTR tv264[ebp], al
	movzx	edx, BYTE PTR tv264[ebp]
	test	edx, edx
	jne	SHORT $LN3@Ipfx

; 137  : 						break;	// not whitespace, quit

	jmp	SHORT $LN5@Ipfx
$LN3@Ipfx:

; 138  : 				_CATCH_IO_END

	jmp	$LN6@Ipfx
$LN5@Ipfx:
	jmp	SHORT $LN14@Ipfx
__catch$?_Ipfx@?$basic_istream@DU?$char_traits@D@std@@@std@@QAE_N_N@Z$0:
	push	1
	push	4
	mov	eax, DWORD PTR _this$[ebp]
	mov	ecx, DWORD PTR [eax]
	mov	edx, DWORD PTR _this$[ebp]
	add	edx, DWORD PTR [ecx+4]
	mov	ecx, edx
	call	?setstate@?$basic_ios@DU?$char_traits@D@std@@@std@@QAEXH_N@Z ; std::basic_ios<char,std::char_traits<char> >::setstate
	mov	DWORD PTR __$EHRec$[ebp+12], -1
	mov	eax, $LN9@Ipfx
	ret	0
$LN14@Ipfx:
	mov	DWORD PTR __$EHRec$[ebp+12], -1
$LN9@Ipfx:

; 139  : 				}
; 140  : 
; 141  : 			if (ios_base::good())

	mov	eax, DWORD PTR _this$[ebp]
	mov	ecx, DWORD PTR [eax]
	mov	edx, DWORD PTR _this$[ebp]
	add	edx, DWORD PTR [ecx+4]
	mov	ecx, edx
	call	?good@ios_base@std@@QBE_NXZ		; std::ios_base::good
	movzx	eax, al
	test	eax, eax
	je	SHORT $LN11@Ipfx

; 142  : 				return (true);

	mov	al, 1
	jmp	SHORT $LN12@Ipfx
$LN11@Ipfx:

; 143  : 			}
; 144  : 		_Myios::setstate(ios_base::failbit);

	push	0
	push	2
	mov	ecx, DWORD PTR _this$[ebp]
	mov	edx, DWORD PTR [ecx]
	mov	ecx, DWORD PTR _this$[ebp]
	add	ecx, DWORD PTR [edx+4]
	call	?setstate@?$basic_ios@DU?$char_traits@D@std@@@std@@QAEXH_N@Z ; std::basic_ios<char,std::char_traits<char> >::setstate

; 145  : 		return (false);

	xor	al, al
$LN12@Ipfx:

; 146  : 		}

	push	edx
	mov	ecx, ebp
	push	eax
	lea	edx, DWORD PTR $LN23@Ipfx
	call	@_RTC_CheckStackVars@8
	pop	eax
	pop	edx
	mov	ecx, DWORD PTR __$EHRec$[ebp+4]
	mov	DWORD PTR fs:0, ecx
	pop	ecx
	pop	edi
	pop	esi
	pop	ebx
	add	esp, 76					; 0000004cH
	cmp	ebp, esp
	call	__RTC_CheckEsp
	mov	esp, ebp
	pop	ebp
	ret	4
	npad	1
$LN23@Ipfx:
	DD	1
	DD	$LN22@Ipfx
$LN22@Ipfx:
	DD	-32					; ffffffe0H
	DD	4
	DD	$LN20@Ipfx
$LN20@Ipfx:
	DB	95					; 0000005fH
	DB	77					; 0000004dH
	DB	101					; 00000065H
	DB	116					; 00000074H
	DB	97					; 00000061H
	DB	0
_TEXT	ENDS
;	COMDAT text$x
text$x	SEGMENT
__unwindfunclet$?_Ipfx@?$basic_istream@DU?$char_traits@D@std@@@std@@QAE_N_N@Z$2:
	lea	ecx, DWORD PTR $T141161[ebp]
	jmp	??1locale@std@@QAE@XZ			; std::locale::~locale
__ehhandler$?_Ipfx@?$basic_istream@DU?$char_traits@D@std@@@std@@QAE_N_N@Z:
	mov	edx, DWORD PTR [esp+8]
	lea	eax, DWORD PTR [edx+12]
	mov	ecx, DWORD PTR [edx-80]
	xor	ecx, eax
	call	@__security_check_cookie@4
	mov	eax, OFFSET __ehfuncinfo$?_Ipfx@?$basic_istream@DU?$char_traits@D@std@@@std@@QAE_N_N@Z
	jmp	___CxxFrameHandler3
text$x	ENDS
?_Ipfx@?$basic_istream@DU?$char_traits@D@std@@@std@@QAE_N_N@Z ENDP ; std::basic_istream<char,std::char_traits<char> >::_Ipfx
; Function compile flags: /Odtp /RTCsu
; File c:\program files (x86)\microsoft visual studio 10.0\vc\include\iosfwd
;	COMDAT ?to_char_type@?$char_traits@D@std@@SADABH@Z
_TEXT	SEGMENT
__Meta$ = 8						; size = 4
?to_char_type@?$char_traits@D@std@@SADABH@Z PROC	; std::char_traits<char>::to_char_type, COMDAT

; 541  : 		{	// convert metacharacter to character

	push	ebp
	mov	ebp, esp

; 542  : 		return ((_Elem)_Meta);

	mov	eax, DWORD PTR __Meta$[ebp]
	mov	al, BYTE PTR [eax]

; 543  : 		}

	pop	ebp
	ret	0
?to_char_type@?$char_traits@D@std@@SADABH@Z ENDP	; std::char_traits<char>::to_char_type
; Function compile flags: /Odtp /RTCsu
_TEXT	ENDS
;	COMDAT ?eq_int_type@?$char_traits@D@std@@SA_NABH0@Z
_TEXT	SEGMENT
__Left$ = 8						; size = 4
__Right$ = 12						; size = 4
?eq_int_type@?$char_traits@D@std@@SA_NABH0@Z PROC	; std::char_traits<char>::eq_int_type, COMDAT

; 552  : 		{	// test for metacharacter equality

	push	ebp
	mov	ebp, esp

; 553  : 		return (_Left == _Right);

	mov	eax, DWORD PTR __Left$[ebp]
	mov	ecx, DWORD PTR __Right$[ebp]
	mov	edx, DWORD PTR [eax]
	xor	eax, eax
	cmp	edx, DWORD PTR [ecx]
	sete	al

; 554  : 		}

	pop	ebp
	ret	0
?eq_int_type@?$char_traits@D@std@@SA_NABH0@Z ENDP	; std::char_traits<char>::eq_int_type
; Function compile flags: /Odtp /RTCsu
_TEXT	ENDS
;	COMDAT ?eof@?$char_traits@D@std@@SAHXZ
_TEXT	SEGMENT
?eof@?$char_traits@D@std@@SAHXZ PROC			; std::char_traits<char>::eof, COMDAT

; 562  : 		{	// return end-of-file metacharacter

	push	ebp
	mov	ebp, esp

; 563  : 		return (EOF);

	or	eax, -1

; 564  : 		}

	pop	ebp
	ret	0
?eof@?$char_traits@D@std@@SAHXZ ENDP			; std::char_traits<char>::eof
; Function compile flags: /Odtp /RTCsu
; File c:\program files (x86)\microsoft visual studio 10.0\vc\include\xlocale
_TEXT	ENDS
;	COMDAT ?is@?$ctype@D@std@@QBE_NFD@Z
_TEXT	SEGMENT
_this$ = -4						; size = 4
__Maskval$ = 8						; size = 2
__Ch$ = 12						; size = 1
?is@?$ctype@D@std@@QBE_NFD@Z PROC			; std::ctype<char>::is, COMDAT
; _this$ = ecx

; 2271 : 		{	// test if element fits any mask classifications

	push	ebp
	mov	ebp, esp
	push	ecx
	mov	DWORD PTR [ebp-4], -858993460		; ccccccccH
	mov	DWORD PTR _this$[ebp], ecx

; 2272 : 		return ((_Ctype._Table[(unsigned char)_Ch] & _Maskval) != 0);

	movzx	eax, BYTE PTR __Ch$[ebp]
	mov	ecx, DWORD PTR _this$[ebp]
	mov	edx, DWORD PTR [ecx+16]
	movsx	eax, WORD PTR [edx+eax*2]
	movsx	ecx, WORD PTR __Maskval$[ebp]
	and	eax, ecx
	neg	eax
	sbb	eax, eax
	neg	eax

; 2273 : 		}

	mov	esp, ebp
	pop	ebp
	ret	8
?is@?$ctype@D@std@@QBE_NFD@Z ENDP			; std::ctype<char>::is
; Function compile flags: /Odtp /RTCsu
; File c:\program files (x86)\microsoft visual studio 10.0\vc\include\xiosbase
_TEXT	ENDS
;	COMDAT ?good@ios_base@std@@QBE_NXZ
_TEXT	SEGMENT
_this$ = -4						; size = 4
?good@ios_base@std@@QBE_NXZ PROC			; std::ios_base::good, COMDAT
; _this$ = ecx

; 357  : 		{	// test if no state bits are set

	push	ebp
	mov	ebp, esp
	push	ecx
	mov	DWORD PTR [ebp-4], -858993460		; ccccccccH
	mov	DWORD PTR _this$[ebp], ecx

; 358  : 		return (rdstate() == goodbit);

	mov	ecx, DWORD PTR _this$[ebp]
	call	?rdstate@ios_base@std@@QBEHXZ		; std::ios_base::rdstate
	neg	eax
	sbb	eax, eax
	add	eax, 1

; 359  : 		}

	add	esp, 4
	cmp	ebp, esp
	call	__RTC_CheckEsp
	mov	esp, ebp
	pop	ebp
	ret	0
?good@ios_base@std@@QBE_NXZ ENDP			; std::ios_base::good
; Function compile flags: /Odtp /RTCsu
_TEXT	ENDS
;	COMDAT ?flags@ios_base@std@@QBEHXZ
_TEXT	SEGMENT
_this$ = -4						; size = 4
?flags@ios_base@std@@QBEHXZ PROC			; std::ios_base::flags, COMDAT
; _this$ = ecx

; 394  : 		{	// return format flags

	push	ebp
	mov	ebp, esp
	push	ecx
	mov	DWORD PTR [ebp-4], -858993460		; ccccccccH
	mov	DWORD PTR _this$[ebp], ecx

; 395  : 		return (_Fmtfl);

	mov	eax, DWORD PTR _this$[ebp]
	mov	eax, DWORD PTR [eax+20]

; 396  : 		}

	mov	esp, ebp
	pop	ebp
	ret	0
?flags@ios_base@std@@QBEHXZ ENDP			; std::ios_base::flags
_TEXT	ENDS
PUBLIC	?pubsync@?$basic_streambuf@DU?$char_traits@D@std@@@std@@QAEHXZ ; std::basic_streambuf<char,std::char_traits<char> >::pubsync
PUBLIC	?fail@ios_base@std@@QBE_NXZ			; std::ios_base::fail
; Function compile flags: /Odtp /RTCsu
; File c:\program files (x86)\microsoft visual studio 10.0\vc\include\ostream
;	COMDAT ?flush@?$basic_ostream@DU?$char_traits@D@std@@@std@@QAEAAV12@XZ
_TEXT	SEGMENT
__State$ = -8						; size = 4
_this$ = -4						; size = 4
?flush@?$basic_ostream@DU?$char_traits@D@std@@@std@@QAEAAV12@XZ PROC ; std::basic_ostream<char,std::char_traits<char> >::flush, COMDAT
; _this$ = ecx

; 570  : 		{	// flush output stream

	push	ebp
	mov	ebp, esp
	sub	esp, 8
	mov	DWORD PTR [ebp-8], -858993460		; ccccccccH
	mov	DWORD PTR [ebp-4], -858993460		; ccccccccH
	mov	DWORD PTR _this$[ebp], ecx

; 571  : 		ios_base::iostate _State = ios_base::goodbit;

	mov	DWORD PTR __State$[ebp], 0

; 572  : 		if (!ios_base::fail() && _Myios::rdbuf()->pubsync() == -1)

	mov	eax, DWORD PTR _this$[ebp]
	mov	ecx, DWORD PTR [eax]
	mov	edx, DWORD PTR _this$[ebp]
	add	edx, DWORD PTR [ecx+4]
	mov	ecx, edx
	call	?fail@ios_base@std@@QBE_NXZ		; std::ios_base::fail
	movzx	eax, al
	test	eax, eax
	jne	SHORT $LN1@flush
	mov	ecx, DWORD PTR _this$[ebp]
	mov	edx, DWORD PTR [ecx]
	mov	ecx, DWORD PTR _this$[ebp]
	add	ecx, DWORD PTR [edx+4]
	call	?rdbuf@?$basic_ios@DU?$char_traits@D@std@@@std@@QBEPAV?$basic_streambuf@DU?$char_traits@D@std@@@2@XZ ; std::basic_ios<char,std::char_traits<char> >::rdbuf
	mov	ecx, eax
	call	?pubsync@?$basic_streambuf@DU?$char_traits@D@std@@@std@@QAEHXZ ; std::basic_streambuf<char,std::char_traits<char> >::pubsync
	cmp	eax, -1
	jne	SHORT $LN1@flush

; 573  : 			_State |= ios_base::badbit;	// sync failed

	mov	eax, DWORD PTR __State$[ebp]
	or	eax, 4
	mov	DWORD PTR __State$[ebp], eax
$LN1@flush:

; 574  : 		_Myios::setstate(_State);

	push	0
	mov	ecx, DWORD PTR __State$[ebp]
	push	ecx
	mov	edx, DWORD PTR _this$[ebp]
	mov	eax, DWORD PTR [edx]
	mov	ecx, DWORD PTR _this$[ebp]
	add	ecx, DWORD PTR [eax+4]
	call	?setstate@?$basic_ios@DU?$char_traits@D@std@@@std@@QAEXH_N@Z ; std::basic_ios<char,std::char_traits<char> >::setstate

; 575  : 		return (*this);

	mov	eax, DWORD PTR _this$[ebp]

; 576  : 		}

	add	esp, 8
	cmp	ebp, esp
	call	__RTC_CheckEsp
	mov	esp, ebp
	pop	ebp
	ret	0
?flush@?$basic_ostream@DU?$char_traits@D@std@@@std@@QAEAAV12@XZ ENDP ; std::basic_ostream<char,std::char_traits<char> >::flush
; Function compile flags: /Odtp /RTCsu
; File c:\program files (x86)\microsoft visual studio 10.0\vc\include\xiosbase
_TEXT	ENDS
;	COMDAT ?fail@ios_base@std@@QBE_NXZ
_TEXT	SEGMENT
_this$ = -4						; size = 4
?fail@ios_base@std@@QBE_NXZ PROC			; std::ios_base::fail, COMDAT
; _this$ = ecx

; 367  : 		{	// test if badbit or failbit is set in stream state

	push	ebp
	mov	ebp, esp
	push	ecx
	mov	DWORD PTR [ebp-4], -858993460		; ccccccccH
	mov	DWORD PTR _this$[ebp], ecx

; 368  : 		return (((int)rdstate()
; 369  : 			& ((int)badbit | (int)failbit)) != 0);

	mov	ecx, DWORD PTR _this$[ebp]
	call	?rdstate@ios_base@std@@QBEHXZ		; std::ios_base::rdstate
	and	eax, 6
	neg	eax
	sbb	eax, eax
	neg	eax

; 370  : 		}

	add	esp, 4
	cmp	ebp, esp
	call	__RTC_CheckEsp
	mov	esp, ebp
	pop	ebp
	ret	0
?fail@ios_base@std@@QBE_NXZ ENDP			; std::ios_base::fail
_TEXT	ENDS
PUBLIC	?to_int_type@?$char_traits@D@std@@SAHABD@Z	; std::char_traits<char>::to_int_type
PUBLIC	?gptr@?$basic_streambuf@DU?$char_traits@D@std@@@std@@IBEPADXZ ; std::basic_streambuf<char,std::char_traits<char> >::gptr
PUBLIC	?_Gnavail@?$basic_streambuf@DU?$char_traits@D@std@@@std@@IBE_JXZ ; std::basic_streambuf<char,std::char_traits<char> >::_Gnavail
; Function compile flags: /Odtp /RTCsu
; File c:\program files (x86)\microsoft visual studio 10.0\vc\include\streambuf
;	COMDAT ?sgetc@?$basic_streambuf@DU?$char_traits@D@std@@@std@@QAEHXZ
_TEXT	SEGMENT
tv75 = -16						; size = 4
tv82 = -12						; size = 8
_this$ = -4						; size = 4
?sgetc@?$basic_streambuf@DU?$char_traits@D@std@@@std@@QAEHXZ PROC ; std::basic_streambuf<char,std::char_traits<char> >::sgetc, COMDAT
; _this$ = ecx

; 151  : 		{	// get a character and don't point past it

	push	ebp
	mov	ebp, esp
	sub	esp, 16					; 00000010H
	push	esi
	mov	eax, -858993460				; ccccccccH
	mov	DWORD PTR [ebp-16], eax
	mov	DWORD PTR [ebp-12], eax
	mov	DWORD PTR [ebp-8], eax
	mov	DWORD PTR [ebp-4], eax
	mov	DWORD PTR _this$[ebp], ecx

; 152  : 		return (0 < _Gnavail()
; 153  : 			? _Traits::to_int_type(*gptr()) : underflow());

	mov	ecx, DWORD PTR _this$[ebp]
	call	?_Gnavail@?$basic_streambuf@DU?$char_traits@D@std@@@std@@IBE_JXZ ; std::basic_streambuf<char,std::char_traits<char> >::_Gnavail
	mov	DWORD PTR tv82[ebp], eax
	mov	DWORD PTR tv82[ebp+4], edx
	cmp	DWORD PTR tv82[ebp+4], 0
	jl	SHORT $LN3@sgetc
	jg	SHORT $LN5@sgetc
	cmp	DWORD PTR tv82[ebp], 0
	jbe	SHORT $LN3@sgetc
$LN5@sgetc:
	mov	ecx, DWORD PTR _this$[ebp]
	call	?gptr@?$basic_streambuf@DU?$char_traits@D@std@@@std@@IBEPADXZ ; std::basic_streambuf<char,std::char_traits<char> >::gptr
	push	eax
	call	?to_int_type@?$char_traits@D@std@@SAHABD@Z ; std::char_traits<char>::to_int_type
	add	esp, 4
	mov	DWORD PTR tv75[ebp], eax
	jmp	SHORT $LN4@sgetc
$LN3@sgetc:
	mov	eax, DWORD PTR _this$[ebp]
	mov	edx, DWORD PTR [eax]
	mov	esi, esp
	mov	ecx, DWORD PTR _this$[ebp]
	mov	eax, DWORD PTR [edx+24]
	call	eax
	cmp	esi, esp
	call	__RTC_CheckEsp
	mov	DWORD PTR tv75[ebp], eax
$LN4@sgetc:
	mov	eax, DWORD PTR tv75[ebp]

; 154  : 		}

	pop	esi
	add	esp, 16					; 00000010H
	cmp	ebp, esp
	call	__RTC_CheckEsp
	mov	esp, ebp
	pop	ebp
	ret	0
?sgetc@?$basic_streambuf@DU?$char_traits@D@std@@@std@@QAEHXZ ENDP ; std::basic_streambuf<char,std::char_traits<char> >::sgetc
; Function compile flags: /Odtp /RTCsu
; File c:\program files (x86)\microsoft visual studio 10.0\vc\include\iosfwd
_TEXT	ENDS
;	COMDAT ?to_int_type@?$char_traits@D@std@@SAHABD@Z
_TEXT	SEGMENT
__Ch$ = 8						; size = 4
?to_int_type@?$char_traits@D@std@@SAHABD@Z PROC		; std::char_traits<char>::to_int_type, COMDAT

; 546  : 		{	// convert character to metacharacter

	push	ebp
	mov	ebp, esp

; 547  : 		return ((unsigned char)_Ch);

	mov	eax, DWORD PTR __Ch$[ebp]
	movzx	eax, BYTE PTR [eax]

; 548  : 		}

	pop	ebp
	ret	0
?to_int_type@?$char_traits@D@std@@SAHABD@Z ENDP		; std::char_traits<char>::to_int_type
_TEXT	ENDS
PUBLIC	?sbumpc@?$basic_streambuf@DU?$char_traits@D@std@@@std@@QAEHXZ ; std::basic_streambuf<char,std::char_traits<char> >::sbumpc
PUBLIC	?_Gnpreinc@?$basic_streambuf@DU?$char_traits@D@std@@@std@@IAEPADXZ ; std::basic_streambuf<char,std::char_traits<char> >::_Gnpreinc
; Function compile flags: /Odtp /RTCsu
; File c:\program files (x86)\microsoft visual studio 10.0\vc\include\streambuf
;	COMDAT ?snextc@?$basic_streambuf@DU?$char_traits@D@std@@@std@@QAEHXZ
_TEXT	SEGMENT
tv82 = -28						; size = 4
tv83 = -24						; size = 4
tv89 = -20						; size = 8
$T141206 = -12						; size = 4
$T141205 = -8						; size = 4
_this$ = -4						; size = 4
?snextc@?$basic_streambuf@DU?$char_traits@D@std@@@std@@QAEHXZ PROC ; std::basic_streambuf<char,std::char_traits<char> >::snextc, COMDAT
; _this$ = ecx

; 163  : 		{	// point to next character and return it

	push	ebp
	mov	ebp, esp
	sub	esp, 28					; 0000001cH
	mov	eax, -858993460				; ccccccccH
	mov	DWORD PTR [ebp-28], eax
	mov	DWORD PTR [ebp-24], eax
	mov	DWORD PTR [ebp-20], eax
	mov	DWORD PTR [ebp-16], eax
	mov	DWORD PTR [ebp-12], eax
	mov	DWORD PTR [ebp-8], eax
	mov	DWORD PTR [ebp-4], eax
	mov	DWORD PTR _this$[ebp], ecx

; 164  : 		return (1 < _Gnavail()
; 165  : 			? _Traits::to_int_type(*_Gnpreinc())
; 166  : 			: _Traits::eq_int_type(_Traits::eof(), sbumpc())
; 167  : 				? _Traits::eof() : sgetc());

	mov	ecx, DWORD PTR _this$[ebp]
	call	?_Gnavail@?$basic_streambuf@DU?$char_traits@D@std@@@std@@IBE_JXZ ; std::basic_streambuf<char,std::char_traits<char> >::_Gnavail
	mov	DWORD PTR tv89[ebp], eax
	mov	DWORD PTR tv89[ebp+4], edx
	cmp	DWORD PTR tv89[ebp+4], 0
	jl	SHORT $LN5@snextc
	jg	SHORT $LN7@snextc
	cmp	DWORD PTR tv89[ebp], 1
	jbe	SHORT $LN5@snextc
$LN7@snextc:
	mov	ecx, DWORD PTR _this$[ebp]
	call	?_Gnpreinc@?$basic_streambuf@DU?$char_traits@D@std@@@std@@IAEPADXZ ; std::basic_streambuf<char,std::char_traits<char> >::_Gnpreinc
	push	eax
	call	?to_int_type@?$char_traits@D@std@@SAHABD@Z ; std::char_traits<char>::to_int_type
	add	esp, 4
	mov	DWORD PTR tv83[ebp], eax
	jmp	SHORT $LN6@snextc
$LN5@snextc:
	mov	ecx, DWORD PTR _this$[ebp]
	call	?sbumpc@?$basic_streambuf@DU?$char_traits@D@std@@@std@@QAEHXZ ; std::basic_streambuf<char,std::char_traits<char> >::sbumpc
	mov	DWORD PTR $T141205[ebp], eax
	call	?eof@?$char_traits@D@std@@SAHXZ		; std::char_traits<char>::eof
	mov	DWORD PTR $T141206[ebp], eax
	lea	eax, DWORD PTR $T141205[ebp]
	push	eax
	lea	ecx, DWORD PTR $T141206[ebp]
	push	ecx
	call	?eq_int_type@?$char_traits@D@std@@SA_NABH0@Z ; std::char_traits<char>::eq_int_type
	add	esp, 8
	movzx	edx, al
	test	edx, edx
	je	SHORT $LN3@snextc
	call	?eof@?$char_traits@D@std@@SAHXZ		; std::char_traits<char>::eof
	mov	DWORD PTR tv82[ebp], eax
	jmp	SHORT $LN4@snextc
$LN3@snextc:
	mov	ecx, DWORD PTR _this$[ebp]
	call	?sgetc@?$basic_streambuf@DU?$char_traits@D@std@@@std@@QAEHXZ ; std::basic_streambuf<char,std::char_traits<char> >::sgetc
	mov	DWORD PTR tv82[ebp], eax
$LN4@snextc:
	mov	eax, DWORD PTR tv82[ebp]
	mov	DWORD PTR tv83[ebp], eax
$LN6@snextc:
	mov	eax, DWORD PTR tv83[ebp]

; 168  : 		}

	add	esp, 28					; 0000001cH
	cmp	ebp, esp
	call	__RTC_CheckEsp
	mov	esp, ebp
	pop	ebp
	ret	0
?snextc@?$basic_streambuf@DU?$char_traits@D@std@@@std@@QAEHXZ ENDP ; std::basic_streambuf<char,std::char_traits<char> >::snextc
; Function compile flags: /Odtp /RTCsu
; File c:\program files (x86)\microsoft visual studio 10.0\vc\include\istream
_TEXT	ENDS
;	COMDAT ??0_Sentry_base@?$basic_istream@DU?$char_traits@D@std@@@std@@QAE@AAV12@@Z
_TEXT	SEGMENT
tv90 = -8						; size = 4
_this$ = -4						; size = 4
__Istr$ = 8						; size = 4
??0_Sentry_base@?$basic_istream@DU?$char_traits@D@std@@@std@@QAE@AAV12@@Z PROC ; std::basic_istream<char,std::char_traits<char> >::_Sentry_base::_Sentry_base, COMDAT
; _this$ = ecx

; 76   : 			{	// lock the stream buffer, if there

	push	ebp
	mov	ebp, esp
	sub	esp, 8
	push	esi
	mov	DWORD PTR [ebp-8], -858993460		; ccccccccH
	mov	DWORD PTR [ebp-4], -858993460		; ccccccccH
	mov	DWORD PTR _this$[ebp], ecx
	mov	eax, DWORD PTR _this$[ebp]
	mov	ecx, DWORD PTR __Istr$[ebp]
	mov	DWORD PTR [eax], ecx

; 77   : 			if (_Myistr.rdbuf() != 0)

	mov	edx, DWORD PTR _this$[ebp]
	mov	eax, DWORD PTR [edx]
	mov	ecx, DWORD PTR [eax]
	mov	edx, DWORD PTR _this$[ebp]
	mov	eax, DWORD PTR [edx]
	add	eax, DWORD PTR [ecx+4]
	mov	ecx, eax
	call	?rdbuf@?$basic_ios@DU?$char_traits@D@std@@@std@@QBEPAV?$basic_streambuf@DU?$char_traits@D@std@@@2@XZ ; std::basic_ios<char,std::char_traits<char> >::rdbuf
	test	eax, eax
	je	SHORT $LN2@Sentry_bas@2

; 78   : 				_Myistr.rdbuf()->_Lock();

	mov	ecx, DWORD PTR _this$[ebp]
	mov	edx, DWORD PTR [ecx]
	mov	eax, DWORD PTR [edx]
	mov	ecx, DWORD PTR _this$[ebp]
	mov	ecx, DWORD PTR [ecx]
	add	ecx, DWORD PTR [eax+4]
	call	?rdbuf@?$basic_ios@DU?$char_traits@D@std@@@std@@QBEPAV?$basic_streambuf@DU?$char_traits@D@std@@@2@XZ ; std::basic_ios<char,std::char_traits<char> >::rdbuf
	mov	DWORD PTR tv90[ebp], eax
	mov	edx, DWORD PTR tv90[ebp]
	mov	eax, DWORD PTR [edx]
	mov	esi, esp
	mov	ecx, DWORD PTR tv90[ebp]
	mov	edx, DWORD PTR [eax+4]
	call	edx
	cmp	esi, esp
	call	__RTC_CheckEsp
$LN2@Sentry_bas@2:

; 79   : 			}

	mov	eax, DWORD PTR _this$[ebp]
	pop	esi
	add	esp, 8
	cmp	ebp, esp
	call	__RTC_CheckEsp
	mov	esp, ebp
	pop	ebp
	ret	4
??0_Sentry_base@?$basic_istream@DU?$char_traits@D@std@@@std@@QAE@AAV12@@Z ENDP ; std::basic_istream<char,std::char_traits<char> >::_Sentry_base::_Sentry_base
; Function compile flags: /Odtp /RTCsu
; File c:\program files (x86)\microsoft visual studio 10.0\vc\include\streambuf
_TEXT	ENDS
;	COMDAT ?pubsync@?$basic_streambuf@DU?$char_traits@D@std@@@std@@QAEHXZ
_TEXT	SEGMENT
_this$ = -4						; size = 4
?pubsync@?$basic_streambuf@DU?$char_traits@D@std@@@std@@QAEHXZ PROC ; std::basic_streambuf<char,std::char_traits<char> >::pubsync, COMDAT
; _this$ = ecx

; 140  : 		{	// synchronize with external agent

	push	ebp
	mov	ebp, esp
	push	ecx
	push	esi
	mov	DWORD PTR [ebp-4], -858993460		; ccccccccH
	mov	DWORD PTR _this$[ebp], ecx

; 141  : 		return (sync());

	mov	eax, DWORD PTR _this$[ebp]
	mov	edx, DWORD PTR [eax]
	mov	esi, esp
	mov	ecx, DWORD PTR _this$[ebp]
	mov	eax, DWORD PTR [edx+52]
	call	eax
	cmp	esi, esp
	call	__RTC_CheckEsp

; 142  : 		}

	pop	esi
	add	esp, 4
	cmp	ebp, esp
	call	__RTC_CheckEsp
	mov	esp, ebp
	pop	ebp
	ret	0
?pubsync@?$basic_streambuf@DU?$char_traits@D@std@@@std@@QAEHXZ ENDP ; std::basic_streambuf<char,std::char_traits<char> >::pubsync
_TEXT	ENDS
PUBLIC	?_Gninc@?$basic_streambuf@DU?$char_traits@D@std@@@std@@IAEPADXZ ; std::basic_streambuf<char,std::char_traits<char> >::_Gninc
; Function compile flags: /Odtp /RTCsu
;	COMDAT ?sbumpc@?$basic_streambuf@DU?$char_traits@D@std@@@std@@QAEHXZ
_TEXT	SEGMENT
tv75 = -16						; size = 4
tv82 = -12						; size = 8
_this$ = -4						; size = 4
?sbumpc@?$basic_streambuf@DU?$char_traits@D@std@@@std@@QAEHXZ PROC ; std::basic_streambuf<char,std::char_traits<char> >::sbumpc, COMDAT
; _this$ = ecx

; 145  : 		{	// get a character and point past it

	push	ebp
	mov	ebp, esp
	sub	esp, 16					; 00000010H
	push	esi
	mov	eax, -858993460				; ccccccccH
	mov	DWORD PTR [ebp-16], eax
	mov	DWORD PTR [ebp-12], eax
	mov	DWORD PTR [ebp-8], eax
	mov	DWORD PTR [ebp-4], eax
	mov	DWORD PTR _this$[ebp], ecx

; 146  : 		return (0 < _Gnavail()
; 147  : 			? _Traits::to_int_type(*_Gninc()) : uflow());

	mov	ecx, DWORD PTR _this$[ebp]
	call	?_Gnavail@?$basic_streambuf@DU?$char_traits@D@std@@@std@@IBE_JXZ ; std::basic_streambuf<char,std::char_traits<char> >::_Gnavail
	mov	DWORD PTR tv82[ebp], eax
	mov	DWORD PTR tv82[ebp+4], edx
	cmp	DWORD PTR tv82[ebp+4], 0
	jl	SHORT $LN3@sbumpc
	jg	SHORT $LN5@sbumpc
	cmp	DWORD PTR tv82[ebp], 0
	jbe	SHORT $LN3@sbumpc
$LN5@sbumpc:
	mov	ecx, DWORD PTR _this$[ebp]
	call	?_Gninc@?$basic_streambuf@DU?$char_traits@D@std@@@std@@IAEPADXZ ; std::basic_streambuf<char,std::char_traits<char> >::_Gninc
	push	eax
	call	?to_int_type@?$char_traits@D@std@@SAHABD@Z ; std::char_traits<char>::to_int_type
	add	esp, 4
	mov	DWORD PTR tv75[ebp], eax
	jmp	SHORT $LN4@sbumpc
$LN3@sbumpc:
	mov	eax, DWORD PTR _this$[ebp]
	mov	edx, DWORD PTR [eax]
	mov	esi, esp
	mov	ecx, DWORD PTR _this$[ebp]
	mov	eax, DWORD PTR [edx+28]
	call	eax
	cmp	esi, esp
	call	__RTC_CheckEsp
	mov	DWORD PTR tv75[ebp], eax
$LN4@sbumpc:
	mov	eax, DWORD PTR tv75[ebp]

; 148  : 		}

	pop	esi
	add	esp, 16					; 00000010H
	cmp	ebp, esp
	call	__RTC_CheckEsp
	mov	esp, ebp
	pop	ebp
	ret	0
?sbumpc@?$basic_streambuf@DU?$char_traits@D@std@@@std@@QAEHXZ ENDP ; std::basic_streambuf<char,std::char_traits<char> >::sbumpc
; Function compile flags: /Odtp /RTCsu
_TEXT	ENDS
;	COMDAT ?gptr@?$basic_streambuf@DU?$char_traits@D@std@@@std@@IBEPADXZ
_TEXT	SEGMENT
_this$ = -4						; size = 4
?gptr@?$basic_streambuf@DU?$char_traits@D@std@@@std@@IBEPADXZ PROC ; std::basic_streambuf<char,std::char_traits<char> >::gptr, COMDAT
; _this$ = ecx

; 222  : 		{	// return current position in read buffer

	push	ebp
	mov	ebp, esp
	push	ecx
	mov	DWORD PTR [ebp-4], -858993460		; ccccccccH
	mov	DWORD PTR _this$[ebp], ecx

; 223  : 		return (*_IGnext);

	mov	eax, DWORD PTR _this$[ebp]
	mov	ecx, DWORD PTR [eax+32]
	mov	eax, DWORD PTR [ecx]

; 224  : 		}

	mov	esp, ebp
	pop	ebp
	ret	0
?gptr@?$basic_streambuf@DU?$char_traits@D@std@@@std@@IBEPADXZ ENDP ; std::basic_streambuf<char,std::char_traits<char> >::gptr
; Function compile flags: /Odtp /RTCsu
_TEXT	ENDS
;	COMDAT ?_Gninc@?$basic_streambuf@DU?$char_traits@D@std@@@std@@IAEPADXZ
_TEXT	SEGMENT
tv76 = -8						; size = 4
_this$ = -4						; size = 4
?_Gninc@?$basic_streambuf@DU?$char_traits@D@std@@@std@@IAEPADXZ PROC ; std::basic_streambuf<char,std::char_traits<char> >::_Gninc, COMDAT
; _this$ = ecx

; 266  : 		{	// increment current position in read buffer

	push	ebp
	mov	ebp, esp
	sub	esp, 8
	mov	DWORD PTR [ebp-8], -858993460		; ccccccccH
	mov	DWORD PTR [ebp-4], -858993460		; ccccccccH
	mov	DWORD PTR _this$[ebp], ecx

; 267  : 		--*_IGcount;

	mov	eax, DWORD PTR _this$[ebp]
	mov	ecx, DWORD PTR [eax+48]
	mov	edx, DWORD PTR [ecx]
	sub	edx, 1
	mov	eax, DWORD PTR _this$[ebp]
	mov	ecx, DWORD PTR [eax+48]
	mov	DWORD PTR [ecx], edx

; 268  : 		return ((*_IGnext)++);

	mov	edx, DWORD PTR _this$[ebp]
	mov	eax, DWORD PTR [edx+32]
	mov	ecx, DWORD PTR [eax]
	mov	DWORD PTR tv76[ebp], ecx
	mov	edx, DWORD PTR _this$[ebp]
	mov	eax, DWORD PTR [edx+32]
	mov	ecx, DWORD PTR [eax]
	add	ecx, 1
	mov	edx, DWORD PTR _this$[ebp]
	mov	eax, DWORD PTR [edx+32]
	mov	DWORD PTR [eax], ecx
	mov	eax, DWORD PTR tv76[ebp]

; 269  : 		}

	mov	esp, ebp
	pop	ebp
	ret	0
?_Gninc@?$basic_streambuf@DU?$char_traits@D@std@@@std@@IAEPADXZ ENDP ; std::basic_streambuf<char,std::char_traits<char> >::_Gninc
; Function compile flags: /Odtp /RTCsu
_TEXT	ENDS
;	COMDAT ?_Gnpreinc@?$basic_streambuf@DU?$char_traits@D@std@@@std@@IAEPADXZ
_TEXT	SEGMENT
tv72 = -8						; size = 4
_this$ = -4						; size = 4
?_Gnpreinc@?$basic_streambuf@DU?$char_traits@D@std@@@std@@IAEPADXZ PROC ; std::basic_streambuf<char,std::char_traits<char> >::_Gnpreinc, COMDAT
; _this$ = ecx

; 272  : 		{	// preincrement current position in read buffer

	push	ebp
	mov	ebp, esp
	sub	esp, 8
	mov	DWORD PTR [ebp-8], -858993460		; ccccccccH
	mov	DWORD PTR [ebp-4], -858993460		; ccccccccH
	mov	DWORD PTR _this$[ebp], ecx

; 273  : 		--*_IGcount;

	mov	eax, DWORD PTR _this$[ebp]
	mov	ecx, DWORD PTR [eax+48]
	mov	edx, DWORD PTR [ecx]
	sub	edx, 1
	mov	eax, DWORD PTR _this$[ebp]
	mov	ecx, DWORD PTR [eax+48]
	mov	DWORD PTR [ecx], edx

; 274  : 		return (++(*_IGnext));

	mov	edx, DWORD PTR _this$[ebp]
	mov	eax, DWORD PTR [edx+32]
	mov	ecx, DWORD PTR [eax]
	add	ecx, 1
	mov	DWORD PTR tv72[ebp], ecx
	mov	edx, DWORD PTR _this$[ebp]
	mov	eax, DWORD PTR [edx+32]
	mov	ecx, DWORD PTR tv72[ebp]
	mov	DWORD PTR [eax], ecx
	mov	eax, DWORD PTR tv72[ebp]

; 275  : 		}

	mov	esp, ebp
	pop	ebp
	ret	0
?_Gnpreinc@?$basic_streambuf@DU?$char_traits@D@std@@@std@@IAEPADXZ ENDP ; std::basic_streambuf<char,std::char_traits<char> >::_Gnpreinc
; Function compile flags: /Odtp /RTCsu
_TEXT	ENDS
;	COMDAT ?_Gnavail@?$basic_streambuf@DU?$char_traits@D@std@@@std@@IBE_JXZ
_TEXT	SEGMENT
tv69 = -8						; size = 4
_this$ = -4						; size = 4
?_Gnavail@?$basic_streambuf@DU?$char_traits@D@std@@@std@@IBE_JXZ PROC ; std::basic_streambuf<char,std::char_traits<char> >::_Gnavail, COMDAT
; _this$ = ecx

; 278  : 		{	// count number of available elements in read buffer

	push	ebp
	mov	ebp, esp
	sub	esp, 8
	mov	DWORD PTR [ebp-8], -858993460		; ccccccccH
	mov	DWORD PTR [ebp-4], -858993460		; ccccccccH
	mov	DWORD PTR _this$[ebp], ecx

; 279  : 		return (*_IGnext != 0 ? *_IGcount : 0);

	mov	eax, DWORD PTR _this$[ebp]
	mov	ecx, DWORD PTR [eax+32]
	cmp	DWORD PTR [ecx], 0
	je	SHORT $LN3@Gnavail
	mov	edx, DWORD PTR _this$[ebp]
	mov	eax, DWORD PTR [edx+48]
	mov	ecx, DWORD PTR [eax]
	mov	DWORD PTR tv69[ebp], ecx
	jmp	SHORT $LN4@Gnavail
$LN3@Gnavail:
	mov	DWORD PTR tv69[ebp], 0
$LN4@Gnavail:
	mov	eax, DWORD PTR tv69[ebp]
	cdq

; 280  : 		}

	mov	esp, ebp
	pop	ebp
	ret	0
?_Gnavail@?$basic_streambuf@DU?$char_traits@D@std@@@std@@IBE_JXZ ENDP ; std::basic_streambuf<char,std::char_traits<char> >::_Gnavail
; Function compile flags: /Odtp /RTCsu
; File c:\users\teaja\documents\artificial-fun\labravenprojecttest\common\triggers\trigger.h
_TEXT	ENDS
;	COMDAT ?SetInactive@?$Trigger@VAbstRaven_Bot@@@@IAEXXZ
_TEXT	SEGMENT
_this$ = -4						; size = 4
?SetInactive@?$Trigger@VAbstRaven_Bot@@@@IAEXXZ PROC	; Trigger<AbstRaven_Bot>::SetInactive, COMDAT
; _this$ = ecx

; 46   :   void SetInactive(){m_bActive = false;}

	push	ebp
	mov	ebp, esp
	push	ecx
	mov	DWORD PTR [ebp-4], -858993460		; ccccccccH
	mov	DWORD PTR _this$[ebp], ecx
	mov	eax, DWORD PTR _this$[ebp]
	mov	BYTE PTR [eax+69], 0
	mov	esp, ebp
	pop	ebp
	ret	0
?SetInactive@?$Trigger@VAbstRaven_Bot@@@@IAEXXZ ENDP	; Trigger<AbstRaven_Bot>::SetInactive
; Function compile flags: /Odtp /RTCsu
_TEXT	ENDS
;	COMDAT ?SetActive@?$Trigger@VAbstRaven_Bot@@@@IAEXXZ
_TEXT	SEGMENT
_this$ = -4						; size = 4
?SetActive@?$Trigger@VAbstRaven_Bot@@@@IAEXXZ PROC	; Trigger<AbstRaven_Bot>::SetActive, COMDAT
; _this$ = ecx

; 47   :   void SetActive(){m_bActive = true;}

	push	ebp
	mov	ebp, esp
	push	ecx
	mov	DWORD PTR [ebp-4], -858993460		; ccccccccH
	mov	DWORD PTR _this$[ebp], ecx
	mov	eax, DWORD PTR _this$[ebp]
	mov	BYTE PTR [eax+69], 1
	mov	esp, ebp
	pop	ebp
	ret	0
?SetActive@?$Trigger@VAbstRaven_Bot@@@@IAEXXZ ENDP	; Trigger<AbstRaven_Bot>::SetActive
_TEXT	ENDS
EXTRN	??0BaseGameEntity@@IAE@H@Z:PROC			; BaseGameEntity::BaseGameEntity
; Function compile flags: /Odtp /RTCsu
;	COMDAT ??0?$Trigger@VAbstRaven_Bot@@@@QAE@I@Z
_TEXT	SEGMENT
_this$ = -4						; size = 4
_id$ = 8						; size = 4
??0?$Trigger@VAbstRaven_Bot@@@@QAE@I@Z PROC		; Trigger<AbstRaven_Bot>::Trigger<AbstRaven_Bot>, COMDAT
; _this$ = ecx

; 65   :   {}

	push	ebp
	mov	ebp, esp
	push	ecx
	mov	DWORD PTR [ebp-4], -858993460		; ccccccccH
	mov	DWORD PTR _this$[ebp], ecx
	mov	eax, DWORD PTR _id$[ebp]
	push	eax
	mov	ecx, DWORD PTR _this$[ebp]
	call	??0BaseGameEntity@@IAE@H@Z		; BaseGameEntity::BaseGameEntity
	mov	ecx, DWORD PTR _this$[ebp]
	mov	DWORD PTR [ecx], OFFSET ??_7?$Trigger@VAbstRaven_Bot@@@@6B@
	mov	edx, DWORD PTR _this$[ebp]
	mov	DWORD PTR [edx+64], 0
	mov	eax, DWORD PTR _this$[ebp]
	mov	BYTE PTR [eax+68], 0
	mov	ecx, DWORD PTR _this$[ebp]
	mov	BYTE PTR [ecx+69], 1
	mov	edx, DWORD PTR _this$[ebp]
	mov	DWORD PTR [edx+72], -1
	mov	eax, DWORD PTR _this$[ebp]
	add	esp, 4
	cmp	ebp, esp
	call	__RTC_CheckEsp
	mov	esp, ebp
	pop	ebp
	ret	4
??0?$Trigger@VAbstRaven_Bot@@@@QAE@I@Z ENDP		; Trigger<AbstRaven_Bot>::Trigger<AbstRaven_Bot>
; Function compile flags: /Odtp /RTCsu
; File c:\program files (x86)\microsoft visual studio 10.0\vc\include\xlocnum
_TEXT	ENDS
;	COMDAT ?get@?$num_get@DV?$istreambuf_iterator@DU?$char_traits@D@std@@@std@@@std@@QBE?AV?$istreambuf_iterator@DU?$char_traits@D@std@@@2@V32@0AAVios_base@2@AAHAAJ@Z
_TEXT	SEGMENT
_this$ = -4						; size = 4
___$ReturnUdt$ = 8					; size = 4
__First$ = 12						; size = 8
__Last$ = 20						; size = 8
__Iosbase$ = 28						; size = 4
__State$ = 32						; size = 4
__Val$ = 36						; size = 4
?get@?$num_get@DV?$istreambuf_iterator@DU?$char_traits@D@std@@@std@@@std@@QBE?AV?$istreambuf_iterator@DU?$char_traits@D@std@@@2@V32@0AAVios_base@2@AAHAAJ@Z PROC ; std::num_get<char,std::istreambuf_iterator<char,std::char_traits<char> > >::get, COMDAT
; _this$ = ecx

; 306  : 		{	// get long from [_First, _Last) into _Val

	push	ebp
	mov	ebp, esp
	push	ecx
	push	esi
	mov	DWORD PTR [ebp-4], -858993460		; ccccccccH
	mov	DWORD PTR _this$[ebp], ecx

; 307  : 		return (do_get(_First, _Last, _Iosbase, _State, _Val));

	mov	esi, esp
	mov	eax, DWORD PTR __Val$[ebp]
	push	eax
	mov	ecx, DWORD PTR __State$[ebp]
	push	ecx
	mov	edx, DWORD PTR __Iosbase$[ebp]
	push	edx
	mov	eax, DWORD PTR __Last$[ebp+4]
	push	eax
	mov	ecx, DWORD PTR __Last$[ebp]
	push	ecx
	mov	edx, DWORD PTR __First$[ebp+4]
	push	edx
	mov	eax, DWORD PTR __First$[ebp]
	push	eax
	mov	ecx, DWORD PTR ___$ReturnUdt$[ebp]
	push	ecx
	mov	edx, DWORD PTR _this$[ebp]
	mov	eax, DWORD PTR [edx]
	mov	ecx, DWORD PTR _this$[ebp]
	mov	edx, DWORD PTR [eax+32]
	call	edx
	cmp	esi, esp
	call	__RTC_CheckEsp
	mov	eax, DWORD PTR ___$ReturnUdt$[ebp]

; 308  : 		}

	pop	esi
	add	esp, 4
	cmp	ebp, esp
	call	__RTC_CheckEsp
	mov	esp, ebp
	pop	ebp
	ret	32					; 00000020H
?get@?$num_get@DV?$istreambuf_iterator@DU?$char_traits@D@std@@@std@@@std@@QBE?AV?$istreambuf_iterator@DU?$char_traits@D@std@@@2@V32@0AAVios_base@2@AAHAAJ@Z ENDP ; std::num_get<char,std::istreambuf_iterator<char,std::char_traits<char> > >::get
; Function compile flags: /Odtp /RTCsu
_TEXT	ENDS
;	COMDAT ?get@?$num_get@DV?$istreambuf_iterator@DU?$char_traits@D@std@@@std@@@std@@QBE?AV?$istreambuf_iterator@DU?$char_traits@D@std@@@2@V32@0AAVios_base@2@AAHAAN@Z
_TEXT	SEGMENT
_this$ = -4						; size = 4
___$ReturnUdt$ = 8					; size = 4
__First$ = 12						; size = 8
__Last$ = 20						; size = 8
__Iosbase$ = 28						; size = 4
__State$ = 32						; size = 4
__Val$ = 36						; size = 4
?get@?$num_get@DV?$istreambuf_iterator@DU?$char_traits@D@std@@@std@@@std@@QBE?AV?$istreambuf_iterator@DU?$char_traits@D@std@@@2@V32@0AAVios_base@2@AAHAAN@Z PROC ; std::num_get<char,std::istreambuf_iterator<char,std::char_traits<char> > >::get, COMDAT
; _this$ = ecx

; 343  : 		{	// get double from [_First, _Last) into _Val

	push	ebp
	mov	ebp, esp
	push	ecx
	push	esi
	mov	DWORD PTR [ebp-4], -858993460		; ccccccccH
	mov	DWORD PTR _this$[ebp], ecx

; 344  : 		return (do_get(_First, _Last, _Iosbase, _State, _Val));

	mov	esi, esp
	mov	eax, DWORD PTR __Val$[ebp]
	push	eax
	mov	ecx, DWORD PTR __State$[ebp]
	push	ecx
	mov	edx, DWORD PTR __Iosbase$[ebp]
	push	edx
	mov	eax, DWORD PTR __Last$[ebp+4]
	push	eax
	mov	ecx, DWORD PTR __Last$[ebp]
	push	ecx
	mov	edx, DWORD PTR __First$[ebp+4]
	push	edx
	mov	eax, DWORD PTR __First$[ebp]
	push	eax
	mov	ecx, DWORD PTR ___$ReturnUdt$[ebp]
	push	ecx
	mov	edx, DWORD PTR _this$[ebp]
	mov	eax, DWORD PTR [edx]
	mov	ecx, DWORD PTR _this$[ebp]
	mov	edx, DWORD PTR [eax+12]
	call	edx
	cmp	esi, esp
	call	__RTC_CheckEsp
	mov	eax, DWORD PTR ___$ReturnUdt$[ebp]

; 345  : 		}

	pop	esi
	add	esp, 4
	cmp	ebp, esp
	call	__RTC_CheckEsp
	mov	esp, ebp
	pop	ebp
	ret	32					; 00000020H
?get@?$num_get@DV?$istreambuf_iterator@DU?$char_traits@D@std@@@std@@@std@@QBE?AV?$istreambuf_iterator@DU?$char_traits@D@std@@@2@V32@0AAVios_base@2@AAHAAN@Z ENDP ; std::num_get<char,std::istreambuf_iterator<char,std::char_traits<char> > >::get
; Function compile flags: /Odtp /RTCsu
; File c:\program files (x86)\microsoft visual studio 10.0\vc\include\streambuf
_TEXT	ENDS
;	COMDAT ??0?$istreambuf_iterator@DU?$char_traits@D@std@@@std@@QAE@PAV?$basic_streambuf@DU?$char_traits@D@std@@@1@@Z
_TEXT	SEGMENT
_this$ = -4						; size = 4
__Sb$ = 8						; size = 4
??0?$istreambuf_iterator@DU?$char_traits@D@std@@@std@@QAE@PAV?$basic_streambuf@DU?$char_traits@D@std@@@1@@Z PROC ; std::istreambuf_iterator<char,std::char_traits<char> >::istreambuf_iterator<char,std::char_traits<char> >, COMDAT
; _this$ = ecx

; 492  : 		{	// construct from stream buffer _Sb

	push	ebp
	mov	ebp, esp
	push	ecx
	mov	DWORD PTR [ebp-4], -858993460		; ccccccccH
	mov	DWORD PTR _this$[ebp], ecx
	mov	eax, DWORD PTR _this$[ebp]
	mov	ecx, DWORD PTR __Sb$[ebp]
	mov	DWORD PTR [eax], ecx
	xor	edx, edx
	cmp	DWORD PTR __Sb$[ebp], 0
	sete	dl
	mov	eax, DWORD PTR _this$[ebp]
	mov	BYTE PTR [eax+4], dl

; 493  : 		}

	mov	eax, DWORD PTR _this$[ebp]
	mov	esp, ebp
	pop	ebp
	ret	4
??0?$istreambuf_iterator@DU?$char_traits@D@std@@@std@@QAE@PAV?$basic_streambuf@DU?$char_traits@D@std@@@1@@Z ENDP ; std::istreambuf_iterator<char,std::char_traits<char> >::istreambuf_iterator<char,std::char_traits<char> >
; Function compile flags: /Odtp /RTCsu
; File c:\program files (x86)\microsoft visual studio 10.0\vc\include\ios
_TEXT	ENDS
;	COMDAT ?tie@?$basic_ios@DU?$char_traits@D@std@@@std@@QBEPAV?$basic_ostream@DU?$char_traits@D@std@@@2@XZ
_TEXT	SEGMENT
_this$ = -4						; size = 4
?tie@?$basic_ios@DU?$char_traits@D@std@@@std@@QBEPAV?$basic_ostream@DU?$char_traits@D@std@@@2@XZ PROC ; std::basic_ios<char,std::char_traits<char> >::tie, COMDAT
; _this$ = ecx

; 73   : 		{	// return tie pointer

	push	ebp
	mov	ebp, esp
	push	ecx
	mov	DWORD PTR [ebp-4], -858993460		; ccccccccH
	mov	DWORD PTR _this$[ebp], ecx

; 74   : 		return (_Tiestr);

	mov	eax, DWORD PTR _this$[ebp]
	mov	eax, DWORD PTR [eax+60]

; 75   : 		}

	mov	esp, ebp
	pop	ebp
	ret	0
?tie@?$basic_ios@DU?$char_traits@D@std@@@std@@QBEPAV?$basic_ostream@DU?$char_traits@D@std@@@2@XZ ENDP ; std::basic_ios<char,std::char_traits<char> >::tie
_TEXT	ENDS
EXTRN	_free:PROC
; Function compile flags: /Odtp /RTCsu
; File c:\program files (x86)\microsoft visual studio 10.0\vc\include\xdebug
;	COMDAT ??$_DebugHeapDelete@Vfacet@locale@std@@@std@@YAXPAVfacet@locale@0@@Z
_TEXT	SEGMENT
__Ptr$ = 8						; size = 4
??$_DebugHeapDelete@Vfacet@locale@std@@@std@@YAXPAVfacet@locale@0@@Z PROC ; std::_DebugHeapDelete<std::locale::facet>, COMDAT

; 56   : 	{	// delete from the debug CRT heap even if operator delete exists

	push	ebp
	mov	ebp, esp
	push	esi

; 57   : 	if (_Ptr != 0)

	cmp	DWORD PTR __Ptr$[ebp], 0
	je	SHORT $LN2@DebugHeapD

; 58   : 		{	// worth deleting
; 59   : 		_Ptr->~_Ty();

	mov	esi, esp
	push	0
	mov	eax, DWORD PTR __Ptr$[ebp]
	mov	edx, DWORD PTR [eax]
	mov	ecx, DWORD PTR __Ptr$[ebp]
	mov	eax, DWORD PTR [edx]
	call	eax
	cmp	esi, esp
	call	__RTC_CheckEsp

; 60   : 		// delete as _NORMAL_BLOCK, not _CRT_BLOCK, since we might have
; 61   : 		// facets allocated by normal new.
; 62   : 		free(_Ptr);

	mov	ecx, DWORD PTR __Ptr$[ebp]
	push	ecx
	call	_free
	add	esp, 4
$LN2@DebugHeapD:

; 63   : 		}
; 64   : 	}

	pop	esi
	cmp	ebp, esp
	call	__RTC_CheckEsp
	pop	ebp
	ret	0
??$_DebugHeapDelete@Vfacet@locale@std@@@std@@YAXPAVfacet@locale@0@@Z ENDP ; std::_DebugHeapDelete<std::locale::facet>
_TEXT	ENDS
PUBLIC	?_Register@facet@locale@std@@QAEXXZ		; std::locale::facet::_Register
PUBLIC	__TI2?AVbad_cast@std@@
PUBLIC	??_C@_08EPJLHIJG@bad?5cast?$AA@			; `string'
PUBLIC	?_Getcat@?$ctype@D@std@@SAIPAPBVfacet@locale@2@PBV42@@Z ; std::ctype<char>::_Getcat
PUBLIC	?_Getfacet@locale@std@@QBEPBVfacet@12@I@Z	; std::locale::_Getfacet
PUBLIC	??Bid@locale@std@@QAEIXZ			; std::locale::id::operator unsigned int
PUBLIC	?_Psave@?$_Facetptr@V?$ctype@D@std@@@std@@2PBVfacet@locale@2@B ; std::_Facetptr<std::ctype<char> >::_Psave
PUBLIC	__CTA2?AVbad_cast@std@@
PUBLIC	__CT??_R0?AVbad_cast@std@@@8??0bad_cast@std@@QAE@ABV01@@Z12
PUBLIC	??_R0?AVbad_cast@std@@@8			; std::bad_cast `RTTI Type Descriptor'
EXTRN	??0bad_cast@std@@QAE@PBD@Z:PROC			; std::bad_cast::bad_cast
EXTRN	?id@?$ctype@D@std@@2V0locale@2@A:DWORD		; std::ctype<char>::id
EXTRN	??1bad_cast@std@@UAE@XZ:PROC			; std::bad_cast::~bad_cast
EXTRN	??0bad_cast@std@@QAE@ABV01@@Z:PROC		; std::bad_cast::bad_cast
;	COMDAT ?_Psave@?$_Facetptr@V?$ctype@D@std@@@std@@2PBVfacet@locale@2@B
; File c:\program files (x86)\microsoft visual studio 10.0\vc\include\xlocale
_BSS	SEGMENT
?_Psave@?$_Facetptr@V?$ctype@D@std@@@std@@2PBVfacet@locale@2@B DD 01H DUP (?) ; std::_Facetptr<std::ctype<char> >::_Psave
_BSS	ENDS
;	COMDAT ??_R0?AVbad_cast@std@@@8
_DATA	SEGMENT
??_R0?AVbad_cast@std@@@8 DD FLAT:??_7type_info@@6B@	; std::bad_cast `RTTI Type Descriptor'
	DD	00H
	DB	'.?AVbad_cast@std@@', 00H
_DATA	ENDS
;	COMDAT __CT??_R0?AVbad_cast@std@@@8??0bad_cast@std@@QAE@ABV01@@Z12
xdata$x	SEGMENT
__CT??_R0?AVbad_cast@std@@@8??0bad_cast@std@@QAE@ABV01@@Z12 DD 00H
	DD	FLAT:??_R0?AVbad_cast@std@@@8
	DD	00H
	DD	0ffffffffH
	ORG $+4
	DD	0cH
	DD	FLAT:??0bad_cast@std@@QAE@ABV01@@Z
xdata$x	ENDS
;	COMDAT __CTA2?AVbad_cast@std@@
xdata$x	SEGMENT
__CTA2?AVbad_cast@std@@ DD 02H
	DD	FLAT:__CT??_R0?AVbad_cast@std@@@8??0bad_cast@std@@QAE@ABV01@@Z12
	DD	FLAT:__CT??_R0?AVexception@std@@@8??0exception@std@@QAE@ABV01@@Z12
xdata$x	ENDS
;	COMDAT __TI2?AVbad_cast@std@@
xdata$x	SEGMENT
__TI2?AVbad_cast@std@@ DD 00H
	DD	FLAT:??1bad_cast@std@@UAE@XZ
	DD	00H
	DD	FLAT:__CTA2?AVbad_cast@std@@
xdata$x	ENDS
;	COMDAT ??_C@_08EPJLHIJG@bad?5cast?$AA@
CONST	SEGMENT
??_C@_08EPJLHIJG@bad?5cast?$AA@ DB 'bad cast', 00H	; `string'
CONST	ENDS
;	COMDAT xdata$x
xdata$x	SEGMENT
__unwindtable$??$use_facet@V?$ctype@D@std@@@std@@YAABV?$ctype@D@0@ABVlocale@0@@Z DD 0ffffffffH
	DD	FLAT:__unwindfunclet$??$use_facet@V?$ctype@D@std@@@std@@YAABV?$ctype@D@0@ABVlocale@0@@Z$0
__ehfuncinfo$??$use_facet@V?$ctype@D@std@@@std@@YAABV?$ctype@D@0@ABVlocale@0@@Z DD 019930522H
	DD	01H
	DD	FLAT:__unwindtable$??$use_facet@V?$ctype@D@std@@@std@@YAABV?$ctype@D@0@ABVlocale@0@@Z
	DD	2 DUP(00H)
	DD	2 DUP(00H)
	DD	00H
	DD	01H
; Function compile flags: /Odtp /RTCsu
xdata$x	ENDS
;	COMDAT ??$use_facet@V?$ctype@D@std@@@std@@YAABV?$ctype@D@0@ABVlocale@0@@Z
_TEXT	SEGMENT
$T141251 = -64						; size = 4
$T141250 = -60						; size = 12
__Pfmod$136239 = -48					; size = 4
__Pf$136223 = -44					; size = 4
__Id$136222 = -40					; size = 4
__Psave$136210 = -32					; size = 4
__Lock$136209 = -20					; size = 4
__$EHRec$ = -12						; size = 12
__Loc$ = 8						; size = 4
??$use_facet@V?$ctype@D@std@@@std@@YAABV?$ctype@D@0@ABVlocale@0@@Z PROC ; std::use_facet<std::ctype<char> >, COMDAT

; 504  : 	{	// get facet reference from locale

	push	ebp
	mov	ebp, esp
	push	-1
	push	__ehhandler$??$use_facet@V?$ctype@D@std@@@std@@YAABV?$ctype@D@0@ABVlocale@0@@Z
	mov	eax, DWORD PTR fs:0
	push	eax
	sub	esp, 52					; 00000034H
	push	edi
	lea	edi, DWORD PTR [ebp-64]
	mov	ecx, 13					; 0000000dH
	mov	eax, -858993460				; ccccccccH
	rep stosd
	mov	eax, DWORD PTR ___security_cookie
	xor	eax, ebp
	push	eax
	lea	eax, DWORD PTR __$EHRec$[ebp]
	mov	DWORD PTR fs:0, eax

; 505  : 	_BEGIN_LOCK(_LOCK_LOCALE)	// the thread lock, make get atomic

	push	0
	lea	ecx, DWORD PTR __Lock$136209[ebp]
	call	??0_Lockit@std@@QAE@H@Z			; std::_Lockit::_Lockit
	mov	DWORD PTR __$EHRec$[ebp+8], 0

; 506  : 		const locale::facet *_Psave =
; 507  : 			_Facetptr<_Facet>::_Psave;	// static pointer to lazy facet

	mov	eax, DWORD PTR ?_Psave@?$_Facetptr@V?$ctype@D@std@@@std@@2PBVfacet@locale@2@B ; std::_Facetptr<std::ctype<char> >::_Psave
	mov	DWORD PTR __Psave$136210[ebp], eax

; 508  : 
; 509  : 		size_t _Id = _Facet::id;

	mov	ecx, OFFSET ?id@?$ctype@D@std@@2V0locale@2@A ; std::ctype<char>::id
	call	??Bid@locale@std@@QAEIXZ		; std::locale::id::operator unsigned int
	mov	DWORD PTR __Id$136222[ebp], eax

; 510  : 		const locale::facet *_Pf = _Loc._Getfacet(_Id);

	mov	ecx, DWORD PTR __Id$136222[ebp]
	push	ecx
	mov	ecx, DWORD PTR __Loc$[ebp]
	call	?_Getfacet@locale@std@@QBEPBVfacet@12@I@Z ; std::locale::_Getfacet
	mov	DWORD PTR __Pf$136223[ebp], eax

; 511  : 
; 512  : 		if (_Pf != 0)

	cmp	DWORD PTR __Pf$136223[ebp], 0
	je	SHORT $LN6@use_facet
	jmp	SHORT $LN5@use_facet
$LN6@use_facet:

; 513  : 			;	// got facet from locale
; 514  : 		else if (_Psave != 0)

	cmp	DWORD PTR __Psave$136210[ebp], 0
	je	SHORT $LN4@use_facet

; 515  : 			_Pf = _Psave;	// lazy facet already allocated

	mov	edx, DWORD PTR __Psave$136210[ebp]
	mov	DWORD PTR __Pf$136223[ebp], edx
	jmp	SHORT $LN5@use_facet
$LN4@use_facet:

; 516  : 		else if (_Facet::_Getcat(&_Psave, &_Loc) == (size_t)(-1))

	mov	eax, DWORD PTR __Loc$[ebp]
	push	eax
	lea	ecx, DWORD PTR __Psave$136210[ebp]
	push	ecx
	call	?_Getcat@?$ctype@D@std@@SAIPAPBVfacet@locale@2@PBV42@@Z ; std::ctype<char>::_Getcat
	add	esp, 8
	cmp	eax, -1
	jne	SHORT $LN2@use_facet

; 517  : 
; 518  :  #if _HAS_EXCEPTIONS
; 519  : 
; 520  : 			_THROW_NCEE(bad_cast, _EMPTY_ARGUMENT);	// lazy disallowed

	push	OFFSET ??_C@_08EPJLHIJG@bad?5cast?$AA@
	lea	ecx, DWORD PTR $T141250[ebp]
	call	??0bad_cast@std@@QAE@PBD@Z		; std::bad_cast::bad_cast
	push	OFFSET __TI2?AVbad_cast@std@@
	lea	edx, DWORD PTR $T141250[ebp]
	push	edx
	call	__CxxThrowException@8

; 521  : 
; 522  :  #else /* _HAS_EXCEPTIONS */
; 523  : 			abort();	// lazy disallowed
; 524  :  #endif /* _HAS_EXCEPTIONS */
; 525  : 
; 526  : 		else

	jmp	SHORT $LN5@use_facet
$LN2@use_facet:

; 527  : 			{	// queue up lazy facet for destruction
; 528  : 			_Pf = _Psave;

	mov	eax, DWORD PTR __Psave$136210[ebp]
	mov	DWORD PTR __Pf$136223[ebp], eax

; 529  : 			_Facetptr<_Facet>::_Psave = _Psave;

	mov	ecx, DWORD PTR __Psave$136210[ebp]
	mov	DWORD PTR ?_Psave@?$_Facetptr@V?$ctype@D@std@@@std@@2PBVfacet@locale@2@B, ecx ; std::_Facetptr<std::ctype<char> >::_Psave

; 530  : 
; 531  : 			locale::facet *_Pfmod = (_Facet *)_Psave;

	mov	edx, DWORD PTR __Psave$136210[ebp]
	mov	DWORD PTR __Pfmod$136239[ebp], edx

; 532  : 			_Pfmod->_Incref();

	mov	ecx, DWORD PTR __Pfmod$136239[ebp]
	call	?_Incref@facet@locale@std@@QAEXXZ	; std::locale::facet::_Incref

; 533  : 			_Pfmod->_Register();

	mov	ecx, DWORD PTR __Pfmod$136239[ebp]
	call	?_Register@facet@locale@std@@QAEXXZ	; std::locale::facet::_Register
$LN5@use_facet:

; 534  : 			}
; 535  : 
; 536  : 		return ((const _Facet&)(*_Pf));	// should be dynamic_cast

	mov	eax, DWORD PTR __Pf$136223[ebp]
	mov	DWORD PTR $T141251[ebp], eax
	mov	DWORD PTR __$EHRec$[ebp+8], -1
	lea	ecx, DWORD PTR __Lock$136209[ebp]
	call	??1_Lockit@std@@QAE@XZ			; std::_Lockit::~_Lockit
	mov	eax, DWORD PTR $T141251[ebp]
$LN8@use_facet:

; 537  : 	_END_LOCK()
; 538  : 	}

	push	edx
	mov	ecx, ebp
	push	eax
	lea	edx, DWORD PTR $LN14@use_facet
	call	@_RTC_CheckStackVars@8
	pop	eax
	pop	edx
	mov	ecx, DWORD PTR __$EHRec$[ebp]
	mov	DWORD PTR fs:0, ecx
	pop	ecx
	pop	edi
	add	esp, 64					; 00000040H
	cmp	ebp, esp
	call	__RTC_CheckEsp
	mov	esp, ebp
	pop	ebp
	ret	0
	npad	2
$LN14@use_facet:
	DD	2
	DD	$LN13@use_facet
$LN13@use_facet:
	DD	-20					; ffffffecH
	DD	4
	DD	$LN10@use_facet
	DD	-32					; ffffffe0H
	DD	4
	DD	$LN11@use_facet
$LN11@use_facet:
	DB	95					; 0000005fH
	DB	80					; 00000050H
	DB	115					; 00000073H
	DB	97					; 00000061H
	DB	118					; 00000076H
	DB	101					; 00000065H
	DB	0
$LN10@use_facet:
	DB	95					; 0000005fH
	DB	76					; 0000004cH
	DB	111					; 0000006fH
	DB	99					; 00000063H
	DB	107					; 0000006bH
	DB	0
_TEXT	ENDS
;	COMDAT text$x
text$x	SEGMENT
__unwindfunclet$??$use_facet@V?$ctype@D@std@@@std@@YAABV?$ctype@D@0@ABVlocale@0@@Z$0:
	lea	ecx, DWORD PTR __Lock$136209[ebp]
	jmp	??1_Lockit@std@@QAE@XZ			; std::_Lockit::~_Lockit
__ehhandler$??$use_facet@V?$ctype@D@std@@@std@@YAABV?$ctype@D@0@ABVlocale@0@@Z:
	mov	edx, DWORD PTR [esp+8]
	lea	eax, DWORD PTR [edx+12]
	mov	ecx, DWORD PTR [edx-60]
	xor	ecx, eax
	call	@__security_check_cookie@4
	mov	eax, OFFSET __ehfuncinfo$??$use_facet@V?$ctype@D@std@@@std@@YAABV?$ctype@D@0@ABVlocale@0@@Z
	jmp	___CxxFrameHandler3
text$x	ENDS
??$use_facet@V?$ctype@D@std@@@std@@YAABV?$ctype@D@0@ABVlocale@0@@Z ENDP ; std::use_facet<std::ctype<char> >
EXTRN	?_Id_cnt@id@locale@std@@0HA:DWORD		; std::locale::id::_Id_cnt
; Function compile flags: /Odtp /RTCsu
;	COMDAT ??Bid@locale@std@@QAEIXZ
_TEXT	SEGMENT
__Lock$33238 = -12					; size = 4
_this$ = -4						; size = 4
??Bid@locale@std@@QAEIXZ PROC				; std::locale::id::operator unsigned int, COMDAT
; _this$ = ecx

; 75   : 			{	// get stamp, with lazy allocation

	push	ebp
	mov	ebp, esp
	sub	esp, 16					; 00000010H
	mov	eax, -858993460				; ccccccccH
	mov	DWORD PTR [ebp-16], eax
	mov	DWORD PTR [ebp-12], eax
	mov	DWORD PTR [ebp-8], eax
	mov	DWORD PTR [ebp-4], eax
	mov	DWORD PTR _this$[ebp], ecx

; 76   : 			if (_Id == 0)

	mov	eax, DWORD PTR _this$[ebp]
	cmp	DWORD PTR [eax], 0
	jne	SHORT $LN2@operator@3

; 77   : 				{	// still zero, allocate stamp
; 78   : 				_BEGIN_LOCK(_LOCK_LOCALE)

	push	0
	lea	ecx, DWORD PTR __Lock$33238[ebp]
	call	??0_Lockit@std@@QAE@H@Z			; std::_Lockit::_Lockit

; 79   : 					if (_Id == 0)

	mov	ecx, DWORD PTR _this$[ebp]
	cmp	DWORD PTR [ecx], 0
	jne	SHORT $LN1@operator@3

; 80   : 						_Id = ++_Id_cnt;

	mov	edx, DWORD PTR ?_Id_cnt@id@locale@std@@0HA ; std::locale::id::_Id_cnt
	add	edx, 1
	mov	DWORD PTR ?_Id_cnt@id@locale@std@@0HA, edx ; std::locale::id::_Id_cnt
	mov	eax, DWORD PTR _this$[ebp]
	mov	ecx, DWORD PTR ?_Id_cnt@id@locale@std@@0HA ; std::locale::id::_Id_cnt
	mov	DWORD PTR [eax], ecx
$LN1@operator@3:

; 81   : 				_END_LOCK()

	lea	ecx, DWORD PTR __Lock$33238[ebp]
	call	??1_Lockit@std@@QAE@XZ			; std::_Lockit::~_Lockit
$LN2@operator@3:

; 82   : 				}
; 83   : 			return (_Id);

	mov	edx, DWORD PTR _this$[ebp]
	mov	eax, DWORD PTR [edx]

; 84   : 			}

	push	edx
	mov	ecx, ebp
	push	eax
	lea	edx, DWORD PTR $LN8@operator@3
	call	@_RTC_CheckStackVars@8
	pop	eax
	pop	edx
	add	esp, 16					; 00000010H
	cmp	ebp, esp
	call	__RTC_CheckEsp
	mov	esp, ebp
	pop	ebp
	ret	0
	npad	2
$LN8@operator@3:
	DD	1
	DD	$LN7@operator@3
$LN7@operator@3:
	DD	-12					; fffffff4H
	DD	4
	DD	$LN6@operator@3
$LN6@operator@3:
	DB	95					; 0000005fH
	DB	76					; 0000004cH
	DB	111					; 0000006fH
	DB	99					; 00000063H
	DB	107					; 0000006bH
	DB	0
??Bid@locale@std@@QAEIXZ ENDP				; std::locale::id::operator unsigned int
_TEXT	ENDS
EXTRN	?_Facet_Register@facet@locale@std@@CAXPAV123@@Z:PROC ; std::locale::facet::_Facet_Register
; Function compile flags: /Odtp /RTCsu
;	COMDAT ?_Register@facet@locale@std@@QAEXXZ
_TEXT	SEGMENT
_this$ = -4						; size = 4
?_Register@facet@locale@std@@QAEXXZ PROC		; std::locale::facet::_Register, COMDAT
; _this$ = ecx

; 128  : 			{	// queue lazy facet destruction

	push	ebp
	mov	ebp, esp
	push	ecx
	mov	DWORD PTR [ebp-4], -858993460		; ccccccccH
	mov	DWORD PTR _this$[ebp], ecx

; 129  :  #if defined(_M_CEE)
; 130  : 			_Facet_Register_m(this);
; 131  : 
; 132  :  #else /* defined(_M_CEE) */
; 133  : 			_Facet_Register(this);

	mov	eax, DWORD PTR _this$[ebp]
	push	eax
	call	?_Facet_Register@facet@locale@std@@CAXPAV123@@Z ; std::locale::facet::_Facet_Register
	add	esp, 4

; 134  :  #endif /* defined(_M_CEE) */
; 135  : 			}

	add	esp, 4
	cmp	ebp, esp
	call	__RTC_CheckEsp
	mov	esp, ebp
	pop	ebp
	ret	0
?_Register@facet@locale@std@@QAEXXZ ENDP		; std::locale::facet::_Register
_TEXT	ENDS
EXTRN	?_Getgloballocale@locale@std@@CAPAV_Locimp@12@XZ:PROC ; std::locale::_Getgloballocale
; Function compile flags: /Odtp /RTCsu
;	COMDAT ?_Getfacet@locale@std@@QBEPBVfacet@12@I@Z
_TEXT	SEGMENT
tv80 = -20						; size = 4
tv69 = -16						; size = 4
__Ptr$33367 = -12					; size = 4
__Facptr$ = -8						; size = 4
_this$ = -4						; size = 4
__Id$ = 8						; size = 4
?_Getfacet@locale@std@@QBEPBVfacet@12@I@Z PROC		; std::locale::_Getfacet, COMDAT
; _this$ = ecx

; 436  : 		{	// look up a facet in locale object

	push	ebp
	mov	ebp, esp
	sub	esp, 20					; 00000014H
	mov	eax, -858993460				; ccccccccH
	mov	DWORD PTR [ebp-20], eax
	mov	DWORD PTR [ebp-16], eax
	mov	DWORD PTR [ebp-12], eax
	mov	DWORD PTR [ebp-8], eax
	mov	DWORD PTR [ebp-4], eax
	mov	DWORD PTR _this$[ebp], ecx

; 437  : 		const facet *_Facptr = _Id < _Ptr->_Facetcount
; 438  : 			? _Ptr->_Facetvec[_Id] : 0;	// null if id off end

	mov	eax, DWORD PTR _this$[ebp]
	mov	ecx, DWORD PTR [eax]
	mov	edx, DWORD PTR __Id$[ebp]
	cmp	edx, DWORD PTR [ecx+12]
	jae	SHORT $LN6@Getfacet
	mov	eax, DWORD PTR _this$[ebp]
	mov	ecx, DWORD PTR [eax]
	mov	edx, DWORD PTR [ecx+8]
	mov	eax, DWORD PTR __Id$[ebp]
	mov	ecx, DWORD PTR [edx+eax*4]
	mov	DWORD PTR tv69[ebp], ecx
	jmp	SHORT $LN7@Getfacet
$LN6@Getfacet:
	mov	DWORD PTR tv69[ebp], 0
$LN7@Getfacet:
	mov	edx, DWORD PTR tv69[ebp]
	mov	DWORD PTR __Facptr$[ebp], edx

; 439  : 		if (_Facptr != 0 || !_Ptr->_Xparent)

	cmp	DWORD PTR __Facptr$[ebp], 0
	jne	SHORT $LN2@Getfacet
	mov	eax, DWORD PTR _this$[ebp]
	mov	ecx, DWORD PTR [eax]
	movzx	edx, BYTE PTR [ecx+20]
	test	edx, edx
	jne	SHORT $LN3@Getfacet
$LN2@Getfacet:

; 440  : 			return (_Facptr);	// found facet or not transparent

	mov	eax, DWORD PTR __Facptr$[ebp]
	jmp	SHORT $LN4@Getfacet

; 441  : 		else

	jmp	SHORT $LN4@Getfacet
$LN3@Getfacet:

; 442  : 			{	// look in current locale
; 443  : 			locale::_Locimp *_Ptr = _Getgloballocale();

	call	?_Getgloballocale@locale@std@@CAPAV_Locimp@12@XZ ; std::locale::_Getgloballocale
	mov	DWORD PTR __Ptr$33367[ebp], eax

; 444  : 			return (_Id < _Ptr->_Facetcount
; 445  : 				? _Ptr->_Facetvec[_Id]	// get from current locale
; 446  : 				: 0);	// no entry in current locale

	mov	eax, DWORD PTR __Ptr$33367[ebp]
	mov	ecx, DWORD PTR __Id$[ebp]
	cmp	ecx, DWORD PTR [eax+12]
	jae	SHORT $LN8@Getfacet
	mov	edx, DWORD PTR __Ptr$33367[ebp]
	mov	eax, DWORD PTR [edx+8]
	mov	ecx, DWORD PTR __Id$[ebp]
	mov	edx, DWORD PTR [eax+ecx*4]
	mov	DWORD PTR tv80[ebp], edx
	jmp	SHORT $LN9@Getfacet
$LN8@Getfacet:
	mov	DWORD PTR tv80[ebp], 0
$LN9@Getfacet:
	mov	eax, DWORD PTR tv80[ebp]
$LN4@Getfacet:

; 447  : 			}
; 448  : 		}

	add	esp, 20					; 00000014H
	cmp	ebp, esp
	call	__RTC_CheckEsp
	mov	esp, ebp
	pop	ebp
	ret	4
?_Getfacet@locale@std@@QBEPBVfacet@12@I@Z ENDP		; std::locale::_Getfacet
_TEXT	ENDS
PUBLIC	??3facet@locale@std@@SAXPAXABU_DebugHeapTag_t@2@PADH@Z ; std::locale::facet::operator delete
PUBLIC	??1_Locinfo@std@@QAE@XZ				; std::_Locinfo::~_Locinfo
PUBLIC	??0?$ctype@D@std@@QAE@ABV_Locinfo@1@I@Z		; std::ctype<char>::ctype<char>
PUBLIC	??0_Locinfo@std@@QAE@PBD@Z			; std::_Locinfo::_Locinfo
PUBLIC	?c_str@locale@std@@QBEPBDXZ			; std::locale::c_str
PUBLIC	??2facet@locale@std@@SAPAXIABU_DebugHeapTag_t@2@PADH@Z ; std::locale::facet::operator new
PUBLIC	??_C@_0EH@OEAMKACA@c?3?2Program?5Files?5?$CIx86?$CJ?2Microsoft@ ; `string'
EXTRN	?_DebugHeapTag_func@std@@YAABU_DebugHeapTag_t@1@XZ:PROC ; std::_DebugHeapTag_func
;	COMDAT ??_C@_0EH@OEAMKACA@c?3?2Program?5Files?5?$CIx86?$CJ?2Microsoft@
CONST	SEGMENT
??_C@_0EH@OEAMKACA@c?3?2Program?5Files?5?$CIx86?$CJ?2Microsoft@ DB 'c:\Pr'
	DB	'ogram Files (x86)\Microsoft Visual Studio 10.0\VC\include\xlo'
	DB	'cale', 00H					; `string'
CONST	ENDS
;	COMDAT xdata$x
xdata$x	SEGMENT
__unwindtable$?_Getcat@?$ctype@D@std@@SAIPAPBVfacet@locale@2@PBV42@@Z DD 0ffffffffH
	DD	FLAT:__unwindfunclet$?_Getcat@?$ctype@D@std@@SAIPAPBVfacet@locale@2@PBV42@@Z$0
	DD	00H
	DD	FLAT:__unwindfunclet$?_Getcat@?$ctype@D@std@@SAIPAPBVfacet@locale@2@PBV42@@Z$1
	DD	0ffffffffH
	DD	FLAT:__unwindfunclet$?_Getcat@?$ctype@D@std@@SAIPAPBVfacet@locale@2@PBV42@@Z$1
__ehfuncinfo$?_Getcat@?$ctype@D@std@@SAIPAPBVfacet@locale@2@PBV42@@Z DD 019930522H
	DD	03H
	DD	FLAT:__unwindtable$?_Getcat@?$ctype@D@std@@SAIPAPBVfacet@locale@2@PBV42@@Z
	DD	2 DUP(00H)
	DD	2 DUP(00H)
	DD	00H
	DD	01H
; Function compile flags: /Odtp /RTCsu
xdata$x	ENDS
;	COMDAT ?_Getcat@?$ctype@D@std@@SAIPAPBVfacet@locale@2@PBV42@@Z
_TEXT	SEGMENT
tv92 = -76						; size = 4
tv133 = -72						; size = 4
tv138 = -68						; size = 4
$T141287 = -64						; size = 4
$T141283 = -60						; size = 36
$T141282 = -24						; size = 4
$T141281 = -20						; size = 4
$T141280 = -16						; size = 4
__$EHRec$ = -12						; size = 12
__Ppf$ = 8						; size = 4
__Ploc$ = 12						; size = 4
?_Getcat@?$ctype@D@std@@SAIPAPBVfacet@locale@2@PBV42@@Z PROC ; std::ctype<char>::_Getcat, COMDAT

; 2371 : 		{	// return locale category mask and construct standard facet

	push	ebp
	mov	ebp, esp
	push	-1
	push	__ehhandler$?_Getcat@?$ctype@D@std@@SAIPAPBVfacet@locale@2@PBV42@@Z
	mov	eax, DWORD PTR fs:0
	push	eax
	sub	esp, 64					; 00000040H
	push	edi
	lea	edi, DWORD PTR [ebp-76]
	mov	ecx, 16					; 00000010H
	mov	eax, -858993460				; ccccccccH
	rep stosd
	mov	eax, DWORD PTR ___security_cookie
	xor	eax, ebp
	push	eax
	lea	eax, DWORD PTR __$EHRec$[ebp]
	mov	DWORD PTR fs:0, eax
	mov	DWORD PTR $T141287[ebp], 0

; 2372 : 		if (_Ppf != 0 && *_Ppf == 0)

	cmp	DWORD PTR __Ppf$[ebp], 0
	je	$LN1@Getcat
	mov	eax, DWORD PTR __Ppf$[ebp]
	cmp	DWORD PTR [eax], 0
	jne	$LN1@Getcat

; 2373 : 			*_Ppf = _NEW_CRT ctype<_Elem>(
; 2374 : 				_Locinfo(_Ploc->c_str()));

	call	?_DebugHeapTag_func@std@@YAABU_DebugHeapTag_t@1@XZ ; std::_DebugHeapTag_func
	mov	DWORD PTR $T141282[ebp], eax
	push	2373					; 00000945H
	push	OFFSET ??_C@_0EH@OEAMKACA@c?3?2Program?5Files?5?$CIx86?$CJ?2Microsoft@
	mov	ecx, DWORD PTR $T141282[ebp]
	push	ecx
	push	24					; 00000018H
	call	??2facet@locale@std@@SAPAXIABU_DebugHeapTag_t@2@PADH@Z ; std::locale::facet::operator new
	add	esp, 16					; 00000010H
	mov	DWORD PTR $T141281[ebp], eax
	mov	DWORD PTR __$EHRec$[ebp+8], 0
	cmp	DWORD PTR $T141281[ebp], 0
	je	SHORT $LN4@Getcat
	push	0
	mov	ecx, DWORD PTR __Ploc$[ebp]
	call	?c_str@locale@std@@QBEPBDXZ		; std::locale::c_str
	push	eax
	lea	ecx, DWORD PTR $T141283[ebp]
	call	??0_Locinfo@std@@QAE@PBD@Z		; std::_Locinfo::_Locinfo
	mov	DWORD PTR tv138[ebp], eax
	mov	edx, DWORD PTR tv138[ebp]
	mov	DWORD PTR tv133[ebp], edx
	mov	BYTE PTR __$EHRec$[ebp+8], 1
	mov	eax, DWORD PTR $T141287[ebp]
	or	eax, 1
	mov	DWORD PTR $T141287[ebp], eax
	mov	ecx, DWORD PTR tv133[ebp]
	push	ecx
	mov	ecx, DWORD PTR $T141281[ebp]
	call	??0?$ctype@D@std@@QAE@ABV_Locinfo@1@I@Z	; std::ctype<char>::ctype<char>
	mov	DWORD PTR tv92[ebp], eax
	jmp	SHORT $LN5@Getcat
$LN4@Getcat:
	mov	DWORD PTR tv92[ebp], 0
$LN5@Getcat:
	mov	edx, DWORD PTR tv92[ebp]
	mov	DWORD PTR $T141280[ebp], edx
	mov	DWORD PTR __$EHRec$[ebp+8], 2
	mov	eax, DWORD PTR __Ppf$[ebp]
	mov	ecx, DWORD PTR $T141280[ebp]
	mov	DWORD PTR [eax], ecx
	mov	DWORD PTR __$EHRec$[ebp+8], -1
	mov	edx, DWORD PTR $T141287[ebp]
	and	edx, 1
	je	SHORT $LN1@Getcat
	and	DWORD PTR $T141287[ebp], -2		; fffffffeH
	lea	ecx, DWORD PTR $T141283[ebp]
	call	??1_Locinfo@std@@QAE@XZ			; std::_Locinfo::~_Locinfo
$LN1@Getcat:

; 2375 : 		return (_X_CTYPE);

	mov	eax, 2

; 2376 : 		}

	mov	ecx, DWORD PTR __$EHRec$[ebp]
	mov	DWORD PTR fs:0, ecx
	pop	ecx
	pop	edi
	add	esp, 76					; 0000004cH
	cmp	ebp, esp
	call	__RTC_CheckEsp
	mov	esp, ebp
	pop	ebp
	ret	0
_TEXT	ENDS
;	COMDAT text$x
text$x	SEGMENT
__unwindfunclet$?_Getcat@?$ctype@D@std@@SAIPAPBVfacet@locale@2@PBV42@@Z$0:
	push	2373					; 00000945H
	push	OFFSET ??_C@_0EH@OEAMKACA@c?3?2Program?5Files?5?$CIx86?$CJ?2Microsoft@
	mov	eax, DWORD PTR $T141282[ebp]
	push	eax
	mov	ecx, DWORD PTR $T141281[ebp]
	push	ecx
	call	??3facet@locale@std@@SAXPAXABU_DebugHeapTag_t@2@PADH@Z ; std::locale::facet::operator delete
	add	esp, 16					; 00000010H
	ret	0
__unwindfunclet$?_Getcat@?$ctype@D@std@@SAIPAPBVfacet@locale@2@PBV42@@Z$1:
	mov	eax, DWORD PTR $T141287[ebp]
	and	eax, 1
	je	$LN8@Getcat
	and	DWORD PTR $T141287[ebp], -2		; fffffffeH
	lea	ecx, DWORD PTR $T141283[ebp]
	jmp	??1_Locinfo@std@@QAE@XZ			; std::_Locinfo::~_Locinfo
$LN8@Getcat:
	ret	0
__ehhandler$?_Getcat@?$ctype@D@std@@SAIPAPBVfacet@locale@2@PBV42@@Z:
	mov	edx, DWORD PTR [esp+8]
	lea	eax, DWORD PTR [edx+12]
	mov	ecx, DWORD PTR [edx-72]
	xor	ecx, eax
	call	@__security_check_cookie@4
	mov	eax, OFFSET __ehfuncinfo$?_Getcat@?$ctype@D@std@@SAIPAPBVfacet@locale@2@PBV42@@Z
	jmp	___CxxFrameHandler3
text$x	ENDS
?_Getcat@?$ctype@D@std@@SAIPAPBVfacet@locale@2@PBV42@@Z ENDP ; std::ctype<char>::_Getcat
PUBLIC	??1?$_Yarn@D@std@@QAE@XZ			; std::_Yarn<char>::~_Yarn<char>
PUBLIC	__TI2?AVruntime_error@std@@
PUBLIC	??_C@_0BA@ELKIONDK@bad?5locale?5name?$AA@	; `string'
PUBLIC	??0?$_Yarn@D@std@@QAE@XZ			; std::_Yarn<char>::_Yarn<char>
PUBLIC	__CTA2?AVruntime_error@std@@
EXTRN	?_Locinfo_ctor@_Locinfo@std@@SAXPAV12@PBD@Z:PROC ; std::_Locinfo::_Locinfo_ctor
;	COMDAT __CTA2?AVruntime_error@std@@
; File c:\program files (x86)\microsoft visual studio 10.0\vc\include\xlocinfo
xdata$x	SEGMENT
__CTA2?AVruntime_error@std@@ DD 02H
	DD	FLAT:__CT??_R0?AVruntime_error@std@@@8??0runtime_error@std@@QAE@ABV01@@Z12
	DD	FLAT:__CT??_R0?AVexception@std@@@8??0exception@std@@QAE@ABV01@@Z12
xdata$x	ENDS
;	COMDAT __TI2?AVruntime_error@std@@
xdata$x	SEGMENT
__TI2?AVruntime_error@std@@ DD 00H
	DD	FLAT:??1runtime_error@std@@UAE@XZ
	DD	00H
	DD	FLAT:__CTA2?AVruntime_error@std@@
xdata$x	ENDS
;	COMDAT ??_C@_0BA@ELKIONDK@bad?5locale?5name?$AA@
CONST	SEGMENT
??_C@_0BA@ELKIONDK@bad?5locale?5name?$AA@ DB 'bad locale name', 00H ; `string'
CONST	ENDS
;	COMDAT xdata$x
xdata$x	SEGMENT
__ehfuncinfo$??0_Locinfo@std@@QAE@PBD@Z DD 019930522H
	DD	05H
	DD	FLAT:__unwindtable$??0_Locinfo@std@@QAE@PBD@Z
	DD	2 DUP(00H)
	DD	2 DUP(00H)
	DD	00H
	DD	01H
__unwindtable$??0_Locinfo@std@@QAE@PBD@Z DD 0ffffffffH
	DD	FLAT:__unwindfunclet$??0_Locinfo@std@@QAE@PBD@Z$0
	DD	00H
	DD	FLAT:__unwindfunclet$??0_Locinfo@std@@QAE@PBD@Z$1
	DD	01H
	DD	FLAT:__unwindfunclet$??0_Locinfo@std@@QAE@PBD@Z$2
	DD	02H
	DD	FLAT:__unwindfunclet$??0_Locinfo@std@@QAE@PBD@Z$3
	DD	03H
	DD	FLAT:__unwindfunclet$??0_Locinfo@std@@QAE@PBD@Z$4
; Function compile flags: /Odtp /RTCsu
xdata$x	ENDS
;	COMDAT ??0_Locinfo@std@@QAE@PBD@Z
_TEXT	SEGMENT
$T141299 = -28						; size = 12
_this$ = -16						; size = 4
__$EHRec$ = -12						; size = 12
__Pch$ = 8						; size = 4
??0_Locinfo@std@@QAE@PBD@Z PROC				; std::_Locinfo::_Locinfo, COMDAT
; _this$ = ecx

; 76   :         {	// construct from NTBS

	push	ebp
	mov	ebp, esp
	push	-1
	push	__ehhandler$??0_Locinfo@std@@QAE@PBD@Z
	mov	eax, DWORD PTR fs:0
	push	eax
	sub	esp, 16					; 00000010H
	mov	eax, -858993460				; ccccccccH
	mov	DWORD PTR [ebp-28], eax
	mov	DWORD PTR [ebp-24], eax
	mov	DWORD PTR [ebp-20], eax
	mov	DWORD PTR [ebp-16], eax
	mov	eax, DWORD PTR ___security_cookie
	xor	eax, ebp
	push	eax
	lea	eax, DWORD PTR __$EHRec$[ebp]
	mov	DWORD PTR fs:0, eax
	mov	DWORD PTR _this$[ebp], ecx
	push	0
	mov	ecx, DWORD PTR _this$[ebp]
	call	??0_Lockit@std@@QAE@H@Z			; std::_Lockit::_Lockit
	mov	DWORD PTR __$EHRec$[ebp+8], 0
	mov	ecx, DWORD PTR _this$[ebp]
	add	ecx, 4
	call	??0?$_Yarn@D@std@@QAE@XZ		; std::_Yarn<char>::_Yarn<char>
	mov	BYTE PTR __$EHRec$[ebp+8], 1
	mov	ecx, DWORD PTR _this$[ebp]
	add	ecx, 12					; 0000000cH
	call	??0?$_Yarn@D@std@@QAE@XZ		; std::_Yarn<char>::_Yarn<char>
	mov	BYTE PTR __$EHRec$[ebp+8], 2
	mov	ecx, DWORD PTR _this$[ebp]
	add	ecx, 20					; 00000014H
	call	??0?$_Yarn@D@std@@QAE@XZ		; std::_Yarn<char>::_Yarn<char>
	mov	BYTE PTR __$EHRec$[ebp+8], 3
	mov	ecx, DWORD PTR _this$[ebp]
	add	ecx, 28					; 0000001cH
	call	??0?$_Yarn@D@std@@QAE@XZ		; std::_Yarn<char>::_Yarn<char>
	mov	BYTE PTR __$EHRec$[ebp+8], 4

; 77   :         if (_Pch == 0)

	cmp	DWORD PTR __Pch$[ebp], 0
	jne	SHORT $LN1@Locinfo

; 78   :             _THROW_NCEE(runtime_error, "bad locale name");

	push	OFFSET ??_C@_0BA@ELKIONDK@bad?5locale?5name?$AA@
	lea	ecx, DWORD PTR $T141299[ebp]
	call	??0runtime_error@std@@QAE@PBD@Z		; std::runtime_error::runtime_error
	push	OFFSET __TI2?AVruntime_error@std@@
	lea	eax, DWORD PTR $T141299[ebp]
	push	eax
	call	__CxxThrowException@8
$LN1@Locinfo:

; 79   :         _Locinfo_ctor(this, _Pch);

	mov	ecx, DWORD PTR __Pch$[ebp]
	push	ecx
	mov	edx, DWORD PTR _this$[ebp]
	push	edx
	call	?_Locinfo_ctor@_Locinfo@std@@SAXPAV12@PBD@Z ; std::_Locinfo::_Locinfo_ctor
	add	esp, 8

; 80   :         }

	mov	DWORD PTR __$EHRec$[ebp+8], -1
	mov	eax, DWORD PTR _this$[ebp]
$LN3@Locinfo:
	mov	ecx, DWORD PTR __$EHRec$[ebp]
	mov	DWORD PTR fs:0, ecx
	pop	ecx
	add	esp, 28					; 0000001cH
	cmp	ebp, esp
	call	__RTC_CheckEsp
	mov	esp, ebp
	pop	ebp
	ret	4
_TEXT	ENDS
;	COMDAT text$x
text$x	SEGMENT
__unwindfunclet$??0_Locinfo@std@@QAE@PBD@Z$0:
	mov	ecx, DWORD PTR _this$[ebp]
	jmp	??1_Lockit@std@@QAE@XZ			; std::_Lockit::~_Lockit
__unwindfunclet$??0_Locinfo@std@@QAE@PBD@Z$1:
	mov	ecx, DWORD PTR _this$[ebp]
	add	ecx, 4
	jmp	??1?$_Yarn@D@std@@QAE@XZ		; std::_Yarn<char>::~_Yarn<char>
__unwindfunclet$??0_Locinfo@std@@QAE@PBD@Z$2:
	mov	ecx, DWORD PTR _this$[ebp]
	add	ecx, 12					; 0000000cH
	jmp	??1?$_Yarn@D@std@@QAE@XZ		; std::_Yarn<char>::~_Yarn<char>
__unwindfunclet$??0_Locinfo@std@@QAE@PBD@Z$3:
	mov	ecx, DWORD PTR _this$[ebp]
	add	ecx, 20					; 00000014H
	jmp	??1?$_Yarn@D@std@@QAE@XZ		; std::_Yarn<char>::~_Yarn<char>
__unwindfunclet$??0_Locinfo@std@@QAE@PBD@Z$4:
	mov	ecx, DWORD PTR _this$[ebp]
	add	ecx, 28					; 0000001cH
	jmp	??1?$_Yarn@D@std@@QAE@XZ		; std::_Yarn<char>::~_Yarn<char>
__ehhandler$??0_Locinfo@std@@QAE@PBD@Z:
	mov	edx, DWORD PTR [esp+8]
	lea	eax, DWORD PTR [edx+12]
	mov	ecx, DWORD PTR [edx-20]
	xor	ecx, eax
	call	@__security_check_cookie@4
	mov	eax, OFFSET __ehfuncinfo$??0_Locinfo@std@@QAE@PBD@Z
	jmp	___CxxFrameHandler3
text$x	ENDS
??0_Locinfo@std@@QAE@PBD@Z ENDP				; std::_Locinfo::_Locinfo
EXTRN	?_Locinfo_dtor@_Locinfo@std@@SAXPAV12@@Z:PROC	; std::_Locinfo::_Locinfo_dtor
;	COMDAT xdata$x
xdata$x	SEGMENT
__ehfuncinfo$??1_Locinfo@std@@QAE@XZ DD 019930522H
	DD	05H
	DD	FLAT:__unwindtable$??1_Locinfo@std@@QAE@XZ
	DD	2 DUP(00H)
	DD	2 DUP(00H)
	DD	00H
	DD	01H
__unwindtable$??1_Locinfo@std@@QAE@XZ DD 0ffffffffH
	DD	FLAT:__unwindfunclet$??1_Locinfo@std@@QAE@XZ$0
	DD	00H
	DD	FLAT:__unwindfunclet$??1_Locinfo@std@@QAE@XZ$1
	DD	01H
	DD	FLAT:__unwindfunclet$??1_Locinfo@std@@QAE@XZ$2
	DD	02H
	DD	FLAT:__unwindfunclet$??1_Locinfo@std@@QAE@XZ$3
	DD	03H
	DD	FLAT:__unwindfunclet$??1_Locinfo@std@@QAE@XZ$4
; Function compile flags: /Odtp /RTCsu
xdata$x	ENDS
;	COMDAT ??1_Locinfo@std@@QAE@XZ
_TEXT	SEGMENT
_this$ = -16						; size = 4
__$EHRec$ = -12						; size = 12
??1_Locinfo@std@@QAE@XZ PROC				; std::_Locinfo::~_Locinfo, COMDAT
; _this$ = ecx

; 93   :         {

	push	ebp
	mov	ebp, esp
	push	-1
	push	__ehhandler$??1_Locinfo@std@@QAE@XZ
	mov	eax, DWORD PTR fs:0
	push	eax
	push	ecx
	mov	DWORD PTR [ebp-16], -858993460		; ccccccccH
	mov	eax, DWORD PTR ___security_cookie
	xor	eax, ebp
	push	eax
	lea	eax, DWORD PTR __$EHRec$[ebp]
	mov	DWORD PTR fs:0, eax
	mov	DWORD PTR _this$[ebp], ecx
	mov	DWORD PTR __$EHRec$[ebp+8], 4

; 94   :         _Locinfo_dtor(this);

	mov	eax, DWORD PTR _this$[ebp]
	push	eax
	call	?_Locinfo_dtor@_Locinfo@std@@SAXPAV12@@Z ; std::_Locinfo::_Locinfo_dtor
	add	esp, 4

; 95   :         }

	mov	BYTE PTR __$EHRec$[ebp+8], 3
	mov	ecx, DWORD PTR _this$[ebp]
	add	ecx, 28					; 0000001cH
	call	??1?$_Yarn@D@std@@QAE@XZ		; std::_Yarn<char>::~_Yarn<char>
	mov	BYTE PTR __$EHRec$[ebp+8], 2
	mov	ecx, DWORD PTR _this$[ebp]
	add	ecx, 20					; 00000014H
	call	??1?$_Yarn@D@std@@QAE@XZ		; std::_Yarn<char>::~_Yarn<char>
	mov	BYTE PTR __$EHRec$[ebp+8], 1
	mov	ecx, DWORD PTR _this$[ebp]
	add	ecx, 12					; 0000000cH
	call	??1?$_Yarn@D@std@@QAE@XZ		; std::_Yarn<char>::~_Yarn<char>
	mov	BYTE PTR __$EHRec$[ebp+8], 0
	mov	ecx, DWORD PTR _this$[ebp]
	add	ecx, 4
	call	??1?$_Yarn@D@std@@QAE@XZ		; std::_Yarn<char>::~_Yarn<char>
	mov	DWORD PTR __$EHRec$[ebp+8], -1
	mov	ecx, DWORD PTR _this$[ebp]
	call	??1_Lockit@std@@QAE@XZ			; std::_Lockit::~_Lockit
	mov	ecx, DWORD PTR __$EHRec$[ebp]
	mov	DWORD PTR fs:0, ecx
	pop	ecx
	add	esp, 16					; 00000010H
	cmp	ebp, esp
	call	__RTC_CheckEsp
	mov	esp, ebp
	pop	ebp
	ret	0
_TEXT	ENDS
;	COMDAT text$x
text$x	SEGMENT
__unwindfunclet$??1_Locinfo@std@@QAE@XZ$0:
	mov	ecx, DWORD PTR _this$[ebp]
	jmp	??1_Lockit@std@@QAE@XZ			; std::_Lockit::~_Lockit
__unwindfunclet$??1_Locinfo@std@@QAE@XZ$1:
	mov	ecx, DWORD PTR _this$[ebp]
	add	ecx, 4
	jmp	??1?$_Yarn@D@std@@QAE@XZ		; std::_Yarn<char>::~_Yarn<char>
__unwindfunclet$??1_Locinfo@std@@QAE@XZ$2:
	mov	ecx, DWORD PTR _this$[ebp]
	add	ecx, 12					; 0000000cH
	jmp	??1?$_Yarn@D@std@@QAE@XZ		; std::_Yarn<char>::~_Yarn<char>
__unwindfunclet$??1_Locinfo@std@@QAE@XZ$3:
	mov	ecx, DWORD PTR _this$[ebp]
	add	ecx, 20					; 00000014H
	jmp	??1?$_Yarn@D@std@@QAE@XZ		; std::_Yarn<char>::~_Yarn<char>
__unwindfunclet$??1_Locinfo@std@@QAE@XZ$4:
	mov	ecx, DWORD PTR _this$[ebp]
	add	ecx, 28					; 0000001cH
	jmp	??1?$_Yarn@D@std@@QAE@XZ		; std::_Yarn<char>::~_Yarn<char>
__ehhandler$??1_Locinfo@std@@QAE@XZ:
	mov	edx, DWORD PTR [esp+8]
	lea	eax, DWORD PTR [edx+12]
	mov	ecx, DWORD PTR [edx-8]
	xor	ecx, eax
	call	@__security_check_cookie@4
	mov	eax, OFFSET __ehfuncinfo$??1_Locinfo@std@@QAE@XZ
	jmp	___CxxFrameHandler3
text$x	ENDS
??1_Locinfo@std@@QAE@XZ ENDP				; std::_Locinfo::~_Locinfo
EXTRN	??2@YAPAXIABU_DebugHeapTag_t@std@@PADH@Z:PROC	; operator new
; Function compile flags: /Odtp /RTCsu
; File c:\program files (x86)\microsoft visual studio 10.0\vc\include\xlocale
;	COMDAT ??2facet@locale@std@@SAPAXIABU_DebugHeapTag_t@2@PADH@Z
_TEXT	SEGMENT
__Size$ = 8						; size = 4
__Tag$ = 12						; size = 4
__File$ = 16						; size = 4
__Line$ = 20						; size = 4
??2facet@locale@std@@SAPAXIABU_DebugHeapTag_t@2@PADH@Z PROC ; std::locale::facet::operator new, COMDAT

; 146  : 			{	// replace debugging operator new

	push	ebp
	mov	ebp, esp

; 147  : 			return (::operator new(_Size, _Tag, _File, _Line));

	mov	eax, DWORD PTR __Line$[ebp]
	push	eax
	mov	ecx, DWORD PTR __File$[ebp]
	push	ecx
	mov	edx, DWORD PTR __Tag$[ebp]
	push	edx
	mov	eax, DWORD PTR __Size$[ebp]
	push	eax
	call	??2@YAPAXIABU_DebugHeapTag_t@std@@PADH@Z ; operator new
	add	esp, 16					; 00000010H

; 148  : 			}

	cmp	ebp, esp
	call	__RTC_CheckEsp
	pop	ebp
	ret	0
??2facet@locale@std@@SAPAXIABU_DebugHeapTag_t@2@PADH@Z ENDP ; std::locale::facet::operator new
_TEXT	ENDS
PUBLIC	??3facet@locale@std@@SAXPAX@Z			; std::locale::facet::operator delete
; Function compile flags: /Odtp /RTCsu
;	COMDAT ??3facet@locale@std@@SAXPAXABU_DebugHeapTag_t@2@PADH@Z
_TEXT	SEGMENT
__Ptr$ = 8						; size = 4
___formal$ = 12						; size = 4
___formal$ = 16						; size = 4
___formal$ = 20						; size = 4
??3facet@locale@std@@SAXPAXABU_DebugHeapTag_t@2@PADH@Z PROC ; std::locale::facet::operator delete, COMDAT

; 152  : 			{	// replace debugging operator delete

	push	ebp
	mov	ebp, esp

; 153  : 			operator delete(_Ptr);

	mov	eax, DWORD PTR __Ptr$[ebp]
	push	eax
	call	??3facet@locale@std@@SAXPAX@Z		; std::locale::facet::operator delete
	add	esp, 4

; 154  : 			}

	cmp	ebp, esp
	call	__RTC_CheckEsp
	pop	ebp
	ret	0
??3facet@locale@std@@SAXPAXABU_DebugHeapTag_t@2@PADH@Z ENDP ; std::locale::facet::operator delete
; Function compile flags: /Odtp /RTCsu
_TEXT	ENDS
;	COMDAT ??3facet@locale@std@@SAXPAX@Z
_TEXT	SEGMENT
__Ptr$ = 8						; size = 4
??3facet@locale@std@@SAXPAX@Z PROC			; std::locale::facet::operator delete, COMDAT

; 157  : 			{	// replace operator delete

	push	ebp
	mov	ebp, esp

; 158  : 			_DebugHeapDelete((facet *)_Ptr);

	mov	eax, DWORD PTR __Ptr$[ebp]
	push	eax
	call	??$_DebugHeapDelete@Vfacet@locale@std@@@std@@YAXPAVfacet@locale@0@@Z ; std::_DebugHeapDelete<std::locale::facet>
	add	esp, 4

; 159  : 			}

	cmp	ebp, esp
	call	__RTC_CheckEsp
	pop	ebp
	ret	0
??3facet@locale@std@@SAXPAX@Z ENDP			; std::locale::facet::operator delete
_TEXT	ENDS
PUBLIC	?c_str@?$_Yarn@D@std@@QBEPBDXZ			; std::_Yarn<char>::c_str
; Function compile flags: /Odtp /RTCsu
;	COMDAT ?c_str@locale@std@@QBEPBDXZ
_TEXT	SEGMENT
_this$ = -4						; size = 4
?c_str@locale@std@@QBEPBDXZ PROC			; std::locale::c_str, COMDAT
; _this$ = ecx

; 431  : 		{	// return locale name as NTBS

	push	ebp
	mov	ebp, esp
	push	ecx
	mov	DWORD PTR [ebp-4], -858993460		; ccccccccH
	mov	DWORD PTR _this$[ebp], ecx

; 432  : 		return (_Ptr->_Name.c_str());

	mov	eax, DWORD PTR _this$[ebp]
	mov	ecx, DWORD PTR [eax]
	add	ecx, 24					; 00000018H
	call	?c_str@?$_Yarn@D@std@@QBEPBDXZ		; std::_Yarn<char>::c_str

; 433  : 		}

	add	esp, 4
	cmp	ebp, esp
	call	__RTC_CheckEsp
	mov	esp, ebp
	pop	ebp
	ret	0
?c_str@locale@std@@QBEPBDXZ ENDP			; std::locale::c_str
_TEXT	ENDS
PUBLIC	??1ctype_base@std@@UAE@XZ			; std::ctype_base::~ctype_base
PUBLIC	?_Init@?$ctype@D@std@@IAEXABV_Locinfo@2@@Z	; std::ctype<char>::_Init
PUBLIC	??_7?$ctype@D@std@@6B@				; std::ctype<char>::`vftable'
PUBLIC	??0ctype_base@std@@QAE@I@Z			; std::ctype_base::ctype_base
PUBLIC	??_R4?$ctype@D@std@@6B@				; std::ctype<char>::`RTTI Complete Object Locator'
PUBLIC	??_R0?AV?$ctype@D@std@@@8			; std::ctype<char> `RTTI Type Descriptor'
PUBLIC	??_R3?$ctype@D@std@@8				; std::ctype<char>::`RTTI Class Hierarchy Descriptor'
PUBLIC	??_R2?$ctype@D@std@@8				; std::ctype<char>::`RTTI Base Class Array'
PUBLIC	??_R1A@?0A@EA@?$ctype@D@std@@8			; std::ctype<char>::`RTTI Base Class Descriptor at (0,-1,0,64)'
PUBLIC	??_R1A@?0A@EA@ctype_base@std@@8			; std::ctype_base::`RTTI Base Class Descriptor at (0,-1,0,64)'
PUBLIC	??_R0?AUctype_base@std@@@8			; std::ctype_base `RTTI Type Descriptor'
PUBLIC	??_R3ctype_base@std@@8				; std::ctype_base::`RTTI Class Hierarchy Descriptor'
PUBLIC	??_R2ctype_base@std@@8				; std::ctype_base::`RTTI Base Class Array'
PUBLIC	??_R1A@?0A@EA@facet@locale@std@@8		; std::locale::facet::`RTTI Base Class Descriptor at (0,-1,0,64)'
PUBLIC	??_R0?AVfacet@locale@std@@@8			; std::locale::facet `RTTI Type Descriptor'
PUBLIC	??_R3facet@locale@std@@8			; std::locale::facet::`RTTI Class Hierarchy Descriptor'
PUBLIC	??_R2facet@locale@std@@8			; std::locale::facet::`RTTI Base Class Array'
PUBLIC	?do_tolower@?$ctype@D@std@@MBEPBDPADPBD@Z	; std::ctype<char>::do_tolower
PUBLIC	?do_tolower@?$ctype@D@std@@MBEDD@Z		; std::ctype<char>::do_tolower
PUBLIC	?do_toupper@?$ctype@D@std@@MBEPBDPADPBD@Z	; std::ctype<char>::do_toupper
PUBLIC	?do_toupper@?$ctype@D@std@@MBEDD@Z		; std::ctype<char>::do_toupper
PUBLIC	?do_widen@?$ctype@D@std@@MBEPBDPBD0PAD@Z	; std::ctype<char>::do_widen
PUBLIC	?do_widen@?$ctype@D@std@@MBEDD@Z		; std::ctype<char>::do_widen
PUBLIC	?do_narrow@?$ctype@D@std@@MBEPBDPBD0DPAD@Z	; std::ctype<char>::do_narrow
PUBLIC	?do_narrow@?$ctype@D@std@@MBEDDD@Z		; std::ctype<char>::do_narrow
EXTRN	??_E?$ctype@D@std@@MAEPAXI@Z:PROC		; std::ctype<char>::`vector deleting destructor'
;	COMDAT ??_R2facet@locale@std@@8
rdata$r	SEGMENT
??_R2facet@locale@std@@8 DD FLAT:??_R1A@?0A@EA@facet@locale@std@@8 ; std::locale::facet::`RTTI Base Class Array'
rdata$r	ENDS
;	COMDAT ??_R3facet@locale@std@@8
rdata$r	SEGMENT
??_R3facet@locale@std@@8 DD 00H				; std::locale::facet::`RTTI Class Hierarchy Descriptor'
	DD	00H
	DD	01H
	DD	FLAT:??_R2facet@locale@std@@8
rdata$r	ENDS
;	COMDAT ??_R0?AVfacet@locale@std@@@8
_DATA	SEGMENT
??_R0?AVfacet@locale@std@@@8 DD FLAT:??_7type_info@@6B@	; std::locale::facet `RTTI Type Descriptor'
	DD	00H
	DB	'.?AVfacet@locale@std@@', 00H
_DATA	ENDS
;	COMDAT ??_R1A@?0A@EA@facet@locale@std@@8
rdata$r	SEGMENT
??_R1A@?0A@EA@facet@locale@std@@8 DD FLAT:??_R0?AVfacet@locale@std@@@8 ; std::locale::facet::`RTTI Base Class Descriptor at (0,-1,0,64)'
	DD	00H
	DD	00H
	DD	0ffffffffH
	DD	00H
	DD	040H
	DD	FLAT:??_R3facet@locale@std@@8
rdata$r	ENDS
;	COMDAT ??_R2ctype_base@std@@8
rdata$r	SEGMENT
??_R2ctype_base@std@@8 DD FLAT:??_R1A@?0A@EA@ctype_base@std@@8 ; std::ctype_base::`RTTI Base Class Array'
	DD	FLAT:??_R1A@?0A@EA@facet@locale@std@@8
rdata$r	ENDS
;	COMDAT ??_R3ctype_base@std@@8
rdata$r	SEGMENT
??_R3ctype_base@std@@8 DD 00H				; std::ctype_base::`RTTI Class Hierarchy Descriptor'
	DD	00H
	DD	02H
	DD	FLAT:??_R2ctype_base@std@@8
rdata$r	ENDS
;	COMDAT ??_R0?AUctype_base@std@@@8
_DATA	SEGMENT
??_R0?AUctype_base@std@@@8 DD FLAT:??_7type_info@@6B@	; std::ctype_base `RTTI Type Descriptor'
	DD	00H
	DB	'.?AUctype_base@std@@', 00H
_DATA	ENDS
;	COMDAT ??_R1A@?0A@EA@ctype_base@std@@8
rdata$r	SEGMENT
??_R1A@?0A@EA@ctype_base@std@@8 DD FLAT:??_R0?AUctype_base@std@@@8 ; std::ctype_base::`RTTI Base Class Descriptor at (0,-1,0,64)'
	DD	01H
	DD	00H
	DD	0ffffffffH
	DD	00H
	DD	040H
	DD	FLAT:??_R3ctype_base@std@@8
rdata$r	ENDS
;	COMDAT ??_R1A@?0A@EA@?$ctype@D@std@@8
rdata$r	SEGMENT
??_R1A@?0A@EA@?$ctype@D@std@@8 DD FLAT:??_R0?AV?$ctype@D@std@@@8 ; std::ctype<char>::`RTTI Base Class Descriptor at (0,-1,0,64)'
	DD	02H
	DD	00H
	DD	0ffffffffH
	DD	00H
	DD	040H
	DD	FLAT:??_R3?$ctype@D@std@@8
rdata$r	ENDS
;	COMDAT ??_R2?$ctype@D@std@@8
rdata$r	SEGMENT
??_R2?$ctype@D@std@@8 DD FLAT:??_R1A@?0A@EA@?$ctype@D@std@@8 ; std::ctype<char>::`RTTI Base Class Array'
	DD	FLAT:??_R1A@?0A@EA@ctype_base@std@@8
	DD	FLAT:??_R1A@?0A@EA@facet@locale@std@@8
rdata$r	ENDS
;	COMDAT ??_R3?$ctype@D@std@@8
rdata$r	SEGMENT
??_R3?$ctype@D@std@@8 DD 00H				; std::ctype<char>::`RTTI Class Hierarchy Descriptor'
	DD	00H
	DD	03H
	DD	FLAT:??_R2?$ctype@D@std@@8
rdata$r	ENDS
;	COMDAT ??_R0?AV?$ctype@D@std@@@8
_DATA	SEGMENT
??_R0?AV?$ctype@D@std@@@8 DD FLAT:??_7type_info@@6B@	; std::ctype<char> `RTTI Type Descriptor'
	DD	00H
	DB	'.?AV?$ctype@D@std@@', 00H
_DATA	ENDS
;	COMDAT ??_R4?$ctype@D@std@@6B@
rdata$r	SEGMENT
??_R4?$ctype@D@std@@6B@ DD 00H				; std::ctype<char>::`RTTI Complete Object Locator'
	DD	00H
	DD	00H
	DD	FLAT:??_R0?AV?$ctype@D@std@@@8
	DD	FLAT:??_R3?$ctype@D@std@@8
rdata$r	ENDS
;	COMDAT ??_7?$ctype@D@std@@6B@
CONST	SEGMENT
??_7?$ctype@D@std@@6B@ DD FLAT:??_R4?$ctype@D@std@@6B@	; std::ctype<char>::`vftable'
	DD	FLAT:??_E?$ctype@D@std@@MAEPAXI@Z
	DD	FLAT:?do_tolower@?$ctype@D@std@@MBEPBDPADPBD@Z
	DD	FLAT:?do_tolower@?$ctype@D@std@@MBEDD@Z
	DD	FLAT:?do_toupper@?$ctype@D@std@@MBEPBDPADPBD@Z
	DD	FLAT:?do_toupper@?$ctype@D@std@@MBEDD@Z
	DD	FLAT:?do_widen@?$ctype@D@std@@MBEPBDPBD0PAD@Z
	DD	FLAT:?do_widen@?$ctype@D@std@@MBEDD@Z
	DD	FLAT:?do_narrow@?$ctype@D@std@@MBEPBDPBD0DPAD@Z
	DD	FLAT:?do_narrow@?$ctype@D@std@@MBEDDD@Z
CONST	ENDS
;	COMDAT xdata$x
xdata$x	SEGMENT
__unwindtable$??0?$ctype@D@std@@QAE@ABV_Locinfo@1@I@Z DD 0ffffffffH
	DD	FLAT:__unwindfunclet$??0?$ctype@D@std@@QAE@ABV_Locinfo@1@I@Z$0
__ehfuncinfo$??0?$ctype@D@std@@QAE@ABV_Locinfo@1@I@Z DD 019930522H
	DD	01H
	DD	FLAT:__unwindtable$??0?$ctype@D@std@@QAE@ABV_Locinfo@1@I@Z
	DD	2 DUP(00H)
	DD	2 DUP(00H)
	DD	00H
	DD	01H
; Function compile flags: /Odtp /RTCsu
xdata$x	ENDS
;	COMDAT ??0?$ctype@D@std@@QAE@ABV_Locinfo@1@I@Z
_TEXT	SEGMENT
_this$ = -16						; size = 4
__$EHRec$ = -12						; size = 12
__Lobj$ = 8						; size = 4
__Refs$ = 12						; size = 4
??0?$ctype@D@std@@QAE@ABV_Locinfo@1@I@Z PROC		; std::ctype<char>::ctype<char>, COMDAT
; _this$ = ecx

; 2365 : 		{	// construct from current locale

	push	ebp
	mov	ebp, esp
	push	-1
	push	__ehhandler$??0?$ctype@D@std@@QAE@ABV_Locinfo@1@I@Z
	mov	eax, DWORD PTR fs:0
	push	eax
	push	ecx
	mov	DWORD PTR [ebp-16], -858993460		; ccccccccH
	mov	eax, DWORD PTR ___security_cookie
	xor	eax, ebp
	push	eax
	lea	eax, DWORD PTR __$EHRec$[ebp]
	mov	DWORD PTR fs:0, eax
	mov	DWORD PTR _this$[ebp], ecx
	mov	eax, DWORD PTR __Refs$[ebp]
	push	eax
	mov	ecx, DWORD PTR _this$[ebp]
	call	??0ctype_base@std@@QAE@I@Z		; std::ctype_base::ctype_base
	mov	DWORD PTR __$EHRec$[ebp+8], 0
	mov	ecx, DWORD PTR _this$[ebp]
	mov	DWORD PTR [ecx], OFFSET ??_7?$ctype@D@std@@6B@

; 2366 : 		_Init(_Lobj);

	mov	edx, DWORD PTR __Lobj$[ebp]
	push	edx
	mov	ecx, DWORD PTR _this$[ebp]
	call	?_Init@?$ctype@D@std@@IAEXABV_Locinfo@2@@Z ; std::ctype<char>::_Init

; 2367 : 		}

	mov	DWORD PTR __$EHRec$[ebp+8], -1
	mov	eax, DWORD PTR _this$[ebp]
	mov	ecx, DWORD PTR __$EHRec$[ebp]
	mov	DWORD PTR fs:0, ecx
	pop	ecx
	add	esp, 16					; 00000010H
	cmp	ebp, esp
	call	__RTC_CheckEsp
	mov	esp, ebp
	pop	ebp
	ret	8
_TEXT	ENDS
;	COMDAT text$x
text$x	SEGMENT
__unwindfunclet$??0?$ctype@D@std@@QAE@ABV_Locinfo@1@I@Z$0:
	mov	ecx, DWORD PTR _this$[ebp]
	jmp	??1ctype_base@std@@UAE@XZ		; std::ctype_base::~ctype_base
__ehhandler$??0?$ctype@D@std@@QAE@ABV_Locinfo@1@I@Z:
	mov	edx, DWORD PTR [esp+8]
	lea	eax, DWORD PTR [edx+12]
	mov	ecx, DWORD PTR [edx-8]
	xor	ecx, eax
	call	@__security_check_cookie@4
	mov	eax, OFFSET __ehfuncinfo$??0?$ctype@D@std@@QAE@ABV_Locinfo@1@I@Z
	jmp	___CxxFrameHandler3
text$x	ENDS
??0?$ctype@D@std@@QAE@ABV_Locinfo@1@I@Z ENDP		; std::ctype<char>::ctype<char>
PUBLIC	??_7ctype_base@std@@6B@				; std::ctype_base::`vftable'
PUBLIC	??0facet@locale@std@@IAE@I@Z			; std::locale::facet::facet
PUBLIC	??_R4ctype_base@std@@6B@			; std::ctype_base::`RTTI Complete Object Locator'
EXTRN	??_Ectype_base@std@@UAEPAXI@Z:PROC		; std::ctype_base::`vector deleting destructor'
;	COMDAT ??_R4ctype_base@std@@6B@
rdata$r	SEGMENT
??_R4ctype_base@std@@6B@ DD 00H				; std::ctype_base::`RTTI Complete Object Locator'
	DD	00H
	DD	00H
	DD	FLAT:??_R0?AUctype_base@std@@@8
	DD	FLAT:??_R3ctype_base@std@@8
rdata$r	ENDS
;	COMDAT ??_7ctype_base@std@@6B@
CONST	SEGMENT
??_7ctype_base@std@@6B@ DD FLAT:??_R4ctype_base@std@@6B@ ; std::ctype_base::`vftable'
	DD	FLAT:??_Ectype_base@std@@UAEPAXI@Z
; Function compile flags: /Odtp /RTCsu
CONST	ENDS
;	COMDAT ??0ctype_base@std@@QAE@I@Z
_TEXT	SEGMENT
_this$ = -4						; size = 4
__Refs$ = 8						; size = 4
??0ctype_base@std@@QAE@I@Z PROC				; std::ctype_base::ctype_base, COMDAT
; _this$ = ecx

; 2011 : 		{	// default constructor

	push	ebp
	mov	ebp, esp
	push	ecx
	mov	DWORD PTR [ebp-4], -858993460		; ccccccccH
	mov	DWORD PTR _this$[ebp], ecx
	mov	eax, DWORD PTR __Refs$[ebp]
	push	eax
	mov	ecx, DWORD PTR _this$[ebp]
	call	??0facet@locale@std@@IAE@I@Z		; std::locale::facet::facet
	mov	ecx, DWORD PTR _this$[ebp]
	mov	DWORD PTR [ecx], OFFSET ??_7ctype_base@std@@6B@

; 2012 : 		}

	mov	eax, DWORD PTR _this$[ebp]
	add	esp, 4
	cmp	ebp, esp
	call	__RTC_CheckEsp
	mov	esp, ebp
	pop	ebp
	ret	4
??0ctype_base@std@@QAE@I@Z ENDP				; std::ctype_base::ctype_base
_TEXT	ENDS
PUBLIC	??_7facet@locale@std@@6B@			; std::locale::facet::`vftable'
PUBLIC	??_R4facet@locale@std@@6B@			; std::locale::facet::`RTTI Complete Object Locator'
EXTRN	??_Efacet@locale@std@@UAEPAXI@Z:PROC		; std::locale::facet::`vector deleting destructor'
;	COMDAT ??_R4facet@locale@std@@6B@
rdata$r	SEGMENT
??_R4facet@locale@std@@6B@ DD 00H			; std::locale::facet::`RTTI Complete Object Locator'
	DD	00H
	DD	00H
	DD	FLAT:??_R0?AVfacet@locale@std@@@8
	DD	FLAT:??_R3facet@locale@std@@8
rdata$r	ENDS
;	COMDAT ??_7facet@locale@std@@6B@
CONST	SEGMENT
??_7facet@locale@std@@6B@ DD FLAT:??_R4facet@locale@std@@6B@ ; std::locale::facet::`vftable'
	DD	FLAT:??_Efacet@locale@std@@UAEPAXI@Z
; Function compile flags: /Odtp /RTCsu
CONST	ENDS
;	COMDAT ??0facet@locale@std@@IAE@I@Z
_TEXT	SEGMENT
_this$ = -4						; size = 4
__Initrefs$ = 8						; size = 4
??0facet@locale@std@@IAE@I@Z PROC			; std::locale::facet::facet, COMDAT
; _this$ = ecx

; 170  : 			{	// construct with initial reference count

	push	ebp
	mov	ebp, esp
	push	ecx
	mov	DWORD PTR [ebp-4], -858993460		; ccccccccH
	mov	DWORD PTR _this$[ebp], ecx
	mov	eax, DWORD PTR _this$[ebp]
	mov	DWORD PTR [eax], OFFSET ??_7facet@locale@std@@6B@
	mov	ecx, DWORD PTR _this$[ebp]
	mov	edx, DWORD PTR __Initrefs$[ebp]
	mov	DWORD PTR [ecx+4], edx

; 171  : 			}

	mov	eax, DWORD PTR _this$[ebp]
	mov	esp, ebp
	pop	ebp
	ret	4
??0facet@locale@std@@IAE@I@Z ENDP			; std::locale::facet::facet
_TEXT	ENDS
PUBLIC	??1facet@locale@std@@UAE@XZ			; std::locale::facet::~facet
; Function compile flags: /Odtp /RTCsu
;	COMDAT ??_Gfacet@locale@std@@UAEPAXI@Z
_TEXT	SEGMENT
_this$ = -4						; size = 4
___flags$ = 8						; size = 4
??_Gfacet@locale@std@@UAEPAXI@Z PROC			; std::locale::facet::`scalar deleting destructor', COMDAT
; _this$ = ecx
	push	ebp
	mov	ebp, esp
	push	ecx
	mov	DWORD PTR [ebp-4], -858993460		; ccccccccH
	mov	DWORD PTR _this$[ebp], ecx
	mov	ecx, DWORD PTR _this$[ebp]
	call	??1facet@locale@std@@UAE@XZ		; std::locale::facet::~facet
	mov	eax, DWORD PTR ___flags$[ebp]
	and	eax, 1
	je	SHORT $LN1@scalar@8
	mov	ecx, DWORD PTR _this$[ebp]
	push	ecx
	call	??3facet@locale@std@@SAXPAX@Z		; std::locale::facet::operator delete
	add	esp, 4
$LN1@scalar@8:
	mov	eax, DWORD PTR _this$[ebp]
	add	esp, 4
	cmp	ebp, esp
	call	__RTC_CheckEsp
	mov	esp, ebp
	pop	ebp
	ret	4
??_Gfacet@locale@std@@UAEPAXI@Z ENDP			; std::locale::facet::`scalar deleting destructor'
; Function compile flags: /Odtp /RTCsu
_TEXT	ENDS
;	COMDAT ??1facet@locale@std@@UAE@XZ
_TEXT	SEGMENT
_this$ = -4						; size = 4
??1facet@locale@std@@UAE@XZ PROC			; std::locale::facet::~facet, COMDAT
; _this$ = ecx

; 164  : 			{	// destroy the object

	push	ebp
	mov	ebp, esp
	push	ecx
	mov	DWORD PTR [ebp-4], -858993460		; ccccccccH
	mov	DWORD PTR _this$[ebp], ecx
	mov	eax, DWORD PTR _this$[ebp]
	mov	DWORD PTR [eax], OFFSET ??_7facet@locale@std@@6B@

; 165  : 			}

	mov	esp, ebp
	pop	ebp
	ret	0
??1facet@locale@std@@UAE@XZ ENDP			; std::locale::facet::~facet
; Function compile flags: /Odtp /RTCsu
_TEXT	ENDS
;	COMDAT ??1ctype_base@std@@UAE@XZ
_TEXT	SEGMENT
_this$ = -4						; size = 4
??1ctype_base@std@@UAE@XZ PROC				; std::ctype_base::~ctype_base, COMDAT
; _this$ = ecx

; 2015 : 		{	// destroy the object

	push	ebp
	mov	ebp, esp
	push	ecx
	mov	DWORD PTR [ebp-4], -858993460		; ccccccccH
	mov	DWORD PTR _this$[ebp], ecx
	mov	eax, DWORD PTR _this$[ebp]
	mov	DWORD PTR [eax], OFFSET ??_7ctype_base@std@@6B@

; 2016 : 		}

	mov	ecx, DWORD PTR _this$[ebp]
	call	??1facet@locale@std@@UAE@XZ		; std::locale::facet::~facet
	add	esp, 4
	cmp	ebp, esp
	call	__RTC_CheckEsp
	mov	esp, ebp
	pop	ebp
	ret	0
??1ctype_base@std@@UAE@XZ ENDP				; std::ctype_base::~ctype_base
; Function compile flags: /Odtp /RTCsu
_TEXT	ENDS
;	COMDAT ??_Gctype_base@std@@UAEPAXI@Z
_TEXT	SEGMENT
_this$ = -4						; size = 4
___flags$ = 8						; size = 4
??_Gctype_base@std@@UAEPAXI@Z PROC			; std::ctype_base::`scalar deleting destructor', COMDAT
; _this$ = ecx
	push	ebp
	mov	ebp, esp
	push	ecx
	mov	DWORD PTR [ebp-4], -858993460		; ccccccccH
	mov	DWORD PTR _this$[ebp], ecx
	mov	ecx, DWORD PTR _this$[ebp]
	call	??1ctype_base@std@@UAE@XZ		; std::ctype_base::~ctype_base
	mov	eax, DWORD PTR ___flags$[ebp]
	and	eax, 1
	je	SHORT $LN1@scalar@9
	mov	ecx, DWORD PTR _this$[ebp]
	push	ecx
	call	??3facet@locale@std@@SAXPAX@Z		; std::locale::facet::operator delete
	add	esp, 4
$LN1@scalar@9:
	mov	eax, DWORD PTR _this$[ebp]
	add	esp, 4
	cmp	ebp, esp
	call	__RTC_CheckEsp
	mov	esp, ebp
	pop	ebp
	ret	4
??_Gctype_base@std@@UAEPAXI@Z ENDP			; std::ctype_base::`scalar deleting destructor'
_TEXT	ENDS
PUBLIC	?_Getctype@_Locinfo@std@@QBE?AU_Ctypevec@@XZ	; std::_Locinfo::_Getctype
; Function compile flags: /Odtp /RTCsu
;	COMDAT ?_Init@?$ctype@D@std@@IAEXABV_Locinfo@2@@Z
_TEXT	SEGMENT
$T141357 = -20						; size = 16
_this$ = -4						; size = 4
__Lobj$ = 8						; size = 4
?_Init@?$ctype@D@std@@IAEXABV_Locinfo@2@@Z PROC		; std::ctype<char>::_Init, COMDAT
; _this$ = ecx

; 2399 : 		{	// initialize from _Lobj

	push	ebp
	mov	ebp, esp
	sub	esp, 20					; 00000014H
	mov	eax, -858993460				; ccccccccH
	mov	DWORD PTR [ebp-20], eax
	mov	DWORD PTR [ebp-16], eax
	mov	DWORD PTR [ebp-12], eax
	mov	DWORD PTR [ebp-8], eax
	mov	DWORD PTR [ebp-4], eax
	mov	DWORD PTR _this$[ebp], ecx

; 2400 : 		_Ctype = _Lobj._Getctype();

	lea	eax, DWORD PTR $T141357[ebp]
	push	eax
	mov	ecx, DWORD PTR __Lobj$[ebp]
	call	?_Getctype@_Locinfo@std@@QBE?AU_Ctypevec@@XZ ; std::_Locinfo::_Getctype
	mov	ecx, DWORD PTR _this$[ebp]
	add	ecx, 8
	mov	edx, DWORD PTR [eax]
	mov	DWORD PTR [ecx], edx
	mov	edx, DWORD PTR [eax+4]
	mov	DWORD PTR [ecx+4], edx
	mov	edx, DWORD PTR [eax+8]
	mov	DWORD PTR [ecx+8], edx
	mov	eax, DWORD PTR [eax+12]
	mov	DWORD PTR [ecx+12], eax

; 2401 : 		}

	add	esp, 20					; 00000014H
	cmp	ebp, esp
	call	__RTC_CheckEsp
	mov	esp, ebp
	pop	ebp
	ret	4
?_Init@?$ctype@D@std@@IAEXABV_Locinfo@2@@Z ENDP		; std::ctype<char>::_Init
_TEXT	ENDS
EXTRN	__Getctype:PROC
; Function compile flags: /Odtp /RTCsu
; File c:\program files (x86)\microsoft visual studio 10.0\vc\include\xlocinfo
;	COMDAT ?_Getctype@_Locinfo@std@@QBE?AU_Ctypevec@@XZ
_TEXT	SEGMENT
$T141361 = -36						; size = 16
$T141360 = -20						; size = 16
_this$ = -4						; size = 4
___$ReturnUdt$ = 8					; size = 4
?_Getctype@_Locinfo@std@@QBE?AU_Ctypevec@@XZ PROC	; std::_Locinfo::_Getctype, COMDAT
; _this$ = ecx

; 117  : 		{	// return ctype stuff

	push	ebp
	mov	ebp, esp
	sub	esp, 36					; 00000024H
	mov	eax, -858993460				; ccccccccH
	mov	DWORD PTR [ebp-36], eax
	mov	DWORD PTR [ebp-32], eax
	mov	DWORD PTR [ebp-28], eax
	mov	DWORD PTR [ebp-24], eax
	mov	DWORD PTR [ebp-20], eax
	mov	DWORD PTR [ebp-16], eax
	mov	DWORD PTR [ebp-12], eax
	mov	DWORD PTR [ebp-8], eax
	mov	DWORD PTR [ebp-4], eax
	mov	DWORD PTR _this$[ebp], ecx

; 118  : 		return (::_Getctype());

	lea	eax, DWORD PTR $T141361[ebp]
	push	eax
	call	__Getctype
	add	esp, 4
	mov	ecx, DWORD PTR [eax]
	mov	DWORD PTR $T141360[ebp], ecx
	mov	edx, DWORD PTR [eax+4]
	mov	DWORD PTR $T141360[ebp+4], edx
	mov	ecx, DWORD PTR [eax+8]
	mov	DWORD PTR $T141360[ebp+8], ecx
	mov	edx, DWORD PTR [eax+12]
	mov	DWORD PTR $T141360[ebp+12], edx
	mov	eax, DWORD PTR ___$ReturnUdt$[ebp]
	mov	ecx, DWORD PTR $T141360[ebp]
	mov	DWORD PTR [eax], ecx
	mov	edx, DWORD PTR $T141360[ebp+4]
	mov	DWORD PTR [eax+4], edx
	mov	ecx, DWORD PTR $T141360[ebp+8]
	mov	DWORD PTR [eax+8], ecx
	mov	edx, DWORD PTR $T141360[ebp+12]
	mov	DWORD PTR [eax+12], edx
	mov	eax, DWORD PTR ___$ReturnUdt$[ebp]

; 119  : 		}

	add	esp, 36					; 00000024H
	cmp	ebp, esp
	call	__RTC_CheckEsp
	mov	esp, ebp
	pop	ebp
	ret	4
?_Getctype@_Locinfo@std@@QBE?AU_Ctypevec@@XZ ENDP	; std::_Locinfo::_Getctype
_TEXT	ENDS
EXTRN	__Tolower:PROC
; Function compile flags: /Odtp /RTCsu
; File c:\program files (x86)\microsoft visual studio 10.0\vc\include\xlocale
;	COMDAT ?do_tolower@?$ctype@D@std@@MBEDD@Z
_TEXT	SEGMENT
_this$ = -4						; size = 4
__Ch$ = 8						; size = 1
?do_tolower@?$ctype@D@std@@MBEDD@Z PROC			; std::ctype<char>::do_tolower, COMDAT
; _this$ = ecx

; 2412 : 		{	// convert element to lower case

	push	ebp
	mov	ebp, esp
	push	ecx
	mov	DWORD PTR [ebp-4], -858993460		; ccccccccH
	mov	DWORD PTR _this$[ebp], ecx

; 2413 : 		return ((_Elem)_Tolower((unsigned char)_Ch, &_Ctype));

	mov	eax, DWORD PTR _this$[ebp]
	add	eax, 8
	push	eax
	movzx	ecx, BYTE PTR __Ch$[ebp]
	push	ecx
	call	__Tolower
	add	esp, 8

; 2414 : 		}

	add	esp, 4
	cmp	ebp, esp
	call	__RTC_CheckEsp
	mov	esp, ebp
	pop	ebp
	ret	4
?do_tolower@?$ctype@D@std@@MBEDD@Z ENDP			; std::ctype<char>::do_tolower
_TEXT	ENDS
PUBLIC	??$_Debug_range@PBD@std@@YAXPBD0PB_WI@Z		; std::_Debug_range<char const *>
PUBLIC	??_C@_1IO@OICMNCNA@?$AAc?$AA?3?$AA?2?$AAP?$AAr?$AAo?$AAg?$AAr?$AAa?$AAm?$AA?5?$AAF?$AAi?$AAl?$AAe?$AAs?$AA?5?$AA?$CI?$AAx?$AA8?$AA6?$AA?$CJ?$AA?2?$AAM?$AAi?$AAc?$AAr?$AAo?$AAs?$AAo?$AAf?$AAt@ ; `string'
;	COMDAT ??_C@_1IO@OICMNCNA@?$AAc?$AA?3?$AA?2?$AAP?$AAr?$AAo?$AAg?$AAr?$AAa?$AAm?$AA?5?$AAF?$AAi?$AAl?$AAe?$AAs?$AA?5?$AA?$CI?$AAx?$AA8?$AA6?$AA?$CJ?$AA?2?$AAM?$AAi?$AAc?$AAr?$AAo?$AAs?$AAo?$AAf?$AAt@
CONST	SEGMENT
??_C@_1IO@OICMNCNA@?$AAc?$AA?3?$AA?2?$AAP?$AAr?$AAo?$AAg?$AAr?$AAa?$AAm?$AA?5?$AAF?$AAi?$AAl?$AAe?$AAs?$AA?5?$AA?$CI?$AAx?$AA8?$AA6?$AA?$CJ?$AA?2?$AAM?$AAi?$AAc?$AAr?$AAo?$AAs?$AAo?$AAf?$AAt@ DB 'c'
	DB	00H, ':', 00H, '\', 00H, 'P', 00H, 'r', 00H, 'o', 00H, 'g', 00H
	DB	'r', 00H, 'a', 00H, 'm', 00H, ' ', 00H, 'F', 00H, 'i', 00H, 'l'
	DB	00H, 'e', 00H, 's', 00H, ' ', 00H, '(', 00H, 'x', 00H, '8', 00H
	DB	'6', 00H, ')', 00H, '\', 00H, 'M', 00H, 'i', 00H, 'c', 00H, 'r'
	DB	00H, 'o', 00H, 's', 00H, 'o', 00H, 'f', 00H, 't', 00H, ' ', 00H
	DB	'V', 00H, 'i', 00H, 's', 00H, 'u', 00H, 'a', 00H, 'l', 00H, ' '
	DB	00H, 'S', 00H, 't', 00H, 'u', 00H, 'd', 00H, 'i', 00H, 'o', 00H
	DB	' ', 00H, '1', 00H, '0', 00H, '.', 00H, '0', 00H, '\', 00H, 'V'
	DB	00H, 'C', 00H, '\', 00H, 'i', 00H, 'n', 00H, 'c', 00H, 'l', 00H
	DB	'u', 00H, 'd', 00H, 'e', 00H, '\', 00H, 'x', 00H, 'l', 00H, 'o'
	DB	00H, 'c', 00H, 'a', 00H, 'l', 00H, 'e', 00H, 00H, 00H ; `string'
; Function compile flags: /Odtp /RTCsu
CONST	ENDS
;	COMDAT ?do_tolower@?$ctype@D@std@@MBEPBDPADPBD@Z
_TEXT	SEGMENT
_this$ = -4						; size = 4
__First$ = 8						; size = 4
__Last$ = 12						; size = 4
?do_tolower@?$ctype@D@std@@MBEPBDPADPBD@Z PROC		; std::ctype<char>::do_tolower, COMDAT
; _this$ = ecx

; 2418 : 		{	// convert [_First, _Last) in place to lower case

	push	ebp
	mov	ebp, esp
	push	ecx
	mov	DWORD PTR [ebp-4], -858993460		; ccccccccH
	mov	DWORD PTR _this$[ebp], ecx

; 2419 : 		_DEBUG_RANGE((const _Elem *)_First, _Last);

	push	2419					; 00000973H
	push	OFFSET ??_C@_1IO@OICMNCNA@?$AAc?$AA?3?$AA?2?$AAP?$AAr?$AAo?$AAg?$AAr?$AAa?$AAm?$AA?5?$AAF?$AAi?$AAl?$AAe?$AAs?$AA?5?$AA?$CI?$AAx?$AA8?$AA6?$AA?$CJ?$AA?2?$AAM?$AAi?$AAc?$AAr?$AAo?$AAs?$AAo?$AAf?$AAt@
	mov	eax, DWORD PTR __Last$[ebp]
	push	eax
	mov	ecx, DWORD PTR __First$[ebp]
	push	ecx
	call	??$_Debug_range@PBD@std@@YAXPBD0PB_WI@Z	; std::_Debug_range<char const *>
	add	esp, 16					; 00000010H

; 2420 : 		for (; _First != _Last; ++_First)

	jmp	SHORT $LN3@do_tolower
$LN2@do_tolower:
	mov	edx, DWORD PTR __First$[ebp]
	add	edx, 1
	mov	DWORD PTR __First$[ebp], edx
$LN3@do_tolower:
	mov	eax, DWORD PTR __First$[ebp]
	cmp	eax, DWORD PTR __Last$[ebp]
	je	SHORT $LN1@do_tolower

; 2421 : 			*_First = (_Elem)_Tolower((unsigned char)*_First, &_Ctype);

	mov	ecx, DWORD PTR _this$[ebp]
	add	ecx, 8
	push	ecx
	mov	edx, DWORD PTR __First$[ebp]
	movzx	eax, BYTE PTR [edx]
	push	eax
	call	__Tolower
	add	esp, 8
	mov	ecx, DWORD PTR __First$[ebp]
	mov	BYTE PTR [ecx], al
	jmp	SHORT $LN2@do_tolower
$LN1@do_tolower:

; 2422 : 		return ((const _Elem *)_First);

	mov	eax, DWORD PTR __First$[ebp]

; 2423 : 		}

	add	esp, 4
	cmp	ebp, esp
	call	__RTC_CheckEsp
	mov	esp, ebp
	pop	ebp
	ret	8
?do_tolower@?$ctype@D@std@@MBEPBDPADPBD@Z ENDP		; std::ctype<char>::do_tolower
_TEXT	ENDS
EXTRN	__Toupper:PROC
; Function compile flags: /Odtp /RTCsu
;	COMDAT ?do_toupper@?$ctype@D@std@@MBEDD@Z
_TEXT	SEGMENT
_this$ = -4						; size = 4
__Ch$ = 8						; size = 1
?do_toupper@?$ctype@D@std@@MBEDD@Z PROC			; std::ctype<char>::do_toupper, COMDAT
; _this$ = ecx

; 2426 : 		{	// convert element to upper case

	push	ebp
	mov	ebp, esp
	push	ecx
	mov	DWORD PTR [ebp-4], -858993460		; ccccccccH
	mov	DWORD PTR _this$[ebp], ecx

; 2427 : 		return ((_Elem)_Toupper((unsigned char)_Ch, &_Ctype));

	mov	eax, DWORD PTR _this$[ebp]
	add	eax, 8
	push	eax
	movzx	ecx, BYTE PTR __Ch$[ebp]
	push	ecx
	call	__Toupper
	add	esp, 8

; 2428 : 		}

	add	esp, 4
	cmp	ebp, esp
	call	__RTC_CheckEsp
	mov	esp, ebp
	pop	ebp
	ret	4
?do_toupper@?$ctype@D@std@@MBEDD@Z ENDP			; std::ctype<char>::do_toupper
; Function compile flags: /Odtp /RTCsu
_TEXT	ENDS
;	COMDAT ?do_toupper@?$ctype@D@std@@MBEPBDPADPBD@Z
_TEXT	SEGMENT
_this$ = -4						; size = 4
__First$ = 8						; size = 4
__Last$ = 12						; size = 4
?do_toupper@?$ctype@D@std@@MBEPBDPADPBD@Z PROC		; std::ctype<char>::do_toupper, COMDAT
; _this$ = ecx

; 2432 : 		{	// convert [_First, _Last) in place to upper case

	push	ebp
	mov	ebp, esp
	push	ecx
	mov	DWORD PTR [ebp-4], -858993460		; ccccccccH
	mov	DWORD PTR _this$[ebp], ecx

; 2433 : 		_DEBUG_RANGE((const _Elem *)_First, _Last);

	push	2433					; 00000981H
	push	OFFSET ??_C@_1IO@OICMNCNA@?$AAc?$AA?3?$AA?2?$AAP?$AAr?$AAo?$AAg?$AAr?$AAa?$AAm?$AA?5?$AAF?$AAi?$AAl?$AAe?$AAs?$AA?5?$AA?$CI?$AAx?$AA8?$AA6?$AA?$CJ?$AA?2?$AAM?$AAi?$AAc?$AAr?$AAo?$AAs?$AAo?$AAf?$AAt@
	mov	eax, DWORD PTR __Last$[ebp]
	push	eax
	mov	ecx, DWORD PTR __First$[ebp]
	push	ecx
	call	??$_Debug_range@PBD@std@@YAXPBD0PB_WI@Z	; std::_Debug_range<char const *>
	add	esp, 16					; 00000010H

; 2434 : 		for (; _First != _Last; ++_First)

	jmp	SHORT $LN3@do_toupper
$LN2@do_toupper:
	mov	edx, DWORD PTR __First$[ebp]
	add	edx, 1
	mov	DWORD PTR __First$[ebp], edx
$LN3@do_toupper:
	mov	eax, DWORD PTR __First$[ebp]
	cmp	eax, DWORD PTR __Last$[ebp]
	je	SHORT $LN1@do_toupper

; 2435 : 			*_First = (_Elem)_Toupper((unsigned char)*_First, &_Ctype);

	mov	ecx, DWORD PTR _this$[ebp]
	add	ecx, 8
	push	ecx
	mov	edx, DWORD PTR __First$[ebp]
	movzx	eax, BYTE PTR [edx]
	push	eax
	call	__Toupper
	add	esp, 8
	mov	ecx, DWORD PTR __First$[ebp]
	mov	BYTE PTR [ecx], al
	jmp	SHORT $LN2@do_toupper
$LN1@do_toupper:

; 2436 : 		return ((const _Elem *)_First);

	mov	eax, DWORD PTR __First$[ebp]

; 2437 : 		}

	add	esp, 4
	cmp	ebp, esp
	call	__RTC_CheckEsp
	mov	esp, ebp
	pop	ebp
	ret	8
?do_toupper@?$ctype@D@std@@MBEPBDPADPBD@Z ENDP		; std::ctype<char>::do_toupper
; Function compile flags: /Odtp /RTCsu
_TEXT	ENDS
;	COMDAT ?do_widen@?$ctype@D@std@@MBEDD@Z
_TEXT	SEGMENT
_this$ = -4						; size = 4
__Byte$ = 8						; size = 1
?do_widen@?$ctype@D@std@@MBEDD@Z PROC			; std::ctype<char>::do_widen, COMDAT
; _this$ = ecx

; 2440 : 		{	// widen char

	push	ebp
	mov	ebp, esp
	push	ecx
	mov	DWORD PTR [ebp-4], -858993460		; ccccccccH
	mov	DWORD PTR _this$[ebp], ecx

; 2441 : 		return (_Byte);

	mov	al, BYTE PTR __Byte$[ebp]

; 2442 : 		}

	mov	esp, ebp
	pop	ebp
	ret	4
?do_widen@?$ctype@D@std@@MBEDD@Z ENDP			; std::ctype<char>::do_widen
_TEXT	ENDS
PUBLIC	??$_Debug_pointer@D@std@@YAXPADPB_WI@Z		; std::_Debug_pointer<char>
EXTRN	_memcpy:PROC
; Function compile flags: /Odtp /RTCsu
;	COMDAT ?do_widen@?$ctype@D@std@@MBEPBDPBD0PAD@Z
_TEXT	SEGMENT
_this$ = -4						; size = 4
__First$ = 8						; size = 4
__Last$ = 12						; size = 4
__Dest$ = 16						; size = 4
?do_widen@?$ctype@D@std@@MBEPBDPBD0PAD@Z PROC		; std::ctype<char>::do_widen, COMDAT
; _this$ = ecx

; 2446 : 		{	// widen chars in [_First, _Last)

	push	ebp
	mov	ebp, esp
	push	ecx
	mov	DWORD PTR [ebp-4], -858993460		; ccccccccH
	mov	DWORD PTR _this$[ebp], ecx

; 2447 : 		_DEBUG_RANGE(_First, _Last);

	push	2447					; 0000098fH
	push	OFFSET ??_C@_1IO@OICMNCNA@?$AAc?$AA?3?$AA?2?$AAP?$AAr?$AAo?$AAg?$AAr?$AAa?$AAm?$AA?5?$AAF?$AAi?$AAl?$AAe?$AAs?$AA?5?$AA?$CI?$AAx?$AA8?$AA6?$AA?$CJ?$AA?2?$AAM?$AAi?$AAc?$AAr?$AAo?$AAs?$AAo?$AAf?$AAt@
	mov	eax, DWORD PTR __Last$[ebp]
	push	eax
	mov	ecx, DWORD PTR __First$[ebp]
	push	ecx
	call	??$_Debug_range@PBD@std@@YAXPBD0PB_WI@Z	; std::_Debug_range<char const *>
	add	esp, 16					; 00000010H

; 2448 : 		_DEBUG_POINTER(_Dest);

	push	2448					; 00000990H
	push	OFFSET ??_C@_1IO@OICMNCNA@?$AAc?$AA?3?$AA?2?$AAP?$AAr?$AAo?$AAg?$AAr?$AAa?$AAm?$AA?5?$AAF?$AAi?$AAl?$AAe?$AAs?$AA?5?$AA?$CI?$AAx?$AA8?$AA6?$AA?$CJ?$AA?2?$AAM?$AAi?$AAc?$AAr?$AAo?$AAs?$AAo?$AAf?$AAt@
	mov	edx, DWORD PTR __Dest$[ebp]
	push	edx
	call	??$_Debug_pointer@D@std@@YAXPADPB_WI@Z	; std::_Debug_pointer<char>
	add	esp, 12					; 0000000cH

; 2449 : 		_CSTD memcpy(_Dest, _First, _Last - _First);

	mov	eax, DWORD PTR __Last$[ebp]
	sub	eax, DWORD PTR __First$[ebp]
	push	eax
	mov	ecx, DWORD PTR __First$[ebp]
	push	ecx
	mov	edx, DWORD PTR __Dest$[ebp]
	push	edx
	call	_memcpy
	add	esp, 12					; 0000000cH

; 2450 : 		return (_Last);

	mov	eax, DWORD PTR __Last$[ebp]

; 2451 : 		}

	add	esp, 4
	cmp	ebp, esp
	call	__RTC_CheckEsp
	mov	esp, ebp
	pop	ebp
	ret	12					; 0000000cH
?do_widen@?$ctype@D@std@@MBEPBDPBD0PAD@Z ENDP		; std::ctype<char>::do_widen
; Function compile flags: /Odtp /RTCsu
_TEXT	ENDS
;	COMDAT ?do_narrow@?$ctype@D@std@@MBEDDD@Z
_TEXT	SEGMENT
_this$ = -4						; size = 4
__Ch$ = 8						; size = 1
___formal$ = 12						; size = 1
?do_narrow@?$ctype@D@std@@MBEDDD@Z PROC			; std::ctype<char>::do_narrow, COMDAT
; _this$ = ecx

; 2454 : 		{	// narrow char

	push	ebp
	mov	ebp, esp
	push	ecx
	mov	DWORD PTR [ebp-4], -858993460		; ccccccccH
	mov	DWORD PTR _this$[ebp], ecx

; 2455 : 		return (_Ch);

	mov	al, BYTE PTR __Ch$[ebp]

; 2456 : 		}

	mov	esp, ebp
	pop	ebp
	ret	8
?do_narrow@?$ctype@D@std@@MBEDDD@Z ENDP			; std::ctype<char>::do_narrow
; Function compile flags: /Odtp /RTCsu
_TEXT	ENDS
;	COMDAT ?do_narrow@?$ctype@D@std@@MBEPBDPBD0DPAD@Z
_TEXT	SEGMENT
_this$ = -4						; size = 4
__First$ = 8						; size = 4
__Last$ = 12						; size = 4
___formal$ = 16						; size = 1
__Dest$ = 20						; size = 4
?do_narrow@?$ctype@D@std@@MBEPBDPBD0DPAD@Z PROC		; std::ctype<char>::do_narrow, COMDAT
; _this$ = ecx

; 2460 : 		{	// narrow elements in [_First, _Last) to chars

	push	ebp
	mov	ebp, esp
	push	ecx
	mov	DWORD PTR [ebp-4], -858993460		; ccccccccH
	mov	DWORD PTR _this$[ebp], ecx

; 2461 : 		_DEBUG_RANGE(_First, _Last);

	push	2461					; 0000099dH
	push	OFFSET ??_C@_1IO@OICMNCNA@?$AAc?$AA?3?$AA?2?$AAP?$AAr?$AAo?$AAg?$AAr?$AAa?$AAm?$AA?5?$AAF?$AAi?$AAl?$AAe?$AAs?$AA?5?$AA?$CI?$AAx?$AA8?$AA6?$AA?$CJ?$AA?2?$AAM?$AAi?$AAc?$AAr?$AAo?$AAs?$AAo?$AAf?$AAt@
	mov	eax, DWORD PTR __Last$[ebp]
	push	eax
	mov	ecx, DWORD PTR __First$[ebp]
	push	ecx
	call	??$_Debug_range@PBD@std@@YAXPBD0PB_WI@Z	; std::_Debug_range<char const *>
	add	esp, 16					; 00000010H

; 2462 : 		_DEBUG_POINTER(_Dest);

	push	2462					; 0000099eH
	push	OFFSET ??_C@_1IO@OICMNCNA@?$AAc?$AA?3?$AA?2?$AAP?$AAr?$AAo?$AAg?$AAr?$AAa?$AAm?$AA?5?$AAF?$AAi?$AAl?$AAe?$AAs?$AA?5?$AA?$CI?$AAx?$AA8?$AA6?$AA?$CJ?$AA?2?$AAM?$AAi?$AAc?$AAr?$AAo?$AAs?$AAo?$AAf?$AAt@
	mov	edx, DWORD PTR __Dest$[ebp]
	push	edx
	call	??$_Debug_pointer@D@std@@YAXPADPB_WI@Z	; std::_Debug_pointer<char>
	add	esp, 12					; 0000000cH

; 2463 : 		_CSTD memcpy(_Dest, _First, _Last - _First);

	mov	eax, DWORD PTR __Last$[ebp]
	sub	eax, DWORD PTR __First$[ebp]
	push	eax
	mov	ecx, DWORD PTR __First$[ebp]
	push	ecx
	mov	edx, DWORD PTR __Dest$[ebp]
	push	edx
	call	_memcpy
	add	esp, 12					; 0000000cH

; 2464 : 		return (_Last);

	mov	eax, DWORD PTR __Last$[ebp]

; 2465 : 		}

	add	esp, 4
	cmp	ebp, esp
	call	__RTC_CheckEsp
	mov	esp, ebp
	pop	ebp
	ret	16					; 00000010H
?do_narrow@?$ctype@D@std@@MBEPBDPBD0DPAD@Z ENDP		; std::ctype<char>::do_narrow
_TEXT	ENDS
PUBLIC	??1?$ctype@D@std@@MAE@XZ			; std::ctype<char>::~ctype<char>
; Function compile flags: /Odtp /RTCsu
;	COMDAT ??_G?$ctype@D@std@@MAEPAXI@Z
_TEXT	SEGMENT
_this$ = -4						; size = 4
___flags$ = 8						; size = 4
??_G?$ctype@D@std@@MAEPAXI@Z PROC			; std::ctype<char>::`scalar deleting destructor', COMDAT
; _this$ = ecx
	push	ebp
	mov	ebp, esp
	push	ecx
	mov	DWORD PTR [ebp-4], -858993460		; ccccccccH
	mov	DWORD PTR _this$[ebp], ecx
	mov	ecx, DWORD PTR _this$[ebp]
	call	??1?$ctype@D@std@@MAE@XZ		; std::ctype<char>::~ctype<char>
	mov	eax, DWORD PTR ___flags$[ebp]
	and	eax, 1
	je	SHORT $LN1@scalar@10
	mov	ecx, DWORD PTR _this$[ebp]
	push	ecx
	call	??3facet@locale@std@@SAXPAX@Z		; std::locale::facet::operator delete
	add	esp, 4
$LN1@scalar@10:
	mov	eax, DWORD PTR _this$[ebp]
	add	esp, 4
	cmp	ebp, esp
	call	__RTC_CheckEsp
	mov	esp, ebp
	pop	ebp
	ret	4
??_G?$ctype@D@std@@MAEPAXI@Z ENDP			; std::ctype<char>::`scalar deleting destructor'
_TEXT	ENDS
PUBLIC	?_Tidy@?$ctype@D@std@@IAEXXZ			; std::ctype<char>::_Tidy
;	COMDAT xdata$x
xdata$x	SEGMENT
__unwindtable$??1?$ctype@D@std@@MAE@XZ DD 0ffffffffH
	DD	FLAT:__unwindfunclet$??1?$ctype@D@std@@MAE@XZ$0
__ehfuncinfo$??1?$ctype@D@std@@MAE@XZ DD 019930522H
	DD	01H
	DD	FLAT:__unwindtable$??1?$ctype@D@std@@MAE@XZ
	DD	2 DUP(00H)
	DD	2 DUP(00H)
	DD	00H
	DD	01H
; Function compile flags: /Odtp /RTCsu
xdata$x	ENDS
;	COMDAT ??1?$ctype@D@std@@MAE@XZ
_TEXT	SEGMENT
_this$ = -16						; size = 4
__$EHRec$ = -12						; size = 12
??1?$ctype@D@std@@MAE@XZ PROC				; std::ctype<char>::~ctype<char>, COMDAT
; _this$ = ecx

; 2394 : 		{	// destroy the object

	push	ebp
	mov	ebp, esp
	push	-1
	push	__ehhandler$??1?$ctype@D@std@@MAE@XZ
	mov	eax, DWORD PTR fs:0
	push	eax
	push	ecx
	mov	DWORD PTR [ebp-16], -858993460		; ccccccccH
	mov	eax, DWORD PTR ___security_cookie
	xor	eax, ebp
	push	eax
	lea	eax, DWORD PTR __$EHRec$[ebp]
	mov	DWORD PTR fs:0, eax
	mov	DWORD PTR _this$[ebp], ecx
	mov	eax, DWORD PTR _this$[ebp]
	mov	DWORD PTR [eax], OFFSET ??_7?$ctype@D@std@@6B@
	mov	DWORD PTR __$EHRec$[ebp+8], 0

; 2395 : 		_Tidy();

	mov	ecx, DWORD PTR _this$[ebp]
	call	?_Tidy@?$ctype@D@std@@IAEXXZ		; std::ctype<char>::_Tidy

; 2396 : 		}

	mov	DWORD PTR __$EHRec$[ebp+8], -1
	mov	ecx, DWORD PTR _this$[ebp]
	call	??1ctype_base@std@@UAE@XZ		; std::ctype_base::~ctype_base
	mov	ecx, DWORD PTR __$EHRec$[ebp]
	mov	DWORD PTR fs:0, ecx
	pop	ecx
	add	esp, 16					; 00000010H
	cmp	ebp, esp
	call	__RTC_CheckEsp
	mov	esp, ebp
	pop	ebp
	ret	0
_TEXT	ENDS
;	COMDAT text$x
text$x	SEGMENT
__unwindfunclet$??1?$ctype@D@std@@MAE@XZ$0:
	mov	ecx, DWORD PTR _this$[ebp]
	jmp	??1ctype_base@std@@UAE@XZ		; std::ctype_base::~ctype_base
__ehhandler$??1?$ctype@D@std@@MAE@XZ:
	mov	edx, DWORD PTR [esp+8]
	lea	eax, DWORD PTR [edx+12]
	mov	ecx, DWORD PTR [edx-8]
	xor	ecx, eax
	call	@__security_check_cookie@4
	mov	eax, OFFSET __ehfuncinfo$??1?$ctype@D@std@@MAE@XZ
	jmp	___CxxFrameHandler3
text$x	ENDS
??1?$ctype@D@std@@MAE@XZ ENDP				; std::ctype<char>::~ctype<char>
EXTRN	??_V@YAXPAX@Z:PROC				; operator delete[]
; Function compile flags: /Odtp /RTCsu
;	COMDAT ?_Tidy@?$ctype@D@std@@IAEXXZ
_TEXT	SEGMENT
$T141391 = -8						; size = 4
_this$ = -4						; size = 4
?_Tidy@?$ctype@D@std@@IAEXXZ PROC			; std::ctype<char>::_Tidy, COMDAT
; _this$ = ecx

; 2404 : 		{	// free any allocated storage

	push	ebp
	mov	ebp, esp
	sub	esp, 8
	mov	DWORD PTR [ebp-8], -858993460		; ccccccccH
	mov	DWORD PTR [ebp-4], -858993460		; ccccccccH
	mov	DWORD PTR _this$[ebp], ecx

; 2405 : 		if (0 < _Ctype._Delfl)

	mov	eax, DWORD PTR _this$[ebp]
	cmp	DWORD PTR [eax+20], 0
	jle	SHORT $LN3@Tidy

; 2406 : 			free((void *)_Ctype._Table);

	mov	ecx, DWORD PTR _this$[ebp]
	mov	edx, DWORD PTR [ecx+16]
	push	edx
	call	_free
	add	esp, 4
	jmp	SHORT $LN4@Tidy
$LN3@Tidy:

; 2407 : 		else if (_Ctype._Delfl < 0)

	mov	eax, DWORD PTR _this$[ebp]
	cmp	DWORD PTR [eax+20], 0
	jge	SHORT $LN4@Tidy

; 2408 : 			delete[] (void *)_Ctype._Table;

	mov	ecx, DWORD PTR _this$[ebp]
	mov	edx, DWORD PTR [ecx+16]
	mov	DWORD PTR $T141391[ebp], edx
	mov	eax, DWORD PTR $T141391[ebp]
	push	eax
	call	??_V@YAXPAX@Z				; operator delete[]
	add	esp, 4
$LN4@Tidy:

; 2409 : 		}

	add	esp, 8
	cmp	ebp, esp
	call	__RTC_CheckEsp
	mov	esp, ebp
	pop	ebp
	ret	0
?_Tidy@?$ctype@D@std@@IAEXXZ ENDP			; std::ctype<char>::_Tidy
; Function compile flags: /Odtp /RTCsu
; File c:\program files (x86)\microsoft visual studio 10.0\vc\include\xutility
_TEXT	ENDS
;	COMDAT ??0?$_Yarn@D@std@@QAE@XZ
_TEXT	SEGMENT
_this$ = -4						; size = 4
??0?$_Yarn@D@std@@QAE@XZ PROC				; std::_Yarn<char>::_Yarn<char>, COMDAT
; _this$ = ecx

; 3327 : 		{	// default construct

	push	ebp
	mov	ebp, esp
	push	ecx
	mov	DWORD PTR [ebp-4], -858993460		; ccccccccH
	mov	DWORD PTR _this$[ebp], ecx
	mov	eax, DWORD PTR _this$[ebp]
	mov	DWORD PTR [eax], 0
	mov	ecx, DWORD PTR _this$[ebp]
	mov	BYTE PTR [ecx+4], 0

; 3328 : 		}

	mov	eax, DWORD PTR _this$[ebp]
	mov	esp, ebp
	pop	ebp
	ret	0
??0?$_Yarn@D@std@@QAE@XZ ENDP				; std::_Yarn<char>::_Yarn<char>
_TEXT	ENDS
PUBLIC	?_Tidy@?$_Yarn@D@std@@AAEXXZ			; std::_Yarn<char>::_Tidy
; Function compile flags: /Odtp /RTCsu
;	COMDAT ??1?$_Yarn@D@std@@QAE@XZ
_TEXT	SEGMENT
_this$ = -4						; size = 4
??1?$_Yarn@D@std@@QAE@XZ PROC				; std::_Yarn<char>::~_Yarn<char>, COMDAT
; _this$ = ecx

; 3377 : 		{	// destroy the object

	push	ebp
	mov	ebp, esp
	push	ecx
	mov	DWORD PTR [ebp-4], -858993460		; ccccccccH
	mov	DWORD PTR _this$[ebp], ecx

; 3378 : 		_Tidy();

	mov	ecx, DWORD PTR _this$[ebp]
	call	?_Tidy@?$_Yarn@D@std@@AAEXXZ		; std::_Yarn<char>::_Tidy

; 3379 : 		}

	add	esp, 4
	cmp	ebp, esp
	call	__RTC_CheckEsp
	mov	esp, ebp
	pop	ebp
	ret	0
??1?$_Yarn@D@std@@QAE@XZ ENDP				; std::_Yarn<char>::~_Yarn<char>
; Function compile flags: /Odtp /RTCsu
_TEXT	ENDS
;	COMDAT ?c_str@?$_Yarn@D@std@@QBEPBDXZ
_TEXT	SEGMENT
tv66 = -8						; size = 4
_this$ = -4						; size = 4
?c_str@?$_Yarn@D@std@@QBEPBDXZ PROC			; std::_Yarn<char>::c_str, COMDAT
; _this$ = ecx

; 3387 : 		{	// return NTBS

	push	ebp
	mov	ebp, esp
	sub	esp, 8
	mov	DWORD PTR [ebp-8], -858993460		; ccccccccH
	mov	DWORD PTR [ebp-4], -858993460		; ccccccccH
	mov	DWORD PTR _this$[ebp], ecx

; 3388 : 		return (_Myptr != 0 ? _Myptr : &_Nul);

	mov	eax, DWORD PTR _this$[ebp]
	cmp	DWORD PTR [eax], 0
	je	SHORT $LN3@c_str
	mov	ecx, DWORD PTR _this$[ebp]
	mov	edx, DWORD PTR [ecx]
	mov	DWORD PTR tv66[ebp], edx
	jmp	SHORT $LN4@c_str
$LN3@c_str:
	mov	eax, DWORD PTR _this$[ebp]
	add	eax, 4
	mov	DWORD PTR tv66[ebp], eax
$LN4@c_str:
	mov	eax, DWORD PTR tv66[ebp]

; 3389 : 		}

	mov	esp, ebp
	pop	ebp
	ret	0
?c_str@?$_Yarn@D@std@@QBEPBDXZ ENDP			; std::_Yarn<char>::c_str
_TEXT	ENDS
EXTRN	__free_dbg:PROC
; Function compile flags: /Odtp /RTCsu
;	COMDAT ?_Tidy@?$_Yarn@D@std@@AAEXXZ
_TEXT	SEGMENT
_this$ = -4						; size = 4
?_Tidy@?$_Yarn@D@std@@AAEXXZ PROC			; std::_Yarn<char>::_Tidy, COMDAT
; _this$ = ecx

; 3403 : 		{	// discard any string

	push	ebp
	mov	ebp, esp
	push	ecx
	mov	DWORD PTR [ebp-4], -858993460		; ccccccccH
	mov	DWORD PTR _this$[ebp], ecx

; 3404 : 		if (_Myptr != 0)

	mov	eax, DWORD PTR _this$[ebp]
	cmp	DWORD PTR [eax], 0
	je	SHORT $LN1@Tidy@2

; 3405 : 
; 3406 :  #ifdef _DEBUG
; 3407 : 			_free_dbg(_Myptr, _CRT_BLOCK);

	push	2
	mov	ecx, DWORD PTR _this$[ebp]
	mov	edx, DWORD PTR [ecx]
	push	edx
	call	__free_dbg
	add	esp, 8
$LN1@Tidy@2:

; 3408 : 
; 3409 :  #else /* _DEBUG */
; 3410 : 			_CSTD free(_Myptr);
; 3411 :  #endif /* _DEBUG */
; 3412 : 
; 3413 : 		_Myptr = 0;

	mov	eax, DWORD PTR _this$[ebp]
	mov	DWORD PTR [eax], 0

; 3414 : 		}

	add	esp, 4
	cmp	ebp, esp
	call	__RTC_CheckEsp
	mov	esp, ebp
	pop	ebp
	ret	0
?_Tidy@?$_Yarn@D@std@@AAEXXZ ENDP			; std::_Yarn<char>::_Tidy
_TEXT	ENDS
PUBLIC	??$_Debug_range2@PBD@std@@YAXPBD0PB_WIUrandom_access_iterator_tag@0@@Z ; std::_Debug_range2<char const *>
PUBLIC	??$_Iter_cat@PBD@std@@YA?AUrandom_access_iterator_tag@0@ABQBD@Z ; std::_Iter_cat<char const *>
; Function compile flags: /Odtp /RTCsu
;	COMDAT ??$_Debug_range@PBD@std@@YAXPBD0PB_WI@Z
_TEXT	SEGMENT
$T141404 = -1						; size = 1
__First$ = 8						; size = 4
__Last$ = 12						; size = 4
__File$ = 16						; size = 4
__Line$ = 20						; size = 4
??$_Debug_range@PBD@std@@YAXPBD0PB_WI@Z PROC		; std::_Debug_range<char const *>, COMDAT

; 739  : 	{	// test iterator pair for valid range

	push	ebp
	mov	ebp, esp
	push	ecx
	mov	DWORD PTR [ebp-4], -858993460		; ccccccccH

; 740  : 	_Debug_range2(_First, _Last, _File, _Line, _Iter_cat(_First));

	lea	eax, DWORD PTR __First$[ebp]
	push	eax
	lea	ecx, DWORD PTR $T141404[ebp]
	push	ecx
	call	??$_Iter_cat@PBD@std@@YA?AUrandom_access_iterator_tag@0@ABQBD@Z ; std::_Iter_cat<char const *>
	add	esp, 8
	movzx	edx, BYTE PTR [eax]
	push	edx
	mov	eax, DWORD PTR __Line$[ebp]
	push	eax
	mov	ecx, DWORD PTR __File$[ebp]
	push	ecx
	mov	edx, DWORD PTR __Last$[ebp]
	push	edx
	mov	eax, DWORD PTR __First$[ebp]
	push	eax
	call	??$_Debug_range2@PBD@std@@YAXPBD0PB_WIUrandom_access_iterator_tag@0@@Z ; std::_Debug_range2<char const *>
	add	esp, 20					; 00000014H

; 741  : 	}

	add	esp, 4
	cmp	ebp, esp
	call	__RTC_CheckEsp
	mov	esp, ebp
	pop	ebp
	ret	0
??$_Debug_range@PBD@std@@YAXPBD0PB_WI@Z ENDP		; std::_Debug_range<char const *>
_TEXT	ENDS
PUBLIC	??_C@_1CK@EOPGIILJ@?$AAi?$AAn?$AAv?$AAa?$AAl?$AAi?$AAd?$AA?5?$AAn?$AAu?$AAl?$AAl?$AA?5?$AAp?$AAo?$AAi?$AAn?$AAt?$AAe?$AAr?$AA?$AA@ ; `string'
EXTRN	?_Debug_message@std@@YAXPB_W0I@Z:PROC		; std::_Debug_message
;	COMDAT ??_C@_1CK@EOPGIILJ@?$AAi?$AAn?$AAv?$AAa?$AAl?$AAi?$AAd?$AA?5?$AAn?$AAu?$AAl?$AAl?$AA?5?$AAp?$AAo?$AAi?$AAn?$AAt?$AAe?$AAr?$AA?$AA@
CONST	SEGMENT
??_C@_1CK@EOPGIILJ@?$AAi?$AAn?$AAv?$AAa?$AAl?$AAi?$AAd?$AA?5?$AAn?$AAu?$AAl?$AAl?$AA?5?$AAp?$AAo?$AAi?$AAn?$AAt?$AAe?$AAr?$AA?$AA@ DB 'i'
	DB	00H, 'n', 00H, 'v', 00H, 'a', 00H, 'l', 00H, 'i', 00H, 'd', 00H
	DB	' ', 00H, 'n', 00H, 'u', 00H, 'l', 00H, 'l', 00H, ' ', 00H, 'p'
	DB	00H, 'o', 00H, 'i', 00H, 'n', 00H, 't', 00H, 'e', 00H, 'r', 00H
	DB	00H, 00H					; `string'
; Function compile flags: /Odtp /RTCsu
CONST	ENDS
;	COMDAT ??$_Debug_pointer@D@std@@YAXPADPB_WI@Z
_TEXT	SEGMENT
__First$ = 8						; size = 4
__File$ = 12						; size = 4
__Line$ = 16						; size = 4
??$_Debug_pointer@D@std@@YAXPADPB_WI@Z PROC		; std::_Debug_pointer<char>, COMDAT

; 708  : 	{	// test iterator for non-singularity, pointers

	push	ebp
	mov	ebp, esp

; 709  : 	if (_First == 0)

	cmp	DWORD PTR __First$[ebp], 0
	jne	SHORT $LN2@Debug_poin

; 710  : 		_DEBUG_ERROR2("invalid null pointer", _File, _Line);

	mov	eax, DWORD PTR __Line$[ebp]
	push	eax
	mov	ecx, DWORD PTR __File$[ebp]
	push	ecx
	push	OFFSET ??_C@_1CK@EOPGIILJ@?$AAi?$AAn?$AAv?$AAa?$AAl?$AAi?$AAd?$AA?5?$AAn?$AAu?$AAl?$AAl?$AA?5?$AAp?$AAo?$AAi?$AAn?$AAt?$AAe?$AAr?$AA?$AA@
	call	?_Debug_message@std@@YAXPB_W0I@Z	; std::_Debug_message
	add	esp, 12					; 0000000cH
$LN2@Debug_poin:

; 711  : 	}

	cmp	ebp, esp
	call	__RTC_CheckEsp
	pop	ebp
	ret	0
??$_Debug_pointer@D@std@@YAXPADPB_WI@Z ENDP		; std::_Debug_pointer<char>
; Function compile flags: /Odtp /RTCsu
; File c:\users\teaja\documents\artificial-fun\labravenprojecttest\common\triggers\trigger.h
_TEXT	ENDS
;	COMDAT ?isTouchingTrigger@?$Trigger@VAbstRaven_Bot@@@@IBE_NUVector2D@@N@Z
_TEXT	SEGMENT
_this$ = -4						; size = 4
_EntityPos$ = 8						; size = 16
_EntityRadius$ = 24					; size = 8
?isTouchingTrigger@?$Trigger@VAbstRaven_Bot@@@@IBE_NUVector2D@@N@Z PROC ; Trigger<AbstRaven_Bot>::isTouchingTrigger, COMDAT
; _this$ = ecx

; 113  : {

	push	ebp
	mov	ebp, esp
	push	ecx
	push	esi
	mov	DWORD PTR [ebp-4], -858993460		; ccccccccH
	mov	DWORD PTR _this$[ebp], ecx

; 114  :   if (m_pRegionOfInfluence) 

	mov	eax, DWORD PTR _this$[ebp]
	cmp	DWORD PTR [eax+64], 0
	je	SHORT $LN1@isTouching

; 115  :   {
; 116  :     return m_pRegionOfInfluence->isTouching(EntityPos, EntityRadius);

	mov	esi, esp
	sub	esp, 8
	fld	QWORD PTR _EntityRadius$[ebp]
	fstp	QWORD PTR [esp]
	sub	esp, 16					; 00000010H
	mov	ecx, esp
	mov	edx, DWORD PTR _EntityPos$[ebp]
	mov	DWORD PTR [ecx], edx
	mov	eax, DWORD PTR _EntityPos$[ebp+4]
	mov	DWORD PTR [ecx+4], eax
	mov	edx, DWORD PTR _EntityPos$[ebp+8]
	mov	DWORD PTR [ecx+8], edx
	mov	eax, DWORD PTR _EntityPos$[ebp+12]
	mov	DWORD PTR [ecx+12], eax
	mov	ecx, DWORD PTR _this$[ebp]
	mov	edx, DWORD PTR [ecx+64]
	mov	eax, DWORD PTR _this$[ebp]
	mov	ecx, DWORD PTR [eax+64]
	mov	edx, DWORD PTR [edx]
	mov	eax, DWORD PTR [edx+4]
	call	eax
	cmp	esi, esp
	call	__RTC_CheckEsp
	jmp	SHORT $LN2@isTouching
$LN1@isTouching:

; 117  :   }
; 118  :     
; 119  :   return false;

	xor	al, al
$LN2@isTouching:

; 120  : }

	pop	esi
	add	esp, 4
	cmp	ebp, esp
	call	__RTC_CheckEsp
	mov	esp, ebp
	pop	ebp
	ret	24					; 00000018H
?isTouchingTrigger@?$Trigger@VAbstRaven_Bot@@@@IBE_NUVector2D@@N@Z ENDP ; Trigger<AbstRaven_Bot>::isTouchingTrigger
_TEXT	ENDS
PUBLIC	??0TriggerRegion_Circle@@QAE@UVector2D@@N@Z	; TriggerRegion_Circle::TriggerRegion_Circle
EXTRN	??2@YAPAXI@Z:PROC				; operator new
;	COMDAT xdata$x
xdata$x	SEGMENT
__unwindtable$?AddCircularTriggerRegion@?$Trigger@VAbstRaven_Bot@@@@IAEXUVector2D@@N@Z DD 0ffffffffH
	DD	FLAT:__unwindfunclet$?AddCircularTriggerRegion@?$Trigger@VAbstRaven_Bot@@@@IAEXUVector2D@@N@Z$0
__ehfuncinfo$?AddCircularTriggerRegion@?$Trigger@VAbstRaven_Bot@@@@IAEXUVector2D@@N@Z DD 019930522H
	DD	01H
	DD	FLAT:__unwindtable$?AddCircularTriggerRegion@?$Trigger@VAbstRaven_Bot@@@@IAEXUVector2D@@N@Z
	DD	2 DUP(00H)
	DD	2 DUP(00H)
	DD	00H
	DD	01H
; Function compile flags: /Odtp /RTCsu
xdata$x	ENDS
;	COMDAT ?AddCircularTriggerRegion@?$Trigger@VAbstRaven_Bot@@@@IAEXUVector2D@@N@Z
_TEXT	SEGMENT
tv87 = -40						; size = 4
tv73 = -36						; size = 4
$T141416 = -32						; size = 4
$T141415 = -28						; size = 4
$T141412 = -24						; size = 4
$T141411 = -20						; size = 4
_this$ = -16						; size = 4
__$EHRec$ = -12						; size = 12
_center$ = 8						; size = 16
_radius$ = 24						; size = 8
?AddCircularTriggerRegion@?$Trigger@VAbstRaven_Bot@@@@IAEXUVector2D@@N@Z PROC ; Trigger<AbstRaven_Bot>::AddCircularTriggerRegion, COMDAT
; _this$ = ecx

; 89   : {

	push	ebp
	mov	ebp, esp
	push	-1
	push	__ehhandler$?AddCircularTriggerRegion@?$Trigger@VAbstRaven_Bot@@@@IAEXUVector2D@@N@Z
	mov	eax, DWORD PTR fs:0
	push	eax
	sub	esp, 28					; 0000001cH
	push	esi
	mov	eax, -858993460				; ccccccccH
	mov	DWORD PTR [ebp-40], eax
	mov	DWORD PTR [ebp-36], eax
	mov	DWORD PTR [ebp-32], eax
	mov	DWORD PTR [ebp-28], eax
	mov	DWORD PTR [ebp-24], eax
	mov	DWORD PTR [ebp-20], eax
	mov	DWORD PTR [ebp-16], eax
	mov	eax, DWORD PTR ___security_cookie
	xor	eax, ebp
	push	eax
	lea	eax, DWORD PTR __$EHRec$[ebp]
	mov	DWORD PTR fs:0, eax
	mov	DWORD PTR _this$[ebp], ecx

; 90   :   //if this replaces an existing region, tidy up memory
; 91   :   if (m_pRegionOfInfluence) delete m_pRegionOfInfluence;

	mov	eax, DWORD PTR _this$[ebp]
	cmp	DWORD PTR [eax+64], 0
	je	SHORT $LN5@AddCircula
	mov	ecx, DWORD PTR _this$[ebp]
	mov	edx, DWORD PTR [ecx+64]
	mov	DWORD PTR $T141412[ebp], edx
	mov	eax, DWORD PTR $T141412[ebp]
	mov	DWORD PTR $T141411[ebp], eax
	cmp	DWORD PTR $T141411[ebp], 0
	je	SHORT $LN4@AddCircula
	mov	esi, esp
	push	1
	mov	ecx, DWORD PTR $T141411[ebp]
	mov	edx, DWORD PTR [ecx]
	mov	ecx, DWORD PTR $T141411[ebp]
	mov	eax, DWORD PTR [edx]
	call	eax
	cmp	esi, esp
	call	__RTC_CheckEsp
	mov	DWORD PTR tv73[ebp], eax
	jmp	SHORT $LN5@AddCircula
$LN4@AddCircula:
	mov	DWORD PTR tv73[ebp], 0
$LN5@AddCircula:

; 92   : 
; 93   :   m_pRegionOfInfluence = new TriggerRegion_Circle(center, radius);

	push	32					; 00000020H
	call	??2@YAPAXI@Z				; operator new
	add	esp, 4
	mov	DWORD PTR $T141416[ebp], eax
	mov	DWORD PTR __$EHRec$[ebp+8], 0
	cmp	DWORD PTR $T141416[ebp], 0
	je	SHORT $LN6@AddCircula
	sub	esp, 8
	fld	QWORD PTR _radius$[ebp]
	fstp	QWORD PTR [esp]
	sub	esp, 16					; 00000010H
	mov	ecx, esp
	mov	edx, DWORD PTR _center$[ebp]
	mov	DWORD PTR [ecx], edx
	mov	eax, DWORD PTR _center$[ebp+4]
	mov	DWORD PTR [ecx+4], eax
	mov	edx, DWORD PTR _center$[ebp+8]
	mov	DWORD PTR [ecx+8], edx
	mov	eax, DWORD PTR _center$[ebp+12]
	mov	DWORD PTR [ecx+12], eax
	mov	ecx, DWORD PTR $T141416[ebp]
	call	??0TriggerRegion_Circle@@QAE@UVector2D@@N@Z ; TriggerRegion_Circle::TriggerRegion_Circle
	mov	DWORD PTR tv87[ebp], eax
	jmp	SHORT $LN7@AddCircula
$LN6@AddCircula:
	mov	DWORD PTR tv87[ebp], 0
$LN7@AddCircula:
	mov	ecx, DWORD PTR tv87[ebp]
	mov	DWORD PTR $T141415[ebp], ecx
	mov	DWORD PTR __$EHRec$[ebp+8], -1
	mov	edx, DWORD PTR _this$[ebp]
	mov	eax, DWORD PTR $T141415[ebp]
	mov	DWORD PTR [edx+64], eax

; 94   : }

	mov	ecx, DWORD PTR __$EHRec$[ebp]
	mov	DWORD PTR fs:0, ecx
	pop	ecx
	pop	esi
	add	esp, 40					; 00000028H
	cmp	ebp, esp
	call	__RTC_CheckEsp
	mov	esp, ebp
	pop	ebp
	ret	24					; 00000018H
_TEXT	ENDS
;	COMDAT text$x
text$x	SEGMENT
__unwindfunclet$?AddCircularTriggerRegion@?$Trigger@VAbstRaven_Bot@@@@IAEXUVector2D@@N@Z$0:
	mov	eax, DWORD PTR $T141416[ebp]
	push	eax
	call	??3@YAXPAX@Z				; operator delete
	pop	ecx
	ret	0
__ehhandler$?AddCircularTriggerRegion@?$Trigger@VAbstRaven_Bot@@@@IAEXUVector2D@@N@Z:
	mov	edx, DWORD PTR [esp+8]
	lea	eax, DWORD PTR [edx+12]
	mov	ecx, DWORD PTR [edx-36]
	xor	ecx, eax
	call	@__security_check_cookie@4
	mov	eax, OFFSET __ehfuncinfo$?AddCircularTriggerRegion@?$Trigger@VAbstRaven_Bot@@@@IAEXUVector2D@@N@Z
	jmp	___CxxFrameHandler3
text$x	ENDS
?AddCircularTriggerRegion@?$Trigger@VAbstRaven_Bot@@@@IAEXUVector2D@@N@Z ENDP ; Trigger<AbstRaven_Bot>::AddCircularTriggerRegion
PUBLIC	??_7TriggerRegion_Circle@@6B@			; TriggerRegion_Circle::`vftable'
PUBLIC	??0TriggerRegion@@QAE@XZ			; TriggerRegion::TriggerRegion
PUBLIC	??_R4TriggerRegion_Circle@@6B@			; TriggerRegion_Circle::`RTTI Complete Object Locator'
PUBLIC	??_R0?AVTriggerRegion_Circle@@@8		; TriggerRegion_Circle `RTTI Type Descriptor'
PUBLIC	??_R3TriggerRegion_Circle@@8			; TriggerRegion_Circle::`RTTI Class Hierarchy Descriptor'
PUBLIC	??_R2TriggerRegion_Circle@@8			; TriggerRegion_Circle::`RTTI Base Class Array'
PUBLIC	??_R1A@?0A@EA@TriggerRegion_Circle@@8		; TriggerRegion_Circle::`RTTI Base Class Descriptor at (0,-1,0,64)'
PUBLIC	??_R1A@?0A@EA@TriggerRegion@@8			; TriggerRegion::`RTTI Base Class Descriptor at (0,-1,0,64)'
PUBLIC	??_R0?AVTriggerRegion@@@8			; TriggerRegion `RTTI Type Descriptor'
PUBLIC	??_R3TriggerRegion@@8				; TriggerRegion::`RTTI Class Hierarchy Descriptor'
PUBLIC	??_R2TriggerRegion@@8				; TriggerRegion::`RTTI Base Class Array'
PUBLIC	?isTouching@TriggerRegion_Circle@@UBE_NUVector2D@@N@Z ; TriggerRegion_Circle::isTouching
EXTRN	??_ETriggerRegion_Circle@@UAEPAXI@Z:PROC	; TriggerRegion_Circle::`vector deleting destructor'
;	COMDAT ??_R2TriggerRegion@@8
; File c:\users\teaja\documents\artificial-fun\labravenprojecttest\common\triggers\triggerregion.h
rdata$r	SEGMENT
??_R2TriggerRegion@@8 DD FLAT:??_R1A@?0A@EA@TriggerRegion@@8 ; TriggerRegion::`RTTI Base Class Array'
rdata$r	ENDS
;	COMDAT ??_R3TriggerRegion@@8
rdata$r	SEGMENT
??_R3TriggerRegion@@8 DD 00H				; TriggerRegion::`RTTI Class Hierarchy Descriptor'
	DD	00H
	DD	01H
	DD	FLAT:??_R2TriggerRegion@@8
rdata$r	ENDS
;	COMDAT ??_R0?AVTriggerRegion@@@8
_DATA	SEGMENT
??_R0?AVTriggerRegion@@@8 DD FLAT:??_7type_info@@6B@	; TriggerRegion `RTTI Type Descriptor'
	DD	00H
	DB	'.?AVTriggerRegion@@', 00H
_DATA	ENDS
;	COMDAT ??_R1A@?0A@EA@TriggerRegion@@8
rdata$r	SEGMENT
??_R1A@?0A@EA@TriggerRegion@@8 DD FLAT:??_R0?AVTriggerRegion@@@8 ; TriggerRegion::`RTTI Base Class Descriptor at (0,-1,0,64)'
	DD	00H
	DD	00H
	DD	0ffffffffH
	DD	00H
	DD	040H
	DD	FLAT:??_R3TriggerRegion@@8
rdata$r	ENDS
;	COMDAT ??_R1A@?0A@EA@TriggerRegion_Circle@@8
rdata$r	SEGMENT
??_R1A@?0A@EA@TriggerRegion_Circle@@8 DD FLAT:??_R0?AVTriggerRegion_Circle@@@8 ; TriggerRegion_Circle::`RTTI Base Class Descriptor at (0,-1,0,64)'
	DD	01H
	DD	00H
	DD	0ffffffffH
	DD	00H
	DD	040H
	DD	FLAT:??_R3TriggerRegion_Circle@@8
rdata$r	ENDS
;	COMDAT ??_R2TriggerRegion_Circle@@8
rdata$r	SEGMENT
??_R2TriggerRegion_Circle@@8 DD FLAT:??_R1A@?0A@EA@TriggerRegion_Circle@@8 ; TriggerRegion_Circle::`RTTI Base Class Array'
	DD	FLAT:??_R1A@?0A@EA@TriggerRegion@@8
rdata$r	ENDS
;	COMDAT ??_R3TriggerRegion_Circle@@8
rdata$r	SEGMENT
??_R3TriggerRegion_Circle@@8 DD 00H			; TriggerRegion_Circle::`RTTI Class Hierarchy Descriptor'
	DD	00H
	DD	02H
	DD	FLAT:??_R2TriggerRegion_Circle@@8
rdata$r	ENDS
;	COMDAT ??_R0?AVTriggerRegion_Circle@@@8
_DATA	SEGMENT
??_R0?AVTriggerRegion_Circle@@@8 DD FLAT:??_7type_info@@6B@ ; TriggerRegion_Circle `RTTI Type Descriptor'
	DD	00H
	DB	'.?AVTriggerRegion_Circle@@', 00H
_DATA	ENDS
;	COMDAT ??_R4TriggerRegion_Circle@@6B@
rdata$r	SEGMENT
??_R4TriggerRegion_Circle@@6B@ DD 00H			; TriggerRegion_Circle::`RTTI Complete Object Locator'
	DD	00H
	DD	00H
	DD	FLAT:??_R0?AVTriggerRegion_Circle@@@8
	DD	FLAT:??_R3TriggerRegion_Circle@@8
rdata$r	ENDS
;	COMDAT ??_7TriggerRegion_Circle@@6B@
CONST	SEGMENT
??_7TriggerRegion_Circle@@6B@ DD FLAT:??_R4TriggerRegion_Circle@@6B@ ; TriggerRegion_Circle::`vftable'
	DD	FLAT:??_ETriggerRegion_Circle@@UAEPAXI@Z
	DD	FLAT:?isTouching@TriggerRegion_Circle@@UBE_NUVector2D@@N@Z
; Function compile flags: /Odtp /RTCsu
CONST	ENDS
;	COMDAT ??0TriggerRegion_Circle@@QAE@UVector2D@@N@Z
_TEXT	SEGMENT
_this$ = -4						; size = 4
_pos$ = 8						; size = 16
_radius$ = 24						; size = 8
??0TriggerRegion_Circle@@QAE@UVector2D@@N@Z PROC	; TriggerRegion_Circle::TriggerRegion_Circle, COMDAT
; _this$ = ecx

; 47   :   {}

	push	ebp
	mov	ebp, esp
	push	ecx
	mov	DWORD PTR [ebp-4], -858993460		; ccccccccH
	mov	DWORD PTR _this$[ebp], ecx
	mov	ecx, DWORD PTR _this$[ebp]
	call	??0TriggerRegion@@QAE@XZ
	mov	eax, DWORD PTR _this$[ebp]
	mov	DWORD PTR [eax], OFFSET ??_7TriggerRegion_Circle@@6B@
	mov	ecx, DWORD PTR _this$[ebp]
	add	ecx, 8
	mov	edx, DWORD PTR _pos$[ebp]
	mov	DWORD PTR [ecx], edx
	mov	eax, DWORD PTR _pos$[ebp+4]
	mov	DWORD PTR [ecx+4], eax
	mov	edx, DWORD PTR _pos$[ebp+8]
	mov	DWORD PTR [ecx+8], edx
	mov	eax, DWORD PTR _pos$[ebp+12]
	mov	DWORD PTR [ecx+12], eax
	mov	ecx, DWORD PTR _this$[ebp]
	fld	QWORD PTR _radius$[ebp]
	fstp	QWORD PTR [ecx+24]
	mov	eax, DWORD PTR _this$[ebp]
	add	esp, 4
	cmp	ebp, esp
	call	__RTC_CheckEsp
	mov	esp, ebp
	pop	ebp
	ret	24					; 00000018H
??0TriggerRegion_Circle@@QAE@UVector2D@@N@Z ENDP	; TriggerRegion_Circle::TriggerRegion_Circle
_TEXT	ENDS
PUBLIC	?Vec2DDistanceSq@@YANABUVector2D@@0@Z		; Vec2DDistanceSq
; Function compile flags: /Odtp /RTCsu
;	COMDAT ?isTouching@TriggerRegion_Circle@@UBE_NUVector2D@@N@Z
_TEXT	SEGMENT
tv76 = -8						; size = 4
_this$ = -4						; size = 4
_pos$ = 8						; size = 16
_EntityRadius$ = 24					; size = 8
?isTouching@TriggerRegion_Circle@@UBE_NUVector2D@@N@Z PROC ; TriggerRegion_Circle::isTouching, COMDAT
; _this$ = ecx

; 50   :   {

	push	ebp
	mov	ebp, esp
	sub	esp, 8
	mov	DWORD PTR [ebp-8], -858993460		; ccccccccH
	mov	DWORD PTR [ebp-4], -858993460		; ccccccccH
	mov	DWORD PTR _this$[ebp], ecx

; 51   :     return Vec2DDistanceSq(m_vPos, pos) < (EntityRadius + m_dRadius)*(EntityRadius + m_dRadius);

	lea	eax, DWORD PTR _pos$[ebp]
	push	eax
	mov	ecx, DWORD PTR _this$[ebp]
	add	ecx, 8
	push	ecx
	call	?Vec2DDistanceSq@@YANABUVector2D@@0@Z	; Vec2DDistanceSq
	add	esp, 8
	mov	edx, DWORD PTR _this$[ebp]
	fld	QWORD PTR _EntityRadius$[ebp]
	fadd	QWORD PTR [edx+24]
	mov	eax, DWORD PTR _this$[ebp]
	fld	QWORD PTR _EntityRadius$[ebp]
	fadd	QWORD PTR [eax+24]
	fmulp	ST(1), ST(0)
	fcompp
	fnstsw	ax
	test	ah, 65					; 00000041H
	jne	SHORT $LN3@isTouching@2
	mov	DWORD PTR tv76[ebp], 1
	jmp	SHORT $LN4@isTouching@2
$LN3@isTouching@2:
	mov	DWORD PTR tv76[ebp], 0
$LN4@isTouching@2:
	mov	al, BYTE PTR tv76[ebp]

; 52   :   }

	add	esp, 8
	cmp	ebp, esp
	call	__RTC_CheckEsp
	mov	esp, ebp
	pop	ebp
	ret	24					; 00000018H
?isTouching@TriggerRegion_Circle@@UBE_NUVector2D@@N@Z ENDP ; TriggerRegion_Circle::isTouching
; Function compile flags: /Odtp /RTCsu
; File c:\users\teaja\documents\artificial-fun\labravenprojecttest\common\2d\vector2d.h
_TEXT	ENDS
;	COMDAT ?Vec2DDistanceSq@@YANABUVector2D@@0@Z
_TEXT	SEGMENT
_xSeparation$ = -16					; size = 8
_ySeparation$ = -8					; size = 8
_v1$ = 8						; size = 4
_v2$ = 12						; size = 4
?Vec2DDistanceSq@@YANABUVector2D@@0@Z PROC		; Vec2DDistanceSq, COMDAT

; 283  : {

	push	ebp
	mov	ebp, esp
	sub	esp, 16					; 00000010H
	mov	eax, -858993460				; ccccccccH
	mov	DWORD PTR [ebp-16], eax
	mov	DWORD PTR [ebp-12], eax
	mov	DWORD PTR [ebp-8], eax
	mov	DWORD PTR [ebp-4], eax

; 284  : 
; 285  :   double ySeparation = v2.y - v1.y;

	mov	eax, DWORD PTR _v2$[ebp]
	mov	ecx, DWORD PTR _v1$[ebp]
	fld	QWORD PTR [eax+8]
	fsub	QWORD PTR [ecx+8]
	fstp	QWORD PTR _ySeparation$[ebp]

; 286  :   double xSeparation = v2.x - v1.x;

	mov	edx, DWORD PTR _v2$[ebp]
	mov	eax, DWORD PTR _v1$[ebp]
	fld	QWORD PTR [edx]
	fsub	QWORD PTR [eax]
	fstp	QWORD PTR _xSeparation$[ebp]

; 287  : 
; 288  :   return ySeparation*ySeparation + xSeparation*xSeparation;

	fld	QWORD PTR _ySeparation$[ebp]
	fmul	QWORD PTR _ySeparation$[ebp]
	fld	QWORD PTR _xSeparation$[ebp]
	fmul	QWORD PTR _xSeparation$[ebp]
	faddp	ST(1), ST(0)

; 289  : }

	mov	esp, ebp
	pop	ebp
	ret	0
?Vec2DDistanceSq@@YANABUVector2D@@0@Z ENDP		; Vec2DDistanceSq
_TEXT	ENDS
PUBLIC	??1TriggerRegion_Circle@@UAE@XZ			; TriggerRegion_Circle::~TriggerRegion_Circle
; Function compile flags: /Odtp /RTCsu
;	COMDAT ??_GTriggerRegion_Circle@@UAEPAXI@Z
_TEXT	SEGMENT
_this$ = -4						; size = 4
___flags$ = 8						; size = 4
??_GTriggerRegion_Circle@@UAEPAXI@Z PROC		; TriggerRegion_Circle::`scalar deleting destructor', COMDAT
; _this$ = ecx
	push	ebp
	mov	ebp, esp
	push	ecx
	mov	DWORD PTR [ebp-4], -858993460		; ccccccccH
	mov	DWORD PTR _this$[ebp], ecx
	mov	ecx, DWORD PTR _this$[ebp]
	call	??1TriggerRegion_Circle@@UAE@XZ
	mov	eax, DWORD PTR ___flags$[ebp]
	and	eax, 1
	je	SHORT $LN1@scalar@11
	mov	ecx, DWORD PTR _this$[ebp]
	push	ecx
	call	??3@YAXPAX@Z				; operator delete
	add	esp, 4
$LN1@scalar@11:
	mov	eax, DWORD PTR _this$[ebp]
	add	esp, 4
	cmp	ebp, esp
	call	__RTC_CheckEsp
	mov	esp, ebp
	pop	ebp
	ret	4
??_GTriggerRegion_Circle@@UAEPAXI@Z ENDP		; TriggerRegion_Circle::`scalar deleting destructor'
_TEXT	ENDS
PUBLIC	??_7TriggerRegion@@6B@				; TriggerRegion::`vftable'
PUBLIC	??_R4TriggerRegion@@6B@				; TriggerRegion::`RTTI Complete Object Locator'
EXTRN	??_ETriggerRegion@@UAEPAXI@Z:PROC		; TriggerRegion::`vector deleting destructor'
;	COMDAT ??_R4TriggerRegion@@6B@
rdata$r	SEGMENT
??_R4TriggerRegion@@6B@ DD 00H				; TriggerRegion::`RTTI Complete Object Locator'
	DD	00H
	DD	00H
	DD	FLAT:??_R0?AVTriggerRegion@@@8
	DD	FLAT:??_R3TriggerRegion@@8
rdata$r	ENDS
;	COMDAT ??_7TriggerRegion@@6B@
CONST	SEGMENT
??_7TriggerRegion@@6B@ DD FLAT:??_R4TriggerRegion@@6B@	; TriggerRegion::`vftable'
	DD	FLAT:??_ETriggerRegion@@UAEPAXI@Z
	DD	FLAT:__purecall
; Function compile flags: /Odtp /RTCsu
CONST	ENDS
;	COMDAT ??0TriggerRegion@@QAE@XZ
_TEXT	SEGMENT
_this$ = -4						; size = 4
??0TriggerRegion@@QAE@XZ PROC				; TriggerRegion::TriggerRegion, COMDAT
; _this$ = ecx
	push	ebp
	mov	ebp, esp
	push	ecx
	mov	DWORD PTR [ebp-4], -858993460		; ccccccccH
	mov	DWORD PTR _this$[ebp], ecx
	mov	eax, DWORD PTR _this$[ebp]
	mov	DWORD PTR [eax], OFFSET ??_7TriggerRegion@@6B@
	mov	eax, DWORD PTR _this$[ebp]
	mov	esp, ebp
	pop	ebp
	ret	0
??0TriggerRegion@@QAE@XZ ENDP				; TriggerRegion::TriggerRegion
_TEXT	ENDS
PUBLIC	??1TriggerRegion@@UAE@XZ			; TriggerRegion::~TriggerRegion
; Function compile flags: /Odtp /RTCsu
;	COMDAT ??_GTriggerRegion@@UAEPAXI@Z
_TEXT	SEGMENT
_this$ = -4						; size = 4
___flags$ = 8						; size = 4
??_GTriggerRegion@@UAEPAXI@Z PROC			; TriggerRegion::`scalar deleting destructor', COMDAT
; _this$ = ecx
	push	ebp
	mov	ebp, esp
	push	ecx
	mov	DWORD PTR [ebp-4], -858993460		; ccccccccH
	mov	DWORD PTR _this$[ebp], ecx
	mov	ecx, DWORD PTR _this$[ebp]
	call	??1TriggerRegion@@UAE@XZ		; TriggerRegion::~TriggerRegion
	mov	eax, DWORD PTR ___flags$[ebp]
	and	eax, 1
	je	SHORT $LN1@scalar@12
	mov	ecx, DWORD PTR _this$[ebp]
	push	ecx
	call	??3@YAXPAX@Z				; operator delete
	add	esp, 4
$LN1@scalar@12:
	mov	eax, DWORD PTR _this$[ebp]
	add	esp, 4
	cmp	ebp, esp
	call	__RTC_CheckEsp
	mov	esp, ebp
	pop	ebp
	ret	4
??_GTriggerRegion@@UAEPAXI@Z ENDP			; TriggerRegion::`scalar deleting destructor'
; Function compile flags: /Odtp /RTCsu
; File c:\users\teaja\documents\artificial-fun\labravenprojecttest\common\triggers\triggerregion.h
_TEXT	ENDS
;	COMDAT ??1TriggerRegion@@UAE@XZ
_TEXT	SEGMENT
_this$ = -4						; size = 4
??1TriggerRegion@@UAE@XZ PROC				; TriggerRegion::~TriggerRegion, COMDAT
; _this$ = ecx

; 20   :   virtual ~TriggerRegion(){}

	push	ebp
	mov	ebp, esp
	push	ecx
	mov	DWORD PTR [ebp-4], -858993460		; ccccccccH
	mov	DWORD PTR _this$[ebp], ecx
	mov	eax, DWORD PTR _this$[ebp]
	mov	DWORD PTR [eax], OFFSET ??_7TriggerRegion@@6B@
	mov	esp, ebp
	pop	ebp
	ret	0
??1TriggerRegion@@UAE@XZ ENDP				; TriggerRegion::~TriggerRegion
; Function compile flags: /Odtp /RTCsu
_TEXT	ENDS
;	COMDAT ??1TriggerRegion_Circle@@UAE@XZ
_TEXT	SEGMENT
_this$ = -4						; size = 4
??1TriggerRegion_Circle@@UAE@XZ PROC			; TriggerRegion_Circle::~TriggerRegion_Circle, COMDAT
; _this$ = ecx
	push	ebp
	mov	ebp, esp
	push	ecx
	mov	DWORD PTR [ebp-4], -858993460		; ccccccccH
	mov	DWORD PTR _this$[ebp], ecx
	mov	ecx, DWORD PTR _this$[ebp]
	call	??1TriggerRegion@@UAE@XZ		; TriggerRegion::~TriggerRegion
	add	esp, 4
	cmp	ebp, esp
	call	__RTC_CheckEsp
	mov	esp, ebp
	pop	ebp
	ret	0
??1TriggerRegion_Circle@@UAE@XZ ENDP			; TriggerRegion_Circle::~TriggerRegion_Circle
_TEXT	ENDS
PUBLIC	??1?$basic_string@DU?$char_traits@D@std@@V?$allocator@D@2@@std@@QAE@XZ ; std::basic_string<char,std::char_traits<char>,std::allocator<char> >::~basic_string<char,std::char_traits<char>,std::allocator<char> >
PUBLIC	??0runtime_error@std@@QAE@ABV?$basic_string@DU?$char_traits@D@std@@V?$allocator@D@2@@1@@Z ; std::runtime_error::runtime_error
PUBLIC	??$?HDU?$char_traits@D@std@@V?$allocator@D@1@@std@@YA?AV?$basic_string@DU?$char_traits@D@std@@V?$allocator@D@2@@0@ABV10@PBD@Z ; std::operator+<char,std::char_traits<char>,std::allocator<char> >
PUBLIC	??0?$basic_string@DU?$char_traits@D@std@@V?$allocator@D@2@@std@@QAE@PBD@Z ; std::basic_string<char,std::char_traits<char>,std::allocator<char> >::basic_string<char,std::char_traits<char>,std::allocator<char> >
PUBLIC	??_C@_0CB@NOKEJIID@?$DMPopLuaNumber?$DO?5Cannot?5retrieve?3?5@ ; `string'
PUBLIC	__$ArrayPad$
EXTRN	_lua_tonumber:PROC
EXTRN	_lua_isnumber:PROC
EXTRN	_lua_getfield:PROC
EXTRN	_lua_settop:PROC
;	COMDAT ??_C@_0CB@NOKEJIID@?$DMPopLuaNumber?$DO?5Cannot?5retrieve?3?5@
; File c:\users\teaja\documents\artificial-fun\labravenprojecttest\common\lua-5.1.3\src\luahelperfunctions.h
CONST	SEGMENT
??_C@_0CB@NOKEJIID@?$DMPopLuaNumber?$DO?5Cannot?5retrieve?3?5@ DB '<PopLu'
	DB	'aNumber> Cannot retrieve: ', 00H		; `string'
CONST	ENDS
;	COMDAT xdata$x
xdata$x	SEGMENT
__unwindtable$??$PopLuaNumber@N@@YANPAUlua_State@@PBD@Z DD 0ffffffffH
	DD	FLAT:__unwindfunclet$??$PopLuaNumber@N@@YANPAUlua_State@@PBD@Z$0
	DD	00H
	DD	FLAT:__unwindfunclet$??$PopLuaNumber@N@@YANPAUlua_State@@PBD@Z$1
__ehfuncinfo$??$PopLuaNumber@N@@YANPAUlua_State@@PBD@Z DD 019930522H
	DD	02H
	DD	FLAT:__unwindtable$??$PopLuaNumber@N@@YANPAUlua_State@@PBD@Z
	DD	2 DUP(00H)
	DD	2 DUP(00H)
	DD	00H
	DD	01H
; Function compile flags: /Odtp /RTCsu
xdata$x	ENDS
;	COMDAT ??$PopLuaNumber@N@@YANPAUlua_State@@PBD@Z
_TEXT	SEGMENT
tv94 = -116						; size = 4
tv74 = -112						; size = 4
$T141449 = -108						; size = 12
_val$ = -96						; size = 8
$T136784 = -88						; size = 32
_err$136783 = -52					; size = 32
__$ArrayPad$ = -16					; size = 4
__$EHRec$ = -12						; size = 12
_pL$ = 8						; size = 4
_name$ = 12						; size = 4
??$PopLuaNumber@N@@YANPAUlua_State@@PBD@Z PROC		; PopLuaNumber<double>, COMDAT

; 70   : {

	push	ebp
	mov	ebp, esp
	push	-1
	push	__ehhandler$??$PopLuaNumber@N@@YANPAUlua_State@@PBD@Z
	mov	eax, DWORD PTR fs:0
	push	eax
	sub	esp, 104				; 00000068H
	push	edi
	lea	edi, DWORD PTR [ebp-116]
	mov	ecx, 26					; 0000001aH
	mov	eax, -858993460				; ccccccccH
	rep stosd
	mov	eax, DWORD PTR ___security_cookie
	xor	eax, ebp
	mov	DWORD PTR __$ArrayPad$[ebp], eax
	push	eax
	lea	eax, DWORD PTR __$EHRec$[ebp]
	mov	DWORD PTR fs:0, eax

; 71   :   lua_settop(pL, 0);

	push	0
	mov	eax, DWORD PTR _pL$[ebp]
	push	eax
	call	_lua_settop
	add	esp, 8

; 72   : 
; 73   :   lua_getglobal(pL, name);

	mov	ecx, DWORD PTR _name$[ebp]
	push	ecx
	push	-10002					; ffffd8eeH
	mov	edx, DWORD PTR _pL$[ebp]
	push	edx
	call	_lua_getfield
	add	esp, 12					; 0000000cH

; 74   : 
; 75   :   //check that the variable is the correct type. If it is not throw an
; 76   :   //exception
; 77   :   if (!lua_isnumber(pL, 1))

	push	1
	mov	eax, DWORD PTR _pL$[ebp]
	push	eax
	call	_lua_isnumber
	add	esp, 8
	test	eax, eax
	jne	SHORT $LN1@PopLuaNumb

; 78   :   {
; 79   :     std::string err("<PopLuaNumber> Cannot retrieve: ");

	push	OFFSET ??_C@_0CB@NOKEJIID@?$DMPopLuaNumber?$DO?5Cannot?5retrieve?3?5@
	lea	ecx, DWORD PTR _err$136783[ebp]
	call	??0?$basic_string@DU?$char_traits@D@std@@V?$allocator@D@2@@std@@QAE@PBD@Z ; std::basic_string<char,std::char_traits<char>,std::allocator<char> >::basic_string<char,std::char_traits<char>,std::allocator<char> >
	mov	DWORD PTR __$EHRec$[ebp+8], 0

; 80   : 
; 81   :     throw std::runtime_error(err + name);

	mov	ecx, DWORD PTR _name$[ebp]
	push	ecx
	lea	edx, DWORD PTR _err$136783[ebp]
	push	edx
	lea	eax, DWORD PTR $T136784[ebp]
	push	eax
	call	??$?HDU?$char_traits@D@std@@V?$allocator@D@1@@std@@YA?AV?$basic_string@DU?$char_traits@D@std@@V?$allocator@D@2@@0@ABV10@PBD@Z ; std::operator+<char,std::char_traits<char>,std::allocator<char> >
	add	esp, 12					; 0000000cH
	mov	DWORD PTR tv74[ebp], eax
	mov	ecx, DWORD PTR tv74[ebp]
	mov	DWORD PTR tv94[ebp], ecx
	mov	BYTE PTR __$EHRec$[ebp+8], 1
	mov	edx, DWORD PTR tv94[ebp]
	push	edx
	lea	ecx, DWORD PTR $T141449[ebp]
	call	??0runtime_error@std@@QAE@ABV?$basic_string@DU?$char_traits@D@std@@V?$allocator@D@2@@1@@Z ; std::runtime_error::runtime_error
	push	OFFSET __TI2?AVruntime_error@std@@
	lea	eax, DWORD PTR $T141449[ebp]
	push	eax
	call	__CxxThrowException@8
	mov	BYTE PTR __$EHRec$[ebp+8], 0
	lea	ecx, DWORD PTR $T136784[ebp]
	call	??1?$basic_string@DU?$char_traits@D@std@@V?$allocator@D@2@@std@@QAE@XZ ; std::basic_string<char,std::char_traits<char>,std::allocator<char> >::~basic_string<char,std::char_traits<char>,std::allocator<char> >

; 82   :   }

	mov	DWORD PTR __$EHRec$[ebp+8], -1
	lea	ecx, DWORD PTR _err$136783[ebp]
	call	??1?$basic_string@DU?$char_traits@D@std@@V?$allocator@D@2@@std@@QAE@XZ ; std::basic_string<char,std::char_traits<char>,std::allocator<char> >::~basic_string<char,std::char_traits<char>,std::allocator<char> >
$LN1@PopLuaNumb:

; 83   : 
; 84   :   //grab the value, cast to the correct type and return
; 85   :   T val = (T)lua_tonumber(pL, 1);

	push	1
	mov	ecx, DWORD PTR _pL$[ebp]
	push	ecx
	call	_lua_tonumber
	add	esp, 8
	fstp	QWORD PTR _val$[ebp]

; 86   : 
; 87   :   //remove the value from the stack
; 88   :   lua_pop(pL, 1);

	push	-2					; fffffffeH
	mov	edx, DWORD PTR _pL$[ebp]
	push	edx
	call	_lua_settop
	add	esp, 8

; 89   : 
; 90   :   return val;

	fld	QWORD PTR _val$[ebp]
$LN2@PopLuaNumb:

; 91   : }

	push	edx
	mov	ecx, ebp
	push	eax
	lea	edx, DWORD PTR $LN9@PopLuaNumb
	call	@_RTC_CheckStackVars@8
	pop	eax
	pop	edx
	mov	ecx, DWORD PTR __$EHRec$[ebp]
	mov	DWORD PTR fs:0, ecx
	pop	ecx
	pop	edi
	mov	ecx, DWORD PTR __$ArrayPad$[ebp]
	xor	ecx, ebp
	call	@__security_check_cookie@4
	add	esp, 116				; 00000074H
	cmp	ebp, esp
	call	__RTC_CheckEsp
	mov	esp, ebp
	pop	ebp
	ret	0
	npad	2
$LN9@PopLuaNumb:
	DD	1
	DD	$LN8@PopLuaNumb
$LN8@PopLuaNumb:
	DD	-52					; ffffffccH
	DD	32					; 00000020H
	DD	$LN6@PopLuaNumb
$LN6@PopLuaNumb:
	DB	101					; 00000065H
	DB	114					; 00000072H
	DB	114					; 00000072H
	DB	0
_TEXT	ENDS
;	COMDAT text$x
text$x	SEGMENT
__unwindfunclet$??$PopLuaNumber@N@@YANPAUlua_State@@PBD@Z$0:
	lea	ecx, DWORD PTR _err$136783[ebp]
	jmp	??1?$basic_string@DU?$char_traits@D@std@@V?$allocator@D@2@@std@@QAE@XZ ; std::basic_string<char,std::char_traits<char>,std::allocator<char> >::~basic_string<char,std::char_traits<char>,std::allocator<char> >
__unwindfunclet$??$PopLuaNumber@N@@YANPAUlua_State@@PBD@Z$1:
	lea	ecx, DWORD PTR $T136784[ebp]
	jmp	??1?$basic_string@DU?$char_traits@D@std@@V?$allocator@D@2@@std@@QAE@XZ ; std::basic_string<char,std::char_traits<char>,std::allocator<char> >::~basic_string<char,std::char_traits<char>,std::allocator<char> >
__ehhandler$??$PopLuaNumber@N@@YANPAUlua_State@@PBD@Z:
	mov	edx, DWORD PTR [esp+8]
	lea	eax, DWORD PTR [edx+12]
	mov	ecx, DWORD PTR [edx-112]
	xor	ecx, eax
	call	@__security_check_cookie@4
	mov	ecx, DWORD PTR [edx-4]
	xor	ecx, eax
	call	@__security_check_cookie@4
	mov	eax, OFFSET __ehfuncinfo$??$PopLuaNumber@N@@YANPAUlua_State@@PBD@Z
	jmp	___CxxFrameHandler3
text$x	ENDS
??$PopLuaNumber@N@@YANPAUlua_State@@PBD@Z ENDP		; PopLuaNumber<double>
PUBLIC	?c_str@?$basic_string@DU?$char_traits@D@std@@V?$allocator@D@2@@std@@QBEPBDXZ ; std::basic_string<char,std::char_traits<char>,std::allocator<char> >::c_str
; Function compile flags: /Odtp /RTCsu
; File c:\program files (x86)\microsoft visual studio 10.0\vc\include\stdexcept
;	COMDAT ??0runtime_error@std@@QAE@ABV?$basic_string@DU?$char_traits@D@std@@V?$allocator@D@2@@1@@Z
_TEXT	SEGMENT
$T141463 = -8						; size = 4
_this$ = -4						; size = 4
__Message$ = 8						; size = 4
??0runtime_error@std@@QAE@ABV?$basic_string@DU?$char_traits@D@std@@V?$allocator@D@2@@1@@Z PROC ; std::runtime_error::runtime_error, COMDAT
; _this$ = ecx

; 165  : 		{	// construct from message string

	push	ebp
	mov	ebp, esp
	sub	esp, 8
	mov	DWORD PTR [ebp-8], -858993460		; ccccccccH
	mov	DWORD PTR [ebp-4], -858993460		; ccccccccH
	mov	DWORD PTR _this$[ebp], ecx
	mov	ecx, DWORD PTR __Message$[ebp]
	call	?c_str@?$basic_string@DU?$char_traits@D@std@@V?$allocator@D@2@@std@@QBEPBDXZ ; std::basic_string<char,std::char_traits<char>,std::allocator<char> >::c_str
	mov	DWORD PTR $T141463[ebp], eax
	lea	eax, DWORD PTR $T141463[ebp]
	push	eax
	mov	ecx, DWORD PTR _this$[ebp]
	call	??0exception@std@@QAE@ABQBD@Z		; std::exception::exception
	mov	ecx, DWORD PTR _this$[ebp]
	mov	DWORD PTR [ecx], OFFSET ??_7runtime_error@std@@6B@

; 166  : 		}

	mov	eax, DWORD PTR _this$[ebp]
	add	esp, 8
	cmp	ebp, esp
	call	__RTC_CheckEsp
	mov	esp, ebp
	pop	ebp
	ret	4
??0runtime_error@std@@QAE@ABV?$basic_string@DU?$char_traits@D@std@@V?$allocator@D@2@@1@@Z ENDP ; std::runtime_error::runtime_error
_TEXT	ENDS
PUBLIC	??1?$_String_val@DV?$allocator@D@std@@@std@@QAE@XZ ; std::_String_val<char,std::allocator<char> >::~_String_val<char,std::allocator<char> >
PUBLIC	?assign@?$basic_string@DU?$char_traits@D@std@@V?$allocator@D@2@@std@@QAEAAV12@PBD@Z ; std::basic_string<char,std::char_traits<char>,std::allocator<char> >::assign
PUBLIC	?_Tidy@?$basic_string@DU?$char_traits@D@std@@V?$allocator@D@2@@std@@QAEX_NI@Z ; std::basic_string<char,std::char_traits<char>,std::allocator<char> >::_Tidy
PUBLIC	??0?$_String_val@DV?$allocator@D@std@@@std@@QAE@V?$allocator@D@1@@Z ; std::_String_val<char,std::allocator<char> >::_String_val<char,std::allocator<char> >
PUBLIC	??0?$allocator@D@std@@QAE@XZ			; std::allocator<char>::allocator<char>
;	COMDAT xdata$x
; File c:\program files (x86)\microsoft visual studio 10.0\vc\include\xstring
xdata$x	SEGMENT
__unwindtable$??0?$basic_string@DU?$char_traits@D@std@@V?$allocator@D@2@@std@@QAE@PBD@Z DD 0ffffffffH
	DD	FLAT:__unwindfunclet$??0?$basic_string@DU?$char_traits@D@std@@V?$allocator@D@2@@std@@QAE@PBD@Z$0
__ehfuncinfo$??0?$basic_string@DU?$char_traits@D@std@@V?$allocator@D@2@@std@@QAE@PBD@Z DD 019930522H
	DD	01H
	DD	FLAT:__unwindtable$??0?$basic_string@DU?$char_traits@D@std@@V?$allocator@D@2@@std@@QAE@PBD@Z
	DD	2 DUP(00H)
	DD	2 DUP(00H)
	DD	00H
	DD	01H
; Function compile flags: /Odtp /RTCsu
xdata$x	ENDS
;	COMDAT ??0?$basic_string@DU?$char_traits@D@std@@V?$allocator@D@2@@std@@QAE@PBD@Z
_TEXT	SEGMENT
$T141467 = -20						; size = 4
_this$ = -16						; size = 4
__$EHRec$ = -12						; size = 12
__Ptr$ = 8						; size = 4
??0?$basic_string@DU?$char_traits@D@std@@V?$allocator@D@2@@std@@QAE@PBD@Z PROC ; std::basic_string<char,std::char_traits<char>,std::allocator<char> >::basic_string<char,std::char_traits<char>,std::allocator<char> >, COMDAT
; _this$ = ecx

; 592  : 		{	// construct from [_Ptr, <null>)

	push	ebp
	mov	ebp, esp
	push	-1
	push	__ehhandler$??0?$basic_string@DU?$char_traits@D@std@@V?$allocator@D@2@@std@@QAE@PBD@Z
	mov	eax, DWORD PTR fs:0
	push	eax
	sub	esp, 8
	mov	DWORD PTR [ebp-20], -858993460		; ccccccccH
	mov	DWORD PTR [ebp-16], -858993460		; ccccccccH
	mov	eax, DWORD PTR ___security_cookie
	xor	eax, ebp
	push	eax
	lea	eax, DWORD PTR __$EHRec$[ebp]
	mov	DWORD PTR fs:0, eax
	mov	DWORD PTR _this$[ebp], ecx
	push	ecx
	mov	ecx, esp
	mov	DWORD PTR $T141467[ebp], esp
	call	??0?$allocator@D@std@@QAE@XZ		; std::allocator<char>::allocator<char>
	mov	ecx, DWORD PTR _this$[ebp]
	call	??0?$_String_val@DV?$allocator@D@std@@@std@@QAE@V?$allocator@D@1@@Z ; std::_String_val<char,std::allocator<char> >::_String_val<char,std::allocator<char> >
	mov	DWORD PTR __$EHRec$[ebp+8], 0

; 593  : 		_Tidy();

	push	0
	push	0
	mov	ecx, DWORD PTR _this$[ebp]
	call	?_Tidy@?$basic_string@DU?$char_traits@D@std@@V?$allocator@D@2@@std@@QAEX_NI@Z ; std::basic_string<char,std::char_traits<char>,std::allocator<char> >::_Tidy

; 594  : 		assign(_Ptr);

	mov	eax, DWORD PTR __Ptr$[ebp]
	push	eax
	mov	ecx, DWORD PTR _this$[ebp]
	call	?assign@?$basic_string@DU?$char_traits@D@std@@V?$allocator@D@2@@std@@QAEAAV12@PBD@Z ; std::basic_string<char,std::char_traits<char>,std::allocator<char> >::assign

; 595  : 		}

	mov	DWORD PTR __$EHRec$[ebp+8], -1
	mov	eax, DWORD PTR _this$[ebp]
	mov	ecx, DWORD PTR __$EHRec$[ebp]
	mov	DWORD PTR fs:0, ecx
	pop	ecx
	add	esp, 20					; 00000014H
	cmp	ebp, esp
	call	__RTC_CheckEsp
	mov	esp, ebp
	pop	ebp
	ret	4
_TEXT	ENDS
;	COMDAT text$x
text$x	SEGMENT
__unwindfunclet$??0?$basic_string@DU?$char_traits@D@std@@V?$allocator@D@2@@std@@QAE@PBD@Z$0:
	mov	ecx, DWORD PTR _this$[ebp]
	jmp	??1?$_String_val@DV?$allocator@D@std@@@std@@QAE@XZ ; std::_String_val<char,std::allocator<char> >::~_String_val<char,std::allocator<char> >
__ehhandler$??0?$basic_string@DU?$char_traits@D@std@@V?$allocator@D@2@@std@@QAE@PBD@Z:
	mov	edx, DWORD PTR [esp+8]
	lea	eax, DWORD PTR [edx+12]
	mov	ecx, DWORD PTR [edx-12]
	xor	ecx, eax
	call	@__security_check_cookie@4
	mov	eax, OFFSET __ehfuncinfo$??0?$basic_string@DU?$char_traits@D@std@@V?$allocator@D@2@@std@@QAE@PBD@Z
	jmp	___CxxFrameHandler3
text$x	ENDS
??0?$basic_string@DU?$char_traits@D@std@@V?$allocator@D@2@@std@@QAE@PBD@Z ENDP ; std::basic_string<char,std::char_traits<char>,std::allocator<char> >::basic_string<char,std::char_traits<char>,std::allocator<char> >
;	COMDAT xdata$x
xdata$x	SEGMENT
__unwindtable$??1?$basic_string@DU?$char_traits@D@std@@V?$allocator@D@2@@std@@QAE@XZ DD 0ffffffffH
	DD	FLAT:__unwindfunclet$??1?$basic_string@DU?$char_traits@D@std@@V?$allocator@D@2@@std@@QAE@XZ$0
__ehfuncinfo$??1?$basic_string@DU?$char_traits@D@std@@V?$allocator@D@2@@std@@QAE@XZ DD 019930522H
	DD	01H
	DD	FLAT:__unwindtable$??1?$basic_string@DU?$char_traits@D@std@@V?$allocator@D@2@@std@@QAE@XZ
	DD	2 DUP(00H)
	DD	2 DUP(00H)
	DD	00H
	DD	01H
; Function compile flags: /Odtp /RTCsu
xdata$x	ENDS
;	COMDAT ??1?$basic_string@DU?$char_traits@D@std@@V?$allocator@D@2@@std@@QAE@XZ
_TEXT	SEGMENT
_this$ = -16						; size = 4
__$EHRec$ = -12						; size = 12
??1?$basic_string@DU?$char_traits@D@std@@V?$allocator@D@2@@std@@QAE@XZ PROC ; std::basic_string<char,std::char_traits<char>,std::allocator<char> >::~basic_string<char,std::char_traits<char>,std::allocator<char> >, COMDAT
; _this$ = ecx

; 752  : 		{	// destroy the string

	push	ebp
	mov	ebp, esp
	push	-1
	push	__ehhandler$??1?$basic_string@DU?$char_traits@D@std@@V?$allocator@D@2@@std@@QAE@XZ
	mov	eax, DWORD PTR fs:0
	push	eax
	push	ecx
	mov	DWORD PTR [ebp-16], -858993460		; ccccccccH
	mov	eax, DWORD PTR ___security_cookie
	xor	eax, ebp
	push	eax
	lea	eax, DWORD PTR __$EHRec$[ebp]
	mov	DWORD PTR fs:0, eax
	mov	DWORD PTR _this$[ebp], ecx
	mov	DWORD PTR __$EHRec$[ebp+8], 0

; 753  : 		_Tidy(true);

	push	0
	push	1
	mov	ecx, DWORD PTR _this$[ebp]
	call	?_Tidy@?$basic_string@DU?$char_traits@D@std@@V?$allocator@D@2@@std@@QAEX_NI@Z ; std::basic_string<char,std::char_traits<char>,std::allocator<char> >::_Tidy

; 754  : 		}

	mov	DWORD PTR __$EHRec$[ebp+8], -1
	mov	ecx, DWORD PTR _this$[ebp]
	call	??1?$_String_val@DV?$allocator@D@std@@@std@@QAE@XZ ; std::_String_val<char,std::allocator<char> >::~_String_val<char,std::allocator<char> >
	mov	ecx, DWORD PTR __$EHRec$[ebp]
	mov	DWORD PTR fs:0, ecx
	pop	ecx
	add	esp, 16					; 00000010H
	cmp	ebp, esp
	call	__RTC_CheckEsp
	mov	esp, ebp
	pop	ebp
	ret	0
_TEXT	ENDS
;	COMDAT text$x
text$x	SEGMENT
__unwindfunclet$??1?$basic_string@DU?$char_traits@D@std@@V?$allocator@D@2@@std@@QAE@XZ$0:
	mov	ecx, DWORD PTR _this$[ebp]
	jmp	??1?$_String_val@DV?$allocator@D@std@@@std@@QAE@XZ ; std::_String_val<char,std::allocator<char> >::~_String_val<char,std::allocator<char> >
__ehhandler$??1?$basic_string@DU?$char_traits@D@std@@V?$allocator@D@2@@std@@QAE@XZ:
	mov	edx, DWORD PTR [esp+8]
	lea	eax, DWORD PTR [edx+12]
	mov	ecx, DWORD PTR [edx-8]
	xor	ecx, eax
	call	@__security_check_cookie@4
	mov	eax, OFFSET __ehfuncinfo$??1?$basic_string@DU?$char_traits@D@std@@V?$allocator@D@2@@std@@QAE@XZ
	jmp	___CxxFrameHandler3
text$x	ENDS
??1?$basic_string@DU?$char_traits@D@std@@V?$allocator@D@2@@std@@QAE@XZ ENDP ; std::basic_string<char,std::char_traits<char>,std::allocator<char> >::~basic_string<char,std::char_traits<char>,std::allocator<char> >
PUBLIC	?_Myptr@?$basic_string@DU?$char_traits@D@std@@V?$allocator@D@2@@std@@QBEPBDXZ ; std::basic_string<char,std::char_traits<char>,std::allocator<char> >::_Myptr
; Function compile flags: /Odtp /RTCsu
;	COMDAT ?c_str@?$basic_string@DU?$char_traits@D@std@@V?$allocator@D@2@@std@@QBEPBDXZ
_TEXT	SEGMENT
_this$ = -4						; size = 4
?c_str@?$basic_string@DU?$char_traits@D@std@@V?$allocator@D@2@@std@@QBEPBDXZ PROC ; std::basic_string<char,std::char_traits<char>,std::allocator<char> >::c_str, COMDAT
; _this$ = ecx

; 1495 : 		{	// return pointer to null-terminated nonmutable array

	push	ebp
	mov	ebp, esp
	push	ecx
	mov	DWORD PTR [ebp-4], -858993460		; ccccccccH
	mov	DWORD PTR _this$[ebp], ecx

; 1496 : 		return (_Myptr());

	mov	ecx, DWORD PTR _this$[ebp]
	call	?_Myptr@?$basic_string@DU?$char_traits@D@std@@V?$allocator@D@2@@std@@QBEPBDXZ ; std::basic_string<char,std::char_traits<char>,std::allocator<char> >::_Myptr

; 1497 : 		}

	add	esp, 4
	cmp	ebp, esp
	call	__RTC_CheckEsp
	mov	esp, ebp
	pop	ebp
	ret	0
?c_str@?$basic_string@DU?$char_traits@D@std@@V?$allocator@D@2@@std@@QBEPBDXZ ENDP ; std::basic_string<char,std::char_traits<char>,std::allocator<char> >::c_str
_TEXT	ENDS
PUBLIC	?assign@?$basic_string@DU?$char_traits@D@std@@V?$allocator@D@2@@std@@QAEAAV12@PBDI@Z ; std::basic_string<char,std::char_traits<char>,std::allocator<char> >::assign
PUBLIC	?length@?$char_traits@D@std@@SAIPBD@Z		; std::char_traits<char>::length
PUBLIC	??$_Debug_pointer@D@std@@YAXPBDPB_WI@Z		; std::_Debug_pointer<char>
PUBLIC	??_C@_1IO@FJMIILFL@?$AAc?$AA?3?$AA?2?$AAP?$AAr?$AAo?$AAg?$AAr?$AAa?$AAm?$AA?5?$AAF?$AAi?$AAl?$AAe?$AAs?$AA?5?$AA?$CI?$AAx?$AA8?$AA6?$AA?$CJ?$AA?2?$AAM?$AAi?$AAc?$AAr?$AAo?$AAs?$AAo?$AAf?$AAt@ ; `string'
;	COMDAT ??_C@_1IO@FJMIILFL@?$AAc?$AA?3?$AA?2?$AAP?$AAr?$AAo?$AAg?$AAr?$AAa?$AAm?$AA?5?$AAF?$AAi?$AAl?$AAe?$AAs?$AA?5?$AA?$CI?$AAx?$AA8?$AA6?$AA?$CJ?$AA?2?$AAM?$AAi?$AAc?$AAr?$AAo?$AAs?$AAo?$AAf?$AAt@
CONST	SEGMENT
??_C@_1IO@FJMIILFL@?$AAc?$AA?3?$AA?2?$AAP?$AAr?$AAo?$AAg?$AAr?$AAa?$AAm?$AA?5?$AAF?$AAi?$AAl?$AAe?$AAs?$AA?5?$AA?$CI?$AAx?$AA8?$AA6?$AA?$CJ?$AA?2?$AAM?$AAi?$AAc?$AAr?$AAo?$AAs?$AAo?$AAf?$AAt@ DB 'c'
	DB	00H, ':', 00H, '\', 00H, 'P', 00H, 'r', 00H, 'o', 00H, 'g', 00H
	DB	'r', 00H, 'a', 00H, 'm', 00H, ' ', 00H, 'F', 00H, 'i', 00H, 'l'
	DB	00H, 'e', 00H, 's', 00H, ' ', 00H, '(', 00H, 'x', 00H, '8', 00H
	DB	'6', 00H, ')', 00H, '\', 00H, 'M', 00H, 'i', 00H, 'c', 00H, 'r'
	DB	00H, 'o', 00H, 's', 00H, 'o', 00H, 'f', 00H, 't', 00H, ' ', 00H
	DB	'V', 00H, 'i', 00H, 's', 00H, 'u', 00H, 'a', 00H, 'l', 00H, ' '
	DB	00H, 'S', 00H, 't', 00H, 'u', 00H, 'd', 00H, 'i', 00H, 'o', 00H
	DB	' ', 00H, '1', 00H, '0', 00H, '.', 00H, '0', 00H, '\', 00H, 'V'
	DB	00H, 'C', 00H, '\', 00H, 'i', 00H, 'n', 00H, 'c', 00H, 'l', 00H
	DB	'u', 00H, 'd', 00H, 'e', 00H, '\', 00H, 'x', 00H, 's', 00H, 't'
	DB	00H, 'r', 00H, 'i', 00H, 'n', 00H, 'g', 00H, 00H, 00H ; `string'
; Function compile flags: /Odtp /RTCsu
CONST	ENDS
;	COMDAT ?assign@?$basic_string@DU?$char_traits@D@std@@V?$allocator@D@2@@std@@QAEAAV12@PBD@Z
_TEXT	SEGMENT
_this$ = -4						; size = 4
__Ptr$ = 8						; size = 4
?assign@?$basic_string@DU?$char_traits@D@std@@V?$allocator@D@2@@std@@QAEAAV12@PBD@Z PROC ; std::basic_string<char,std::char_traits<char>,std::allocator<char> >::assign, COMDAT
; _this$ = ecx

; 928  : 		{	// assign [_Ptr, <null>)

	push	ebp
	mov	ebp, esp
	push	ecx
	mov	DWORD PTR [ebp-4], -858993460		; ccccccccH
	mov	DWORD PTR _this$[ebp], ecx

; 929  : 		_DEBUG_POINTER(_Ptr);

	push	929					; 000003a1H
	push	OFFSET ??_C@_1IO@FJMIILFL@?$AAc?$AA?3?$AA?2?$AAP?$AAr?$AAo?$AAg?$AAr?$AAa?$AAm?$AA?5?$AAF?$AAi?$AAl?$AAe?$AAs?$AA?5?$AA?$CI?$AAx?$AA8?$AA6?$AA?$CJ?$AA?2?$AAM?$AAi?$AAc?$AAr?$AAo?$AAs?$AAo?$AAf?$AAt@
	mov	eax, DWORD PTR __Ptr$[ebp]
	push	eax
	call	??$_Debug_pointer@D@std@@YAXPBDPB_WI@Z	; std::_Debug_pointer<char>
	add	esp, 12					; 0000000cH

; 930  : 		return (assign(_Ptr, _Traits::length(_Ptr)));

	mov	ecx, DWORD PTR __Ptr$[ebp]
	push	ecx
	call	?length@?$char_traits@D@std@@SAIPBD@Z	; std::char_traits<char>::length
	add	esp, 4
	push	eax
	mov	edx, DWORD PTR __Ptr$[ebp]
	push	edx
	mov	ecx, DWORD PTR _this$[ebp]
	call	?assign@?$basic_string@DU?$char_traits@D@std@@V?$allocator@D@2@@std@@QAEAAV12@PBDI@Z ; std::basic_string<char,std::char_traits<char>,std::allocator<char> >::assign

; 931  : 		}

	add	esp, 4
	cmp	ebp, esp
	call	__RTC_CheckEsp
	mov	esp, ebp
	pop	ebp
	ret	4
?assign@?$basic_string@DU?$char_traits@D@std@@V?$allocator@D@2@@std@@QAEAAV12@PBD@Z ENDP ; std::basic_string<char,std::char_traits<char>,std::allocator<char> >::assign
_TEXT	ENDS
EXTRN	_strlen:PROC
; Function compile flags: /Odtp /RTCsu
; File c:\program files (x86)\microsoft visual studio 10.0\vc\include\iosfwd
;	COMDAT ?length@?$char_traits@D@std@@SAIPBD@Z
_TEXT	SEGMENT
__First$ = 8						; size = 4
?length@?$char_traits@D@std@@SAIPBD@Z PROC		; std::char_traits<char>::length, COMDAT

; 490  : 		{	// find length of null-terminated string

	push	ebp
	mov	ebp, esp

; 491  : 		return (_CSTD strlen(_First));

	mov	eax, DWORD PTR __First$[ebp]
	push	eax
	call	_strlen
	add	esp, 4

; 492  : 		}

	cmp	ebp, esp
	call	__RTC_CheckEsp
	pop	ebp
	ret	0
?length@?$char_traits@D@std@@SAIPBD@Z ENDP		; std::char_traits<char>::length
_TEXT	ENDS
PUBLIC	?_Eos@?$basic_string@DU?$char_traits@D@std@@V?$allocator@D@2@@std@@QAEXI@Z ; std::basic_string<char,std::char_traits<char>,std::allocator<char> >::_Eos
PUBLIC	?deallocate@?$allocator@D@std@@QAEXPADI@Z	; std::allocator<char>::deallocate
PUBLIC	?copy@?$char_traits@D@std@@SAPADPADPBDI@Z	; std::char_traits<char>::copy
; Function compile flags: /Odtp /RTCsu
; File c:\program files (x86)\microsoft visual studio 10.0\vc\include\xstring
;	COMDAT ?_Tidy@?$basic_string@DU?$char_traits@D@std@@V?$allocator@D@2@@std@@QAEX_NI@Z
_TEXT	SEGMENT
__Ptr$134049 = -8					; size = 4
_this$ = -4						; size = 4
__Built$ = 8						; size = 1
__Newsize$ = 12						; size = 4
?_Tidy@?$basic_string@DU?$char_traits@D@std@@V?$allocator@D@2@@std@@QAEX_NI@Z PROC ; std::basic_string<char,std::char_traits<char>,std::allocator<char> >::_Tidy, COMDAT
; _this$ = ecx

; 1987 : 		{	// initialize buffer, deallocating any storage

	push	ebp
	mov	ebp, esp
	sub	esp, 8
	mov	DWORD PTR [ebp-8], -858993460		; ccccccccH
	mov	DWORD PTR [ebp-4], -858993460		; ccccccccH
	mov	DWORD PTR _this$[ebp], ecx

; 1988 : 		if (!_Built)

	movzx	eax, BYTE PTR __Built$[ebp]
	test	eax, eax
	jne	SHORT $LN4@Tidy@3
	jmp	SHORT $LN3@Tidy@3
$LN4@Tidy@3:

; 1989 : 			;
; 1990 : 		else if (this->_BUF_SIZE <= this->_Myres)

	mov	ecx, DWORD PTR _this$[ebp]
	cmp	DWORD PTR [ecx+24], 16			; 00000010H
	jb	SHORT $LN3@Tidy@3

; 1991 : 			{	// copy any leftovers to small buffer and deallocate
; 1992 : 			_Elem *_Ptr = this->_Bx._Ptr;

	mov	edx, DWORD PTR _this$[ebp]
	mov	eax, DWORD PTR [edx+4]
	mov	DWORD PTR __Ptr$134049[ebp], eax

; 1993 : 			if (0 < _Newsize)

	cmp	DWORD PTR __Newsize$[ebp], 0
	jbe	SHORT $LN1@Tidy@3

; 1994 : 				_Traits::copy(this->_Bx._Buf, _Ptr, _Newsize);

	mov	ecx, DWORD PTR __Newsize$[ebp]
	push	ecx
	mov	edx, DWORD PTR __Ptr$134049[ebp]
	push	edx
	mov	eax, DWORD PTR _this$[ebp]
	add	eax, 4
	push	eax
	call	?copy@?$char_traits@D@std@@SAPADPADPBDI@Z ; std::char_traits<char>::copy
	add	esp, 12					; 0000000cH
$LN1@Tidy@3:

; 1995 : 			this->_Alval.deallocate(_Ptr, this->_Myres + 1);

	mov	ecx, DWORD PTR _this$[ebp]
	mov	edx, DWORD PTR [ecx+24]
	add	edx, 1
	push	edx
	mov	eax, DWORD PTR __Ptr$134049[ebp]
	push	eax
	mov	ecx, DWORD PTR _this$[ebp]
	add	ecx, 28					; 0000001cH
	call	?deallocate@?$allocator@D@std@@QAEXPADI@Z ; std::allocator<char>::deallocate
$LN3@Tidy@3:

; 1996 : 			}
; 1997 : 		this->_Myres = this->_BUF_SIZE - 1;

	mov	ecx, DWORD PTR _this$[ebp]
	mov	DWORD PTR [ecx+24], 15			; 0000000fH

; 1998 : 		_Eos(_Newsize);

	mov	edx, DWORD PTR __Newsize$[ebp]
	push	edx
	mov	ecx, DWORD PTR _this$[ebp]
	call	?_Eos@?$basic_string@DU?$char_traits@D@std@@V?$allocator@D@2@@std@@QAEXI@Z ; std::basic_string<char,std::char_traits<char>,std::allocator<char> >::_Eos

; 1999 : 		}

	add	esp, 8
	cmp	ebp, esp
	call	__RTC_CheckEsp
	mov	esp, ebp
	pop	ebp
	ret	8
?_Tidy@?$basic_string@DU?$char_traits@D@std@@V?$allocator@D@2@@std@@QAEX_NI@Z ENDP ; std::basic_string<char,std::char_traits<char>,std::allocator<char> >::_Tidy
; Function compile flags: /Odtp /RTCsu
; File c:\program files (x86)\microsoft visual studio 10.0\vc\include\iosfwd
_TEXT	ENDS
;	COMDAT ?copy@?$char_traits@D@std@@SAPADPADPBDI@Z
_TEXT	SEGMENT
__First1$ = 8						; size = 4
__First2$ = 12						; size = 4
__Count$ = 16						; size = 4
?copy@?$char_traits@D@std@@SAPADPADPBDI@Z PROC		; std::char_traits<char>::copy, COMDAT

; 496  : 		{	// copy [_First1, _First1 + _Count) to [_First2, ...)

	push	ebp
	mov	ebp, esp

; 497  : 		return ((_Elem *)_CSTD memcpy(_First1, _First2, _Count));

	mov	eax, DWORD PTR __Count$[ebp]
	push	eax
	mov	ecx, DWORD PTR __First2$[ebp]
	push	ecx
	mov	edx, DWORD PTR __First1$[ebp]
	push	edx
	call	_memcpy
	add	esp, 12					; 0000000cH

; 498  : 		}

	cmp	ebp, esp
	call	__RTC_CheckEsp
	pop	ebp
	ret	0
?copy@?$char_traits@D@std@@SAPADPADPBDI@Z ENDP		; std::char_traits<char>::copy
; Function compile flags: /Odtp /RTCsu
; File c:\program files (x86)\microsoft visual studio 10.0\vc\include\xstring
_TEXT	ENDS
;	COMDAT ?_Myptr@?$basic_string@DU?$char_traits@D@std@@V?$allocator@D@2@@std@@QBEPBDXZ
_TEXT	SEGMENT
tv82 = -8						; size = 4
_this$ = -4						; size = 4
?_Myptr@?$basic_string@DU?$char_traits@D@std@@V?$allocator@D@2@@std@@QBEPBDXZ PROC ; std::basic_string<char,std::char_traits<char>,std::allocator<char> >::_Myptr, COMDAT
; _this$ = ecx

; 2008 : 		{	// determine current pointer to buffer for nonmutable string

	push	ebp
	mov	ebp, esp
	sub	esp, 8
	mov	DWORD PTR [ebp-8], -858993460		; ccccccccH
	mov	DWORD PTR [ebp-4], -858993460		; ccccccccH
	mov	DWORD PTR _this$[ebp], ecx

; 2009 : 		return (this->_BUF_SIZE <= this->_Myres ? this->_Bx._Ptr
; 2010 : 			: this->_Bx._Buf);

	mov	eax, DWORD PTR _this$[ebp]
	cmp	DWORD PTR [eax+24], 16			; 00000010H
	jb	SHORT $LN3@Myptr
	mov	ecx, DWORD PTR _this$[ebp]
	mov	edx, DWORD PTR [ecx+4]
	mov	DWORD PTR tv82[ebp], edx
	jmp	SHORT $LN4@Myptr
$LN3@Myptr:
	mov	eax, DWORD PTR _this$[ebp]
	add	eax, 4
	mov	DWORD PTR tv82[ebp], eax
$LN4@Myptr:
	mov	eax, DWORD PTR tv82[ebp]

; 2011 : 		}

	mov	esp, ebp
	pop	ebp
	ret	0
?_Myptr@?$basic_string@DU?$char_traits@D@std@@V?$allocator@D@2@@std@@QBEPBDXZ ENDP ; std::basic_string<char,std::char_traits<char>,std::allocator<char> >::_Myptr
_TEXT	ENDS
PUBLIC	??1_Container_base12@std@@QAE@XZ		; std::_Container_base12::~_Container_base12
PUBLIC	??$_Cons_val@V?$allocator@U_Container_proxy@std@@@std@@U_Container_proxy@2@U32@@std@@YAXAAV?$allocator@U_Container_proxy@std@@@0@PAU_Container_proxy@0@$$QAU20@@Z ; std::_Cons_val<std::allocator<std::_Container_proxy>,std::_Container_proxy,std::_Container_proxy>
PUBLIC	??0_Container_proxy@std@@QAE@XZ			; std::_Container_proxy::_Container_proxy
PUBLIC	?allocate@?$allocator@U_Container_proxy@std@@@std@@QAEPAU_Container_proxy@2@I@Z ; std::allocator<std::_Container_proxy>::allocate
PUBLIC	??$?0D@?$allocator@U_Container_proxy@std@@@std@@QAE@ABV?$allocator@D@1@@Z ; std::allocator<std::_Container_proxy>::allocator<std::_Container_proxy><char>
PUBLIC	??0?$allocator@D@std@@QAE@ABV01@@Z		; std::allocator<char>::allocator<char>
PUBLIC	??0_Container_base12@std@@QAE@XZ		; std::_Container_base12::_Container_base12
;	COMDAT xdata$x
xdata$x	SEGMENT
__unwindtable$??0?$_String_val@DV?$allocator@D@std@@@std@@QAE@V?$allocator@D@1@@Z DD 0ffffffffH
	DD	FLAT:__unwindfunclet$??0?$_String_val@DV?$allocator@D@std@@@std@@QAE@V?$allocator@D@1@@Z$0
__ehfuncinfo$??0?$_String_val@DV?$allocator@D@std@@@std@@QAE@V?$allocator@D@1@@Z DD 019930522H
	DD	01H
	DD	FLAT:__unwindtable$??0?$_String_val@DV?$allocator@D@std@@@std@@QAE@V?$allocator@D@1@@Z
	DD	2 DUP(00H)
	DD	2 DUP(00H)
	DD	00H
	DD	01H
; Function compile flags: /Odtp /RTCsu
xdata$x	ENDS
;	COMDAT ??0?$_String_val@DV?$allocator@D@std@@@std@@QAE@V?$allocator@D@1@@Z
_TEXT	SEGMENT
$T141500 = -36						; size = 8
__Alproxy$ = -21					; size = 1
_this$ = -16						; size = 4
__$EHRec$ = -12						; size = 12
__Al$ = 8						; size = 1
??0?$_String_val@DV?$allocator@D@std@@@std@@QAE@V?$allocator@D@1@@Z PROC ; std::_String_val<char,std::allocator<char> >::_String_val<char,std::allocator<char> >, COMDAT
; _this$ = ecx

; 466  : 		{	// construct allocator from _Al

	push	ebp
	mov	ebp, esp
	push	-1
	push	__ehhandler$??0?$_String_val@DV?$allocator@D@std@@@std@@QAE@V?$allocator@D@1@@Z
	mov	eax, DWORD PTR fs:0
	push	eax
	sub	esp, 24					; 00000018H
	mov	eax, -858993460				; ccccccccH
	mov	DWORD PTR [ebp-36], eax
	mov	DWORD PTR [ebp-32], eax
	mov	DWORD PTR [ebp-28], eax
	mov	DWORD PTR [ebp-24], eax
	mov	DWORD PTR [ebp-20], eax
	mov	DWORD PTR [ebp-16], eax
	mov	eax, DWORD PTR ___security_cookie
	xor	eax, ebp
	push	eax
	lea	eax, DWORD PTR __$EHRec$[ebp]
	mov	DWORD PTR fs:0, eax
	mov	DWORD PTR _this$[ebp], ecx
	mov	ecx, DWORD PTR _this$[ebp]
	call	??0_Container_base12@std@@QAE@XZ	; std::_Container_base12::_Container_base12
	mov	DWORD PTR __$EHRec$[ebp+8], 0
	lea	eax, DWORD PTR __Al$[ebp]
	push	eax
	mov	ecx, DWORD PTR _this$[ebp]
	add	ecx, 28					; 0000001cH
	call	??0?$allocator@D@std@@QAE@ABV01@@Z	; std::allocator<char>::allocator<char>

; 467  : 		typename _Alloc::template rebind<_Container_proxy>::other
; 468  : 			_Alproxy(_Alval);

	mov	ecx, DWORD PTR _this$[ebp]
	add	ecx, 28					; 0000001cH
	push	ecx
	lea	ecx, DWORD PTR __Alproxy$[ebp]
	call	??$?0D@?$allocator@U_Container_proxy@std@@@std@@QAE@ABV?$allocator@D@1@@Z ; std::allocator<std::_Container_proxy>::allocator<std::_Container_proxy><char>

; 469  : 		this->_Myproxy = _Alproxy.allocate(1);

	push	1
	lea	ecx, DWORD PTR __Alproxy$[ebp]
	call	?allocate@?$allocator@U_Container_proxy@std@@@std@@QAEPAU_Container_proxy@2@I@Z ; std::allocator<std::_Container_proxy>::allocate
	mov	edx, DWORD PTR _this$[ebp]
	mov	DWORD PTR [edx], eax

; 470  : 		_Cons_val(_Alproxy, this->_Myproxy, _Container_proxy());

	lea	ecx, DWORD PTR $T141500[ebp]
	call	??0_Container_proxy@std@@QAE@XZ		; std::_Container_proxy::_Container_proxy
	push	eax
	mov	eax, DWORD PTR _this$[ebp]
	mov	ecx, DWORD PTR [eax]
	push	ecx
	lea	edx, DWORD PTR __Alproxy$[ebp]
	push	edx
	call	??$_Cons_val@V?$allocator@U_Container_proxy@std@@@std@@U_Container_proxy@2@U32@@std@@YAXAAV?$allocator@U_Container_proxy@std@@@0@PAU_Container_proxy@0@$$QAU20@@Z ; std::_Cons_val<std::allocator<std::_Container_proxy>,std::_Container_proxy,std::_Container_proxy>
	add	esp, 12					; 0000000cH

; 471  : 		this->_Myproxy->_Mycont = this;

	mov	eax, DWORD PTR _this$[ebp]
	mov	ecx, DWORD PTR [eax]
	mov	edx, DWORD PTR _this$[ebp]
	mov	DWORD PTR [ecx], edx

; 472  : 		}

	mov	DWORD PTR __$EHRec$[ebp+8], -1
	mov	eax, DWORD PTR _this$[ebp]
	push	edx
	mov	ecx, ebp
	push	eax
	lea	edx, DWORD PTR $LN7@String_val
	call	@_RTC_CheckStackVars@8
	pop	eax
	pop	edx
	mov	ecx, DWORD PTR __$EHRec$[ebp]
	mov	DWORD PTR fs:0, ecx
	pop	ecx
	add	esp, 36					; 00000024H
	cmp	ebp, esp
	call	__RTC_CheckEsp
	mov	esp, ebp
	pop	ebp
	ret	4
	npad	2
$LN7@String_val:
	DD	1
	DD	$LN6@String_val
$LN6@String_val:
	DD	-21					; ffffffebH
	DD	1
	DD	$LN4@String_val
$LN4@String_val:
	DB	95					; 0000005fH
	DB	65					; 00000041H
	DB	108					; 0000006cH
	DB	112					; 00000070H
	DB	114					; 00000072H
	DB	111					; 0000006fH
	DB	120					; 00000078H
	DB	121					; 00000079H
	DB	0
_TEXT	ENDS
;	COMDAT text$x
text$x	SEGMENT
__unwindfunclet$??0?$_String_val@DV?$allocator@D@std@@@std@@QAE@V?$allocator@D@1@@Z$0:
	mov	ecx, DWORD PTR _this$[ebp]
	jmp	??1_Container_base12@std@@QAE@XZ	; std::_Container_base12::~_Container_base12
__ehhandler$??0?$_String_val@DV?$allocator@D@std@@@std@@QAE@V?$allocator@D@1@@Z:
	mov	edx, DWORD PTR [esp+8]
	lea	eax, DWORD PTR [edx+12]
	mov	ecx, DWORD PTR [edx-28]
	xor	ecx, eax
	call	@__security_check_cookie@4
	mov	eax, OFFSET __ehfuncinfo$??0?$_String_val@DV?$allocator@D@std@@@std@@QAE@V?$allocator@D@1@@Z
	jmp	___CxxFrameHandler3
text$x	ENDS
??0?$_String_val@DV?$allocator@D@std@@@std@@QAE@V?$allocator@D@1@@Z ENDP ; std::_String_val<char,std::allocator<char> >::_String_val<char,std::allocator<char> >
; Function compile flags: /Odtp /RTCsu
; File c:\program files (x86)\microsoft visual studio 10.0\vc\include\xutility
;	COMDAT ??0_Container_proxy@std@@QAE@XZ
_TEXT	SEGMENT
_this$ = -4						; size = 4
??0_Container_proxy@std@@QAE@XZ PROC			; std::_Container_proxy::_Container_proxy, COMDAT
; _this$ = ecx

; 65   : 		{	// construct from pointers

	push	ebp
	mov	ebp, esp
	push	ecx
	mov	DWORD PTR [ebp-4], -858993460		; ccccccccH
	mov	DWORD PTR _this$[ebp], ecx
	mov	eax, DWORD PTR _this$[ebp]
	mov	DWORD PTR [eax], 0
	mov	ecx, DWORD PTR _this$[ebp]
	mov	DWORD PTR [ecx+4], 0

; 66   : 		}

	mov	eax, DWORD PTR _this$[ebp]
	mov	esp, ebp
	pop	ebp
	ret	0
??0_Container_proxy@std@@QAE@XZ ENDP			; std::_Container_proxy::_Container_proxy
; Function compile flags: /Odtp /RTCsu
_TEXT	ENDS
;	COMDAT ??0_Container_base12@std@@QAE@XZ
_TEXT	SEGMENT
_this$ = -4						; size = 4
??0_Container_base12@std@@QAE@XZ PROC			; std::_Container_base12::_Container_base12, COMDAT
; _this$ = ecx

; 77   : 		{	// construct childless container

	push	ebp
	mov	ebp, esp
	push	ecx
	mov	DWORD PTR [ebp-4], -858993460		; ccccccccH
	mov	DWORD PTR _this$[ebp], ecx
	mov	eax, DWORD PTR _this$[ebp]
	mov	DWORD PTR [eax], 0

; 78   : 		}

	mov	eax, DWORD PTR _this$[ebp]
	mov	esp, ebp
	pop	ebp
	ret	0
??0_Container_base12@std@@QAE@XZ ENDP			; std::_Container_base12::_Container_base12
_TEXT	ENDS
PUBLIC	?_Orphan_all@_Container_base12@std@@QAEXXZ	; std::_Container_base12::_Orphan_all
; Function compile flags: /Odtp /RTCsu
;	COMDAT ??1_Container_base12@std@@QAE@XZ
_TEXT	SEGMENT
_this$ = -4						; size = 4
??1_Container_base12@std@@QAE@XZ PROC			; std::_Container_base12::~_Container_base12, COMDAT
; _this$ = ecx

; 91   : 		{	// destroy the container

	push	ebp
	mov	ebp, esp
	push	ecx
	mov	DWORD PTR [ebp-4], -858993460		; ccccccccH
	mov	DWORD PTR _this$[ebp], ecx

; 92   : 		_Orphan_all();

	mov	ecx, DWORD PTR _this$[ebp]
	call	?_Orphan_all@_Container_base12@std@@QAEXXZ ; std::_Container_base12::_Orphan_all

; 93   : 		}

	add	esp, 4
	cmp	ebp, esp
	call	__RTC_CheckEsp
	mov	esp, ebp
	pop	ebp
	ret	0
??1_Container_base12@std@@QAE@XZ ENDP			; std::_Container_base12::~_Container_base12
; Function compile flags: /Odtp /RTCsu
_TEXT	ENDS
;	COMDAT ?_Orphan_all@_Container_base12@std@@QAEXXZ
_TEXT	SEGMENT
__Pnext$15173 = -20					; size = 4
__Lock$15172 = -12					; size = 4
_this$ = -4						; size = 4
?_Orphan_all@_Container_base12@std@@QAEXXZ PROC		; std::_Container_base12::_Orphan_all, COMDAT
; _this$ = ecx

; 206  : 	{	// orphan all iterators

	push	ebp
	mov	ebp, esp
	sub	esp, 20					; 00000014H
	mov	eax, -858993460				; ccccccccH
	mov	DWORD PTR [ebp-20], eax
	mov	DWORD PTR [ebp-16], eax
	mov	DWORD PTR [ebp-12], eax
	mov	DWORD PTR [ebp-8], eax
	mov	DWORD PTR [ebp-4], eax
	mov	DWORD PTR _this$[ebp], ecx

; 207  :  #if _ITERATOR_DEBUG_LEVEL == 2
; 208  : 	if (_Myproxy != 0)

	mov	eax, DWORD PTR _this$[ebp]
	cmp	DWORD PTR [eax], 0
	je	SHORT $LN5@Orphan_all

; 209  : 		{	// proxy allocated, drain it
; 210  : 		_Lockit _Lock(_LOCK_DEBUG);

	push	3
	lea	ecx, DWORD PTR __Lock$15172[ebp]
	call	??0_Lockit@std@@QAE@H@Z			; std::_Lockit::_Lockit

; 211  : 
; 212  : 		for (_Iterator_base12 **_Pnext = &_Myproxy->_Myfirstiter;

	mov	ecx, DWORD PTR _this$[ebp]
	mov	edx, DWORD PTR [ecx]
	add	edx, 4
	mov	DWORD PTR __Pnext$15173[ebp], edx

; 213  : 			*_Pnext != 0; *_Pnext = (*_Pnext)->_Mynextiter)

	jmp	SHORT $LN3@Orphan_all
$LN2@Orphan_all:
	mov	eax, DWORD PTR __Pnext$15173[ebp]
	mov	ecx, DWORD PTR [eax]
	mov	edx, DWORD PTR __Pnext$15173[ebp]
	mov	eax, DWORD PTR [ecx+4]
	mov	DWORD PTR [edx], eax
$LN3@Orphan_all:
	mov	ecx, DWORD PTR __Pnext$15173[ebp]
	cmp	DWORD PTR [ecx], 0
	je	SHORT $LN1@Orphan_all

; 214  : 			(*_Pnext)->_Myproxy = 0;

	mov	edx, DWORD PTR __Pnext$15173[ebp]
	mov	eax, DWORD PTR [edx]
	mov	DWORD PTR [eax], 0
	jmp	SHORT $LN2@Orphan_all
$LN1@Orphan_all:

; 215  : 		_Myproxy->_Myfirstiter = 0;

	mov	ecx, DWORD PTR _this$[ebp]
	mov	edx, DWORD PTR [ecx]
	mov	DWORD PTR [edx+4], 0

; 216  : 		}

	lea	ecx, DWORD PTR __Lock$15172[ebp]
	call	??1_Lockit@std@@QAE@XZ			; std::_Lockit::~_Lockit
$LN5@Orphan_all:

; 217  :  #endif /* _ITERATOR_DEBUG_LEVEL == 2 */
; 218  : 	}

	push	edx
	mov	ecx, ebp
	push	eax
	lea	edx, DWORD PTR $LN10@Orphan_all
	call	@_RTC_CheckStackVars@8
	pop	eax
	pop	edx
	add	esp, 20					; 00000014H
	cmp	ebp, esp
	call	__RTC_CheckEsp
	mov	esp, ebp
	pop	ebp
	ret	0
	npad	3
$LN10@Orphan_all:
	DD	1
	DD	$LN9@Orphan_all
$LN9@Orphan_all:
	DD	-12					; fffffff4H
	DD	4
	DD	$LN8@Orphan_all
$LN8@Orphan_all:
	DB	95					; 0000005fH
	DB	76					; 0000004cH
	DB	111					; 0000006fH
	DB	99					; 00000063H
	DB	107					; 0000006bH
	DB	0
?_Orphan_all@_Container_base12@std@@QAEXXZ ENDP		; std::_Container_base12::_Orphan_all
_TEXT	ENDS
PUBLIC	?deallocate@?$allocator@U_Container_proxy@std@@@std@@QAEXPAU_Container_proxy@2@I@Z ; std::allocator<std::_Container_proxy>::deallocate
PUBLIC	??$_Dest_val@V?$allocator@U_Container_proxy@std@@@std@@U_Container_proxy@2@@std@@YAXAAV?$allocator@U_Container_proxy@std@@@0@PAU_Container_proxy@0@@Z ; std::_Dest_val<std::allocator<std::_Container_proxy>,std::_Container_proxy>
;	COMDAT xdata$x
; File c:\program files (x86)\microsoft visual studio 10.0\vc\include\xstring
xdata$x	SEGMENT
__unwindtable$??1?$_String_val@DV?$allocator@D@std@@@std@@QAE@XZ DD 0ffffffffH
	DD	FLAT:__unwindfunclet$??1?$_String_val@DV?$allocator@D@std@@@std@@QAE@XZ$0
__ehfuncinfo$??1?$_String_val@DV?$allocator@D@std@@@std@@QAE@XZ DD 019930522H
	DD	01H
	DD	FLAT:__unwindtable$??1?$_String_val@DV?$allocator@D@std@@@std@@QAE@XZ
	DD	2 DUP(00H)
	DD	2 DUP(00H)
	DD	00H
	DD	01H
; Function compile flags: /Odtp /RTCsu
xdata$x	ENDS
;	COMDAT ??1?$_String_val@DV?$allocator@D@std@@@std@@QAE@XZ
_TEXT	SEGMENT
__Alproxy$ = -21					; size = 1
_this$ = -16						; size = 4
__$EHRec$ = -12						; size = 12
??1?$_String_val@DV?$allocator@D@std@@@std@@QAE@XZ PROC	; std::_String_val<char,std::allocator<char> >::~_String_val<char,std::allocator<char> >, COMDAT
; _this$ = ecx

; 475  : 		{	// destroy the object

	push	ebp
	mov	ebp, esp
	push	-1
	push	__ehhandler$??1?$_String_val@DV?$allocator@D@std@@@std@@QAE@XZ
	mov	eax, DWORD PTR fs:0
	push	eax
	sub	esp, 16					; 00000010H
	mov	eax, -858993460				; ccccccccH
	mov	DWORD PTR [ebp-28], eax
	mov	DWORD PTR [ebp-24], eax
	mov	DWORD PTR [ebp-20], eax
	mov	DWORD PTR [ebp-16], eax
	mov	eax, DWORD PTR ___security_cookie
	xor	eax, ebp
	push	eax
	lea	eax, DWORD PTR __$EHRec$[ebp]
	mov	DWORD PTR fs:0, eax
	mov	DWORD PTR _this$[ebp], ecx
	mov	DWORD PTR __$EHRec$[ebp+8], 0

; 476  : 		typename _Alloc::template rebind<_Container_proxy>::other
; 477  : 			_Alproxy(_Alval);

	mov	eax, DWORD PTR _this$[ebp]
	add	eax, 28					; 0000001cH
	push	eax
	lea	ecx, DWORD PTR __Alproxy$[ebp]
	call	??$?0D@?$allocator@U_Container_proxy@std@@@std@@QAE@ABV?$allocator@D@1@@Z ; std::allocator<std::_Container_proxy>::allocator<std::_Container_proxy><char>

; 478  : 		this->_Orphan_all();

	mov	ecx, DWORD PTR _this$[ebp]
	call	?_Orphan_all@_Container_base12@std@@QAEXXZ ; std::_Container_base12::_Orphan_all

; 479  : 		_Dest_val(_Alproxy, this->_Myproxy);

	mov	ecx, DWORD PTR _this$[ebp]
	mov	edx, DWORD PTR [ecx]
	push	edx
	lea	eax, DWORD PTR __Alproxy$[ebp]
	push	eax
	call	??$_Dest_val@V?$allocator@U_Container_proxy@std@@@std@@U_Container_proxy@2@@std@@YAXAAV?$allocator@U_Container_proxy@std@@@0@PAU_Container_proxy@0@@Z ; std::_Dest_val<std::allocator<std::_Container_proxy>,std::_Container_proxy>
	add	esp, 8

; 480  : 		_Alproxy.deallocate(this->_Myproxy, 1);

	push	1
	mov	ecx, DWORD PTR _this$[ebp]
	mov	edx, DWORD PTR [ecx]
	push	edx
	lea	ecx, DWORD PTR __Alproxy$[ebp]
	call	?deallocate@?$allocator@U_Container_proxy@std@@@std@@QAEXPAU_Container_proxy@2@I@Z ; std::allocator<std::_Container_proxy>::deallocate

; 481  : 		this->_Myproxy = 0;

	mov	eax, DWORD PTR _this$[ebp]
	mov	DWORD PTR [eax], 0

; 482  : 		}

	mov	DWORD PTR __$EHRec$[ebp+8], -1
	mov	ecx, DWORD PTR _this$[ebp]
	call	??1_Container_base12@std@@QAE@XZ	; std::_Container_base12::~_Container_base12
	push	edx
	mov	ecx, ebp
	push	eax
	lea	edx, DWORD PTR $LN7@String_val@2
	call	@_RTC_CheckStackVars@8
	pop	eax
	pop	edx
	mov	ecx, DWORD PTR __$EHRec$[ebp]
	mov	DWORD PTR fs:0, ecx
	pop	ecx
	add	esp, 28					; 0000001cH
	cmp	ebp, esp
	call	__RTC_CheckEsp
	mov	esp, ebp
	pop	ebp
	ret	0
	npad	1
$LN7@String_val@2:
	DD	1
	DD	$LN6@String_val@2
$LN6@String_val@2:
	DD	-21					; ffffffebH
	DD	1
	DD	$LN4@String_val@2
$LN4@String_val@2:
	DB	95					; 0000005fH
	DB	65					; 00000041H
	DB	108					; 0000006cH
	DB	112					; 00000070H
	DB	114					; 00000072H
	DB	111					; 0000006fH
	DB	120					; 00000078H
	DB	121					; 00000079H
	DB	0
_TEXT	ENDS
;	COMDAT text$x
text$x	SEGMENT
__unwindfunclet$??1?$_String_val@DV?$allocator@D@std@@@std@@QAE@XZ$0:
	mov	ecx, DWORD PTR _this$[ebp]
	jmp	??1_Container_base12@std@@QAE@XZ	; std::_Container_base12::~_Container_base12
__ehhandler$??1?$_String_val@DV?$allocator@D@std@@@std@@QAE@XZ:
	mov	edx, DWORD PTR [esp+8]
	lea	eax, DWORD PTR [edx+12]
	mov	ecx, DWORD PTR [edx-20]
	xor	ecx, eax
	call	@__security_check_cookie@4
	mov	eax, OFFSET __ehfuncinfo$??1?$_String_val@DV?$allocator@D@std@@@std@@QAE@XZ
	jmp	___CxxFrameHandler3
text$x	ENDS
??1?$_String_val@DV?$allocator@D@std@@@std@@QAE@XZ ENDP	; std::_String_val<char,std::allocator<char> >::~_String_val<char,std::allocator<char> >
; Function compile flags: /Odtp /RTCsu
; File c:\program files (x86)\microsoft visual studio 10.0\vc\include\xmemory
;	COMDAT ??0?$allocator@D@std@@QAE@XZ
_TEXT	SEGMENT
_this$ = -4						; size = 4
??0?$allocator@D@std@@QAE@XZ PROC			; std::allocator<char>::allocator<char>, COMDAT
; _this$ = ecx

; 161  : 	_ALLOCATOR() _THROW0()

	push	ebp
	mov	ebp, esp
	push	ecx
	mov	DWORD PTR [ebp-4], -858993460		; ccccccccH
	mov	DWORD PTR _this$[ebp], ecx

; 162  : 		{	// construct default allocator (do nothing)
; 163  : 		}

	mov	eax, DWORD PTR _this$[ebp]
	mov	esp, ebp
	pop	ebp
	ret	0
??0?$allocator@D@std@@QAE@XZ ENDP			; std::allocator<char>::allocator<char>
; Function compile flags: /Odtp /RTCsu
_TEXT	ENDS
;	COMDAT ??0?$allocator@D@std@@QAE@ABV01@@Z
_TEXT	SEGMENT
_this$ = -4						; size = 4
___formal$ = 8						; size = 4
??0?$allocator@D@std@@QAE@ABV01@@Z PROC			; std::allocator<char>::allocator<char>, COMDAT
; _this$ = ecx

; 165  : 	_ALLOCATOR(const _ALLOCATOR<_Ty>&) _THROW0()

	push	ebp
	mov	ebp, esp
	push	ecx
	mov	DWORD PTR [ebp-4], -858993460		; ccccccccH
	mov	DWORD PTR _this$[ebp], ecx

; 166  : 		{	// construct by copying (do nothing)
; 167  : 		}

	mov	eax, DWORD PTR _this$[ebp]
	mov	esp, ebp
	pop	ebp
	ret	4
??0?$allocator@D@std@@QAE@ABV01@@Z ENDP			; std::allocator<char>::allocator<char>
_TEXT	ENDS
PUBLIC	?_Grow@?$basic_string@DU?$char_traits@D@std@@V?$allocator@D@2@@std@@QAE_NI_N@Z ; std::basic_string<char,std::char_traits<char>,std::allocator<char> >::_Grow
PUBLIC	?assign@?$basic_string@DU?$char_traits@D@std@@V?$allocator@D@2@@std@@QAEAAV12@ABV12@II@Z ; std::basic_string<char,std::char_traits<char>,std::allocator<char> >::assign
PUBLIC	?_Myptr@?$basic_string@DU?$char_traits@D@std@@V?$allocator@D@2@@std@@QAEPADXZ ; std::basic_string<char,std::char_traits<char>,std::allocator<char> >::_Myptr
PUBLIC	?_Inside@?$basic_string@DU?$char_traits@D@std@@V?$allocator@D@2@@std@@QAE_NPBD@Z ; std::basic_string<char,std::char_traits<char>,std::allocator<char> >::_Inside
; Function compile flags: /Odtp /RTCsu
; File c:\program files (x86)\microsoft visual studio 10.0\vc\include\xstring
;	COMDAT ?assign@?$basic_string@DU?$char_traits@D@std@@V?$allocator@D@2@@std@@QAEAAV12@PBDI@Z
_TEXT	SEGMENT
_this$ = -4						; size = 4
__Ptr$ = 8						; size = 4
__Count$ = 12						; size = 4
?assign@?$basic_string@DU?$char_traits@D@std@@V?$allocator@D@2@@std@@QAEAAV12@PBDI@Z PROC ; std::basic_string<char,std::char_traits<char>,std::allocator<char> >::assign, COMDAT
; _this$ = ecx

; 910  : 		{	// assign [_Ptr, _Ptr + _Count)

	push	ebp
	mov	ebp, esp
	push	ecx
	mov	DWORD PTR [ebp-4], -858993460		; ccccccccH
	mov	DWORD PTR _this$[ebp], ecx

; 911  :  #if _ITERATOR_DEBUG_LEVEL == 2
; 912  : 		if (_Count != 0)

	cmp	DWORD PTR __Count$[ebp], 0
	je	SHORT $LN3@assign

; 913  : 			_DEBUG_POINTER(_Ptr);

	push	913					; 00000391H
	push	OFFSET ??_C@_1IO@FJMIILFL@?$AAc?$AA?3?$AA?2?$AAP?$AAr?$AAo?$AAg?$AAr?$AAa?$AAm?$AA?5?$AAF?$AAi?$AAl?$AAe?$AAs?$AA?5?$AA?$CI?$AAx?$AA8?$AA6?$AA?$CJ?$AA?2?$AAM?$AAi?$AAc?$AAr?$AAo?$AAs?$AAo?$AAf?$AAt@
	mov	eax, DWORD PTR __Ptr$[ebp]
	push	eax
	call	??$_Debug_pointer@D@std@@YAXPBDPB_WI@Z	; std::_Debug_pointer<char>
	add	esp, 12					; 0000000cH
$LN3@assign:

; 914  :  #endif /* _ITERATOR_DEBUG_LEVEL == 2 */
; 915  : 
; 916  : 		if (_Inside(_Ptr))

	mov	ecx, DWORD PTR __Ptr$[ebp]
	push	ecx
	mov	ecx, DWORD PTR _this$[ebp]
	call	?_Inside@?$basic_string@DU?$char_traits@D@std@@V?$allocator@D@2@@std@@QAE_NPBD@Z ; std::basic_string<char,std::char_traits<char>,std::allocator<char> >::_Inside
	movzx	edx, al
	test	edx, edx
	je	SHORT $LN2@assign

; 917  : 			return (assign(*this, _Ptr - _Myptr(), _Count));	// substring

	mov	eax, DWORD PTR __Count$[ebp]
	push	eax
	mov	ecx, DWORD PTR _this$[ebp]
	call	?_Myptr@?$basic_string@DU?$char_traits@D@std@@V?$allocator@D@2@@std@@QAEPADXZ ; std::basic_string<char,std::char_traits<char>,std::allocator<char> >::_Myptr
	mov	ecx, DWORD PTR __Ptr$[ebp]
	sub	ecx, eax
	push	ecx
	mov	edx, DWORD PTR _this$[ebp]
	push	edx
	mov	ecx, DWORD PTR _this$[ebp]
	call	?assign@?$basic_string@DU?$char_traits@D@std@@V?$allocator@D@2@@std@@QAEAAV12@ABV12@II@Z ; std::basic_string<char,std::char_traits<char>,std::allocator<char> >::assign
	jmp	SHORT $LN4@assign
$LN2@assign:

; 918  : 
; 919  : 		if (_Grow(_Count))

	push	0
	mov	eax, DWORD PTR __Count$[ebp]
	push	eax
	mov	ecx, DWORD PTR _this$[ebp]
	call	?_Grow@?$basic_string@DU?$char_traits@D@std@@V?$allocator@D@2@@std@@QAE_NI_N@Z ; std::basic_string<char,std::char_traits<char>,std::allocator<char> >::_Grow
	movzx	ecx, al
	test	ecx, ecx
	je	SHORT $LN1@assign

; 920  : 			{	// make room and assign new stuff
; 921  : 			_Traits::copy(_Myptr(), _Ptr, _Count);

	mov	edx, DWORD PTR __Count$[ebp]
	push	edx
	mov	eax, DWORD PTR __Ptr$[ebp]
	push	eax
	mov	ecx, DWORD PTR _this$[ebp]
	call	?_Myptr@?$basic_string@DU?$char_traits@D@std@@V?$allocator@D@2@@std@@QAEPADXZ ; std::basic_string<char,std::char_traits<char>,std::allocator<char> >::_Myptr
	push	eax
	call	?copy@?$char_traits@D@std@@SAPADPADPBDI@Z ; std::char_traits<char>::copy
	add	esp, 12					; 0000000cH

; 922  : 			_Eos(_Count);

	mov	ecx, DWORD PTR __Count$[ebp]
	push	ecx
	mov	ecx, DWORD PTR _this$[ebp]
	call	?_Eos@?$basic_string@DU?$char_traits@D@std@@V?$allocator@D@2@@std@@QAEXI@Z ; std::basic_string<char,std::char_traits<char>,std::allocator<char> >::_Eos
$LN1@assign:

; 923  : 			}
; 924  : 		return (*this);

	mov	eax, DWORD PTR _this$[ebp]
$LN4@assign:

; 925  : 		}

	add	esp, 4
	cmp	ebp, esp
	call	__RTC_CheckEsp
	mov	esp, ebp
	pop	ebp
	ret	8
?assign@?$basic_string@DU?$char_traits@D@std@@V?$allocator@D@2@@std@@QAEAAV12@PBDI@Z ENDP ; std::basic_string<char,std::char_traits<char>,std::allocator<char> >::assign
_TEXT	ENDS
PUBLIC	?assign@?$char_traits@D@std@@SAXAADABD@Z	; std::char_traits<char>::assign
; Function compile flags: /Odtp /RTCsu
;	COMDAT ?_Eos@?$basic_string@DU?$char_traits@D@std@@V?$allocator@D@2@@std@@QAEXI@Z
_TEXT	SEGMENT
$T141543 = -5						; size = 1
_this$ = -4						; size = 4
__Newsize$ = 8						; size = 4
?_Eos@?$basic_string@DU?$char_traits@D@std@@V?$allocator@D@2@@std@@QAEXI@Z PROC ; std::basic_string<char,std::char_traits<char>,std::allocator<char> >::_Eos, COMDAT
; _this$ = ecx

; 1952 : 		{	// set new length and null terminator

	push	ebp
	mov	ebp, esp
	sub	esp, 8
	mov	DWORD PTR [ebp-8], -858993460		; ccccccccH
	mov	DWORD PTR [ebp-4], -858993460		; ccccccccH
	mov	DWORD PTR _this$[ebp], ecx

; 1953 : 		_Traits::assign(_Myptr()[this->_Mysize = _Newsize], _Elem());

	mov	BYTE PTR $T141543[ebp], 0
	mov	eax, DWORD PTR _this$[ebp]
	mov	ecx, DWORD PTR __Newsize$[ebp]
	mov	DWORD PTR [eax+20], ecx
	lea	edx, DWORD PTR $T141543[ebp]
	push	edx
	mov	ecx, DWORD PTR _this$[ebp]
	call	?_Myptr@?$basic_string@DU?$char_traits@D@std@@V?$allocator@D@2@@std@@QAEPADXZ ; std::basic_string<char,std::char_traits<char>,std::allocator<char> >::_Myptr
	add	eax, DWORD PTR __Newsize$[ebp]
	push	eax
	call	?assign@?$char_traits@D@std@@SAXAADABD@Z ; std::char_traits<char>::assign
	add	esp, 8

; 1954 : 		}

	add	esp, 8
	cmp	ebp, esp
	call	__RTC_CheckEsp
	mov	esp, ebp
	pop	ebp
	ret	4
?_Eos@?$basic_string@DU?$char_traits@D@std@@V?$allocator@D@2@@std@@QAEXI@Z ENDP ; std::basic_string<char,std::char_traits<char>,std::allocator<char> >::_Eos
; Function compile flags: /Odtp /RTCsu
; File c:\program files (x86)\microsoft visual studio 10.0\vc\include\iosfwd
_TEXT	ENDS
;	COMDAT ?assign@?$char_traits@D@std@@SAXAADABD@Z
_TEXT	SEGMENT
__Left$ = 8						; size = 4
__Right$ = 12						; size = 4
?assign@?$char_traits@D@std@@SAXAADABD@Z PROC		; std::char_traits<char>::assign, COMDAT

; 526  : 		{	// assign an element

	push	ebp
	mov	ebp, esp

; 527  : 		_Left = _Right;

	mov	eax, DWORD PTR __Left$[ebp]
	mov	ecx, DWORD PTR __Right$[ebp]
	mov	dl, BYTE PTR [ecx]
	mov	BYTE PTR [eax], dl

; 528  : 		}

	pop	ebp
	ret	0
?assign@?$char_traits@D@std@@SAXAADABD@Z ENDP		; std::char_traits<char>::assign
_TEXT	ENDS
PUBLIC	?_Copy@?$basic_string@DU?$char_traits@D@std@@V?$allocator@D@2@@std@@QAEXII@Z ; std::basic_string<char,std::char_traits<char>,std::allocator<char> >::_Copy
PUBLIC	?_Xlen@?$basic_string@DU?$char_traits@D@std@@V?$allocator@D@2@@std@@QBEXXZ ; std::basic_string<char,std::char_traits<char>,std::allocator<char> >::_Xlen
PUBLIC	?max_size@?$basic_string@DU?$char_traits@D@std@@V?$allocator@D@2@@std@@QBEIXZ ; std::basic_string<char,std::char_traits<char>,std::allocator<char> >::max_size
; Function compile flags: /Odtp /RTCsu
; File c:\program files (x86)\microsoft visual studio 10.0\vc\include\xstring
;	COMDAT ?_Grow@?$basic_string@DU?$char_traits@D@std@@V?$allocator@D@2@@std@@QAE_NI_N@Z
_TEXT	SEGMENT
tv129 = -8						; size = 4
_this$ = -4						; size = 4
__Newsize$ = 8						; size = 4
__Trim$ = 12						; size = 1
?_Grow@?$basic_string@DU?$char_traits@D@std@@V?$allocator@D@2@@std@@QAE_NI_N@Z PROC ; std::basic_string<char,std::char_traits<char>,std::allocator<char> >::_Grow, COMDAT
; _this$ = ecx

; 1958 : 		{	// ensure buffer is big enough, trim to size if _Trim is true

	push	ebp
	mov	ebp, esp
	sub	esp, 8
	mov	DWORD PTR [ebp-8], -858993460		; ccccccccH
	mov	DWORD PTR [ebp-4], -858993460		; ccccccccH
	mov	DWORD PTR _this$[ebp], ecx

; 1959 : 		if (max_size() < _Newsize)

	mov	ecx, DWORD PTR _this$[ebp]
	call	?max_size@?$basic_string@DU?$char_traits@D@std@@V?$allocator@D@2@@std@@QBEIXZ ; std::basic_string<char,std::char_traits<char>,std::allocator<char> >::max_size
	cmp	eax, DWORD PTR __Newsize$[ebp]
	jae	SHORT $LN6@Grow

; 1960 : 			_Xlen();	// result too long

	mov	ecx, DWORD PTR _this$[ebp]
	call	?_Xlen@?$basic_string@DU?$char_traits@D@std@@V?$allocator@D@2@@std@@QBEXXZ ; std::basic_string<char,std::char_traits<char>,std::allocator<char> >::_Xlen
$LN6@Grow:

; 1961 : 		if (this->_Myres < _Newsize)

	mov	eax, DWORD PTR _this$[ebp]
	mov	ecx, DWORD PTR [eax+24]
	cmp	ecx, DWORD PTR __Newsize$[ebp]
	jae	SHORT $LN5@Grow

; 1962 : 			_Copy(_Newsize, this->_Mysize);	// reallocate to grow

	mov	edx, DWORD PTR _this$[ebp]
	mov	eax, DWORD PTR [edx+20]
	push	eax
	mov	ecx, DWORD PTR __Newsize$[ebp]
	push	ecx
	mov	ecx, DWORD PTR _this$[ebp]
	call	?_Copy@?$basic_string@DU?$char_traits@D@std@@V?$allocator@D@2@@std@@QAEXII@Z ; std::basic_string<char,std::char_traits<char>,std::allocator<char> >::_Copy
	jmp	SHORT $LN4@Grow
$LN5@Grow:

; 1963 : 		else if (_Trim && _Newsize < this->_BUF_SIZE)

	movzx	edx, BYTE PTR __Trim$[ebp]
	test	edx, edx
	je	SHORT $LN3@Grow
	cmp	DWORD PTR __Newsize$[ebp], 16		; 00000010H
	jae	SHORT $LN3@Grow

; 1964 : 			_Tidy(true,	// copy and deallocate if trimming to small string
; 1965 : 				_Newsize < this->_Mysize ? _Newsize : this->_Mysize);

	mov	eax, DWORD PTR _this$[ebp]
	mov	ecx, DWORD PTR __Newsize$[ebp]
	cmp	ecx, DWORD PTR [eax+20]
	jae	SHORT $LN9@Grow
	mov	edx, DWORD PTR __Newsize$[ebp]
	mov	DWORD PTR tv129[ebp], edx
	jmp	SHORT $LN10@Grow
$LN9@Grow:
	mov	eax, DWORD PTR _this$[ebp]
	mov	ecx, DWORD PTR [eax+20]
	mov	DWORD PTR tv129[ebp], ecx
$LN10@Grow:
	mov	edx, DWORD PTR tv129[ebp]
	push	edx
	push	1
	mov	ecx, DWORD PTR _this$[ebp]
	call	?_Tidy@?$basic_string@DU?$char_traits@D@std@@V?$allocator@D@2@@std@@QAEX_NI@Z ; std::basic_string<char,std::char_traits<char>,std::allocator<char> >::_Tidy
	jmp	SHORT $LN4@Grow
$LN3@Grow:

; 1966 : 		else if (_Newsize == 0)

	cmp	DWORD PTR __Newsize$[ebp], 0
	jne	SHORT $LN4@Grow

; 1967 : 			_Eos(0);	// new size is zero, just null terminate

	push	0
	mov	ecx, DWORD PTR _this$[ebp]
	call	?_Eos@?$basic_string@DU?$char_traits@D@std@@V?$allocator@D@2@@std@@QAEXI@Z ; std::basic_string<char,std::char_traits<char>,std::allocator<char> >::_Eos
$LN4@Grow:

; 1968 : 		return (0 < _Newsize);	// return true only if more work to do

	xor	eax, eax
	cmp	eax, DWORD PTR __Newsize$[ebp]
	sbb	eax, eax
	neg	eax
$LN8@Grow:

; 1969 : 		}

	add	esp, 8
	cmp	ebp, esp
	call	__RTC_CheckEsp
	mov	esp, ebp
	pop	ebp
	ret	8
?_Grow@?$basic_string@DU?$char_traits@D@std@@V?$allocator@D@2@@std@@QAE_NI_N@Z ENDP ; std::basic_string<char,std::char_traits<char>,std::allocator<char> >::_Grow
; Function compile flags: /Odtp /RTCsu
_TEXT	ENDS
;	COMDAT ?_Myptr@?$basic_string@DU?$char_traits@D@std@@V?$allocator@D@2@@std@@QAEPADXZ
_TEXT	SEGMENT
tv82 = -8						; size = 4
_this$ = -4						; size = 4
?_Myptr@?$basic_string@DU?$char_traits@D@std@@V?$allocator@D@2@@std@@QAEPADXZ PROC ; std::basic_string<char,std::char_traits<char>,std::allocator<char> >::_Myptr, COMDAT
; _this$ = ecx

; 2002 : 		{	// determine current pointer to buffer for mutable string

	push	ebp
	mov	ebp, esp
	sub	esp, 8
	mov	DWORD PTR [ebp-8], -858993460		; ccccccccH
	mov	DWORD PTR [ebp-4], -858993460		; ccccccccH
	mov	DWORD PTR _this$[ebp], ecx

; 2003 : 		return (this->_BUF_SIZE <= this->_Myres ? this->_Bx._Ptr
; 2004 : 			: this->_Bx._Buf);

	mov	eax, DWORD PTR _this$[ebp]
	cmp	DWORD PTR [eax+24], 16			; 00000010H
	jb	SHORT $LN3@Myptr@2
	mov	ecx, DWORD PTR _this$[ebp]
	mov	edx, DWORD PTR [ecx+4]
	mov	DWORD PTR tv82[ebp], edx
	jmp	SHORT $LN4@Myptr@2
$LN3@Myptr@2:
	mov	eax, DWORD PTR _this$[ebp]
	add	eax, 4
	mov	DWORD PTR tv82[ebp], eax
$LN4@Myptr@2:
	mov	eax, DWORD PTR tv82[ebp]

; 2005 : 		}

	mov	esp, ebp
	pop	ebp
	ret	0
?_Myptr@?$basic_string@DU?$char_traits@D@std@@V?$allocator@D@2@@std@@QAEPADXZ ENDP ; std::basic_string<char,std::char_traits<char>,std::allocator<char> >::_Myptr
_TEXT	ENDS
PUBLIC	??_C@_0BA@JFNIOLAK@string?5too?5long?$AA@	; `string'
EXTRN	?_Xlength_error@std@@YAXPBD@Z:PROC		; std::_Xlength_error
;	COMDAT ??_C@_0BA@JFNIOLAK@string?5too?5long?$AA@
CONST	SEGMENT
??_C@_0BA@JFNIOLAK@string?5too?5long?$AA@ DB 'string too long', 00H ; `string'
; Function compile flags: /Odtp /RTCsu
CONST	ENDS
;	COMDAT ?_Xlen@?$basic_string@DU?$char_traits@D@std@@V?$allocator@D@2@@std@@QBEXXZ
_TEXT	SEGMENT
_this$ = -4						; size = 4
?_Xlen@?$basic_string@DU?$char_traits@D@std@@V?$allocator@D@2@@std@@QBEXXZ PROC ; std::basic_string<char,std::char_traits<char>,std::allocator<char> >::_Xlen, COMDAT
; _this$ = ecx

; 2014 : 		{	// report a length_error

	push	ebp
	mov	ebp, esp
	push	ecx
	mov	DWORD PTR [ebp-4], -858993460		; ccccccccH
	mov	DWORD PTR _this$[ebp], ecx

; 2015 : 		_Xlength_error("string too long");

	push	OFFSET ??_C@_0BA@JFNIOLAK@string?5too?5long?$AA@
	call	?_Xlength_error@std@@YAXPBD@Z		; std::_Xlength_error
$LN2@Xlen:

; 2016 : 		}

	add	esp, 4
	cmp	ebp, esp
	call	__RTC_CheckEsp
	mov	esp, ebp
	pop	ebp
	ret	0
?_Xlen@?$basic_string@DU?$char_traits@D@std@@V?$allocator@D@2@@std@@QBEXXZ ENDP ; std::basic_string<char,std::char_traits<char>,std::allocator<char> >::_Xlen
; Function compile flags: /Odtp /RTCsu
; File c:\program files (x86)\microsoft visual studio 10.0\vc\include\xmemory
_TEXT	ENDS
;	COMDAT ?deallocate@?$allocator@D@std@@QAEXPADI@Z
_TEXT	SEGMENT
_this$ = -4						; size = 4
__Ptr$ = 8						; size = 4
___formal$ = 12						; size = 4
?deallocate@?$allocator@D@std@@QAEXPADI@Z PROC		; std::allocator<char>::deallocate, COMDAT
; _this$ = ecx

; 181  : 		{	// deallocate object at _Ptr, ignore size

	push	ebp
	mov	ebp, esp
	push	ecx
	mov	DWORD PTR [ebp-4], -858993460		; ccccccccH
	mov	DWORD PTR _this$[ebp], ecx

; 182  : 		::operator delete(_Ptr);

	mov	eax, DWORD PTR __Ptr$[ebp]
	push	eax
	call	??3@YAXPAX@Z				; operator delete
	add	esp, 4

; 183  : 		}

	add	esp, 4
	cmp	ebp, esp
	call	__RTC_CheckEsp
	mov	esp, ebp
	pop	ebp
	ret	8
?deallocate@?$allocator@D@std@@QAEXPADI@Z ENDP		; std::allocator<char>::deallocate
; Function compile flags: /Odtp /RTCsu
_TEXT	ENDS
;	COMDAT ?deallocate@?$allocator@U_Container_proxy@std@@@std@@QAEXPAU_Container_proxy@2@I@Z
_TEXT	SEGMENT
_this$ = -4						; size = 4
__Ptr$ = 8						; size = 4
___formal$ = 12						; size = 4
?deallocate@?$allocator@U_Container_proxy@std@@@std@@QAEXPAU_Container_proxy@2@I@Z PROC ; std::allocator<std::_Container_proxy>::deallocate, COMDAT
; _this$ = ecx

; 181  : 		{	// deallocate object at _Ptr, ignore size

	push	ebp
	mov	ebp, esp
	push	ecx
	mov	DWORD PTR [ebp-4], -858993460		; ccccccccH
	mov	DWORD PTR _this$[ebp], ecx

; 182  : 		::operator delete(_Ptr);

	mov	eax, DWORD PTR __Ptr$[ebp]
	push	eax
	call	??3@YAXPAX@Z				; operator delete
	add	esp, 4

; 183  : 		}

	add	esp, 4
	cmp	ebp, esp
	call	__RTC_CheckEsp
	mov	esp, ebp
	pop	ebp
	ret	8
?deallocate@?$allocator@U_Container_proxy@std@@@std@@QAEXPAU_Container_proxy@2@I@Z ENDP ; std::allocator<std::_Container_proxy>::deallocate
_TEXT	ENDS
PUBLIC	??$_Allocate@U_Container_proxy@std@@@std@@YAPAU_Container_proxy@0@IPAU10@@Z ; std::_Allocate<std::_Container_proxy>
; Function compile flags: /Odtp /RTCsu
;	COMDAT ?allocate@?$allocator@U_Container_proxy@std@@@std@@QAEPAU_Container_proxy@2@I@Z
_TEXT	SEGMENT
_this$ = -4						; size = 4
__Count$ = 8						; size = 4
?allocate@?$allocator@U_Container_proxy@std@@@std@@QAEPAU_Container_proxy@2@I@Z PROC ; std::allocator<std::_Container_proxy>::allocate, COMDAT
; _this$ = ecx

; 186  : 		{	// allocate array of _Count elements

	push	ebp
	mov	ebp, esp
	push	ecx
	mov	DWORD PTR [ebp-4], -858993460		; ccccccccH
	mov	DWORD PTR _this$[ebp], ecx

; 187  : 		return (_Allocate(_Count, (pointer)0));

	push	0
	mov	eax, DWORD PTR __Count$[ebp]
	push	eax
	call	??$_Allocate@U_Container_proxy@std@@@std@@YAPAU_Container_proxy@0@IPAU10@@Z ; std::_Allocate<std::_Container_proxy>
	add	esp, 8

; 188  : 		}

	add	esp, 4
	cmp	ebp, esp
	call	__RTC_CheckEsp
	mov	esp, ebp
	pop	ebp
	ret	4
?allocate@?$allocator@U_Container_proxy@std@@@std@@QAEPAU_Container_proxy@2@I@Z ENDP ; std::allocator<std::_Container_proxy>::allocate
_TEXT	ENDS
PUBLIC	?erase@?$basic_string@DU?$char_traits@D@std@@V?$allocator@D@2@@std@@QAEAAV12@II@Z ; std::basic_string<char,std::char_traits<char>,std::allocator<char> >::erase
PUBLIC	?npos@?$basic_string@DU?$char_traits@D@std@@V?$allocator@D@2@@std@@2IB ; std::basic_string<char,std::char_traits<char>,std::allocator<char> >::npos
PUBLIC	?_Xran@?$basic_string@DU?$char_traits@D@std@@V?$allocator@D@2@@std@@QBEXXZ ; std::basic_string<char,std::char_traits<char>,std::allocator<char> >::_Xran
PUBLIC	?size@?$basic_string@DU?$char_traits@D@std@@V?$allocator@D@2@@std@@QBEIXZ ; std::basic_string<char,std::char_traits<char>,std::allocator<char> >::size
;	COMDAT ?npos@?$basic_string@DU?$char_traits@D@std@@V?$allocator@D@2@@std@@2IB
; File c:\program files (x86)\microsoft visual studio 10.0\vc\include\xstring
CONST	SEGMENT
?npos@?$basic_string@DU?$char_traits@D@std@@V?$allocator@D@2@@std@@2IB DD 0ffffffffH ; std::basic_string<char,std::char_traits<char>,std::allocator<char> >::npos
; Function compile flags: /Odtp /RTCsu
CONST	ENDS
;	COMDAT ?assign@?$basic_string@DU?$char_traits@D@std@@V?$allocator@D@2@@std@@QAEAAV12@ABV12@II@Z
_TEXT	SEGMENT
__Num$ = -8						; size = 4
_this$ = -4						; size = 4
__Right$ = 8						; size = 4
__Roff$ = 12						; size = 4
__Count$ = 16						; size = 4
?assign@?$basic_string@DU?$char_traits@D@std@@V?$allocator@D@2@@std@@QAEAAV12@ABV12@II@Z PROC ; std::basic_string<char,std::char_traits<char>,std::allocator<char> >::assign, COMDAT
; _this$ = ecx

; 892  : 		{	// assign _Right [_Roff, _Roff + _Count)

	push	ebp
	mov	ebp, esp
	sub	esp, 8
	mov	DWORD PTR [ebp-8], -858993460		; ccccccccH
	mov	DWORD PTR [ebp-4], -858993460		; ccccccccH
	mov	DWORD PTR _this$[ebp], ecx

; 893  : 		if (_Right.size() < _Roff)

	mov	ecx, DWORD PTR __Right$[ebp]
	call	?size@?$basic_string@DU?$char_traits@D@std@@V?$allocator@D@2@@std@@QBEIXZ ; std::basic_string<char,std::char_traits<char>,std::allocator<char> >::size
	cmp	eax, DWORD PTR __Roff$[ebp]
	jae	SHORT $LN5@assign@2

; 894  : 			_Xran();	// _Roff off end

	mov	ecx, DWORD PTR _this$[ebp]
	call	?_Xran@?$basic_string@DU?$char_traits@D@std@@V?$allocator@D@2@@std@@QBEXXZ ; std::basic_string<char,std::char_traits<char>,std::allocator<char> >::_Xran
$LN5@assign@2:

; 895  : 		size_type _Num = _Right.size() - _Roff;

	mov	ecx, DWORD PTR __Right$[ebp]
	call	?size@?$basic_string@DU?$char_traits@D@std@@V?$allocator@D@2@@std@@QBEIXZ ; std::basic_string<char,std::char_traits<char>,std::allocator<char> >::size
	sub	eax, DWORD PTR __Roff$[ebp]
	mov	DWORD PTR __Num$[ebp], eax

; 896  : 		if (_Count < _Num)

	mov	eax, DWORD PTR __Count$[ebp]
	cmp	eax, DWORD PTR __Num$[ebp]
	jae	SHORT $LN4@assign@2

; 897  : 			_Num = _Count;	// trim _Num to size

	mov	ecx, DWORD PTR __Count$[ebp]
	mov	DWORD PTR __Num$[ebp], ecx
$LN4@assign@2:

; 898  : 
; 899  : 		if (this == &_Right)

	mov	edx, DWORD PTR _this$[ebp]
	cmp	edx, DWORD PTR __Right$[ebp]
	jne	SHORT $LN3@assign@2

; 900  : 			erase((size_type)(_Roff + _Num)), erase(0, _Roff);	// substring

	mov	eax, DWORD PTR ?npos@?$basic_string@DU?$char_traits@D@std@@V?$allocator@D@2@@std@@2IB ; std::basic_string<char,std::char_traits<char>,std::allocator<char> >::npos
	push	eax
	mov	ecx, DWORD PTR __Roff$[ebp]
	add	ecx, DWORD PTR __Num$[ebp]
	push	ecx
	mov	ecx, DWORD PTR _this$[ebp]
	call	?erase@?$basic_string@DU?$char_traits@D@std@@V?$allocator@D@2@@std@@QAEAAV12@II@Z ; std::basic_string<char,std::char_traits<char>,std::allocator<char> >::erase
	mov	edx, DWORD PTR __Roff$[ebp]
	push	edx
	push	0
	mov	ecx, DWORD PTR _this$[ebp]
	call	?erase@?$basic_string@DU?$char_traits@D@std@@V?$allocator@D@2@@std@@QAEAAV12@II@Z ; std::basic_string<char,std::char_traits<char>,std::allocator<char> >::erase
	jmp	SHORT $LN2@assign@2
$LN3@assign@2:

; 901  : 		else if (_Grow(_Num))

	push	0
	mov	eax, DWORD PTR __Num$[ebp]
	push	eax
	mov	ecx, DWORD PTR _this$[ebp]
	call	?_Grow@?$basic_string@DU?$char_traits@D@std@@V?$allocator@D@2@@std@@QAE_NI_N@Z ; std::basic_string<char,std::char_traits<char>,std::allocator<char> >::_Grow
	movzx	ecx, al
	test	ecx, ecx
	je	SHORT $LN2@assign@2

; 902  : 			{	// make room and assign new stuff
; 903  : 			_Traits::copy(_Myptr(), _Right._Myptr() + _Roff, _Num);

	mov	edx, DWORD PTR __Num$[ebp]
	push	edx
	mov	ecx, DWORD PTR __Right$[ebp]
	call	?_Myptr@?$basic_string@DU?$char_traits@D@std@@V?$allocator@D@2@@std@@QBEPBDXZ ; std::basic_string<char,std::char_traits<char>,std::allocator<char> >::_Myptr
	add	eax, DWORD PTR __Roff$[ebp]
	push	eax
	mov	ecx, DWORD PTR _this$[ebp]
	call	?_Myptr@?$basic_string@DU?$char_traits@D@std@@V?$allocator@D@2@@std@@QAEPADXZ ; std::basic_string<char,std::char_traits<char>,std::allocator<char> >::_Myptr
	push	eax
	call	?copy@?$char_traits@D@std@@SAPADPADPBDI@Z ; std::char_traits<char>::copy
	add	esp, 12					; 0000000cH

; 904  : 			_Eos(_Num);

	mov	eax, DWORD PTR __Num$[ebp]
	push	eax
	mov	ecx, DWORD PTR _this$[ebp]
	call	?_Eos@?$basic_string@DU?$char_traits@D@std@@V?$allocator@D@2@@std@@QAEXI@Z ; std::basic_string<char,std::char_traits<char>,std::allocator<char> >::_Eos
$LN2@assign@2:

; 905  : 			}
; 906  : 		return (*this);

	mov	eax, DWORD PTR _this$[ebp]
$LN7@assign@2:

; 907  : 		}

	add	esp, 8
	cmp	ebp, esp
	call	__RTC_CheckEsp
	mov	esp, ebp
	pop	ebp
	ret	12					; 0000000cH
?assign@?$basic_string@DU?$char_traits@D@std@@V?$allocator@D@2@@std@@QAEAAV12@ABV12@II@Z ENDP ; std::basic_string<char,std::char_traits<char>,std::allocator<char> >::assign
; Function compile flags: /Odtp /RTCsu
_TEXT	ENDS
;	COMDAT ?size@?$basic_string@DU?$char_traits@D@std@@V?$allocator@D@2@@std@@QBEIXZ
_TEXT	SEGMENT
_this$ = -4						; size = 4
?size@?$basic_string@DU?$char_traits@D@std@@V?$allocator@D@2@@std@@QBEIXZ PROC ; std::basic_string<char,std::char_traits<char>,std::allocator<char> >::size, COMDAT
; _this$ = ecx

; 1510 : 		{	// return length of sequence

	push	ebp
	mov	ebp, esp
	push	ecx
	mov	DWORD PTR [ebp-4], -858993460		; ccccccccH
	mov	DWORD PTR _this$[ebp], ecx

; 1511 : 		return (this->_Mysize);

	mov	eax, DWORD PTR _this$[ebp]
	mov	eax, DWORD PTR [eax+20]

; 1512 : 		}

	mov	esp, ebp
	pop	ebp
	ret	0
?size@?$basic_string@DU?$char_traits@D@std@@V?$allocator@D@2@@std@@QBEIXZ ENDP ; std::basic_string<char,std::char_traits<char>,std::allocator<char> >::size
_TEXT	ENDS
PUBLIC	?move@?$char_traits@D@std@@SAPADPADPBDI@Z	; std::char_traits<char>::move
; Function compile flags: /Odtp /RTCsu
;	COMDAT ?erase@?$basic_string@DU?$char_traits@D@std@@V?$allocator@D@2@@std@@QAEAAV12@II@Z
_TEXT	SEGMENT
__Newsize$134028 = -8					; size = 4
_this$ = -4						; size = 4
__Off$ = 8						; size = 4
__Count$ = 12						; size = 4
?erase@?$basic_string@DU?$char_traits@D@std@@V?$allocator@D@2@@std@@QAEAAV12@II@Z PROC ; std::basic_string<char,std::char_traits<char>,std::allocator<char> >::erase, COMDAT
; _this$ = ecx

; 1108 : 		{	// erase elements [_Off, _Off + _Count)

	push	ebp
	mov	ebp, esp
	sub	esp, 8
	mov	DWORD PTR [ebp-8], -858993460		; ccccccccH
	mov	DWORD PTR [ebp-4], -858993460		; ccccccccH
	mov	DWORD PTR _this$[ebp], ecx

; 1109 : 		if (this->_Mysize < _Off)

	mov	eax, DWORD PTR _this$[ebp]
	mov	ecx, DWORD PTR [eax+20]
	cmp	ecx, DWORD PTR __Off$[ebp]
	jae	SHORT $LN3@erase

; 1110 : 			_Xran();	// _Off off end

	mov	ecx, DWORD PTR _this$[ebp]
	call	?_Xran@?$basic_string@DU?$char_traits@D@std@@V?$allocator@D@2@@std@@QBEXXZ ; std::basic_string<char,std::char_traits<char>,std::allocator<char> >::_Xran
$LN3@erase:

; 1111 : 		if (this->_Mysize - _Off < _Count)

	mov	edx, DWORD PTR _this$[ebp]
	mov	eax, DWORD PTR [edx+20]
	sub	eax, DWORD PTR __Off$[ebp]
	cmp	eax, DWORD PTR __Count$[ebp]
	jae	SHORT $LN2@erase

; 1112 : 			_Count = this->_Mysize - _Off;	// trim _Count

	mov	ecx, DWORD PTR _this$[ebp]
	mov	edx, DWORD PTR [ecx+20]
	sub	edx, DWORD PTR __Off$[ebp]
	mov	DWORD PTR __Count$[ebp], edx
$LN2@erase:

; 1113 : 		if (0 < _Count)

	cmp	DWORD PTR __Count$[ebp], 0
	jbe	SHORT $LN1@erase

; 1114 : 			{	// move elements down
; 1115 : 			_Traits::move(_Myptr() + _Off, _Myptr() + _Off + _Count,
; 1116 : 				this->_Mysize - _Off - _Count);

	mov	eax, DWORD PTR _this$[ebp]
	mov	ecx, DWORD PTR [eax+20]
	sub	ecx, DWORD PTR __Off$[ebp]
	sub	ecx, DWORD PTR __Count$[ebp]
	push	ecx
	mov	ecx, DWORD PTR _this$[ebp]
	call	?_Myptr@?$basic_string@DU?$char_traits@D@std@@V?$allocator@D@2@@std@@QAEPADXZ ; std::basic_string<char,std::char_traits<char>,std::allocator<char> >::_Myptr
	add	eax, DWORD PTR __Off$[ebp]
	add	eax, DWORD PTR __Count$[ebp]
	push	eax
	mov	ecx, DWORD PTR _this$[ebp]
	call	?_Myptr@?$basic_string@DU?$char_traits@D@std@@V?$allocator@D@2@@std@@QAEPADXZ ; std::basic_string<char,std::char_traits<char>,std::allocator<char> >::_Myptr
	add	eax, DWORD PTR __Off$[ebp]
	push	eax
	call	?move@?$char_traits@D@std@@SAPADPADPBDI@Z ; std::char_traits<char>::move
	add	esp, 12					; 0000000cH

; 1117 : 			size_type _Newsize = this->_Mysize - _Count;

	mov	edx, DWORD PTR _this$[ebp]
	mov	eax, DWORD PTR [edx+20]
	sub	eax, DWORD PTR __Count$[ebp]
	mov	DWORD PTR __Newsize$134028[ebp], eax

; 1118 : 			_Eos(_Newsize);

	mov	ecx, DWORD PTR __Newsize$134028[ebp]
	push	ecx
	mov	ecx, DWORD PTR _this$[ebp]
	call	?_Eos@?$basic_string@DU?$char_traits@D@std@@V?$allocator@D@2@@std@@QAEXI@Z ; std::basic_string<char,std::char_traits<char>,std::allocator<char> >::_Eos
$LN1@erase:

; 1119 : 			}
; 1120 : 		return (*this);

	mov	eax, DWORD PTR _this$[ebp]
$LN5@erase:

; 1121 : 		}

	add	esp, 8
	cmp	ebp, esp
	call	__RTC_CheckEsp
	mov	esp, ebp
	pop	ebp
	ret	8
?erase@?$basic_string@DU?$char_traits@D@std@@V?$allocator@D@2@@std@@QAEAAV12@II@Z ENDP ; std::basic_string<char,std::char_traits<char>,std::allocator<char> >::erase
_TEXT	ENDS
EXTRN	_memmove:PROC
; Function compile flags: /Odtp /RTCsu
; File c:\program files (x86)\microsoft visual studio 10.0\vc\include\iosfwd
;	COMDAT ?move@?$char_traits@D@std@@SAPADPADPBDI@Z
_TEXT	SEGMENT
__First1$ = 8						; size = 4
__First2$ = 12						; size = 4
__Count$ = 16						; size = 4
?move@?$char_traits@D@std@@SAPADPADPBDI@Z PROC		; std::char_traits<char>::move, COMDAT

; 516  : 		{	// copy [_First1, _First1 + _Count) to [_First2, ...)

	push	ebp
	mov	ebp, esp

; 517  : 		return ((_Elem *)_CSTD memmove(_First1, _First2, _Count));

	mov	eax, DWORD PTR __Count$[ebp]
	push	eax
	mov	ecx, DWORD PTR __First2$[ebp]
	push	ecx
	mov	edx, DWORD PTR __First1$[ebp]
	push	edx
	call	_memmove
	add	esp, 12					; 0000000cH

; 518  : 		}

	cmp	ebp, esp
	call	__RTC_CheckEsp
	pop	ebp
	ret	0
?move@?$char_traits@D@std@@SAPADPADPBDI@Z ENDP		; std::char_traits<char>::move
_TEXT	ENDS
PUBLIC	??_C@_0BI@CFPLBAOH@invalid?5string?5position?$AA@ ; `string'
EXTRN	?_Xout_of_range@std@@YAXPBD@Z:PROC		; std::_Xout_of_range
;	COMDAT ??_C@_0BI@CFPLBAOH@invalid?5string?5position?$AA@
; File c:\program files (x86)\microsoft visual studio 10.0\vc\include\xstring
CONST	SEGMENT
??_C@_0BI@CFPLBAOH@invalid?5string?5position?$AA@ DB 'invalid string posi'
	DB	'tion', 00H					; `string'
; Function compile flags: /Odtp /RTCsu
CONST	ENDS
;	COMDAT ?_Xran@?$basic_string@DU?$char_traits@D@std@@V?$allocator@D@2@@std@@QBEXXZ
_TEXT	SEGMENT
_this$ = -4						; size = 4
?_Xran@?$basic_string@DU?$char_traits@D@std@@V?$allocator@D@2@@std@@QBEXXZ PROC ; std::basic_string<char,std::char_traits<char>,std::allocator<char> >::_Xran, COMDAT
; _this$ = ecx

; 2019 : 		{	// report an out_of_range error

	push	ebp
	mov	ebp, esp
	push	ecx
	mov	DWORD PTR [ebp-4], -858993460		; ccccccccH
	mov	DWORD PTR _this$[ebp], ecx

; 2020 : 		_Xout_of_range("invalid string position");

	push	OFFSET ??_C@_0BI@CFPLBAOH@invalid?5string?5position?$AA@
	call	?_Xout_of_range@std@@YAXPBD@Z		; std::_Xout_of_range
$LN2@Xran:

; 2021 : 		}

	add	esp, 4
	cmp	ebp, esp
	call	__RTC_CheckEsp
	mov	esp, ebp
	pop	ebp
	ret	0
?_Xran@?$basic_string@DU?$char_traits@D@std@@V?$allocator@D@2@@std@@QBEXXZ ENDP ; std::basic_string<char,std::char_traits<char>,std::allocator<char> >::_Xran
_TEXT	ENDS
PUBLIC	?max_size@?$allocator@D@std@@QBEIXZ		; std::allocator<char>::max_size
; Function compile flags: /Odtp /RTCsu
;	COMDAT ?max_size@?$basic_string@DU?$char_traits@D@std@@V?$allocator@D@2@@std@@QBEIXZ
_TEXT	SEGMENT
tv73 = -12						; size = 4
__Num$ = -8						; size = 4
_this$ = -4						; size = 4
?max_size@?$basic_string@DU?$char_traits@D@std@@V?$allocator@D@2@@std@@QBEIXZ PROC ; std::basic_string<char,std::char_traits<char>,std::allocator<char> >::max_size, COMDAT
; _this$ = ecx

; 1515 : 		{	// return maximum possible length of sequence

	push	ebp
	mov	ebp, esp
	sub	esp, 12					; 0000000cH
	mov	DWORD PTR [ebp-12], -858993460		; ccccccccH
	mov	DWORD PTR [ebp-8], -858993460		; ccccccccH
	mov	DWORD PTR [ebp-4], -858993460		; ccccccccH
	mov	DWORD PTR _this$[ebp], ecx

; 1516 : 		size_type _Num = this->_Alval.max_size();

	mov	ecx, DWORD PTR _this$[ebp]
	add	ecx, 28					; 0000001cH
	call	?max_size@?$allocator@D@std@@QBEIXZ	; std::allocator<char>::max_size
	mov	DWORD PTR __Num$[ebp], eax

; 1517 : 		return (_Num <= 1 ? 1 : _Num - 1);

	cmp	DWORD PTR __Num$[ebp], 1
	ja	SHORT $LN3@max_size
	mov	DWORD PTR tv73[ebp], 1
	jmp	SHORT $LN4@max_size
$LN3@max_size:
	mov	eax, DWORD PTR __Num$[ebp]
	sub	eax, 1
	mov	DWORD PTR tv73[ebp], eax
$LN4@max_size:
	mov	eax, DWORD PTR tv73[ebp]

; 1518 : 		}

	add	esp, 12					; 0000000cH
	cmp	ebp, esp
	call	__RTC_CheckEsp
	mov	esp, ebp
	pop	ebp
	ret	0
?max_size@?$basic_string@DU?$char_traits@D@std@@V?$allocator@D@2@@std@@QBEIXZ ENDP ; std::basic_string<char,std::char_traits<char>,std::allocator<char> >::max_size
_TEXT	ENDS
PUBLIC	?allocate@?$allocator@D@std@@QAEPADI@Z		; std::allocator<char>::allocate
;	COMDAT xdata$x
xdata$x	SEGMENT
__catchsym$?_Copy@?$basic_string@DU?$char_traits@D@std@@V?$allocator@D@2@@std@@QAEXII@Z$5 DD 040H
	DD	00H
	DD	00H
	DD	FLAT:__catch$?_Copy@?$basic_string@DU?$char_traits@D@std@@V?$allocator@D@2@@std@@QAEXII@Z$0
__catchsym$?_Copy@?$basic_string@DU?$char_traits@D@std@@V?$allocator@D@2@@std@@QAEXII@Z$4 DD 040H
	DD	00H
	DD	00H
	DD	FLAT:__catch$?_Copy@?$basic_string@DU?$char_traits@D@std@@V?$allocator@D@2@@std@@QAEXII@Z$1
__unwindtable$?_Copy@?$basic_string@DU?$char_traits@D@std@@V?$allocator@D@2@@std@@QAEXII@Z DD 0ffffffffH
	DD	00H
	DD	0ffffffffH
	DD	00H
	DD	01H
	DD	00H
	DD	01H
	DD	00H
__ehfuncinfo$?_Copy@?$basic_string@DU?$char_traits@D@std@@V?$allocator@D@2@@std@@QAEXII@Z DD 019930522H
	DD	04H
	DD	FLAT:__unwindtable$?_Copy@?$basic_string@DU?$char_traits@D@std@@V?$allocator@D@2@@std@@QAEXII@Z
	DD	02H
	DD	FLAT:__tryblocktable$?_Copy@?$basic_string@DU?$char_traits@D@std@@V?$allocator@D@2@@std@@QAEXII@Z
	DD	2 DUP(00H)
	DD	00H
	DD	01H
__tryblocktable$?_Copy@?$basic_string@DU?$char_traits@D@std@@V?$allocator@D@2@@std@@QAEXII@Z DD 02H
	DD	02H
	DD	03H
	DD	01H
	DD	FLAT:__catchsym$?_Copy@?$basic_string@DU?$char_traits@D@std@@V?$allocator@D@2@@std@@QAEXII@Z$4
	DD	00H
	DD	00H
	DD	03H
	DD	01H
	DD	FLAT:__catchsym$?_Copy@?$basic_string@DU?$char_traits@D@std@@V?$allocator@D@2@@std@@QAEXII@Z$5
; Function compile flags: /Odtp /RTCsu
xdata$x	ENDS
;	COMDAT ?_Copy@?$basic_string@DU?$char_traits@D@std@@V?$allocator@D@2@@std@@QAEXII@Z
_TEXT	SEGMENT
tv185 = -36						; size = 4
tv184 = -32						; size = 4
__Ptr$ = -28						; size = 4
__Newres$ = -24						; size = 4
_this$ = -20						; size = 4
__$EHRec$ = -16						; size = 16
__Newsize$ = 8						; size = 4
__Oldlen$ = 12						; size = 4
?_Copy@?$basic_string@DU?$char_traits@D@std@@V?$allocator@D@2@@std@@QAEXII@Z PROC ; std::basic_string<char,std::char_traits<char>,std::allocator<char> >::_Copy, COMDAT
; _this$ = ecx

; 1918 : 		{	// copy _Oldlen elements to newly allocated buffer

	push	ebp
	mov	ebp, esp
	push	-1
	push	__ehhandler$?_Copy@?$basic_string@DU?$char_traits@D@std@@V?$allocator@D@2@@std@@QAEXII@Z
	mov	eax, DWORD PTR fs:0
	push	eax
	push	ecx
	sub	esp, 20					; 00000014H
	push	ebx
	push	esi
	push	edi
	mov	eax, -858993460				; ccccccccH
	mov	DWORD PTR [ebp-36], eax
	mov	DWORD PTR [ebp-32], eax
	mov	DWORD PTR [ebp-28], eax
	mov	DWORD PTR [ebp-24], eax
	mov	DWORD PTR [ebp-20], eax
	mov	eax, DWORD PTR ___security_cookie
	xor	eax, ebp
	push	eax
	lea	eax, DWORD PTR __$EHRec$[ebp+4]
	mov	DWORD PTR fs:0, eax
	mov	DWORD PTR __$EHRec$[ebp], esp
	mov	DWORD PTR _this$[ebp], ecx

; 1919 : 		size_type _Newres = _Newsize | this->_ALLOC_MASK;

	mov	eax, DWORD PTR __Newsize$[ebp]
	or	eax, 15					; 0000000fH
	mov	DWORD PTR __Newres$[ebp], eax

; 1920 : 		if (max_size() < _Newres)

	mov	ecx, DWORD PTR _this$[ebp]
	call	?max_size@?$basic_string@DU?$char_traits@D@std@@V?$allocator@D@2@@std@@QBEIXZ ; std::basic_string<char,std::char_traits<char>,std::allocator<char> >::max_size
	cmp	eax, DWORD PTR __Newres$[ebp]
	jae	SHORT $LN9@Copy

; 1921 : 			_Newres = _Newsize;	// undo roundup if too big

	mov	ecx, DWORD PTR __Newsize$[ebp]
	mov	DWORD PTR __Newres$[ebp], ecx
	jmp	SHORT $LN8@Copy
$LN9@Copy:

; 1922 : 		else if (this->_Myres / 2 <= _Newres / 3)

	mov	eax, DWORD PTR __Newres$[ebp]
	xor	edx, edx
	mov	ecx, 3
	div	ecx
	mov	edx, DWORD PTR _this$[ebp]
	mov	ecx, DWORD PTR [edx+24]
	shr	ecx, 1
	cmp	ecx, eax
	ja	SHORT $LN7@Copy
	jmp	SHORT $LN8@Copy
$LN7@Copy:

; 1923 : 			;
; 1924 : 		else if (this->_Myres <= max_size() - this->_Myres / 2)

	mov	edx, DWORD PTR _this$[ebp]
	mov	esi, DWORD PTR [edx+24]
	shr	esi, 1
	mov	ecx, DWORD PTR _this$[ebp]
	call	?max_size@?$basic_string@DU?$char_traits@D@std@@V?$allocator@D@2@@std@@QBEIXZ ; std::basic_string<char,std::char_traits<char>,std::allocator<char> >::max_size
	sub	eax, esi
	mov	ecx, DWORD PTR _this$[ebp]
	cmp	DWORD PTR [ecx+24], eax
	ja	SHORT $LN5@Copy

; 1925 : 			_Newres = this->_Myres
; 1926 : 				+ this->_Myres / 2;	// grow exponentially if possible

	mov	edx, DWORD PTR _this$[ebp]
	mov	eax, DWORD PTR [edx+24]
	shr	eax, 1
	mov	ecx, DWORD PTR _this$[ebp]
	add	eax, DWORD PTR [ecx+24]
	mov	DWORD PTR __Newres$[ebp], eax

; 1927 : 		else

	jmp	SHORT $LN8@Copy
$LN5@Copy:

; 1928 : 			_Newres = max_size();	// settle for max_size()

	mov	ecx, DWORD PTR _this$[ebp]
	call	?max_size@?$basic_string@DU?$char_traits@D@std@@V?$allocator@D@2@@std@@QBEIXZ ; std::basic_string<char,std::char_traits<char>,std::allocator<char> >::max_size
	mov	DWORD PTR __Newres$[ebp], eax
$LN8@Copy:

; 1929 : 
; 1930 : 		_Elem *_Ptr;
; 1931 : 		_TRY_BEGIN

	mov	DWORD PTR __$EHRec$[ebp+12], 0

; 1932 : 			_Ptr = this->_Alval.allocate(_Newres + 1);

	mov	edx, DWORD PTR __Newres$[ebp]
	add	edx, 1
	push	edx
	mov	ecx, DWORD PTR _this$[ebp]
	add	ecx, 28					; 0000001cH
	call	?allocate@?$allocator@D@std@@QAEPADI@Z	; std::allocator<char>::allocate
	mov	DWORD PTR tv184[ebp], eax
	mov	eax, DWORD PTR tv184[ebp]
	mov	DWORD PTR __Ptr$[ebp], eax
	jmp	SHORT $LN12@Copy
__catch$?_Copy@?$basic_string@DU?$char_traits@D@std@@V?$allocator@D@2@@std@@QAEXII@Z$0:

; 1933 : 		_CATCH_ALL

	mov	DWORD PTR __$EHRec$[ebp], esp

; 1934 : 			_Newres = _Newsize;	// allocation failed, undo roundup and retry

	mov	ecx, DWORD PTR __Newsize$[ebp]
	mov	DWORD PTR __Newres$[ebp], ecx

; 1935 : 			_TRY_BEGIN

	mov	BYTE PTR __$EHRec$[ebp+12], 2

; 1936 : 				_Ptr = this->_Alval.allocate(_Newres + 1);

	mov	edx, DWORD PTR __Newres$[ebp]
	add	edx, 1
	push	edx
	mov	ecx, DWORD PTR _this$[ebp]
	add	ecx, 28					; 0000001cH
	call	?allocate@?$allocator@D@std@@QAEPADI@Z	; std::allocator<char>::allocate
	mov	DWORD PTR tv185[ebp], eax
	mov	eax, DWORD PTR tv185[ebp]
	mov	DWORD PTR __Ptr$[ebp], eax
	jmp	SHORT $LN14@Copy
__catch$?_Copy@?$basic_string@DU?$char_traits@D@std@@V?$allocator@D@2@@std@@QAEXII@Z$1:

; 1937 : 			_CATCH_ALL
; 1938 : 			_Tidy(true);	// failed again, discard storage and reraise

	push	0
	push	1
	mov	ecx, DWORD PTR _this$[ebp]
	call	?_Tidy@?$basic_string@DU?$char_traits@D@std@@V?$allocator@D@2@@std@@QAEX_NI@Z ; std::basic_string<char,std::char_traits<char>,std::allocator<char> >::_Tidy

; 1939 : 			_RERAISE;

	push	0
	push	0
	call	__CxxThrowException@8

; 1940 : 			_CATCH_END

	mov	DWORD PTR __$EHRec$[ebp+12], 1
	mov	eax, __tryend$?_Copy@?$basic_string@DU?$char_traits@D@std@@V?$allocator@D@2@@std@@QAEXII@Z$2
	ret	0
$LN14@Copy:
	mov	DWORD PTR __$EHRec$[ebp+12], 1
__tryend$?_Copy@?$basic_string@DU?$char_traits@D@std@@V?$allocator@D@2@@std@@QAEXII@Z$2:

; 1941 : 		_CATCH_END

	mov	DWORD PTR __$EHRec$[ebp+12], 1
	mov	eax, __tryend$?_Copy@?$basic_string@DU?$char_traits@D@std@@V?$allocator@D@2@@std@@QAEXII@Z$3
	ret	0
$LN12@Copy:
	mov	DWORD PTR __$EHRec$[ebp+12], -1
__tryend$?_Copy@?$basic_string@DU?$char_traits@D@std@@V?$allocator@D@2@@std@@QAEXII@Z$3:

; 1942 : 
; 1943 : 		if (0 < _Oldlen)

	cmp	DWORD PTR __Oldlen$[ebp], 0
	jbe	SHORT $LN1@Copy

; 1944 : 			_Traits::copy(_Ptr, _Myptr(), _Oldlen);	// copy existing elements

	mov	ecx, DWORD PTR __Oldlen$[ebp]
	push	ecx
	mov	ecx, DWORD PTR _this$[ebp]
	call	?_Myptr@?$basic_string@DU?$char_traits@D@std@@V?$allocator@D@2@@std@@QAEPADXZ ; std::basic_string<char,std::char_traits<char>,std::allocator<char> >::_Myptr
	push	eax
	mov	edx, DWORD PTR __Ptr$[ebp]
	push	edx
	call	?copy@?$char_traits@D@std@@SAPADPADPBDI@Z ; std::char_traits<char>::copy
	add	esp, 12					; 0000000cH
$LN1@Copy:

; 1945 : 		_Tidy(true);

	push	0
	push	1
	mov	ecx, DWORD PTR _this$[ebp]
	call	?_Tidy@?$basic_string@DU?$char_traits@D@std@@V?$allocator@D@2@@std@@QAEX_NI@Z ; std::basic_string<char,std::char_traits<char>,std::allocator<char> >::_Tidy

; 1946 : 		this->_Bx._Ptr = _Ptr;

	mov	eax, DWORD PTR _this$[ebp]
	mov	ecx, DWORD PTR __Ptr$[ebp]
	mov	DWORD PTR [eax+4], ecx

; 1947 : 		this->_Myres = _Newres;

	mov	edx, DWORD PTR _this$[ebp]
	mov	eax, DWORD PTR __Newres$[ebp]
	mov	DWORD PTR [edx+24], eax

; 1948 : 		_Eos(_Oldlen);

	mov	ecx, DWORD PTR __Oldlen$[ebp]
	push	ecx
	mov	ecx, DWORD PTR _this$[ebp]
	call	?_Eos@?$basic_string@DU?$char_traits@D@std@@V?$allocator@D@2@@std@@QAEXI@Z ; std::basic_string<char,std::char_traits<char>,std::allocator<char> >::_Eos
$LN11@Copy:

; 1949 : 		}

	mov	ecx, DWORD PTR __$EHRec$[ebp+4]
	mov	DWORD PTR fs:0, ecx
	pop	ecx
	pop	edi
	pop	esi
	pop	ebx
	add	esp, 36					; 00000024H
	cmp	ebp, esp
	call	__RTC_CheckEsp
	mov	esp, ebp
	pop	ebp
	ret	8
_TEXT	ENDS
;	COMDAT text$x
text$x	SEGMENT
__ehhandler$?_Copy@?$basic_string@DU?$char_traits@D@std@@V?$allocator@D@2@@std@@QAEXII@Z:
	mov	edx, DWORD PTR [esp+8]
	lea	eax, DWORD PTR [edx+12]
	mov	ecx, DWORD PTR [edx-40]
	xor	ecx, eax
	call	@__security_check_cookie@4
	mov	eax, OFFSET __ehfuncinfo$?_Copy@?$basic_string@DU?$char_traits@D@std@@V?$allocator@D@2@@std@@QAEXII@Z
	jmp	___CxxFrameHandler3
text$x	ENDS
?_Copy@?$basic_string@DU?$char_traits@D@std@@V?$allocator@D@2@@std@@QAEXII@Z ENDP ; std::basic_string<char,std::char_traits<char>,std::allocator<char> >::_Copy
; Function compile flags: /Odtp /RTCsu
;	COMDAT ?_Inside@?$basic_string@DU?$char_traits@D@std@@V?$allocator@D@2@@std@@QAE_NPBD@Z
_TEXT	SEGMENT
_this$ = -4						; size = 4
__Ptr$ = 8						; size = 4
?_Inside@?$basic_string@DU?$char_traits@D@std@@V?$allocator@D@2@@std@@QAE_NPBD@Z PROC ; std::basic_string<char,std::char_traits<char>,std::allocator<char> >::_Inside, COMDAT
; _this$ = ecx

; 1972 : 		{	// test if _Ptr points inside string

	push	ebp
	mov	ebp, esp
	push	ecx
	mov	DWORD PTR [ebp-4], -858993460		; ccccccccH
	mov	DWORD PTR _this$[ebp], ecx

; 1973 : 		if (_Ptr == 0 || _Ptr < _Myptr() || _Myptr() + this->_Mysize <= _Ptr)

	cmp	DWORD PTR __Ptr$[ebp], 0
	je	SHORT $LN2@Inside
	mov	ecx, DWORD PTR _this$[ebp]
	call	?_Myptr@?$basic_string@DU?$char_traits@D@std@@V?$allocator@D@2@@std@@QAEPADXZ ; std::basic_string<char,std::char_traits<char>,std::allocator<char> >::_Myptr
	cmp	DWORD PTR __Ptr$[ebp], eax
	jb	SHORT $LN2@Inside
	mov	ecx, DWORD PTR _this$[ebp]
	call	?_Myptr@?$basic_string@DU?$char_traits@D@std@@V?$allocator@D@2@@std@@QAEPADXZ ; std::basic_string<char,std::char_traits<char>,std::allocator<char> >::_Myptr
	mov	ecx, DWORD PTR _this$[ebp]
	add	eax, DWORD PTR [ecx+20]
	cmp	eax, DWORD PTR __Ptr$[ebp]
	ja	SHORT $LN3@Inside
$LN2@Inside:

; 1974 : 			return (false);	// don't ask

	xor	al, al
	jmp	SHORT $LN4@Inside

; 1975 : 		else

	jmp	SHORT $LN4@Inside
$LN3@Inside:

; 1976 : 			return (true);

	mov	al, 1
$LN4@Inside:

; 1977 : 		}

	add	esp, 4
	cmp	ebp, esp
	call	__RTC_CheckEsp
	mov	esp, ebp
	pop	ebp
	ret	4
?_Inside@?$basic_string@DU?$char_traits@D@std@@V?$allocator@D@2@@std@@QAE_NPBD@Z ENDP ; std::basic_string<char,std::char_traits<char>,std::allocator<char> >::_Inside
_TEXT	ENDS
PUBLIC	??$_Allocate@D@std@@YAPADIPAD@Z			; std::_Allocate<char>
; Function compile flags: /Odtp /RTCsu
; File c:\program files (x86)\microsoft visual studio 10.0\vc\include\xmemory
;	COMDAT ?allocate@?$allocator@D@std@@QAEPADI@Z
_TEXT	SEGMENT
_this$ = -4						; size = 4
__Count$ = 8						; size = 4
?allocate@?$allocator@D@std@@QAEPADI@Z PROC		; std::allocator<char>::allocate, COMDAT
; _this$ = ecx

; 186  : 		{	// allocate array of _Count elements

	push	ebp
	mov	ebp, esp
	push	ecx
	mov	DWORD PTR [ebp-4], -858993460		; ccccccccH
	mov	DWORD PTR _this$[ebp], ecx

; 187  : 		return (_Allocate(_Count, (pointer)0));

	push	0
	mov	eax, DWORD PTR __Count$[ebp]
	push	eax
	call	??$_Allocate@D@std@@YAPADIPAD@Z		; std::_Allocate<char>
	add	esp, 8

; 188  : 		}

	add	esp, 4
	cmp	ebp, esp
	call	__RTC_CheckEsp
	mov	esp, ebp
	pop	ebp
	ret	4
?allocate@?$allocator@D@std@@QAEPADI@Z ENDP		; std::allocator<char>::allocate
; Function compile flags: /Odtp /RTCsu
_TEXT	ENDS
;	COMDAT ?max_size@?$allocator@D@std@@QBEIXZ
_TEXT	SEGMENT
tv65 = -12						; size = 4
__Count$ = -8						; size = 4
_this$ = -4						; size = 4
?max_size@?$allocator@D@std@@QBEIXZ PROC		; std::allocator<char>::max_size, COMDAT
; _this$ = ecx

; 217  : 		{	// estimate maximum array size

	push	ebp
	mov	ebp, esp
	sub	esp, 12					; 0000000cH
	mov	DWORD PTR [ebp-12], -858993460		; ccccccccH
	mov	DWORD PTR [ebp-8], -858993460		; ccccccccH
	mov	DWORD PTR [ebp-4], -858993460		; ccccccccH
	mov	DWORD PTR _this$[ebp], ecx

; 218  : 		_SIZT _Count = (_SIZT)(-1) / sizeof (_Ty);

	mov	DWORD PTR __Count$[ebp], -1

; 219  : 		return (0 < _Count ? _Count : 1);

	cmp	DWORD PTR __Count$[ebp], 0
	jbe	SHORT $LN3@max_size@2
	mov	eax, DWORD PTR __Count$[ebp]
	mov	DWORD PTR tv65[ebp], eax
	jmp	SHORT $LN4@max_size@2
$LN3@max_size@2:
	mov	DWORD PTR tv65[ebp], 1
$LN4@max_size@2:
	mov	eax, DWORD PTR tv65[ebp]

; 220  : 		}

	mov	esp, ebp
	pop	ebp
	ret	0
?max_size@?$allocator@D@std@@QBEIXZ ENDP		; std::allocator<char>::max_size
_TEXT	ENDS
PUBLIC	??0?$basic_string@DU?$char_traits@D@std@@V?$allocator@D@2@@std@@QAE@$$QAV01@@Z ; std::basic_string<char,std::char_traits<char>,std::allocator<char> >::basic_string<char,std::char_traits<char>,std::allocator<char> >
PUBLIC	??Y?$basic_string@DU?$char_traits@D@std@@V?$allocator@D@2@@std@@QAEAAV01@PBD@Z ; std::basic_string<char,std::char_traits<char>,std::allocator<char> >::operator+=
PUBLIC	??Y?$basic_string@DU?$char_traits@D@std@@V?$allocator@D@2@@std@@QAEAAV01@ABV01@@Z ; std::basic_string<char,std::char_traits<char>,std::allocator<char> >::operator+=
PUBLIC	?reserve@?$basic_string@DU?$char_traits@D@std@@V?$allocator@D@2@@std@@QAEXI@Z ; std::basic_string<char,std::char_traits<char>,std::allocator<char> >::reserve
PUBLIC	??0?$basic_string@DU?$char_traits@D@std@@V?$allocator@D@2@@std@@QAE@XZ ; std::basic_string<char,std::char_traits<char>,std::allocator<char> >::basic_string<char,std::char_traits<char>,std::allocator<char> >
PUBLIC	__$ArrayPad$
;	COMDAT xdata$x
; File c:\program files (x86)\microsoft visual studio 10.0\vc\include\string
xdata$x	SEGMENT
__unwindtable$??$?HDU?$char_traits@D@std@@V?$allocator@D@1@@std@@YA?AV?$basic_string@DU?$char_traits@D@std@@V?$allocator@D@2@@0@ABV10@PBD@Z DD 0ffffffffH
	DD	FLAT:__unwindfunclet$??$?HDU?$char_traits@D@std@@V?$allocator@D@1@@std@@YA?AV?$basic_string@DU?$char_traits@D@std@@V?$allocator@D@2@@0@ABV10@PBD@Z$1
	DD	00H
	DD	FLAT:__unwindfunclet$??$?HDU?$char_traits@D@std@@V?$allocator@D@1@@std@@YA?AV?$basic_string@DU?$char_traits@D@std@@V?$allocator@D@2@@0@ABV10@PBD@Z$0
__ehfuncinfo$??$?HDU?$char_traits@D@std@@V?$allocator@D@1@@std@@YA?AV?$basic_string@DU?$char_traits@D@std@@V?$allocator@D@2@@0@ABV10@PBD@Z DD 019930522H
	DD	02H
	DD	FLAT:__unwindtable$??$?HDU?$char_traits@D@std@@V?$allocator@D@1@@std@@YA?AV?$basic_string@DU?$char_traits@D@std@@V?$allocator@D@2@@0@ABV10@PBD@Z
	DD	2 DUP(00H)
	DD	2 DUP(00H)
	DD	00H
	DD	01H
; Function compile flags: /Odtp /RTCsu
xdata$x	ENDS
;	COMDAT ??$?HDU?$char_traits@D@std@@V?$allocator@D@1@@std@@YA?AV?$basic_string@DU?$char_traits@D@std@@V?$allocator@D@2@@0@ABV10@PBD@Z
_TEXT	SEGMENT
$T141609 = -60						; size = 4
__Ans$ = -52						; size = 32
__$ArrayPad$ = -16					; size = 4
__$EHRec$ = -12						; size = 12
___$ReturnUdt$ = 8					; size = 4
__Left$ = 12						; size = 4
__Right$ = 16						; size = 4
??$?HDU?$char_traits@D@std@@V?$allocator@D@1@@std@@YA?AV?$basic_string@DU?$char_traits@D@std@@V?$allocator@D@2@@0@ABV10@PBD@Z PROC ; std::operator+<char,std::char_traits<char>,std::allocator<char> >, COMDAT

; 64   : 	{	// return string + NTCS

	push	ebp
	mov	ebp, esp
	push	-1
	push	__ehhandler$??$?HDU?$char_traits@D@std@@V?$allocator@D@1@@std@@YA?AV?$basic_string@DU?$char_traits@D@std@@V?$allocator@D@2@@0@ABV10@PBD@Z
	mov	eax, DWORD PTR fs:0
	push	eax
	sub	esp, 48					; 00000030H
	push	esi
	push	edi
	lea	edi, DWORD PTR [ebp-60]
	mov	ecx, 12					; 0000000cH
	mov	eax, -858993460				; ccccccccH
	rep stosd
	mov	eax, DWORD PTR ___security_cookie
	xor	eax, ebp
	mov	DWORD PTR __$ArrayPad$[ebp], eax
	push	eax
	lea	eax, DWORD PTR __$EHRec$[ebp]
	mov	DWORD PTR fs:0, eax
	mov	DWORD PTR $T141609[ebp], 0

; 65   : 	basic_string<_Elem, _Traits, _Alloc> _Ans;

	lea	ecx, DWORD PTR __Ans$[ebp]
	call	??0?$basic_string@DU?$char_traits@D@std@@V?$allocator@D@2@@std@@QAE@XZ ; std::basic_string<char,std::char_traits<char>,std::allocator<char> >::basic_string<char,std::char_traits<char>,std::allocator<char> >
	mov	DWORD PTR __$EHRec$[ebp+8], 1

; 66   : 	_Ans.reserve(_Left.size() + _Traits::length(_Right));

	mov	ecx, DWORD PTR __Left$[ebp]
	call	?size@?$basic_string@DU?$char_traits@D@std@@V?$allocator@D@2@@std@@QBEIXZ ; std::basic_string<char,std::char_traits<char>,std::allocator<char> >::size
	mov	esi, eax
	mov	eax, DWORD PTR __Right$[ebp]
	push	eax
	call	?length@?$char_traits@D@std@@SAIPBD@Z	; std::char_traits<char>::length
	add	esp, 4
	add	esi, eax
	push	esi
	lea	ecx, DWORD PTR __Ans$[ebp]
	call	?reserve@?$basic_string@DU?$char_traits@D@std@@V?$allocator@D@2@@std@@QAEXI@Z ; std::basic_string<char,std::char_traits<char>,std::allocator<char> >::reserve

; 67   : 	_Ans += _Left;

	mov	ecx, DWORD PTR __Left$[ebp]
	push	ecx
	lea	ecx, DWORD PTR __Ans$[ebp]
	call	??Y?$basic_string@DU?$char_traits@D@std@@V?$allocator@D@2@@std@@QAEAAV01@ABV01@@Z ; std::basic_string<char,std::char_traits<char>,std::allocator<char> >::operator+=

; 68   : 	_Ans += _Right;

	mov	edx, DWORD PTR __Right$[ebp]
	push	edx
	lea	ecx, DWORD PTR __Ans$[ebp]
	call	??Y?$basic_string@DU?$char_traits@D@std@@V?$allocator@D@2@@std@@QAEAAV01@PBD@Z ; std::basic_string<char,std::char_traits<char>,std::allocator<char> >::operator+=

; 69   : 	return (_Ans);

	lea	eax, DWORD PTR __Ans$[ebp]
	push	eax
	mov	ecx, DWORD PTR ___$ReturnUdt$[ebp]
	call	??0?$basic_string@DU?$char_traits@D@std@@V?$allocator@D@2@@std@@QAE@$$QAV01@@Z ; std::basic_string<char,std::char_traits<char>,std::allocator<char> >::basic_string<char,std::char_traits<char>,std::allocator<char> >
	mov	ecx, DWORD PTR $T141609[ebp]
	or	ecx, 1
	mov	DWORD PTR $T141609[ebp], ecx
	mov	BYTE PTR __$EHRec$[ebp+8], 0
	lea	ecx, DWORD PTR __Ans$[ebp]
	call	??1?$basic_string@DU?$char_traits@D@std@@V?$allocator@D@2@@std@@QAE@XZ ; std::basic_string<char,std::char_traits<char>,std::allocator<char> >::~basic_string<char,std::char_traits<char>,std::allocator<char> >
	mov	eax, DWORD PTR ___$ReturnUdt$[ebp]

; 70   : 	}

	push	edx
	mov	ecx, ebp
	push	eax
	lea	edx, DWORD PTR $LN9@operator@4
	call	@_RTC_CheckStackVars@8
	pop	eax
	pop	edx
	mov	ecx, DWORD PTR __$EHRec$[ebp]
	mov	DWORD PTR fs:0, ecx
	pop	ecx
	pop	edi
	pop	esi
	mov	ecx, DWORD PTR __$ArrayPad$[ebp]
	xor	ecx, ebp
	call	@__security_check_cookie@4
	add	esp, 60					; 0000003cH
	cmp	ebp, esp
	call	__RTC_CheckEsp
	mov	esp, ebp
	pop	ebp
	ret	0
	npad	2
$LN9@operator@4:
	DD	1
	DD	$LN8@operator@4
$LN8@operator@4:
	DD	-52					; ffffffccH
	DD	32					; 00000020H
	DD	$LN6@operator@4
$LN6@operator@4:
	DB	95					; 0000005fH
	DB	65					; 00000041H
	DB	110					; 0000006eH
	DB	115					; 00000073H
	DB	0
_TEXT	ENDS
;	COMDAT text$x
text$x	SEGMENT
__unwindfunclet$??$?HDU?$char_traits@D@std@@V?$allocator@D@1@@std@@YA?AV?$basic_string@DU?$char_traits@D@std@@V?$allocator@D@2@@0@ABV10@PBD@Z$0:
	lea	ecx, DWORD PTR __Ans$[ebp]
	jmp	??1?$basic_string@DU?$char_traits@D@std@@V?$allocator@D@2@@std@@QAE@XZ ; std::basic_string<char,std::char_traits<char>,std::allocator<char> >::~basic_string<char,std::char_traits<char>,std::allocator<char> >
__unwindfunclet$??$?HDU?$char_traits@D@std@@V?$allocator@D@1@@std@@YA?AV?$basic_string@DU?$char_traits@D@std@@V?$allocator@D@2@@0@ABV10@PBD@Z$1:
	mov	eax, DWORD PTR $T141609[ebp]
	and	eax, 1
	je	$LN5@operator@4
	and	DWORD PTR $T141609[ebp], -2		; fffffffeH
	mov	ecx, DWORD PTR ___$ReturnUdt$[ebp]
	jmp	??1?$basic_string@DU?$char_traits@D@std@@V?$allocator@D@2@@std@@QAE@XZ ; std::basic_string<char,std::char_traits<char>,std::allocator<char> >::~basic_string<char,std::char_traits<char>,std::allocator<char> >
$LN5@operator@4:
	ret	0
__ehhandler$??$?HDU?$char_traits@D@std@@V?$allocator@D@1@@std@@YA?AV?$basic_string@DU?$char_traits@D@std@@V?$allocator@D@2@@0@ABV10@PBD@Z:
	mov	edx, DWORD PTR [esp+8]
	lea	eax, DWORD PTR [edx+12]
	mov	ecx, DWORD PTR [edx-60]
	xor	ecx, eax
	call	@__security_check_cookie@4
	mov	ecx, DWORD PTR [edx-4]
	xor	ecx, eax
	call	@__security_check_cookie@4
	mov	eax, OFFSET __ehfuncinfo$??$?HDU?$char_traits@D@std@@V?$allocator@D@1@@std@@YA?AV?$basic_string@DU?$char_traits@D@std@@V?$allocator@D@2@@0@ABV10@PBD@Z
	jmp	___CxxFrameHandler3
text$x	ENDS
??$?HDU?$char_traits@D@std@@V?$allocator@D@1@@std@@YA?AV?$basic_string@DU?$char_traits@D@std@@V?$allocator@D@2@@0@ABV10@PBD@Z ENDP ; std::operator+<char,std::char_traits<char>,std::allocator<char> >
;	COMDAT xdata$x
; File c:\program files (x86)\microsoft visual studio 10.0\vc\include\xstring
xdata$x	SEGMENT
__unwindtable$??0?$basic_string@DU?$char_traits@D@std@@V?$allocator@D@2@@std@@QAE@XZ DD 0ffffffffH
	DD	FLAT:__unwindfunclet$??0?$basic_string@DU?$char_traits@D@std@@V?$allocator@D@2@@std@@QAE@XZ$0
__ehfuncinfo$??0?$basic_string@DU?$char_traits@D@std@@V?$allocator@D@2@@std@@QAE@XZ DD 019930522H
	DD	01H
	DD	FLAT:__unwindtable$??0?$basic_string@DU?$char_traits@D@std@@V?$allocator@D@2@@std@@QAE@XZ
	DD	2 DUP(00H)
	DD	2 DUP(00H)
	DD	00H
	DD	01H
; Function compile flags: /Odtp /RTCsu
xdata$x	ENDS
;	COMDAT ??0?$basic_string@DU?$char_traits@D@std@@V?$allocator@D@2@@std@@QAE@XZ
_TEXT	SEGMENT
$T141622 = -20						; size = 4
_this$ = -16						; size = 4
__$EHRec$ = -12						; size = 12
??0?$basic_string@DU?$char_traits@D@std@@V?$allocator@D@2@@std@@QAE@XZ PROC ; std::basic_string<char,std::char_traits<char>,std::allocator<char> >::basic_string<char,std::char_traits<char>,std::allocator<char> >, COMDAT
; _this$ = ecx

; 550  : 		{	// construct empty string

	push	ebp
	mov	ebp, esp
	push	-1
	push	__ehhandler$??0?$basic_string@DU?$char_traits@D@std@@V?$allocator@D@2@@std@@QAE@XZ
	mov	eax, DWORD PTR fs:0
	push	eax
	sub	esp, 8
	mov	DWORD PTR [ebp-20], -858993460		; ccccccccH
	mov	DWORD PTR [ebp-16], -858993460		; ccccccccH
	mov	eax, DWORD PTR ___security_cookie
	xor	eax, ebp
	push	eax
	lea	eax, DWORD PTR __$EHRec$[ebp]
	mov	DWORD PTR fs:0, eax
	mov	DWORD PTR _this$[ebp], ecx
	push	ecx
	mov	ecx, esp
	mov	DWORD PTR $T141622[ebp], esp
	call	??0?$allocator@D@std@@QAE@XZ		; std::allocator<char>::allocator<char>
	mov	ecx, DWORD PTR _this$[ebp]
	call	??0?$_String_val@DV?$allocator@D@std@@@std@@QAE@V?$allocator@D@1@@Z ; std::_String_val<char,std::allocator<char> >::_String_val<char,std::allocator<char> >
	mov	DWORD PTR __$EHRec$[ebp+8], 0

; 551  : 		_Tidy();

	push	0
	push	0
	mov	ecx, DWORD PTR _this$[ebp]
	call	?_Tidy@?$basic_string@DU?$char_traits@D@std@@V?$allocator@D@2@@std@@QAEX_NI@Z ; std::basic_string<char,std::char_traits<char>,std::allocator<char> >::_Tidy

; 552  : 		}

	mov	DWORD PTR __$EHRec$[ebp+8], -1
	mov	eax, DWORD PTR _this$[ebp]
	mov	ecx, DWORD PTR __$EHRec$[ebp]
	mov	DWORD PTR fs:0, ecx
	pop	ecx
	add	esp, 20					; 00000014H
	cmp	ebp, esp
	call	__RTC_CheckEsp
	mov	esp, ebp
	pop	ebp
	ret	0
_TEXT	ENDS
;	COMDAT text$x
text$x	SEGMENT
__unwindfunclet$??0?$basic_string@DU?$char_traits@D@std@@V?$allocator@D@2@@std@@QAE@XZ$0:
	mov	ecx, DWORD PTR _this$[ebp]
	jmp	??1?$_String_val@DV?$allocator@D@std@@@std@@QAE@XZ ; std::_String_val<char,std::allocator<char> >::~_String_val<char,std::allocator<char> >
__ehhandler$??0?$basic_string@DU?$char_traits@D@std@@V?$allocator@D@2@@std@@QAE@XZ:
	mov	edx, DWORD PTR [esp+8]
	lea	eax, DWORD PTR [edx+12]
	mov	ecx, DWORD PTR [edx-12]
	xor	ecx, eax
	call	@__security_check_cookie@4
	mov	eax, OFFSET __ehfuncinfo$??0?$basic_string@DU?$char_traits@D@std@@V?$allocator@D@2@@std@@QAE@XZ
	jmp	___CxxFrameHandler3
text$x	ENDS
??0?$basic_string@DU?$char_traits@D@std@@V?$allocator@D@2@@std@@QAE@XZ ENDP ; std::basic_string<char,std::char_traits<char>,std::allocator<char> >::basic_string<char,std::char_traits<char>,std::allocator<char> >
PUBLIC	?assign@?$basic_string@DU?$char_traits@D@std@@V?$allocator@D@2@@std@@QAEAAV12@$$QAV12@@Z ; std::basic_string<char,std::char_traits<char>,std::allocator<char> >::assign
PUBLIC	??$forward@V?$basic_string@DU?$char_traits@D@std@@V?$allocator@D@2@@std@@@std@@YA$$QAV?$basic_string@DU?$char_traits@D@std@@V?$allocator@D@2@@0@AAV10@@Z ; std::forward<std::basic_string<char,std::char_traits<char>,std::allocator<char> > >
PUBLIC	??$forward@V?$allocator@D@std@@@std@@YA$$QAV?$allocator@D@0@AAV10@@Z ; std::forward<std::allocator<char> >
;	COMDAT xdata$x
xdata$x	SEGMENT
__unwindtable$??0?$basic_string@DU?$char_traits@D@std@@V?$allocator@D@2@@std@@QAE@$$QAV01@@Z DD 0ffffffffH
	DD	FLAT:__unwindfunclet$??0?$basic_string@DU?$char_traits@D@std@@V?$allocator@D@2@@std@@QAE@$$QAV01@@Z$0
__ehfuncinfo$??0?$basic_string@DU?$char_traits@D@std@@V?$allocator@D@2@@std@@QAE@$$QAV01@@Z DD 019930522H
	DD	01H
	DD	FLAT:__unwindtable$??0?$basic_string@DU?$char_traits@D@std@@V?$allocator@D@2@@std@@QAE@$$QAV01@@Z
	DD	2 DUP(00H)
	DD	2 DUP(00H)
	DD	00H
	DD	01H
; Function compile flags: /Odtp /RTCsu
xdata$x	ENDS
;	COMDAT ??0?$basic_string@DU?$char_traits@D@std@@V?$allocator@D@2@@std@@QAE@$$QAV01@@Z
_TEXT	SEGMENT
$T141632 = -20						; size = 4
_this$ = -16						; size = 4
__$EHRec$ = -12						; size = 12
__Right$ = 8						; size = 4
??0?$basic_string@DU?$char_traits@D@std@@V?$allocator@D@2@@std@@QAE@$$QAV01@@Z PROC ; std::basic_string<char,std::char_traits<char>,std::allocator<char> >::basic_string<char,std::char_traits<char>,std::allocator<char> >, COMDAT
; _this$ = ecx

; 702  : 		{	// construct by moving _Right

	push	ebp
	mov	ebp, esp
	push	-1
	push	__ehhandler$??0?$basic_string@DU?$char_traits@D@std@@V?$allocator@D@2@@std@@QAE@$$QAV01@@Z
	mov	eax, DWORD PTR fs:0
	push	eax
	sub	esp, 8
	mov	DWORD PTR [ebp-20], -858993460		; ccccccccH
	mov	DWORD PTR [ebp-16], -858993460		; ccccccccH
	mov	eax, DWORD PTR ___security_cookie
	xor	eax, ebp
	push	eax
	lea	eax, DWORD PTR __$EHRec$[ebp]
	mov	DWORD PTR fs:0, eax
	mov	DWORD PTR _this$[ebp], ecx
	mov	eax, DWORD PTR __Right$[ebp]
	add	eax, 28					; 0000001cH
	push	eax
	call	??$forward@V?$allocator@D@std@@@std@@YA$$QAV?$allocator@D@0@AAV10@@Z ; std::forward<std::allocator<char> >
	mov	ecx, esp
	mov	DWORD PTR $T141632[ebp], esp
	push	eax
	call	??0?$allocator@D@std@@QAE@ABV01@@Z	; std::allocator<char>::allocator<char>
	mov	ecx, DWORD PTR _this$[ebp]
	call	??0?$_String_val@DV?$allocator@D@std@@@std@@QAE@V?$allocator@D@1@@Z ; std::_String_val<char,std::allocator<char> >::_String_val<char,std::allocator<char> >
	mov	DWORD PTR __$EHRec$[ebp+8], 0

; 703  : 		_Tidy();

	push	0
	push	0
	mov	ecx, DWORD PTR _this$[ebp]
	call	?_Tidy@?$basic_string@DU?$char_traits@D@std@@V?$allocator@D@2@@std@@QAEX_NI@Z ; std::basic_string<char,std::char_traits<char>,std::allocator<char> >::_Tidy

; 704  : 		assign(_STD forward<_Myt>(_Right));

	mov	ecx, DWORD PTR __Right$[ebp]
	push	ecx
	call	??$forward@V?$basic_string@DU?$char_traits@D@std@@V?$allocator@D@2@@std@@@std@@YA$$QAV?$basic_string@DU?$char_traits@D@std@@V?$allocator@D@2@@0@AAV10@@Z ; std::forward<std::basic_string<char,std::char_traits<char>,std::allocator<char> > >
	add	esp, 4
	push	eax
	mov	ecx, DWORD PTR _this$[ebp]
	call	?assign@?$basic_string@DU?$char_traits@D@std@@V?$allocator@D@2@@std@@QAEAAV12@$$QAV12@@Z ; std::basic_string<char,std::char_traits<char>,std::allocator<char> >::assign

; 705  : 		}

	mov	DWORD PTR __$EHRec$[ebp+8], -1
	mov	eax, DWORD PTR _this$[ebp]
	mov	ecx, DWORD PTR __$EHRec$[ebp]
	mov	DWORD PTR fs:0, ecx
	pop	ecx
	add	esp, 20					; 00000014H
	cmp	ebp, esp
	call	__RTC_CheckEsp
	mov	esp, ebp
	pop	ebp
	ret	4
_TEXT	ENDS
;	COMDAT text$x
text$x	SEGMENT
__unwindfunclet$??0?$basic_string@DU?$char_traits@D@std@@V?$allocator@D@2@@std@@QAE@$$QAV01@@Z$0:
	mov	ecx, DWORD PTR _this$[ebp]
	jmp	??1?$_String_val@DV?$allocator@D@std@@@std@@QAE@XZ ; std::_String_val<char,std::allocator<char> >::~_String_val<char,std::allocator<char> >
__ehhandler$??0?$basic_string@DU?$char_traits@D@std@@V?$allocator@D@2@@std@@QAE@$$QAV01@@Z:
	mov	edx, DWORD PTR [esp+8]
	lea	eax, DWORD PTR [edx+12]
	mov	ecx, DWORD PTR [edx-12]
	xor	ecx, eax
	call	@__security_check_cookie@4
	mov	eax, OFFSET __ehfuncinfo$??0?$basic_string@DU?$char_traits@D@std@@V?$allocator@D@2@@std@@QAE@$$QAV01@@Z
	jmp	___CxxFrameHandler3
text$x	ENDS
??0?$basic_string@DU?$char_traits@D@std@@V?$allocator@D@2@@std@@QAE@$$QAV01@@Z ENDP ; std::basic_string<char,std::char_traits<char>,std::allocator<char> >::basic_string<char,std::char_traits<char>,std::allocator<char> >
PUBLIC	??4?$basic_string@DU?$char_traits@D@std@@V?$allocator@D@2@@std@@QAEAAV01@ABV01@@Z ; std::basic_string<char,std::char_traits<char>,std::allocator<char> >::operator=
PUBLIC	??$?9DD@std@@YA_NABV?$allocator@D@0@0@Z		; std::operator!=<char,char>
PUBLIC	?get_allocator@?$basic_string@DU?$char_traits@D@std@@V?$allocator@D@2@@std@@QBE?AV?$allocator@D@2@XZ ; std::basic_string<char,std::char_traits<char>,std::allocator<char> >::get_allocator
; Function compile flags: /Odtp /RTCsu
;	COMDAT ?assign@?$basic_string@DU?$char_traits@D@std@@V?$allocator@D@2@@std@@QAEAAV12@$$QAV12@@Z
_TEXT	SEGMENT
$T141643 = -6						; size = 1
$T141642 = -5						; size = 1
_this$ = -4						; size = 4
__Right$ = 8						; size = 4
?assign@?$basic_string@DU?$char_traits@D@std@@V?$allocator@D@2@@std@@QAEAAV12@$$QAV12@@Z PROC ; std::basic_string<char,std::char_traits<char>,std::allocator<char> >::assign, COMDAT
; _this$ = ecx

; 713  : 		{	// assign by moving _Right

	push	ebp
	mov	ebp, esp
	sub	esp, 8
	mov	DWORD PTR [ebp-8], -858993460		; ccccccccH
	mov	DWORD PTR [ebp-4], -858993460		; ccccccccH
	mov	DWORD PTR _this$[ebp], ecx

; 714  : 		if (this == &_Right)

	mov	eax, DWORD PTR _this$[ebp]
	cmp	eax, DWORD PTR __Right$[ebp]
	jne	SHORT $LN6@assign@3

; 715  : 			;
; 716  : 		else if (get_allocator() != _Right.get_allocator()

	jmp	$LN5@assign@3
$LN6@assign@3:

; 717  : 			&& this->_BUF_SIZE <= _Right._Myres)

	lea	ecx, DWORD PTR $T141642[ebp]
	push	ecx
	mov	ecx, DWORD PTR __Right$[ebp]
	call	?get_allocator@?$basic_string@DU?$char_traits@D@std@@V?$allocator@D@2@@std@@QBE?AV?$allocator@D@2@XZ ; std::basic_string<char,std::char_traits<char>,std::allocator<char> >::get_allocator
	push	eax
	lea	edx, DWORD PTR $T141643[ebp]
	push	edx
	mov	ecx, DWORD PTR _this$[ebp]
	call	?get_allocator@?$basic_string@DU?$char_traits@D@std@@V?$allocator@D@2@@std@@QBE?AV?$allocator@D@2@XZ ; std::basic_string<char,std::char_traits<char>,std::allocator<char> >::get_allocator
	push	eax
	call	??$?9DD@std@@YA_NABV?$allocator@D@0@0@Z	; std::operator!=<char,char>
	add	esp, 8
	movzx	eax, al
	test	eax, eax
	je	SHORT $LN4@assign@3
	mov	ecx, DWORD PTR __Right$[ebp]
	cmp	DWORD PTR [ecx+24], 16			; 00000010H
	jb	SHORT $LN4@assign@3

; 718  : 			*this = _Right;

	mov	edx, DWORD PTR __Right$[ebp]
	push	edx
	mov	ecx, DWORD PTR _this$[ebp]
	call	??4?$basic_string@DU?$char_traits@D@std@@V?$allocator@D@2@@std@@QAEAAV01@ABV01@@Z ; std::basic_string<char,std::char_traits<char>,std::allocator<char> >::operator=

; 719  : 		else

	jmp	SHORT $LN5@assign@3
$LN4@assign@3:

; 720  : 			{	// not same, clear this and steal from _Right
; 721  : 			_Tidy(true);

	push	0
	push	1
	mov	ecx, DWORD PTR _this$[ebp]
	call	?_Tidy@?$basic_string@DU?$char_traits@D@std@@V?$allocator@D@2@@std@@QAEX_NI@Z ; std::basic_string<char,std::char_traits<char>,std::allocator<char> >::_Tidy

; 722  : 			if (_Right._Myres < this->_BUF_SIZE)

	mov	eax, DWORD PTR __Right$[ebp]
	cmp	DWORD PTR [eax+24], 16			; 00000010H
	jae	SHORT $LN2@assign@3

; 723  : 				_Traits::move(this->_Bx._Buf, _Right._Bx._Buf,
; 724  : 					_Right._Mysize + 1);

	mov	ecx, DWORD PTR __Right$[ebp]
	mov	edx, DWORD PTR [ecx+20]
	add	edx, 1
	push	edx
	mov	eax, DWORD PTR __Right$[ebp]
	add	eax, 4
	push	eax
	mov	ecx, DWORD PTR _this$[ebp]
	add	ecx, 4
	push	ecx
	call	?move@?$char_traits@D@std@@SAPADPADPBDI@Z ; std::char_traits<char>::move
	add	esp, 12					; 0000000cH

; 725  : 			else

	jmp	SHORT $LN1@assign@3
$LN2@assign@3:

; 726  : 				{	// copy pointer
; 727  : 				this->_Bx._Ptr = _Right._Bx._Ptr;

	mov	edx, DWORD PTR _this$[ebp]
	mov	eax, DWORD PTR __Right$[ebp]
	mov	ecx, DWORD PTR [eax+4]
	mov	DWORD PTR [edx+4], ecx

; 728  : 				_Right._Bx._Ptr = 0;

	mov	edx, DWORD PTR __Right$[ebp]
	mov	DWORD PTR [edx+4], 0
$LN1@assign@3:

; 729  : 				}
; 730  : 			this->_Mysize = _Right._Mysize;

	mov	eax, DWORD PTR _this$[ebp]
	mov	ecx, DWORD PTR __Right$[ebp]
	mov	edx, DWORD PTR [ecx+20]
	mov	DWORD PTR [eax+20], edx

; 731  : 			this->_Myres = _Right._Myres;

	mov	eax, DWORD PTR _this$[ebp]
	mov	ecx, DWORD PTR __Right$[ebp]
	mov	edx, DWORD PTR [ecx+24]
	mov	DWORD PTR [eax+24], edx

; 732  : 
; 733  : 			_Right._Tidy();

	push	0
	push	0
	mov	ecx, DWORD PTR __Right$[ebp]
	call	?_Tidy@?$basic_string@DU?$char_traits@D@std@@V?$allocator@D@2@@std@@QAEX_NI@Z ; std::basic_string<char,std::char_traits<char>,std::allocator<char> >::_Tidy
$LN5@assign@3:

; 734  : 			}
; 735  : 		return (*this);

	mov	eax, DWORD PTR _this$[ebp]

; 736  : 		}

	add	esp, 8
	cmp	ebp, esp
	call	__RTC_CheckEsp
	mov	esp, ebp
	pop	ebp
	ret	4
?assign@?$basic_string@DU?$char_traits@D@std@@V?$allocator@D@2@@std@@QAEAAV12@$$QAV12@@Z ENDP ; std::basic_string<char,std::char_traits<char>,std::allocator<char> >::assign
_TEXT	ENDS
PUBLIC	?assign@?$basic_string@DU?$char_traits@D@std@@V?$allocator@D@2@@std@@QAEAAV12@ABV12@@Z ; std::basic_string<char,std::char_traits<char>,std::allocator<char> >::assign
; Function compile flags: /Odtp /RTCsu
;	COMDAT ??4?$basic_string@DU?$char_traits@D@std@@V?$allocator@D@2@@std@@QAEAAV01@ABV01@@Z
_TEXT	SEGMENT
_this$ = -4						; size = 4
__Right$ = 8						; size = 4
??4?$basic_string@DU?$char_traits@D@std@@V?$allocator@D@2@@std@@QAEAAV01@ABV01@@Z PROC ; std::basic_string<char,std::char_traits<char>,std::allocator<char> >::operator=, COMDAT
; _this$ = ecx

; 762  : 		{	// assign _Right

	push	ebp
	mov	ebp, esp
	push	ecx
	mov	DWORD PTR [ebp-4], -858993460		; ccccccccH
	mov	DWORD PTR _this$[ebp], ecx

; 763  : 		return (assign(_Right));

	mov	eax, DWORD PTR __Right$[ebp]
	push	eax
	mov	ecx, DWORD PTR _this$[ebp]
	call	?assign@?$basic_string@DU?$char_traits@D@std@@V?$allocator@D@2@@std@@QAEAAV12@ABV12@@Z ; std::basic_string<char,std::char_traits<char>,std::allocator<char> >::assign

; 764  : 		}

	add	esp, 4
	cmp	ebp, esp
	call	__RTC_CheckEsp
	mov	esp, ebp
	pop	ebp
	ret	4
??4?$basic_string@DU?$char_traits@D@std@@V?$allocator@D@2@@std@@QAEAAV01@ABV01@@Z ENDP ; std::basic_string<char,std::char_traits<char>,std::allocator<char> >::operator=
_TEXT	ENDS
PUBLIC	?append@?$basic_string@DU?$char_traits@D@std@@V?$allocator@D@2@@std@@QAEAAV12@ABV12@@Z ; std::basic_string<char,std::char_traits<char>,std::allocator<char> >::append
; Function compile flags: /Odtp /RTCsu
;	COMDAT ??Y?$basic_string@DU?$char_traits@D@std@@V?$allocator@D@2@@std@@QAEAAV01@ABV01@@Z
_TEXT	SEGMENT
_this$ = -4						; size = 4
__Right$ = 8						; size = 4
??Y?$basic_string@DU?$char_traits@D@std@@V?$allocator@D@2@@std@@QAEAAV01@ABV01@@Z PROC ; std::basic_string<char,std::char_traits<char>,std::allocator<char> >::operator+=, COMDAT
; _this$ = ecx

; 777  : 		{	// append _Right

	push	ebp
	mov	ebp, esp
	push	ecx
	mov	DWORD PTR [ebp-4], -858993460		; ccccccccH
	mov	DWORD PTR _this$[ebp], ecx

; 778  : 		return (append(_Right));

	mov	eax, DWORD PTR __Right$[ebp]
	push	eax
	mov	ecx, DWORD PTR _this$[ebp]
	call	?append@?$basic_string@DU?$char_traits@D@std@@V?$allocator@D@2@@std@@QAEAAV12@ABV12@@Z ; std::basic_string<char,std::char_traits<char>,std::allocator<char> >::append

; 779  : 		}

	add	esp, 4
	cmp	ebp, esp
	call	__RTC_CheckEsp
	mov	esp, ebp
	pop	ebp
	ret	4
??Y?$basic_string@DU?$char_traits@D@std@@V?$allocator@D@2@@std@@QAEAAV01@ABV01@@Z ENDP ; std::basic_string<char,std::char_traits<char>,std::allocator<char> >::operator+=
; Function compile flags: /Odtp /RTCsu
_TEXT	ENDS
;	COMDAT ?get_allocator@?$basic_string@DU?$char_traits@D@std@@V?$allocator@D@2@@std@@QBE?AV?$allocator@D@2@XZ
_TEXT	SEGMENT
_this$ = -4						; size = 4
___$ReturnUdt$ = 8					; size = 4
?get_allocator@?$basic_string@DU?$char_traits@D@std@@V?$allocator@D@2@@std@@QBE?AV?$allocator@D@2@XZ PROC ; std::basic_string<char,std::char_traits<char>,std::allocator<char> >::get_allocator, COMDAT
; _this$ = ecx

; 1905 : 		{	// return allocator object for values

	push	ebp
	mov	ebp, esp
	push	ecx
	mov	DWORD PTR [ebp-4], -858993460		; ccccccccH
	mov	DWORD PTR _this$[ebp], ecx

; 1906 : 		return (this->_Alval);

	mov	eax, DWORD PTR _this$[ebp]
	add	eax, 28					; 0000001cH
	push	eax
	mov	ecx, DWORD PTR ___$ReturnUdt$[ebp]
	call	??0?$allocator@D@std@@QAE@ABV01@@Z	; std::allocator<char>::allocator<char>
	mov	eax, DWORD PTR ___$ReturnUdt$[ebp]

; 1907 : 		}

	add	esp, 4
	cmp	ebp, esp
	call	__RTC_CheckEsp
	mov	esp, ebp
	pop	ebp
	ret	4
?get_allocator@?$basic_string@DU?$char_traits@D@std@@V?$allocator@D@2@@std@@QBE?AV?$allocator@D@2@XZ ENDP ; std::basic_string<char,std::char_traits<char>,std::allocator<char> >::get_allocator
_TEXT	ENDS
PUBLIC	?append@?$basic_string@DU?$char_traits@D@std@@V?$allocator@D@2@@std@@QAEAAV12@ABV12@II@Z ; std::basic_string<char,std::char_traits<char>,std::allocator<char> >::append
; Function compile flags: /Odtp /RTCsu
;	COMDAT ?append@?$basic_string@DU?$char_traits@D@std@@V?$allocator@D@2@@std@@QAEAAV12@ABV12@@Z
_TEXT	SEGMENT
_this$ = -4						; size = 4
__Right$ = 8						; size = 4
?append@?$basic_string@DU?$char_traits@D@std@@V?$allocator@D@2@@std@@QAEAAV12@ABV12@@Z PROC ; std::basic_string<char,std::char_traits<char>,std::allocator<char> >::append, COMDAT
; _this$ = ecx

; 792  : 		{	// append _Right

	push	ebp
	mov	ebp, esp
	push	ecx
	mov	DWORD PTR [ebp-4], -858993460		; ccccccccH
	mov	DWORD PTR _this$[ebp], ecx

; 793  : 		return (append(_Right, 0, npos));

	mov	eax, DWORD PTR ?npos@?$basic_string@DU?$char_traits@D@std@@V?$allocator@D@2@@std@@2IB ; std::basic_string<char,std::char_traits<char>,std::allocator<char> >::npos
	push	eax
	push	0
	mov	ecx, DWORD PTR __Right$[ebp]
	push	ecx
	mov	ecx, DWORD PTR _this$[ebp]
	call	?append@?$basic_string@DU?$char_traits@D@std@@V?$allocator@D@2@@std@@QAEAAV12@ABV12@II@Z ; std::basic_string<char,std::char_traits<char>,std::allocator<char> >::append

; 794  : 		}

	add	esp, 4
	cmp	ebp, esp
	call	__RTC_CheckEsp
	mov	esp, ebp
	pop	ebp
	ret	4
?append@?$basic_string@DU?$char_traits@D@std@@V?$allocator@D@2@@std@@QAEAAV12@ABV12@@Z ENDP ; std::basic_string<char,std::char_traits<char>,std::allocator<char> >::append
; Function compile flags: /Odtp /RTCsu
_TEXT	ENDS
;	COMDAT ?assign@?$basic_string@DU?$char_traits@D@std@@V?$allocator@D@2@@std@@QAEAAV12@ABV12@@Z
_TEXT	SEGMENT
_this$ = -4						; size = 4
__Right$ = 8						; size = 4
?assign@?$basic_string@DU?$char_traits@D@std@@V?$allocator@D@2@@std@@QAEAAV12@ABV12@@Z PROC ; std::basic_string<char,std::char_traits<char>,std::allocator<char> >::assign, COMDAT
; _this$ = ecx

; 886  : 		{	// assign _Right

	push	ebp
	mov	ebp, esp
	push	ecx
	mov	DWORD PTR [ebp-4], -858993460		; ccccccccH
	mov	DWORD PTR _this$[ebp], ecx

; 887  : 		return (assign(_Right, 0, npos));

	mov	eax, DWORD PTR ?npos@?$basic_string@DU?$char_traits@D@std@@V?$allocator@D@2@@std@@2IB ; std::basic_string<char,std::char_traits<char>,std::allocator<char> >::npos
	push	eax
	push	0
	mov	ecx, DWORD PTR __Right$[ebp]
	push	ecx
	mov	ecx, DWORD PTR _this$[ebp]
	call	?assign@?$basic_string@DU?$char_traits@D@std@@V?$allocator@D@2@@std@@QAEAAV12@ABV12@II@Z ; std::basic_string<char,std::char_traits<char>,std::allocator<char> >::assign

; 888  : 		}

	add	esp, 4
	cmp	ebp, esp
	call	__RTC_CheckEsp
	mov	esp, ebp
	pop	ebp
	ret	4
?assign@?$basic_string@DU?$char_traits@D@std@@V?$allocator@D@2@@std@@QAEAAV12@ABV12@@Z ENDP ; std::basic_string<char,std::char_traits<char>,std::allocator<char> >::assign
; Function compile flags: /Odtp /RTCsu
_TEXT	ENDS
;	COMDAT ?append@?$basic_string@DU?$char_traits@D@std@@V?$allocator@D@2@@std@@QAEAAV12@ABV12@II@Z
_TEXT	SEGMENT
__Num$ = -8						; size = 4
_this$ = -4						; size = 4
__Right$ = 8						; size = 4
__Roff$ = 12						; size = 4
__Count$ = 16						; size = 4
?append@?$basic_string@DU?$char_traits@D@std@@V?$allocator@D@2@@std@@QAEAAV12@ABV12@II@Z PROC ; std::basic_string<char,std::char_traits<char>,std::allocator<char> >::append, COMDAT
; _this$ = ecx

; 798  : 		{	// append _Right [_Roff, _Roff + _Count)

	push	ebp
	mov	ebp, esp
	sub	esp, 8
	mov	DWORD PTR [ebp-8], -858993460		; ccccccccH
	mov	DWORD PTR [ebp-4], -858993460		; ccccccccH
	mov	DWORD PTR _this$[ebp], ecx

; 799  : 		if (_Right.size() < _Roff)

	mov	ecx, DWORD PTR __Right$[ebp]
	call	?size@?$basic_string@DU?$char_traits@D@std@@V?$allocator@D@2@@std@@QBEIXZ ; std::basic_string<char,std::char_traits<char>,std::allocator<char> >::size
	cmp	eax, DWORD PTR __Roff$[ebp]
	jae	SHORT $LN4@append

; 800  : 			_Xran();	// _Roff off end

	mov	ecx, DWORD PTR _this$[ebp]
	call	?_Xran@?$basic_string@DU?$char_traits@D@std@@V?$allocator@D@2@@std@@QBEXXZ ; std::basic_string<char,std::char_traits<char>,std::allocator<char> >::_Xran
$LN4@append:

; 801  : 		size_type _Num = _Right.size() - _Roff;

	mov	ecx, DWORD PTR __Right$[ebp]
	call	?size@?$basic_string@DU?$char_traits@D@std@@V?$allocator@D@2@@std@@QBEIXZ ; std::basic_string<char,std::char_traits<char>,std::allocator<char> >::size
	sub	eax, DWORD PTR __Roff$[ebp]
	mov	DWORD PTR __Num$[ebp], eax

; 802  : 		if (_Num < _Count)

	mov	eax, DWORD PTR __Num$[ebp]
	cmp	eax, DWORD PTR __Count$[ebp]
	jae	SHORT $LN3@append

; 803  : 			_Count = _Num;	// trim _Count to size

	mov	ecx, DWORD PTR __Num$[ebp]
	mov	DWORD PTR __Count$[ebp], ecx
$LN3@append:

; 804  : 		if (npos - this->_Mysize <= _Count)

	mov	edx, DWORD PTR _this$[ebp]
	mov	eax, DWORD PTR ?npos@?$basic_string@DU?$char_traits@D@std@@V?$allocator@D@2@@std@@2IB ; std::basic_string<char,std::char_traits<char>,std::allocator<char> >::npos
	sub	eax, DWORD PTR [edx+20]
	cmp	eax, DWORD PTR __Count$[ebp]
	ja	SHORT $LN2@append

; 805  : 			_Xlen();	// result too long

	mov	ecx, DWORD PTR _this$[ebp]
	call	?_Xlen@?$basic_string@DU?$char_traits@D@std@@V?$allocator@D@2@@std@@QBEXXZ ; std::basic_string<char,std::char_traits<char>,std::allocator<char> >::_Xlen
$LN2@append:

; 806  : 
; 807  : 		if (0 < _Count && _Grow(_Num = this->_Mysize + _Count))

	cmp	DWORD PTR __Count$[ebp], 0
	jbe	SHORT $LN1@append
	mov	ecx, DWORD PTR _this$[ebp]
	mov	edx, DWORD PTR [ecx+20]
	add	edx, DWORD PTR __Count$[ebp]
	mov	DWORD PTR __Num$[ebp], edx
	push	0
	mov	eax, DWORD PTR __Num$[ebp]
	push	eax
	mov	ecx, DWORD PTR _this$[ebp]
	call	?_Grow@?$basic_string@DU?$char_traits@D@std@@V?$allocator@D@2@@std@@QAE_NI_N@Z ; std::basic_string<char,std::char_traits<char>,std::allocator<char> >::_Grow
	movzx	ecx, al
	test	ecx, ecx
	je	SHORT $LN1@append

; 808  : 			{	// make room and append new stuff
; 809  : 			_Traits::copy(_Myptr() + this->_Mysize,
; 810  : 				_Right._Myptr() + _Roff, _Count);

	mov	edx, DWORD PTR __Count$[ebp]
	push	edx
	mov	ecx, DWORD PTR __Right$[ebp]
	call	?_Myptr@?$basic_string@DU?$char_traits@D@std@@V?$allocator@D@2@@std@@QBEPBDXZ ; std::basic_string<char,std::char_traits<char>,std::allocator<char> >::_Myptr
	add	eax, DWORD PTR __Roff$[ebp]
	push	eax
	mov	ecx, DWORD PTR _this$[ebp]
	call	?_Myptr@?$basic_string@DU?$char_traits@D@std@@V?$allocator@D@2@@std@@QAEPADXZ ; std::basic_string<char,std::char_traits<char>,std::allocator<char> >::_Myptr
	mov	ecx, DWORD PTR _this$[ebp]
	add	eax, DWORD PTR [ecx+20]
	push	eax
	call	?copy@?$char_traits@D@std@@SAPADPADPBDI@Z ; std::char_traits<char>::copy
	add	esp, 12					; 0000000cH

; 811  : 			_Eos(_Num);

	mov	edx, DWORD PTR __Num$[ebp]
	push	edx
	mov	ecx, DWORD PTR _this$[ebp]
	call	?_Eos@?$basic_string@DU?$char_traits@D@std@@V?$allocator@D@2@@std@@QAEXI@Z ; std::basic_string<char,std::char_traits<char>,std::allocator<char> >::_Eos
$LN1@append:

; 812  : 			}
; 813  : 		return (*this);

	mov	eax, DWORD PTR _this$[ebp]
$LN6@append:

; 814  : 		}

	add	esp, 8
	cmp	ebp, esp
	call	__RTC_CheckEsp
	mov	esp, ebp
	pop	ebp
	ret	12					; 0000000cH
?append@?$basic_string@DU?$char_traits@D@std@@V?$allocator@D@2@@std@@QAEAAV12@ABV12@II@Z ENDP ; std::basic_string<char,std::char_traits<char>,std::allocator<char> >::append
_TEXT	ENDS
PUBLIC	??_C@_0CO@CAAAABCN@Attempting?5to?5retrieve?5wrong?5typ@ ; `string'
PUBLIC	??7ios_base@std@@QBE_NXZ			; std::ios_base::operator!
;	COMDAT ??_C@_0CO@CAAAABCN@Attempting?5to?5retrieve?5wrong?5typ@
; File c:\users\teaja\documents\artificial-fun\labravenprojecttest\common\misc\stream_utility_functions.h
CONST	SEGMENT
??_C@_0CO@CAAAABCN@Attempting?5to?5retrieve?5wrong?5typ@ DB 'Attempting t'
	DB	'o retrieve wrong type from stream', 00H	; `string'
; Function compile flags: /Odtp /RTCsu
CONST	ENDS
;	COMDAT ??$GetValueFromStream@H@@YAHAAV?$basic_ifstream@DU?$char_traits@D@std@@@std@@@Z
_TEXT	SEGMENT
$T141658 = -24						; size = 12
_val$ = -8						; size = 4
_stream$ = 8						; size = 4
??$GetValueFromStream@H@@YAHAAV?$basic_ifstream@DU?$char_traits@D@std@@@std@@@Z PROC ; GetValueFromStream<int>, COMDAT

; 46   : {

	push	ebp
	mov	ebp, esp
	sub	esp, 24					; 00000018H
	mov	eax, -858993460				; ccccccccH
	mov	DWORD PTR [ebp-24], eax
	mov	DWORD PTR [ebp-20], eax
	mov	DWORD PTR [ebp-16], eax
	mov	DWORD PTR [ebp-12], eax
	mov	DWORD PTR [ebp-8], eax
	mov	DWORD PTR [ebp-4], eax

; 47   :   T val;
; 48   : 
; 49   :   stream >> val;

	lea	eax, DWORD PTR _val$[ebp]
	push	eax
	mov	ecx, DWORD PTR _stream$[ebp]
	call	??5?$basic_istream@DU?$char_traits@D@std@@@std@@QAEAAV01@AAH@Z ; std::basic_istream<char,std::char_traits<char> >::operator>>

; 50   : 
; 51   :   //make sure it was the correct type
; 52   :   if (!stream)

	mov	ecx, DWORD PTR _stream$[ebp]
	mov	edx, DWORD PTR [ecx]
	mov	ecx, DWORD PTR _stream$[ebp]
	add	ecx, DWORD PTR [edx+4]
	call	??7ios_base@std@@QBE_NXZ		; std::ios_base::operator!
	movzx	eax, al
	test	eax, eax
	je	SHORT $LN1@GetValueFr

; 53   :   {
; 54   :     throw std::runtime_error("Attempting to retrieve wrong type from stream");

	push	OFFSET ??_C@_0CO@CAAAABCN@Attempting?5to?5retrieve?5wrong?5typ@
	lea	ecx, DWORD PTR $T141658[ebp]
	call	??0runtime_error@std@@QAE@PBD@Z		; std::runtime_error::runtime_error
	push	OFFSET __TI2?AVruntime_error@std@@
	lea	ecx, DWORD PTR $T141658[ebp]
	push	ecx
	call	__CxxThrowException@8
$LN1@GetValueFr:

; 55   :   }
; 56   : 
; 57   :   return val;

	mov	eax, DWORD PTR _val$[ebp]
$LN3@GetValueFr:

; 58   : }

	push	edx
	mov	ecx, ebp
	push	eax
	lea	edx, DWORD PTR $LN6@GetValueFr
	call	@_RTC_CheckStackVars@8
	pop	eax
	pop	edx
	add	esp, 24					; 00000018H
	cmp	ebp, esp
	call	__RTC_CheckEsp
	mov	esp, ebp
	pop	ebp
	ret	0
	npad	3
$LN6@GetValueFr:
	DD	1
	DD	$LN5@GetValueFr
$LN5@GetValueFr:
	DD	-8					; fffffff8H
	DD	4
	DD	$LN4@GetValueFr
$LN4@GetValueFr:
	DB	118					; 00000076H
	DB	97					; 00000061H
	DB	108					; 0000006cH
	DB	0
??$GetValueFromStream@H@@YAHAAV?$basic_ifstream@DU?$char_traits@D@std@@@std@@@Z ENDP ; GetValueFromStream<int>
; Function compile flags: /Odtp /RTCsu
; File c:\program files (x86)\microsoft visual studio 10.0\vc\include\xiosbase
_TEXT	ENDS
;	COMDAT ??7ios_base@std@@QBE_NXZ
_TEXT	SEGMENT
_this$ = -4						; size = 4
??7ios_base@std@@QBE_NXZ PROC				; std::ios_base::operator!, COMDAT
; _this$ = ecx

; 305  : 		{	// test if no stream operation has failed

	push	ebp
	mov	ebp, esp
	push	ecx
	mov	DWORD PTR [ebp-4], -858993460		; ccccccccH
	mov	DWORD PTR _this$[ebp], ecx

; 306  : 		return (fail());

	mov	ecx, DWORD PTR _this$[ebp]
	call	?fail@ios_base@std@@QBE_NXZ		; std::ios_base::fail

; 307  : 		}

	add	esp, 4
	cmp	ebp, esp
	call	__RTC_CheckEsp
	mov	esp, ebp
	pop	ebp
	ret	0
??7ios_base@std@@QBE_NXZ ENDP				; std::ios_base::operator!
; Function compile flags: /Odtp /RTCsu
; File c:\program files (x86)\microsoft visual studio 10.0\vc\include\utility
_TEXT	ENDS
;	COMDAT ??$forward@V?$allocator@D@std@@@std@@YA$$QAV?$allocator@D@0@AAV10@@Z
_TEXT	SEGMENT
__Arg$ = 8						; size = 4
??$forward@V?$allocator@D@std@@@std@@YA$$QAV?$allocator@D@0@AAV10@@Z PROC ; std::forward<std::allocator<char> >, COMDAT

; 78   : 	{	// forward _Arg, given explicitly specified type parameter

	push	ebp
	mov	ebp, esp

; 79   : 	return ((_Ty&&)_Arg);

	mov	eax, DWORD PTR __Arg$[ebp]

; 80   : 	}

	pop	ebp
	ret	0
??$forward@V?$allocator@D@std@@@std@@YA$$QAV?$allocator@D@0@AAV10@@Z ENDP ; std::forward<std::allocator<char> >
; Function compile flags: /Odtp /RTCsu
_TEXT	ENDS
;	COMDAT ??$forward@V?$basic_string@DU?$char_traits@D@std@@V?$allocator@D@2@@std@@@std@@YA$$QAV?$basic_string@DU?$char_traits@D@std@@V?$allocator@D@2@@0@AAV10@@Z
_TEXT	SEGMENT
__Arg$ = 8						; size = 4
??$forward@V?$basic_string@DU?$char_traits@D@std@@V?$allocator@D@2@@std@@@std@@YA$$QAV?$basic_string@DU?$char_traits@D@std@@V?$allocator@D@2@@0@AAV10@@Z PROC ; std::forward<std::basic_string<char,std::char_traits<char>,std::allocator<char> > >, COMDAT

; 78   : 	{	// forward _Arg, given explicitly specified type parameter

	push	ebp
	mov	ebp, esp

; 79   : 	return ((_Ty&&)_Arg);

	mov	eax, DWORD PTR __Arg$[ebp]

; 80   : 	}

	pop	ebp
	ret	0
??$forward@V?$basic_string@DU?$char_traits@D@std@@V?$allocator@D@2@@std@@@std@@YA$$QAV?$basic_string@DU?$char_traits@D@std@@V?$allocator@D@2@@0@AAV10@@Z ENDP ; std::forward<std::basic_string<char,std::char_traits<char>,std::allocator<char> > >
; Function compile flags: /Odtp /RTCsu
; File c:\program files (x86)\microsoft visual studio 10.0\vc\include\xutility
_TEXT	ENDS
;	COMDAT ??$_Debug_pointer@D@std@@YAXPBDPB_WI@Z
_TEXT	SEGMENT
__First$ = 8						; size = 4
__File$ = 12						; size = 4
__Line$ = 16						; size = 4
??$_Debug_pointer@D@std@@YAXPBDPB_WI@Z PROC		; std::_Debug_pointer<char>, COMDAT

; 701  : 	{	// test iterator for non-singularity, const pointers

	push	ebp
	mov	ebp, esp

; 702  : 	if (_First == 0)

	cmp	DWORD PTR __First$[ebp], 0
	jne	SHORT $LN2@Debug_poin@2

; 703  : 		_DEBUG_ERROR2("invalid null pointer", _File, _Line);

	mov	eax, DWORD PTR __Line$[ebp]
	push	eax
	mov	ecx, DWORD PTR __File$[ebp]
	push	ecx
	push	OFFSET ??_C@_1CK@EOPGIILJ@?$AAi?$AAn?$AAv?$AAa?$AAl?$AAi?$AAd?$AA?5?$AAn?$AAu?$AAl?$AAl?$AA?5?$AAp?$AAo?$AAi?$AAn?$AAt?$AAe?$AAr?$AA?$AA@
	call	?_Debug_message@std@@YAXPB_W0I@Z	; std::_Debug_message
	add	esp, 12					; 0000000cH
$LN2@Debug_poin@2:

; 704  : 	}

	cmp	ebp, esp
	call	__RTC_CheckEsp
	pop	ebp
	ret	0
??$_Debug_pointer@D@std@@YAXPBDPB_WI@Z ENDP		; std::_Debug_pointer<char>
_TEXT	ENDS
PUBLIC	?_Getcat@?$num_get@DV?$istreambuf_iterator@DU?$char_traits@D@std@@@std@@@std@@SAIPAPBVfacet@locale@2@PBV42@@Z ; std::num_get<char,std::istreambuf_iterator<char,std::char_traits<char> > >::_Getcat
PUBLIC	?_Psave@?$_Facetptr@V?$num_get@DV?$istreambuf_iterator@DU?$char_traits@D@std@@@std@@@std@@@std@@2PBVfacet@locale@2@B ; std::_Facetptr<std::num_get<char,std::istreambuf_iterator<char,std::char_traits<char> > > >::_Psave
;	COMDAT ?_Psave@?$_Facetptr@V?$num_get@DV?$istreambuf_iterator@DU?$char_traits@D@std@@@std@@@std@@@std@@2PBVfacet@locale@2@B
; File c:\program files (x86)\microsoft visual studio 10.0\vc\include\xlocale
_BSS	SEGMENT
?_Psave@?$_Facetptr@V?$num_get@DV?$istreambuf_iterator@DU?$char_traits@D@std@@@std@@@std@@@std@@2PBVfacet@locale@2@B DD 01H DUP (?) ; std::_Facetptr<std::num_get<char,std::istreambuf_iterator<char,std::char_traits<char> > > >::_Psave
_BSS	ENDS
;	COMDAT xdata$x
xdata$x	SEGMENT
__unwindtable$??$use_facet@V?$num_get@DV?$istreambuf_iterator@DU?$char_traits@D@std@@@std@@@std@@@std@@YAABV?$num_get@DV?$istreambuf_iterator@DU?$char_traits@D@std@@@std@@@0@ABVlocale@0@@Z DD 0ffffffffH
	DD	FLAT:__unwindfunclet$??$use_facet@V?$num_get@DV?$istreambuf_iterator@DU?$char_traits@D@std@@@std@@@std@@@std@@YAABV?$num_get@DV?$istreambuf_iterator@DU?$char_traits@D@std@@@std@@@0@ABVlocale@0@@Z$0
__ehfuncinfo$??$use_facet@V?$num_get@DV?$istreambuf_iterator@DU?$char_traits@D@std@@@std@@@std@@@std@@YAABV?$num_get@DV?$istreambuf_iterator@DU?$char_traits@D@std@@@std@@@0@ABVlocale@0@@Z DD 019930522H
	DD	01H
	DD	FLAT:__unwindtable$??$use_facet@V?$num_get@DV?$istreambuf_iterator@DU?$char_traits@D@std@@@std@@@std@@@std@@YAABV?$num_get@DV?$istreambuf_iterator@DU?$char_traits@D@std@@@std@@@0@ABVlocale@0@@Z
	DD	2 DUP(00H)
	DD	2 DUP(00H)
	DD	00H
	DD	01H
; Function compile flags: /Odtp /RTCsu
xdata$x	ENDS
;	COMDAT ??$use_facet@V?$num_get@DV?$istreambuf_iterator@DU?$char_traits@D@std@@@std@@@std@@@std@@YAABV?$num_get@DV?$istreambuf_iterator@DU?$char_traits@D@std@@@std@@@0@ABVlocale@0@@Z
_TEXT	SEGMENT
$T141673 = -64						; size = 4
$T141672 = -60						; size = 12
__Pfmod$136829 = -48					; size = 4
__Pf$136818 = -44					; size = 4
__Id$136817 = -40					; size = 4
__Psave$136805 = -32					; size = 4
__Lock$136804 = -20					; size = 4
__$EHRec$ = -12						; size = 12
__Loc$ = 8						; size = 4
??$use_facet@V?$num_get@DV?$istreambuf_iterator@DU?$char_traits@D@std@@@std@@@std@@@std@@YAABV?$num_get@DV?$istreambuf_iterator@DU?$char_traits@D@std@@@std@@@0@ABVlocale@0@@Z PROC ; std::use_facet<std::num_get<char,std::istreambuf_iterator<char,std::char_traits<char> > > >, COMDAT

; 504  : 	{	// get facet reference from locale

	push	ebp
	mov	ebp, esp
	push	-1
	push	__ehhandler$??$use_facet@V?$num_get@DV?$istreambuf_iterator@DU?$char_traits@D@std@@@std@@@std@@@std@@YAABV?$num_get@DV?$istreambuf_iterator@DU?$char_traits@D@std@@@std@@@0@ABVlocale@0@@Z
	mov	eax, DWORD PTR fs:0
	push	eax
	sub	esp, 52					; 00000034H
	push	edi
	lea	edi, DWORD PTR [ebp-64]
	mov	ecx, 13					; 0000000dH
	mov	eax, -858993460				; ccccccccH
	rep stosd
	mov	eax, DWORD PTR ___security_cookie
	xor	eax, ebp
	push	eax
	lea	eax, DWORD PTR __$EHRec$[ebp]
	mov	DWORD PTR fs:0, eax

; 505  : 	_BEGIN_LOCK(_LOCK_LOCALE)	// the thread lock, make get atomic

	push	0
	lea	ecx, DWORD PTR __Lock$136804[ebp]
	call	??0_Lockit@std@@QAE@H@Z			; std::_Lockit::_Lockit
	mov	DWORD PTR __$EHRec$[ebp+8], 0

; 506  : 		const locale::facet *_Psave =
; 507  : 			_Facetptr<_Facet>::_Psave;	// static pointer to lazy facet

	mov	eax, DWORD PTR ?_Psave@?$_Facetptr@V?$num_get@DV?$istreambuf_iterator@DU?$char_traits@D@std@@@std@@@std@@@std@@2PBVfacet@locale@2@B ; std::_Facetptr<std::num_get<char,std::istreambuf_iterator<char,std::char_traits<char> > > >::_Psave
	mov	DWORD PTR __Psave$136805[ebp], eax

; 508  : 
; 509  : 		size_t _Id = _Facet::id;

	mov	ecx, OFFSET ?id@?$num_get@DV?$istreambuf_iterator@DU?$char_traits@D@std@@@std@@@std@@2V0locale@2@A ; std::num_get<char,std::istreambuf_iterator<char,std::char_traits<char> > >::id
	call	??Bid@locale@std@@QAEIXZ		; std::locale::id::operator unsigned int
	mov	DWORD PTR __Id$136817[ebp], eax

; 510  : 		const locale::facet *_Pf = _Loc._Getfacet(_Id);

	mov	ecx, DWORD PTR __Id$136817[ebp]
	push	ecx
	mov	ecx, DWORD PTR __Loc$[ebp]
	call	?_Getfacet@locale@std@@QBEPBVfacet@12@I@Z ; std::locale::_Getfacet
	mov	DWORD PTR __Pf$136818[ebp], eax

; 511  : 
; 512  : 		if (_Pf != 0)

	cmp	DWORD PTR __Pf$136818[ebp], 0
	je	SHORT $LN6@use_facet@2
	jmp	SHORT $LN5@use_facet@2
$LN6@use_facet@2:

; 513  : 			;	// got facet from locale
; 514  : 		else if (_Psave != 0)

	cmp	DWORD PTR __Psave$136805[ebp], 0
	je	SHORT $LN4@use_facet@2

; 515  : 			_Pf = _Psave;	// lazy facet already allocated

	mov	edx, DWORD PTR __Psave$136805[ebp]
	mov	DWORD PTR __Pf$136818[ebp], edx
	jmp	SHORT $LN5@use_facet@2
$LN4@use_facet@2:

; 516  : 		else if (_Facet::_Getcat(&_Psave, &_Loc) == (size_t)(-1))

	mov	eax, DWORD PTR __Loc$[ebp]
	push	eax
	lea	ecx, DWORD PTR __Psave$136805[ebp]
	push	ecx
	call	?_Getcat@?$num_get@DV?$istreambuf_iterator@DU?$char_traits@D@std@@@std@@@std@@SAIPAPBVfacet@locale@2@PBV42@@Z ; std::num_get<char,std::istreambuf_iterator<char,std::char_traits<char> > >::_Getcat
	add	esp, 8
	cmp	eax, -1
	jne	SHORT $LN2@use_facet@2

; 517  : 
; 518  :  #if _HAS_EXCEPTIONS
; 519  : 
; 520  : 			_THROW_NCEE(bad_cast, _EMPTY_ARGUMENT);	// lazy disallowed

	push	OFFSET ??_C@_08EPJLHIJG@bad?5cast?$AA@
	lea	ecx, DWORD PTR $T141672[ebp]
	call	??0bad_cast@std@@QAE@PBD@Z		; std::bad_cast::bad_cast
	push	OFFSET __TI2?AVbad_cast@std@@
	lea	edx, DWORD PTR $T141672[ebp]
	push	edx
	call	__CxxThrowException@8

; 521  : 
; 522  :  #else /* _HAS_EXCEPTIONS */
; 523  : 			abort();	// lazy disallowed
; 524  :  #endif /* _HAS_EXCEPTIONS */
; 525  : 
; 526  : 		else

	jmp	SHORT $LN5@use_facet@2
$LN2@use_facet@2:

; 527  : 			{	// queue up lazy facet for destruction
; 528  : 			_Pf = _Psave;

	mov	eax, DWORD PTR __Psave$136805[ebp]
	mov	DWORD PTR __Pf$136818[ebp], eax

; 529  : 			_Facetptr<_Facet>::_Psave = _Psave;

	mov	ecx, DWORD PTR __Psave$136805[ebp]
	mov	DWORD PTR ?_Psave@?$_Facetptr@V?$num_get@DV?$istreambuf_iterator@DU?$char_traits@D@std@@@std@@@std@@@std@@2PBVfacet@locale@2@B, ecx ; std::_Facetptr<std::num_get<char,std::istreambuf_iterator<char,std::char_traits<char> > > >::_Psave

; 530  : 
; 531  : 			locale::facet *_Pfmod = (_Facet *)_Psave;

	mov	edx, DWORD PTR __Psave$136805[ebp]
	mov	DWORD PTR __Pfmod$136829[ebp], edx

; 532  : 			_Pfmod->_Incref();

	mov	ecx, DWORD PTR __Pfmod$136829[ebp]
	call	?_Incref@facet@locale@std@@QAEXXZ	; std::locale::facet::_Incref

; 533  : 			_Pfmod->_Register();

	mov	ecx, DWORD PTR __Pfmod$136829[ebp]
	call	?_Register@facet@locale@std@@QAEXXZ	; std::locale::facet::_Register
$LN5@use_facet@2:

; 534  : 			}
; 535  : 
; 536  : 		return ((const _Facet&)(*_Pf));	// should be dynamic_cast

	mov	eax, DWORD PTR __Pf$136818[ebp]
	mov	DWORD PTR $T141673[ebp], eax
	mov	DWORD PTR __$EHRec$[ebp+8], -1
	lea	ecx, DWORD PTR __Lock$136804[ebp]
	call	??1_Lockit@std@@QAE@XZ			; std::_Lockit::~_Lockit
	mov	eax, DWORD PTR $T141673[ebp]
$LN8@use_facet@2:

; 537  : 	_END_LOCK()
; 538  : 	}

	push	edx
	mov	ecx, ebp
	push	eax
	lea	edx, DWORD PTR $LN14@use_facet@2
	call	@_RTC_CheckStackVars@8
	pop	eax
	pop	edx
	mov	ecx, DWORD PTR __$EHRec$[ebp]
	mov	DWORD PTR fs:0, ecx
	pop	ecx
	pop	edi
	add	esp, 64					; 00000040H
	cmp	ebp, esp
	call	__RTC_CheckEsp
	mov	esp, ebp
	pop	ebp
	ret	0
	npad	2
$LN14@use_facet@2:
	DD	2
	DD	$LN13@use_facet@2
$LN13@use_facet@2:
	DD	-20					; ffffffecH
	DD	4
	DD	$LN10@use_facet@2
	DD	-32					; ffffffe0H
	DD	4
	DD	$LN11@use_facet@2
$LN11@use_facet@2:
	DB	95					; 0000005fH
	DB	80					; 00000050H
	DB	115					; 00000073H
	DB	97					; 00000061H
	DB	118					; 00000076H
	DB	101					; 00000065H
	DB	0
$LN10@use_facet@2:
	DB	95					; 0000005fH
	DB	76					; 0000004cH
	DB	111					; 0000006fH
	DB	99					; 00000063H
	DB	107					; 0000006bH
	DB	0
_TEXT	ENDS
;	COMDAT text$x
text$x	SEGMENT
__unwindfunclet$??$use_facet@V?$num_get@DV?$istreambuf_iterator@DU?$char_traits@D@std@@@std@@@std@@@std@@YAABV?$num_get@DV?$istreambuf_iterator@DU?$char_traits@D@std@@@std@@@0@ABVlocale@0@@Z$0:
	lea	ecx, DWORD PTR __Lock$136804[ebp]
	jmp	??1_Lockit@std@@QAE@XZ			; std::_Lockit::~_Lockit
__ehhandler$??$use_facet@V?$num_get@DV?$istreambuf_iterator@DU?$char_traits@D@std@@@std@@@std@@@std@@YAABV?$num_get@DV?$istreambuf_iterator@DU?$char_traits@D@std@@@std@@@0@ABVlocale@0@@Z:
	mov	edx, DWORD PTR [esp+8]
	lea	eax, DWORD PTR [edx+12]
	mov	ecx, DWORD PTR [edx-60]
	xor	ecx, eax
	call	@__security_check_cookie@4
	mov	eax, OFFSET __ehfuncinfo$??$use_facet@V?$num_get@DV?$istreambuf_iterator@DU?$char_traits@D@std@@@std@@@std@@@std@@YAABV?$num_get@DV?$istreambuf_iterator@DU?$char_traits@D@std@@@std@@@0@ABVlocale@0@@Z
	jmp	___CxxFrameHandler3
text$x	ENDS
??$use_facet@V?$num_get@DV?$istreambuf_iterator@DU?$char_traits@D@std@@@std@@@std@@@std@@YAABV?$num_get@DV?$istreambuf_iterator@DU?$char_traits@D@std@@@std@@@0@ABVlocale@0@@Z ENDP ; std::use_facet<std::num_get<char,std::istreambuf_iterator<char,std::char_traits<char> > > >
PUBLIC	??$?8DD@std@@YA_NABV?$allocator@D@0@0@Z		; std::operator==<char,char>
; Function compile flags: /Odtp /RTCsu
; File c:\program files (x86)\microsoft visual studio 10.0\vc\include\xmemory
;	COMDAT ??$?9DD@std@@YA_NABV?$allocator@D@0@0@Z
_TEXT	SEGMENT
__Left$ = 8						; size = 4
__Right$ = 12						; size = 4
??$?9DD@std@@YA_NABV?$allocator@D@0@0@Z PROC		; std::operator!=<char,char>, COMDAT

; 270  : 	{	// test for allocator inequality

	push	ebp
	mov	ebp, esp

; 271  : 	return (!(_Left == _Right));

	mov	eax, DWORD PTR __Right$[ebp]
	push	eax
	mov	ecx, DWORD PTR __Left$[ebp]
	push	ecx
	call	??$?8DD@std@@YA_NABV?$allocator@D@0@0@Z	; std::operator==<char,char>
	add	esp, 8
	movzx	eax, al
	neg	eax
	sbb	eax, eax
	add	eax, 1

; 272  : 	}

	cmp	ebp, esp
	call	__RTC_CheckEsp
	pop	ebp
	ret	0
??$?9DD@std@@YA_NABV?$allocator@D@0@0@Z ENDP		; std::operator!=<char,char>
; Function compile flags: /Odtp /RTCsu
_TEXT	ENDS
;	COMDAT ??$?0D@?$allocator@U_Container_proxy@std@@@std@@QAE@ABV?$allocator@D@1@@Z
_TEXT	SEGMENT
_this$ = -4						; size = 4
___formal$ = 8						; size = 4
??$?0D@?$allocator@U_Container_proxy@std@@@std@@QAE@ABV?$allocator@D@1@@Z PROC ; std::allocator<std::_Container_proxy>::allocator<std::_Container_proxy><char>, COMDAT
; _this$ = ecx

; 170  : 		_ALLOCATOR(const _ALLOCATOR<_Other>&) _THROW0()

	push	ebp
	mov	ebp, esp
	push	ecx
	mov	DWORD PTR [ebp-4], -858993460		; ccccccccH
	mov	DWORD PTR _this$[ebp], ecx

; 171  : 		{	// construct from a related allocator (do nothing)
; 172  : 		}

	mov	eax, DWORD PTR _this$[ebp]
	mov	esp, ebp
	pop	ebp
	ret	4
??$?0D@?$allocator@U_Container_proxy@std@@@std@@QAE@ABV?$allocator@D@1@@Z ENDP ; std::allocator<std::_Container_proxy>::allocator<std::_Container_proxy><char>
_TEXT	ENDS
PUBLIC	?construct@?$allocator@U_Container_proxy@std@@@std@@QAEXPAU_Container_proxy@2@$$QAU32@@Z ; std::allocator<std::_Container_proxy>::construct
PUBLIC	??$forward@U_Container_proxy@std@@@std@@YA$$QAU_Container_proxy@0@AAU10@@Z ; std::forward<std::_Container_proxy>
; Function compile flags: /Odtp /RTCsu
;	COMDAT ??$_Cons_val@V?$allocator@U_Container_proxy@std@@@std@@U_Container_proxy@2@U32@@std@@YAXAAV?$allocator@U_Container_proxy@std@@@0@PAU_Container_proxy@0@$$QAU20@@Z
_TEXT	SEGMENT
__Alval$ = 8						; size = 4
__Pdest$ = 12						; size = 4
__Src$ = 16						; size = 4
??$_Cons_val@V?$allocator@U_Container_proxy@std@@@std@@U_Container_proxy@2@U32@@std@@YAXAAV?$allocator@U_Container_proxy@std@@@0@PAU_Container_proxy@0@$$QAU20@@Z PROC ; std::_Cons_val<std::allocator<std::_Container_proxy>,std::_Container_proxy,std::_Container_proxy>, COMDAT

; 279  : 	{	// construct using allocator

	push	ebp
	mov	ebp, esp

; 280  : 	_Alval.construct(_Pdest, _STD forward<_Ty2>(_Src));

	mov	eax, DWORD PTR __Src$[ebp]
	push	eax
	call	??$forward@U_Container_proxy@std@@@std@@YA$$QAU_Container_proxy@0@AAU10@@Z ; std::forward<std::_Container_proxy>
	add	esp, 4
	push	eax
	mov	ecx, DWORD PTR __Pdest$[ebp]
	push	ecx
	mov	ecx, DWORD PTR __Alval$[ebp]
	call	?construct@?$allocator@U_Container_proxy@std@@@std@@QAEXPAU_Container_proxy@2@$$QAU32@@Z ; std::allocator<std::_Container_proxy>::construct

; 281  : 	}

	cmp	ebp, esp
	call	__RTC_CheckEsp
	pop	ebp
	ret	0
??$_Cons_val@V?$allocator@U_Container_proxy@std@@@std@@U_Container_proxy@2@U32@@std@@YAXAAV?$allocator@U_Container_proxy@std@@@0@PAU_Container_proxy@0@$$QAU20@@Z ENDP ; std::_Cons_val<std::allocator<std::_Container_proxy>,std::_Container_proxy,std::_Container_proxy>
_TEXT	ENDS
PUBLIC	?destroy@?$allocator@U_Container_proxy@std@@@std@@QAEXPAU_Container_proxy@2@@Z ; std::allocator<std::_Container_proxy>::destroy
; Function compile flags: /Odtp /RTCsu
;	COMDAT ??$_Dest_val@V?$allocator@U_Container_proxy@std@@@std@@U_Container_proxy@2@@std@@YAXAAV?$allocator@U_Container_proxy@std@@@0@PAU_Container_proxy@0@@Z
_TEXT	SEGMENT
__Alval$ = 8						; size = 4
__Pdest$ = 12						; size = 4
??$_Dest_val@V?$allocator@U_Container_proxy@std@@@std@@U_Container_proxy@2@@std@@YAXAAV?$allocator@U_Container_proxy@std@@@0@PAU_Container_proxy@0@@Z PROC ; std::_Dest_val<std::allocator<std::_Container_proxy>,std::_Container_proxy>, COMDAT

; 286  : 	{	// destroy using allocator

	push	ebp
	mov	ebp, esp

; 287  : 	_Alval.destroy(_Pdest);

	mov	eax, DWORD PTR __Pdest$[ebp]
	push	eax
	mov	ecx, DWORD PTR __Alval$[ebp]
	call	?destroy@?$allocator@U_Container_proxy@std@@@std@@QAEXPAU_Container_proxy@2@@Z ; std::allocator<std::_Container_proxy>::destroy

; 288  : 	}

	cmp	ebp, esp
	call	__RTC_CheckEsp
	pop	ebp
	ret	0
??$_Dest_val@V?$allocator@U_Container_proxy@std@@@std@@U_Container_proxy@2@@std@@YAXAAV?$allocator@U_Container_proxy@std@@@0@PAU_Container_proxy@0@@Z ENDP ; std::_Dest_val<std::allocator<std::_Container_proxy>,std::_Container_proxy>
_TEXT	ENDS
PUBLIC	__TI2?AVbad_alloc@std@@
PUBLIC	??0bad_alloc@std@@QAE@PBD@Z			; std::bad_alloc::bad_alloc
PUBLIC	??1bad_alloc@std@@UAE@XZ			; std::bad_alloc::~bad_alloc
PUBLIC	__CTA2?AVbad_alloc@std@@
PUBLIC	__CT??_R0?AVbad_alloc@std@@@8??0bad_alloc@std@@QAE@ABV01@@Z12
PUBLIC	??_R0?AVbad_alloc@std@@@8			; std::bad_alloc `RTTI Type Descriptor'
PUBLIC	??0bad_alloc@std@@QAE@ABV01@@Z			; std::bad_alloc::bad_alloc
;	COMDAT ??_R0?AVbad_alloc@std@@@8
_DATA	SEGMENT
??_R0?AVbad_alloc@std@@@8 DD FLAT:??_7type_info@@6B@	; std::bad_alloc `RTTI Type Descriptor'
	DD	00H
	DB	'.?AVbad_alloc@std@@', 00H
_DATA	ENDS
;	COMDAT __CT??_R0?AVbad_alloc@std@@@8??0bad_alloc@std@@QAE@ABV01@@Z12
xdata$x	SEGMENT
__CT??_R0?AVbad_alloc@std@@@8??0bad_alloc@std@@QAE@ABV01@@Z12 DD 00H
	DD	FLAT:??_R0?AVbad_alloc@std@@@8
	DD	00H
	DD	0ffffffffH
	ORG $+4
	DD	0cH
	DD	FLAT:??0bad_alloc@std@@QAE@ABV01@@Z
xdata$x	ENDS
;	COMDAT __CTA2?AVbad_alloc@std@@
xdata$x	SEGMENT
__CTA2?AVbad_alloc@std@@ DD 02H
	DD	FLAT:__CT??_R0?AVbad_alloc@std@@@8??0bad_alloc@std@@QAE@ABV01@@Z12
	DD	FLAT:__CT??_R0?AVexception@std@@@8??0exception@std@@QAE@ABV01@@Z12
xdata$x	ENDS
;	COMDAT __TI2?AVbad_alloc@std@@
xdata$x	SEGMENT
__TI2?AVbad_alloc@std@@ DD 00H
	DD	FLAT:??1bad_alloc@std@@UAE@XZ
	DD	00H
	DD	FLAT:__CTA2?AVbad_alloc@std@@
; Function compile flags: /Odtp /RTCsu
xdata$x	ENDS
;	COMDAT ??$_Allocate@U_Container_proxy@std@@@std@@YAPAU_Container_proxy@0@IPAU10@@Z
_TEXT	SEGMENT
$T141696 = -16						; size = 12
__Ptr$ = -4						; size = 4
__Count$ = 8						; size = 4
___formal$ = 12						; size = 4
??$_Allocate@U_Container_proxy@std@@@std@@YAPAU_Container_proxy@0@IPAU10@@Z PROC ; std::_Allocate<std::_Container_proxy>, COMDAT

; 30   : 	{	// allocate storage for _Count elements of type _Ty

	push	ebp
	mov	ebp, esp
	sub	esp, 16					; 00000010H
	mov	eax, -858993460				; ccccccccH
	mov	DWORD PTR [ebp-16], eax
	mov	DWORD PTR [ebp-12], eax
	mov	DWORD PTR [ebp-8], eax
	mov	DWORD PTR [ebp-4], eax

; 31   : 	void *_Ptr = 0;

	mov	DWORD PTR __Ptr$[ebp], 0

; 32   : 
; 33   : 	if (_Count <= 0)

	cmp	DWORD PTR __Count$[ebp], 0
	ja	SHORT $LN4@Allocate

; 34   : 		_Count = 0;

	mov	DWORD PTR __Count$[ebp], 0

; 35   : 	else if (((_SIZT)(-1) / sizeof (_Ty) < _Count)

	jmp	SHORT $LN3@Allocate
$LN4@Allocate:

; 36   : 		|| (_Ptr = ::operator new(_Count * sizeof (_Ty))) == 0)

	cmp	DWORD PTR __Count$[ebp], 536870911	; 1fffffffH
	ja	SHORT $LN1@Allocate
	mov	eax, DWORD PTR __Count$[ebp]
	shl	eax, 3
	push	eax
	call	??2@YAPAXI@Z				; operator new
	add	esp, 4
	mov	DWORD PTR __Ptr$[ebp], eax
	cmp	DWORD PTR __Ptr$[ebp], 0
	jne	SHORT $LN3@Allocate
$LN1@Allocate:

; 37   : 		_THROW_NCEE(bad_alloc, 0);

	push	0
	lea	ecx, DWORD PTR $T141696[ebp]
	call	??0bad_alloc@std@@QAE@PBD@Z		; std::bad_alloc::bad_alloc
	push	OFFSET __TI2?AVbad_alloc@std@@
	lea	ecx, DWORD PTR $T141696[ebp]
	push	ecx
	call	__CxxThrowException@8
$LN3@Allocate:

; 38   : 
; 39   : 	return ((_Ty _FARQ *)_Ptr);

	mov	eax, DWORD PTR __Ptr$[ebp]
$LN6@Allocate:

; 40   : 	}

	add	esp, 16					; 00000010H
	cmp	ebp, esp
	call	__RTC_CheckEsp
	mov	esp, ebp
	pop	ebp
	ret	0
??$_Allocate@U_Container_proxy@std@@@std@@YAPAU_Container_proxy@0@IPAU10@@Z ENDP ; std::_Allocate<std::_Container_proxy>
_TEXT	ENDS
PUBLIC	??_7bad_alloc@std@@6B@				; std::bad_alloc::`vftable'
PUBLIC	??_R4bad_alloc@std@@6B@				; std::bad_alloc::`RTTI Complete Object Locator'
PUBLIC	??_R3bad_alloc@std@@8				; std::bad_alloc::`RTTI Class Hierarchy Descriptor'
PUBLIC	??_R2bad_alloc@std@@8				; std::bad_alloc::`RTTI Base Class Array'
PUBLIC	??_R1A@?0A@EA@bad_alloc@std@@8			; std::bad_alloc::`RTTI Base Class Descriptor at (0,-1,0,64)'
EXTRN	??_Ebad_alloc@std@@UAEPAXI@Z:PROC		; std::bad_alloc::`vector deleting destructor'
;	COMDAT ??_R1A@?0A@EA@bad_alloc@std@@8
; File c:\program files (x86)\microsoft visual studio 10.0\vc\include\exception
rdata$r	SEGMENT
??_R1A@?0A@EA@bad_alloc@std@@8 DD FLAT:??_R0?AVbad_alloc@std@@@8 ; std::bad_alloc::`RTTI Base Class Descriptor at (0,-1,0,64)'
	DD	01H
	DD	00H
	DD	0ffffffffH
	DD	00H
	DD	040H
	DD	FLAT:??_R3bad_alloc@std@@8
rdata$r	ENDS
;	COMDAT ??_R2bad_alloc@std@@8
rdata$r	SEGMENT
??_R2bad_alloc@std@@8 DD FLAT:??_R1A@?0A@EA@bad_alloc@std@@8 ; std::bad_alloc::`RTTI Base Class Array'
	DD	FLAT:??_R1A@?0A@EA@exception@std@@8
rdata$r	ENDS
;	COMDAT ??_R3bad_alloc@std@@8
rdata$r	SEGMENT
??_R3bad_alloc@std@@8 DD 00H				; std::bad_alloc::`RTTI Class Hierarchy Descriptor'
	DD	00H
	DD	02H
	DD	FLAT:??_R2bad_alloc@std@@8
rdata$r	ENDS
;	COMDAT ??_R4bad_alloc@std@@6B@
rdata$r	SEGMENT
??_R4bad_alloc@std@@6B@ DD 00H				; std::bad_alloc::`RTTI Complete Object Locator'
	DD	00H
	DD	00H
	DD	FLAT:??_R0?AVbad_alloc@std@@@8
	DD	FLAT:??_R3bad_alloc@std@@8
rdata$r	ENDS
;	COMDAT ??_7bad_alloc@std@@6B@
CONST	SEGMENT
??_7bad_alloc@std@@6B@ DD FLAT:??_R4bad_alloc@std@@6B@	; std::bad_alloc::`vftable'
	DD	FLAT:??_Ebad_alloc@std@@UAEPAXI@Z
	DD	FLAT:?what@exception@std@@UBEPBDXZ
; Function compile flags: /Odtp /RTCsu
CONST	ENDS
;	COMDAT ??0bad_alloc@std@@QAE@PBD@Z
_TEXT	SEGMENT
_this$ = -4						; size = 4
__Message$ = 8						; size = 4
??0bad_alloc@std@@QAE@PBD@Z PROC			; std::bad_alloc::bad_alloc, COMDAT
; _this$ = ecx

; 345  : 		{	// construct from message string

	push	ebp
	mov	ebp, esp
	push	ecx
	mov	DWORD PTR [ebp-4], -858993460		; ccccccccH
	mov	DWORD PTR _this$[ebp], ecx
	lea	eax, DWORD PTR __Message$[ebp]
	push	eax
	mov	ecx, DWORD PTR _this$[ebp]
	call	??0exception@std@@QAE@ABQBD@Z		; std::exception::exception
	mov	ecx, DWORD PTR _this$[ebp]
	mov	DWORD PTR [ecx], OFFSET ??_7bad_alloc@std@@6B@

; 346  : 		}

	mov	eax, DWORD PTR _this$[ebp]
	add	esp, 4
	cmp	ebp, esp
	call	__RTC_CheckEsp
	mov	esp, ebp
	pop	ebp
	ret	4
??0bad_alloc@std@@QAE@PBD@Z ENDP			; std::bad_alloc::bad_alloc
; Function compile flags: /Odtp /RTCsu
_TEXT	ENDS
;	COMDAT ??1bad_alloc@std@@UAE@XZ
_TEXT	SEGMENT
_this$ = -4						; size = 4
??1bad_alloc@std@@UAE@XZ PROC				; std::bad_alloc::~bad_alloc, COMDAT
; _this$ = ecx

; 354  : 		{	// destroy the object

	push	ebp
	mov	ebp, esp
	push	ecx
	mov	DWORD PTR [ebp-4], -858993460		; ccccccccH
	mov	DWORD PTR _this$[ebp], ecx
	mov	eax, DWORD PTR _this$[ebp]
	mov	DWORD PTR [eax], OFFSET ??_7bad_alloc@std@@6B@

; 355  : 		}

	mov	ecx, DWORD PTR _this$[ebp]
	call	??1exception@std@@UAE@XZ		; std::exception::~exception
	add	esp, 4
	cmp	ebp, esp
	call	__RTC_CheckEsp
	mov	esp, ebp
	pop	ebp
	ret	0
??1bad_alloc@std@@UAE@XZ ENDP				; std::bad_alloc::~bad_alloc
; Function compile flags: /Odtp /RTCsu
_TEXT	ENDS
;	COMDAT ??_Gbad_alloc@std@@UAEPAXI@Z
_TEXT	SEGMENT
_this$ = -4						; size = 4
___flags$ = 8						; size = 4
??_Gbad_alloc@std@@UAEPAXI@Z PROC			; std::bad_alloc::`scalar deleting destructor', COMDAT
; _this$ = ecx
	push	ebp
	mov	ebp, esp
	push	ecx
	mov	DWORD PTR [ebp-4], -858993460		; ccccccccH
	mov	DWORD PTR _this$[ebp], ecx
	mov	ecx, DWORD PTR _this$[ebp]
	call	??1bad_alloc@std@@UAE@XZ		; std::bad_alloc::~bad_alloc
	mov	eax, DWORD PTR ___flags$[ebp]
	and	eax, 1
	je	SHORT $LN1@scalar@13
	mov	ecx, DWORD PTR _this$[ebp]
	push	ecx
	call	??3@YAXPAX@Z				; operator delete
	add	esp, 4
$LN1@scalar@13:
	mov	eax, DWORD PTR _this$[ebp]
	add	esp, 4
	cmp	ebp, esp
	call	__RTC_CheckEsp
	mov	esp, ebp
	pop	ebp
	ret	4
??_Gbad_alloc@std@@UAEPAXI@Z ENDP			; std::bad_alloc::`scalar deleting destructor'
; Function compile flags: /Odtp /RTCsu
; File c:\program files (x86)\microsoft visual studio 10.0\vc\include\xmemory
_TEXT	ENDS
;	COMDAT ??$_Allocate@D@std@@YAPADIPAD@Z
_TEXT	SEGMENT
$T141705 = -16						; size = 12
__Ptr$ = -4						; size = 4
__Count$ = 8						; size = 4
___formal$ = 12						; size = 4
??$_Allocate@D@std@@YAPADIPAD@Z PROC			; std::_Allocate<char>, COMDAT

; 30   : 	{	// allocate storage for _Count elements of type _Ty

	push	ebp
	mov	ebp, esp
	sub	esp, 16					; 00000010H
	mov	eax, -858993460				; ccccccccH
	mov	DWORD PTR [ebp-16], eax
	mov	DWORD PTR [ebp-12], eax
	mov	DWORD PTR [ebp-8], eax
	mov	DWORD PTR [ebp-4], eax

; 31   : 	void *_Ptr = 0;

	mov	DWORD PTR __Ptr$[ebp], 0

; 32   : 
; 33   : 	if (_Count <= 0)

	cmp	DWORD PTR __Count$[ebp], 0
	ja	SHORT $LN4@Allocate@2

; 34   : 		_Count = 0;

	mov	DWORD PTR __Count$[ebp], 0

; 35   : 	else if (((_SIZT)(-1) / sizeof (_Ty) < _Count)

	jmp	SHORT $LN3@Allocate@2
$LN4@Allocate@2:

; 36   : 		|| (_Ptr = ::operator new(_Count * sizeof (_Ty))) == 0)

	cmp	DWORD PTR __Count$[ebp], -1
	ja	SHORT $LN1@Allocate@2
	mov	eax, DWORD PTR __Count$[ebp]
	push	eax
	call	??2@YAPAXI@Z				; operator new
	add	esp, 4
	mov	DWORD PTR __Ptr$[ebp], eax
	cmp	DWORD PTR __Ptr$[ebp], 0
	jne	SHORT $LN3@Allocate@2
$LN1@Allocate@2:

; 37   : 		_THROW_NCEE(bad_alloc, 0);

	push	0
	lea	ecx, DWORD PTR $T141705[ebp]
	call	??0bad_alloc@std@@QAE@PBD@Z		; std::bad_alloc::bad_alloc
	push	OFFSET __TI2?AVbad_alloc@std@@
	lea	ecx, DWORD PTR $T141705[ebp]
	push	ecx
	call	__CxxThrowException@8
$LN3@Allocate@2:

; 38   : 
; 39   : 	return ((_Ty _FARQ *)_Ptr);

	mov	eax, DWORD PTR __Ptr$[ebp]
$LN6@Allocate@2:

; 40   : 	}

	add	esp, 16					; 00000010H
	cmp	ebp, esp
	call	__RTC_CheckEsp
	mov	esp, ebp
	pop	ebp
	ret	0
??$_Allocate@D@std@@YAPADIPAD@Z ENDP			; std::_Allocate<char>
; Function compile flags: /Odtp /RTCsu
_TEXT	ENDS
;	COMDAT ??0bad_alloc@std@@QAE@ABV01@@Z
_TEXT	SEGMENT
_this$ = -4						; size = 4
___that$ = 8						; size = 4
??0bad_alloc@std@@QAE@ABV01@@Z PROC			; std::bad_alloc::bad_alloc, COMDAT
; _this$ = ecx
	push	ebp
	mov	ebp, esp
	push	ecx
	mov	DWORD PTR [ebp-4], -858993460		; ccccccccH
	mov	DWORD PTR _this$[ebp], ecx
	mov	eax, DWORD PTR ___that$[ebp]
	push	eax
	mov	ecx, DWORD PTR _this$[ebp]
	call	??0exception@std@@QAE@ABV01@@Z		; std::exception::exception
	mov	ecx, DWORD PTR _this$[ebp]
	mov	DWORD PTR [ecx], OFFSET ??_7bad_alloc@std@@6B@
	mov	eax, DWORD PTR _this$[ebp]
	add	esp, 4
	cmp	ebp, esp
	call	__RTC_CheckEsp
	mov	esp, ebp
	pop	ebp
	ret	4
??0bad_alloc@std@@QAE@ABV01@@Z ENDP			; std::bad_alloc::bad_alloc
_TEXT	ENDS
PUBLIC	?append@?$basic_string@DU?$char_traits@D@std@@V?$allocator@D@2@@std@@QAEAAV12@PBD@Z ; std::basic_string<char,std::char_traits<char>,std::allocator<char> >::append
; Function compile flags: /Odtp /RTCsu
; File c:\program files (x86)\microsoft visual studio 10.0\vc\include\xstring
;	COMDAT ??Y?$basic_string@DU?$char_traits@D@std@@V?$allocator@D@2@@std@@QAEAAV01@PBD@Z
_TEXT	SEGMENT
_this$ = -4						; size = 4
__Ptr$ = 8						; size = 4
??Y?$basic_string@DU?$char_traits@D@std@@V?$allocator@D@2@@std@@QAEAAV01@PBD@Z PROC ; std::basic_string<char,std::char_traits<char>,std::allocator<char> >::operator+=, COMDAT
; _this$ = ecx

; 782  : 		{	// append [_Ptr, <null>)

	push	ebp
	mov	ebp, esp
	push	ecx
	mov	DWORD PTR [ebp-4], -858993460		; ccccccccH
	mov	DWORD PTR _this$[ebp], ecx

; 783  : 		return (append(_Ptr));

	mov	eax, DWORD PTR __Ptr$[ebp]
	push	eax
	mov	ecx, DWORD PTR _this$[ebp]
	call	?append@?$basic_string@DU?$char_traits@D@std@@V?$allocator@D@2@@std@@QAEAAV12@PBD@Z ; std::basic_string<char,std::char_traits<char>,std::allocator<char> >::append

; 784  : 		}

	add	esp, 4
	cmp	ebp, esp
	call	__RTC_CheckEsp
	mov	esp, ebp
	pop	ebp
	ret	4
??Y?$basic_string@DU?$char_traits@D@std@@V?$allocator@D@2@@std@@QAEAAV01@PBD@Z ENDP ; std::basic_string<char,std::char_traits<char>,std::allocator<char> >::operator+=
_TEXT	ENDS
PUBLIC	?append@?$basic_string@DU?$char_traits@D@std@@V?$allocator@D@2@@std@@QAEAAV12@PBDI@Z ; std::basic_string<char,std::char_traits<char>,std::allocator<char> >::append
; Function compile flags: /Odtp /RTCsu
;	COMDAT ?append@?$basic_string@DU?$char_traits@D@std@@V?$allocator@D@2@@std@@QAEAAV12@PBD@Z
_TEXT	SEGMENT
_this$ = -4						; size = 4
__Ptr$ = 8						; size = 4
?append@?$basic_string@DU?$char_traits@D@std@@V?$allocator@D@2@@std@@QAEAAV12@PBD@Z PROC ; std::basic_string<char,std::char_traits<char>,std::allocator<char> >::append, COMDAT
; _this$ = ecx

; 838  : 		{	// append [_Ptr, <null>)

	push	ebp
	mov	ebp, esp
	push	ecx
	mov	DWORD PTR [ebp-4], -858993460		; ccccccccH
	mov	DWORD PTR _this$[ebp], ecx

; 839  : 		_DEBUG_POINTER(_Ptr);

	push	839					; 00000347H
	push	OFFSET ??_C@_1IO@FJMIILFL@?$AAc?$AA?3?$AA?2?$AAP?$AAr?$AAo?$AAg?$AAr?$AAa?$AAm?$AA?5?$AAF?$AAi?$AAl?$AAe?$AAs?$AA?5?$AA?$CI?$AAx?$AA8?$AA6?$AA?$CJ?$AA?2?$AAM?$AAi?$AAc?$AAr?$AAo?$AAs?$AAo?$AAf?$AAt@
	mov	eax, DWORD PTR __Ptr$[ebp]
	push	eax
	call	??$_Debug_pointer@D@std@@YAXPBDPB_WI@Z	; std::_Debug_pointer<char>
	add	esp, 12					; 0000000cH

; 840  : 		return (append(_Ptr, _Traits::length(_Ptr)));

	mov	ecx, DWORD PTR __Ptr$[ebp]
	push	ecx
	call	?length@?$char_traits@D@std@@SAIPBD@Z	; std::char_traits<char>::length
	add	esp, 4
	push	eax
	mov	edx, DWORD PTR __Ptr$[ebp]
	push	edx
	mov	ecx, DWORD PTR _this$[ebp]
	call	?append@?$basic_string@DU?$char_traits@D@std@@V?$allocator@D@2@@std@@QAEAAV12@PBDI@Z ; std::basic_string<char,std::char_traits<char>,std::allocator<char> >::append

; 841  : 		}

	add	esp, 4
	cmp	ebp, esp
	call	__RTC_CheckEsp
	mov	esp, ebp
	pop	ebp
	ret	4
?append@?$basic_string@DU?$char_traits@D@std@@V?$allocator@D@2@@std@@QAEAAV12@PBD@Z ENDP ; std::basic_string<char,std::char_traits<char>,std::allocator<char> >::append
; Function compile flags: /Odtp /RTCsu
_TEXT	ENDS
;	COMDAT ?reserve@?$basic_string@DU?$char_traits@D@std@@V?$allocator@D@2@@std@@QAEXI@Z
_TEXT	SEGMENT
__Size$137396 = -8					; size = 4
_this$ = -4						; size = 4
__Newcap$ = 8						; size = 4
?reserve@?$basic_string@DU?$char_traits@D@std@@V?$allocator@D@2@@std@@QAEXI@Z PROC ; std::basic_string<char,std::char_traits<char>,std::allocator<char> >::reserve, COMDAT
; _this$ = ecx

; 1539 : 		{	// determine new minimum length of allocated storage

	push	ebp
	mov	ebp, esp
	sub	esp, 8
	mov	DWORD PTR [ebp-8], -858993460		; ccccccccH
	mov	DWORD PTR [ebp-4], -858993460		; ccccccccH
	mov	DWORD PTR _this$[ebp], ecx

; 1540 : 		if (this->_Mysize <= _Newcap && this->_Myres != _Newcap)

	mov	eax, DWORD PTR _this$[ebp]
	mov	ecx, DWORD PTR [eax+20]
	cmp	ecx, DWORD PTR __Newcap$[ebp]
	ja	SHORT $LN3@reserve
	mov	edx, DWORD PTR _this$[ebp]
	mov	eax, DWORD PTR [edx+24]
	cmp	eax, DWORD PTR __Newcap$[ebp]
	je	SHORT $LN3@reserve

; 1541 : 			{	// change reservation
; 1542 : 			size_type _Size = this->_Mysize;

	mov	ecx, DWORD PTR _this$[ebp]
	mov	edx, DWORD PTR [ecx+20]
	mov	DWORD PTR __Size$137396[ebp], edx

; 1543 : 			if (_Grow(_Newcap, true))

	push	1
	mov	eax, DWORD PTR __Newcap$[ebp]
	push	eax
	mov	ecx, DWORD PTR _this$[ebp]
	call	?_Grow@?$basic_string@DU?$char_traits@D@std@@V?$allocator@D@2@@std@@QAE_NI_N@Z ; std::basic_string<char,std::char_traits<char>,std::allocator<char> >::_Grow
	movzx	ecx, al
	test	ecx, ecx
	je	SHORT $LN3@reserve

; 1544 : 				_Eos(_Size);

	mov	edx, DWORD PTR __Size$137396[ebp]
	push	edx
	mov	ecx, DWORD PTR _this$[ebp]
	call	?_Eos@?$basic_string@DU?$char_traits@D@std@@V?$allocator@D@2@@std@@QAEXI@Z ; std::basic_string<char,std::char_traits<char>,std::allocator<char> >::_Eos
$LN3@reserve:

; 1545 : 			}
; 1546 : 		}

	add	esp, 8
	cmp	ebp, esp
	call	__RTC_CheckEsp
	mov	esp, ebp
	pop	ebp
	ret	4
?reserve@?$basic_string@DU?$char_traits@D@std@@V?$allocator@D@2@@std@@QAEXI@Z ENDP ; std::basic_string<char,std::char_traits<char>,std::allocator<char> >::reserve
_TEXT	ENDS
PUBLIC	??0?$num_get@DV?$istreambuf_iterator@DU?$char_traits@D@std@@@std@@@std@@QAE@ABV_Locinfo@1@I@Z ; std::num_get<char,std::istreambuf_iterator<char,std::char_traits<char> > >::num_get<char,std::istreambuf_iterator<char,std::char_traits<char> > >
PUBLIC	??_C@_0EH@GHEBKCIB@c?3?2Program?5Files?5?$CIx86?$CJ?2Microsoft@ ; `string'
;	COMDAT ??_C@_0EH@GHEBKCIB@c?3?2Program?5Files?5?$CIx86?$CJ?2Microsoft@
; File c:\program files (x86)\microsoft visual studio 10.0\vc\include\xlocnum
CONST	SEGMENT
??_C@_0EH@GHEBKCIB@c?3?2Program?5Files?5?$CIx86?$CJ?2Microsoft@ DB 'c:\Pr'
	DB	'ogram Files (x86)\Microsoft Visual Studio 10.0\VC\include\xlo'
	DB	'cnum', 00H					; `string'
CONST	ENDS
;	COMDAT xdata$x
xdata$x	SEGMENT
__unwindtable$?_Getcat@?$num_get@DV?$istreambuf_iterator@DU?$char_traits@D@std@@@std@@@std@@SAIPAPBVfacet@locale@2@PBV42@@Z DD 0ffffffffH
	DD	FLAT:__unwindfunclet$?_Getcat@?$num_get@DV?$istreambuf_iterator@DU?$char_traits@D@std@@@std@@@std@@SAIPAPBVfacet@locale@2@PBV42@@Z$0
	DD	00H
	DD	FLAT:__unwindfunclet$?_Getcat@?$num_get@DV?$istreambuf_iterator@DU?$char_traits@D@std@@@std@@@std@@SAIPAPBVfacet@locale@2@PBV42@@Z$1
	DD	0ffffffffH
	DD	FLAT:__unwindfunclet$?_Getcat@?$num_get@DV?$istreambuf_iterator@DU?$char_traits@D@std@@@std@@@std@@SAIPAPBVfacet@locale@2@PBV42@@Z$1
__ehfuncinfo$?_Getcat@?$num_get@DV?$istreambuf_iterator@DU?$char_traits@D@std@@@std@@@std@@SAIPAPBVfacet@locale@2@PBV42@@Z DD 019930522H
	DD	03H
	DD	FLAT:__unwindtable$?_Getcat@?$num_get@DV?$istreambuf_iterator@DU?$char_traits@D@std@@@std@@@std@@SAIPAPBVfacet@locale@2@PBV42@@Z
	DD	2 DUP(00H)
	DD	2 DUP(00H)
	DD	00H
	DD	01H
; Function compile flags: /Odtp /RTCsu
xdata$x	ENDS
;	COMDAT ?_Getcat@?$num_get@DV?$istreambuf_iterator@DU?$char_traits@D@std@@@std@@@std@@SAIPAPBVfacet@locale@2@PBV42@@Z
_TEXT	SEGMENT
tv92 = -76						; size = 4
tv133 = -72						; size = 4
tv138 = -68						; size = 4
$T141724 = -64						; size = 4
$T141720 = -60						; size = 36
$T141719 = -24						; size = 4
$T141718 = -20						; size = 4
$T141717 = -16						; size = 4
__$EHRec$ = -12						; size = 12
__Ppf$ = 8						; size = 4
__Ploc$ = 12						; size = 4
?_Getcat@?$num_get@DV?$istreambuf_iterator@DU?$char_traits@D@std@@@std@@@std@@SAIPAPBVfacet@locale@2@PBV42@@Z PROC ; std::num_get<char,std::istreambuf_iterator<char,std::char_traits<char> > >::_Getcat, COMDAT

; 243  : 		{	// return locale category mask and construct standard facet

	push	ebp
	mov	ebp, esp
	push	-1
	push	__ehhandler$?_Getcat@?$num_get@DV?$istreambuf_iterator@DU?$char_traits@D@std@@@std@@@std@@SAIPAPBVfacet@locale@2@PBV42@@Z
	mov	eax, DWORD PTR fs:0
	push	eax
	sub	esp, 64					; 00000040H
	push	edi
	lea	edi, DWORD PTR [ebp-76]
	mov	ecx, 16					; 00000010H
	mov	eax, -858993460				; ccccccccH
	rep stosd
	mov	eax, DWORD PTR ___security_cookie
	xor	eax, ebp
	push	eax
	lea	eax, DWORD PTR __$EHRec$[ebp]
	mov	DWORD PTR fs:0, eax
	mov	DWORD PTR $T141724[ebp], 0

; 244  : 		if (_Ppf != 0 && *_Ppf == 0)

	cmp	DWORD PTR __Ppf$[ebp], 0
	je	$LN1@Getcat@2
	mov	eax, DWORD PTR __Ppf$[ebp]
	cmp	DWORD PTR [eax], 0
	jne	$LN1@Getcat@2

; 245  : 			*_Ppf = _NEW_CRT num_get<_Elem, _InIt>(
; 246  : 				_Locinfo(_Ploc->c_str()));

	call	?_DebugHeapTag_func@std@@YAABU_DebugHeapTag_t@1@XZ ; std::_DebugHeapTag_func
	mov	DWORD PTR $T141719[ebp], eax
	push	245					; 000000f5H
	push	OFFSET ??_C@_0EH@GHEBKCIB@c?3?2Program?5Files?5?$CIx86?$CJ?2Microsoft@
	mov	ecx, DWORD PTR $T141719[ebp]
	push	ecx
	push	16					; 00000010H
	call	??2facet@locale@std@@SAPAXIABU_DebugHeapTag_t@2@PADH@Z ; std::locale::facet::operator new
	add	esp, 16					; 00000010H
	mov	DWORD PTR $T141718[ebp], eax
	mov	DWORD PTR __$EHRec$[ebp+8], 0
	cmp	DWORD PTR $T141718[ebp], 0
	je	SHORT $LN4@Getcat@2
	push	0
	mov	ecx, DWORD PTR __Ploc$[ebp]
	call	?c_str@locale@std@@QBEPBDXZ		; std::locale::c_str
	push	eax
	lea	ecx, DWORD PTR $T141720[ebp]
	call	??0_Locinfo@std@@QAE@PBD@Z		; std::_Locinfo::_Locinfo
	mov	DWORD PTR tv138[ebp], eax
	mov	edx, DWORD PTR tv138[ebp]
	mov	DWORD PTR tv133[ebp], edx
	mov	BYTE PTR __$EHRec$[ebp+8], 1
	mov	eax, DWORD PTR $T141724[ebp]
	or	eax, 1
	mov	DWORD PTR $T141724[ebp], eax
	mov	ecx, DWORD PTR tv133[ebp]
	push	ecx
	mov	ecx, DWORD PTR $T141718[ebp]
	call	??0?$num_get@DV?$istreambuf_iterator@DU?$char_traits@D@std@@@std@@@std@@QAE@ABV_Locinfo@1@I@Z ; std::num_get<char,std::istreambuf_iterator<char,std::char_traits<char> > >::num_get<char,std::istreambuf_iterator<char,std::char_traits<char> > >
	mov	DWORD PTR tv92[ebp], eax
	jmp	SHORT $LN5@Getcat@2
$LN4@Getcat@2:
	mov	DWORD PTR tv92[ebp], 0
$LN5@Getcat@2:
	mov	edx, DWORD PTR tv92[ebp]
	mov	DWORD PTR $T141717[ebp], edx
	mov	DWORD PTR __$EHRec$[ebp+8], 2
	mov	eax, DWORD PTR __Ppf$[ebp]
	mov	ecx, DWORD PTR $T141717[ebp]
	mov	DWORD PTR [eax], ecx
	mov	DWORD PTR __$EHRec$[ebp+8], -1
	mov	edx, DWORD PTR $T141724[ebp]
	and	edx, 1
	je	SHORT $LN1@Getcat@2
	and	DWORD PTR $T141724[ebp], -2		; fffffffeH
	lea	ecx, DWORD PTR $T141720[ebp]
	call	??1_Locinfo@std@@QAE@XZ			; std::_Locinfo::~_Locinfo
$LN1@Getcat@2:

; 247  : 		return (_X_NUMERIC);

	mov	eax, 4

; 248  : 		}

	mov	ecx, DWORD PTR __$EHRec$[ebp]
	mov	DWORD PTR fs:0, ecx
	pop	ecx
	pop	edi
	add	esp, 76					; 0000004cH
	cmp	ebp, esp
	call	__RTC_CheckEsp
	mov	esp, ebp
	pop	ebp
	ret	0
_TEXT	ENDS
;	COMDAT text$x
text$x	SEGMENT
__unwindfunclet$?_Getcat@?$num_get@DV?$istreambuf_iterator@DU?$char_traits@D@std@@@std@@@std@@SAIPAPBVfacet@locale@2@PBV42@@Z$0:
	push	245					; 000000f5H
	push	OFFSET ??_C@_0EH@GHEBKCIB@c?3?2Program?5Files?5?$CIx86?$CJ?2Microsoft@
	mov	eax, DWORD PTR $T141719[ebp]
	push	eax
	mov	ecx, DWORD PTR $T141718[ebp]
	push	ecx
	call	??3facet@locale@std@@SAXPAXABU_DebugHeapTag_t@2@PADH@Z ; std::locale::facet::operator delete
	add	esp, 16					; 00000010H
	ret	0
__unwindfunclet$?_Getcat@?$num_get@DV?$istreambuf_iterator@DU?$char_traits@D@std@@@std@@@std@@SAIPAPBVfacet@locale@2@PBV42@@Z$1:
	mov	eax, DWORD PTR $T141724[ebp]
	and	eax, 1
	je	$LN8@Getcat@2
	and	DWORD PTR $T141724[ebp], -2		; fffffffeH
	lea	ecx, DWORD PTR $T141720[ebp]
	jmp	??1_Locinfo@std@@QAE@XZ			; std::_Locinfo::~_Locinfo
$LN8@Getcat@2:
	ret	0
__ehhandler$?_Getcat@?$num_get@DV?$istreambuf_iterator@DU?$char_traits@D@std@@@std@@@std@@SAIPAPBVfacet@locale@2@PBV42@@Z:
	mov	edx, DWORD PTR [esp+8]
	lea	eax, DWORD PTR [edx+12]
	mov	ecx, DWORD PTR [edx-72]
	xor	ecx, eax
	call	@__security_check_cookie@4
	mov	eax, OFFSET __ehfuncinfo$?_Getcat@?$num_get@DV?$istreambuf_iterator@DU?$char_traits@D@std@@@std@@@std@@SAIPAPBVfacet@locale@2@PBV42@@Z
	jmp	___CxxFrameHandler3
text$x	ENDS
?_Getcat@?$num_get@DV?$istreambuf_iterator@DU?$char_traits@D@std@@@std@@@std@@SAIPAPBVfacet@locale@2@PBV42@@Z ENDP ; std::num_get<char,std::istreambuf_iterator<char,std::char_traits<char> > >::_Getcat
PUBLIC	??3@YAXPAX0@Z					; operator delete
PUBLIC	??2@YAPAXIPAX@Z					; operator new
;	COMDAT xdata$x
; File c:\program files (x86)\microsoft visual studio 10.0\vc\include\xmemory
xdata$x	SEGMENT
__unwindtable$?construct@?$allocator@U_Container_proxy@std@@@std@@QAEXPAU_Container_proxy@2@$$QAU32@@Z DD 0ffffffffH
	DD	FLAT:__unwindfunclet$?construct@?$allocator@U_Container_proxy@std@@@std@@QAEXPAU_Container_proxy@2@$$QAU32@@Z$0
__ehfuncinfo$?construct@?$allocator@U_Container_proxy@std@@@std@@QAEXPAU_Container_proxy@2@$$QAU32@@Z DD 019930522H
	DD	01H
	DD	FLAT:__unwindtable$?construct@?$allocator@U_Container_proxy@std@@@std@@QAEXPAU_Container_proxy@2@$$QAU32@@Z
	DD	2 DUP(00H)
	DD	2 DUP(00H)
	DD	00H
	DD	01H
; Function compile flags: /Odtp /RTCsu
xdata$x	ENDS
;	COMDAT ?construct@?$allocator@U_Container_proxy@std@@@std@@QAEXPAU_Container_proxy@2@$$QAU32@@Z
_TEXT	SEGMENT
tv74 = -28						; size = 4
$T141737 = -24						; size = 4
$T141736 = -20						; size = 4
_this$ = -16						; size = 4
__$EHRec$ = -12						; size = 12
__Ptr$ = 8						; size = 4
__Val$ = 12						; size = 4
?construct@?$allocator@U_Container_proxy@std@@@std@@QAEXPAU_Container_proxy@2@$$QAU32@@Z PROC ; std::allocator<std::_Container_proxy>::construct, COMDAT
; _this$ = ecx

; 201  : 		{	// construct object at _Ptr with value _Val

	push	ebp
	mov	ebp, esp
	push	-1
	push	__ehhandler$?construct@?$allocator@U_Container_proxy@std@@@std@@QAEXPAU_Container_proxy@2@$$QAU32@@Z
	mov	eax, DWORD PTR fs:0
	push	eax
	sub	esp, 16					; 00000010H
	mov	eax, -858993460				; ccccccccH
	mov	DWORD PTR [ebp-28], eax
	mov	DWORD PTR [ebp-24], eax
	mov	DWORD PTR [ebp-20], eax
	mov	DWORD PTR [ebp-16], eax
	mov	eax, DWORD PTR ___security_cookie
	xor	eax, ebp
	push	eax
	lea	eax, DWORD PTR __$EHRec$[ebp]
	mov	DWORD PTR fs:0, eax
	mov	DWORD PTR _this$[ebp], ecx

; 202  : 		::new ((void _FARQ *)_Ptr) _Ty(_STD forward<_Ty>(_Val));

	mov	eax, DWORD PTR __Ptr$[ebp]
	push	eax
	push	8
	call	??2@YAPAXIPAX@Z				; operator new
	add	esp, 8
	mov	DWORD PTR $T141737[ebp], eax
	mov	DWORD PTR __$EHRec$[ebp+8], 0
	cmp	DWORD PTR $T141737[ebp], 0
	je	SHORT $LN3@construct
	mov	ecx, DWORD PTR __Val$[ebp]
	push	ecx
	call	??$forward@U_Container_proxy@std@@@std@@YA$$QAU_Container_proxy@0@AAU10@@Z ; std::forward<std::_Container_proxy>
	add	esp, 4
	mov	edx, DWORD PTR [eax]
	mov	eax, DWORD PTR [eax+4]
	mov	ecx, DWORD PTR $T141737[ebp]
	mov	DWORD PTR [ecx], edx
	mov	DWORD PTR [ecx+4], eax
	mov	edx, DWORD PTR $T141737[ebp]
	mov	DWORD PTR tv74[ebp], edx
	jmp	SHORT $LN4@construct
$LN3@construct:
	mov	DWORD PTR tv74[ebp], 0
$LN4@construct:
	mov	eax, DWORD PTR tv74[ebp]
	mov	DWORD PTR $T141736[ebp], eax
	mov	DWORD PTR __$EHRec$[ebp+8], -1

; 203  : 		}

	mov	ecx, DWORD PTR __$EHRec$[ebp]
	mov	DWORD PTR fs:0, ecx
	pop	ecx
	add	esp, 28					; 0000001cH
	cmp	ebp, esp
	call	__RTC_CheckEsp
	mov	esp, ebp
	pop	ebp
	ret	8
_TEXT	ENDS
;	COMDAT text$x
text$x	SEGMENT
__unwindfunclet$?construct@?$allocator@U_Container_proxy@std@@@std@@QAEXPAU_Container_proxy@2@$$QAU32@@Z$0:
	mov	eax, DWORD PTR __Ptr$[ebp]
	push	eax
	mov	ecx, DWORD PTR $T141737[ebp]
	push	ecx
	call	??3@YAXPAX0@Z				; operator delete
	add	esp, 8
	ret	0
__ehhandler$?construct@?$allocator@U_Container_proxy@std@@@std@@QAEXPAU_Container_proxy@2@$$QAU32@@Z:
	mov	edx, DWORD PTR [esp+8]
	lea	eax, DWORD PTR [edx+12]
	mov	ecx, DWORD PTR [edx-20]
	xor	ecx, eax
	call	@__security_check_cookie@4
	mov	eax, OFFSET __ehfuncinfo$?construct@?$allocator@U_Container_proxy@std@@@std@@QAEXPAU_Container_proxy@2@$$QAU32@@Z
	jmp	___CxxFrameHandler3
text$x	ENDS
?construct@?$allocator@U_Container_proxy@std@@@std@@QAEXPAU_Container_proxy@2@$$QAU32@@Z ENDP ; std::allocator<std::_Container_proxy>::construct
; Function compile flags: /Odtp /RTCsu
; File c:\program files (x86)\microsoft visual studio 10.0\vc\include\new
;	COMDAT ??2@YAPAXIPAX@Z
_TEXT	SEGMENT
___formal$ = 8						; size = 4
__Where$ = 12						; size = 4
??2@YAPAXIPAX@Z PROC					; operator new, COMDAT

; 56   : 	{	// construct array with placement at _Where

	push	ebp
	mov	ebp, esp

; 57   : 	return (_Where);

	mov	eax, DWORD PTR __Where$[ebp]

; 58   : 	}

	pop	ebp
	ret	0
??2@YAPAXIPAX@Z ENDP					; operator new
; Function compile flags: /Odtp /RTCsu
_TEXT	ENDS
;	COMDAT ??3@YAXPAX0@Z
_TEXT	SEGMENT
___formal$ = 8						; size = 4
___formal$ = 12						; size = 4
??3@YAXPAX0@Z PROC					; operator delete, COMDAT

; 61   : 	{	// delete if placement new fails

	push	ebp
	mov	ebp, esp

; 62   : 	}

	pop	ebp
	ret	0
??3@YAXPAX0@Z ENDP					; operator delete
_TEXT	ENDS
PUBLIC	??$_Destroy@U_Container_proxy@std@@@std@@YAXPAU_Container_proxy@0@@Z ; std::_Destroy<std::_Container_proxy>
; Function compile flags: /Odtp /RTCsu
; File c:\program files (x86)\microsoft visual studio 10.0\vc\include\xmemory
;	COMDAT ?destroy@?$allocator@U_Container_proxy@std@@@std@@QAEXPAU_Container_proxy@2@@Z
_TEXT	SEGMENT
_this$ = -4						; size = 4
__Ptr$ = 8						; size = 4
?destroy@?$allocator@U_Container_proxy@std@@@std@@QAEXPAU_Container_proxy@2@@Z PROC ; std::allocator<std::_Container_proxy>::destroy, COMDAT
; _this$ = ecx

; 212  : 		{	// destroy object at _Ptr

	push	ebp
	mov	ebp, esp
	push	ecx
	mov	DWORD PTR [ebp-4], -858993460		; ccccccccH
	mov	DWORD PTR _this$[ebp], ecx

; 213  : 		_Destroy(_Ptr);

	mov	eax, DWORD PTR __Ptr$[ebp]
	push	eax
	call	??$_Destroy@U_Container_proxy@std@@@std@@YAXPAU_Container_proxy@0@@Z ; std::_Destroy<std::_Container_proxy>
	add	esp, 4

; 214  : 		}

	add	esp, 4
	cmp	ebp, esp
	call	__RTC_CheckEsp
	mov	esp, ebp
	pop	ebp
	ret	4
?destroy@?$allocator@U_Container_proxy@std@@@std@@QAEXPAU_Container_proxy@2@@Z ENDP ; std::allocator<std::_Container_proxy>::destroy
; Function compile flags: /Odtp /RTCsu
; File c:\program files (x86)\microsoft visual studio 10.0\vc\include\xstring
_TEXT	ENDS
;	COMDAT ?append@?$basic_string@DU?$char_traits@D@std@@V?$allocator@D@2@@std@@QAEAAV12@PBDI@Z
_TEXT	SEGMENT
__Num$ = -8						; size = 4
_this$ = -4						; size = 4
__Ptr$ = 8						; size = 4
__Count$ = 12						; size = 4
?append@?$basic_string@DU?$char_traits@D@std@@V?$allocator@D@2@@std@@QAEAAV12@PBDI@Z PROC ; std::basic_string<char,std::char_traits<char>,std::allocator<char> >::append, COMDAT
; _this$ = ecx

; 817  : 		{	// append [_Ptr, _Ptr + _Count)

	push	ebp
	mov	ebp, esp
	sub	esp, 8
	mov	DWORD PTR [ebp-8], -858993460		; ccccccccH
	mov	DWORD PTR [ebp-4], -858993460		; ccccccccH
	mov	DWORD PTR _this$[ebp], ecx

; 818  :  #if _ITERATOR_DEBUG_LEVEL == 2
; 819  : 		if (_Count != 0)

	cmp	DWORD PTR __Count$[ebp], 0
	je	SHORT $LN4@append@2

; 820  : 			_DEBUG_POINTER(_Ptr);

	push	820					; 00000334H
	push	OFFSET ??_C@_1IO@FJMIILFL@?$AAc?$AA?3?$AA?2?$AAP?$AAr?$AAo?$AAg?$AAr?$AAa?$AAm?$AA?5?$AAF?$AAi?$AAl?$AAe?$AAs?$AA?5?$AA?$CI?$AAx?$AA8?$AA6?$AA?$CJ?$AA?2?$AAM?$AAi?$AAc?$AAr?$AAo?$AAs?$AAo?$AAf?$AAt@
	mov	eax, DWORD PTR __Ptr$[ebp]
	push	eax
	call	??$_Debug_pointer@D@std@@YAXPBDPB_WI@Z	; std::_Debug_pointer<char>
	add	esp, 12					; 0000000cH
$LN4@append@2:

; 821  :  #endif /* _ITERATOR_DEBUG_LEVEL == 2 */
; 822  : 
; 823  : 		if (_Inside(_Ptr))

	mov	ecx, DWORD PTR __Ptr$[ebp]
	push	ecx
	mov	ecx, DWORD PTR _this$[ebp]
	call	?_Inside@?$basic_string@DU?$char_traits@D@std@@V?$allocator@D@2@@std@@QAE_NPBD@Z ; std::basic_string<char,std::char_traits<char>,std::allocator<char> >::_Inside
	movzx	edx, al
	test	edx, edx
	je	SHORT $LN3@append@2

; 824  : 			return (append(*this, _Ptr - _Myptr(), _Count));	// substring

	mov	eax, DWORD PTR __Count$[ebp]
	push	eax
	mov	ecx, DWORD PTR _this$[ebp]
	call	?_Myptr@?$basic_string@DU?$char_traits@D@std@@V?$allocator@D@2@@std@@QAEPADXZ ; std::basic_string<char,std::char_traits<char>,std::allocator<char> >::_Myptr
	mov	ecx, DWORD PTR __Ptr$[ebp]
	sub	ecx, eax
	push	ecx
	mov	edx, DWORD PTR _this$[ebp]
	push	edx
	mov	ecx, DWORD PTR _this$[ebp]
	call	?append@?$basic_string@DU?$char_traits@D@std@@V?$allocator@D@2@@std@@QAEAAV12@ABV12@II@Z ; std::basic_string<char,std::char_traits<char>,std::allocator<char> >::append
	jmp	SHORT $LN6@append@2
$LN3@append@2:

; 825  : 		if (npos - this->_Mysize <= _Count)

	mov	eax, DWORD PTR _this$[ebp]
	or	ecx, -1
	sub	ecx, DWORD PTR [eax+20]
	cmp	ecx, DWORD PTR __Count$[ebp]
	ja	SHORT $LN2@append@2

; 826  : 			_Xlen();	// result too long

	mov	ecx, DWORD PTR _this$[ebp]
	call	?_Xlen@?$basic_string@DU?$char_traits@D@std@@V?$allocator@D@2@@std@@QBEXXZ ; std::basic_string<char,std::char_traits<char>,std::allocator<char> >::_Xlen
$LN2@append@2:

; 827  : 
; 828  : 		size_type _Num;
; 829  : 		if (0 < _Count && _Grow(_Num = this->_Mysize + _Count))

	cmp	DWORD PTR __Count$[ebp], 0
	jbe	SHORT $LN1@append@2
	mov	edx, DWORD PTR _this$[ebp]
	mov	eax, DWORD PTR [edx+20]
	add	eax, DWORD PTR __Count$[ebp]
	mov	DWORD PTR __Num$[ebp], eax
	push	0
	mov	ecx, DWORD PTR __Num$[ebp]
	push	ecx
	mov	ecx, DWORD PTR _this$[ebp]
	call	?_Grow@?$basic_string@DU?$char_traits@D@std@@V?$allocator@D@2@@std@@QAE_NI_N@Z ; std::basic_string<char,std::char_traits<char>,std::allocator<char> >::_Grow
	movzx	edx, al
	test	edx, edx
	je	SHORT $LN1@append@2

; 830  : 			{	// make room and append new stuff
; 831  : 			_Traits::copy(_Myptr() + this->_Mysize, _Ptr, _Count);

	mov	eax, DWORD PTR __Count$[ebp]
	push	eax
	mov	ecx, DWORD PTR __Ptr$[ebp]
	push	ecx
	mov	ecx, DWORD PTR _this$[ebp]
	call	?_Myptr@?$basic_string@DU?$char_traits@D@std@@V?$allocator@D@2@@std@@QAEPADXZ ; std::basic_string<char,std::char_traits<char>,std::allocator<char> >::_Myptr
	mov	edx, DWORD PTR _this$[ebp]
	add	eax, DWORD PTR [edx+20]
	push	eax
	call	?copy@?$char_traits@D@std@@SAPADPADPBDI@Z ; std::char_traits<char>::copy
	add	esp, 12					; 0000000cH

; 832  : 			_Eos(_Num);

	mov	eax, DWORD PTR __Num$[ebp]
	push	eax
	mov	ecx, DWORD PTR _this$[ebp]
	call	?_Eos@?$basic_string@DU?$char_traits@D@std@@V?$allocator@D@2@@std@@QAEXI@Z ; std::basic_string<char,std::char_traits<char>,std::allocator<char> >::_Eos
$LN1@append@2:

; 833  : 			}
; 834  : 		return (*this);

	mov	eax, DWORD PTR _this$[ebp]
$LN6@append@2:

; 835  : 		}

	add	esp, 8
	cmp	ebp, esp
	call	__RTC_CheckEsp
	mov	esp, ebp
	pop	ebp
	ret	8
?append@?$basic_string@DU?$char_traits@D@std@@V?$allocator@D@2@@std@@QAEAAV12@PBDI@Z ENDP ; std::basic_string<char,std::char_traits<char>,std::allocator<char> >::append
_TEXT	ENDS
PUBLIC	?_Init@?$num_get@DV?$istreambuf_iterator@DU?$char_traits@D@std@@@std@@@std@@IAEXABV_Locinfo@2@@Z ; std::num_get<char,std::istreambuf_iterator<char,std::char_traits<char> > >::_Init
PUBLIC	??_7?$num_get@DV?$istreambuf_iterator@DU?$char_traits@D@std@@@std@@@std@@6B@ ; std::num_get<char,std::istreambuf_iterator<char,std::char_traits<char> > >::`vftable'
PUBLIC	??_R4?$num_get@DV?$istreambuf_iterator@DU?$char_traits@D@std@@@std@@@std@@6B@ ; std::num_get<char,std::istreambuf_iterator<char,std::char_traits<char> > >::`RTTI Complete Object Locator'
PUBLIC	??_R0?AV?$num_get@DV?$istreambuf_iterator@DU?$char_traits@D@std@@@std@@@std@@@8 ; std::num_get<char,std::istreambuf_iterator<char,std::char_traits<char> > > `RTTI Type Descriptor'
PUBLIC	??_R3?$num_get@DV?$istreambuf_iterator@DU?$char_traits@D@std@@@std@@@std@@8 ; std::num_get<char,std::istreambuf_iterator<char,std::char_traits<char> > >::`RTTI Class Hierarchy Descriptor'
PUBLIC	??_R2?$num_get@DV?$istreambuf_iterator@DU?$char_traits@D@std@@@std@@@std@@8 ; std::num_get<char,std::istreambuf_iterator<char,std::char_traits<char> > >::`RTTI Base Class Array'
PUBLIC	??_R1A@?0A@EA@?$num_get@DV?$istreambuf_iterator@DU?$char_traits@D@std@@@std@@@std@@8 ; std::num_get<char,std::istreambuf_iterator<char,std::char_traits<char> > >::`RTTI Base Class Descriptor at (0,-1,0,64)'
PUBLIC	?do_get@?$num_get@DV?$istreambuf_iterator@DU?$char_traits@D@std@@@std@@@std@@MBE?AV?$istreambuf_iterator@DU?$char_traits@D@std@@@2@V32@0AAVios_base@2@AAHAAPAX@Z ; std::num_get<char,std::istreambuf_iterator<char,std::char_traits<char> > >::do_get
PUBLIC	?do_get@?$num_get@DV?$istreambuf_iterator@DU?$char_traits@D@std@@@std@@@std@@MBE?AV?$istreambuf_iterator@DU?$char_traits@D@std@@@2@V32@0AAVios_base@2@AAHAAO@Z ; std::num_get<char,std::istreambuf_iterator<char,std::char_traits<char> > >::do_get
PUBLIC	?do_get@?$num_get@DV?$istreambuf_iterator@DU?$char_traits@D@std@@@std@@@std@@MBE?AV?$istreambuf_iterator@DU?$char_traits@D@std@@@2@V32@0AAVios_base@2@AAHAAN@Z ; std::num_get<char,std::istreambuf_iterator<char,std::char_traits<char> > >::do_get
PUBLIC	?do_get@?$num_get@DV?$istreambuf_iterator@DU?$char_traits@D@std@@@std@@@std@@MBE?AV?$istreambuf_iterator@DU?$char_traits@D@std@@@2@V32@0AAVios_base@2@AAHAAM@Z ; std::num_get<char,std::istreambuf_iterator<char,std::char_traits<char> > >::do_get
PUBLIC	?do_get@?$num_get@DV?$istreambuf_iterator@DU?$char_traits@D@std@@@std@@@std@@MBE?AV?$istreambuf_iterator@DU?$char_traits@D@std@@@2@V32@0AAVios_base@2@AAHAA_K@Z ; std::num_get<char,std::istreambuf_iterator<char,std::char_traits<char> > >::do_get
PUBLIC	?do_get@?$num_get@DV?$istreambuf_iterator@DU?$char_traits@D@std@@@std@@@std@@MBE?AV?$istreambuf_iterator@DU?$char_traits@D@std@@@2@V32@0AAVios_base@2@AAHAA_J@Z ; std::num_get<char,std::istreambuf_iterator<char,std::char_traits<char> > >::do_get
PUBLIC	?do_get@?$num_get@DV?$istreambuf_iterator@DU?$char_traits@D@std@@@std@@@std@@MBE?AV?$istreambuf_iterator@DU?$char_traits@D@std@@@2@V32@0AAVios_base@2@AAHAAK@Z ; std::num_get<char,std::istreambuf_iterator<char,std::char_traits<char> > >::do_get
PUBLIC	?do_get@?$num_get@DV?$istreambuf_iterator@DU?$char_traits@D@std@@@std@@@std@@MBE?AV?$istreambuf_iterator@DU?$char_traits@D@std@@@2@V32@0AAVios_base@2@AAHAAJ@Z ; std::num_get<char,std::istreambuf_iterator<char,std::char_traits<char> > >::do_get
PUBLIC	?do_get@?$num_get@DV?$istreambuf_iterator@DU?$char_traits@D@std@@@std@@@std@@MBE?AV?$istreambuf_iterator@DU?$char_traits@D@std@@@2@V32@0AAVios_base@2@AAHAAI@Z ; std::num_get<char,std::istreambuf_iterator<char,std::char_traits<char> > >::do_get
PUBLIC	?do_get@?$num_get@DV?$istreambuf_iterator@DU?$char_traits@D@std@@@std@@@std@@MBE?AV?$istreambuf_iterator@DU?$char_traits@D@std@@@2@V32@0AAVios_base@2@AAHAAG@Z ; std::num_get<char,std::istreambuf_iterator<char,std::char_traits<char> > >::do_get
PUBLIC	?do_get@?$num_get@DV?$istreambuf_iterator@DU?$char_traits@D@std@@@std@@@std@@MBE?AV?$istreambuf_iterator@DU?$char_traits@D@std@@@2@V32@0AAVios_base@2@AAHAA_N@Z ; std::num_get<char,std::istreambuf_iterator<char,std::char_traits<char> > >::do_get
EXTRN	??_E?$num_get@DV?$istreambuf_iterator@DU?$char_traits@D@std@@@std@@@std@@MAEPAXI@Z:PROC ; std::num_get<char,std::istreambuf_iterator<char,std::char_traits<char> > >::`vector deleting destructor'
;	COMDAT ??_R1A@?0A@EA@?$num_get@DV?$istreambuf_iterator@DU?$char_traits@D@std@@@std@@@std@@8
; File c:\program files (x86)\microsoft visual studio 10.0\vc\include\xlocnum
rdata$r	SEGMENT
??_R1A@?0A@EA@?$num_get@DV?$istreambuf_iterator@DU?$char_traits@D@std@@@std@@@std@@8 DD FLAT:??_R0?AV?$num_get@DV?$istreambuf_iterator@DU?$char_traits@D@std@@@std@@@std@@@8 ; std::num_get<char,std::istreambuf_iterator<char,std::char_traits<char> > >::`RTTI Base Class Descriptor at (0,-1,0,64)'
	DD	01H
	DD	00H
	DD	0ffffffffH
	DD	00H
	DD	040H
	DD	FLAT:??_R3?$num_get@DV?$istreambuf_iterator@DU?$char_traits@D@std@@@std@@@std@@8
rdata$r	ENDS
;	COMDAT ??_R2?$num_get@DV?$istreambuf_iterator@DU?$char_traits@D@std@@@std@@@std@@8
rdata$r	SEGMENT
??_R2?$num_get@DV?$istreambuf_iterator@DU?$char_traits@D@std@@@std@@@std@@8 DD FLAT:??_R1A@?0A@EA@?$num_get@DV?$istreambuf_iterator@DU?$char_traits@D@std@@@std@@@std@@8 ; std::num_get<char,std::istreambuf_iterator<char,std::char_traits<char> > >::`RTTI Base Class Array'
	DD	FLAT:??_R1A@?0A@EA@facet@locale@std@@8
rdata$r	ENDS
;	COMDAT ??_R3?$num_get@DV?$istreambuf_iterator@DU?$char_traits@D@std@@@std@@@std@@8
rdata$r	SEGMENT
??_R3?$num_get@DV?$istreambuf_iterator@DU?$char_traits@D@std@@@std@@@std@@8 DD 00H ; std::num_get<char,std::istreambuf_iterator<char,std::char_traits<char> > >::`RTTI Class Hierarchy Descriptor'
	DD	00H
	DD	02H
	DD	FLAT:??_R2?$num_get@DV?$istreambuf_iterator@DU?$char_traits@D@std@@@std@@@std@@8
rdata$r	ENDS
;	COMDAT ??_R0?AV?$num_get@DV?$istreambuf_iterator@DU?$char_traits@D@std@@@std@@@std@@@8
_DATA	SEGMENT
??_R0?AV?$num_get@DV?$istreambuf_iterator@DU?$char_traits@D@std@@@std@@@std@@@8 DD FLAT:??_7type_info@@6B@ ; std::num_get<char,std::istreambuf_iterator<char,std::char_traits<char> > > `RTTI Type Descriptor'
	DD	00H
	DB	'.?AV?$num_get@DV?$istreambuf_iterator@DU?$char_traits@D@'
	DB	'std@@@std@@@std@@', 00H
_DATA	ENDS
;	COMDAT ??_R4?$num_get@DV?$istreambuf_iterator@DU?$char_traits@D@std@@@std@@@std@@6B@
rdata$r	SEGMENT
??_R4?$num_get@DV?$istreambuf_iterator@DU?$char_traits@D@std@@@std@@@std@@6B@ DD 00H ; std::num_get<char,std::istreambuf_iterator<char,std::char_traits<char> > >::`RTTI Complete Object Locator'
	DD	00H
	DD	00H
	DD	FLAT:??_R0?AV?$num_get@DV?$istreambuf_iterator@DU?$char_traits@D@std@@@std@@@std@@@8
	DD	FLAT:??_R3?$num_get@DV?$istreambuf_iterator@DU?$char_traits@D@std@@@std@@@std@@8
rdata$r	ENDS
;	COMDAT ??_7?$num_get@DV?$istreambuf_iterator@DU?$char_traits@D@std@@@std@@@std@@6B@
CONST	SEGMENT
??_7?$num_get@DV?$istreambuf_iterator@DU?$char_traits@D@std@@@std@@@std@@6B@ DD FLAT:??_R4?$num_get@DV?$istreambuf_iterator@DU?$char_traits@D@std@@@std@@@std@@6B@ ; std::num_get<char,std::istreambuf_iterator<char,std::char_traits<char> > >::`vftable'
	DD	FLAT:??_E?$num_get@DV?$istreambuf_iterator@DU?$char_traits@D@std@@@std@@@std@@MAEPAXI@Z
	DD	FLAT:?do_get@?$num_get@DV?$istreambuf_iterator@DU?$char_traits@D@std@@@std@@@std@@MBE?AV?$istreambuf_iterator@DU?$char_traits@D@std@@@2@V32@0AAVios_base@2@AAHAAPAX@Z
	DD	FLAT:?do_get@?$num_get@DV?$istreambuf_iterator@DU?$char_traits@D@std@@@std@@@std@@MBE?AV?$istreambuf_iterator@DU?$char_traits@D@std@@@2@V32@0AAVios_base@2@AAHAAO@Z
	DD	FLAT:?do_get@?$num_get@DV?$istreambuf_iterator@DU?$char_traits@D@std@@@std@@@std@@MBE?AV?$istreambuf_iterator@DU?$char_traits@D@std@@@2@V32@0AAVios_base@2@AAHAAN@Z
	DD	FLAT:?do_get@?$num_get@DV?$istreambuf_iterator@DU?$char_traits@D@std@@@std@@@std@@MBE?AV?$istreambuf_iterator@DU?$char_traits@D@std@@@2@V32@0AAVios_base@2@AAHAAM@Z
	DD	FLAT:?do_get@?$num_get@DV?$istreambuf_iterator@DU?$char_traits@D@std@@@std@@@std@@MBE?AV?$istreambuf_iterator@DU?$char_traits@D@std@@@2@V32@0AAVios_base@2@AAHAA_K@Z
	DD	FLAT:?do_get@?$num_get@DV?$istreambuf_iterator@DU?$char_traits@D@std@@@std@@@std@@MBE?AV?$istreambuf_iterator@DU?$char_traits@D@std@@@2@V32@0AAVios_base@2@AAHAA_J@Z
	DD	FLAT:?do_get@?$num_get@DV?$istreambuf_iterator@DU?$char_traits@D@std@@@std@@@std@@MBE?AV?$istreambuf_iterator@DU?$char_traits@D@std@@@2@V32@0AAVios_base@2@AAHAAK@Z
	DD	FLAT:?do_get@?$num_get@DV?$istreambuf_iterator@DU?$char_traits@D@std@@@std@@@std@@MBE?AV?$istreambuf_iterator@DU?$char_traits@D@std@@@2@V32@0AAVios_base@2@AAHAAJ@Z
	DD	FLAT:?do_get@?$num_get@DV?$istreambuf_iterator@DU?$char_traits@D@std@@@std@@@std@@MBE?AV?$istreambuf_iterator@DU?$char_traits@D@std@@@2@V32@0AAVios_base@2@AAHAAI@Z
	DD	FLAT:?do_get@?$num_get@DV?$istreambuf_iterator@DU?$char_traits@D@std@@@std@@@std@@MBE?AV?$istreambuf_iterator@DU?$char_traits@D@std@@@2@V32@0AAVios_base@2@AAHAAG@Z
	DD	FLAT:?do_get@?$num_get@DV?$istreambuf_iterator@DU?$char_traits@D@std@@@std@@@std@@MBE?AV?$istreambuf_iterator@DU?$char_traits@D@std@@@2@V32@0AAVios_base@2@AAHAA_N@Z
CONST	ENDS
;	COMDAT xdata$x
xdata$x	SEGMENT
__unwindtable$??0?$num_get@DV?$istreambuf_iterator@DU?$char_traits@D@std@@@std@@@std@@QAE@ABV_Locinfo@1@I@Z DD 0ffffffffH
	DD	FLAT:__unwindfunclet$??0?$num_get@DV?$istreambuf_iterator@DU?$char_traits@D@std@@@std@@@std@@QAE@ABV_Locinfo@1@I@Z$0
__ehfuncinfo$??0?$num_get@DV?$istreambuf_iterator@DU?$char_traits@D@std@@@std@@@std@@QAE@ABV_Locinfo@1@I@Z DD 019930522H
	DD	01H
	DD	FLAT:__unwindtable$??0?$num_get@DV?$istreambuf_iterator@DU?$char_traits@D@std@@@std@@@std@@QAE@ABV_Locinfo@1@I@Z
	DD	2 DUP(00H)
	DD	2 DUP(00H)
	DD	00H
	DD	01H
; Function compile flags: /Odtp /RTCsu
xdata$x	ENDS
;	COMDAT ??0?$num_get@DV?$istreambuf_iterator@DU?$char_traits@D@std@@@std@@@std@@QAE@ABV_Locinfo@1@I@Z
_TEXT	SEGMENT
_this$ = -16						; size = 4
__$EHRec$ = -12						; size = 12
__Lobj$ = 8						; size = 4
__Refs$ = 12						; size = 4
??0?$num_get@DV?$istreambuf_iterator@DU?$char_traits@D@std@@@std@@@std@@QAE@ABV_Locinfo@1@I@Z PROC ; std::num_get<char,std::istreambuf_iterator<char,std::char_traits<char> > >::num_get<char,std::istreambuf_iterator<char,std::char_traits<char> > >, COMDAT
; _this$ = ecx

; 275  : 		{	// construct from specified locale

	push	ebp
	mov	ebp, esp
	push	-1
	push	__ehhandler$??0?$num_get@DV?$istreambuf_iterator@DU?$char_traits@D@std@@@std@@@std@@QAE@ABV_Locinfo@1@I@Z
	mov	eax, DWORD PTR fs:0
	push	eax
	push	ecx
	mov	DWORD PTR [ebp-16], -858993460		; ccccccccH
	mov	eax, DWORD PTR ___security_cookie
	xor	eax, ebp
	push	eax
	lea	eax, DWORD PTR __$EHRec$[ebp]
	mov	DWORD PTR fs:0, eax
	mov	DWORD PTR _this$[ebp], ecx
	mov	eax, DWORD PTR __Refs$[ebp]
	push	eax
	mov	ecx, DWORD PTR _this$[ebp]
	call	??0facet@locale@std@@IAE@I@Z		; std::locale::facet::facet
	mov	DWORD PTR __$EHRec$[ebp+8], 0
	mov	ecx, DWORD PTR _this$[ebp]
	mov	DWORD PTR [ecx], OFFSET ??_7?$num_get@DV?$istreambuf_iterator@DU?$char_traits@D@std@@@std@@@std@@6B@

; 276  : 		_Init(_Lobj);

	mov	edx, DWORD PTR __Lobj$[ebp]
	push	edx
	mov	ecx, DWORD PTR _this$[ebp]
	call	?_Init@?$num_get@DV?$istreambuf_iterator@DU?$char_traits@D@std@@@std@@@std@@IAEXABV_Locinfo@2@@Z ; std::num_get<char,std::istreambuf_iterator<char,std::char_traits<char> > >::_Init

; 277  : 		}

	mov	DWORD PTR __$EHRec$[ebp+8], -1
	mov	eax, DWORD PTR _this$[ebp]
	mov	ecx, DWORD PTR __$EHRec$[ebp]
	mov	DWORD PTR fs:0, ecx
	pop	ecx
	add	esp, 16					; 00000010H
	cmp	ebp, esp
	call	__RTC_CheckEsp
	mov	esp, ebp
	pop	ebp
	ret	8
_TEXT	ENDS
;	COMDAT text$x
text$x	SEGMENT
__unwindfunclet$??0?$num_get@DV?$istreambuf_iterator@DU?$char_traits@D@std@@@std@@@std@@QAE@ABV_Locinfo@1@I@Z$0:
	mov	ecx, DWORD PTR _this$[ebp]
	jmp	??1facet@locale@std@@UAE@XZ		; std::locale::facet::~facet
__ehhandler$??0?$num_get@DV?$istreambuf_iterator@DU?$char_traits@D@std@@@std@@@std@@QAE@ABV_Locinfo@1@I@Z:
	mov	edx, DWORD PTR [esp+8]
	lea	eax, DWORD PTR [edx+12]
	mov	ecx, DWORD PTR [edx-8]
	xor	ecx, eax
	call	@__security_check_cookie@4
	mov	eax, OFFSET __ehfuncinfo$??0?$num_get@DV?$istreambuf_iterator@DU?$char_traits@D@std@@@std@@@std@@QAE@ABV_Locinfo@1@I@Z
	jmp	___CxxFrameHandler3
text$x	ENDS
??0?$num_get@DV?$istreambuf_iterator@DU?$char_traits@D@std@@@std@@@std@@QAE@ABV_Locinfo@1@I@Z ENDP ; std::num_get<char,std::istreambuf_iterator<char,std::char_traits<char> > >::num_get<char,std::istreambuf_iterator<char,std::char_traits<char> > >
PUBLIC	??$?8DU?$char_traits@D@std@@@std@@YA_NABV?$istreambuf_iterator@DU?$char_traits@D@std@@@0@0@Z ; std::operator==<char,std::char_traits<char> >
PUBLIC	?_Getifld@?$num_get@DV?$istreambuf_iterator@DU?$char_traits@D@std@@@std@@@std@@ABAHPADAAV?$istreambuf_iterator@DU?$char_traits@D@std@@@2@1HABVlocale@2@@Z ; std::num_get<char,std::istreambuf_iterator<char,std::char_traits<char> > >::_Getifld
PUBLIC	??$_Getloctxt@DV?$istreambuf_iterator@DU?$char_traits@D@std@@@std@@@std@@YAHAAV?$istreambuf_iterator@DU?$char_traits@D@std@@@0@0IPBD@Z ; std::_Getloctxt<char,std::istreambuf_iterator<char,std::char_traits<char> > >
PUBLIC	?truename@?$numpunct@D@std@@QBE?AV?$basic_string@DU?$char_traits@D@std@@V?$allocator@D@2@@2@XZ ; std::numpunct<char>::truename
PUBLIC	??Y?$basic_string@DU?$char_traits@D@std@@V?$allocator@D@2@@std@@QAEAAV01@D@Z ; std::basic_string<char,std::char_traits<char>,std::allocator<char> >::operator+=
PUBLIC	?falsename@?$numpunct@D@std@@QBE?AV?$basic_string@DU?$char_traits@D@std@@V?$allocator@D@2@@2@XZ ; std::numpunct<char>::falsename
PUBLIC	??0?$basic_string@DU?$char_traits@D@std@@V?$allocator@D@2@@std@@QAE@ID@Z ; std::basic_string<char,std::char_traits<char>,std::allocator<char> >::basic_string<char,std::char_traits<char>,std::allocator<char> >
PUBLIC	??$use_facet@V?$numpunct@D@std@@@std@@YAABV?$numpunct@D@0@ABVlocale@0@@Z ; std::use_facet<std::numpunct<char> >
PUBLIC	??$_Debug_range@V?$istreambuf_iterator@DU?$char_traits@D@std@@@std@@@std@@YAXV?$istreambuf_iterator@DU?$char_traits@D@std@@@0@0PB_WI@Z ; std::_Debug_range<std::istreambuf_iterator<char,std::char_traits<char> > >
PUBLIC	??_C@_1IO@NAGBLLMA@?$AAc?$AA?3?$AA?2?$AAP?$AAr?$AAo?$AAg?$AAr?$AAa?$AAm?$AA?5?$AAF?$AAi?$AAl?$AAe?$AAs?$AA?5?$AA?$CI?$AAx?$AA8?$AA6?$AA?$CJ?$AA?2?$AAM?$AAi?$AAc?$AAr?$AAo?$AAs?$AAo?$AAf?$AAt@ ; `string'
PUBLIC	__$ArrayPad$
EXTRN	__Stoulx:PROC
;	COMDAT ??_C@_1IO@NAGBLLMA@?$AAc?$AA?3?$AA?2?$AAP?$AAr?$AAo?$AAg?$AAr?$AAa?$AAm?$AA?5?$AAF?$AAi?$AAl?$AAe?$AAs?$AA?5?$AA?$CI?$AAx?$AA8?$AA6?$AA?$CJ?$AA?2?$AAM?$AAi?$AAc?$AAr?$AAo?$AAs?$AAo?$AAf?$AAt@
CONST	SEGMENT
??_C@_1IO@NAGBLLMA@?$AAc?$AA?3?$AA?2?$AAP?$AAr?$AAo?$AAg?$AAr?$AAa?$AAm?$AA?5?$AAF?$AAi?$AAl?$AAe?$AAs?$AA?5?$AA?$CI?$AAx?$AA8?$AA6?$AA?$CJ?$AA?2?$AAM?$AAi?$AAc?$AAr?$AAo?$AAs?$AAo?$AAf?$AAt@ DB 'c'
	DB	00H, ':', 00H, '\', 00H, 'P', 00H, 'r', 00H, 'o', 00H, 'g', 00H
	DB	'r', 00H, 'a', 00H, 'm', 00H, ' ', 00H, 'F', 00H, 'i', 00H, 'l'
	DB	00H, 'e', 00H, 's', 00H, ' ', 00H, '(', 00H, 'x', 00H, '8', 00H
	DB	'6', 00H, ')', 00H, '\', 00H, 'M', 00H, 'i', 00H, 'c', 00H, 'r'
	DB	00H, 'o', 00H, 's', 00H, 'o', 00H, 'f', 00H, 't', 00H, ' ', 00H
	DB	'V', 00H, 'i', 00H, 's', 00H, 'u', 00H, 'a', 00H, 'l', 00H, ' '
	DB	00H, 'S', 00H, 't', 00H, 'u', 00H, 'd', 00H, 'i', 00H, 'o', 00H
	DB	' ', 00H, '1', 00H, '0', 00H, '.', 00H, '0', 00H, '\', 00H, 'V'
	DB	00H, 'C', 00H, '\', 00H, 'i', 00H, 'n', 00H, 'c', 00H, 'l', 00H
	DB	'u', 00H, 'd', 00H, 'e', 00H, '\', 00H, 'x', 00H, 'l', 00H, 'o'
	DB	00H, 'c', 00H, 'n', 00H, 'u', 00H, 'm', 00H, 00H, 00H ; `string'
CONST	ENDS
;	COMDAT xdata$x
xdata$x	SEGMENT
__ehfuncinfo$?do_get@?$num_get@DV?$istreambuf_iterator@DU?$char_traits@D@std@@@std@@@std@@MBE?AV?$istreambuf_iterator@DU?$char_traits@D@std@@@2@V32@0AAVios_base@2@AAHAA_N@Z DD 019930522H
	DD	05H
	DD	FLAT:__unwindtable$?do_get@?$num_get@DV?$istreambuf_iterator@DU?$char_traits@D@std@@@std@@@std@@MBE?AV?$istreambuf_iterator@DU?$char_traits@D@std@@@2@V32@0AAVios_base@2@AAHAA_N@Z
	DD	2 DUP(00H)
	DD	2 DUP(00H)
	DD	00H
	DD	01H
__unwindtable$?do_get@?$num_get@DV?$istreambuf_iterator@DU?$char_traits@D@std@@@std@@@std@@MBE?AV?$istreambuf_iterator@DU?$char_traits@D@std@@@2@V32@0AAVios_base@2@AAHAA_N@Z DD 0ffffffffH
	DD	FLAT:__unwindfunclet$?do_get@?$num_get@DV?$istreambuf_iterator@DU?$char_traits@D@std@@@std@@@std@@MBE?AV?$istreambuf_iterator@DU?$char_traits@D@std@@@2@V32@0AAVios_base@2@AAHAA_N@Z$0
	DD	0ffffffffH
	DD	FLAT:__unwindfunclet$?do_get@?$num_get@DV?$istreambuf_iterator@DU?$char_traits@D@std@@@std@@@std@@MBE?AV?$istreambuf_iterator@DU?$char_traits@D@std@@@2@V32@0AAVios_base@2@AAHAA_N@Z$1
	DD	01H
	DD	FLAT:__unwindfunclet$?do_get@?$num_get@DV?$istreambuf_iterator@DU?$char_traits@D@std@@@std@@@std@@MBE?AV?$istreambuf_iterator@DU?$char_traits@D@std@@@2@V32@0AAVios_base@2@AAHAA_N@Z$2
	DD	01H
	DD	FLAT:__unwindfunclet$?do_get@?$num_get@DV?$istreambuf_iterator@DU?$char_traits@D@std@@@std@@@std@@MBE?AV?$istreambuf_iterator@DU?$char_traits@D@std@@@2@V32@0AAVios_base@2@AAHAA_N@Z$3
	DD	0ffffffffH
	DD	FLAT:__unwindfunclet$?do_get@?$num_get@DV?$istreambuf_iterator@DU?$char_traits@D@std@@@std@@@std@@MBE?AV?$istreambuf_iterator@DU?$char_traits@D@std@@@2@V32@0AAVios_base@2@AAHAA_N@Z$4
; Function compile flags: /Odtp /RTCsu
xdata$x	ENDS
;	COMDAT ?do_get@?$num_get@DV?$istreambuf_iterator@DU?$char_traits@D@std@@@std@@@std@@MBE?AV?$istreambuf_iterator@DU?$char_traits@D@std@@@2@V32@0AAVios_base@2@AAHAA_N@Z
_TEXT	SEGMENT
tv180 = -240						; size = 4
tv183 = -236						; size = 4
tv178 = -232						; size = 4
tv182 = -228						; size = 4
tv176 = -224						; size = 4
tv80 = -220						; size = 4
tv173 = -216						; size = 4
tv181 = -212						; size = 4
$T141768 = -208						; size = 4
$T141767 = -204						; size = 4
__Ulo$134879 = -200					; size = 4
__Errno$134878 = -192					; size = 4
__Ep$134877 = -180					; size = 4
__Ac$134876 = -168					; size = 32
$T134865 = -132						; size = 32
$T134863 = -100						; size = 32
__Str$134807 = -64					; size = 32
__Punct_fac$134798 = -28				; size = 4
__Ans$ = -24						; size = 4
_this$ = -20						; size = 4
__$ArrayPad$ = -16					; size = 4
__$EHRec$ = -12						; size = 12
___$ReturnUdt$ = 8					; size = 4
__First$ = 12						; size = 8
__Last$ = 20						; size = 8
__Iosbase$ = 28						; size = 4
__State$ = 32						; size = 4
__Val$ = 36						; size = 4
?do_get@?$num_get@DV?$istreambuf_iterator@DU?$char_traits@D@std@@@std@@@std@@MBE?AV?$istreambuf_iterator@DU?$char_traits@D@std@@@2@V32@0AAVios_base@2@AAHAA_N@Z PROC ; std::num_get<char,std::istreambuf_iterator<char,std::char_traits<char> > >::do_get, COMDAT
; _this$ = ecx

; 365  : 		{	// get bool from [_First, _Last) into _Val

	push	ebp
	mov	ebp, esp
	push	-1
	push	__ehhandler$?do_get@?$num_get@DV?$istreambuf_iterator@DU?$char_traits@D@std@@@std@@@std@@MBE?AV?$istreambuf_iterator@DU?$char_traits@D@std@@@2@V32@0AAVios_base@2@AAHAA_N@Z
	mov	eax, DWORD PTR fs:0
	push	eax
	sub	esp, 228				; 000000e4H
	push	edi
	push	ecx
	lea	edi, DWORD PTR [ebp-240]
	mov	ecx, 57					; 00000039H
	mov	eax, -858993460				; ccccccccH
	rep stosd
	pop	ecx
	mov	eax, DWORD PTR ___security_cookie
	xor	eax, ebp
	mov	DWORD PTR __$ArrayPad$[ebp], eax
	push	eax
	lea	eax, DWORD PTR __$EHRec$[ebp]
	mov	DWORD PTR fs:0, eax
	mov	DWORD PTR _this$[ebp], ecx

; 366  : 		_DEBUG_RANGE(_First, _Last);

	push	366					; 0000016eH
	push	OFFSET ??_C@_1IO@NAGBLLMA@?$AAc?$AA?3?$AA?2?$AAP?$AAr?$AAo?$AAg?$AAr?$AAa?$AAm?$AA?5?$AAF?$AAi?$AAl?$AAe?$AAs?$AA?5?$AA?$CI?$AAx?$AA8?$AA6?$AA?$CJ?$AA?2?$AAM?$AAi?$AAc?$AAr?$AAo?$AAs?$AAo?$AAf?$AAt@
	mov	eax, DWORD PTR __Last$[ebp+4]
	push	eax
	mov	ecx, DWORD PTR __Last$[ebp]
	push	ecx
	mov	edx, DWORD PTR __First$[ebp+4]
	push	edx
	mov	eax, DWORD PTR __First$[ebp]
	push	eax
	call	??$_Debug_range@V?$istreambuf_iterator@DU?$char_traits@D@std@@@std@@@std@@YAXV?$istreambuf_iterator@DU?$char_traits@D@std@@@0@0PB_WI@Z ; std::_Debug_range<std::istreambuf_iterator<char,std::char_traits<char> > >
	add	esp, 24					; 00000018H

; 367  : 		int _Ans = -1;	// negative answer indicates failure

	mov	DWORD PTR __Ans$[ebp], -1

; 368  : 
; 369  : 		if (_Iosbase.flags() & ios_base::boolalpha)

	mov	ecx, DWORD PTR __Iosbase$[ebp]
	call	?flags@ios_base@std@@QBEHXZ		; std::ios_base::flags
	and	eax, 16384				; 00004000H
	je	$LN6@do_get

; 370  : 			{	// get false name or true name
; 371  : 			typedef typename _Mystr::size_type _Mystrsize;
; 372  : 			const _Mypunct& _Punct_fac = _USE(_Iosbase.getloc(), _Mypunct);

	lea	ecx, DWORD PTR $T141767[ebp]
	push	ecx
	mov	ecx, DWORD PTR __Iosbase$[ebp]
	call	?getloc@ios_base@std@@QBE?AVlocale@2@XZ	; std::ios_base::getloc
	mov	DWORD PTR tv181[ebp], eax
	mov	edx, DWORD PTR tv181[ebp]
	mov	DWORD PTR tv173[ebp], edx
	mov	DWORD PTR __$EHRec$[ebp+8], 0
	mov	eax, DWORD PTR tv173[ebp]
	push	eax
	call	??$use_facet@V?$numpunct@D@std@@@std@@YAABV?$numpunct@D@0@ABVlocale@0@@Z ; std::use_facet<std::numpunct<char> >
	add	esp, 4
	mov	DWORD PTR __Punct_fac$134798[ebp], eax
	mov	DWORD PTR __$EHRec$[ebp+8], -1
	lea	ecx, DWORD PTR $T141767[ebp]
	call	??1locale@std@@QAE@XZ			; std::locale::~locale

; 373  : 			_Mystr _Str((_Mystrsize)1, (char_type)0);

	push	0
	push	1
	lea	ecx, DWORD PTR __Str$134807[ebp]
	call	??0?$basic_string@DU?$char_traits@D@std@@V?$allocator@D@2@@std@@QAE@ID@Z ; std::basic_string<char,std::char_traits<char>,std::allocator<char> >::basic_string<char,std::char_traits<char>,std::allocator<char> >
	mov	DWORD PTR __$EHRec$[ebp+8], 1

; 374  : 			_Str += _Punct_fac.falsename();

	lea	ecx, DWORD PTR $T134863[ebp]
	push	ecx
	mov	ecx, DWORD PTR __Punct_fac$134798[ebp]
	call	?falsename@?$numpunct@D@std@@QBE?AV?$basic_string@DU?$char_traits@D@std@@V?$allocator@D@2@@2@XZ ; std::numpunct<char>::falsename
	mov	DWORD PTR tv80[ebp], eax
	mov	edx, DWORD PTR tv80[ebp]
	mov	DWORD PTR tv176[ebp], edx
	mov	BYTE PTR __$EHRec$[ebp+8], 2
	mov	eax, DWORD PTR tv176[ebp]
	push	eax
	lea	ecx, DWORD PTR __Str$134807[ebp]
	call	??Y?$basic_string@DU?$char_traits@D@std@@V?$allocator@D@2@@std@@QAEAAV01@ABV01@@Z ; std::basic_string<char,std::char_traits<char>,std::allocator<char> >::operator+=
	mov	BYTE PTR __$EHRec$[ebp+8], 1
	lea	ecx, DWORD PTR $T134863[ebp]
	call	??1?$basic_string@DU?$char_traits@D@std@@V?$allocator@D@2@@std@@QAE@XZ ; std::basic_string<char,std::char_traits<char>,std::allocator<char> >::~basic_string<char,std::char_traits<char>,std::allocator<char> >

; 375  : 			_Str += (char_type)0;

	push	0
	lea	ecx, DWORD PTR __Str$134807[ebp]
	call	??Y?$basic_string@DU?$char_traits@D@std@@V?$allocator@D@2@@std@@QAEAAV01@D@Z ; std::basic_string<char,std::char_traits<char>,std::allocator<char> >::operator+=

; 376  : 			_Str += _Punct_fac.truename();	// construct "\0false\0true"

	lea	ecx, DWORD PTR $T134865[ebp]
	push	ecx
	mov	ecx, DWORD PTR __Punct_fac$134798[ebp]
	call	?truename@?$numpunct@D@std@@QBE?AV?$basic_string@DU?$char_traits@D@std@@V?$allocator@D@2@@2@XZ ; std::numpunct<char>::truename
	mov	DWORD PTR tv182[ebp], eax
	mov	edx, DWORD PTR tv182[ebp]
	mov	DWORD PTR tv178[ebp], edx
	mov	BYTE PTR __$EHRec$[ebp+8], 3
	mov	eax, DWORD PTR tv178[ebp]
	push	eax
	lea	ecx, DWORD PTR __Str$134807[ebp]
	call	??Y?$basic_string@DU?$char_traits@D@std@@V?$allocator@D@2@@std@@QAEAAV01@ABV01@@Z ; std::basic_string<char,std::char_traits<char>,std::allocator<char> >::operator+=
	mov	BYTE PTR __$EHRec$[ebp+8], 1
	lea	ecx, DWORD PTR $T134865[ebp]
	call	??1?$basic_string@DU?$char_traits@D@std@@V?$allocator@D@2@@std@@QAE@XZ ; std::basic_string<char,std::char_traits<char>,std::allocator<char> >::~basic_string<char,std::char_traits<char>,std::allocator<char> >

; 377  : 			_Ans = _Getloctxt(_First, _Last, (size_t)2, _Str.c_str());

	lea	ecx, DWORD PTR __Str$134807[ebp]
	call	?c_str@?$basic_string@DU?$char_traits@D@std@@V?$allocator@D@2@@std@@QBEPBDXZ ; std::basic_string<char,std::char_traits<char>,std::allocator<char> >::c_str
	push	eax
	push	2
	lea	ecx, DWORD PTR __Last$[ebp]
	push	ecx
	lea	edx, DWORD PTR __First$[ebp]
	push	edx
	call	??$_Getloctxt@DV?$istreambuf_iterator@DU?$char_traits@D@std@@@std@@@std@@YAHAAV?$istreambuf_iterator@DU?$char_traits@D@std@@@0@0IPBD@Z ; std::_Getloctxt<char,std::istreambuf_iterator<char,std::char_traits<char> > >
	add	esp, 16					; 00000010H
	mov	DWORD PTR __Ans$[ebp], eax

; 378  : 			}

	mov	DWORD PTR __$EHRec$[ebp+8], -1
	lea	ecx, DWORD PTR __Str$134807[ebp]
	call	??1?$basic_string@DU?$char_traits@D@std@@V?$allocator@D@2@@std@@QAE@XZ ; std::basic_string<char,std::char_traits<char>,std::allocator<char> >::~basic_string<char,std::char_traits<char>,std::allocator<char> >

; 379  : 		else

	jmp	$LN5@do_get
$LN6@do_get:

; 380  : 			{	// get zero or nonzero integer
; 381  : 			char _Ac[_MAX_INT_DIG], *_Ep;
; 382  : 			int _Errno = 0;

	mov	DWORD PTR __Errno$134878[ebp], 0

; 383  : 			const unsigned long _Ulo = _CSTD _Stoulx(_Ac, &_Ep,
; 384  : 				_Getifld(_Ac, _First, _Last, _Iosbase.flags(),
; 385  : 					_Iosbase.getloc()), &_Errno);

	lea	eax, DWORD PTR __Errno$134878[ebp]
	push	eax
	lea	ecx, DWORD PTR $T141768[ebp]
	push	ecx
	mov	ecx, DWORD PTR __Iosbase$[ebp]
	call	?getloc@ios_base@std@@QBE?AVlocale@2@XZ	; std::ios_base::getloc
	mov	DWORD PTR tv183[ebp], eax
	mov	edx, DWORD PTR tv183[ebp]
	mov	DWORD PTR tv180[ebp], edx
	mov	DWORD PTR __$EHRec$[ebp+8], 4
	mov	eax, DWORD PTR tv180[ebp]
	push	eax
	mov	ecx, DWORD PTR __Iosbase$[ebp]
	call	?flags@ios_base@std@@QBEHXZ		; std::ios_base::flags
	push	eax
	lea	ecx, DWORD PTR __Last$[ebp]
	push	ecx
	lea	edx, DWORD PTR __First$[ebp]
	push	edx
	lea	eax, DWORD PTR __Ac$134876[ebp]
	push	eax
	mov	ecx, DWORD PTR _this$[ebp]
	push	ecx
	call	?_Getifld@?$num_get@DV?$istreambuf_iterator@DU?$char_traits@D@std@@@std@@@std@@ABAHPADAAV?$istreambuf_iterator@DU?$char_traits@D@std@@@2@1HABVlocale@2@@Z ; std::num_get<char,std::istreambuf_iterator<char,std::char_traits<char> > >::_Getifld
	add	esp, 24					; 00000018H
	push	eax
	lea	edx, DWORD PTR __Ep$134877[ebp]
	push	edx
	lea	eax, DWORD PTR __Ac$134876[ebp]
	push	eax
	call	__Stoulx
	add	esp, 16					; 00000010H
	mov	DWORD PTR __Ulo$134879[ebp], eax
	mov	DWORD PTR __$EHRec$[ebp+8], -1
	lea	ecx, DWORD PTR $T141768[ebp]
	call	??1locale@std@@QAE@XZ			; std::locale::~locale

; 386  : 			if (_Ep != _Ac && _Errno == 0 && _Ulo <= 1)

	mov	ecx, DWORD PTR __Ep$134877[ebp]
	lea	edx, DWORD PTR __Ac$134876[ebp]
	cmp	ecx, edx
	je	SHORT $LN5@do_get
	cmp	DWORD PTR __Errno$134878[ebp], 0
	jne	SHORT $LN5@do_get
	cmp	DWORD PTR __Ulo$134879[ebp], 1
	ja	SHORT $LN5@do_get

; 387  : 				_Ans = _Ulo;

	mov	eax, DWORD PTR __Ulo$134879[ebp]
	mov	DWORD PTR __Ans$[ebp], eax
$LN5@do_get:

; 388  : 			}
; 389  : 
; 390  : 		if (_First == _Last)

	lea	ecx, DWORD PTR __Last$[ebp]
	push	ecx
	lea	edx, DWORD PTR __First$[ebp]
	push	edx
	call	??$?8DU?$char_traits@D@std@@@std@@YA_NABV?$istreambuf_iterator@DU?$char_traits@D@std@@@0@0@Z ; std::operator==<char,std::char_traits<char> >
	add	esp, 8
	movzx	eax, al
	test	eax, eax
	je	SHORT $LN3@do_get

; 391  : 			_State |= ios_base::eofbit;

	mov	ecx, DWORD PTR __State$[ebp]
	mov	edx, DWORD PTR [ecx]
	or	edx, 1
	mov	eax, DWORD PTR __State$[ebp]
	mov	DWORD PTR [eax], edx
$LN3@do_get:

; 392  : 		if (_Ans < 0)

	cmp	DWORD PTR __Ans$[ebp], 0
	jge	SHORT $LN2@do_get

; 393  : 			_State |= ios_base::failbit;

	mov	ecx, DWORD PTR __State$[ebp]
	mov	edx, DWORD PTR [ecx]
	or	edx, 2
	mov	eax, DWORD PTR __State$[ebp]
	mov	DWORD PTR [eax], edx

; 394  : 		else

	jmp	SHORT $LN1@do_get
$LN2@do_get:

; 395  : 			_Val = _Ans != 0;	// deliver value

	xor	ecx, ecx
	cmp	DWORD PTR __Ans$[ebp], 0
	setne	cl
	mov	edx, DWORD PTR __Val$[ebp]
	mov	BYTE PTR [edx], cl
$LN1@do_get:

; 396  : 		return (_First);

	mov	eax, DWORD PTR ___$ReturnUdt$[ebp]
	mov	ecx, DWORD PTR __First$[ebp]
	mov	DWORD PTR [eax], ecx
	mov	edx, DWORD PTR __First$[ebp+4]
	mov	DWORD PTR [eax+4], edx
	mov	eax, DWORD PTR ___$ReturnUdt$[ebp]

; 397  : 		}

	push	edx
	mov	ecx, ebp
	push	eax
	lea	edx, DWORD PTR $LN20@do_get
	call	@_RTC_CheckStackVars@8
	pop	eax
	pop	edx
	mov	ecx, DWORD PTR __$EHRec$[ebp]
	mov	DWORD PTR fs:0, ecx
	pop	ecx
	pop	edi
	mov	ecx, DWORD PTR __$ArrayPad$[ebp]
	xor	ecx, ebp
	call	@__security_check_cookie@4
	add	esp, 240				; 000000f0H
	cmp	ebp, esp
	call	__RTC_CheckEsp
	mov	esp, ebp
	pop	ebp
	ret	32					; 00000020H
	npad	2
$LN20@do_get:
	DD	4
	DD	$LN19@do_get
$LN19@do_get:
	DD	-64					; ffffffc0H
	DD	32					; 00000020H
	DD	$LN14@do_get
	DD	-168					; ffffff58H
	DD	32					; 00000020H
	DD	$LN15@do_get
	DD	-180					; ffffff4cH
	DD	4
	DD	$LN16@do_get
	DD	-192					; ffffff40H
	DD	4
	DD	$LN17@do_get
$LN17@do_get:
	DB	95					; 0000005fH
	DB	69					; 00000045H
	DB	114					; 00000072H
	DB	114					; 00000072H
	DB	110					; 0000006eH
	DB	111					; 0000006fH
	DB	0
$LN16@do_get:
	DB	95					; 0000005fH
	DB	69					; 00000045H
	DB	112					; 00000070H
	DB	0
$LN15@do_get:
	DB	95					; 0000005fH
	DB	65					; 00000041H
	DB	99					; 00000063H
	DB	0
$LN14@do_get:
	DB	95					; 0000005fH
	DB	83					; 00000053H
	DB	116					; 00000074H
	DB	114					; 00000072H
	DB	0
_TEXT	ENDS
;	COMDAT text$x
text$x	SEGMENT
__unwindfunclet$?do_get@?$num_get@DV?$istreambuf_iterator@DU?$char_traits@D@std@@@std@@@std@@MBE?AV?$istreambuf_iterator@DU?$char_traits@D@std@@@2@V32@0AAVios_base@2@AAHAA_N@Z$0:
	lea	ecx, DWORD PTR $T141767[ebp]
	jmp	??1locale@std@@QAE@XZ			; std::locale::~locale
__unwindfunclet$?do_get@?$num_get@DV?$istreambuf_iterator@DU?$char_traits@D@std@@@std@@@std@@MBE?AV?$istreambuf_iterator@DU?$char_traits@D@std@@@2@V32@0AAVios_base@2@AAHAA_N@Z$1:
	lea	ecx, DWORD PTR __Str$134807[ebp]
	jmp	??1?$basic_string@DU?$char_traits@D@std@@V?$allocator@D@2@@std@@QAE@XZ ; std::basic_string<char,std::char_traits<char>,std::allocator<char> >::~basic_string<char,std::char_traits<char>,std::allocator<char> >
__unwindfunclet$?do_get@?$num_get@DV?$istreambuf_iterator@DU?$char_traits@D@std@@@std@@@std@@MBE?AV?$istreambuf_iterator@DU?$char_traits@D@std@@@2@V32@0AAVios_base@2@AAHAA_N@Z$2:
	lea	ecx, DWORD PTR $T134863[ebp]
	jmp	??1?$basic_string@DU?$char_traits@D@std@@V?$allocator@D@2@@std@@QAE@XZ ; std::basic_string<char,std::char_traits<char>,std::allocator<char> >::~basic_string<char,std::char_traits<char>,std::allocator<char> >
__unwindfunclet$?do_get@?$num_get@DV?$istreambuf_iterator@DU?$char_traits@D@std@@@std@@@std@@MBE?AV?$istreambuf_iterator@DU?$char_traits@D@std@@@2@V32@0AAVios_base@2@AAHAA_N@Z$3:
	lea	ecx, DWORD PTR $T134865[ebp]
	jmp	??1?$basic_string@DU?$char_traits@D@std@@V?$allocator@D@2@@std@@QAE@XZ ; std::basic_string<char,std::char_traits<char>,std::allocator<char> >::~basic_string<char,std::char_traits<char>,std::allocator<char> >
__unwindfunclet$?do_get@?$num_get@DV?$istreambuf_iterator@DU?$char_traits@D@std@@@std@@@std@@MBE?AV?$istreambuf_iterator@DU?$char_traits@D@std@@@2@V32@0AAVios_base@2@AAHAA_N@Z$4:
	lea	ecx, DWORD PTR $T141768[ebp]
	jmp	??1locale@std@@QAE@XZ			; std::locale::~locale
__ehhandler$?do_get@?$num_get@DV?$istreambuf_iterator@DU?$char_traits@D@std@@@std@@@std@@MBE?AV?$istreambuf_iterator@DU?$char_traits@D@std@@@2@V32@0AAVios_base@2@AAHAA_N@Z:
	mov	edx, DWORD PTR [esp+8]
	lea	eax, DWORD PTR [edx+12]
	mov	ecx, DWORD PTR [edx-236]
	xor	ecx, eax
	call	@__security_check_cookie@4
	mov	ecx, DWORD PTR [edx-4]
	xor	ecx, eax
	call	@__security_check_cookie@4
	mov	eax, OFFSET __ehfuncinfo$?do_get@?$num_get@DV?$istreambuf_iterator@DU?$char_traits@D@std@@@std@@@std@@MBE?AV?$istreambuf_iterator@DU?$char_traits@D@std@@@2@V32@0AAVios_base@2@AAHAA_N@Z
	jmp	___CxxFrameHandler3
text$x	ENDS
?do_get@?$num_get@DV?$istreambuf_iterator@DU?$char_traits@D@std@@@std@@@std@@MBE?AV?$istreambuf_iterator@DU?$char_traits@D@std@@@2@V32@0AAVios_base@2@AAHAA_N@Z ENDP ; std::num_get<char,std::istreambuf_iterator<char,std::char_traits<char> > >::do_get
PUBLIC	?assign@?$basic_string@DU?$char_traits@D@std@@V?$allocator@D@2@@std@@QAEAAV12@ID@Z ; std::basic_string<char,std::char_traits<char>,std::allocator<char> >::assign
;	COMDAT xdata$x
; File c:\program files (x86)\microsoft visual studio 10.0\vc\include\xstring
xdata$x	SEGMENT
__unwindtable$??0?$basic_string@DU?$char_traits@D@std@@V?$allocator@D@2@@std@@QAE@ID@Z DD 0ffffffffH
	DD	FLAT:__unwindfunclet$??0?$basic_string@DU?$char_traits@D@std@@V?$allocator@D@2@@std@@QAE@ID@Z$0
__ehfuncinfo$??0?$basic_string@DU?$char_traits@D@std@@V?$allocator@D@2@@std@@QAE@ID@Z DD 019930522H
	DD	01H
	DD	FLAT:__unwindtable$??0?$basic_string@DU?$char_traits@D@std@@V?$allocator@D@2@@std@@QAE@ID@Z
	DD	2 DUP(00H)
	DD	2 DUP(00H)
	DD	00H
	DD	01H
; Function compile flags: /Odtp /RTCsu
xdata$x	ENDS
;	COMDAT ??0?$basic_string@DU?$char_traits@D@std@@V?$allocator@D@2@@std@@QAE@ID@Z
_TEXT	SEGMENT
$T141788 = -20						; size = 4
_this$ = -16						; size = 4
__$EHRec$ = -12						; size = 12
__Count$ = 8						; size = 4
__Ch$ = 12						; size = 1
??0?$basic_string@DU?$char_traits@D@std@@V?$allocator@D@2@@std@@QAE@ID@Z PROC ; std::basic_string<char,std::char_traits<char>,std::allocator<char> >::basic_string<char,std::char_traits<char>,std::allocator<char> >, COMDAT
; _this$ = ecx

; 606  : 		{	// construct from _Count * _Ch

	push	ebp
	mov	ebp, esp
	push	-1
	push	__ehhandler$??0?$basic_string@DU?$char_traits@D@std@@V?$allocator@D@2@@std@@QAE@ID@Z
	mov	eax, DWORD PTR fs:0
	push	eax
	sub	esp, 8
	mov	DWORD PTR [ebp-20], -858993460		; ccccccccH
	mov	DWORD PTR [ebp-16], -858993460		; ccccccccH
	mov	eax, DWORD PTR ___security_cookie
	xor	eax, ebp
	push	eax
	lea	eax, DWORD PTR __$EHRec$[ebp]
	mov	DWORD PTR fs:0, eax
	mov	DWORD PTR _this$[ebp], ecx
	push	ecx
	mov	ecx, esp
	mov	DWORD PTR $T141788[ebp], esp
	call	??0?$allocator@D@std@@QAE@XZ		; std::allocator<char>::allocator<char>
	mov	ecx, DWORD PTR _this$[ebp]
	call	??0?$_String_val@DV?$allocator@D@std@@@std@@QAE@V?$allocator@D@1@@Z ; std::_String_val<char,std::allocator<char> >::_String_val<char,std::allocator<char> >
	mov	DWORD PTR __$EHRec$[ebp+8], 0

; 607  : 		_Tidy();

	push	0
	push	0
	mov	ecx, DWORD PTR _this$[ebp]
	call	?_Tidy@?$basic_string@DU?$char_traits@D@std@@V?$allocator@D@2@@std@@QAEX_NI@Z ; std::basic_string<char,std::char_traits<char>,std::allocator<char> >::_Tidy

; 608  : 		assign(_Count, _Ch);

	movzx	eax, BYTE PTR __Ch$[ebp]
	push	eax
	mov	ecx, DWORD PTR __Count$[ebp]
	push	ecx
	mov	ecx, DWORD PTR _this$[ebp]
	call	?assign@?$basic_string@DU?$char_traits@D@std@@V?$allocator@D@2@@std@@QAEAAV12@ID@Z ; std::basic_string<char,std::char_traits<char>,std::allocator<char> >::assign

; 609  : 		}

	mov	DWORD PTR __$EHRec$[ebp+8], -1
	mov	eax, DWORD PTR _this$[ebp]
	mov	ecx, DWORD PTR __$EHRec$[ebp]
	mov	DWORD PTR fs:0, ecx
	pop	ecx
	add	esp, 20					; 00000014H
	cmp	ebp, esp
	call	__RTC_CheckEsp
	mov	esp, ebp
	pop	ebp
	ret	8
_TEXT	ENDS
;	COMDAT text$x
text$x	SEGMENT
__unwindfunclet$??0?$basic_string@DU?$char_traits@D@std@@V?$allocator@D@2@@std@@QAE@ID@Z$0:
	mov	ecx, DWORD PTR _this$[ebp]
	jmp	??1?$_String_val@DV?$allocator@D@std@@@std@@QAE@XZ ; std::_String_val<char,std::allocator<char> >::~_String_val<char,std::allocator<char> >
__ehhandler$??0?$basic_string@DU?$char_traits@D@std@@V?$allocator@D@2@@std@@QAE@ID@Z:
	mov	edx, DWORD PTR [esp+8]
	lea	eax, DWORD PTR [edx+12]
	mov	ecx, DWORD PTR [edx-12]
	xor	ecx, eax
	call	@__security_check_cookie@4
	mov	eax, OFFSET __ehfuncinfo$??0?$basic_string@DU?$char_traits@D@std@@V?$allocator@D@2@@std@@QAE@ID@Z
	jmp	___CxxFrameHandler3
text$x	ENDS
??0?$basic_string@DU?$char_traits@D@std@@V?$allocator@D@2@@std@@QAE@ID@Z ENDP ; std::basic_string<char,std::char_traits<char>,std::allocator<char> >::basic_string<char,std::char_traits<char>,std::allocator<char> >
PUBLIC	__$ArrayPad$
;	COMDAT xdata$x
; File c:\program files (x86)\microsoft visual studio 10.0\vc\include\xlocnum
xdata$x	SEGMENT
__unwindtable$?do_get@?$num_get@DV?$istreambuf_iterator@DU?$char_traits@D@std@@@std@@@std@@MBE?AV?$istreambuf_iterator@DU?$char_traits@D@std@@@2@V32@0AAVios_base@2@AAHAAG@Z DD 0ffffffffH
	DD	FLAT:__unwindfunclet$?do_get@?$num_get@DV?$istreambuf_iterator@DU?$char_traits@D@std@@@std@@@std@@MBE?AV?$istreambuf_iterator@DU?$char_traits@D@std@@@2@V32@0AAVios_base@2@AAHAAG@Z$0
__ehfuncinfo$?do_get@?$num_get@DV?$istreambuf_iterator@DU?$char_traits@D@std@@@std@@@std@@MBE?AV?$istreambuf_iterator@DU?$char_traits@D@std@@@2@V32@0AAVios_base@2@AAHAAG@Z DD 019930522H
	DD	01H
	DD	FLAT:__unwindtable$?do_get@?$num_get@DV?$istreambuf_iterator@DU?$char_traits@D@std@@@std@@@std@@MBE?AV?$istreambuf_iterator@DU?$char_traits@D@std@@@2@V32@0AAVios_base@2@AAHAAG@Z
	DD	2 DUP(00H)
	DD	2 DUP(00H)
	DD	00H
	DD	01H
; Function compile flags: /Odtp /RTCsu
xdata$x	ENDS
;	COMDAT ?do_get@?$num_get@DV?$istreambuf_iterator@DU?$char_traits@D@std@@@std@@@std@@MBE?AV?$istreambuf_iterator@DU?$char_traits@D@std@@@2@V32@0AAVios_base@2@AAHAAG@Z
_TEXT	SEGMENT
tv136 = -116						; size = 4
tv85 = -112						; size = 4
tv139 = -108						; size = 4
tv140 = -104						; size = 4
$T141799 = -100						; size = 4
__Ans$ = -96						; size = 4
__Ptr$ = -92						; size = 4
__Base$ = -88						; size = 4
__Errno$ = -80						; size = 4
__Ep$ = -68						; size = 4
__Ac$ = -56						; size = 32
_this$ = -20						; size = 4
__$ArrayPad$ = -16					; size = 4
__$EHRec$ = -12						; size = 12
___$ReturnUdt$ = 8					; size = 4
__First$ = 12						; size = 8
__Last$ = 20						; size = 8
__Iosbase$ = 28						; size = 4
__State$ = 32						; size = 4
__Val$ = 36						; size = 4
?do_get@?$num_get@DV?$istreambuf_iterator@DU?$char_traits@D@std@@@std@@@std@@MBE?AV?$istreambuf_iterator@DU?$char_traits@D@std@@@2@V32@0AAVios_base@2@AAHAAG@Z PROC ; std::num_get<char,std::istreambuf_iterator<char,std::char_traits<char> > >::do_get, COMDAT
; _this$ = ecx

; 402  : 		{	// get unsigned short from [_First, _Last) into _Val

	push	ebp
	mov	ebp, esp
	push	-1
	push	__ehhandler$?do_get@?$num_get@DV?$istreambuf_iterator@DU?$char_traits@D@std@@@std@@@std@@MBE?AV?$istreambuf_iterator@DU?$char_traits@D@std@@@2@V32@0AAVios_base@2@AAHAAG@Z
	mov	eax, DWORD PTR fs:0
	push	eax
	sub	esp, 104				; 00000068H
	push	edi
	push	ecx
	lea	edi, DWORD PTR [ebp-116]
	mov	ecx, 26					; 0000001aH
	mov	eax, -858993460				; ccccccccH
	rep stosd
	pop	ecx
	mov	eax, DWORD PTR ___security_cookie
	xor	eax, ebp
	mov	DWORD PTR __$ArrayPad$[ebp], eax
	push	eax
	lea	eax, DWORD PTR __$EHRec$[ebp]
	mov	DWORD PTR fs:0, eax
	mov	DWORD PTR _this$[ebp], ecx

; 403  : 		_DEBUG_RANGE(_First, _Last);

	push	403					; 00000193H
	push	OFFSET ??_C@_1IO@NAGBLLMA@?$AAc?$AA?3?$AA?2?$AAP?$AAr?$AAo?$AAg?$AAr?$AAa?$AAm?$AA?5?$AAF?$AAi?$AAl?$AAe?$AAs?$AA?5?$AA?$CI?$AAx?$AA8?$AA6?$AA?$CJ?$AA?2?$AAM?$AAi?$AAc?$AAr?$AAo?$AAs?$AAo?$AAf?$AAt@
	mov	eax, DWORD PTR __Last$[ebp+4]
	push	eax
	mov	ecx, DWORD PTR __Last$[ebp]
	push	ecx
	mov	edx, DWORD PTR __First$[ebp+4]
	push	edx
	mov	eax, DWORD PTR __First$[ebp]
	push	eax
	call	??$_Debug_range@V?$istreambuf_iterator@DU?$char_traits@D@std@@@std@@@std@@YAXV?$istreambuf_iterator@DU?$char_traits@D@std@@@0@0PB_WI@Z ; std::_Debug_range<std::istreambuf_iterator<char,std::char_traits<char> > >
	add	esp, 24					; 00000018H

; 404  : 		char _Ac[_MAX_INT_DIG], *_Ep;
; 405  : 		int _Errno = 0;

	mov	DWORD PTR __Errno$[ebp], 0

; 406  : 		int _Base = _Getifld(_Ac, _First, _Last, _Iosbase.flags(),
; 407  : 			_Iosbase.getloc());	// gather field into _Ac

	lea	ecx, DWORD PTR $T141799[ebp]
	push	ecx
	mov	ecx, DWORD PTR __Iosbase$[ebp]
	call	?getloc@ios_base@std@@QBE?AVlocale@2@XZ	; std::ios_base::getloc
	mov	DWORD PTR tv140[ebp], eax
	mov	edx, DWORD PTR tv140[ebp]
	mov	DWORD PTR tv139[ebp], edx
	mov	DWORD PTR __$EHRec$[ebp+8], 0
	mov	eax, DWORD PTR tv139[ebp]
	push	eax
	mov	ecx, DWORD PTR __Iosbase$[ebp]
	call	?flags@ios_base@std@@QBEHXZ		; std::ios_base::flags
	push	eax
	lea	ecx, DWORD PTR __Last$[ebp]
	push	ecx
	lea	edx, DWORD PTR __First$[ebp]
	push	edx
	lea	eax, DWORD PTR __Ac$[ebp]
	push	eax
	mov	ecx, DWORD PTR _this$[ebp]
	push	ecx
	call	?_Getifld@?$num_get@DV?$istreambuf_iterator@DU?$char_traits@D@std@@@std@@@std@@ABAHPADAAV?$istreambuf_iterator@DU?$char_traits@D@std@@@2@1HABVlocale@2@@Z ; std::num_get<char,std::istreambuf_iterator<char,std::char_traits<char> > >::_Getifld
	add	esp, 24					; 00000018H
	mov	DWORD PTR __Base$[ebp], eax
	mov	DWORD PTR __$EHRec$[ebp+8], -1
	lea	ecx, DWORD PTR $T141799[ebp]
	call	??1locale@std@@QAE@XZ			; std::locale::~locale

; 408  : 		char *_Ptr = _Ac[0] == '-' ? _Ac + 1 : _Ac;	// point past any sign

	movsx	edx, BYTE PTR __Ac$[ebp]
	cmp	edx, 45					; 0000002dH
	jne	SHORT $LN7@do_get@2
	lea	eax, DWORD PTR __Ac$[ebp+1]
	mov	DWORD PTR tv85[ebp], eax
	jmp	SHORT $LN8@do_get@2
$LN7@do_get@2:
	lea	ecx, DWORD PTR __Ac$[ebp]
	mov	DWORD PTR tv85[ebp], ecx
$LN8@do_get@2:
	mov	edx, DWORD PTR tv85[ebp]
	mov	DWORD PTR __Ptr$[ebp], edx

; 409  : 		const unsigned long _Ans =
; 410  : 			_CSTD _Stoulx(_Ptr, &_Ep, _Base, &_Errno);	// convert

	lea	eax, DWORD PTR __Errno$[ebp]
	push	eax
	mov	ecx, DWORD PTR __Base$[ebp]
	push	ecx
	lea	edx, DWORD PTR __Ep$[ebp]
	push	edx
	mov	eax, DWORD PTR __Ptr$[ebp]
	push	eax
	call	__Stoulx
	add	esp, 16					; 00000010H
	mov	DWORD PTR __Ans$[ebp], eax

; 411  : 
; 412  : 		if (_First == _Last)

	lea	ecx, DWORD PTR __Last$[ebp]
	push	ecx
	lea	edx, DWORD PTR __First$[ebp]
	push	edx
	call	??$?8DU?$char_traits@D@std@@@std@@YA_NABV?$istreambuf_iterator@DU?$char_traits@D@std@@@0@0@Z ; std::operator==<char,std::char_traits<char> >
	add	esp, 8
	movzx	eax, al
	test	eax, eax
	je	SHORT $LN4@do_get@2

; 413  : 			_State |= ios_base::eofbit;

	mov	ecx, DWORD PTR __State$[ebp]
	mov	edx, DWORD PTR [ecx]
	or	edx, 1
	mov	eax, DWORD PTR __State$[ebp]
	mov	DWORD PTR [eax], edx
$LN4@do_get@2:

; 414  : 		if (_Ep == _Ptr || _Errno != 0 || USHRT_MAX < _Ans)

	mov	ecx, DWORD PTR __Ep$[ebp]
	cmp	ecx, DWORD PTR __Ptr$[ebp]
	je	SHORT $LN2@do_get@2
	cmp	DWORD PTR __Errno$[ebp], 0
	jne	SHORT $LN2@do_get@2
	cmp	DWORD PTR __Ans$[ebp], 65535		; 0000ffffH
	jbe	SHORT $LN3@do_get@2
$LN2@do_get@2:

; 415  : 			_State |= ios_base::failbit;

	mov	edx, DWORD PTR __State$[ebp]
	mov	eax, DWORD PTR [edx]
	or	eax, 2
	mov	ecx, DWORD PTR __State$[ebp]
	mov	DWORD PTR [ecx], eax

; 416  : 		else

	jmp	SHORT $LN1@do_get@2
$LN3@do_get@2:

; 417  : 			_Val = (unsigned short)(_Ac[0] == '-'
; 418  : 				? 0 -_Ans : _Ans);	// deliver value

	movsx	edx, BYTE PTR __Ac$[ebp]
	cmp	edx, 45					; 0000002dH
	jne	SHORT $LN9@do_get@2
	xor	eax, eax
	sub	eax, DWORD PTR __Ans$[ebp]
	mov	DWORD PTR tv136[ebp], eax
	jmp	SHORT $LN10@do_get@2
$LN9@do_get@2:
	mov	ecx, DWORD PTR __Ans$[ebp]
	mov	DWORD PTR tv136[ebp], ecx
$LN10@do_get@2:
	mov	edx, DWORD PTR __Val$[ebp]
	mov	ax, WORD PTR tv136[ebp]
	mov	WORD PTR [edx], ax
$LN1@do_get@2:

; 419  : 		return (_First);

	mov	ecx, DWORD PTR ___$ReturnUdt$[ebp]
	mov	edx, DWORD PTR __First$[ebp]
	mov	DWORD PTR [ecx], edx
	mov	eax, DWORD PTR __First$[ebp+4]
	mov	DWORD PTR [ecx+4], eax
	mov	eax, DWORD PTR ___$ReturnUdt$[ebp]

; 420  : 		}

	push	edx
	mov	ecx, ebp
	push	eax
	lea	edx, DWORD PTR $LN17@do_get@2
	call	@_RTC_CheckStackVars@8
	pop	eax
	pop	edx
	mov	ecx, DWORD PTR __$EHRec$[ebp]
	mov	DWORD PTR fs:0, ecx
	pop	ecx
	pop	edi
	mov	ecx, DWORD PTR __$ArrayPad$[ebp]
	xor	ecx, ebp
	call	@__security_check_cookie@4
	add	esp, 116				; 00000074H
	cmp	ebp, esp
	call	__RTC_CheckEsp
	mov	esp, ebp
	pop	ebp
	ret	32					; 00000020H
	npad	2
$LN17@do_get@2:
	DD	3
	DD	$LN16@do_get@2
$LN16@do_get@2:
	DD	-56					; ffffffc8H
	DD	32					; 00000020H
	DD	$LN12@do_get@2
	DD	-68					; ffffffbcH
	DD	4
	DD	$LN13@do_get@2
	DD	-80					; ffffffb0H
	DD	4
	DD	$LN14@do_get@2
$LN14@do_get@2:
	DB	95					; 0000005fH
	DB	69					; 00000045H
	DB	114					; 00000072H
	DB	114					; 00000072H
	DB	110					; 0000006eH
	DB	111					; 0000006fH
	DB	0
$LN13@do_get@2:
	DB	95					; 0000005fH
	DB	69					; 00000045H
	DB	112					; 00000070H
	DB	0
$LN12@do_get@2:
	DB	95					; 0000005fH
	DB	65					; 00000041H
	DB	99					; 00000063H
	DB	0
_TEXT	ENDS
;	COMDAT text$x
text$x	SEGMENT
__unwindfunclet$?do_get@?$num_get@DV?$istreambuf_iterator@DU?$char_traits@D@std@@@std@@@std@@MBE?AV?$istreambuf_iterator@DU?$char_traits@D@std@@@2@V32@0AAVios_base@2@AAHAAG@Z$0:
	lea	ecx, DWORD PTR $T141799[ebp]
	jmp	??1locale@std@@QAE@XZ			; std::locale::~locale
__ehhandler$?do_get@?$num_get@DV?$istreambuf_iterator@DU?$char_traits@D@std@@@std@@@std@@MBE?AV?$istreambuf_iterator@DU?$char_traits@D@std@@@2@V32@0AAVios_base@2@AAHAAG@Z:
	mov	edx, DWORD PTR [esp+8]
	lea	eax, DWORD PTR [edx+12]
	mov	ecx, DWORD PTR [edx-112]
	xor	ecx, eax
	call	@__security_check_cookie@4
	mov	ecx, DWORD PTR [edx-4]
	xor	ecx, eax
	call	@__security_check_cookie@4
	mov	eax, OFFSET __ehfuncinfo$?do_get@?$num_get@DV?$istreambuf_iterator@DU?$char_traits@D@std@@@std@@@std@@MBE?AV?$istreambuf_iterator@DU?$char_traits@D@std@@@2@V32@0AAVios_base@2@AAHAAG@Z
	jmp	___CxxFrameHandler3
text$x	ENDS
?do_get@?$num_get@DV?$istreambuf_iterator@DU?$char_traits@D@std@@@std@@@std@@MBE?AV?$istreambuf_iterator@DU?$char_traits@D@std@@@2@V32@0AAVios_base@2@AAHAAG@Z ENDP ; std::num_get<char,std::istreambuf_iterator<char,std::char_traits<char> > >::do_get
PUBLIC	__$ArrayPad$
;	COMDAT xdata$x
xdata$x	SEGMENT
__unwindtable$?do_get@?$num_get@DV?$istreambuf_iterator@DU?$char_traits@D@std@@@std@@@std@@MBE?AV?$istreambuf_iterator@DU?$char_traits@D@std@@@2@V32@0AAVios_base@2@AAHAAI@Z DD 0ffffffffH
	DD	FLAT:__unwindfunclet$?do_get@?$num_get@DV?$istreambuf_iterator@DU?$char_traits@D@std@@@std@@@std@@MBE?AV?$istreambuf_iterator@DU?$char_traits@D@std@@@2@V32@0AAVios_base@2@AAHAAI@Z$0
__ehfuncinfo$?do_get@?$num_get@DV?$istreambuf_iterator@DU?$char_traits@D@std@@@std@@@std@@MBE?AV?$istreambuf_iterator@DU?$char_traits@D@std@@@2@V32@0AAVios_base@2@AAHAAI@Z DD 019930522H
	DD	01H
	DD	FLAT:__unwindtable$?do_get@?$num_get@DV?$istreambuf_iterator@DU?$char_traits@D@std@@@std@@@std@@MBE?AV?$istreambuf_iterator@DU?$char_traits@D@std@@@2@V32@0AAVios_base@2@AAHAAI@Z
	DD	2 DUP(00H)
	DD	2 DUP(00H)
	DD	00H
	DD	01H
; Function compile flags: /Odtp /RTCsu
xdata$x	ENDS
;	COMDAT ?do_get@?$num_get@DV?$istreambuf_iterator@DU?$char_traits@D@std@@@std@@@std@@MBE?AV?$istreambuf_iterator@DU?$char_traits@D@std@@@2@V32@0AAVios_base@2@AAHAAI@Z
_TEXT	SEGMENT
tv136 = -116						; size = 4
tv85 = -112						; size = 4
tv138 = -108						; size = 4
tv139 = -104						; size = 4
$T141819 = -100						; size = 4
__Ans$ = -96						; size = 4
__Ptr$ = -92						; size = 4
__Base$ = -88						; size = 4
__Errno$ = -80						; size = 4
__Ep$ = -68						; size = 4
__Ac$ = -56						; size = 32
_this$ = -20						; size = 4
__$ArrayPad$ = -16					; size = 4
__$EHRec$ = -12						; size = 12
___$ReturnUdt$ = 8					; size = 4
__First$ = 12						; size = 8
__Last$ = 20						; size = 8
__Iosbase$ = 28						; size = 4
__State$ = 32						; size = 4
__Val$ = 36						; size = 4
?do_get@?$num_get@DV?$istreambuf_iterator@DU?$char_traits@D@std@@@std@@@std@@MBE?AV?$istreambuf_iterator@DU?$char_traits@D@std@@@2@V32@0AAVios_base@2@AAHAAI@Z PROC ; std::num_get<char,std::istreambuf_iterator<char,std::char_traits<char> > >::do_get, COMDAT
; _this$ = ecx

; 425  : 		{	// get unsigned int from [_First, _Last) into _Val

	push	ebp
	mov	ebp, esp
	push	-1
	push	__ehhandler$?do_get@?$num_get@DV?$istreambuf_iterator@DU?$char_traits@D@std@@@std@@@std@@MBE?AV?$istreambuf_iterator@DU?$char_traits@D@std@@@2@V32@0AAVios_base@2@AAHAAI@Z
	mov	eax, DWORD PTR fs:0
	push	eax
	sub	esp, 104				; 00000068H
	push	edi
	push	ecx
	lea	edi, DWORD PTR [ebp-116]
	mov	ecx, 26					; 0000001aH
	mov	eax, -858993460				; ccccccccH
	rep stosd
	pop	ecx
	mov	eax, DWORD PTR ___security_cookie
	xor	eax, ebp
	mov	DWORD PTR __$ArrayPad$[ebp], eax
	push	eax
	lea	eax, DWORD PTR __$EHRec$[ebp]
	mov	DWORD PTR fs:0, eax
	mov	DWORD PTR _this$[ebp], ecx

; 426  : 		_DEBUG_RANGE(_First, _Last);

	push	426					; 000001aaH
	push	OFFSET ??_C@_1IO@NAGBLLMA@?$AAc?$AA?3?$AA?2?$AAP?$AAr?$AAo?$AAg?$AAr?$AAa?$AAm?$AA?5?$AAF?$AAi?$AAl?$AAe?$AAs?$AA?5?$AA?$CI?$AAx?$AA8?$AA6?$AA?$CJ?$AA?2?$AAM?$AAi?$AAc?$AAr?$AAo?$AAs?$AAo?$AAf?$AAt@
	mov	eax, DWORD PTR __Last$[ebp+4]
	push	eax
	mov	ecx, DWORD PTR __Last$[ebp]
	push	ecx
	mov	edx, DWORD PTR __First$[ebp+4]
	push	edx
	mov	eax, DWORD PTR __First$[ebp]
	push	eax
	call	??$_Debug_range@V?$istreambuf_iterator@DU?$char_traits@D@std@@@std@@@std@@YAXV?$istreambuf_iterator@DU?$char_traits@D@std@@@0@0PB_WI@Z ; std::_Debug_range<std::istreambuf_iterator<char,std::char_traits<char> > >
	add	esp, 24					; 00000018H

; 427  : 		char _Ac[_MAX_INT_DIG], *_Ep;
; 428  : 		int _Errno = 0;

	mov	DWORD PTR __Errno$[ebp], 0

; 429  : 		int _Base = _Getifld(_Ac, _First, _Last, _Iosbase.flags(),
; 430  : 			_Iosbase.getloc());	// gather field into _Ac

	lea	ecx, DWORD PTR $T141819[ebp]
	push	ecx
	mov	ecx, DWORD PTR __Iosbase$[ebp]
	call	?getloc@ios_base@std@@QBE?AVlocale@2@XZ	; std::ios_base::getloc
	mov	DWORD PTR tv139[ebp], eax
	mov	edx, DWORD PTR tv139[ebp]
	mov	DWORD PTR tv138[ebp], edx
	mov	DWORD PTR __$EHRec$[ebp+8], 0
	mov	eax, DWORD PTR tv138[ebp]
	push	eax
	mov	ecx, DWORD PTR __Iosbase$[ebp]
	call	?flags@ios_base@std@@QBEHXZ		; std::ios_base::flags
	push	eax
	lea	ecx, DWORD PTR __Last$[ebp]
	push	ecx
	lea	edx, DWORD PTR __First$[ebp]
	push	edx
	lea	eax, DWORD PTR __Ac$[ebp]
	push	eax
	mov	ecx, DWORD PTR _this$[ebp]
	push	ecx
	call	?_Getifld@?$num_get@DV?$istreambuf_iterator@DU?$char_traits@D@std@@@std@@@std@@ABAHPADAAV?$istreambuf_iterator@DU?$char_traits@D@std@@@2@1HABVlocale@2@@Z ; std::num_get<char,std::istreambuf_iterator<char,std::char_traits<char> > >::_Getifld
	add	esp, 24					; 00000018H
	mov	DWORD PTR __Base$[ebp], eax
	mov	DWORD PTR __$EHRec$[ebp+8], -1
	lea	ecx, DWORD PTR $T141819[ebp]
	call	??1locale@std@@QAE@XZ			; std::locale::~locale

; 431  : 		char *_Ptr = _Ac[0] == '-' ? _Ac + 1 : _Ac;	// point past any sign

	movsx	edx, BYTE PTR __Ac$[ebp]
	cmp	edx, 45					; 0000002dH
	jne	SHORT $LN7@do_get@3
	lea	eax, DWORD PTR __Ac$[ebp+1]
	mov	DWORD PTR tv85[ebp], eax
	jmp	SHORT $LN8@do_get@3
$LN7@do_get@3:
	lea	ecx, DWORD PTR __Ac$[ebp]
	mov	DWORD PTR tv85[ebp], ecx
$LN8@do_get@3:
	mov	edx, DWORD PTR tv85[ebp]
	mov	DWORD PTR __Ptr$[ebp], edx

; 432  : 		const unsigned long _Ans =
; 433  : 			_CSTD _Stoulx(_Ptr, &_Ep, _Base, &_Errno);	// convert

	lea	eax, DWORD PTR __Errno$[ebp]
	push	eax
	mov	ecx, DWORD PTR __Base$[ebp]
	push	ecx
	lea	edx, DWORD PTR __Ep$[ebp]
	push	edx
	mov	eax, DWORD PTR __Ptr$[ebp]
	push	eax
	call	__Stoulx
	add	esp, 16					; 00000010H
	mov	DWORD PTR __Ans$[ebp], eax

; 434  : 
; 435  : 		if (_First == _Last)

	lea	ecx, DWORD PTR __Last$[ebp]
	push	ecx
	lea	edx, DWORD PTR __First$[ebp]
	push	edx
	call	??$?8DU?$char_traits@D@std@@@std@@YA_NABV?$istreambuf_iterator@DU?$char_traits@D@std@@@0@0@Z ; std::operator==<char,std::char_traits<char> >
	add	esp, 8
	movzx	eax, al
	test	eax, eax
	je	SHORT $LN4@do_get@3

; 436  : 			_State |= ios_base::eofbit;

	mov	ecx, DWORD PTR __State$[ebp]
	mov	edx, DWORD PTR [ecx]
	or	edx, 1
	mov	eax, DWORD PTR __State$[ebp]
	mov	DWORD PTR [eax], edx
$LN4@do_get@3:

; 437  : 		if (_Ep == _Ptr || _Errno != 0 || UINT_MAX < _Ans)

	mov	ecx, DWORD PTR __Ep$[ebp]
	cmp	ecx, DWORD PTR __Ptr$[ebp]
	je	SHORT $LN2@do_get@3
	cmp	DWORD PTR __Errno$[ebp], 0
	jne	SHORT $LN2@do_get@3
	cmp	DWORD PTR __Ans$[ebp], -1
	jbe	SHORT $LN3@do_get@3
$LN2@do_get@3:

; 438  : 			_State |= ios_base::failbit;

	mov	edx, DWORD PTR __State$[ebp]
	mov	eax, DWORD PTR [edx]
	or	eax, 2
	mov	ecx, DWORD PTR __State$[ebp]
	mov	DWORD PTR [ecx], eax

; 439  : 		else

	jmp	SHORT $LN1@do_get@3
$LN3@do_get@3:

; 440  : 			_Val = _Ac[0] == '-' ? 0 -_Ans : _Ans;	// deliver value

	movsx	edx, BYTE PTR __Ac$[ebp]
	cmp	edx, 45					; 0000002dH
	jne	SHORT $LN9@do_get@3
	xor	eax, eax
	sub	eax, DWORD PTR __Ans$[ebp]
	mov	DWORD PTR tv136[ebp], eax
	jmp	SHORT $LN10@do_get@3
$LN9@do_get@3:
	mov	ecx, DWORD PTR __Ans$[ebp]
	mov	DWORD PTR tv136[ebp], ecx
$LN10@do_get@3:
	mov	edx, DWORD PTR __Val$[ebp]
	mov	eax, DWORD PTR tv136[ebp]
	mov	DWORD PTR [edx], eax
$LN1@do_get@3:

; 441  : 		return (_First);

	mov	ecx, DWORD PTR ___$ReturnUdt$[ebp]
	mov	edx, DWORD PTR __First$[ebp]
	mov	DWORD PTR [ecx], edx
	mov	eax, DWORD PTR __First$[ebp+4]
	mov	DWORD PTR [ecx+4], eax
	mov	eax, DWORD PTR ___$ReturnUdt$[ebp]

; 442  : 		}

	push	edx
	mov	ecx, ebp
	push	eax
	lea	edx, DWORD PTR $LN17@do_get@3
	call	@_RTC_CheckStackVars@8
	pop	eax
	pop	edx
	mov	ecx, DWORD PTR __$EHRec$[ebp]
	mov	DWORD PTR fs:0, ecx
	pop	ecx
	pop	edi
	mov	ecx, DWORD PTR __$ArrayPad$[ebp]
	xor	ecx, ebp
	call	@__security_check_cookie@4
	add	esp, 116				; 00000074H
	cmp	ebp, esp
	call	__RTC_CheckEsp
	mov	esp, ebp
	pop	ebp
	ret	32					; 00000020H
	npad	3
$LN17@do_get@3:
	DD	3
	DD	$LN16@do_get@3
$LN16@do_get@3:
	DD	-56					; ffffffc8H
	DD	32					; 00000020H
	DD	$LN12@do_get@3
	DD	-68					; ffffffbcH
	DD	4
	DD	$LN13@do_get@3
	DD	-80					; ffffffb0H
	DD	4
	DD	$LN14@do_get@3
$LN14@do_get@3:
	DB	95					; 0000005fH
	DB	69					; 00000045H
	DB	114					; 00000072H
	DB	114					; 00000072H
	DB	110					; 0000006eH
	DB	111					; 0000006fH
	DB	0
$LN13@do_get@3:
	DB	95					; 0000005fH
	DB	69					; 00000045H
	DB	112					; 00000070H
	DB	0
$LN12@do_get@3:
	DB	95					; 0000005fH
	DB	65					; 00000041H
	DB	99					; 00000063H
	DB	0
_TEXT	ENDS
;	COMDAT text$x
text$x	SEGMENT
__unwindfunclet$?do_get@?$num_get@DV?$istreambuf_iterator@DU?$char_traits@D@std@@@std@@@std@@MBE?AV?$istreambuf_iterator@DU?$char_traits@D@std@@@2@V32@0AAVios_base@2@AAHAAI@Z$0:
	lea	ecx, DWORD PTR $T141819[ebp]
	jmp	??1locale@std@@QAE@XZ			; std::locale::~locale
__ehhandler$?do_get@?$num_get@DV?$istreambuf_iterator@DU?$char_traits@D@std@@@std@@@std@@MBE?AV?$istreambuf_iterator@DU?$char_traits@D@std@@@2@V32@0AAVios_base@2@AAHAAI@Z:
	mov	edx, DWORD PTR [esp+8]
	lea	eax, DWORD PTR [edx+12]
	mov	ecx, DWORD PTR [edx-112]
	xor	ecx, eax
	call	@__security_check_cookie@4
	mov	ecx, DWORD PTR [edx-4]
	xor	ecx, eax
	call	@__security_check_cookie@4
	mov	eax, OFFSET __ehfuncinfo$?do_get@?$num_get@DV?$istreambuf_iterator@DU?$char_traits@D@std@@@std@@@std@@MBE?AV?$istreambuf_iterator@DU?$char_traits@D@std@@@2@V32@0AAVios_base@2@AAHAAI@Z
	jmp	___CxxFrameHandler3
text$x	ENDS
?do_get@?$num_get@DV?$istreambuf_iterator@DU?$char_traits@D@std@@@std@@@std@@MBE?AV?$istreambuf_iterator@DU?$char_traits@D@std@@@2@V32@0AAVios_base@2@AAHAAI@Z ENDP ; std::num_get<char,std::istreambuf_iterator<char,std::char_traits<char> > >::do_get
PUBLIC	__$ArrayPad$
EXTRN	__Stolx:PROC
;	COMDAT xdata$x
xdata$x	SEGMENT
__unwindtable$?do_get@?$num_get@DV?$istreambuf_iterator@DU?$char_traits@D@std@@@std@@@std@@MBE?AV?$istreambuf_iterator@DU?$char_traits@D@std@@@2@V32@0AAVios_base@2@AAHAAJ@Z DD 0ffffffffH
	DD	FLAT:__unwindfunclet$?do_get@?$num_get@DV?$istreambuf_iterator@DU?$char_traits@D@std@@@std@@@std@@MBE?AV?$istreambuf_iterator@DU?$char_traits@D@std@@@2@V32@0AAVios_base@2@AAHAAJ@Z$0
__ehfuncinfo$?do_get@?$num_get@DV?$istreambuf_iterator@DU?$char_traits@D@std@@@std@@@std@@MBE?AV?$istreambuf_iterator@DU?$char_traits@D@std@@@2@V32@0AAVios_base@2@AAHAAJ@Z DD 019930522H
	DD	01H
	DD	FLAT:__unwindtable$?do_get@?$num_get@DV?$istreambuf_iterator@DU?$char_traits@D@std@@@std@@@std@@MBE?AV?$istreambuf_iterator@DU?$char_traits@D@std@@@2@V32@0AAVios_base@2@AAHAAJ@Z
	DD	2 DUP(00H)
	DD	2 DUP(00H)
	DD	00H
	DD	01H
; Function compile flags: /Odtp /RTCsu
xdata$x	ENDS
;	COMDAT ?do_get@?$num_get@DV?$istreambuf_iterator@DU?$char_traits@D@std@@@std@@@std@@MBE?AV?$istreambuf_iterator@DU?$char_traits@D@std@@@2@V32@0AAVios_base@2@AAHAAJ@Z
_TEXT	SEGMENT
tv129 = -100						; size = 4
tv130 = -96						; size = 4
$T141839 = -92						; size = 4
__Ans$ = -88						; size = 4
__Errno$ = -80						; size = 4
__Ep$ = -68						; size = 4
__Ac$ = -56						; size = 32
_this$ = -20						; size = 4
__$ArrayPad$ = -16					; size = 4
__$EHRec$ = -12						; size = 12
___$ReturnUdt$ = 8					; size = 4
__First$ = 12						; size = 8
__Last$ = 20						; size = 8
__Iosbase$ = 28						; size = 4
__State$ = 32						; size = 4
__Val$ = 36						; size = 4
?do_get@?$num_get@DV?$istreambuf_iterator@DU?$char_traits@D@std@@@std@@@std@@MBE?AV?$istreambuf_iterator@DU?$char_traits@D@std@@@2@V32@0AAVios_base@2@AAHAAJ@Z PROC ; std::num_get<char,std::istreambuf_iterator<char,std::char_traits<char> > >::do_get, COMDAT
; _this$ = ecx

; 447  : 		{	// get long from [_First, _Last) into _Val

	push	ebp
	mov	ebp, esp
	push	-1
	push	__ehhandler$?do_get@?$num_get@DV?$istreambuf_iterator@DU?$char_traits@D@std@@@std@@@std@@MBE?AV?$istreambuf_iterator@DU?$char_traits@D@std@@@2@V32@0AAVios_base@2@AAHAAJ@Z
	mov	eax, DWORD PTR fs:0
	push	eax
	sub	esp, 88					; 00000058H
	push	edi
	push	ecx
	lea	edi, DWORD PTR [ebp-100]
	mov	ecx, 22					; 00000016H
	mov	eax, -858993460				; ccccccccH
	rep stosd
	pop	ecx
	mov	eax, DWORD PTR ___security_cookie
	xor	eax, ebp
	mov	DWORD PTR __$ArrayPad$[ebp], eax
	push	eax
	lea	eax, DWORD PTR __$EHRec$[ebp]
	mov	DWORD PTR fs:0, eax
	mov	DWORD PTR _this$[ebp], ecx

; 448  : 		_DEBUG_RANGE(_First, _Last);

	push	448					; 000001c0H
	push	OFFSET ??_C@_1IO@NAGBLLMA@?$AAc?$AA?3?$AA?2?$AAP?$AAr?$AAo?$AAg?$AAr?$AAa?$AAm?$AA?5?$AAF?$AAi?$AAl?$AAe?$AAs?$AA?5?$AA?$CI?$AAx?$AA8?$AA6?$AA?$CJ?$AA?2?$AAM?$AAi?$AAc?$AAr?$AAo?$AAs?$AAo?$AAf?$AAt@
	mov	eax, DWORD PTR __Last$[ebp+4]
	push	eax
	mov	ecx, DWORD PTR __Last$[ebp]
	push	ecx
	mov	edx, DWORD PTR __First$[ebp+4]
	push	edx
	mov	eax, DWORD PTR __First$[ebp]
	push	eax
	call	??$_Debug_range@V?$istreambuf_iterator@DU?$char_traits@D@std@@@std@@@std@@YAXV?$istreambuf_iterator@DU?$char_traits@D@std@@@0@0PB_WI@Z ; std::_Debug_range<std::istreambuf_iterator<char,std::char_traits<char> > >
	add	esp, 24					; 00000018H

; 449  : 		char _Ac[_MAX_INT_DIG], *_Ep;
; 450  : 		int _Errno = 0;

	mov	DWORD PTR __Errno$[ebp], 0

; 451  : 		const long _Ans = _CSTD _Stolx(_Ac, &_Ep,
; 452  : 			_Getifld(_Ac, _First, _Last, _Iosbase.flags(),
; 453  : 				_Iosbase.getloc()), &_Errno);	// gather field, convert

	lea	ecx, DWORD PTR __Errno$[ebp]
	push	ecx
	lea	edx, DWORD PTR $T141839[ebp]
	push	edx
	mov	ecx, DWORD PTR __Iosbase$[ebp]
	call	?getloc@ios_base@std@@QBE?AVlocale@2@XZ	; std::ios_base::getloc
	mov	DWORD PTR tv130[ebp], eax
	mov	eax, DWORD PTR tv130[ebp]
	mov	DWORD PTR tv129[ebp], eax
	mov	DWORD PTR __$EHRec$[ebp+8], 0
	mov	ecx, DWORD PTR tv129[ebp]
	push	ecx
	mov	ecx, DWORD PTR __Iosbase$[ebp]
	call	?flags@ios_base@std@@QBEHXZ		; std::ios_base::flags
	push	eax
	lea	edx, DWORD PTR __Last$[ebp]
	push	edx
	lea	eax, DWORD PTR __First$[ebp]
	push	eax
	lea	ecx, DWORD PTR __Ac$[ebp]
	push	ecx
	mov	edx, DWORD PTR _this$[ebp]
	push	edx
	call	?_Getifld@?$num_get@DV?$istreambuf_iterator@DU?$char_traits@D@std@@@std@@@std@@ABAHPADAAV?$istreambuf_iterator@DU?$char_traits@D@std@@@2@1HABVlocale@2@@Z ; std::num_get<char,std::istreambuf_iterator<char,std::char_traits<char> > >::_Getifld
	add	esp, 24					; 00000018H
	push	eax
	lea	eax, DWORD PTR __Ep$[ebp]
	push	eax
	lea	ecx, DWORD PTR __Ac$[ebp]
	push	ecx
	call	__Stolx
	add	esp, 16					; 00000010H
	mov	DWORD PTR __Ans$[ebp], eax
	mov	DWORD PTR __$EHRec$[ebp+8], -1
	lea	ecx, DWORD PTR $T141839[ebp]
	call	??1locale@std@@QAE@XZ			; std::locale::~locale

; 454  : 
; 455  : 		if (_First == _Last)

	lea	edx, DWORD PTR __Last$[ebp]
	push	edx
	lea	eax, DWORD PTR __First$[ebp]
	push	eax
	call	??$?8DU?$char_traits@D@std@@@std@@YA_NABV?$istreambuf_iterator@DU?$char_traits@D@std@@@0@0@Z ; std::operator==<char,std::char_traits<char> >
	add	esp, 8
	movzx	ecx, al
	test	ecx, ecx
	je	SHORT $LN4@do_get@4

; 456  : 			_State |= ios_base::eofbit;

	mov	edx, DWORD PTR __State$[ebp]
	mov	eax, DWORD PTR [edx]
	or	eax, 1
	mov	ecx, DWORD PTR __State$[ebp]
	mov	DWORD PTR [ecx], eax
$LN4@do_get@4:

; 457  : 		if (_Ep == _Ac || _Errno != 0)

	mov	edx, DWORD PTR __Ep$[ebp]
	lea	eax, DWORD PTR __Ac$[ebp]
	cmp	edx, eax
	je	SHORT $LN2@do_get@4
	cmp	DWORD PTR __Errno$[ebp], 0
	je	SHORT $LN3@do_get@4
$LN2@do_get@4:

; 458  : 			_State |= ios_base::failbit;

	mov	ecx, DWORD PTR __State$[ebp]
	mov	edx, DWORD PTR [ecx]
	or	edx, 2
	mov	eax, DWORD PTR __State$[ebp]
	mov	DWORD PTR [eax], edx

; 459  : 		else

	jmp	SHORT $LN1@do_get@4
$LN3@do_get@4:

; 460  : 			_Val = _Ans;	// deliver value

	mov	ecx, DWORD PTR __Val$[ebp]
	mov	edx, DWORD PTR __Ans$[ebp]
	mov	DWORD PTR [ecx], edx
$LN1@do_get@4:

; 461  : 		return (_First);

	mov	eax, DWORD PTR ___$ReturnUdt$[ebp]
	mov	ecx, DWORD PTR __First$[ebp]
	mov	DWORD PTR [eax], ecx
	mov	edx, DWORD PTR __First$[ebp+4]
	mov	DWORD PTR [eax+4], edx
	mov	eax, DWORD PTR ___$ReturnUdt$[ebp]

; 462  : 		}

	push	edx
	mov	ecx, ebp
	push	eax
	lea	edx, DWORD PTR $LN13@do_get@4
	call	@_RTC_CheckStackVars@8
	pop	eax
	pop	edx
	mov	ecx, DWORD PTR __$EHRec$[ebp]
	mov	DWORD PTR fs:0, ecx
	pop	ecx
	pop	edi
	mov	ecx, DWORD PTR __$ArrayPad$[ebp]
	xor	ecx, ebp
	call	@__security_check_cookie@4
	add	esp, 100				; 00000064H
	cmp	ebp, esp
	call	__RTC_CheckEsp
	mov	esp, ebp
	pop	ebp
	ret	32					; 00000020H
	npad	3
$LN13@do_get@4:
	DD	3
	DD	$LN12@do_get@4
$LN12@do_get@4:
	DD	-56					; ffffffc8H
	DD	32					; 00000020H
	DD	$LN8@do_get@4
	DD	-68					; ffffffbcH
	DD	4
	DD	$LN9@do_get@4
	DD	-80					; ffffffb0H
	DD	4
	DD	$LN10@do_get@4
$LN10@do_get@4:
	DB	95					; 0000005fH
	DB	69					; 00000045H
	DB	114					; 00000072H
	DB	114					; 00000072H
	DB	110					; 0000006eH
	DB	111					; 0000006fH
	DB	0
$LN9@do_get@4:
	DB	95					; 0000005fH
	DB	69					; 00000045H
	DB	112					; 00000070H
	DB	0
$LN8@do_get@4:
	DB	95					; 0000005fH
	DB	65					; 00000041H
	DB	99					; 00000063H
	DB	0
_TEXT	ENDS
;	COMDAT text$x
text$x	SEGMENT
__unwindfunclet$?do_get@?$num_get@DV?$istreambuf_iterator@DU?$char_traits@D@std@@@std@@@std@@MBE?AV?$istreambuf_iterator@DU?$char_traits@D@std@@@2@V32@0AAVios_base@2@AAHAAJ@Z$0:
	lea	ecx, DWORD PTR $T141839[ebp]
	jmp	??1locale@std@@QAE@XZ			; std::locale::~locale
__ehhandler$?do_get@?$num_get@DV?$istreambuf_iterator@DU?$char_traits@D@std@@@std@@@std@@MBE?AV?$istreambuf_iterator@DU?$char_traits@D@std@@@2@V32@0AAVios_base@2@AAHAAJ@Z:
	mov	edx, DWORD PTR [esp+8]
	lea	eax, DWORD PTR [edx+12]
	mov	ecx, DWORD PTR [edx-96]
	xor	ecx, eax
	call	@__security_check_cookie@4
	mov	ecx, DWORD PTR [edx-4]
	xor	ecx, eax
	call	@__security_check_cookie@4
	mov	eax, OFFSET __ehfuncinfo$?do_get@?$num_get@DV?$istreambuf_iterator@DU?$char_traits@D@std@@@std@@@std@@MBE?AV?$istreambuf_iterator@DU?$char_traits@D@std@@@2@V32@0AAVios_base@2@AAHAAJ@Z
	jmp	___CxxFrameHandler3
text$x	ENDS
?do_get@?$num_get@DV?$istreambuf_iterator@DU?$char_traits@D@std@@@std@@@std@@MBE?AV?$istreambuf_iterator@DU?$char_traits@D@std@@@2@V32@0AAVios_base@2@AAHAAJ@Z ENDP ; std::num_get<char,std::istreambuf_iterator<char,std::char_traits<char> > >::do_get
PUBLIC	__$ArrayPad$
;	COMDAT xdata$x
xdata$x	SEGMENT
__unwindtable$?do_get@?$num_get@DV?$istreambuf_iterator@DU?$char_traits@D@std@@@std@@@std@@MBE?AV?$istreambuf_iterator@DU?$char_traits@D@std@@@2@V32@0AAVios_base@2@AAHAAK@Z DD 0ffffffffH
	DD	FLAT:__unwindfunclet$?do_get@?$num_get@DV?$istreambuf_iterator@DU?$char_traits@D@std@@@std@@@std@@MBE?AV?$istreambuf_iterator@DU?$char_traits@D@std@@@2@V32@0AAVios_base@2@AAHAAK@Z$0
__ehfuncinfo$?do_get@?$num_get@DV?$istreambuf_iterator@DU?$char_traits@D@std@@@std@@@std@@MBE?AV?$istreambuf_iterator@DU?$char_traits@D@std@@@2@V32@0AAVios_base@2@AAHAAK@Z DD 019930522H
	DD	01H
	DD	FLAT:__unwindtable$?do_get@?$num_get@DV?$istreambuf_iterator@DU?$char_traits@D@std@@@std@@@std@@MBE?AV?$istreambuf_iterator@DU?$char_traits@D@std@@@2@V32@0AAVios_base@2@AAHAAK@Z
	DD	2 DUP(00H)
	DD	2 DUP(00H)
	DD	00H
	DD	01H
; Function compile flags: /Odtp /RTCsu
xdata$x	ENDS
;	COMDAT ?do_get@?$num_get@DV?$istreambuf_iterator@DU?$char_traits@D@std@@@std@@@std@@MBE?AV?$istreambuf_iterator@DU?$char_traits@D@std@@@2@V32@0AAVios_base@2@AAHAAK@Z
_TEXT	SEGMENT
tv129 = -100						; size = 4
tv130 = -96						; size = 4
$T141855 = -92						; size = 4
__Ans$ = -88						; size = 4
__Errno$ = -80						; size = 4
__Ep$ = -68						; size = 4
__Ac$ = -56						; size = 32
_this$ = -20						; size = 4
__$ArrayPad$ = -16					; size = 4
__$EHRec$ = -12						; size = 12
___$ReturnUdt$ = 8					; size = 4
__First$ = 12						; size = 8
__Last$ = 20						; size = 8
__Iosbase$ = 28						; size = 4
__State$ = 32						; size = 4
__Val$ = 36						; size = 4
?do_get@?$num_get@DV?$istreambuf_iterator@DU?$char_traits@D@std@@@std@@@std@@MBE?AV?$istreambuf_iterator@DU?$char_traits@D@std@@@2@V32@0AAVios_base@2@AAHAAK@Z PROC ; std::num_get<char,std::istreambuf_iterator<char,std::char_traits<char> > >::do_get, COMDAT
; _this$ = ecx

; 467  : 		{	// get unsigned long from [_First, _Last) into _Val

	push	ebp
	mov	ebp, esp
	push	-1
	push	__ehhandler$?do_get@?$num_get@DV?$istreambuf_iterator@DU?$char_traits@D@std@@@std@@@std@@MBE?AV?$istreambuf_iterator@DU?$char_traits@D@std@@@2@V32@0AAVios_base@2@AAHAAK@Z
	mov	eax, DWORD PTR fs:0
	push	eax
	sub	esp, 88					; 00000058H
	push	edi
	push	ecx
	lea	edi, DWORD PTR [ebp-100]
	mov	ecx, 22					; 00000016H
	mov	eax, -858993460				; ccccccccH
	rep stosd
	pop	ecx
	mov	eax, DWORD PTR ___security_cookie
	xor	eax, ebp
	mov	DWORD PTR __$ArrayPad$[ebp], eax
	push	eax
	lea	eax, DWORD PTR __$EHRec$[ebp]
	mov	DWORD PTR fs:0, eax
	mov	DWORD PTR _this$[ebp], ecx

; 468  : 		_DEBUG_RANGE(_First, _Last);

	push	468					; 000001d4H
	push	OFFSET ??_C@_1IO@NAGBLLMA@?$AAc?$AA?3?$AA?2?$AAP?$AAr?$AAo?$AAg?$AAr?$AAa?$AAm?$AA?5?$AAF?$AAi?$AAl?$AAe?$AAs?$AA?5?$AA?$CI?$AAx?$AA8?$AA6?$AA?$CJ?$AA?2?$AAM?$AAi?$AAc?$AAr?$AAo?$AAs?$AAo?$AAf?$AAt@
	mov	eax, DWORD PTR __Last$[ebp+4]
	push	eax
	mov	ecx, DWORD PTR __Last$[ebp]
	push	ecx
	mov	edx, DWORD PTR __First$[ebp+4]
	push	edx
	mov	eax, DWORD PTR __First$[ebp]
	push	eax
	call	??$_Debug_range@V?$istreambuf_iterator@DU?$char_traits@D@std@@@std@@@std@@YAXV?$istreambuf_iterator@DU?$char_traits@D@std@@@0@0PB_WI@Z ; std::_Debug_range<std::istreambuf_iterator<char,std::char_traits<char> > >
	add	esp, 24					; 00000018H

; 469  : 		char _Ac[_MAX_INT_DIG], *_Ep;
; 470  : 		int _Errno = 0;

	mov	DWORD PTR __Errno$[ebp], 0

; 471  : 		const unsigned long _Ans = _CSTD _Stoulx(_Ac, &_Ep,
; 472  : 			_Getifld(_Ac, _First, _Last, _Iosbase.flags(),
; 473  : 				_Iosbase.getloc()), &_Errno);	// gather field, convert

	lea	ecx, DWORD PTR __Errno$[ebp]
	push	ecx
	lea	edx, DWORD PTR $T141855[ebp]
	push	edx
	mov	ecx, DWORD PTR __Iosbase$[ebp]
	call	?getloc@ios_base@std@@QBE?AVlocale@2@XZ	; std::ios_base::getloc
	mov	DWORD PTR tv130[ebp], eax
	mov	eax, DWORD PTR tv130[ebp]
	mov	DWORD PTR tv129[ebp], eax
	mov	DWORD PTR __$EHRec$[ebp+8], 0
	mov	ecx, DWORD PTR tv129[ebp]
	push	ecx
	mov	ecx, DWORD PTR __Iosbase$[ebp]
	call	?flags@ios_base@std@@QBEHXZ		; std::ios_base::flags
	push	eax
	lea	edx, DWORD PTR __Last$[ebp]
	push	edx
	lea	eax, DWORD PTR __First$[ebp]
	push	eax
	lea	ecx, DWORD PTR __Ac$[ebp]
	push	ecx
	mov	edx, DWORD PTR _this$[ebp]
	push	edx
	call	?_Getifld@?$num_get@DV?$istreambuf_iterator@DU?$char_traits@D@std@@@std@@@std@@ABAHPADAAV?$istreambuf_iterator@DU?$char_traits@D@std@@@2@1HABVlocale@2@@Z ; std::num_get<char,std::istreambuf_iterator<char,std::char_traits<char> > >::_Getifld
	add	esp, 24					; 00000018H
	push	eax
	lea	eax, DWORD PTR __Ep$[ebp]
	push	eax
	lea	ecx, DWORD PTR __Ac$[ebp]
	push	ecx
	call	__Stoulx
	add	esp, 16					; 00000010H
	mov	DWORD PTR __Ans$[ebp], eax
	mov	DWORD PTR __$EHRec$[ebp+8], -1
	lea	ecx, DWORD PTR $T141855[ebp]
	call	??1locale@std@@QAE@XZ			; std::locale::~locale

; 474  : 
; 475  : 		if (_First == _Last)

	lea	edx, DWORD PTR __Last$[ebp]
	push	edx
	lea	eax, DWORD PTR __First$[ebp]
	push	eax
	call	??$?8DU?$char_traits@D@std@@@std@@YA_NABV?$istreambuf_iterator@DU?$char_traits@D@std@@@0@0@Z ; std::operator==<char,std::char_traits<char> >
	add	esp, 8
	movzx	ecx, al
	test	ecx, ecx
	je	SHORT $LN4@do_get@5

; 476  : 			_State |= ios_base::eofbit;

	mov	edx, DWORD PTR __State$[ebp]
	mov	eax, DWORD PTR [edx]
	or	eax, 1
	mov	ecx, DWORD PTR __State$[ebp]
	mov	DWORD PTR [ecx], eax
$LN4@do_get@5:

; 477  : 		if (_Ep == _Ac || _Errno != 0)

	mov	edx, DWORD PTR __Ep$[ebp]
	lea	eax, DWORD PTR __Ac$[ebp]
	cmp	edx, eax
	je	SHORT $LN2@do_get@5
	cmp	DWORD PTR __Errno$[ebp], 0
	je	SHORT $LN3@do_get@5
$LN2@do_get@5:

; 478  : 			_State |= ios_base::failbit;

	mov	ecx, DWORD PTR __State$[ebp]
	mov	edx, DWORD PTR [ecx]
	or	edx, 2
	mov	eax, DWORD PTR __State$[ebp]
	mov	DWORD PTR [eax], edx

; 479  : 		else

	jmp	SHORT $LN1@do_get@5
$LN3@do_get@5:

; 480  : 			_Val = _Ans;	// deliver value

	mov	ecx, DWORD PTR __Val$[ebp]
	mov	edx, DWORD PTR __Ans$[ebp]
	mov	DWORD PTR [ecx], edx
$LN1@do_get@5:

; 481  : 		return (_First);

	mov	eax, DWORD PTR ___$ReturnUdt$[ebp]
	mov	ecx, DWORD PTR __First$[ebp]
	mov	DWORD PTR [eax], ecx
	mov	edx, DWORD PTR __First$[ebp+4]
	mov	DWORD PTR [eax+4], edx
	mov	eax, DWORD PTR ___$ReturnUdt$[ebp]

; 482  : 		}

	push	edx
	mov	ecx, ebp
	push	eax
	lea	edx, DWORD PTR $LN13@do_get@5
	call	@_RTC_CheckStackVars@8
	pop	eax
	pop	edx
	mov	ecx, DWORD PTR __$EHRec$[ebp]
	mov	DWORD PTR fs:0, ecx
	pop	ecx
	pop	edi
	mov	ecx, DWORD PTR __$ArrayPad$[ebp]
	xor	ecx, ebp
	call	@__security_check_cookie@4
	add	esp, 100				; 00000064H
	cmp	ebp, esp
	call	__RTC_CheckEsp
	mov	esp, ebp
	pop	ebp
	ret	32					; 00000020H
	npad	3
$LN13@do_get@5:
	DD	3
	DD	$LN12@do_get@5
$LN12@do_get@5:
	DD	-56					; ffffffc8H
	DD	32					; 00000020H
	DD	$LN8@do_get@5
	DD	-68					; ffffffbcH
	DD	4
	DD	$LN9@do_get@5
	DD	-80					; ffffffb0H
	DD	4
	DD	$LN10@do_get@5
$LN10@do_get@5:
	DB	95					; 0000005fH
	DB	69					; 00000045H
	DB	114					; 00000072H
	DB	114					; 00000072H
	DB	110					; 0000006eH
	DB	111					; 0000006fH
	DB	0
$LN9@do_get@5:
	DB	95					; 0000005fH
	DB	69					; 00000045H
	DB	112					; 00000070H
	DB	0
$LN8@do_get@5:
	DB	95					; 0000005fH
	DB	65					; 00000041H
	DB	99					; 00000063H
	DB	0
_TEXT	ENDS
;	COMDAT text$x
text$x	SEGMENT
__unwindfunclet$?do_get@?$num_get@DV?$istreambuf_iterator@DU?$char_traits@D@std@@@std@@@std@@MBE?AV?$istreambuf_iterator@DU?$char_traits@D@std@@@2@V32@0AAVios_base@2@AAHAAK@Z$0:
	lea	ecx, DWORD PTR $T141855[ebp]
	jmp	??1locale@std@@QAE@XZ			; std::locale::~locale
__ehhandler$?do_get@?$num_get@DV?$istreambuf_iterator@DU?$char_traits@D@std@@@std@@@std@@MBE?AV?$istreambuf_iterator@DU?$char_traits@D@std@@@2@V32@0AAVios_base@2@AAHAAK@Z:
	mov	edx, DWORD PTR [esp+8]
	lea	eax, DWORD PTR [edx+12]
	mov	ecx, DWORD PTR [edx-96]
	xor	ecx, eax
	call	@__security_check_cookie@4
	mov	ecx, DWORD PTR [edx-4]
	xor	ecx, eax
	call	@__security_check_cookie@4
	mov	eax, OFFSET __ehfuncinfo$?do_get@?$num_get@DV?$istreambuf_iterator@DU?$char_traits@D@std@@@std@@@std@@MBE?AV?$istreambuf_iterator@DU?$char_traits@D@std@@@2@V32@0AAVios_base@2@AAHAAK@Z
	jmp	___CxxFrameHandler3
text$x	ENDS
?do_get@?$num_get@DV?$istreambuf_iterator@DU?$char_traits@D@std@@@std@@@std@@MBE?AV?$istreambuf_iterator@DU?$char_traits@D@std@@@2@V32@0AAVios_base@2@AAHAAK@Z ENDP ; std::num_get<char,std::istreambuf_iterator<char,std::char_traits<char> > >::do_get
PUBLIC	__$ArrayPad$
EXTRN	__Stollx:PROC
;	COMDAT xdata$x
xdata$x	SEGMENT
__unwindtable$?do_get@?$num_get@DV?$istreambuf_iterator@DU?$char_traits@D@std@@@std@@@std@@MBE?AV?$istreambuf_iterator@DU?$char_traits@D@std@@@2@V32@0AAVios_base@2@AAHAA_J@Z DD 0ffffffffH
	DD	FLAT:__unwindfunclet$?do_get@?$num_get@DV?$istreambuf_iterator@DU?$char_traits@D@std@@@std@@@std@@MBE?AV?$istreambuf_iterator@DU?$char_traits@D@std@@@2@V32@0AAVios_base@2@AAHAA_J@Z$0
__ehfuncinfo$?do_get@?$num_get@DV?$istreambuf_iterator@DU?$char_traits@D@std@@@std@@@std@@MBE?AV?$istreambuf_iterator@DU?$char_traits@D@std@@@2@V32@0AAVios_base@2@AAHAA_J@Z DD 019930522H
	DD	01H
	DD	FLAT:__unwindtable$?do_get@?$num_get@DV?$istreambuf_iterator@DU?$char_traits@D@std@@@std@@@std@@MBE?AV?$istreambuf_iterator@DU?$char_traits@D@std@@@2@V32@0AAVios_base@2@AAHAA_J@Z
	DD	2 DUP(00H)
	DD	2 DUP(00H)
	DD	00H
	DD	01H
; Function compile flags: /Odtp /RTCsu
xdata$x	ENDS
;	COMDAT ?do_get@?$num_get@DV?$istreambuf_iterator@DU?$char_traits@D@std@@@std@@@std@@MBE?AV?$istreambuf_iterator@DU?$char_traits@D@std@@@2@V32@0AAVios_base@2@AAHAA_J@Z
_TEXT	SEGMENT
tv129 = -104						; size = 4
tv130 = -100						; size = 4
$T141871 = -96						; size = 4
__Ans$ = -92						; size = 8
__Errno$ = -80						; size = 4
__Ep$ = -68						; size = 4
__Ac$ = -56						; size = 32
_this$ = -20						; size = 4
__$ArrayPad$ = -16					; size = 4
__$EHRec$ = -12						; size = 12
___$ReturnUdt$ = 8					; size = 4
__First$ = 12						; size = 8
__Last$ = 20						; size = 8
__Iosbase$ = 28						; size = 4
__State$ = 32						; size = 4
__Val$ = 36						; size = 4
?do_get@?$num_get@DV?$istreambuf_iterator@DU?$char_traits@D@std@@@std@@@std@@MBE?AV?$istreambuf_iterator@DU?$char_traits@D@std@@@2@V32@0AAVios_base@2@AAHAA_J@Z PROC ; std::num_get<char,std::istreambuf_iterator<char,std::char_traits<char> > >::do_get, COMDAT
; _this$ = ecx

; 488  : 		{	// get long long from [_First, _Last) into _Val

	push	ebp
	mov	ebp, esp
	push	-1
	push	__ehhandler$?do_get@?$num_get@DV?$istreambuf_iterator@DU?$char_traits@D@std@@@std@@@std@@MBE?AV?$istreambuf_iterator@DU?$char_traits@D@std@@@2@V32@0AAVios_base@2@AAHAA_J@Z
	mov	eax, DWORD PTR fs:0
	push	eax
	sub	esp, 92					; 0000005cH
	push	edi
	push	ecx
	lea	edi, DWORD PTR [ebp-104]
	mov	ecx, 23					; 00000017H
	mov	eax, -858993460				; ccccccccH
	rep stosd
	pop	ecx
	mov	eax, DWORD PTR ___security_cookie
	xor	eax, ebp
	mov	DWORD PTR __$ArrayPad$[ebp], eax
	push	eax
	lea	eax, DWORD PTR __$EHRec$[ebp]
	mov	DWORD PTR fs:0, eax
	mov	DWORD PTR _this$[ebp], ecx

; 489  : 		_DEBUG_RANGE(_First, _Last);

	push	489					; 000001e9H
	push	OFFSET ??_C@_1IO@NAGBLLMA@?$AAc?$AA?3?$AA?2?$AAP?$AAr?$AAo?$AAg?$AAr?$AAa?$AAm?$AA?5?$AAF?$AAi?$AAl?$AAe?$AAs?$AA?5?$AA?$CI?$AAx?$AA8?$AA6?$AA?$CJ?$AA?2?$AAM?$AAi?$AAc?$AAr?$AAo?$AAs?$AAo?$AAf?$AAt@
	mov	eax, DWORD PTR __Last$[ebp+4]
	push	eax
	mov	ecx, DWORD PTR __Last$[ebp]
	push	ecx
	mov	edx, DWORD PTR __First$[ebp+4]
	push	edx
	mov	eax, DWORD PTR __First$[ebp]
	push	eax
	call	??$_Debug_range@V?$istreambuf_iterator@DU?$char_traits@D@std@@@std@@@std@@YAXV?$istreambuf_iterator@DU?$char_traits@D@std@@@0@0PB_WI@Z ; std::_Debug_range<std::istreambuf_iterator<char,std::char_traits<char> > >
	add	esp, 24					; 00000018H

; 490  : 		char _Ac[_MAX_INT_DIG], *_Ep;
; 491  : 		int _Errno = 0;

	mov	DWORD PTR __Errno$[ebp], 0

; 492  : 		const _LONGLONG _Ans = _CSTD _Stollx(_Ac, &_Ep,
; 493  : 			_Getifld(_Ac, _First, _Last, _Iosbase.flags(),
; 494  : 				_Iosbase.getloc()), &_Errno);	// gather field, convert

	lea	ecx, DWORD PTR __Errno$[ebp]
	push	ecx
	lea	edx, DWORD PTR $T141871[ebp]
	push	edx
	mov	ecx, DWORD PTR __Iosbase$[ebp]
	call	?getloc@ios_base@std@@QBE?AVlocale@2@XZ	; std::ios_base::getloc
	mov	DWORD PTR tv130[ebp], eax
	mov	eax, DWORD PTR tv130[ebp]
	mov	DWORD PTR tv129[ebp], eax
	mov	DWORD PTR __$EHRec$[ebp+8], 0
	mov	ecx, DWORD PTR tv129[ebp]
	push	ecx
	mov	ecx, DWORD PTR __Iosbase$[ebp]
	call	?flags@ios_base@std@@QBEHXZ		; std::ios_base::flags
	push	eax
	lea	edx, DWORD PTR __Last$[ebp]
	push	edx
	lea	eax, DWORD PTR __First$[ebp]
	push	eax
	lea	ecx, DWORD PTR __Ac$[ebp]
	push	ecx
	mov	edx, DWORD PTR _this$[ebp]
	push	edx
	call	?_Getifld@?$num_get@DV?$istreambuf_iterator@DU?$char_traits@D@std@@@std@@@std@@ABAHPADAAV?$istreambuf_iterator@DU?$char_traits@D@std@@@2@1HABVlocale@2@@Z ; std::num_get<char,std::istreambuf_iterator<char,std::char_traits<char> > >::_Getifld
	add	esp, 24					; 00000018H
	push	eax
	lea	eax, DWORD PTR __Ep$[ebp]
	push	eax
	lea	ecx, DWORD PTR __Ac$[ebp]
	push	ecx
	call	__Stollx
	add	esp, 16					; 00000010H
	mov	DWORD PTR __Ans$[ebp], eax
	mov	DWORD PTR __Ans$[ebp+4], edx
	mov	DWORD PTR __$EHRec$[ebp+8], -1
	lea	ecx, DWORD PTR $T141871[ebp]
	call	??1locale@std@@QAE@XZ			; std::locale::~locale

; 495  : 
; 496  : 		if (_First == _Last)

	lea	edx, DWORD PTR __Last$[ebp]
	push	edx
	lea	eax, DWORD PTR __First$[ebp]
	push	eax
	call	??$?8DU?$char_traits@D@std@@@std@@YA_NABV?$istreambuf_iterator@DU?$char_traits@D@std@@@0@0@Z ; std::operator==<char,std::char_traits<char> >
	add	esp, 8
	movzx	ecx, al
	test	ecx, ecx
	je	SHORT $LN4@do_get@6

; 497  : 			_State |= ios_base::eofbit;

	mov	edx, DWORD PTR __State$[ebp]
	mov	eax, DWORD PTR [edx]
	or	eax, 1
	mov	ecx, DWORD PTR __State$[ebp]
	mov	DWORD PTR [ecx], eax
$LN4@do_get@6:

; 498  : 		if (_Ep == _Ac || _Errno != 0)

	mov	edx, DWORD PTR __Ep$[ebp]
	lea	eax, DWORD PTR __Ac$[ebp]
	cmp	edx, eax
	je	SHORT $LN2@do_get@6
	cmp	DWORD PTR __Errno$[ebp], 0
	je	SHORT $LN3@do_get@6
$LN2@do_get@6:

; 499  : 			_State |= ios_base::failbit;

	mov	ecx, DWORD PTR __State$[ebp]
	mov	edx, DWORD PTR [ecx]
	or	edx, 2
	mov	eax, DWORD PTR __State$[ebp]
	mov	DWORD PTR [eax], edx

; 500  : 		else

	jmp	SHORT $LN1@do_get@6
$LN3@do_get@6:

; 501  : 			_Val = _Ans;	// deliver value

	mov	ecx, DWORD PTR __Val$[ebp]
	mov	edx, DWORD PTR __Ans$[ebp]
	mov	DWORD PTR [ecx], edx
	mov	eax, DWORD PTR __Ans$[ebp+4]
	mov	DWORD PTR [ecx+4], eax
$LN1@do_get@6:

; 502  : 		return (_First);

	mov	ecx, DWORD PTR ___$ReturnUdt$[ebp]
	mov	edx, DWORD PTR __First$[ebp]
	mov	DWORD PTR [ecx], edx
	mov	eax, DWORD PTR __First$[ebp+4]
	mov	DWORD PTR [ecx+4], eax
	mov	eax, DWORD PTR ___$ReturnUdt$[ebp]

; 503  : 		}

	push	edx
	mov	ecx, ebp
	push	eax
	lea	edx, DWORD PTR $LN13@do_get@6
	call	@_RTC_CheckStackVars@8
	pop	eax
	pop	edx
	mov	ecx, DWORD PTR __$EHRec$[ebp]
	mov	DWORD PTR fs:0, ecx
	pop	ecx
	pop	edi
	mov	ecx, DWORD PTR __$ArrayPad$[ebp]
	xor	ecx, ebp
	call	@__security_check_cookie@4
	add	esp, 104				; 00000068H
	cmp	ebp, esp
	call	__RTC_CheckEsp
	mov	esp, ebp
	pop	ebp
	ret	32					; 00000020H
	npad	2
$LN13@do_get@6:
	DD	3
	DD	$LN12@do_get@6
$LN12@do_get@6:
	DD	-56					; ffffffc8H
	DD	32					; 00000020H
	DD	$LN8@do_get@6
	DD	-68					; ffffffbcH
	DD	4
	DD	$LN9@do_get@6
	DD	-80					; ffffffb0H
	DD	4
	DD	$LN10@do_get@6
$LN10@do_get@6:
	DB	95					; 0000005fH
	DB	69					; 00000045H
	DB	114					; 00000072H
	DB	114					; 00000072H
	DB	110					; 0000006eH
	DB	111					; 0000006fH
	DB	0
$LN9@do_get@6:
	DB	95					; 0000005fH
	DB	69					; 00000045H
	DB	112					; 00000070H
	DB	0
$LN8@do_get@6:
	DB	95					; 0000005fH
	DB	65					; 00000041H
	DB	99					; 00000063H
	DB	0
_TEXT	ENDS
;	COMDAT text$x
text$x	SEGMENT
__unwindfunclet$?do_get@?$num_get@DV?$istreambuf_iterator@DU?$char_traits@D@std@@@std@@@std@@MBE?AV?$istreambuf_iterator@DU?$char_traits@D@std@@@2@V32@0AAVios_base@2@AAHAA_J@Z$0:
	lea	ecx, DWORD PTR $T141871[ebp]
	jmp	??1locale@std@@QAE@XZ			; std::locale::~locale
__ehhandler$?do_get@?$num_get@DV?$istreambuf_iterator@DU?$char_traits@D@std@@@std@@@std@@MBE?AV?$istreambuf_iterator@DU?$char_traits@D@std@@@2@V32@0AAVios_base@2@AAHAA_J@Z:
	mov	edx, DWORD PTR [esp+8]
	lea	eax, DWORD PTR [edx+12]
	mov	ecx, DWORD PTR [edx-100]
	xor	ecx, eax
	call	@__security_check_cookie@4
	mov	ecx, DWORD PTR [edx-4]
	xor	ecx, eax
	call	@__security_check_cookie@4
	mov	eax, OFFSET __ehfuncinfo$?do_get@?$num_get@DV?$istreambuf_iterator@DU?$char_traits@D@std@@@std@@@std@@MBE?AV?$istreambuf_iterator@DU?$char_traits@D@std@@@2@V32@0AAVios_base@2@AAHAA_J@Z
	jmp	___CxxFrameHandler3
text$x	ENDS
?do_get@?$num_get@DV?$istreambuf_iterator@DU?$char_traits@D@std@@@std@@@std@@MBE?AV?$istreambuf_iterator@DU?$char_traits@D@std@@@2@V32@0AAVios_base@2@AAHAA_J@Z ENDP ; std::num_get<char,std::istreambuf_iterator<char,std::char_traits<char> > >::do_get
PUBLIC	__$ArrayPad$
EXTRN	__Stoullx:PROC
;	COMDAT xdata$x
xdata$x	SEGMENT
__unwindtable$?do_get@?$num_get@DV?$istreambuf_iterator@DU?$char_traits@D@std@@@std@@@std@@MBE?AV?$istreambuf_iterator@DU?$char_traits@D@std@@@2@V32@0AAVios_base@2@AAHAA_K@Z DD 0ffffffffH
	DD	FLAT:__unwindfunclet$?do_get@?$num_get@DV?$istreambuf_iterator@DU?$char_traits@D@std@@@std@@@std@@MBE?AV?$istreambuf_iterator@DU?$char_traits@D@std@@@2@V32@0AAVios_base@2@AAHAA_K@Z$0
__ehfuncinfo$?do_get@?$num_get@DV?$istreambuf_iterator@DU?$char_traits@D@std@@@std@@@std@@MBE?AV?$istreambuf_iterator@DU?$char_traits@D@std@@@2@V32@0AAVios_base@2@AAHAA_K@Z DD 019930522H
	DD	01H
	DD	FLAT:__unwindtable$?do_get@?$num_get@DV?$istreambuf_iterator@DU?$char_traits@D@std@@@std@@@std@@MBE?AV?$istreambuf_iterator@DU?$char_traits@D@std@@@2@V32@0AAVios_base@2@AAHAA_K@Z
	DD	2 DUP(00H)
	DD	2 DUP(00H)
	DD	00H
	DD	01H
; Function compile flags: /Odtp /RTCsu
xdata$x	ENDS
;	COMDAT ?do_get@?$num_get@DV?$istreambuf_iterator@DU?$char_traits@D@std@@@std@@@std@@MBE?AV?$istreambuf_iterator@DU?$char_traits@D@std@@@2@V32@0AAVios_base@2@AAHAA_K@Z
_TEXT	SEGMENT
tv129 = -104						; size = 4
tv130 = -100						; size = 4
$T141887 = -96						; size = 4
__Ans$ = -92						; size = 8
__Errno$ = -80						; size = 4
__Ep$ = -68						; size = 4
__Ac$ = -56						; size = 32
_this$ = -20						; size = 4
__$ArrayPad$ = -16					; size = 4
__$EHRec$ = -12						; size = 12
___$ReturnUdt$ = 8					; size = 4
__First$ = 12						; size = 8
__Last$ = 20						; size = 8
__Iosbase$ = 28						; size = 4
__State$ = 32						; size = 4
__Val$ = 36						; size = 4
?do_get@?$num_get@DV?$istreambuf_iterator@DU?$char_traits@D@std@@@std@@@std@@MBE?AV?$istreambuf_iterator@DU?$char_traits@D@std@@@2@V32@0AAVios_base@2@AAHAA_K@Z PROC ; std::num_get<char,std::istreambuf_iterator<char,std::char_traits<char> > >::do_get, COMDAT
; _this$ = ecx

; 508  : 		{	// get unsigned long long from [_First, _Last) into _Val

	push	ebp
	mov	ebp, esp
	push	-1
	push	__ehhandler$?do_get@?$num_get@DV?$istreambuf_iterator@DU?$char_traits@D@std@@@std@@@std@@MBE?AV?$istreambuf_iterator@DU?$char_traits@D@std@@@2@V32@0AAVios_base@2@AAHAA_K@Z
	mov	eax, DWORD PTR fs:0
	push	eax
	sub	esp, 92					; 0000005cH
	push	edi
	push	ecx
	lea	edi, DWORD PTR [ebp-104]
	mov	ecx, 23					; 00000017H
	mov	eax, -858993460				; ccccccccH
	rep stosd
	pop	ecx
	mov	eax, DWORD PTR ___security_cookie
	xor	eax, ebp
	mov	DWORD PTR __$ArrayPad$[ebp], eax
	push	eax
	lea	eax, DWORD PTR __$EHRec$[ebp]
	mov	DWORD PTR fs:0, eax
	mov	DWORD PTR _this$[ebp], ecx

; 509  : 		_DEBUG_RANGE(_First, _Last);

	push	509					; 000001fdH
	push	OFFSET ??_C@_1IO@NAGBLLMA@?$AAc?$AA?3?$AA?2?$AAP?$AAr?$AAo?$AAg?$AAr?$AAa?$AAm?$AA?5?$AAF?$AAi?$AAl?$AAe?$AAs?$AA?5?$AA?$CI?$AAx?$AA8?$AA6?$AA?$CJ?$AA?2?$AAM?$AAi?$AAc?$AAr?$AAo?$AAs?$AAo?$AAf?$AAt@
	mov	eax, DWORD PTR __Last$[ebp+4]
	push	eax
	mov	ecx, DWORD PTR __Last$[ebp]
	push	ecx
	mov	edx, DWORD PTR __First$[ebp+4]
	push	edx
	mov	eax, DWORD PTR __First$[ebp]
	push	eax
	call	??$_Debug_range@V?$istreambuf_iterator@DU?$char_traits@D@std@@@std@@@std@@YAXV?$istreambuf_iterator@DU?$char_traits@D@std@@@0@0PB_WI@Z ; std::_Debug_range<std::istreambuf_iterator<char,std::char_traits<char> > >
	add	esp, 24					; 00000018H

; 510  : 		char _Ac[_MAX_INT_DIG], *_Ep;
; 511  : 		int _Errno = 0;

	mov	DWORD PTR __Errno$[ebp], 0

; 512  : 		const _ULONGLONG _Ans = _CSTD _Stoullx(_Ac, &_Ep,
; 513  : 			_Getifld(_Ac, _First, _Last, _Iosbase.flags(),
; 514  : 				_Iosbase.getloc()), &_Errno);	// gather field, convert

	lea	ecx, DWORD PTR __Errno$[ebp]
	push	ecx
	lea	edx, DWORD PTR $T141887[ebp]
	push	edx
	mov	ecx, DWORD PTR __Iosbase$[ebp]
	call	?getloc@ios_base@std@@QBE?AVlocale@2@XZ	; std::ios_base::getloc
	mov	DWORD PTR tv130[ebp], eax
	mov	eax, DWORD PTR tv130[ebp]
	mov	DWORD PTR tv129[ebp], eax
	mov	DWORD PTR __$EHRec$[ebp+8], 0
	mov	ecx, DWORD PTR tv129[ebp]
	push	ecx
	mov	ecx, DWORD PTR __Iosbase$[ebp]
	call	?flags@ios_base@std@@QBEHXZ		; std::ios_base::flags
	push	eax
	lea	edx, DWORD PTR __Last$[ebp]
	push	edx
	lea	eax, DWORD PTR __First$[ebp]
	push	eax
	lea	ecx, DWORD PTR __Ac$[ebp]
	push	ecx
	mov	edx, DWORD PTR _this$[ebp]
	push	edx
	call	?_Getifld@?$num_get@DV?$istreambuf_iterator@DU?$char_traits@D@std@@@std@@@std@@ABAHPADAAV?$istreambuf_iterator@DU?$char_traits@D@std@@@2@1HABVlocale@2@@Z ; std::num_get<char,std::istreambuf_iterator<char,std::char_traits<char> > >::_Getifld
	add	esp, 24					; 00000018H
	push	eax
	lea	eax, DWORD PTR __Ep$[ebp]
	push	eax
	lea	ecx, DWORD PTR __Ac$[ebp]
	push	ecx
	call	__Stoullx
	add	esp, 16					; 00000010H
	mov	DWORD PTR __Ans$[ebp], eax
	mov	DWORD PTR __Ans$[ebp+4], edx
	mov	DWORD PTR __$EHRec$[ebp+8], -1
	lea	ecx, DWORD PTR $T141887[ebp]
	call	??1locale@std@@QAE@XZ			; std::locale::~locale

; 515  : 
; 516  : 		if (_First == _Last)

	lea	edx, DWORD PTR __Last$[ebp]
	push	edx
	lea	eax, DWORD PTR __First$[ebp]
	push	eax
	call	??$?8DU?$char_traits@D@std@@@std@@YA_NABV?$istreambuf_iterator@DU?$char_traits@D@std@@@0@0@Z ; std::operator==<char,std::char_traits<char> >
	add	esp, 8
	movzx	ecx, al
	test	ecx, ecx
	je	SHORT $LN4@do_get@7

; 517  : 			_State |= ios_base::eofbit;

	mov	edx, DWORD PTR __State$[ebp]
	mov	eax, DWORD PTR [edx]
	or	eax, 1
	mov	ecx, DWORD PTR __State$[ebp]
	mov	DWORD PTR [ecx], eax
$LN4@do_get@7:

; 518  : 		if (_Ep == _Ac || _Errno != 0)

	mov	edx, DWORD PTR __Ep$[ebp]
	lea	eax, DWORD PTR __Ac$[ebp]
	cmp	edx, eax
	je	SHORT $LN2@do_get@7
	cmp	DWORD PTR __Errno$[ebp], 0
	je	SHORT $LN3@do_get@7
$LN2@do_get@7:

; 519  : 			_State |= ios_base::failbit;

	mov	ecx, DWORD PTR __State$[ebp]
	mov	edx, DWORD PTR [ecx]
	or	edx, 2
	mov	eax, DWORD PTR __State$[ebp]
	mov	DWORD PTR [eax], edx

; 520  : 		else

	jmp	SHORT $LN1@do_get@7
$LN3@do_get@7:

; 521  : 			_Val = _Ans;	// deliver value

	mov	ecx, DWORD PTR __Val$[ebp]
	mov	edx, DWORD PTR __Ans$[ebp]
	mov	DWORD PTR [ecx], edx
	mov	eax, DWORD PTR __Ans$[ebp+4]
	mov	DWORD PTR [ecx+4], eax
$LN1@do_get@7:

; 522  : 		return (_First);

	mov	ecx, DWORD PTR ___$ReturnUdt$[ebp]
	mov	edx, DWORD PTR __First$[ebp]
	mov	DWORD PTR [ecx], edx
	mov	eax, DWORD PTR __First$[ebp+4]
	mov	DWORD PTR [ecx+4], eax
	mov	eax, DWORD PTR ___$ReturnUdt$[ebp]

; 523  : 		}

	push	edx
	mov	ecx, ebp
	push	eax
	lea	edx, DWORD PTR $LN13@do_get@7
	call	@_RTC_CheckStackVars@8
	pop	eax
	pop	edx
	mov	ecx, DWORD PTR __$EHRec$[ebp]
	mov	DWORD PTR fs:0, ecx
	pop	ecx
	pop	edi
	mov	ecx, DWORD PTR __$ArrayPad$[ebp]
	xor	ecx, ebp
	call	@__security_check_cookie@4
	add	esp, 104				; 00000068H
	cmp	ebp, esp
	call	__RTC_CheckEsp
	mov	esp, ebp
	pop	ebp
	ret	32					; 00000020H
	npad	2
$LN13@do_get@7:
	DD	3
	DD	$LN12@do_get@7
$LN12@do_get@7:
	DD	-56					; ffffffc8H
	DD	32					; 00000020H
	DD	$LN8@do_get@7
	DD	-68					; ffffffbcH
	DD	4
	DD	$LN9@do_get@7
	DD	-80					; ffffffb0H
	DD	4
	DD	$LN10@do_get@7
$LN10@do_get@7:
	DB	95					; 0000005fH
	DB	69					; 00000045H
	DB	114					; 00000072H
	DB	114					; 00000072H
	DB	110					; 0000006eH
	DB	111					; 0000006fH
	DB	0
$LN9@do_get@7:
	DB	95					; 0000005fH
	DB	69					; 00000045H
	DB	112					; 00000070H
	DB	0
$LN8@do_get@7:
	DB	95					; 0000005fH
	DB	65					; 00000041H
	DB	99					; 00000063H
	DB	0
_TEXT	ENDS
;	COMDAT text$x
text$x	SEGMENT
__unwindfunclet$?do_get@?$num_get@DV?$istreambuf_iterator@DU?$char_traits@D@std@@@std@@@std@@MBE?AV?$istreambuf_iterator@DU?$char_traits@D@std@@@2@V32@0AAVios_base@2@AAHAA_K@Z$0:
	lea	ecx, DWORD PTR $T141887[ebp]
	jmp	??1locale@std@@QAE@XZ			; std::locale::~locale
__ehhandler$?do_get@?$num_get@DV?$istreambuf_iterator@DU?$char_traits@D@std@@@std@@@std@@MBE?AV?$istreambuf_iterator@DU?$char_traits@D@std@@@2@V32@0AAVios_base@2@AAHAA_K@Z:
	mov	edx, DWORD PTR [esp+8]
	lea	eax, DWORD PTR [edx+12]
	mov	ecx, DWORD PTR [edx-100]
	xor	ecx, eax
	call	@__security_check_cookie@4
	mov	ecx, DWORD PTR [edx-4]
	xor	ecx, eax
	call	@__security_check_cookie@4
	mov	eax, OFFSET __ehfuncinfo$?do_get@?$num_get@DV?$istreambuf_iterator@DU?$char_traits@D@std@@@std@@@std@@MBE?AV?$istreambuf_iterator@DU?$char_traits@D@std@@@2@V32@0AAVios_base@2@AAHAA_K@Z
	jmp	___CxxFrameHandler3
text$x	ENDS
?do_get@?$num_get@DV?$istreambuf_iterator@DU?$char_traits@D@std@@@std@@@std@@MBE?AV?$istreambuf_iterator@DU?$char_traits@D@std@@@2@V32@0AAVios_base@2@AAHAA_K@Z ENDP ; std::num_get<char,std::istreambuf_iterator<char,std::char_traits<char> > >::do_get
PUBLIC	_ldexpf
PUBLIC	?_Getffld@?$num_get@DV?$istreambuf_iterator@DU?$char_traits@D@std@@@std@@@std@@ABAHPADAAV?$istreambuf_iterator@DU?$char_traits@D@std@@@2@1AAVios_base@2@PAH@Z ; std::num_get<char,std::istreambuf_iterator<char,std::char_traits<char> > >::_Getffld
PUBLIC	__$ArrayPad$
EXTRN	__Stofx:PROC
; Function compile flags: /Odtp /RTCsu
;	COMDAT ?do_get@?$num_get@DV?$istreambuf_iterator@DU?$char_traits@D@std@@@std@@@std@@MBE?AV?$istreambuf_iterator@DU?$char_traits@D@std@@@2@V32@0AAVios_base@2@AAHAAM@Z
_TEXT	SEGMENT
__Ans$ = -116						; size = 4
__Hexexp$ = -108					; size = 4
__Errno$ = -96						; size = 4
__Ep$ = -84						; size = 4
__Ac$ = -72						; size = 60
_this$ = -8						; size = 4
__$ArrayPad$ = -4					; size = 4
___$ReturnUdt$ = 8					; size = 4
__First$ = 12						; size = 8
__Last$ = 20						; size = 8
__Iosbase$ = 28						; size = 4
__State$ = 32						; size = 4
__Val$ = 36						; size = 4
?do_get@?$num_get@DV?$istreambuf_iterator@DU?$char_traits@D@std@@@std@@@std@@MBE?AV?$istreambuf_iterator@DU?$char_traits@D@std@@@2@V32@0AAVios_base@2@AAHAAM@Z PROC ; std::num_get<char,std::istreambuf_iterator<char,std::char_traits<char> > >::do_get, COMDAT
; _this$ = ecx

; 529  : 		{	// get float from [_First, _Last) into _Val

	push	ebp
	mov	ebp, esp
	sub	esp, 116				; 00000074H
	push	edi
	push	ecx
	lea	edi, DWORD PTR [ebp-116]
	mov	ecx, 29					; 0000001dH
	mov	eax, -858993460				; ccccccccH
	rep stosd
	pop	ecx
	mov	eax, DWORD PTR ___security_cookie
	xor	eax, ebp
	mov	DWORD PTR __$ArrayPad$[ebp], eax
	mov	DWORD PTR _this$[ebp], ecx

; 530  : 		_DEBUG_RANGE(_First, _Last);

	push	530					; 00000212H
	push	OFFSET ??_C@_1IO@NAGBLLMA@?$AAc?$AA?3?$AA?2?$AAP?$AAr?$AAo?$AAg?$AAr?$AAa?$AAm?$AA?5?$AAF?$AAi?$AAl?$AAe?$AAs?$AA?5?$AA?$CI?$AAx?$AA8?$AA6?$AA?$CJ?$AA?2?$AAM?$AAi?$AAc?$AAr?$AAo?$AAs?$AAo?$AAf?$AAt@
	mov	eax, DWORD PTR __Last$[ebp+4]
	push	eax
	mov	ecx, DWORD PTR __Last$[ebp]
	push	ecx
	mov	edx, DWORD PTR __First$[ebp+4]
	push	edx
	mov	eax, DWORD PTR __First$[ebp]
	push	eax
	call	??$_Debug_range@V?$istreambuf_iterator@DU?$char_traits@D@std@@@std@@@std@@YAXV?$istreambuf_iterator@DU?$char_traits@D@std@@@0@0PB_WI@Z ; std::_Debug_range<std::istreambuf_iterator<char,std::char_traits<char> > >
	add	esp, 24					; 00000018H

; 531  : 		char _Ac[_MAX_EXP_DIG + _MAX_SIG_DIG + 16], *_Ep;
; 532  : 		int _Errno = 0;

	mov	DWORD PTR __Errno$[ebp], 0

; 533  : 		int _Hexexp = 0;

	mov	DWORD PTR __Hexexp$[ebp], 0

; 534  : 		float _Ans = _CSTD _Stofx(_Ac, &_Ep,
; 535  : 			_Getffld(_Ac, _First, _Last,
; 536  : 				_Iosbase, &_Hexexp), &_Errno);	// gather field, convert

	lea	ecx, DWORD PTR __Errno$[ebp]
	push	ecx
	lea	edx, DWORD PTR __Hexexp$[ebp]
	push	edx
	mov	eax, DWORD PTR __Iosbase$[ebp]
	push	eax
	lea	ecx, DWORD PTR __Last$[ebp]
	push	ecx
	lea	edx, DWORD PTR __First$[ebp]
	push	edx
	lea	eax, DWORD PTR __Ac$[ebp]
	push	eax
	mov	ecx, DWORD PTR _this$[ebp]
	push	ecx
	call	?_Getffld@?$num_get@DV?$istreambuf_iterator@DU?$char_traits@D@std@@@std@@@std@@ABAHPADAAV?$istreambuf_iterator@DU?$char_traits@D@std@@@2@1AAVios_base@2@PAH@Z ; std::num_get<char,std::istreambuf_iterator<char,std::char_traits<char> > >::_Getffld
	add	esp, 24					; 00000018H
	push	eax
	lea	edx, DWORD PTR __Ep$[ebp]
	push	edx
	lea	eax, DWORD PTR __Ac$[ebp]
	push	eax
	call	__Stofx
	add	esp, 16					; 00000010H
	fstp	DWORD PTR __Ans$[ebp]

; 537  : 
; 538  : 		if (_Hexexp != 0)

	cmp	DWORD PTR __Hexexp$[ebp], 0
	je	SHORT $LN5@do_get@8

; 539  : 			_Ans = _CSTD ldexpf(_Ans, 4 * _Hexexp);

	mov	ecx, DWORD PTR __Hexexp$[ebp]
	shl	ecx, 2
	push	ecx
	push	ecx
	fld	DWORD PTR __Ans$[ebp]
	fstp	DWORD PTR [esp]
	call	_ldexpf
	add	esp, 8
	fstp	DWORD PTR __Ans$[ebp]
$LN5@do_get@8:

; 540  : 
; 541  : 		if (_First == _Last)

	lea	edx, DWORD PTR __Last$[ebp]
	push	edx
	lea	eax, DWORD PTR __First$[ebp]
	push	eax
	call	??$?8DU?$char_traits@D@std@@@std@@YA_NABV?$istreambuf_iterator@DU?$char_traits@D@std@@@0@0@Z ; std::operator==<char,std::char_traits<char> >
	add	esp, 8
	movzx	ecx, al
	test	ecx, ecx
	je	SHORT $LN4@do_get@8

; 542  : 			_State |= ios_base::eofbit;

	mov	edx, DWORD PTR __State$[ebp]
	mov	eax, DWORD PTR [edx]
	or	eax, 1
	mov	ecx, DWORD PTR __State$[ebp]
	mov	DWORD PTR [ecx], eax
$LN4@do_get@8:

; 543  : 		if (_Ep == _Ac || _Errno != 0)

	mov	edx, DWORD PTR __Ep$[ebp]
	lea	eax, DWORD PTR __Ac$[ebp]
	cmp	edx, eax
	je	SHORT $LN2@do_get@8
	cmp	DWORD PTR __Errno$[ebp], 0
	je	SHORT $LN3@do_get@8
$LN2@do_get@8:

; 544  : 			_State |= ios_base::failbit;

	mov	ecx, DWORD PTR __State$[ebp]
	mov	edx, DWORD PTR [ecx]
	or	edx, 2
	mov	eax, DWORD PTR __State$[ebp]
	mov	DWORD PTR [eax], edx

; 545  : 		else

	jmp	SHORT $LN1@do_get@8
$LN3@do_get@8:

; 546  : 			_Val = _Ans;	// deliver value

	mov	ecx, DWORD PTR __Val$[ebp]
	fld	DWORD PTR __Ans$[ebp]
	fstp	DWORD PTR [ecx]
$LN1@do_get@8:

; 547  : 		return (_First);

	mov	edx, DWORD PTR ___$ReturnUdt$[ebp]
	mov	eax, DWORD PTR __First$[ebp]
	mov	DWORD PTR [edx], eax
	mov	ecx, DWORD PTR __First$[ebp+4]
	mov	DWORD PTR [edx+4], ecx
	mov	eax, DWORD PTR ___$ReturnUdt$[ebp]

; 548  : 		}

	push	edx
	mov	ecx, ebp
	push	eax
	lea	edx, DWORD PTR $LN13@do_get@8
	call	@_RTC_CheckStackVars@8
	pop	eax
	pop	edx
	pop	edi
	mov	ecx, DWORD PTR __$ArrayPad$[ebp]
	xor	ecx, ebp
	call	@__security_check_cookie@4
	add	esp, 116				; 00000074H
	cmp	ebp, esp
	call	__RTC_CheckEsp
	mov	esp, ebp
	pop	ebp
	ret	32					; 00000020H
$LN13@do_get@8:
	DD	4
	DD	$LN12@do_get@8
$LN12@do_get@8:
	DD	-72					; ffffffb8H
	DD	60					; 0000003cH
	DD	$LN8@do_get@8
	DD	-84					; ffffffacH
	DD	4
	DD	$LN9@do_get@8
	DD	-96					; ffffffa0H
	DD	4
	DD	$LN10@do_get@8
	DD	-108					; ffffff94H
	DD	4
	DD	$LN11@do_get@8
$LN11@do_get@8:
	DB	95					; 0000005fH
	DB	72					; 00000048H
	DB	101					; 00000065H
	DB	120					; 00000078H
	DB	101					; 00000065H
	DB	120					; 00000078H
	DB	112					; 00000070H
	DB	0
$LN10@do_get@8:
	DB	95					; 0000005fH
	DB	69					; 00000045H
	DB	114					; 00000072H
	DB	114					; 00000072H
	DB	110					; 0000006eH
	DB	111					; 0000006fH
	DB	0
$LN9@do_get@8:
	DB	95					; 0000005fH
	DB	69					; 00000045H
	DB	112					; 00000070H
	DB	0
$LN8@do_get@8:
	DB	95					; 0000005fH
	DB	65					; 00000041H
	DB	99					; 00000063H
	DB	0
?do_get@?$num_get@DV?$istreambuf_iterator@DU?$char_traits@D@std@@@std@@@std@@MBE?AV?$istreambuf_iterator@DU?$char_traits@D@std@@@2@V32@0AAVios_base@2@AAHAAM@Z ENDP ; std::num_get<char,std::istreambuf_iterator<char,std::char_traits<char> > >::do_get
_TEXT	ENDS
EXTRN	_ldexp:PROC
; Function compile flags: /Odtp /RTCsu
; File c:\program files (x86)\microsoft visual studio 10.0\vc\include\math.h
;	COMDAT _ldexpf
_TEXT	SEGMENT
tv75 = -4						; size = 4
__X$ = 8						; size = 4
__Y$ = 12						; size = 4
_ldexpf	PROC						; COMDAT

; 397  :         {return ((float)ldexp((double)_X, _Y)); }

	push	ebp
	mov	ebp, esp
	push	ecx
	mov	DWORD PTR [ebp-4], -858993460		; ccccccccH
	mov	eax, DWORD PTR __Y$[ebp]
	push	eax
	fld	DWORD PTR __X$[ebp]
	sub	esp, 8
	fstp	QWORD PTR [esp]
	call	_ldexp
	add	esp, 12					; 0000000cH
	fstp	DWORD PTR tv75[ebp]
	fld	DWORD PTR tv75[ebp]
	add	esp, 4
	cmp	ebp, esp
	call	__RTC_CheckEsp
	mov	esp, ebp
	pop	ebp
	ret	0
_ldexpf	ENDP
_TEXT	ENDS
PUBLIC	__$ArrayPad$
EXTRN	__Stodx:PROC
; Function compile flags: /Odtp /RTCsu
; File c:\program files (x86)\microsoft visual studio 10.0\vc\include\xlocnum
;	COMDAT ?do_get@?$num_get@DV?$istreambuf_iterator@DU?$char_traits@D@std@@@std@@@std@@MBE?AV?$istreambuf_iterator@DU?$char_traits@D@std@@@2@V32@0AAVios_base@2@AAHAAN@Z
_TEXT	SEGMENT
__Ans$ = -120						; size = 8
__Hexexp$ = -108					; size = 4
__Errno$ = -96						; size = 4
__Ep$ = -84						; size = 4
__Ac$ = -72						; size = 60
_this$ = -8						; size = 4
__$ArrayPad$ = -4					; size = 4
___$ReturnUdt$ = 8					; size = 4
__First$ = 12						; size = 8
__Last$ = 20						; size = 8
__Iosbase$ = 28						; size = 4
__State$ = 32						; size = 4
__Val$ = 36						; size = 4
?do_get@?$num_get@DV?$istreambuf_iterator@DU?$char_traits@D@std@@@std@@@std@@MBE?AV?$istreambuf_iterator@DU?$char_traits@D@std@@@2@V32@0AAVios_base@2@AAHAAN@Z PROC ; std::num_get<char,std::istreambuf_iterator<char,std::char_traits<char> > >::do_get, COMDAT
; _this$ = ecx

; 553  : 		{	// get double from [_First, _Last) into _Val

	push	ebp
	mov	ebp, esp
	sub	esp, 120				; 00000078H
	push	edi
	push	ecx
	lea	edi, DWORD PTR [ebp-120]
	mov	ecx, 30					; 0000001eH
	mov	eax, -858993460				; ccccccccH
	rep stosd
	pop	ecx
	mov	eax, DWORD PTR ___security_cookie
	xor	eax, ebp
	mov	DWORD PTR __$ArrayPad$[ebp], eax
	mov	DWORD PTR _this$[ebp], ecx

; 554  : 		_DEBUG_RANGE(_First, _Last);

	push	554					; 0000022aH
	push	OFFSET ??_C@_1IO@NAGBLLMA@?$AAc?$AA?3?$AA?2?$AAP?$AAr?$AAo?$AAg?$AAr?$AAa?$AAm?$AA?5?$AAF?$AAi?$AAl?$AAe?$AAs?$AA?5?$AA?$CI?$AAx?$AA8?$AA6?$AA?$CJ?$AA?2?$AAM?$AAi?$AAc?$AAr?$AAo?$AAs?$AAo?$AAf?$AAt@
	mov	eax, DWORD PTR __Last$[ebp+4]
	push	eax
	mov	ecx, DWORD PTR __Last$[ebp]
	push	ecx
	mov	edx, DWORD PTR __First$[ebp+4]
	push	edx
	mov	eax, DWORD PTR __First$[ebp]
	push	eax
	call	??$_Debug_range@V?$istreambuf_iterator@DU?$char_traits@D@std@@@std@@@std@@YAXV?$istreambuf_iterator@DU?$char_traits@D@std@@@0@0PB_WI@Z ; std::_Debug_range<std::istreambuf_iterator<char,std::char_traits<char> > >
	add	esp, 24					; 00000018H

; 555  : 		char _Ac[_MAX_EXP_DIG + _MAX_SIG_DIG + 16], *_Ep;
; 556  : 		int _Errno = 0;

	mov	DWORD PTR __Errno$[ebp], 0

; 557  : 		int _Hexexp = 0;

	mov	DWORD PTR __Hexexp$[ebp], 0

; 558  : 		double _Ans = _CSTD _Stodx(_Ac, &_Ep,
; 559  : 			_Getffld(_Ac, _First, _Last,
; 560  : 				_Iosbase, &_Hexexp), &_Errno);	// gather field, convert

	lea	ecx, DWORD PTR __Errno$[ebp]
	push	ecx
	lea	edx, DWORD PTR __Hexexp$[ebp]
	push	edx
	mov	eax, DWORD PTR __Iosbase$[ebp]
	push	eax
	lea	ecx, DWORD PTR __Last$[ebp]
	push	ecx
	lea	edx, DWORD PTR __First$[ebp]
	push	edx
	lea	eax, DWORD PTR __Ac$[ebp]
	push	eax
	mov	ecx, DWORD PTR _this$[ebp]
	push	ecx
	call	?_Getffld@?$num_get@DV?$istreambuf_iterator@DU?$char_traits@D@std@@@std@@@std@@ABAHPADAAV?$istreambuf_iterator@DU?$char_traits@D@std@@@2@1AAVios_base@2@PAH@Z ; std::num_get<char,std::istreambuf_iterator<char,std::char_traits<char> > >::_Getffld
	add	esp, 24					; 00000018H
	push	eax
	lea	edx, DWORD PTR __Ep$[ebp]
	push	edx
	lea	eax, DWORD PTR __Ac$[ebp]
	push	eax
	call	__Stodx
	add	esp, 16					; 00000010H
	fstp	QWORD PTR __Ans$[ebp]

; 561  : 
; 562  : 		if (_Hexexp != 0)

	cmp	DWORD PTR __Hexexp$[ebp], 0
	je	SHORT $LN5@do_get@9

; 563  : 			_Ans = _CSTD ldexp(_Ans, 4 * _Hexexp);

	mov	ecx, DWORD PTR __Hexexp$[ebp]
	shl	ecx, 2
	push	ecx
	sub	esp, 8
	fld	QWORD PTR __Ans$[ebp]
	fstp	QWORD PTR [esp]
	call	_ldexp
	add	esp, 12					; 0000000cH
	fstp	QWORD PTR __Ans$[ebp]
$LN5@do_get@9:

; 564  : 
; 565  : 		if (_First == _Last)

	lea	edx, DWORD PTR __Last$[ebp]
	push	edx
	lea	eax, DWORD PTR __First$[ebp]
	push	eax
	call	??$?8DU?$char_traits@D@std@@@std@@YA_NABV?$istreambuf_iterator@DU?$char_traits@D@std@@@0@0@Z ; std::operator==<char,std::char_traits<char> >
	add	esp, 8
	movzx	ecx, al
	test	ecx, ecx
	je	SHORT $LN4@do_get@9

; 566  : 			_State |= ios_base::eofbit;

	mov	edx, DWORD PTR __State$[ebp]
	mov	eax, DWORD PTR [edx]
	or	eax, 1
	mov	ecx, DWORD PTR __State$[ebp]
	mov	DWORD PTR [ecx], eax
$LN4@do_get@9:

; 567  : 		if (_Ep == _Ac || _Errno != 0)

	mov	edx, DWORD PTR __Ep$[ebp]
	lea	eax, DWORD PTR __Ac$[ebp]
	cmp	edx, eax
	je	SHORT $LN2@do_get@9
	cmp	DWORD PTR __Errno$[ebp], 0
	je	SHORT $LN3@do_get@9
$LN2@do_get@9:

; 568  : 			_State |= ios_base::failbit;

	mov	ecx, DWORD PTR __State$[ebp]
	mov	edx, DWORD PTR [ecx]
	or	edx, 2
	mov	eax, DWORD PTR __State$[ebp]
	mov	DWORD PTR [eax], edx

; 569  : 		else

	jmp	SHORT $LN1@do_get@9
$LN3@do_get@9:

; 570  : 			_Val = _Ans;	// deliver value

	mov	ecx, DWORD PTR __Val$[ebp]
	fld	QWORD PTR __Ans$[ebp]
	fstp	QWORD PTR [ecx]
$LN1@do_get@9:

; 571  : 		return (_First);

	mov	edx, DWORD PTR ___$ReturnUdt$[ebp]
	mov	eax, DWORD PTR __First$[ebp]
	mov	DWORD PTR [edx], eax
	mov	ecx, DWORD PTR __First$[ebp+4]
	mov	DWORD PTR [edx+4], ecx
	mov	eax, DWORD PTR ___$ReturnUdt$[ebp]

; 572  : 		}

	push	edx
	mov	ecx, ebp
	push	eax
	lea	edx, DWORD PTR $LN13@do_get@9
	call	@_RTC_CheckStackVars@8
	pop	eax
	pop	edx
	pop	edi
	mov	ecx, DWORD PTR __$ArrayPad$[ebp]
	xor	ecx, ebp
	call	@__security_check_cookie@4
	add	esp, 120				; 00000078H
	cmp	ebp, esp
	call	__RTC_CheckEsp
	mov	esp, ebp
	pop	ebp
	ret	32					; 00000020H
	npad	2
$LN13@do_get@9:
	DD	4
	DD	$LN12@do_get@9
$LN12@do_get@9:
	DD	-72					; ffffffb8H
	DD	60					; 0000003cH
	DD	$LN8@do_get@9
	DD	-84					; ffffffacH
	DD	4
	DD	$LN9@do_get@9
	DD	-96					; ffffffa0H
	DD	4
	DD	$LN10@do_get@9
	DD	-108					; ffffff94H
	DD	4
	DD	$LN11@do_get@9
$LN11@do_get@9:
	DB	95					; 0000005fH
	DB	72					; 00000048H
	DB	101					; 00000065H
	DB	120					; 00000078H
	DB	101					; 00000065H
	DB	120					; 00000078H
	DB	112					; 00000070H
	DB	0
$LN10@do_get@9:
	DB	95					; 0000005fH
	DB	69					; 00000045H
	DB	114					; 00000072H
	DB	114					; 00000072H
	DB	110					; 0000006eH
	DB	111					; 0000006fH
	DB	0
$LN9@do_get@9:
	DB	95					; 0000005fH
	DB	69					; 00000045H
	DB	112					; 00000070H
	DB	0
$LN8@do_get@9:
	DB	95					; 0000005fH
	DB	65					; 00000041H
	DB	99					; 00000063H
	DB	0
?do_get@?$num_get@DV?$istreambuf_iterator@DU?$char_traits@D@std@@@std@@@std@@MBE?AV?$istreambuf_iterator@DU?$char_traits@D@std@@@2@V32@0AAVios_base@2@AAHAAN@Z ENDP ; std::num_get<char,std::istreambuf_iterator<char,std::char_traits<char> > >::do_get
_TEXT	ENDS
PUBLIC	_ldexpl
PUBLIC	__$ArrayPad$
EXTRN	__Stoldx:PROC
; Function compile flags: /Odtp /RTCsu
;	COMDAT ?do_get@?$num_get@DV?$istreambuf_iterator@DU?$char_traits@D@std@@@std@@@std@@MBE?AV?$istreambuf_iterator@DU?$char_traits@D@std@@@2@V32@0AAVios_base@2@AAHAAO@Z
_TEXT	SEGMENT
__Ans$ = -120						; size = 8
__Hexexp$ = -108					; size = 4
__Errno$ = -96						; size = 4
__Ep$ = -84						; size = 4
__Ac$ = -72						; size = 60
_this$ = -8						; size = 4
__$ArrayPad$ = -4					; size = 4
___$ReturnUdt$ = 8					; size = 4
__First$ = 12						; size = 8
__Last$ = 20						; size = 8
__Iosbase$ = 28						; size = 4
__State$ = 32						; size = 4
__Val$ = 36						; size = 4
?do_get@?$num_get@DV?$istreambuf_iterator@DU?$char_traits@D@std@@@std@@@std@@MBE?AV?$istreambuf_iterator@DU?$char_traits@D@std@@@2@V32@0AAVios_base@2@AAHAAO@Z PROC ; std::num_get<char,std::istreambuf_iterator<char,std::char_traits<char> > >::do_get, COMDAT
; _this$ = ecx

; 577  : 		{	// get long double from [_First, _Last) into _Val

	push	ebp
	mov	ebp, esp
	sub	esp, 120				; 00000078H
	push	edi
	push	ecx
	lea	edi, DWORD PTR [ebp-120]
	mov	ecx, 30					; 0000001eH
	mov	eax, -858993460				; ccccccccH
	rep stosd
	pop	ecx
	mov	eax, DWORD PTR ___security_cookie
	xor	eax, ebp
	mov	DWORD PTR __$ArrayPad$[ebp], eax
	mov	DWORD PTR _this$[ebp], ecx

; 578  : 		_DEBUG_RANGE(_First, _Last);

	push	578					; 00000242H
	push	OFFSET ??_C@_1IO@NAGBLLMA@?$AAc?$AA?3?$AA?2?$AAP?$AAr?$AAo?$AAg?$AAr?$AAa?$AAm?$AA?5?$AAF?$AAi?$AAl?$AAe?$AAs?$AA?5?$AA?$CI?$AAx?$AA8?$AA6?$AA?$CJ?$AA?2?$AAM?$AAi?$AAc?$AAr?$AAo?$AAs?$AAo?$AAf?$AAt@
	mov	eax, DWORD PTR __Last$[ebp+4]
	push	eax
	mov	ecx, DWORD PTR __Last$[ebp]
	push	ecx
	mov	edx, DWORD PTR __First$[ebp+4]
	push	edx
	mov	eax, DWORD PTR __First$[ebp]
	push	eax
	call	??$_Debug_range@V?$istreambuf_iterator@DU?$char_traits@D@std@@@std@@@std@@YAXV?$istreambuf_iterator@DU?$char_traits@D@std@@@0@0PB_WI@Z ; std::_Debug_range<std::istreambuf_iterator<char,std::char_traits<char> > >
	add	esp, 24					; 00000018H

; 579  : 		char _Ac[_MAX_EXP_DIG + _MAX_SIG_DIG + 16], *_Ep;
; 580  : 		int _Errno = 0;

	mov	DWORD PTR __Errno$[ebp], 0

; 581  : 		int _Hexexp = 0;

	mov	DWORD PTR __Hexexp$[ebp], 0

; 582  : 		long double _Ans = _CSTD _Stoldx(_Ac, &_Ep,
; 583  : 			_Getffld(_Ac, _First, _Last,
; 584  : 				_Iosbase, &_Hexexp), &_Errno);	// gather field, convert

	lea	ecx, DWORD PTR __Errno$[ebp]
	push	ecx
	lea	edx, DWORD PTR __Hexexp$[ebp]
	push	edx
	mov	eax, DWORD PTR __Iosbase$[ebp]
	push	eax
	lea	ecx, DWORD PTR __Last$[ebp]
	push	ecx
	lea	edx, DWORD PTR __First$[ebp]
	push	edx
	lea	eax, DWORD PTR __Ac$[ebp]
	push	eax
	mov	ecx, DWORD PTR _this$[ebp]
	push	ecx
	call	?_Getffld@?$num_get@DV?$istreambuf_iterator@DU?$char_traits@D@std@@@std@@@std@@ABAHPADAAV?$istreambuf_iterator@DU?$char_traits@D@std@@@2@1AAVios_base@2@PAH@Z ; std::num_get<char,std::istreambuf_iterator<char,std::char_traits<char> > >::_Getffld
	add	esp, 24					; 00000018H
	push	eax
	lea	edx, DWORD PTR __Ep$[ebp]
	push	edx
	lea	eax, DWORD PTR __Ac$[ebp]
	push	eax
	call	__Stoldx
	add	esp, 16					; 00000010H
	fstp	QWORD PTR __Ans$[ebp]

; 585  : 
; 586  : 		if (_Hexexp != 0)

	cmp	DWORD PTR __Hexexp$[ebp], 0
	je	SHORT $LN5@do_get@10

; 587  : 			_Ans = _CSTD ldexpl(_Ans, 4 * _Hexexp);

	mov	ecx, DWORD PTR __Hexexp$[ebp]
	shl	ecx, 2
	push	ecx
	sub	esp, 8
	fld	QWORD PTR __Ans$[ebp]
	fstp	QWORD PTR [esp]
	call	_ldexpl
	add	esp, 12					; 0000000cH
	fstp	QWORD PTR __Ans$[ebp]
$LN5@do_get@10:

; 588  : 
; 589  : 		if (_First == _Last)

	lea	edx, DWORD PTR __Last$[ebp]
	push	edx
	lea	eax, DWORD PTR __First$[ebp]
	push	eax
	call	??$?8DU?$char_traits@D@std@@@std@@YA_NABV?$istreambuf_iterator@DU?$char_traits@D@std@@@0@0@Z ; std::operator==<char,std::char_traits<char> >
	add	esp, 8
	movzx	ecx, al
	test	ecx, ecx
	je	SHORT $LN4@do_get@10

; 590  : 			_State |= ios_base::eofbit;

	mov	edx, DWORD PTR __State$[ebp]
	mov	eax, DWORD PTR [edx]
	or	eax, 1
	mov	ecx, DWORD PTR __State$[ebp]
	mov	DWORD PTR [ecx], eax
$LN4@do_get@10:

; 591  : 		if (_Ep == _Ac || _Errno != 0)

	mov	edx, DWORD PTR __Ep$[ebp]
	lea	eax, DWORD PTR __Ac$[ebp]
	cmp	edx, eax
	je	SHORT $LN2@do_get@10
	cmp	DWORD PTR __Errno$[ebp], 0
	je	SHORT $LN3@do_get@10
$LN2@do_get@10:

; 592  : 			_State |= ios_base::failbit;

	mov	ecx, DWORD PTR __State$[ebp]
	mov	edx, DWORD PTR [ecx]
	or	edx, 2
	mov	eax, DWORD PTR __State$[ebp]
	mov	DWORD PTR [eax], edx

; 593  : 		else

	jmp	SHORT $LN1@do_get@10
$LN3@do_get@10:

; 594  : 			_Val = _Ans;	// deliver value

	mov	ecx, DWORD PTR __Val$[ebp]
	fld	QWORD PTR __Ans$[ebp]
	fstp	QWORD PTR [ecx]
$LN1@do_get@10:

; 595  : 		return (_First);

	mov	edx, DWORD PTR ___$ReturnUdt$[ebp]
	mov	eax, DWORD PTR __First$[ebp]
	mov	DWORD PTR [edx], eax
	mov	ecx, DWORD PTR __First$[ebp+4]
	mov	DWORD PTR [edx+4], ecx
	mov	eax, DWORD PTR ___$ReturnUdt$[ebp]

; 596  : 		}

	push	edx
	mov	ecx, ebp
	push	eax
	lea	edx, DWORD PTR $LN13@do_get@10
	call	@_RTC_CheckStackVars@8
	pop	eax
	pop	edx
	pop	edi
	mov	ecx, DWORD PTR __$ArrayPad$[ebp]
	xor	ecx, ebp
	call	@__security_check_cookie@4
	add	esp, 120				; 00000078H
	cmp	ebp, esp
	call	__RTC_CheckEsp
	mov	esp, ebp
	pop	ebp
	ret	32					; 00000020H
	npad	2
$LN13@do_get@10:
	DD	4
	DD	$LN12@do_get@10
$LN12@do_get@10:
	DD	-72					; ffffffb8H
	DD	60					; 0000003cH
	DD	$LN8@do_get@10
	DD	-84					; ffffffacH
	DD	4
	DD	$LN9@do_get@10
	DD	-96					; ffffffa0H
	DD	4
	DD	$LN10@do_get@10
	DD	-108					; ffffff94H
	DD	4
	DD	$LN11@do_get@10
$LN11@do_get@10:
	DB	95					; 0000005fH
	DB	72					; 00000048H
	DB	101					; 00000065H
	DB	120					; 00000078H
	DB	101					; 00000065H
	DB	120					; 00000078H
	DB	112					; 00000070H
	DB	0
$LN10@do_get@10:
	DB	95					; 0000005fH
	DB	69					; 00000045H
	DB	114					; 00000072H
	DB	114					; 00000072H
	DB	110					; 0000006eH
	DB	111					; 0000006fH
	DB	0
$LN9@do_get@10:
	DB	95					; 0000005fH
	DB	69					; 00000045H
	DB	112					; 00000070H
	DB	0
$LN8@do_get@10:
	DB	95					; 0000005fH
	DB	65					; 00000041H
	DB	99					; 00000063H
	DB	0
?do_get@?$num_get@DV?$istreambuf_iterator@DU?$char_traits@D@std@@@std@@@std@@MBE?AV?$istreambuf_iterator@DU?$char_traits@D@std@@@2@V32@0AAVios_base@2@AAHAAO@Z ENDP ; std::num_get<char,std::istreambuf_iterator<char,std::char_traits<char> > >::do_get
; Function compile flags: /Odtp /RTCsu
; File c:\program files (x86)\microsoft visual studio 10.0\vc\include\math.h
_TEXT	ENDS
;	COMDAT _ldexpl
_TEXT	SEGMENT
__X$ = 8						; size = 8
__Y$ = 16						; size = 4
_ldexpl	PROC						; COMDAT

; 353  :         {return (ldexp((double)_X, _Y)); }

	push	ebp
	mov	ebp, esp
	mov	eax, DWORD PTR __Y$[ebp]
	push	eax
	sub	esp, 8
	fld	QWORD PTR __X$[ebp]
	fstp	QWORD PTR [esp]
	call	_ldexp
	add	esp, 12					; 0000000cH
	cmp	ebp, esp
	call	__RTC_CheckEsp
	pop	ebp
	ret	0
_ldexpl	ENDP
_TEXT	ENDS
PUBLIC	__$ArrayPad$
;	COMDAT xdata$x
; File c:\program files (x86)\microsoft visual studio 10.0\vc\include\xlocnum
xdata$x	SEGMENT
__unwindtable$?do_get@?$num_get@DV?$istreambuf_iterator@DU?$char_traits@D@std@@@std@@@std@@MBE?AV?$istreambuf_iterator@DU?$char_traits@D@std@@@2@V32@0AAVios_base@2@AAHAAPAX@Z DD 0ffffffffH
	DD	FLAT:__unwindfunclet$?do_get@?$num_get@DV?$istreambuf_iterator@DU?$char_traits@D@std@@@std@@@std@@MBE?AV?$istreambuf_iterator@DU?$char_traits@D@std@@@2@V32@0AAVios_base@2@AAHAAPAX@Z$0
__ehfuncinfo$?do_get@?$num_get@DV?$istreambuf_iterator@DU?$char_traits@D@std@@@std@@@std@@MBE?AV?$istreambuf_iterator@DU?$char_traits@D@std@@@2@V32@0AAVios_base@2@AAHAAPAX@Z DD 019930522H
	DD	01H
	DD	FLAT:__unwindtable$?do_get@?$num_get@DV?$istreambuf_iterator@DU?$char_traits@D@std@@@std@@@std@@MBE?AV?$istreambuf_iterator@DU?$char_traits@D@std@@@2@V32@0AAVios_base@2@AAHAAPAX@Z
	DD	2 DUP(00H)
	DD	2 DUP(00H)
	DD	00H
	DD	01H
; Function compile flags: /Odtp /RTCsu
xdata$x	ENDS
;	COMDAT ?do_get@?$num_get@DV?$istreambuf_iterator@DU?$char_traits@D@std@@@std@@@std@@MBE?AV?$istreambuf_iterator@DU?$char_traits@D@std@@@2@V32@0AAVios_base@2@AAHAAPAX@Z
_TEXT	SEGMENT
tv92 = -116						; size = 8
tv136 = -108						; size = 4
tv137 = -104						; size = 4
$T141934 = -100						; size = 4
__Ans$ = -96						; size = 8
__Base$ = -88						; size = 4
__Errno$ = -80						; size = 4
__Ep$ = -68						; size = 4
__Ac$ = -56						; size = 32
_this$ = -20						; size = 4
__$ArrayPad$ = -16					; size = 4
__$EHRec$ = -12						; size = 12
___$ReturnUdt$ = 8					; size = 4
__First$ = 12						; size = 8
__Last$ = 20						; size = 8
__Iosbase$ = 28						; size = 4
__State$ = 32						; size = 4
__Val$ = 36						; size = 4
?do_get@?$num_get@DV?$istreambuf_iterator@DU?$char_traits@D@std@@@std@@@std@@MBE?AV?$istreambuf_iterator@DU?$char_traits@D@std@@@2@V32@0AAVios_base@2@AAHAAPAX@Z PROC ; std::num_get<char,std::istreambuf_iterator<char,std::char_traits<char> > >::do_get, COMDAT
; _this$ = ecx

; 601  : 		{	// get void pointer from [_First, _Last) into _Val

	push	ebp
	mov	ebp, esp
	push	-1
	push	__ehhandler$?do_get@?$num_get@DV?$istreambuf_iterator@DU?$char_traits@D@std@@@std@@@std@@MBE?AV?$istreambuf_iterator@DU?$char_traits@D@std@@@2@V32@0AAVios_base@2@AAHAAPAX@Z
	mov	eax, DWORD PTR fs:0
	push	eax
	sub	esp, 104				; 00000068H
	push	edi
	push	ecx
	lea	edi, DWORD PTR [ebp-116]
	mov	ecx, 26					; 0000001aH
	mov	eax, -858993460				; ccccccccH
	rep stosd
	pop	ecx
	mov	eax, DWORD PTR ___security_cookie
	xor	eax, ebp
	mov	DWORD PTR __$ArrayPad$[ebp], eax
	push	eax
	lea	eax, DWORD PTR __$EHRec$[ebp]
	mov	DWORD PTR fs:0, eax
	mov	DWORD PTR _this$[ebp], ecx

; 602  : 		_DEBUG_RANGE(_First, _Last);

	push	602					; 0000025aH
	push	OFFSET ??_C@_1IO@NAGBLLMA@?$AAc?$AA?3?$AA?2?$AAP?$AAr?$AAo?$AAg?$AAr?$AAa?$AAm?$AA?5?$AAF?$AAi?$AAl?$AAe?$AAs?$AA?5?$AA?$CI?$AAx?$AA8?$AA6?$AA?$CJ?$AA?2?$AAM?$AAi?$AAc?$AAr?$AAo?$AAs?$AAo?$AAf?$AAt@
	mov	eax, DWORD PTR __Last$[ebp+4]
	push	eax
	mov	ecx, DWORD PTR __Last$[ebp]
	push	ecx
	mov	edx, DWORD PTR __First$[ebp+4]
	push	edx
	mov	eax, DWORD PTR __First$[ebp]
	push	eax
	call	??$_Debug_range@V?$istreambuf_iterator@DU?$char_traits@D@std@@@std@@@std@@YAXV?$istreambuf_iterator@DU?$char_traits@D@std@@@0@0PB_WI@Z ; std::_Debug_range<std::istreambuf_iterator<char,std::char_traits<char> > >
	add	esp, 24					; 00000018H

; 603  : 		char _Ac[_MAX_INT_DIG], *_Ep;
; 604  : 		int _Errno = 0;

	mov	DWORD PTR __Errno$[ebp], 0

; 605  : 
; 606  :  #ifdef _LONGLONG
; 607  : 		int _Base = _Getifld(_Ac, _First, _Last, ios_base::hex,
; 608  : 			_Iosbase.getloc());	// gather field

	lea	ecx, DWORD PTR $T141934[ebp]
	push	ecx
	mov	ecx, DWORD PTR __Iosbase$[ebp]
	call	?getloc@ios_base@std@@QBE?AVlocale@2@XZ	; std::ios_base::getloc
	mov	DWORD PTR tv137[ebp], eax
	mov	edx, DWORD PTR tv137[ebp]
	mov	DWORD PTR tv136[ebp], edx
	mov	DWORD PTR __$EHRec$[ebp+8], 0
	mov	eax, DWORD PTR tv136[ebp]
	push	eax
	push	2048					; 00000800H
	lea	ecx, DWORD PTR __Last$[ebp]
	push	ecx
	lea	edx, DWORD PTR __First$[ebp]
	push	edx
	lea	eax, DWORD PTR __Ac$[ebp]
	push	eax
	mov	ecx, DWORD PTR _this$[ebp]
	push	ecx
	call	?_Getifld@?$num_get@DV?$istreambuf_iterator@DU?$char_traits@D@std@@@std@@@std@@ABAHPADAAV?$istreambuf_iterator@DU?$char_traits@D@std@@@2@1HABVlocale@2@@Z ; std::num_get<char,std::istreambuf_iterator<char,std::char_traits<char> > >::_Getifld
	add	esp, 24					; 00000018H
	mov	DWORD PTR __Base$[ebp], eax
	mov	DWORD PTR __$EHRec$[ebp+8], -1
	lea	ecx, DWORD PTR $T141934[ebp]
	call	??1locale@std@@QAE@XZ			; std::locale::~locale

; 609  : 		const _ULONGLONG _Ans =
; 610  : 			(sizeof (void *) == sizeof (unsigned long))
; 611  : 				? (_ULONGLONG)_CSTD _Stoulx(_Ac, &_Ep, _Base, &_Errno)
; 612  : 				: _CSTD _Stoullx(_Ac, &_Ep, _Base, &_Errno);

	mov	edx, 1
	test	edx, edx
	je	SHORT $LN7@do_get@11
	lea	eax, DWORD PTR __Errno$[ebp]
	push	eax
	mov	ecx, DWORD PTR __Base$[ebp]
	push	ecx
	lea	edx, DWORD PTR __Ep$[ebp]
	push	edx
	lea	eax, DWORD PTR __Ac$[ebp]
	push	eax
	call	__Stoulx
	add	esp, 16					; 00000010H
	xor	ecx, ecx
	mov	DWORD PTR tv92[ebp], eax
	mov	DWORD PTR tv92[ebp+4], ecx
	jmp	SHORT $LN8@do_get@11
$LN7@do_get@11:
	lea	edx, DWORD PTR __Errno$[ebp]
	push	edx
	mov	eax, DWORD PTR __Base$[ebp]
	push	eax
	lea	ecx, DWORD PTR __Ep$[ebp]
	push	ecx
	lea	edx, DWORD PTR __Ac$[ebp]
	push	edx
	call	__Stoullx
	add	esp, 16					; 00000010H
	mov	DWORD PTR tv92[ebp], eax
	mov	DWORD PTR tv92[ebp+4], edx
$LN8@do_get@11:
	mov	eax, DWORD PTR tv92[ebp]
	mov	DWORD PTR __Ans$[ebp], eax
	mov	ecx, DWORD PTR tv92[ebp+4]
	mov	DWORD PTR __Ans$[ebp+4], ecx

; 613  : 
; 614  :  #else /* _LONGLONG */
; 615  : 		const unsigned long _Ans = _CSTD _Stoulx(_Ac, &_Ep,
; 616  : 			_Getifld(_Ac, _First, _Last, ios_base::hex,
; 617  : 				_Iosbase.getloc()), &_Errno);	// gather field, convert
; 618  :  #endif /* _LONGLONG */
; 619  : 
; 620  : 		if (_First == _Last)

	lea	edx, DWORD PTR __Last$[ebp]
	push	edx
	lea	eax, DWORD PTR __First$[ebp]
	push	eax
	call	??$?8DU?$char_traits@D@std@@@std@@YA_NABV?$istreambuf_iterator@DU?$char_traits@D@std@@@0@0@Z ; std::operator==<char,std::char_traits<char> >
	add	esp, 8
	movzx	ecx, al
	test	ecx, ecx
	je	SHORT $LN4@do_get@11

; 621  : 			_State |= ios_base::eofbit;

	mov	edx, DWORD PTR __State$[ebp]
	mov	eax, DWORD PTR [edx]
	or	eax, 1
	mov	ecx, DWORD PTR __State$[ebp]
	mov	DWORD PTR [ecx], eax
$LN4@do_get@11:

; 622  : 		if (_Ep == _Ac || _Errno != 0)

	mov	edx, DWORD PTR __Ep$[ebp]
	lea	eax, DWORD PTR __Ac$[ebp]
	cmp	edx, eax
	je	SHORT $LN2@do_get@11
	cmp	DWORD PTR __Errno$[ebp], 0
	je	SHORT $LN3@do_get@11
$LN2@do_get@11:

; 623  : 			_State |= ios_base::failbit;

	mov	ecx, DWORD PTR __State$[ebp]
	mov	edx, DWORD PTR [ecx]
	or	edx, 2
	mov	eax, DWORD PTR __State$[ebp]
	mov	DWORD PTR [eax], edx

; 624  : 		else

	jmp	SHORT $LN1@do_get@11
$LN3@do_get@11:

; 625  : 			_Val = (void *)((char *)0 + _Ans);	// deliver value

	mov	ecx, DWORD PTR __Ans$[ebp]
	mov	edx, DWORD PTR __Val$[ebp]
	mov	DWORD PTR [edx], ecx
$LN1@do_get@11:

; 626  : 		return (_First);

	mov	eax, DWORD PTR ___$ReturnUdt$[ebp]
	mov	ecx, DWORD PTR __First$[ebp]
	mov	DWORD PTR [eax], ecx
	mov	edx, DWORD PTR __First$[ebp+4]
	mov	DWORD PTR [eax+4], edx
	mov	eax, DWORD PTR ___$ReturnUdt$[ebp]

; 627  : 		}

	push	edx
	mov	ecx, ebp
	push	eax
	lea	edx, DWORD PTR $LN15@do_get@11
	call	@_RTC_CheckStackVars@8
	pop	eax
	pop	edx
	mov	ecx, DWORD PTR __$EHRec$[ebp]
	mov	DWORD PTR fs:0, ecx
	pop	ecx
	pop	edi
	mov	ecx, DWORD PTR __$ArrayPad$[ebp]
	xor	ecx, ebp
	call	@__security_check_cookie@4
	add	esp, 116				; 00000074H
	cmp	ebp, esp
	call	__RTC_CheckEsp
	mov	esp, ebp
	pop	ebp
	ret	32					; 00000020H
	npad	3
$LN15@do_get@11:
	DD	3
	DD	$LN14@do_get@11
$LN14@do_get@11:
	DD	-56					; ffffffc8H
	DD	32					; 00000020H
	DD	$LN10@do_get@11
	DD	-68					; ffffffbcH
	DD	4
	DD	$LN11@do_get@11
	DD	-80					; ffffffb0H
	DD	4
	DD	$LN12@do_get@11
$LN12@do_get@11:
	DB	95					; 0000005fH
	DB	69					; 00000045H
	DB	114					; 00000072H
	DB	114					; 00000072H
	DB	110					; 0000006eH
	DB	111					; 0000006fH
	DB	0
$LN11@do_get@11:
	DB	95					; 0000005fH
	DB	69					; 00000045H
	DB	112					; 00000070H
	DB	0
$LN10@do_get@11:
	DB	95					; 0000005fH
	DB	65					; 00000041H
	DB	99					; 00000063H
	DB	0
_TEXT	ENDS
;	COMDAT text$x
text$x	SEGMENT
__unwindfunclet$?do_get@?$num_get@DV?$istreambuf_iterator@DU?$char_traits@D@std@@@std@@@std@@MBE?AV?$istreambuf_iterator@DU?$char_traits@D@std@@@2@V32@0AAVios_base@2@AAHAAPAX@Z$0:
	lea	ecx, DWORD PTR $T141934[ebp]
	jmp	??1locale@std@@QAE@XZ			; std::locale::~locale
__ehhandler$?do_get@?$num_get@DV?$istreambuf_iterator@DU?$char_traits@D@std@@@std@@@std@@MBE?AV?$istreambuf_iterator@DU?$char_traits@D@std@@@2@V32@0AAVios_base@2@AAHAAPAX@Z:
	mov	edx, DWORD PTR [esp+8]
	lea	eax, DWORD PTR [edx+12]
	mov	ecx, DWORD PTR [edx-112]
	xor	ecx, eax
	call	@__security_check_cookie@4
	mov	ecx, DWORD PTR [edx-4]
	xor	ecx, eax
	call	@__security_check_cookie@4
	mov	eax, OFFSET __ehfuncinfo$?do_get@?$num_get@DV?$istreambuf_iterator@DU?$char_traits@D@std@@@std@@@std@@MBE?AV?$istreambuf_iterator@DU?$char_traits@D@std@@@2@V32@0AAVios_base@2@AAHAAPAX@Z
	jmp	___CxxFrameHandler3
text$x	ENDS
?do_get@?$num_get@DV?$istreambuf_iterator@DU?$char_traits@D@std@@@std@@@std@@MBE?AV?$istreambuf_iterator@DU?$char_traits@D@std@@@2@V32@0AAVios_base@2@AAHAAPAX@Z ENDP ; std::num_get<char,std::istreambuf_iterator<char,std::char_traits<char> > >::do_get
PUBLIC	??1?$num_get@DV?$istreambuf_iterator@DU?$char_traits@D@std@@@std@@@std@@MAE@XZ ; std::num_get<char,std::istreambuf_iterator<char,std::char_traits<char> > >::~num_get<char,std::istreambuf_iterator<char,std::char_traits<char> > >
; Function compile flags: /Odtp /RTCsu
;	COMDAT ??_G?$num_get@DV?$istreambuf_iterator@DU?$char_traits@D@std@@@std@@@std@@MAEPAXI@Z
_TEXT	SEGMENT
_this$ = -4						; size = 4
___flags$ = 8						; size = 4
??_G?$num_get@DV?$istreambuf_iterator@DU?$char_traits@D@std@@@std@@@std@@MAEPAXI@Z PROC ; std::num_get<char,std::istreambuf_iterator<char,std::char_traits<char> > >::`scalar deleting destructor', COMDAT
; _this$ = ecx
	push	ebp
	mov	ebp, esp
	push	ecx
	mov	DWORD PTR [ebp-4], -858993460		; ccccccccH
	mov	DWORD PTR _this$[ebp], ecx
	mov	ecx, DWORD PTR _this$[ebp]
	call	??1?$num_get@DV?$istreambuf_iterator@DU?$char_traits@D@std@@@std@@@std@@MAE@XZ ; std::num_get<char,std::istreambuf_iterator<char,std::char_traits<char> > >::~num_get<char,std::istreambuf_iterator<char,std::char_traits<char> > >
	mov	eax, DWORD PTR ___flags$[ebp]
	and	eax, 1
	je	SHORT $LN1@scalar@14
	mov	ecx, DWORD PTR _this$[ebp]
	push	ecx
	call	??3facet@locale@std@@SAXPAX@Z		; std::locale::facet::operator delete
	add	esp, 4
$LN1@scalar@14:
	mov	eax, DWORD PTR _this$[ebp]
	add	esp, 4
	cmp	ebp, esp
	call	__RTC_CheckEsp
	mov	esp, ebp
	pop	ebp
	ret	4
??_G?$num_get@DV?$istreambuf_iterator@DU?$char_traits@D@std@@@std@@@std@@MAEPAXI@Z ENDP ; std::num_get<char,std::istreambuf_iterator<char,std::char_traits<char> > >::`scalar deleting destructor'
; Function compile flags: /Odtp /RTCsu
_TEXT	ENDS
;	COMDAT ??1?$num_get@DV?$istreambuf_iterator@DU?$char_traits@D@std@@@std@@@std@@MAE@XZ
_TEXT	SEGMENT
_this$ = -4						; size = 4
??1?$num_get@DV?$istreambuf_iterator@DU?$char_traits@D@std@@@std@@@std@@MAE@XZ PROC ; std::num_get<char,std::istreambuf_iterator<char,std::char_traits<char> > >::~num_get<char,std::istreambuf_iterator<char,std::char_traits<char> > >, COMDAT
; _this$ = ecx

; 254  : 		{	// destroy the object

	push	ebp
	mov	ebp, esp
	push	ecx
	mov	DWORD PTR [ebp-4], -858993460		; ccccccccH
	mov	DWORD PTR _this$[ebp], ecx
	mov	eax, DWORD PTR _this$[ebp]
	mov	DWORD PTR [eax], OFFSET ??_7?$num_get@DV?$istreambuf_iterator@DU?$char_traits@D@std@@@std@@@std@@6B@

; 255  : 		}

	mov	ecx, DWORD PTR _this$[ebp]
	call	??1facet@locale@std@@UAE@XZ		; std::locale::facet::~facet
	add	esp, 4
	cmp	ebp, esp
	call	__RTC_CheckEsp
	mov	esp, ebp
	pop	ebp
	ret	0
??1?$num_get@DV?$istreambuf_iterator@DU?$char_traits@D@std@@@std@@@std@@MAE@XZ ENDP ; std::num_get<char,std::istreambuf_iterator<char,std::char_traits<char> > >::~num_get<char,std::istreambuf_iterator<char,std::char_traits<char> > >
_TEXT	ENDS
PUBLIC	?append@?$basic_string@DU?$char_traits@D@std@@V?$allocator@D@2@@std@@QAEAAV12@ID@Z ; std::basic_string<char,std::char_traits<char>,std::allocator<char> >::append
; Function compile flags: /Odtp /RTCsu
; File c:\program files (x86)\microsoft visual studio 10.0\vc\include\xstring
;	COMDAT ??Y?$basic_string@DU?$char_traits@D@std@@V?$allocator@D@2@@std@@QAEAAV01@D@Z
_TEXT	SEGMENT
_this$ = -4						; size = 4
__Ch$ = 8						; size = 1
??Y?$basic_string@DU?$char_traits@D@std@@V?$allocator@D@2@@std@@QAEAAV01@D@Z PROC ; std::basic_string<char,std::char_traits<char>,std::allocator<char> >::operator+=, COMDAT
; _this$ = ecx

; 787  : 		{	// append 1 * _Ch

	push	ebp
	mov	ebp, esp
	push	ecx
	mov	DWORD PTR [ebp-4], -858993460		; ccccccccH
	mov	DWORD PTR _this$[ebp], ecx

; 788  : 		return (append((size_type)1, _Ch));

	movzx	eax, BYTE PTR __Ch$[ebp]
	push	eax
	push	1
	mov	ecx, DWORD PTR _this$[ebp]
	call	?append@?$basic_string@DU?$char_traits@D@std@@V?$allocator@D@2@@std@@QAEAAV12@ID@Z ; std::basic_string<char,std::char_traits<char>,std::allocator<char> >::append

; 789  : 		}

	add	esp, 4
	cmp	ebp, esp
	call	__RTC_CheckEsp
	mov	esp, ebp
	pop	ebp
	ret	4
??Y?$basic_string@DU?$char_traits@D@std@@V?$allocator@D@2@@std@@QAEAAV01@D@Z ENDP ; std::basic_string<char,std::char_traits<char>,std::allocator<char> >::operator+=
_TEXT	ENDS
PUBLIC	?_Chassign@?$basic_string@DU?$char_traits@D@std@@V?$allocator@D@2@@std@@QAEXIID@Z ; std::basic_string<char,std::char_traits<char>,std::allocator<char> >::_Chassign
; Function compile flags: /Odtp /RTCsu
;	COMDAT ?append@?$basic_string@DU?$char_traits@D@std@@V?$allocator@D@2@@std@@QAEAAV12@ID@Z
_TEXT	SEGMENT
__Num$ = -8						; size = 4
_this$ = -4						; size = 4
__Count$ = 8						; size = 4
__Ch$ = 12						; size = 1
?append@?$basic_string@DU?$char_traits@D@std@@V?$allocator@D@2@@std@@QAEAAV12@ID@Z PROC ; std::basic_string<char,std::char_traits<char>,std::allocator<char> >::append, COMDAT
; _this$ = ecx

; 844  : 		{	// append _Count * _Ch

	push	ebp
	mov	ebp, esp
	sub	esp, 8
	mov	DWORD PTR [ebp-8], -858993460		; ccccccccH
	mov	DWORD PTR [ebp-4], -858993460		; ccccccccH
	mov	DWORD PTR _this$[ebp], ecx

; 845  : 		if (npos - this->_Mysize <= _Count)

	mov	eax, DWORD PTR _this$[ebp]
	mov	ecx, DWORD PTR ?npos@?$basic_string@DU?$char_traits@D@std@@V?$allocator@D@2@@std@@2IB ; std::basic_string<char,std::char_traits<char>,std::allocator<char> >::npos
	sub	ecx, DWORD PTR [eax+20]
	cmp	ecx, DWORD PTR __Count$[ebp]
	ja	SHORT $LN2@append@3

; 846  : 			_Xlen();	// result too long

	mov	ecx, DWORD PTR _this$[ebp]
	call	?_Xlen@?$basic_string@DU?$char_traits@D@std@@V?$allocator@D@2@@std@@QBEXXZ ; std::basic_string<char,std::char_traits<char>,std::allocator<char> >::_Xlen
$LN2@append@3:

; 847  : 
; 848  : 		size_type _Num;
; 849  : 		if (0 < _Count && _Grow(_Num = this->_Mysize + _Count))

	cmp	DWORD PTR __Count$[ebp], 0
	jbe	SHORT $LN1@append@3
	mov	edx, DWORD PTR _this$[ebp]
	mov	eax, DWORD PTR [edx+20]
	add	eax, DWORD PTR __Count$[ebp]
	mov	DWORD PTR __Num$[ebp], eax
	push	0
	mov	ecx, DWORD PTR __Num$[ebp]
	push	ecx
	mov	ecx, DWORD PTR _this$[ebp]
	call	?_Grow@?$basic_string@DU?$char_traits@D@std@@V?$allocator@D@2@@std@@QAE_NI_N@Z ; std::basic_string<char,std::char_traits<char>,std::allocator<char> >::_Grow
	movzx	edx, al
	test	edx, edx
	je	SHORT $LN1@append@3

; 850  : 			{	// make room and append new stuff using assign
; 851  : 			_Chassign(this->_Mysize, _Count, _Ch);

	movzx	eax, BYTE PTR __Ch$[ebp]
	push	eax
	mov	ecx, DWORD PTR __Count$[ebp]
	push	ecx
	mov	edx, DWORD PTR _this$[ebp]
	mov	eax, DWORD PTR [edx+20]
	push	eax
	mov	ecx, DWORD PTR _this$[ebp]
	call	?_Chassign@?$basic_string@DU?$char_traits@D@std@@V?$allocator@D@2@@std@@QAEXIID@Z ; std::basic_string<char,std::char_traits<char>,std::allocator<char> >::_Chassign

; 852  : 			_Eos(_Num);

	mov	ecx, DWORD PTR __Num$[ebp]
	push	ecx
	mov	ecx, DWORD PTR _this$[ebp]
	call	?_Eos@?$basic_string@DU?$char_traits@D@std@@V?$allocator@D@2@@std@@QAEXI@Z ; std::basic_string<char,std::char_traits<char>,std::allocator<char> >::_Eos
$LN1@append@3:

; 853  : 			}
; 854  : 		return (*this);

	mov	eax, DWORD PTR _this$[ebp]
$LN4@append@3:

; 855  : 		}

	add	esp, 8
	cmp	ebp, esp
	call	__RTC_CheckEsp
	mov	esp, ebp
	pop	ebp
	ret	8
?append@?$basic_string@DU?$char_traits@D@std@@V?$allocator@D@2@@std@@QAEAAV12@ID@Z ENDP ; std::basic_string<char,std::char_traits<char>,std::allocator<char> >::append
; Function compile flags: /Odtp /RTCsu
_TEXT	ENDS
;	COMDAT ?assign@?$basic_string@DU?$char_traits@D@std@@V?$allocator@D@2@@std@@QAEAAV12@ID@Z
_TEXT	SEGMENT
_this$ = -4						; size = 4
__Count$ = 8						; size = 4
__Ch$ = 12						; size = 1
?assign@?$basic_string@DU?$char_traits@D@std@@V?$allocator@D@2@@std@@QAEAAV12@ID@Z PROC ; std::basic_string<char,std::char_traits<char>,std::allocator<char> >::assign, COMDAT
; _this$ = ecx

; 934  : 		{	// assign _Count * _Ch

	push	ebp
	mov	ebp, esp
	push	ecx
	mov	DWORD PTR [ebp-4], -858993460		; ccccccccH
	mov	DWORD PTR _this$[ebp], ecx

; 935  : 		if (_Count == npos)

	mov	eax, DWORD PTR __Count$[ebp]
	cmp	eax, DWORD PTR ?npos@?$basic_string@DU?$char_traits@D@std@@V?$allocator@D@2@@std@@2IB ; std::basic_string<char,std::char_traits<char>,std::allocator<char> >::npos
	jne	SHORT $LN2@assign@4

; 936  : 			_Xlen();	// result too long

	mov	ecx, DWORD PTR _this$[ebp]
	call	?_Xlen@?$basic_string@DU?$char_traits@D@std@@V?$allocator@D@2@@std@@QBEXXZ ; std::basic_string<char,std::char_traits<char>,std::allocator<char> >::_Xlen
$LN2@assign@4:

; 937  : 
; 938  : 		if (_Grow(_Count))

	push	0
	mov	ecx, DWORD PTR __Count$[ebp]
	push	ecx
	mov	ecx, DWORD PTR _this$[ebp]
	call	?_Grow@?$basic_string@DU?$char_traits@D@std@@V?$allocator@D@2@@std@@QAE_NI_N@Z ; std::basic_string<char,std::char_traits<char>,std::allocator<char> >::_Grow
	movzx	edx, al
	test	edx, edx
	je	SHORT $LN1@assign@4

; 939  : 			{	// make room and assign new stuff
; 940  : 			_Chassign(0, _Count, _Ch);

	movzx	eax, BYTE PTR __Ch$[ebp]
	push	eax
	mov	ecx, DWORD PTR __Count$[ebp]
	push	ecx
	push	0
	mov	ecx, DWORD PTR _this$[ebp]
	call	?_Chassign@?$basic_string@DU?$char_traits@D@std@@V?$allocator@D@2@@std@@QAEXIID@Z ; std::basic_string<char,std::char_traits<char>,std::allocator<char> >::_Chassign

; 941  : 			_Eos(_Count);

	mov	edx, DWORD PTR __Count$[ebp]
	push	edx
	mov	ecx, DWORD PTR _this$[ebp]
	call	?_Eos@?$basic_string@DU?$char_traits@D@std@@V?$allocator@D@2@@std@@QAEXI@Z ; std::basic_string<char,std::char_traits<char>,std::allocator<char> >::_Eos
$LN1@assign@4:

; 942  : 			}
; 943  : 		return (*this);

	mov	eax, DWORD PTR _this$[ebp]
$LN4@assign@4:

; 944  : 		}

	add	esp, 4
	cmp	ebp, esp
	call	__RTC_CheckEsp
	mov	esp, ebp
	pop	ebp
	ret	8
?assign@?$basic_string@DU?$char_traits@D@std@@V?$allocator@D@2@@std@@QAEAAV12@ID@Z ENDP ; std::basic_string<char,std::char_traits<char>,std::allocator<char> >::assign
_TEXT	ENDS
PUBLIC	?assign@?$char_traits@D@std@@SAPADPADID@Z	; std::char_traits<char>::assign
; Function compile flags: /Odtp /RTCsu
;	COMDAT ?_Chassign@?$basic_string@DU?$char_traits@D@std@@V?$allocator@D@2@@std@@QAEXIID@Z
_TEXT	SEGMENT
_this$ = -4						; size = 4
__Off$ = 8						; size = 4
__Count$ = 12						; size = 4
__Ch$ = 16						; size = 1
?_Chassign@?$basic_string@DU?$char_traits@D@std@@V?$allocator@D@2@@std@@QAEXIID@Z PROC ; std::basic_string<char,std::char_traits<char>,std::allocator<char> >::_Chassign, COMDAT
; _this$ = ecx

; 1910 : 		{	// assign _Count copies of _Ch beginning at _Off

	push	ebp
	mov	ebp, esp
	push	ecx
	mov	DWORD PTR [ebp-4], -858993460		; ccccccccH
	mov	DWORD PTR _this$[ebp], ecx

; 1911 : 		if (_Count == 1)

	cmp	DWORD PTR __Count$[ebp], 1
	jne	SHORT $LN2@Chassign

; 1912 : 			_Traits::assign(*(_Myptr() + _Off), _Ch);

	lea	eax, DWORD PTR __Ch$[ebp]
	push	eax
	mov	ecx, DWORD PTR _this$[ebp]
	call	?_Myptr@?$basic_string@DU?$char_traits@D@std@@V?$allocator@D@2@@std@@QAEPADXZ ; std::basic_string<char,std::char_traits<char>,std::allocator<char> >::_Myptr
	add	eax, DWORD PTR __Off$[ebp]
	push	eax
	call	?assign@?$char_traits@D@std@@SAXAADABD@Z ; std::char_traits<char>::assign
	add	esp, 8

; 1913 : 		else

	jmp	SHORT $LN3@Chassign
$LN2@Chassign:

; 1914 : 			_Traits::assign(_Myptr() + _Off, _Count, _Ch);

	movzx	ecx, BYTE PTR __Ch$[ebp]
	push	ecx
	mov	edx, DWORD PTR __Count$[ebp]
	push	edx
	mov	ecx, DWORD PTR _this$[ebp]
	call	?_Myptr@?$basic_string@DU?$char_traits@D@std@@V?$allocator@D@2@@std@@QAEPADXZ ; std::basic_string<char,std::char_traits<char>,std::allocator<char> >::_Myptr
	add	eax, DWORD PTR __Off$[ebp]
	push	eax
	call	?assign@?$char_traits@D@std@@SAPADPADID@Z ; std::char_traits<char>::assign
	add	esp, 12					; 0000000cH
$LN3@Chassign:

; 1915 : 		}

	add	esp, 4
	cmp	ebp, esp
	call	__RTC_CheckEsp
	mov	esp, ebp
	pop	ebp
	ret	12					; 0000000cH
?_Chassign@?$basic_string@DU?$char_traits@D@std@@V?$allocator@D@2@@std@@QAEXIID@Z ENDP ; std::basic_string<char,std::char_traits<char>,std::allocator<char> >::_Chassign
_TEXT	ENDS
EXTRN	_memset:PROC
; Function compile flags: /Odtp /RTCsu
; File c:\program files (x86)\microsoft visual studio 10.0\vc\include\iosfwd
;	COMDAT ?assign@?$char_traits@D@std@@SAPADPADID@Z
_TEXT	SEGMENT
__First$ = 8						; size = 4
__Count$ = 12						; size = 4
__Ch$ = 16						; size = 1
?assign@?$char_traits@D@std@@SAPADPADID@Z PROC		; std::char_traits<char>::assign, COMDAT

; 521  : 		{	// assign _Count * _Ch to [_First, ...)

	push	ebp
	mov	ebp, esp

; 522  : 		return ((_Elem *)_CSTD memset(_First, _Ch, _Count));

	mov	eax, DWORD PTR __Count$[ebp]
	push	eax
	movsx	ecx, BYTE PTR __Ch$[ebp]
	push	ecx
	mov	edx, DWORD PTR __First$[ebp]
	push	edx
	call	_memset
	add	esp, 12					; 0000000cH

; 523  : 		}

	cmp	ebp, esp
	call	__RTC_CheckEsp
	pop	ebp
	ret	0
?assign@?$char_traits@D@std@@SAPADPADID@Z ENDP		; std::char_traits<char>::assign
_TEXT	ENDS
PUBLIC	??A?$basic_string@DU?$char_traits@D@std@@V?$allocator@D@2@@std@@QAEAADI@Z ; std::basic_string<char,std::char_traits<char>,std::allocator<char> >::operator[]
PUBLIC	??_C@_0BH@HHDGIIFB@0123456789abcdefABCDEF?$AA@	; `string'
PUBLIC	??$_Maklocbyte@D@std@@YADDABU_Cvtvec@@@Z	; std::_Maklocbyte<char>
PUBLIC	??$?9DU?$char_traits@D@std@@@std@@YA_NABV?$istreambuf_iterator@DU?$char_traits@D@std@@@0@0@Z ; std::operator!=<char,std::char_traits<char> >
PUBLIC	??E?$istreambuf_iterator@DU?$char_traits@D@std@@@std@@QAEAAV01@XZ ; std::istreambuf_iterator<char,std::char_traits<char> >::operator++
PUBLIC	??D?$istreambuf_iterator@DU?$char_traits@D@std@@@std@@QBEDXZ ; std::istreambuf_iterator<char,std::char_traits<char> >::operator*
PUBLIC	??$_Maklocchr@D@std@@YADDPADABU_Cvtvec@@@Z	; std::_Maklocchr<char>
PUBLIC	?thousands_sep@?$numpunct@D@std@@QBEDXZ		; std::numpunct<char>::thousands_sep
PUBLIC	?grouping@?$numpunct@D@std@@QBE?AV?$basic_string@DU?$char_traits@D@std@@V?$allocator@D@2@@2@XZ ; std::numpunct<char>::grouping
PUBLIC	__$ArrayPad$
EXTRN	_memchr:PROC
;	COMDAT ??_C@_0BH@HHDGIIFB@0123456789abcdefABCDEF?$AA@
; File c:\program files (x86)\microsoft visual studio 10.0\vc\include\xlocnum
CONST	SEGMENT
??_C@_0BH@HHDGIIFB@0123456789abcdefABCDEF?$AA@ DB '0123456789abcdefABCDEF'
	DB	00H						; `string'
CONST	ENDS
;	COMDAT xdata$x
xdata$x	SEGMENT
__unwindtable$?_Getifld@?$num_get@DV?$istreambuf_iterator@DU?$char_traits@D@std@@@std@@@std@@ABAHPADAAV?$istreambuf_iterator@DU?$char_traits@D@std@@@2@1HABVlocale@2@@Z DD 0ffffffffH
	DD	FLAT:__unwindfunclet$?_Getifld@?$num_get@DV?$istreambuf_iterator@DU?$char_traits@D@std@@@std@@@std@@ABAHPADAAV?$istreambuf_iterator@DU?$char_traits@D@std@@@2@1HABVlocale@2@@Z$0
	DD	00H
	DD	FLAT:__unwindfunclet$?_Getifld@?$num_get@DV?$istreambuf_iterator@DU?$char_traits@D@std@@@std@@@std@@ABAHPADAAV?$istreambuf_iterator@DU?$char_traits@D@std@@@2@1HABVlocale@2@@Z$1
__ehfuncinfo$?_Getifld@?$num_get@DV?$istreambuf_iterator@DU?$char_traits@D@std@@@std@@@std@@ABAHPADAAV?$istreambuf_iterator@DU?$char_traits@D@std@@@2@1HABVlocale@2@@Z DD 019930522H
	DD	02H
	DD	FLAT:__unwindtable$?_Getifld@?$num_get@DV?$istreambuf_iterator@DU?$char_traits@D@std@@@std@@@std@@ABAHPADAAV?$istreambuf_iterator@DU?$char_traits@D@std@@@2@1HABVlocale@2@@Z
	DD	2 DUP(00H)
	DD	2 DUP(00H)
	DD	00H
	DD	01H
; Function compile flags: /Odtp /RTCsu
xdata$x	ENDS
;	COMDAT ?_Getifld@?$num_get@DV?$istreambuf_iterator@DU?$char_traits@D@std@@@std@@@std@@ABAHPADAAV?$istreambuf_iterator@DU?$char_traits@D@std@@@2@1HABVlocale@2@@Z
_TEXT	SEGMENT
tv232 = -156						; size = 4
tv193 = -152						; size = 4
tv147 = -148						; size = 4
tv148 = -144						; size = 4
tv75 = -137						; size = 1
$T141975 = -136						; size = 4
__Pg$135365 = -132					; size = 4
__Pe$135339 = -128					; size = 4
__Group$ = -124						; size = 4
__Groups$ = -116					; size = 32
__Dlen$ = -80						; size = 4
__Nonzero$ = -74					; size = 1
__Seendigit$ = -73					; size = 1
__Base$ = -72						; size = 4
__Ptr$ = -68						; size = 4
__E0$ = -62						; size = 1
__Kseparator$ = -61					; size = 1
__Grouping$ = -56					; size = 32
__Punct_fac$ = -20					; size = 4
__$ArrayPad$ = -16					; size = 4
__$EHRec$ = -12						; size = 12
_this$ = 8						; size = 4
__Ac$ = 12						; size = 4
__First$ = 16						; size = 4
__Last$ = 20						; size = 4
__Basefield$ = 24					; size = 4
__Loc$ = 28						; size = 4
?_Getifld@?$num_get@DV?$istreambuf_iterator@DU?$char_traits@D@std@@@std@@@std@@ABAHPADAAV?$istreambuf_iterator@DU?$char_traits@D@std@@@2@1HABVlocale@2@@Z PROC ; std::num_get<char,std::istreambuf_iterator<char,std::char_traits<char> > >::_Getifld, COMDAT

; 633  : 		{	// get integer field from [_First, _Last) into _Ac

	push	ebp
	mov	ebp, esp
	push	-1
	push	__ehhandler$?_Getifld@?$num_get@DV?$istreambuf_iterator@DU?$char_traits@D@std@@@std@@@std@@ABAHPADAAV?$istreambuf_iterator@DU?$char_traits@D@std@@@2@1HABVlocale@2@@Z
	mov	eax, DWORD PTR fs:0
	push	eax
	sub	esp, 144				; 00000090H
	push	esi
	push	edi
	lea	edi, DWORD PTR [ebp-156]
	mov	ecx, 36					; 00000024H
	mov	eax, -858993460				; ccccccccH
	rep stosd
	mov	eax, DWORD PTR ___security_cookie
	xor	eax, ebp
	mov	DWORD PTR __$ArrayPad$[ebp], eax
	push	eax
	lea	eax, DWORD PTR __$EHRec$[ebp]
	mov	DWORD PTR fs:0, eax

; 634  : 		const _Mypunct& _Punct_fac = _USE(_Loc, _Mypunct);

	mov	eax, DWORD PTR __Loc$[ebp]
	push	eax
	call	??$use_facet@V?$numpunct@D@std@@@std@@YAABV?$numpunct@D@0@ABVlocale@0@@Z ; std::use_facet<std::numpunct<char> >
	add	esp, 4
	mov	DWORD PTR __Punct_fac$[ebp], eax

; 635  : 		const string _Grouping = _Punct_fac.grouping();

	lea	ecx, DWORD PTR __Grouping$[ebp]
	push	ecx
	mov	ecx, DWORD PTR __Punct_fac$[ebp]
	call	?grouping@?$numpunct@D@std@@QBE?AV?$basic_string@DU?$char_traits@D@std@@V?$allocator@D@2@@2@XZ ; std::numpunct<char>::grouping
	mov	DWORD PTR __$EHRec$[ebp+8], 0

; 636  : 		const _Elem _Kseparator = _Grouping.size() == 0
; 637  : 			? (_Elem)0 : _Punct_fac.thousands_sep();

	lea	ecx, DWORD PTR __Grouping$[ebp]
	call	?size@?$basic_string@DU?$char_traits@D@std@@V?$allocator@D@2@@std@@QBEIXZ ; std::basic_string<char,std::char_traits<char>,std::allocator<char> >::size
	test	eax, eax
	jne	SHORT $LN41@Getifld
	mov	BYTE PTR tv75[ebp], 0
	jmp	SHORT $LN42@Getifld
$LN41@Getifld:
	mov	ecx, DWORD PTR __Punct_fac$[ebp]
	call	?thousands_sep@?$numpunct@D@std@@QBEDXZ	; std::numpunct<char>::thousands_sep
	mov	BYTE PTR tv75[ebp], al
$LN42@Getifld:
	mov	dl, BYTE PTR tv75[ebp]
	mov	BYTE PTR __Kseparator$[ebp], dl

; 638  : 		const _Elem _E0 = _MAKLOCCHR(_Elem, '0', _Cvt);

	mov	eax, DWORD PTR _this$[ebp]
	add	eax, 8
	push	eax
	push	0
	push	48					; 00000030H
	call	??$_Maklocchr@D@std@@YADDPADABU_Cvtvec@@@Z ; std::_Maklocchr<char>
	add	esp, 12					; 0000000cH
	mov	BYTE PTR __E0$[ebp], al

; 639  : 		char *_Ptr = _Ac;

	mov	ecx, DWORD PTR __Ac$[ebp]
	mov	DWORD PTR __Ptr$[ebp], ecx

; 640  : 
; 641  : 		if (_First == _Last)

	mov	edx, DWORD PTR __Last$[ebp]
	push	edx
	mov	eax, DWORD PTR __First$[ebp]
	push	eax
	call	??$?8DU?$char_traits@D@std@@@std@@YA_NABV?$istreambuf_iterator@DU?$char_traits@D@std@@@0@0@Z ; std::operator==<char,std::char_traits<char> >
	add	esp, 8
	movzx	ecx, al
	test	ecx, ecx
	je	SHORT $LN38@Getifld
	jmp	SHORT $LN37@Getifld
$LN38@Getifld:

; 642  : 			;	// empty field
; 643  : 		else if (*_First == _MAKLOCCHR(_Elem, '+', _Cvt))

	mov	ecx, DWORD PTR __First$[ebp]
	call	??D?$istreambuf_iterator@DU?$char_traits@D@std@@@std@@QBEDXZ ; std::istreambuf_iterator<char,std::char_traits<char> >::operator*
	movsx	esi, al
	mov	edx, DWORD PTR _this$[ebp]
	add	edx, 8
	push	edx
	push	0
	push	43					; 0000002bH
	call	??$_Maklocchr@D@std@@YADDPADABU_Cvtvec@@@Z ; std::_Maklocchr<char>
	add	esp, 12					; 0000000cH
	movsx	eax, al
	cmp	esi, eax
	jne	SHORT $LN36@Getifld

; 644  : 			*_Ptr++ = '+', ++_First;	// gather plus sign

	mov	ecx, DWORD PTR __Ptr$[ebp]
	mov	BYTE PTR [ecx], 43			; 0000002bH
	mov	edx, DWORD PTR __Ptr$[ebp]
	add	edx, 1
	mov	DWORD PTR __Ptr$[ebp], edx
	mov	ecx, DWORD PTR __First$[ebp]
	call	??E?$istreambuf_iterator@DU?$char_traits@D@std@@@std@@QAEAAV01@XZ ; std::istreambuf_iterator<char,std::char_traits<char> >::operator++
	jmp	SHORT $LN37@Getifld
$LN36@Getifld:

; 645  : 		else if (*_First == _MAKLOCCHR(_Elem, '-', _Cvt))

	mov	ecx, DWORD PTR __First$[ebp]
	call	??D?$istreambuf_iterator@DU?$char_traits@D@std@@@std@@QBEDXZ ; std::istreambuf_iterator<char,std::char_traits<char> >::operator*
	movsx	esi, al
	mov	eax, DWORD PTR _this$[ebp]
	add	eax, 8
	push	eax
	push	0
	push	45					; 0000002dH
	call	??$_Maklocchr@D@std@@YADDPADABU_Cvtvec@@@Z ; std::_Maklocchr<char>
	add	esp, 12					; 0000000cH
	movsx	ecx, al
	cmp	esi, ecx
	jne	SHORT $LN37@Getifld

; 646  : 			*_Ptr++ = '-', ++_First;	// gather minus sign

	mov	edx, DWORD PTR __Ptr$[ebp]
	mov	BYTE PTR [edx], 45			; 0000002dH
	mov	eax, DWORD PTR __Ptr$[ebp]
	add	eax, 1
	mov	DWORD PTR __Ptr$[ebp], eax
	mov	ecx, DWORD PTR __First$[ebp]
	call	??E?$istreambuf_iterator@DU?$char_traits@D@std@@@std@@QAEAAV01@XZ ; std::istreambuf_iterator<char,std::char_traits<char> >::operator++
$LN37@Getifld:

; 647  : 
; 648  : 		_Basefield &= ios_base::basefield;

	mov	ecx, DWORD PTR __Basefield$[ebp]
	and	ecx, 3584				; 00000e00H
	mov	DWORD PTR __Basefield$[ebp], ecx

; 649  : 		int _Base = _Basefield == ios_base::oct ? 8
; 650  : 			: _Basefield == ios_base::hex ? 16
; 651  : 			: _Basefield == ios_base::_Fmtzero ? 0 : 10;

	cmp	DWORD PTR __Basefield$[ebp], 1024	; 00000400H
	jne	SHORT $LN45@Getifld
	mov	DWORD PTR tv148[ebp], 8
	jmp	SHORT $LN46@Getifld
$LN45@Getifld:
	cmp	DWORD PTR __Basefield$[ebp], 2048	; 00000800H
	jne	SHORT $LN43@Getifld
	mov	DWORD PTR tv147[ebp], 16		; 00000010H
	jmp	SHORT $LN44@Getifld
$LN43@Getifld:
	mov	edx, DWORD PTR __Basefield$[ebp]
	neg	edx
	sbb	edx, edx
	and	edx, 10					; 0000000aH
	mov	DWORD PTR tv147[ebp], edx
$LN44@Getifld:
	mov	eax, DWORD PTR tv147[ebp]
	mov	DWORD PTR tv148[ebp], eax
$LN46@Getifld:
	mov	ecx, DWORD PTR tv148[ebp]
	mov	DWORD PTR __Base$[ebp], ecx

; 652  : 
; 653  : 		bool _Seendigit = false;	// seen a digit in input

	mov	BYTE PTR __Seendigit$[ebp], 0

; 654  : 		bool _Nonzero = false;	// seen a nonzero digit in input

	mov	BYTE PTR __Nonzero$[ebp], 0

; 655  : 
; 656  : 		if (_First != _Last && *_First == _E0)

	mov	edx, DWORD PTR __Last$[ebp]
	push	edx
	mov	eax, DWORD PTR __First$[ebp]
	push	eax
	call	??$?9DU?$char_traits@D@std@@@std@@YA_NABV?$istreambuf_iterator@DU?$char_traits@D@std@@@0@0@Z ; std::operator!=<char,std::char_traits<char> >
	add	esp, 8
	movzx	ecx, al
	test	ecx, ecx
	je	$LN33@Getifld
	mov	ecx, DWORD PTR __First$[ebp]
	call	??D?$istreambuf_iterator@DU?$char_traits@D@std@@@std@@QBEDXZ ; std::istreambuf_iterator<char,std::char_traits<char> >::operator*
	movsx	edx, al
	movsx	eax, BYTE PTR __E0$[ebp]
	cmp	edx, eax
	jne	$LN33@Getifld

; 657  : 			{	// leading zero, look for 0x, 0X
; 658  : 			_Seendigit = true, ++_First;

	mov	BYTE PTR __Seendigit$[ebp], 1
	mov	ecx, DWORD PTR __First$[ebp]
	call	??E?$istreambuf_iterator@DU?$char_traits@D@std@@@std@@QAEAAV01@XZ ; std::istreambuf_iterator<char,std::char_traits<char> >::operator++

; 659  : 			if (_First != _Last && (*_First == _MAKLOCCHR(_Elem, 'x', _Cvt)
; 660  : 					|| *_First == _MAKLOCCHR(_Elem, 'X', _Cvt))
; 661  : 				&& (_Base == 0 || _Base == 16))

	mov	ecx, DWORD PTR __Last$[ebp]
	push	ecx
	mov	edx, DWORD PTR __First$[ebp]
	push	edx
	call	??$?9DU?$char_traits@D@std@@@std@@YA_NABV?$istreambuf_iterator@DU?$char_traits@D@std@@@0@0@Z ; std::operator!=<char,std::char_traits<char> >
	add	esp, 8
	movzx	eax, al
	test	eax, eax
	je	SHORT $LN32@Getifld
	mov	ecx, DWORD PTR __First$[ebp]
	call	??D?$istreambuf_iterator@DU?$char_traits@D@std@@@std@@QBEDXZ ; std::istreambuf_iterator<char,std::char_traits<char> >::operator*
	movsx	esi, al
	mov	ecx, DWORD PTR _this$[ebp]
	add	ecx, 8
	push	ecx
	push	0
	push	120					; 00000078H
	call	??$_Maklocchr@D@std@@YADDPADABU_Cvtvec@@@Z ; std::_Maklocchr<char>
	add	esp, 12					; 0000000cH
	movsx	edx, al
	cmp	esi, edx
	je	SHORT $LN31@Getifld
	mov	ecx, DWORD PTR __First$[ebp]
	call	??D?$istreambuf_iterator@DU?$char_traits@D@std@@@std@@QBEDXZ ; std::istreambuf_iterator<char,std::char_traits<char> >::operator*
	movsx	esi, al
	mov	eax, DWORD PTR _this$[ebp]
	add	eax, 8
	push	eax
	push	0
	push	88					; 00000058H
	call	??$_Maklocchr@D@std@@YADDPADABU_Cvtvec@@@Z ; std::_Maklocchr<char>
	add	esp, 12					; 0000000cH
	movsx	ecx, al
	cmp	esi, ecx
	jne	SHORT $LN32@Getifld
$LN31@Getifld:
	cmp	DWORD PTR __Base$[ebp], 0
	je	SHORT $LN30@Getifld
	cmp	DWORD PTR __Base$[ebp], 16		; 00000010H
	jne	SHORT $LN32@Getifld
$LN30@Getifld:

; 662  : 				_Base = 16, _Seendigit = false, ++_First;

	mov	DWORD PTR __Base$[ebp], 16		; 00000010H
	mov	BYTE PTR __Seendigit$[ebp], 0
	mov	ecx, DWORD PTR __First$[ebp]
	call	??E?$istreambuf_iterator@DU?$char_traits@D@std@@@std@@QAEAAV01@XZ ; std::istreambuf_iterator<char,std::char_traits<char> >::operator++
	jmp	SHORT $LN33@Getifld
$LN32@Getifld:

; 663  : 			else if (_Base == 0)

	cmp	DWORD PTR __Base$[ebp], 0
	jne	SHORT $LN33@Getifld

; 664  : 				_Base = 8;

	mov	DWORD PTR __Base$[ebp], 8
$LN33@Getifld:

; 665  : 			}
; 666  : 
; 667  : 		int _Dlen = _Base == 0 || _Base == 10 ? 10
; 668  : 			: _Base == 8 ? 8 : 16 + 6;

	cmp	DWORD PTR __Base$[ebp], 0
	je	SHORT $LN47@Getifld
	cmp	DWORD PTR __Base$[ebp], 10		; 0000000aH
	je	SHORT $LN47@Getifld
	mov	edx, DWORD PTR __Base$[ebp]
	sub	edx, 8
	neg	edx
	sbb	edx, edx
	and	edx, 14					; 0000000eH
	add	edx, 8
	mov	DWORD PTR tv193[ebp], edx
	jmp	SHORT $LN48@Getifld
$LN47@Getifld:
	mov	DWORD PTR tv193[ebp], 10		; 0000000aH
$LN48@Getifld:
	mov	eax, DWORD PTR tv193[ebp]
	mov	DWORD PTR __Dlen$[ebp], eax

; 669  : 		string _Groups((size_t)1, (char)_Seendigit);

	movzx	ecx, BYTE PTR __Seendigit$[ebp]
	push	ecx
	push	1
	lea	ecx, DWORD PTR __Groups$[ebp]
	call	??0?$basic_string@DU?$char_traits@D@std@@V?$allocator@D@2@@std@@QAE@ID@Z ; std::basic_string<char,std::char_traits<char>,std::allocator<char> >::basic_string<char,std::char_traits<char>,std::allocator<char> >
	mov	BYTE PTR __$EHRec$[ebp+8], 1

; 670  : 		size_t _Group = 0;

	mov	DWORD PTR __Group$[ebp], 0

; 671  : 
; 672  : 		for (char *const _Pe = &_Ac[_MAX_INT_DIG - 1];

	mov	edx, DWORD PTR __Ac$[ebp]
	add	edx, 31					; 0000001fH
	mov	DWORD PTR __Pe$135339[ebp], edx

; 673  : 			_First != _Last; ++_First)

	jmp	SHORT $LN27@Getifld
$LN26@Getifld:
	mov	ecx, DWORD PTR __First$[ebp]
	call	??E?$istreambuf_iterator@DU?$char_traits@D@std@@@std@@QAEAAV01@XZ ; std::istreambuf_iterator<char,std::char_traits<char> >::operator++
$LN27@Getifld:
	mov	eax, DWORD PTR __Last$[ebp]
	push	eax
	mov	ecx, DWORD PTR __First$[ebp]
	push	ecx
	call	??$?9DU?$char_traits@D@std@@@std@@YA_NABV?$istreambuf_iterator@DU?$char_traits@D@std@@@0@0@Z ; std::operator!=<char,std::char_traits<char> >
	add	esp, 8
	movzx	edx, al
	test	edx, edx
	je	$LN25@Getifld

; 674  : 			if (_CSTD memchr((const char *)"0123456789abcdefABCDEF",
; 675  : 				*_Ptr = _MAKLOCBYTE(_Elem, *_First, _Cvt), _Dlen) != 0)

	mov	eax, DWORD PTR _this$[ebp]
	add	eax, 8
	push	eax
	mov	ecx, DWORD PTR __First$[ebp]
	call	??D?$istreambuf_iterator@DU?$char_traits@D@std@@@std@@QBEDXZ ; std::istreambuf_iterator<char,std::char_traits<char> >::operator*
	movzx	ecx, al
	push	ecx
	call	??$_Maklocbyte@D@std@@YADDABU_Cvtvec@@@Z ; std::_Maklocbyte<char>
	add	esp, 8
	mov	edx, DWORD PTR __Ptr$[ebp]
	mov	BYTE PTR [edx], al
	mov	eax, DWORD PTR __Dlen$[ebp]
	push	eax
	mov	ecx, DWORD PTR __Ptr$[ebp]
	movsx	edx, BYTE PTR [ecx]
	push	edx
	push	OFFSET ??_C@_0BH@HHDGIIFB@0123456789abcdefABCDEF?$AA@
	call	_memchr
	add	esp, 12					; 0000000cH
	test	eax, eax
	je	SHORT $LN24@Getifld

; 676  : 				{	// got a digit, characterize it and add to group size
; 677  : 				if ((_Nonzero || *_Ptr != '0') && _Ptr < _Pe)

	movzx	eax, BYTE PTR __Nonzero$[ebp]
	test	eax, eax
	jne	SHORT $LN22@Getifld
	mov	ecx, DWORD PTR __Ptr$[ebp]
	movsx	edx, BYTE PTR [ecx]
	cmp	edx, 48					; 00000030H
	je	SHORT $LN23@Getifld
$LN22@Getifld:
	mov	eax, DWORD PTR __Ptr$[ebp]
	cmp	eax, DWORD PTR __Pe$135339[ebp]
	jae	SHORT $LN23@Getifld

; 678  : 					++_Ptr, _Nonzero = true;

	mov	ecx, DWORD PTR __Ptr$[ebp]
	add	ecx, 1
	mov	DWORD PTR __Ptr$[ebp], ecx
	mov	BYTE PTR __Nonzero$[ebp], 1
$LN23@Getifld:

; 679  : 				_Seendigit = true;

	mov	BYTE PTR __Seendigit$[ebp], 1

; 680  : 				if (_Groups[_Group] != CHAR_MAX)

	mov	edx, DWORD PTR __Group$[ebp]
	push	edx
	lea	ecx, DWORD PTR __Groups$[ebp]
	call	??A?$basic_string@DU?$char_traits@D@std@@V?$allocator@D@2@@std@@QAEAADI@Z ; std::basic_string<char,std::char_traits<char>,std::allocator<char> >::operator[]
	movsx	eax, BYTE PTR [eax]
	cmp	eax, 127				; 0000007fH
	je	SHORT $LN21@Getifld

; 681  : 					++_Groups[_Group];

	mov	ecx, DWORD PTR __Group$[ebp]
	push	ecx
	lea	ecx, DWORD PTR __Groups$[ebp]
	call	??A?$basic_string@DU?$char_traits@D@std@@V?$allocator@D@2@@std@@QAEAADI@Z ; std::basic_string<char,std::char_traits<char>,std::allocator<char> >::operator[]
	mov	DWORD PTR tv232[ebp], eax
	mov	edx, DWORD PTR tv232[ebp]
	mov	al, BYTE PTR [edx]
	add	al, 1
	mov	ecx, DWORD PTR tv232[ebp]
	mov	BYTE PTR [ecx], al
$LN21@Getifld:

; 682  : 				}
; 683  : 			else if (_Groups[_Group] == '\0'

	jmp	SHORT $LN20@Getifld
$LN24@Getifld:

; 684  : 				|| _Kseparator == (_Elem)0
; 685  : 				|| *_First != _Kseparator)

	mov	edx, DWORD PTR __Group$[ebp]
	push	edx
	lea	ecx, DWORD PTR __Groups$[ebp]
	call	??A?$basic_string@DU?$char_traits@D@std@@V?$allocator@D@2@@std@@QAEAADI@Z ; std::basic_string<char,std::char_traits<char>,std::allocator<char> >::operator[]
	movsx	eax, BYTE PTR [eax]
	test	eax, eax
	je	SHORT $LN18@Getifld
	movsx	ecx, BYTE PTR __Kseparator$[ebp]
	test	ecx, ecx
	je	SHORT $LN18@Getifld
	mov	ecx, DWORD PTR __First$[ebp]
	call	??D?$istreambuf_iterator@DU?$char_traits@D@std@@@std@@QBEDXZ ; std::istreambuf_iterator<char,std::char_traits<char> >::operator*
	movsx	edx, al
	movsx	eax, BYTE PTR __Kseparator$[ebp]
	cmp	edx, eax
	je	SHORT $LN19@Getifld
$LN18@Getifld:

; 686  : 				break;	// not a group separator, done

	jmp	SHORT $LN25@Getifld

; 687  : 			else

	jmp	SHORT $LN20@Getifld
$LN19@Getifld:

; 688  : 				{	// add a new group to _Groups string
; 689  : 				_Groups.append((string::size_type)1, '\0');

	push	0
	push	1
	lea	ecx, DWORD PTR __Groups$[ebp]
	call	?append@?$basic_string@DU?$char_traits@D@std@@V?$allocator@D@2@@std@@QAEAAV12@ID@Z ; std::basic_string<char,std::char_traits<char>,std::allocator<char> >::append

; 690  : 				++_Group;

	mov	ecx, DWORD PTR __Group$[ebp]
	add	ecx, 1
	mov	DWORD PTR __Group$[ebp], ecx
$LN20@Getifld:

; 691  : 				}

	jmp	$LN26@Getifld
$LN25@Getifld:

; 692  : 
; 693  : 		if (_Group == 0)

	cmp	DWORD PTR __Group$[ebp], 0
	jne	SHORT $LN16@Getifld
	jmp	SHORT $LN15@Getifld
$LN16@Getifld:

; 694  : 			;	// no thousands separators seen
; 695  : 		else if ('\0' < _Groups[_Group])

	mov	edx, DWORD PTR __Group$[ebp]
	push	edx
	lea	ecx, DWORD PTR __Groups$[ebp]
	call	??A?$basic_string@DU?$char_traits@D@std@@V?$allocator@D@2@@std@@QAEAADI@Z ; std::basic_string<char,std::char_traits<char>,std::allocator<char> >::operator[]
	movsx	eax, BYTE PTR [eax]
	test	eax, eax
	jle	SHORT $LN14@Getifld

; 696  : 			++_Group;	// add trailing group to group count

	mov	ecx, DWORD PTR __Group$[ebp]
	add	ecx, 1
	mov	DWORD PTR __Group$[ebp], ecx

; 697  : 		else

	jmp	SHORT $LN15@Getifld
$LN14@Getifld:

; 698  : 			_Seendigit = false;	// trailing separator, fail

	mov	BYTE PTR __Seendigit$[ebp], 0
$LN15@Getifld:

; 699  : 
; 700  : 		for (const char *_Pg = _Grouping.c_str(); _Seendigit && 0 < _Group; )

	lea	ecx, DWORD PTR __Grouping$[ebp]
	call	?c_str@?$basic_string@DU?$char_traits@D@std@@V?$allocator@D@2@@std@@QBEPBDXZ ; std::basic_string<char,std::char_traits<char>,std::allocator<char> >::c_str
	mov	DWORD PTR __Pg$135365[ebp], eax
$LN12@Getifld:
	movzx	edx, BYTE PTR __Seendigit$[ebp]
	test	edx, edx
	je	$LN11@Getifld
	cmp	DWORD PTR __Group$[ebp], 0
	jbe	$LN11@Getifld

; 701  : 			if (*_Pg == CHAR_MAX)

	mov	eax, DWORD PTR __Pg$135365[ebp]
	movsx	ecx, BYTE PTR [eax]
	cmp	ecx, 127				; 0000007fH
	jne	SHORT $LN10@Getifld

; 702  : 				break;	// end of grouping constraints to check

	jmp	SHORT $LN11@Getifld

; 703  : 			else if (0 < --_Group && *_Pg != _Groups[_Group]

	jmp	SHORT $LN9@Getifld
$LN10@Getifld:

; 704  : 				|| 0 == _Group && *_Pg < _Groups[_Group])

	mov	edx, DWORD PTR __Group$[ebp]
	sub	edx, 1
	mov	DWORD PTR __Group$[ebp], edx
	je	SHORT $LN6@Getifld
	mov	eax, DWORD PTR __Pg$135365[ebp]
	movsx	esi, BYTE PTR [eax]
	mov	ecx, DWORD PTR __Group$[ebp]
	push	ecx
	lea	ecx, DWORD PTR __Groups$[ebp]
	call	??A?$basic_string@DU?$char_traits@D@std@@V?$allocator@D@2@@std@@QAEAADI@Z ; std::basic_string<char,std::char_traits<char>,std::allocator<char> >::operator[]
	movsx	edx, BYTE PTR [eax]
	cmp	esi, edx
	jne	SHORT $LN7@Getifld
$LN6@Getifld:
	cmp	DWORD PTR __Group$[ebp], 0
	jne	SHORT $LN8@Getifld
	mov	eax, DWORD PTR __Pg$135365[ebp]
	movsx	esi, BYTE PTR [eax]
	mov	ecx, DWORD PTR __Group$[ebp]
	push	ecx
	lea	ecx, DWORD PTR __Groups$[ebp]
	call	??A?$basic_string@DU?$char_traits@D@std@@V?$allocator@D@2@@std@@QAEAADI@Z ; std::basic_string<char,std::char_traits<char>,std::allocator<char> >::operator[]
	movsx	edx, BYTE PTR [eax]
	cmp	esi, edx
	jge	SHORT $LN8@Getifld
$LN7@Getifld:

; 705  : 				_Seendigit = false;	// bad group size, fail

	mov	BYTE PTR __Seendigit$[ebp], 0
	jmp	SHORT $LN9@Getifld
$LN8@Getifld:

; 706  : 			else if ('\0' < _Pg[1])

	mov	eax, DWORD PTR __Pg$135365[ebp]
	movsx	ecx, BYTE PTR [eax+1]
	test	ecx, ecx
	jle	SHORT $LN9@Getifld

; 707  : 				++_Pg;	// group size okay, advance to next test

	mov	edx, DWORD PTR __Pg$135365[ebp]
	add	edx, 1
	mov	DWORD PTR __Pg$135365[ebp], edx
$LN9@Getifld:

; 708  : 
; 709  : 		if (_Seendigit && !_Nonzero)

	jmp	$LN12@Getifld
$LN11@Getifld:
	movzx	eax, BYTE PTR __Seendigit$[ebp]
	test	eax, eax
	je	SHORT $LN3@Getifld
	movzx	ecx, BYTE PTR __Nonzero$[ebp]
	test	ecx, ecx
	jne	SHORT $LN3@Getifld

; 710  : 			*_Ptr++ = '0';	// zero field, replace stripped zero(s)

	mov	edx, DWORD PTR __Ptr$[ebp]
	mov	BYTE PTR [edx], 48			; 00000030H
	mov	eax, DWORD PTR __Ptr$[ebp]
	add	eax, 1
	mov	DWORD PTR __Ptr$[ebp], eax
	jmp	SHORT $LN2@Getifld
$LN3@Getifld:

; 711  : 		else if (!_Seendigit)

	movzx	ecx, BYTE PTR __Seendigit$[ebp]
	test	ecx, ecx
	jne	SHORT $LN2@Getifld

; 712  : 			_Ptr = _Ac;	// roll back pointer to indicate failure

	mov	edx, DWORD PTR __Ac$[ebp]
	mov	DWORD PTR __Ptr$[ebp], edx
$LN2@Getifld:

; 713  : 		*_Ptr = '\0';

	mov	eax, DWORD PTR __Ptr$[ebp]
	mov	BYTE PTR [eax], 0

; 714  : 		return (_Base);

	mov	ecx, DWORD PTR __Base$[ebp]
	mov	DWORD PTR $T141975[ebp], ecx
	mov	BYTE PTR __$EHRec$[ebp+8], 0
	lea	ecx, DWORD PTR __Groups$[ebp]
	call	??1?$basic_string@DU?$char_traits@D@std@@V?$allocator@D@2@@std@@QAE@XZ ; std::basic_string<char,std::char_traits<char>,std::allocator<char> >::~basic_string<char,std::char_traits<char>,std::allocator<char> >
	mov	DWORD PTR __$EHRec$[ebp+8], -1
	lea	ecx, DWORD PTR __Grouping$[ebp]
	call	??1?$basic_string@DU?$char_traits@D@std@@V?$allocator@D@2@@std@@QAE@XZ ; std::basic_string<char,std::char_traits<char>,std::allocator<char> >::~basic_string<char,std::char_traits<char>,std::allocator<char> >
	mov	eax, DWORD PTR $T141975[ebp]

; 715  : 		}

	push	edx
	mov	ecx, ebp
	push	eax
	lea	edx, DWORD PTR $LN55@Getifld
	call	@_RTC_CheckStackVars@8
	pop	eax
	pop	edx
	mov	ecx, DWORD PTR __$EHRec$[ebp]
	mov	DWORD PTR fs:0, ecx
	pop	ecx
	pop	edi
	pop	esi
	mov	ecx, DWORD PTR __$ArrayPad$[ebp]
	xor	ecx, ebp
	call	@__security_check_cookie@4
	add	esp, 156				; 0000009cH
	cmp	ebp, esp
	call	__RTC_CheckEsp
	mov	esp, ebp
	pop	ebp
	ret	0
	npad	2
$LN55@Getifld:
	DD	2
	DD	$LN54@Getifld
$LN54@Getifld:
	DD	-56					; ffffffc8H
	DD	32					; 00000020H
	DD	$LN51@Getifld
	DD	-116					; ffffff8cH
	DD	32					; 00000020H
	DD	$LN52@Getifld
$LN52@Getifld:
	DB	95					; 0000005fH
	DB	71					; 00000047H
	DB	114					; 00000072H
	DB	111					; 0000006fH
	DB	117					; 00000075H
	DB	112					; 00000070H
	DB	115					; 00000073H
	DB	0
$LN51@Getifld:
	DB	95					; 0000005fH
	DB	71					; 00000047H
	DB	114					; 00000072H
	DB	111					; 0000006fH
	DB	117					; 00000075H
	DB	112					; 00000070H
	DB	105					; 00000069H
	DB	110					; 0000006eH
	DB	103					; 00000067H
	DB	0
_TEXT	ENDS
;	COMDAT text$x
text$x	SEGMENT
__unwindfunclet$?_Getifld@?$num_get@DV?$istreambuf_iterator@DU?$char_traits@D@std@@@std@@@std@@ABAHPADAAV?$istreambuf_iterator@DU?$char_traits@D@std@@@2@1HABVlocale@2@@Z$0:
	lea	ecx, DWORD PTR __Grouping$[ebp]
	jmp	??1?$basic_string@DU?$char_traits@D@std@@V?$allocator@D@2@@std@@QAE@XZ ; std::basic_string<char,std::char_traits<char>,std::allocator<char> >::~basic_string<char,std::char_traits<char>,std::allocator<char> >
__unwindfunclet$?_Getifld@?$num_get@DV?$istreambuf_iterator@DU?$char_traits@D@std@@@std@@@std@@ABAHPADAAV?$istreambuf_iterator@DU?$char_traits@D@std@@@2@1HABVlocale@2@@Z$1:
	lea	ecx, DWORD PTR __Groups$[ebp]
	jmp	??1?$basic_string@DU?$char_traits@D@std@@V?$allocator@D@2@@std@@QAE@XZ ; std::basic_string<char,std::char_traits<char>,std::allocator<char> >::~basic_string<char,std::char_traits<char>,std::allocator<char> >
__ehhandler$?_Getifld@?$num_get@DV?$istreambuf_iterator@DU?$char_traits@D@std@@@std@@@std@@ABAHPADAAV?$istreambuf_iterator@DU?$char_traits@D@std@@@2@1HABVlocale@2@@Z:
	mov	edx, DWORD PTR [esp+8]
	lea	eax, DWORD PTR [edx+12]
	mov	ecx, DWORD PTR [edx-156]
	xor	ecx, eax
	call	@__security_check_cookie@4
	mov	ecx, DWORD PTR [edx-4]
	xor	ecx, eax
	call	@__security_check_cookie@4
	mov	eax, OFFSET __ehfuncinfo$?_Getifld@?$num_get@DV?$istreambuf_iterator@DU?$char_traits@D@std@@@std@@@std@@ABAHPADAAV?$istreambuf_iterator@DU?$char_traits@D@std@@@2@1HABVlocale@2@@Z
	jmp	___CxxFrameHandler3
text$x	ENDS
?_Getifld@?$num_get@DV?$istreambuf_iterator@DU?$char_traits@D@std@@@std@@@std@@ABAHPADAAV?$istreambuf_iterator@DU?$char_traits@D@std@@@2@1HABVlocale@2@@Z ENDP ; std::num_get<char,std::istreambuf_iterator<char,std::char_traits<char> > >::_Getifld
PUBLIC	?decimal_point@?$numpunct@D@std@@QBEDXZ		; std::numpunct<char>::decimal_point
PUBLIC	?_Getffldx@?$num_get@DV?$istreambuf_iterator@DU?$char_traits@D@std@@@std@@@std@@ABAHPADAAV?$istreambuf_iterator@DU?$char_traits@D@std@@@2@1AAVios_base@2@PAH@Z ; std::num_get<char,std::istreambuf_iterator<char,std::char_traits<char> > >::_Getffldx
PUBLIC	__$ArrayPad$
EXTRN	_localeconv:PROC
;	COMDAT xdata$x
xdata$x	SEGMENT
__unwindtable$?_Getffld@?$num_get@DV?$istreambuf_iterator@DU?$char_traits@D@std@@@std@@@std@@ABAHPADAAV?$istreambuf_iterator@DU?$char_traits@D@std@@@2@1AAVios_base@2@PAH@Z DD 0ffffffffH
	DD	FLAT:__unwindfunclet$?_Getffld@?$num_get@DV?$istreambuf_iterator@DU?$char_traits@D@std@@@std@@@std@@ABAHPADAAV?$istreambuf_iterator@DU?$char_traits@D@std@@@2@1AAVios_base@2@PAH@Z$0
	DD	0ffffffffH
	DD	FLAT:__unwindfunclet$?_Getffld@?$num_get@DV?$istreambuf_iterator@DU?$char_traits@D@std@@@std@@@std@@ABAHPADAAV?$istreambuf_iterator@DU?$char_traits@D@std@@@2@1AAVios_base@2@PAH@Z$1
	DD	01H
	DD	FLAT:__unwindfunclet$?_Getffld@?$num_get@DV?$istreambuf_iterator@DU?$char_traits@D@std@@@std@@@std@@ABAHPADAAV?$istreambuf_iterator@DU?$char_traits@D@std@@@2@1AAVios_base@2@PAH@Z$2
__ehfuncinfo$?_Getffld@?$num_get@DV?$istreambuf_iterator@DU?$char_traits@D@std@@@std@@@std@@ABAHPADAAV?$istreambuf_iterator@DU?$char_traits@D@std@@@2@1AAVios_base@2@PAH@Z DD 019930522H
	DD	03H
	DD	FLAT:__unwindtable$?_Getffld@?$num_get@DV?$istreambuf_iterator@DU?$char_traits@D@std@@@std@@@std@@ABAHPADAAV?$istreambuf_iterator@DU?$char_traits@D@std@@@2@1AAVios_base@2@PAH@Z
	DD	2 DUP(00H)
	DD	2 DUP(00H)
	DD	00H
	DD	01H
; Function compile flags: /Odtp /RTCsu
xdata$x	ENDS
;	COMDAT ?_Getffld@?$num_get@DV?$istreambuf_iterator@DU?$char_traits@D@std@@@std@@@std@@ABAHPADAAV?$istreambuf_iterator@DU?$char_traits@D@std@@@2@1AAVios_base@2@PAH@Z
_TEXT	SEGMENT
tv247 = -156						; size = 4
tv199 = -149						; size = 1
tv465 = -148						; size = 4
tv469 = -144						; size = 4
$T141994 = -140						; size = 4
$T141991 = -136						; size = 4
__Pg$135438 = -132					; size = 4
__Group$135417 = -128					; size = 4
__Groups$135416 = -120					; size = 32
__Kseparator$135413 = -81				; size = 1
__Pten$ = -80						; size = 4
__Significant$ = -76					; size = 4
__Seendigit$ = -70					; size = 1
__Bad$ = -69						; size = 1
__Ptr$ = -68						; size = 4
__E0$ = -61						; size = 1
__Grouping$ = -56					; size = 32
__Punct_fac$ = -20					; size = 4
__$ArrayPad$ = -16					; size = 4
__$EHRec$ = -12						; size = 12
_this$ = 8						; size = 4
__Ac$ = 12						; size = 4
__First$ = 16						; size = 4
__Last$ = 20						; size = 4
__Iosbase$ = 24						; size = 4
__Phexexp$ = 28						; size = 4
?_Getffld@?$num_get@DV?$istreambuf_iterator@DU?$char_traits@D@std@@@std@@@std@@ABAHPADAAV?$istreambuf_iterator@DU?$char_traits@D@std@@@2@1AAVios_base@2@PAH@Z PROC ; std::num_get<char,std::istreambuf_iterator<char,std::char_traits<char> > >::_Getffld, COMDAT

; 720  : 		{	// get floating-point field from [_First, _Last) into _Ac

	push	ebp
	mov	ebp, esp
	push	-1
	push	__ehhandler$?_Getffld@?$num_get@DV?$istreambuf_iterator@DU?$char_traits@D@std@@@std@@@std@@ABAHPADAAV?$istreambuf_iterator@DU?$char_traits@D@std@@@2@1AAVios_base@2@PAH@Z
	mov	eax, DWORD PTR fs:0
	push	eax
	sub	esp, 144				; 00000090H
	push	esi
	push	edi
	lea	edi, DWORD PTR [ebp-156]
	mov	ecx, 36					; 00000024H
	mov	eax, -858993460				; ccccccccH
	rep stosd
	mov	eax, DWORD PTR ___security_cookie
	xor	eax, ebp
	mov	DWORD PTR __$ArrayPad$[ebp], eax
	push	eax
	lea	eax, DWORD PTR __$EHRec$[ebp]
	mov	DWORD PTR fs:0, eax

; 721  : 		if ((_Iosbase.flags() & ios_base::floatfield) == ios_base::hexfloat)

	mov	ecx, DWORD PTR __Iosbase$[ebp]
	call	?flags@ios_base@std@@QBEHXZ		; std::ios_base::flags
	and	eax, 12288				; 00003000H
	cmp	eax, 12288				; 00003000H
	jne	SHORT $LN69@Getffld

; 722  : 			return (_Getffldx(_Ac, _First, _Last,
; 723  : 				_Iosbase, _Phexexp));	// hex format

	mov	eax, DWORD PTR __Phexexp$[ebp]
	push	eax
	mov	ecx, DWORD PTR __Iosbase$[ebp]
	push	ecx
	mov	edx, DWORD PTR __Last$[ebp]
	push	edx
	mov	eax, DWORD PTR __First$[ebp]
	push	eax
	mov	ecx, DWORD PTR __Ac$[ebp]
	push	ecx
	mov	edx, DWORD PTR _this$[ebp]
	push	edx
	call	?_Getffldx@?$num_get@DV?$istreambuf_iterator@DU?$char_traits@D@std@@@std@@@std@@ABAHPADAAV?$istreambuf_iterator@DU?$char_traits@D@std@@@2@1AAVios_base@2@PAH@Z ; std::num_get<char,std::istreambuf_iterator<char,std::char_traits<char> > >::_Getffldx
	add	esp, 24					; 00000018H
	jmp	$LN70@Getffld
$LN69@Getffld:

; 724  : 
; 725  : 		const _Mypunct& _Punct_fac = _USE(_Iosbase.getloc(), _Mypunct);

	lea	eax, DWORD PTR $T141991[ebp]
	push	eax
	mov	ecx, DWORD PTR __Iosbase$[ebp]
	call	?getloc@ios_base@std@@QBE?AVlocale@2@XZ	; std::ios_base::getloc
	mov	DWORD PTR tv469[ebp], eax
	mov	ecx, DWORD PTR tv469[ebp]
	mov	DWORD PTR tv465[ebp], ecx
	mov	DWORD PTR __$EHRec$[ebp+8], 0
	mov	edx, DWORD PTR tv465[ebp]
	push	edx
	call	??$use_facet@V?$numpunct@D@std@@@std@@YAABV?$numpunct@D@0@ABVlocale@0@@Z ; std::use_facet<std::numpunct<char> >
	add	esp, 4
	mov	DWORD PTR __Punct_fac$[ebp], eax
	mov	DWORD PTR __$EHRec$[ebp+8], -1
	lea	ecx, DWORD PTR $T141991[ebp]
	call	??1locale@std@@QAE@XZ			; std::locale::~locale

; 726  : 		const string _Grouping = _Punct_fac.grouping();

	lea	eax, DWORD PTR __Grouping$[ebp]
	push	eax
	mov	ecx, DWORD PTR __Punct_fac$[ebp]
	call	?grouping@?$numpunct@D@std@@QBE?AV?$basic_string@DU?$char_traits@D@std@@V?$allocator@D@2@@2@XZ ; std::numpunct<char>::grouping
	mov	DWORD PTR __$EHRec$[ebp+8], 1

; 727  : 		const _Elem _E0 = _MAKLOCCHR(_Elem, '0', _Cvt);

	mov	ecx, DWORD PTR _this$[ebp]
	add	ecx, 8
	push	ecx
	push	0
	push	48					; 00000030H
	call	??$_Maklocchr@D@std@@YADDPADABU_Cvtvec@@@Z ; std::_Maklocchr<char>
	add	esp, 12					; 0000000cH
	mov	BYTE PTR __E0$[ebp], al

; 728  : 		char *_Ptr = _Ac;

	mov	edx, DWORD PTR __Ac$[ebp]
	mov	DWORD PTR __Ptr$[ebp], edx

; 729  : 		bool _Bad = false;

	mov	BYTE PTR __Bad$[ebp], 0

; 730  : 
; 731  : 		if (_First == _Last)

	mov	eax, DWORD PTR __Last$[ebp]
	push	eax
	mov	ecx, DWORD PTR __First$[ebp]
	push	ecx
	call	??$?8DU?$char_traits@D@std@@@std@@YA_NABV?$istreambuf_iterator@DU?$char_traits@D@std@@@0@0@Z ; std::operator==<char,std::char_traits<char> >
	add	esp, 8
	movzx	edx, al
	test	edx, edx
	je	SHORT $LN68@Getffld
	jmp	SHORT $LN67@Getffld
$LN68@Getffld:

; 732  : 			;	// empty field
; 733  : 		else if (*_First == _MAKLOCCHR(_Elem, '+', _Cvt))

	mov	ecx, DWORD PTR __First$[ebp]
	call	??D?$istreambuf_iterator@DU?$char_traits@D@std@@@std@@QBEDXZ ; std::istreambuf_iterator<char,std::char_traits<char> >::operator*
	movsx	esi, al
	mov	eax, DWORD PTR _this$[ebp]
	add	eax, 8
	push	eax
	push	0
	push	43					; 0000002bH
	call	??$_Maklocchr@D@std@@YADDPADABU_Cvtvec@@@Z ; std::_Maklocchr<char>
	add	esp, 12					; 0000000cH
	movsx	ecx, al
	cmp	esi, ecx
	jne	SHORT $LN66@Getffld

; 734  : 			*_Ptr++ = '+', ++_First;	// gather plus sign

	mov	edx, DWORD PTR __Ptr$[ebp]
	mov	BYTE PTR [edx], 43			; 0000002bH
	mov	eax, DWORD PTR __Ptr$[ebp]
	add	eax, 1
	mov	DWORD PTR __Ptr$[ebp], eax
	mov	ecx, DWORD PTR __First$[ebp]
	call	??E?$istreambuf_iterator@DU?$char_traits@D@std@@@std@@QAEAAV01@XZ ; std::istreambuf_iterator<char,std::char_traits<char> >::operator++
	jmp	SHORT $LN67@Getffld
$LN66@Getffld:

; 735  : 		else if (*_First == _MAKLOCCHR(_Elem, '-', _Cvt))

	mov	ecx, DWORD PTR __First$[ebp]
	call	??D?$istreambuf_iterator@DU?$char_traits@D@std@@@std@@QBEDXZ ; std::istreambuf_iterator<char,std::char_traits<char> >::operator*
	movsx	esi, al
	mov	ecx, DWORD PTR _this$[ebp]
	add	ecx, 8
	push	ecx
	push	0
	push	45					; 0000002dH
	call	??$_Maklocchr@D@std@@YADDPADABU_Cvtvec@@@Z ; std::_Maklocchr<char>
	add	esp, 12					; 0000000cH
	movsx	edx, al
	cmp	esi, edx
	jne	SHORT $LN67@Getffld

; 736  : 			*_Ptr++ = '-', ++_First;	// gather minus sign

	mov	eax, DWORD PTR __Ptr$[ebp]
	mov	BYTE PTR [eax], 45			; 0000002dH
	mov	ecx, DWORD PTR __Ptr$[ebp]
	add	ecx, 1
	mov	DWORD PTR __Ptr$[ebp], ecx
	mov	ecx, DWORD PTR __First$[ebp]
	call	??E?$istreambuf_iterator@DU?$char_traits@D@std@@@std@@QAEAAV01@XZ ; std::istreambuf_iterator<char,std::char_traits<char> >::operator++
$LN67@Getffld:

; 737  : 
; 738  : 		bool _Seendigit = false;	// seen a digit in input

	mov	BYTE PTR __Seendigit$[ebp], 0

; 739  : 		int _Significant = 0;	// number of significant digits

	mov	DWORD PTR __Significant$[ebp], 0

; 740  : 		int _Pten = 0;	// power of 10 multiplier

	mov	DWORD PTR __Pten$[ebp], 0

; 741  : 
; 742  : 		if (*_Grouping.c_str() == CHAR_MAX || *_Grouping.c_str() <= '\0')

	lea	ecx, DWORD PTR __Grouping$[ebp]
	call	?c_str@?$basic_string@DU?$char_traits@D@std@@V?$allocator@D@2@@std@@QBEPBDXZ ; std::basic_string<char,std::char_traits<char>,std::allocator<char> >::c_str
	movsx	edx, BYTE PTR [eax]
	cmp	edx, 127				; 0000007fH
	je	SHORT $LN62@Getffld
	lea	ecx, DWORD PTR __Grouping$[ebp]
	call	?c_str@?$basic_string@DU?$char_traits@D@std@@V?$allocator@D@2@@std@@QBEPBDXZ ; std::basic_string<char,std::char_traits<char>,std::allocator<char> >::c_str
	movsx	eax, BYTE PTR [eax]
	test	eax, eax
	jg	$LN63@Getffld
$LN62@Getffld:

; 743  : 			for (; _First != _Last
; 744  : 				&& _E0 <= *_First && *_First <= _E0 + 9;
; 745  : 					_Seendigit = true, ++_First)

	jmp	SHORT $LN61@Getffld
$LN60@Getffld:
	mov	BYTE PTR __Seendigit$[ebp], 1
	mov	ecx, DWORD PTR __First$[ebp]
	call	??E?$istreambuf_iterator@DU?$char_traits@D@std@@@std@@QAEAAV01@XZ ; std::istreambuf_iterator<char,std::char_traits<char> >::operator++
$LN61@Getffld:
	mov	ecx, DWORD PTR __Last$[ebp]
	push	ecx
	mov	edx, DWORD PTR __First$[ebp]
	push	edx
	call	??$?9DU?$char_traits@D@std@@@std@@YA_NABV?$istreambuf_iterator@DU?$char_traits@D@std@@@0@0@Z ; std::operator!=<char,std::char_traits<char> >
	add	esp, 8
	movzx	eax, al
	test	eax, eax
	je	$LN59@Getffld
	movsx	esi, BYTE PTR __E0$[ebp]
	mov	ecx, DWORD PTR __First$[ebp]
	call	??D?$istreambuf_iterator@DU?$char_traits@D@std@@@std@@QBEDXZ ; std::istreambuf_iterator<char,std::char_traits<char> >::operator*
	movsx	ecx, al
	cmp	esi, ecx
	jg	SHORT $LN59@Getffld
	mov	ecx, DWORD PTR __First$[ebp]
	call	??D?$istreambuf_iterator@DU?$char_traits@D@std@@@std@@QBEDXZ ; std::istreambuf_iterator<char,std::char_traits<char> >::operator*
	movsx	edx, al
	movsx	eax, BYTE PTR __E0$[ebp]
	add	eax, 9
	cmp	edx, eax
	jg	SHORT $LN59@Getffld

; 746  : 				if (_MAX_SIG_DIG <= _Significant)

	cmp	DWORD PTR __Significant$[ebp], 36	; 00000024H
	jl	SHORT $LN58@Getffld

; 747  : 					++_Pten;	// just scale by 10

	mov	ecx, DWORD PTR __Pten$[ebp]
	add	ecx, 1
	mov	DWORD PTR __Pten$[ebp], ecx
	jmp	SHORT $LN57@Getffld
$LN58@Getffld:

; 748  : 				else if (*_First == _E0 && _Significant == 0)

	mov	ecx, DWORD PTR __First$[ebp]
	call	??D?$istreambuf_iterator@DU?$char_traits@D@std@@@std@@QBEDXZ ; std::istreambuf_iterator<char,std::char_traits<char> >::operator*
	movsx	edx, al
	movsx	eax, BYTE PTR __E0$[ebp]
	cmp	edx, eax
	jne	SHORT $LN56@Getffld
	cmp	DWORD PTR __Significant$[ebp], 0
	jne	SHORT $LN56@Getffld

; 749  : 					;	// drop leading zeros
; 750  : 				else

	jmp	SHORT $LN57@Getffld
$LN56@Getffld:

; 751  : 					{	// save a significant digit
; 752  : 					*_Ptr++ = (char)((*_First - _E0) + '0');

	mov	ecx, DWORD PTR __First$[ebp]
	call	??D?$istreambuf_iterator@DU?$char_traits@D@std@@@std@@QBEDXZ ; std::istreambuf_iterator<char,std::char_traits<char> >::operator*
	movsx	ecx, al
	movsx	edx, BYTE PTR __E0$[ebp]
	sub	ecx, edx
	add	ecx, 48					; 00000030H
	mov	eax, DWORD PTR __Ptr$[ebp]
	mov	BYTE PTR [eax], cl
	mov	ecx, DWORD PTR __Ptr$[ebp]
	add	ecx, 1
	mov	DWORD PTR __Ptr$[ebp], ecx

; 753  : 					++_Significant;

	mov	edx, DWORD PTR __Significant$[ebp]
	add	edx, 1
	mov	DWORD PTR __Significant$[ebp], edx
$LN57@Getffld:

; 754  : 					}

	jmp	$LN60@Getffld
$LN59@Getffld:

; 755  : 		else

	jmp	$LN54@Getffld
$LN63@Getffld:

; 756  : 			{	// grouping specified, gather digits and group sizes
; 757  : 			const _Elem _Kseparator = _Grouping.size() == 0
; 758  : 				? (_Elem)0 : _Punct_fac.thousands_sep();

	lea	ecx, DWORD PTR __Grouping$[ebp]
	call	?size@?$basic_string@DU?$char_traits@D@std@@V?$allocator@D@2@@std@@QBEIXZ ; std::basic_string<char,std::char_traits<char>,std::allocator<char> >::size
	test	eax, eax
	jne	SHORT $LN72@Getffld
	mov	BYTE PTR tv199[ebp], 0
	jmp	SHORT $LN73@Getffld
$LN72@Getffld:
	mov	ecx, DWORD PTR __Punct_fac$[ebp]
	call	?thousands_sep@?$numpunct@D@std@@QBEDXZ	; std::numpunct<char>::thousands_sep
	mov	BYTE PTR tv199[ebp], al
$LN73@Getffld:
	mov	al, BYTE PTR tv199[ebp]
	mov	BYTE PTR __Kseparator$135413[ebp], al

; 759  : 			string _Groups((size_t)1, '\0');

	push	0
	push	1
	lea	ecx, DWORD PTR __Groups$135416[ebp]
	call	??0?$basic_string@DU?$char_traits@D@std@@V?$allocator@D@2@@std@@QAE@ID@Z ; std::basic_string<char,std::char_traits<char>,std::allocator<char> >::basic_string<char,std::char_traits<char>,std::allocator<char> >
	mov	BYTE PTR __$EHRec$[ebp+8], 2

; 760  : 			size_t _Group = 0;

	mov	DWORD PTR __Group$135417[ebp], 0

; 761  : 
; 762  : 			for (; _First != _Last; ++_First)

	jmp	SHORT $LN53@Getffld
$LN52@Getffld:
	mov	ecx, DWORD PTR __First$[ebp]
	call	??E?$istreambuf_iterator@DU?$char_traits@D@std@@@std@@QAEAAV01@XZ ; std::istreambuf_iterator<char,std::char_traits<char> >::operator++
$LN53@Getffld:
	mov	ecx, DWORD PTR __Last$[ebp]
	push	ecx
	mov	edx, DWORD PTR __First$[ebp]
	push	edx
	call	??$?9DU?$char_traits@D@std@@@std@@YA_NABV?$istreambuf_iterator@DU?$char_traits@D@std@@@0@0@Z ; std::operator!=<char,std::char_traits<char> >
	add	esp, 8
	movzx	eax, al
	test	eax, eax
	je	$LN51@Getffld

; 763  : 				if (_E0 <= *_First && *_First <= _E0 + 9)

	movsx	esi, BYTE PTR __E0$[ebp]
	mov	ecx, DWORD PTR __First$[ebp]
	call	??D?$istreambuf_iterator@DU?$char_traits@D@std@@@std@@QBEDXZ ; std::istreambuf_iterator<char,std::char_traits<char> >::operator*
	movsx	ecx, al
	cmp	esi, ecx
	jg	$LN50@Getffld
	mov	ecx, DWORD PTR __First$[ebp]
	call	??D?$istreambuf_iterator@DU?$char_traits@D@std@@@std@@QBEDXZ ; std::istreambuf_iterator<char,std::char_traits<char> >::operator*
	movsx	edx, al
	movsx	eax, BYTE PTR __E0$[ebp]
	add	eax, 9
	cmp	edx, eax
	jg	$LN50@Getffld

; 764  : 					{	// got a digit, add to group size
; 765  : 					_Seendigit = true;

	mov	BYTE PTR __Seendigit$[ebp], 1

; 766  : 					if (_MAX_SIG_DIG <= _Significant)

	cmp	DWORD PTR __Significant$[ebp], 36	; 00000024H
	jl	SHORT $LN49@Getffld

; 767  : 						++_Pten;	// just scale by 10

	mov	ecx, DWORD PTR __Pten$[ebp]
	add	ecx, 1
	mov	DWORD PTR __Pten$[ebp], ecx
	jmp	SHORT $LN48@Getffld
$LN49@Getffld:

; 768  : 					else if (*_First == _E0 && _Significant == 0)

	mov	ecx, DWORD PTR __First$[ebp]
	call	??D?$istreambuf_iterator@DU?$char_traits@D@std@@@std@@QBEDXZ ; std::istreambuf_iterator<char,std::char_traits<char> >::operator*
	movsx	edx, al
	movsx	eax, BYTE PTR __E0$[ebp]
	cmp	edx, eax
	jne	SHORT $LN47@Getffld
	cmp	DWORD PTR __Significant$[ebp], 0
	jne	SHORT $LN47@Getffld

; 769  : 						;	// drop leading zeros
; 770  : 					else

	jmp	SHORT $LN48@Getffld
$LN47@Getffld:

; 771  : 						{	// save a significant digit
; 772  : 						*_Ptr++ = (char)((*_First - _E0) + '0');

	mov	ecx, DWORD PTR __First$[ebp]
	call	??D?$istreambuf_iterator@DU?$char_traits@D@std@@@std@@QBEDXZ ; std::istreambuf_iterator<char,std::char_traits<char> >::operator*
	movsx	ecx, al
	movsx	edx, BYTE PTR __E0$[ebp]
	sub	ecx, edx
	add	ecx, 48					; 00000030H
	mov	eax, DWORD PTR __Ptr$[ebp]
	mov	BYTE PTR [eax], cl
	mov	ecx, DWORD PTR __Ptr$[ebp]
	add	ecx, 1
	mov	DWORD PTR __Ptr$[ebp], ecx

; 773  : 						++_Significant;

	mov	edx, DWORD PTR __Significant$[ebp]
	add	edx, 1
	mov	DWORD PTR __Significant$[ebp], edx
$LN48@Getffld:

; 774  : 						}
; 775  : 					if (_Groups[_Group] != CHAR_MAX)

	mov	eax, DWORD PTR __Group$135417[ebp]
	push	eax
	lea	ecx, DWORD PTR __Groups$135416[ebp]
	call	??A?$basic_string@DU?$char_traits@D@std@@V?$allocator@D@2@@std@@QAEAADI@Z ; std::basic_string<char,std::char_traits<char>,std::allocator<char> >::operator[]
	movsx	ecx, BYTE PTR [eax]
	cmp	ecx, 127				; 0000007fH
	je	SHORT $LN45@Getffld

; 776  : 						++_Groups[_Group];

	mov	edx, DWORD PTR __Group$135417[ebp]
	push	edx
	lea	ecx, DWORD PTR __Groups$135416[ebp]
	call	??A?$basic_string@DU?$char_traits@D@std@@V?$allocator@D@2@@std@@QAEAADI@Z ; std::basic_string<char,std::char_traits<char>,std::allocator<char> >::operator[]
	mov	DWORD PTR tv247[ebp], eax
	mov	eax, DWORD PTR tv247[ebp]
	mov	cl, BYTE PTR [eax]
	add	cl, 1
	mov	edx, DWORD PTR tv247[ebp]
	mov	BYTE PTR [edx], cl
$LN45@Getffld:

; 777  : 					}
; 778  : 				else if (_Groups[_Group] == '\0'

	jmp	SHORT $LN44@Getffld
$LN50@Getffld:

; 779  : 					|| _Kseparator == (_Elem)0
; 780  : 					|| *_First != _Kseparator)

	mov	eax, DWORD PTR __Group$135417[ebp]
	push	eax
	lea	ecx, DWORD PTR __Groups$135416[ebp]
	call	??A?$basic_string@DU?$char_traits@D@std@@V?$allocator@D@2@@std@@QAEAADI@Z ; std::basic_string<char,std::char_traits<char>,std::allocator<char> >::operator[]
	movsx	ecx, BYTE PTR [eax]
	test	ecx, ecx
	je	SHORT $LN42@Getffld
	movsx	edx, BYTE PTR __Kseparator$135413[ebp]
	test	edx, edx
	je	SHORT $LN42@Getffld
	mov	ecx, DWORD PTR __First$[ebp]
	call	??D?$istreambuf_iterator@DU?$char_traits@D@std@@@std@@QBEDXZ ; std::istreambuf_iterator<char,std::char_traits<char> >::operator*
	movsx	eax, al
	movsx	ecx, BYTE PTR __Kseparator$135413[ebp]
	cmp	eax, ecx
	je	SHORT $LN43@Getffld
$LN42@Getffld:

; 781  : 					break;	// not a group separator, done

	jmp	SHORT $LN51@Getffld

; 782  : 				else

	jmp	SHORT $LN44@Getffld
$LN43@Getffld:

; 783  : 					{	// add a new group to _Groups string
; 784  : 					_Groups.append((size_t)1, '\0');

	push	0
	push	1
	lea	ecx, DWORD PTR __Groups$135416[ebp]
	call	?append@?$basic_string@DU?$char_traits@D@std@@V?$allocator@D@2@@std@@QAEAAV12@ID@Z ; std::basic_string<char,std::char_traits<char>,std::allocator<char> >::append

; 785  : 					++_Group;

	mov	edx, DWORD PTR __Group$135417[ebp]
	add	edx, 1
	mov	DWORD PTR __Group$135417[ebp], edx
$LN44@Getffld:

; 786  : 					}

	jmp	$LN52@Getffld
$LN51@Getffld:

; 787  : 			if (_Group == 0)

	cmp	DWORD PTR __Group$135417[ebp], 0
	jne	SHORT $LN40@Getffld
	jmp	SHORT $LN39@Getffld
$LN40@Getffld:

; 788  : 				;	// no thousands separators seen
; 789  : 			else if ('\0' < _Groups[_Group])

	mov	eax, DWORD PTR __Group$135417[ebp]
	push	eax
	lea	ecx, DWORD PTR __Groups$135416[ebp]
	call	??A?$basic_string@DU?$char_traits@D@std@@V?$allocator@D@2@@std@@QAEAADI@Z ; std::basic_string<char,std::char_traits<char>,std::allocator<char> >::operator[]
	movsx	ecx, BYTE PTR [eax]
	test	ecx, ecx
	jle	SHORT $LN38@Getffld

; 790  : 				++_Group;	// add trailing group to group count

	mov	edx, DWORD PTR __Group$135417[ebp]
	add	edx, 1
	mov	DWORD PTR __Group$135417[ebp], edx

; 791  : 			else

	jmp	SHORT $LN39@Getffld
$LN38@Getffld:

; 792  : 				_Bad = true;	// trailing separator, fail

	mov	BYTE PTR __Bad$[ebp], 1
$LN39@Getffld:

; 793  : 
; 794  : 			for (const char *_Pg = _Grouping.c_str();

	lea	ecx, DWORD PTR __Grouping$[ebp]
	call	?c_str@?$basic_string@DU?$char_traits@D@std@@V?$allocator@D@2@@std@@QBEPBDXZ ; std::basic_string<char,std::char_traits<char>,std::allocator<char> >::c_str
	mov	DWORD PTR __Pg$135438[ebp], eax
$LN36@Getffld:

; 795  : 				!_Bad && 0 < _Group; )

	movzx	eax, BYTE PTR __Bad$[ebp]
	test	eax, eax
	jne	$LN35@Getffld
	cmp	DWORD PTR __Group$135417[ebp], 0
	jbe	$LN35@Getffld

; 796  : 				if (*_Pg == CHAR_MAX)

	mov	ecx, DWORD PTR __Pg$135438[ebp]
	movsx	edx, BYTE PTR [ecx]
	cmp	edx, 127				; 0000007fH
	jne	SHORT $LN34@Getffld

; 797  : 					break;	// end of grouping constraints to check

	jmp	SHORT $LN35@Getffld

; 798  : 				else if (0 < --_Group && *_Pg != _Groups[_Group]

	jmp	SHORT $LN33@Getffld
$LN34@Getffld:

; 799  : 					|| 0 == _Group && *_Pg < _Groups[_Group])

	mov	eax, DWORD PTR __Group$135417[ebp]
	sub	eax, 1
	mov	DWORD PTR __Group$135417[ebp], eax
	je	SHORT $LN30@Getffld
	mov	ecx, DWORD PTR __Pg$135438[ebp]
	movsx	esi, BYTE PTR [ecx]
	mov	edx, DWORD PTR __Group$135417[ebp]
	push	edx
	lea	ecx, DWORD PTR __Groups$135416[ebp]
	call	??A?$basic_string@DU?$char_traits@D@std@@V?$allocator@D@2@@std@@QAEAADI@Z ; std::basic_string<char,std::char_traits<char>,std::allocator<char> >::operator[]
	movsx	eax, BYTE PTR [eax]
	cmp	esi, eax
	jne	SHORT $LN31@Getffld
$LN30@Getffld:
	cmp	DWORD PTR __Group$135417[ebp], 0
	jne	SHORT $LN32@Getffld
	mov	ecx, DWORD PTR __Pg$135438[ebp]
	movsx	esi, BYTE PTR [ecx]
	mov	edx, DWORD PTR __Group$135417[ebp]
	push	edx
	lea	ecx, DWORD PTR __Groups$135416[ebp]
	call	??A?$basic_string@DU?$char_traits@D@std@@V?$allocator@D@2@@std@@QAEAADI@Z ; std::basic_string<char,std::char_traits<char>,std::allocator<char> >::operator[]
	movsx	eax, BYTE PTR [eax]
	cmp	esi, eax
	jge	SHORT $LN32@Getffld
$LN31@Getffld:

; 800  : 					_Bad = true;	// bad group size, fail

	mov	BYTE PTR __Bad$[ebp], 1
	jmp	SHORT $LN33@Getffld
$LN32@Getffld:

; 801  : 				else if ('\0' < _Pg[1])

	mov	ecx, DWORD PTR __Pg$135438[ebp]
	movsx	edx, BYTE PTR [ecx+1]
	test	edx, edx
	jle	SHORT $LN33@Getffld

; 802  : 					++_Pg;	// group size okay, advance to next test

	mov	eax, DWORD PTR __Pg$135438[ebp]
	add	eax, 1
	mov	DWORD PTR __Pg$135438[ebp], eax
$LN33@Getffld:

; 803  : 			}

	jmp	$LN36@Getffld
$LN35@Getffld:
	mov	BYTE PTR __$EHRec$[ebp+8], 1
	lea	ecx, DWORD PTR __Groups$135416[ebp]
	call	??1?$basic_string@DU?$char_traits@D@std@@V?$allocator@D@2@@std@@QAE@XZ ; std::basic_string<char,std::char_traits<char>,std::allocator<char> >::~basic_string<char,std::char_traits<char>,std::allocator<char> >
$LN54@Getffld:

; 804  : 
; 805  : 		if (_Seendigit && _Significant == 0)

	movzx	ecx, BYTE PTR __Seendigit$[ebp]
	test	ecx, ecx
	je	SHORT $LN27@Getffld
	cmp	DWORD PTR __Significant$[ebp], 0
	jne	SHORT $LN27@Getffld

; 806  : 			*_Ptr++ = '0';	// save at least one leading digit

	mov	edx, DWORD PTR __Ptr$[ebp]
	mov	BYTE PTR [edx], 48			; 00000030H
	mov	eax, DWORD PTR __Ptr$[ebp]
	add	eax, 1
	mov	DWORD PTR __Ptr$[ebp], eax
$LN27@Getffld:

; 807  : 
; 808  : 		if (_First != _Last && *_First == _Punct_fac.decimal_point())

	mov	ecx, DWORD PTR __Last$[ebp]
	push	ecx
	mov	edx, DWORD PTR __First$[ebp]
	push	edx
	call	??$?9DU?$char_traits@D@std@@@std@@YA_NABV?$istreambuf_iterator@DU?$char_traits@D@std@@@0@0@Z ; std::operator!=<char,std::char_traits<char> >
	add	esp, 8
	movzx	eax, al
	test	eax, eax
	je	SHORT $LN26@Getffld
	mov	ecx, DWORD PTR __First$[ebp]
	call	??D?$istreambuf_iterator@DU?$char_traits@D@std@@@std@@QBEDXZ ; std::istreambuf_iterator<char,std::char_traits<char> >::operator*
	movsx	esi, al
	mov	ecx, DWORD PTR __Punct_fac$[ebp]
	call	?decimal_point@?$numpunct@D@std@@QBEDXZ	; std::numpunct<char>::decimal_point
	movsx	ecx, al
	cmp	esi, ecx
	jne	SHORT $LN26@Getffld

; 809  : 			*_Ptr++ = localeconv()->decimal_point[0], ++_First;	// add .

	call	_localeconv
	mov	edx, DWORD PTR [eax]
	mov	eax, DWORD PTR __Ptr$[ebp]
	mov	cl, BYTE PTR [edx]
	mov	BYTE PTR [eax], cl
	mov	edx, DWORD PTR __Ptr$[ebp]
	add	edx, 1
	mov	DWORD PTR __Ptr$[ebp], edx
	mov	ecx, DWORD PTR __First$[ebp]
	call	??E?$istreambuf_iterator@DU?$char_traits@D@std@@@std@@QAEAAV01@XZ ; std::istreambuf_iterator<char,std::char_traits<char> >::operator++
$LN26@Getffld:

; 810  : 
; 811  : 		if (_Significant == 0)

	cmp	DWORD PTR __Significant$[ebp], 0
	jne	SHORT $LN25@Getffld

; 812  : 			{	// 0000. so far
; 813  : 			for (; _First != _Last && *_First == _E0;
; 814  : 				_Seendigit = true, ++_First)

	jmp	SHORT $LN24@Getffld
$LN23@Getffld:
	mov	BYTE PTR __Seendigit$[ebp], 1
	mov	ecx, DWORD PTR __First$[ebp]
	call	??E?$istreambuf_iterator@DU?$char_traits@D@std@@@std@@QAEAAV01@XZ ; std::istreambuf_iterator<char,std::char_traits<char> >::operator++
$LN24@Getffld:
	mov	eax, DWORD PTR __Last$[ebp]
	push	eax
	mov	ecx, DWORD PTR __First$[ebp]
	push	ecx
	call	??$?9DU?$char_traits@D@std@@@std@@YA_NABV?$istreambuf_iterator@DU?$char_traits@D@std@@@0@0@Z ; std::operator!=<char,std::char_traits<char> >
	add	esp, 8
	movzx	edx, al
	test	edx, edx
	je	SHORT $LN22@Getffld
	mov	ecx, DWORD PTR __First$[ebp]
	call	??D?$istreambuf_iterator@DU?$char_traits@D@std@@@std@@QBEDXZ ; std::istreambuf_iterator<char,std::char_traits<char> >::operator*
	movsx	eax, al
	movsx	ecx, BYTE PTR __E0$[ebp]
	cmp	eax, ecx
	jne	SHORT $LN22@Getffld

; 815  : 				--_Pten;	// just count leading fraction zeros

	mov	edx, DWORD PTR __Pten$[ebp]
	sub	edx, 1
	mov	DWORD PTR __Pten$[ebp], edx
	jmp	SHORT $LN23@Getffld
$LN22@Getffld:

; 816  : 			if (_Pten < 0)

	cmp	DWORD PTR __Pten$[ebp], 0
	jge	SHORT $LN25@Getffld

; 817  : 				*_Ptr++ = '0', ++_Pten;	// put one back

	mov	eax, DWORD PTR __Ptr$[ebp]
	mov	BYTE PTR [eax], 48			; 00000030H
	mov	ecx, DWORD PTR __Ptr$[ebp]
	add	ecx, 1
	mov	DWORD PTR __Ptr$[ebp], ecx
	mov	edx, DWORD PTR __Pten$[ebp]
	add	edx, 1
	mov	DWORD PTR __Pten$[ebp], edx
$LN25@Getffld:

; 818  : 			}
; 819  : 
; 820  : 		for (; _First != _Last
; 821  : 				&& _E0 <= *_First && *_First <= _E0 + 9;
; 822  : 				_Seendigit = true, ++_First)

	jmp	SHORT $LN20@Getffld
$LN19@Getffld:
	mov	BYTE PTR __Seendigit$[ebp], 1
	mov	ecx, DWORD PTR __First$[ebp]
	call	??E?$istreambuf_iterator@DU?$char_traits@D@std@@@std@@QAEAAV01@XZ ; std::istreambuf_iterator<char,std::char_traits<char> >::operator++
$LN20@Getffld:
	mov	eax, DWORD PTR __Last$[ebp]
	push	eax
	mov	ecx, DWORD PTR __First$[ebp]
	push	ecx
	call	??$?9DU?$char_traits@D@std@@@std@@YA_NABV?$istreambuf_iterator@DU?$char_traits@D@std@@@0@0@Z ; std::operator!=<char,std::char_traits<char> >
	add	esp, 8
	movzx	edx, al
	test	edx, edx
	je	SHORT $LN18@Getffld
	movsx	esi, BYTE PTR __E0$[ebp]
	mov	ecx, DWORD PTR __First$[ebp]
	call	??D?$istreambuf_iterator@DU?$char_traits@D@std@@@std@@QBEDXZ ; std::istreambuf_iterator<char,std::char_traits<char> >::operator*
	movsx	eax, al
	cmp	esi, eax
	jg	SHORT $LN18@Getffld
	mov	ecx, DWORD PTR __First$[ebp]
	call	??D?$istreambuf_iterator@DU?$char_traits@D@std@@@std@@QBEDXZ ; std::istreambuf_iterator<char,std::char_traits<char> >::operator*
	movsx	ecx, al
	movsx	edx, BYTE PTR __E0$[ebp]
	add	edx, 9
	cmp	ecx, edx
	jg	SHORT $LN18@Getffld

; 823  : 			if (_Significant < _MAX_SIG_DIG)

	cmp	DWORD PTR __Significant$[ebp], 36	; 00000024H
	jge	SHORT $LN17@Getffld

; 824  : 				{	// save a significant fraction digit
; 825  : 				*_Ptr++ = (char)((*_First - _E0) + '0');

	mov	ecx, DWORD PTR __First$[ebp]
	call	??D?$istreambuf_iterator@DU?$char_traits@D@std@@@std@@QBEDXZ ; std::istreambuf_iterator<char,std::char_traits<char> >::operator*
	movsx	eax, al
	movsx	ecx, BYTE PTR __E0$[ebp]
	sub	eax, ecx
	add	eax, 48					; 00000030H
	mov	edx, DWORD PTR __Ptr$[ebp]
	mov	BYTE PTR [edx], al
	mov	eax, DWORD PTR __Ptr$[ebp]
	add	eax, 1
	mov	DWORD PTR __Ptr$[ebp], eax

; 826  : 				++_Significant;

	mov	ecx, DWORD PTR __Significant$[ebp]
	add	ecx, 1
	mov	DWORD PTR __Significant$[ebp], ecx
$LN17@Getffld:

; 827  : 				}
; 828  : 
; 829  : 		if (_Seendigit && _First != _Last

	jmp	SHORT $LN19@Getffld
$LN18@Getffld:

; 830  : 			&& (*_First == _MAKLOCCHR(_Elem, 'e', _Cvt)
; 831  : 				|| *_First == _MAKLOCCHR(_Elem, 'E', _Cvt)))

	movzx	edx, BYTE PTR __Seendigit$[ebp]
	test	edx, edx
	je	$LN16@Getffld
	mov	eax, DWORD PTR __Last$[ebp]
	push	eax
	mov	ecx, DWORD PTR __First$[ebp]
	push	ecx
	call	??$?9DU?$char_traits@D@std@@@std@@YA_NABV?$istreambuf_iterator@DU?$char_traits@D@std@@@0@0@Z ; std::operator!=<char,std::char_traits<char> >
	add	esp, 8
	movzx	edx, al
	test	edx, edx
	je	$LN16@Getffld
	mov	ecx, DWORD PTR __First$[ebp]
	call	??D?$istreambuf_iterator@DU?$char_traits@D@std@@@std@@QBEDXZ ; std::istreambuf_iterator<char,std::char_traits<char> >::operator*
	movsx	esi, al
	mov	eax, DWORD PTR _this$[ebp]
	add	eax, 8
	push	eax
	push	0
	push	101					; 00000065H
	call	??$_Maklocchr@D@std@@YADDPADABU_Cvtvec@@@Z ; std::_Maklocchr<char>
	add	esp, 12					; 0000000cH
	movsx	ecx, al
	cmp	esi, ecx
	je	SHORT $LN15@Getffld
	mov	ecx, DWORD PTR __First$[ebp]
	call	??D?$istreambuf_iterator@DU?$char_traits@D@std@@@std@@QBEDXZ ; std::istreambuf_iterator<char,std::char_traits<char> >::operator*
	movsx	esi, al
	mov	edx, DWORD PTR _this$[ebp]
	add	edx, 8
	push	edx
	push	0
	push	69					; 00000045H
	call	??$_Maklocchr@D@std@@YADDPADABU_Cvtvec@@@Z ; std::_Maklocchr<char>
	add	esp, 12					; 0000000cH
	movsx	eax, al
	cmp	esi, eax
	jne	$LN16@Getffld
$LN15@Getffld:

; 832  : 			{	// 'e' or 'E', collect exponent
; 833  : 			*_Ptr++ = 'e', ++_First;

	mov	ecx, DWORD PTR __Ptr$[ebp]
	mov	BYTE PTR [ecx], 101			; 00000065H
	mov	edx, DWORD PTR __Ptr$[ebp]
	add	edx, 1
	mov	DWORD PTR __Ptr$[ebp], edx
	mov	ecx, DWORD PTR __First$[ebp]
	call	??E?$istreambuf_iterator@DU?$char_traits@D@std@@@std@@QAEAAV01@XZ ; std::istreambuf_iterator<char,std::char_traits<char> >::operator++

; 834  : 			_Seendigit = false, _Significant = 0;

	mov	BYTE PTR __Seendigit$[ebp], 0
	mov	DWORD PTR __Significant$[ebp], 0

; 835  : 
; 836  : 			if (_First == _Last)

	mov	eax, DWORD PTR __Last$[ebp]
	push	eax
	mov	ecx, DWORD PTR __First$[ebp]
	push	ecx
	call	??$?8DU?$char_traits@D@std@@@std@@YA_NABV?$istreambuf_iterator@DU?$char_traits@D@std@@@0@0@Z ; std::operator==<char,std::char_traits<char> >
	add	esp, 8
	movzx	edx, al
	test	edx, edx
	je	SHORT $LN14@Getffld
	jmp	SHORT $LN9@Getffld
$LN14@Getffld:

; 837  : 				;	// 'e' or 'E' is last element
; 838  : 			else if (*_First == _MAKLOCCHR(_Elem, '+', _Cvt))

	mov	ecx, DWORD PTR __First$[ebp]
	call	??D?$istreambuf_iterator@DU?$char_traits@D@std@@@std@@QBEDXZ ; std::istreambuf_iterator<char,std::char_traits<char> >::operator*
	movsx	esi, al
	mov	eax, DWORD PTR _this$[ebp]
	add	eax, 8
	push	eax
	push	0
	push	43					; 0000002bH
	call	??$_Maklocchr@D@std@@YADDPADABU_Cvtvec@@@Z ; std::_Maklocchr<char>
	add	esp, 12					; 0000000cH
	movsx	ecx, al
	cmp	esi, ecx
	jne	SHORT $LN12@Getffld

; 839  : 				*_Ptr++ = '+', ++_First;	// gather plus sign

	mov	edx, DWORD PTR __Ptr$[ebp]
	mov	BYTE PTR [edx], 43			; 0000002bH
	mov	eax, DWORD PTR __Ptr$[ebp]
	add	eax, 1
	mov	DWORD PTR __Ptr$[ebp], eax
	mov	ecx, DWORD PTR __First$[ebp]
	call	??E?$istreambuf_iterator@DU?$char_traits@D@std@@@std@@QAEAAV01@XZ ; std::istreambuf_iterator<char,std::char_traits<char> >::operator++
	jmp	SHORT $LN9@Getffld
$LN12@Getffld:

; 840  : 			else if (*_First == _MAKLOCCHR(_Elem, '-', _Cvt))

	mov	ecx, DWORD PTR __First$[ebp]
	call	??D?$istreambuf_iterator@DU?$char_traits@D@std@@@std@@QBEDXZ ; std::istreambuf_iterator<char,std::char_traits<char> >::operator*
	movsx	esi, al
	mov	ecx, DWORD PTR _this$[ebp]
	add	ecx, 8
	push	ecx
	push	0
	push	45					; 0000002dH
	call	??$_Maklocchr@D@std@@YADDPADABU_Cvtvec@@@Z ; std::_Maklocchr<char>
	add	esp, 12					; 0000000cH
	movsx	edx, al
	cmp	esi, edx
	jne	SHORT $LN9@Getffld

; 841  : 				*_Ptr++ = '-', ++_First;	// gather minus sign

	mov	eax, DWORD PTR __Ptr$[ebp]
	mov	BYTE PTR [eax], 45			; 0000002dH
	mov	ecx, DWORD PTR __Ptr$[ebp]
	add	ecx, 1
	mov	DWORD PTR __Ptr$[ebp], ecx
	mov	ecx, DWORD PTR __First$[ebp]
	call	??E?$istreambuf_iterator@DU?$char_traits@D@std@@@std@@QAEAAV01@XZ ; std::istreambuf_iterator<char,std::char_traits<char> >::operator++
$LN9@Getffld:

; 842  : 			for (; _First != _Last && *_First == _E0; )

	mov	edx, DWORD PTR __Last$[ebp]
	push	edx
	mov	eax, DWORD PTR __First$[ebp]
	push	eax
	call	??$?9DU?$char_traits@D@std@@@std@@YA_NABV?$istreambuf_iterator@DU?$char_traits@D@std@@@0@0@Z ; std::operator!=<char,std::char_traits<char> >
	add	esp, 8
	movzx	ecx, al
	test	ecx, ecx
	je	SHORT $LN8@Getffld
	mov	ecx, DWORD PTR __First$[ebp]
	call	??D?$istreambuf_iterator@DU?$char_traits@D@std@@@std@@QBEDXZ ; std::istreambuf_iterator<char,std::char_traits<char> >::operator*
	movsx	edx, al
	movsx	eax, BYTE PTR __E0$[ebp]
	cmp	edx, eax
	jne	SHORT $LN8@Getffld

; 843  : 				_Seendigit = true, ++_First;	// strip leading zeros

	mov	BYTE PTR __Seendigit$[ebp], 1
	mov	ecx, DWORD PTR __First$[ebp]
	call	??E?$istreambuf_iterator@DU?$char_traits@D@std@@@std@@QAEAAV01@XZ ; std::istreambuf_iterator<char,std::char_traits<char> >::operator++
	jmp	SHORT $LN9@Getffld
$LN8@Getffld:

; 844  : 			if (_Seendigit)

	movzx	ecx, BYTE PTR __Seendigit$[ebp]
	test	ecx, ecx
	je	SHORT $LN7@Getffld

; 845  : 				*_Ptr++ = '0';	// put one back

	mov	edx, DWORD PTR __Ptr$[ebp]
	mov	BYTE PTR [edx], 48			; 00000030H
	mov	eax, DWORD PTR __Ptr$[ebp]
	add	eax, 1
	mov	DWORD PTR __Ptr$[ebp], eax
$LN7@Getffld:

; 846  : 			for (; _First != _Last
; 847  : 				&& _E0 <= *_First && *_First <= _E0 + 9;
; 848  : 				_Seendigit = true, ++_First)

	jmp	SHORT $LN6@Getffld
$LN5@Getffld:
	mov	BYTE PTR __Seendigit$[ebp], 1
	mov	ecx, DWORD PTR __First$[ebp]
	call	??E?$istreambuf_iterator@DU?$char_traits@D@std@@@std@@QAEAAV01@XZ ; std::istreambuf_iterator<char,std::char_traits<char> >::operator++
$LN6@Getffld:
	mov	ecx, DWORD PTR __Last$[ebp]
	push	ecx
	mov	edx, DWORD PTR __First$[ebp]
	push	edx
	call	??$?9DU?$char_traits@D@std@@@std@@YA_NABV?$istreambuf_iterator@DU?$char_traits@D@std@@@0@0@Z ; std::operator!=<char,std::char_traits<char> >
	add	esp, 8
	movzx	eax, al
	test	eax, eax
	je	SHORT $LN16@Getffld
	movsx	esi, BYTE PTR __E0$[ebp]
	mov	ecx, DWORD PTR __First$[ebp]
	call	??D?$istreambuf_iterator@DU?$char_traits@D@std@@@std@@QBEDXZ ; std::istreambuf_iterator<char,std::char_traits<char> >::operator*
	movsx	ecx, al
	cmp	esi, ecx
	jg	SHORT $LN16@Getffld
	mov	ecx, DWORD PTR __First$[ebp]
	call	??D?$istreambuf_iterator@DU?$char_traits@D@std@@@std@@QBEDXZ ; std::istreambuf_iterator<char,std::char_traits<char> >::operator*
	movsx	edx, al
	movsx	eax, BYTE PTR __E0$[ebp]
	add	eax, 9
	cmp	edx, eax
	jg	SHORT $LN16@Getffld

; 849  : 				if (_Significant < _MAX_EXP_DIG)

	cmp	DWORD PTR __Significant$[ebp], 8
	jge	SHORT $LN3@Getffld

; 850  : 					{	// save a significant exponent digit
; 851  : 					*_Ptr++ = (char)((*_First - _E0) + '0');

	mov	ecx, DWORD PTR __First$[ebp]
	call	??D?$istreambuf_iterator@DU?$char_traits@D@std@@@std@@QBEDXZ ; std::istreambuf_iterator<char,std::char_traits<char> >::operator*
	movsx	ecx, al
	movsx	edx, BYTE PTR __E0$[ebp]
	sub	ecx, edx
	add	ecx, 48					; 00000030H
	mov	eax, DWORD PTR __Ptr$[ebp]
	mov	BYTE PTR [eax], cl
	mov	ecx, DWORD PTR __Ptr$[ebp]
	add	ecx, 1
	mov	DWORD PTR __Ptr$[ebp], ecx

; 852  : 					++_Significant;

	mov	edx, DWORD PTR __Significant$[ebp]
	add	edx, 1
	mov	DWORD PTR __Significant$[ebp], edx
$LN3@Getffld:

; 853  : 					}
; 854  : 			}

	jmp	SHORT $LN5@Getffld
$LN16@Getffld:

; 855  : 
; 856  : 		if (_Bad || !_Seendigit)

	movzx	eax, BYTE PTR __Bad$[ebp]
	test	eax, eax
	jne	SHORT $LN1@Getffld
	movzx	ecx, BYTE PTR __Seendigit$[ebp]
	test	ecx, ecx
	jne	SHORT $LN2@Getffld
$LN1@Getffld:

; 857  : 			_Ptr = _Ac;	// roll back pointer to indicate failure

	mov	edx, DWORD PTR __Ac$[ebp]
	mov	DWORD PTR __Ptr$[ebp], edx
$LN2@Getffld:

; 858  : 		*_Ptr = '\0';

	mov	eax, DWORD PTR __Ptr$[ebp]
	mov	BYTE PTR [eax], 0

; 859  : 		return (_Pten);

	mov	ecx, DWORD PTR __Pten$[ebp]
	mov	DWORD PTR $T141994[ebp], ecx
	mov	DWORD PTR __$EHRec$[ebp+8], -1
	lea	ecx, DWORD PTR __Grouping$[ebp]
	call	??1?$basic_string@DU?$char_traits@D@std@@V?$allocator@D@2@@std@@QAE@XZ ; std::basic_string<char,std::char_traits<char>,std::allocator<char> >::~basic_string<char,std::char_traits<char>,std::allocator<char> >
	mov	eax, DWORD PTR $T141994[ebp]
$LN70@Getffld:

; 860  : 		}

	push	edx
	mov	ecx, ebp
	push	eax
	lea	edx, DWORD PTR $LN81@Getffld
	call	@_RTC_CheckStackVars@8
	pop	eax
	pop	edx
	mov	ecx, DWORD PTR __$EHRec$[ebp]
	mov	DWORD PTR fs:0, ecx
	pop	ecx
	pop	edi
	pop	esi
	mov	ecx, DWORD PTR __$ArrayPad$[ebp]
	xor	ecx, ebp
	call	@__security_check_cookie@4
	add	esp, 156				; 0000009cH
	cmp	ebp, esp
	call	__RTC_CheckEsp
	mov	esp, ebp
	pop	ebp
	ret	0
$LN81@Getffld:
	DD	2
	DD	$LN80@Getffld
$LN80@Getffld:
	DD	-56					; ffffffc8H
	DD	32					; 00000020H
	DD	$LN77@Getffld
	DD	-120					; ffffff88H
	DD	32					; 00000020H
	DD	$LN78@Getffld
$LN78@Getffld:
	DB	95					; 0000005fH
	DB	71					; 00000047H
	DB	114					; 00000072H
	DB	111					; 0000006fH
	DB	117					; 00000075H
	DB	112					; 00000070H
	DB	115					; 00000073H
	DB	0
$LN77@Getffld:
	DB	95					; 0000005fH
	DB	71					; 00000047H
	DB	114					; 00000072H
	DB	111					; 0000006fH
	DB	117					; 00000075H
	DB	112					; 00000070H
	DB	105					; 00000069H
	DB	110					; 0000006eH
	DB	103					; 00000067H
	DB	0
_TEXT	ENDS
;	COMDAT text$x
text$x	SEGMENT
__unwindfunclet$?_Getffld@?$num_get@DV?$istreambuf_iterator@DU?$char_traits@D@std@@@std@@@std@@ABAHPADAAV?$istreambuf_iterator@DU?$char_traits@D@std@@@2@1AAVios_base@2@PAH@Z$0:
	lea	ecx, DWORD PTR $T141991[ebp]
	jmp	??1locale@std@@QAE@XZ			; std::locale::~locale
__unwindfunclet$?_Getffld@?$num_get@DV?$istreambuf_iterator@DU?$char_traits@D@std@@@std@@@std@@ABAHPADAAV?$istreambuf_iterator@DU?$char_traits@D@std@@@2@1AAVios_base@2@PAH@Z$1:
	lea	ecx, DWORD PTR __Grouping$[ebp]
	jmp	??1?$basic_string@DU?$char_traits@D@std@@V?$allocator@D@2@@std@@QAE@XZ ; std::basic_string<char,std::char_traits<char>,std::allocator<char> >::~basic_string<char,std::char_traits<char>,std::allocator<char> >
__unwindfunclet$?_Getffld@?$num_get@DV?$istreambuf_iterator@DU?$char_traits@D@std@@@std@@@std@@ABAHPADAAV?$istreambuf_iterator@DU?$char_traits@D@std@@@2@1AAVios_base@2@PAH@Z$2:
	lea	ecx, DWORD PTR __Groups$135416[ebp]
	jmp	??1?$basic_string@DU?$char_traits@D@std@@V?$allocator@D@2@@std@@QAE@XZ ; std::basic_string<char,std::char_traits<char>,std::allocator<char> >::~basic_string<char,std::char_traits<char>,std::allocator<char> >
__ehhandler$?_Getffld@?$num_get@DV?$istreambuf_iterator@DU?$char_traits@D@std@@@std@@@std@@ABAHPADAAV?$istreambuf_iterator@DU?$char_traits@D@std@@@2@1AAVios_base@2@PAH@Z:
	mov	edx, DWORD PTR [esp+8]
	lea	eax, DWORD PTR [edx+12]
	mov	ecx, DWORD PTR [edx-156]
	xor	ecx, eax
	call	@__security_check_cookie@4
	mov	ecx, DWORD PTR [edx-4]
	xor	ecx, eax
	call	@__security_check_cookie@4
	mov	eax, OFFSET __ehfuncinfo$?_Getffld@?$num_get@DV?$istreambuf_iterator@DU?$char_traits@D@std@@@std@@@std@@ABAHPADAAV?$istreambuf_iterator@DU?$char_traits@D@std@@@2@1AAVios_base@2@PAH@Z
	jmp	___CxxFrameHandler3
text$x	ENDS
?_Getffld@?$num_get@DV?$istreambuf_iterator@DU?$char_traits@D@std@@@std@@@std@@ABAHPADAAV?$istreambuf_iterator@DU?$char_traits@D@std@@@2@1AAVios_base@2@PAH@Z ENDP ; std::num_get<char,std::istreambuf_iterator<char,std::char_traits<char> > >::_Getffld
; Function compile flags: /Odtp /RTCsu
;	COMDAT ?falsename@?$numpunct@D@std@@QBE?AV?$basic_string@DU?$char_traits@D@std@@V?$allocator@D@2@@2@XZ
_TEXT	SEGMENT
$T142011 = -8						; size = 4
_this$ = -4						; size = 4
___$ReturnUdt$ = 8					; size = 4
?falsename@?$numpunct@D@std@@QBE?AV?$basic_string@DU?$char_traits@D@std@@V?$allocator@D@2@@2@XZ PROC ; std::numpunct<char>::falsename, COMDAT
; _this$ = ecx

; 83   : 		{	// return name for false

	push	ebp
	mov	ebp, esp
	sub	esp, 8
	push	esi
	mov	DWORD PTR [ebp-8], -858993460		; ccccccccH
	mov	DWORD PTR [ebp-4], -858993460		; ccccccccH
	mov	DWORD PTR _this$[ebp], ecx
	mov	DWORD PTR $T142011[ebp], 0

; 84   : 		return (do_falsename());

	mov	esi, esp
	mov	eax, DWORD PTR ___$ReturnUdt$[ebp]
	push	eax
	mov	ecx, DWORD PTR _this$[ebp]
	mov	edx, DWORD PTR [ecx]
	mov	ecx, DWORD PTR _this$[ebp]
	mov	eax, DWORD PTR [edx+16]
	call	eax
	cmp	esi, esp
	call	__RTC_CheckEsp
	mov	ecx, DWORD PTR $T142011[ebp]
	or	ecx, 1
	mov	DWORD PTR $T142011[ebp], ecx
	mov	eax, DWORD PTR ___$ReturnUdt$[ebp]

; 85   : 		}

	pop	esi
	add	esp, 8
	cmp	ebp, esp
	call	__RTC_CheckEsp
	mov	esp, ebp
	pop	ebp
	ret	4
?falsename@?$numpunct@D@std@@QBE?AV?$basic_string@DU?$char_traits@D@std@@V?$allocator@D@2@@2@XZ ENDP ; std::numpunct<char>::falsename
; Function compile flags: /Odtp /RTCsu
_TEXT	ENDS
;	COMDAT ?truename@?$numpunct@D@std@@QBE?AV?$basic_string@DU?$char_traits@D@std@@V?$allocator@D@2@@2@XZ
_TEXT	SEGMENT
$T142016 = -8						; size = 4
_this$ = -4						; size = 4
___$ReturnUdt$ = 8					; size = 4
?truename@?$numpunct@D@std@@QBE?AV?$basic_string@DU?$char_traits@D@std@@V?$allocator@D@2@@2@XZ PROC ; std::numpunct<char>::truename, COMDAT
; _this$ = ecx

; 88   : 		{	// return name for true

	push	ebp
	mov	ebp, esp
	sub	esp, 8
	push	esi
	mov	DWORD PTR [ebp-8], -858993460		; ccccccccH
	mov	DWORD PTR [ebp-4], -858993460		; ccccccccH
	mov	DWORD PTR _this$[ebp], ecx
	mov	DWORD PTR $T142016[ebp], 0

; 89   : 		return (do_truename());

	mov	esi, esp
	mov	eax, DWORD PTR ___$ReturnUdt$[ebp]
	push	eax
	mov	ecx, DWORD PTR _this$[ebp]
	mov	edx, DWORD PTR [ecx]
	mov	ecx, DWORD PTR _this$[ebp]
	mov	eax, DWORD PTR [edx+20]
	call	eax
	cmp	esi, esp
	call	__RTC_CheckEsp
	mov	ecx, DWORD PTR $T142016[ebp]
	or	ecx, 1
	mov	DWORD PTR $T142016[ebp], ecx
	mov	eax, DWORD PTR ___$ReturnUdt$[ebp]

; 90   : 		}

	pop	esi
	add	esp, 8
	cmp	ebp, esp
	call	__RTC_CheckEsp
	mov	esp, ebp
	pop	ebp
	ret	4
?truename@?$numpunct@D@std@@QBE?AV?$basic_string@DU?$char_traits@D@std@@V?$allocator@D@2@@2@XZ ENDP ; std::numpunct<char>::truename
_TEXT	ENDS
PUBLIC	??_C@_1DM@GMPLOCPK@?$AAs?$AAt?$AAr?$AAi?$AAn?$AAg?$AA?5?$AAs?$AAu?$AAb?$AAs?$AAc?$AAr?$AAi?$AAp?$AAt?$AA?5?$AAo?$AAu?$AAt?$AA?5?$AAo?$AAf?$AA?5?$AAr?$AAa?$AAn?$AAg?$AAe?$AA?$AA@ ; `string'
;	COMDAT ??_C@_1DM@GMPLOCPK@?$AAs?$AAt?$AAr?$AAi?$AAn?$AAg?$AA?5?$AAs?$AAu?$AAb?$AAs?$AAc?$AAr?$AAi?$AAp?$AAt?$AA?5?$AAo?$AAu?$AAt?$AA?5?$AAo?$AAf?$AA?5?$AAr?$AAa?$AAn?$AAg?$AAe?$AA?$AA@
; File c:\program files (x86)\microsoft visual studio 10.0\vc\include\xstring
CONST	SEGMENT
??_C@_1DM@GMPLOCPK@?$AAs?$AAt?$AAr?$AAi?$AAn?$AAg?$AA?5?$AAs?$AAu?$AAb?$AAs?$AAc?$AAr?$AAi?$AAp?$AAt?$AA?5?$AAo?$AAu?$AAt?$AA?5?$AAo?$AAf?$AA?5?$AAr?$AAa?$AAn?$AAg?$AAe?$AA?$AA@ DB 's'
	DB	00H, 't', 00H, 'r', 00H, 'i', 00H, 'n', 00H, 'g', 00H, ' ', 00H
	DB	's', 00H, 'u', 00H, 'b', 00H, 's', 00H, 'c', 00H, 'r', 00H, 'i'
	DB	00H, 'p', 00H, 't', 00H, ' ', 00H, 'o', 00H, 'u', 00H, 't', 00H
	DB	' ', 00H, 'o', 00H, 'f', 00H, ' ', 00H, 'r', 00H, 'a', 00H, 'n'
	DB	00H, 'g', 00H, 'e', 00H, 00H, 00H		; `string'
; Function compile flags: /Odtp /RTCsu
CONST	ENDS
;	COMDAT ??A?$basic_string@DU?$char_traits@D@std@@V?$allocator@D@2@@std@@QAEAADI@Z
_TEXT	SEGMENT
_this$ = -4						; size = 4
__Off$ = 8						; size = 4
??A?$basic_string@DU?$char_traits@D@std@@V?$allocator@D@2@@std@@QAEAADI@Z PROC ; std::basic_string<char,std::char_traits<char>,std::allocator<char> >::operator[], COMDAT
; _this$ = ecx

; 1435 : 		{	// subscript mutable sequence

	push	ebp
	mov	ebp, esp
	push	ecx
	mov	DWORD PTR [ebp-4], -858993460		; ccccccccH
	mov	DWORD PTR _this$[ebp], ecx

; 1436 :  #if _ITERATOR_DEBUG_LEVEL == 2
; 1437 : 
; 1438 : 		if (this->_Mysize <= _Off)

	mov	eax, DWORD PTR _this$[ebp]
	mov	ecx, DWORD PTR [eax+20]
	cmp	ecx, DWORD PTR __Off$[ebp]
	ja	SHORT $LN1@operator@5

; 1439 : 
; 1440 : 			_DEBUG_ERROR("string subscript out of range");

	push	1440					; 000005a0H
	push	OFFSET ??_C@_1IO@FJMIILFL@?$AAc?$AA?3?$AA?2?$AAP?$AAr?$AAo?$AAg?$AAr?$AAa?$AAm?$AA?5?$AAF?$AAi?$AAl?$AAe?$AAs?$AA?5?$AA?$CI?$AAx?$AA8?$AA6?$AA?$CJ?$AA?2?$AAM?$AAi?$AAc?$AAr?$AAo?$AAs?$AAo?$AAf?$AAt@
	push	OFFSET ??_C@_1DM@GMPLOCPK@?$AAs?$AAt?$AAr?$AAi?$AAn?$AAg?$AA?5?$AAs?$AAu?$AAb?$AAs?$AAc?$AAr?$AAi?$AAp?$AAt?$AA?5?$AAo?$AAu?$AAt?$AA?5?$AAo?$AAf?$AA?5?$AAr?$AAa?$AAn?$AAg?$AAe?$AA?$AA@
	call	?_Debug_message@std@@YAXPB_W0I@Z	; std::_Debug_message
	add	esp, 12					; 0000000cH
$LN1@operator@5:

; 1441 : 
; 1442 :  #elif _ITERATOR_DEBUG_LEVEL == 1
; 1443 : 		_SCL_SECURE_VALIDATE_RANGE(_Off < this->_Mysize);
; 1444 :  #endif /* _ITERATOR_DEBUG_LEVEL == 2 */
; 1445 : 
; 1446 : 		return (_Myptr()[_Off]);

	mov	ecx, DWORD PTR _this$[ebp]
	call	?_Myptr@?$basic_string@DU?$char_traits@D@std@@V?$allocator@D@2@@std@@QAEPADXZ ; std::basic_string<char,std::char_traits<char>,std::allocator<char> >::_Myptr
	add	eax, DWORD PTR __Off$[ebp]

; 1447 : 		}

	add	esp, 4
	cmp	ebp, esp
	call	__RTC_CheckEsp
	mov	esp, ebp
	pop	ebp
	ret	4
??A?$basic_string@DU?$char_traits@D@std@@V?$allocator@D@2@@std@@QAEAADI@Z ENDP ; std::basic_string<char,std::char_traits<char>,std::allocator<char> >::operator[]
_TEXT	ENDS
PUBLIC	??_C@_0BB@JCEFLFJE@0123456789abcdef?$AA@	; `string'
PUBLIC	?_Hexdig@?$num_get@DV?$istreambuf_iterator@DU?$char_traits@D@std@@@std@@@std@@ABAHDDDD@Z ; std::num_get<char,std::istreambuf_iterator<char,std::char_traits<char> > >::_Hexdig
PUBLIC	__$ArrayPad$
;	COMDAT ??_C@_0BB@JCEFLFJE@0123456789abcdef?$AA@
; File c:\program files (x86)\microsoft visual studio 10.0\vc\include\xlocnum
CONST	SEGMENT
??_C@_0BB@JCEFLFJE@0123456789abcdef?$AA@ DB '0123456789abcdef', 00H ; `string'
CONST	ENDS
;	COMDAT xdata$x
xdata$x	SEGMENT
__unwindtable$?_Getffldx@?$num_get@DV?$istreambuf_iterator@DU?$char_traits@D@std@@@std@@@std@@ABAHPADAAV?$istreambuf_iterator@DU?$char_traits@D@std@@@2@1AAVios_base@2@PAH@Z DD 0ffffffffH
	DD	FLAT:__unwindfunclet$?_Getffldx@?$num_get@DV?$istreambuf_iterator@DU?$char_traits@D@std@@@std@@@std@@ABAHPADAAV?$istreambuf_iterator@DU?$char_traits@D@std@@@2@1AAVios_base@2@PAH@Z$0
	DD	0ffffffffH
	DD	FLAT:__unwindfunclet$?_Getffldx@?$num_get@DV?$istreambuf_iterator@DU?$char_traits@D@std@@@std@@@std@@ABAHPADAAV?$istreambuf_iterator@DU?$char_traits@D@std@@@2@1AAVios_base@2@PAH@Z$1
	DD	01H
	DD	FLAT:__unwindfunclet$?_Getffldx@?$num_get@DV?$istreambuf_iterator@DU?$char_traits@D@std@@@std@@@std@@ABAHPADAAV?$istreambuf_iterator@DU?$char_traits@D@std@@@2@1AAVios_base@2@PAH@Z$2
__ehfuncinfo$?_Getffldx@?$num_get@DV?$istreambuf_iterator@DU?$char_traits@D@std@@@std@@@std@@ABAHPADAAV?$istreambuf_iterator@DU?$char_traits@D@std@@@2@1AAVios_base@2@PAH@Z DD 019930522H
	DD	03H
	DD	FLAT:__unwindtable$?_Getffldx@?$num_get@DV?$istreambuf_iterator@DU?$char_traits@D@std@@@std@@@std@@ABAHPADAAV?$istreambuf_iterator@DU?$char_traits@D@std@@@2@1AAVios_base@2@PAH@Z
	DD	2 DUP(00H)
	DD	2 DUP(00H)
	DD	00H
	DD	01H
; Function compile flags: /Odtp /RTCsu
xdata$x	ENDS
;	COMDAT ?_Getffldx@?$num_get@DV?$istreambuf_iterator@DU?$char_traits@D@std@@@std@@@std@@ABAHPADAAV?$istreambuf_iterator@DU?$char_traits@D@std@@@2@1AAVios_base@2@PAH@Z
_TEXT	SEGMENT
tv270 = -164						; size = 4
tv230 = -157						; size = 1
tv480 = -156						; size = 4
tv484 = -152						; size = 4
$T142026 = -148						; size = 4
$T142023 = -144						; size = 4
__Pg$135731 = -140					; size = 4
__Group$135711 = -136					; size = 4
__Groups$135710 = -128					; size = 32
__Kseparator$135707 = -89				; size = 1
__Phex$ = -88						; size = 4
__Significant$ = -84					; size = 4
__Seendigit$ = -77					; size = 1
__Dig$ = -76						; size = 4
__Bad$ = -69						; size = 1
__Ptr$ = -68						; size = 4
__Au$ = -63						; size = 1
__Al$ = -62						; size = 1
__E0$ = -61						; size = 1
__Grouping$ = -56					; size = 32
__Punct_fac$ = -20					; size = 4
__$ArrayPad$ = -16					; size = 4
__$EHRec$ = -12						; size = 12
_this$ = 8						; size = 4
__Ac$ = 12						; size = 4
__First$ = 16						; size = 4
__Last$ = 20						; size = 4
__Iosbase$ = 24						; size = 4
__Phexexp$ = 28						; size = 4
?_Getffldx@?$num_get@DV?$istreambuf_iterator@DU?$char_traits@D@std@@@std@@@std@@ABAHPADAAV?$istreambuf_iterator@DU?$char_traits@D@std@@@2@1AAVios_base@2@PAH@Z PROC ; std::num_get<char,std::istreambuf_iterator<char,std::char_traits<char> > >::_Getffldx, COMDAT

; 878  : 		{	// get hex floating-point field from [_First, _Last) into _Ac

	push	ebp
	mov	ebp, esp
	push	-1
	push	__ehhandler$?_Getffldx@?$num_get@DV?$istreambuf_iterator@DU?$char_traits@D@std@@@std@@@std@@ABAHPADAAV?$istreambuf_iterator@DU?$char_traits@D@std@@@2@1AAVios_base@2@PAH@Z
	mov	eax, DWORD PTR fs:0
	push	eax
	sub	esp, 152				; 00000098H
	push	esi
	push	edi
	lea	edi, DWORD PTR [ebp-164]
	mov	ecx, 38					; 00000026H
	mov	eax, -858993460				; ccccccccH
	rep stosd
	mov	eax, DWORD PTR ___security_cookie
	xor	eax, ebp
	mov	DWORD PTR __$ArrayPad$[ebp], eax
	push	eax
	lea	eax, DWORD PTR __$EHRec$[ebp]
	mov	DWORD PTR fs:0, eax

; 879  : 		const _Mypunct& _Punct_fac = _USE(_Iosbase.getloc(), _Mypunct);

	lea	eax, DWORD PTR $T142023[ebp]
	push	eax
	mov	ecx, DWORD PTR __Iosbase$[ebp]
	call	?getloc@ios_base@std@@QBE?AVlocale@2@XZ	; std::ios_base::getloc
	mov	DWORD PTR tv484[ebp], eax
	mov	ecx, DWORD PTR tv484[ebp]
	mov	DWORD PTR tv480[ebp], ecx
	mov	DWORD PTR __$EHRec$[ebp+8], 0
	mov	edx, DWORD PTR tv480[ebp]
	push	edx
	call	??$use_facet@V?$numpunct@D@std@@@std@@YAABV?$numpunct@D@0@ABVlocale@0@@Z ; std::use_facet<std::numpunct<char> >
	add	esp, 4
	mov	DWORD PTR __Punct_fac$[ebp], eax
	mov	DWORD PTR __$EHRec$[ebp+8], -1
	lea	ecx, DWORD PTR $T142023[ebp]
	call	??1locale@std@@QAE@XZ			; std::locale::~locale

; 880  : 		const string _Grouping = _Punct_fac.grouping();

	lea	eax, DWORD PTR __Grouping$[ebp]
	push	eax
	mov	ecx, DWORD PTR __Punct_fac$[ebp]
	call	?grouping@?$numpunct@D@std@@QBE?AV?$basic_string@DU?$char_traits@D@std@@V?$allocator@D@2@@2@XZ ; std::numpunct<char>::grouping
	mov	DWORD PTR __$EHRec$[ebp+8], 1

; 881  : 		const _Elem _E0 = _MAKLOCCHR(_Elem, '0', _Cvt);

	mov	ecx, DWORD PTR _this$[ebp]
	add	ecx, 8
	push	ecx
	push	0
	push	48					; 00000030H
	call	??$_Maklocchr@D@std@@YADDPADABU_Cvtvec@@@Z ; std::_Maklocchr<char>
	add	esp, 12					; 0000000cH
	mov	BYTE PTR __E0$[ebp], al

; 882  : 		const _Elem _Al = _MAKLOCCHR(_Elem, 'a', _Cvt);

	mov	edx, DWORD PTR _this$[ebp]
	add	edx, 8
	push	edx
	push	0
	push	97					; 00000061H
	call	??$_Maklocchr@D@std@@YADDPADABU_Cvtvec@@@Z ; std::_Maklocchr<char>
	add	esp, 12					; 0000000cH
	mov	BYTE PTR __Al$[ebp], al

; 883  : 		const _Elem _Au = _MAKLOCCHR(_Elem, 'A', _Cvt);

	mov	eax, DWORD PTR _this$[ebp]
	add	eax, 8
	push	eax
	push	0
	push	65					; 00000041H
	call	??$_Maklocchr@D@std@@YADDPADABU_Cvtvec@@@Z ; std::_Maklocchr<char>
	add	esp, 12					; 0000000cH
	mov	BYTE PTR __Au$[ebp], al

; 884  : 		char *_Ptr = _Ac;

	mov	ecx, DWORD PTR __Ac$[ebp]
	mov	DWORD PTR __Ptr$[ebp], ecx

; 885  : 		bool _Bad = false;

	mov	BYTE PTR __Bad$[ebp], 0

; 886  : 		int _Dig;
; 887  : 
; 888  : 		if (_First == _Last)

	mov	edx, DWORD PTR __Last$[ebp]
	push	edx
	mov	eax, DWORD PTR __First$[ebp]
	push	eax
	call	??$?8DU?$char_traits@D@std@@@std@@YA_NABV?$istreambuf_iterator@DU?$char_traits@D@std@@@0@0@Z ; std::operator==<char,std::char_traits<char> >
	add	esp, 8
	movzx	ecx, al
	test	ecx, ecx
	je	SHORT $LN74@Getffldx
	jmp	SHORT $LN73@Getffldx
$LN74@Getffldx:

; 889  : 			;	// empty field
; 890  : 		else if (*_First == _MAKLOCCHR(_Elem, '+', _Cvt))

	mov	ecx, DWORD PTR __First$[ebp]
	call	??D?$istreambuf_iterator@DU?$char_traits@D@std@@@std@@QBEDXZ ; std::istreambuf_iterator<char,std::char_traits<char> >::operator*
	movsx	esi, al
	mov	edx, DWORD PTR _this$[ebp]
	add	edx, 8
	push	edx
	push	0
	push	43					; 0000002bH
	call	??$_Maklocchr@D@std@@YADDPADABU_Cvtvec@@@Z ; std::_Maklocchr<char>
	add	esp, 12					; 0000000cH
	movsx	eax, al
	cmp	esi, eax
	jne	SHORT $LN72@Getffldx

; 891  : 			*_Ptr++ = '+', ++_First;	// gather plus sign

	mov	ecx, DWORD PTR __Ptr$[ebp]
	mov	BYTE PTR [ecx], 43			; 0000002bH
	mov	edx, DWORD PTR __Ptr$[ebp]
	add	edx, 1
	mov	DWORD PTR __Ptr$[ebp], edx
	mov	ecx, DWORD PTR __First$[ebp]
	call	??E?$istreambuf_iterator@DU?$char_traits@D@std@@@std@@QAEAAV01@XZ ; std::istreambuf_iterator<char,std::char_traits<char> >::operator++
	jmp	SHORT $LN73@Getffldx
$LN72@Getffldx:

; 892  : 		else if (*_First == _MAKLOCCHR(_Elem, '-', _Cvt))

	mov	ecx, DWORD PTR __First$[ebp]
	call	??D?$istreambuf_iterator@DU?$char_traits@D@std@@@std@@QBEDXZ ; std::istreambuf_iterator<char,std::char_traits<char> >::operator*
	movsx	esi, al
	mov	eax, DWORD PTR _this$[ebp]
	add	eax, 8
	push	eax
	push	0
	push	45					; 0000002dH
	call	??$_Maklocchr@D@std@@YADDPADABU_Cvtvec@@@Z ; std::_Maklocchr<char>
	add	esp, 12					; 0000000cH
	movsx	ecx, al
	cmp	esi, ecx
	jne	SHORT $LN73@Getffldx

; 893  : 			*_Ptr++ = '-', ++_First;	// gather minus sign

	mov	edx, DWORD PTR __Ptr$[ebp]
	mov	BYTE PTR [edx], 45			; 0000002dH
	mov	eax, DWORD PTR __Ptr$[ebp]
	add	eax, 1
	mov	DWORD PTR __Ptr$[ebp], eax
	mov	ecx, DWORD PTR __First$[ebp]
	call	??E?$istreambuf_iterator@DU?$char_traits@D@std@@@std@@QAEAAV01@XZ ; std::istreambuf_iterator<char,std::char_traits<char> >::operator++
$LN73@Getffldx:

; 894  : 
; 895  : 		*_Ptr++ = '0';

	mov	ecx, DWORD PTR __Ptr$[ebp]
	mov	BYTE PTR [ecx], 48			; 00000030H
	mov	edx, DWORD PTR __Ptr$[ebp]
	add	edx, 1
	mov	DWORD PTR __Ptr$[ebp], edx

; 896  : 		*_Ptr++ = 'x';

	mov	eax, DWORD PTR __Ptr$[ebp]
	mov	BYTE PTR [eax], 120			; 00000078H
	mov	ecx, DWORD PTR __Ptr$[ebp]
	add	ecx, 1
	mov	DWORD PTR __Ptr$[ebp], ecx

; 897  : 
; 898  : 		bool _Seendigit = false;	// seen a digit in input

	mov	BYTE PTR __Seendigit$[ebp], 0

; 899  : 		int _Significant = 0;	// number of significant digits

	mov	DWORD PTR __Significant$[ebp], 0

; 900  : 		int _Phex = 0;	// power of 10 multiplier

	mov	DWORD PTR __Phex$[ebp], 0

; 901  : 
; 902  : 		if (_First == _Last || *_First != _E0)

	mov	edx, DWORD PTR __Last$[ebp]
	push	edx
	mov	eax, DWORD PTR __First$[ebp]
	push	eax
	call	??$?8DU?$char_traits@D@std@@@std@@YA_NABV?$istreambuf_iterator@DU?$char_traits@D@std@@@0@0@Z ; std::operator==<char,std::char_traits<char> >
	add	esp, 8
	movzx	ecx, al
	test	ecx, ecx
	jne	SHORT $LN68@Getffldx
	mov	ecx, DWORD PTR __First$[ebp]
	call	??D?$istreambuf_iterator@DU?$char_traits@D@std@@@std@@QBEDXZ ; std::istreambuf_iterator<char,std::char_traits<char> >::operator*
	movsx	edx, al
	movsx	eax, BYTE PTR __E0$[ebp]
	cmp	edx, eax
	je	SHORT $LN69@Getffldx
$LN68@Getffldx:

; 903  : 			;
; 904  : 		else if (++_First != _Last

	jmp	SHORT $LN67@Getffldx
$LN69@Getffldx:

; 905  : 			&& (*_First == _MAKLOCCHR(_Elem, 'x', _Cvt)
; 906  : 				 || *_First == _MAKLOCCHR(_Elem, 'X', _Cvt)))

	mov	ecx, DWORD PTR __Last$[ebp]
	push	ecx
	mov	ecx, DWORD PTR __First$[ebp]
	call	??E?$istreambuf_iterator@DU?$char_traits@D@std@@@std@@QAEAAV01@XZ ; std::istreambuf_iterator<char,std::char_traits<char> >::operator++
	push	eax
	call	??$?9DU?$char_traits@D@std@@@std@@YA_NABV?$istreambuf_iterator@DU?$char_traits@D@std@@@0@0@Z ; std::operator!=<char,std::char_traits<char> >
	add	esp, 8
	movzx	edx, al
	test	edx, edx
	je	SHORT $LN66@Getffldx
	mov	ecx, DWORD PTR __First$[ebp]
	call	??D?$istreambuf_iterator@DU?$char_traits@D@std@@@std@@QBEDXZ ; std::istreambuf_iterator<char,std::char_traits<char> >::operator*
	movsx	esi, al
	mov	eax, DWORD PTR _this$[ebp]
	add	eax, 8
	push	eax
	push	0
	push	120					; 00000078H
	call	??$_Maklocchr@D@std@@YADDPADABU_Cvtvec@@@Z ; std::_Maklocchr<char>
	add	esp, 12					; 0000000cH
	movsx	ecx, al
	cmp	esi, ecx
	je	SHORT $LN65@Getffldx
	mov	ecx, DWORD PTR __First$[ebp]
	call	??D?$istreambuf_iterator@DU?$char_traits@D@std@@@std@@QBEDXZ ; std::istreambuf_iterator<char,std::char_traits<char> >::operator*
	movsx	esi, al
	mov	edx, DWORD PTR _this$[ebp]
	add	edx, 8
	push	edx
	push	0
	push	88					; 00000058H
	call	??$_Maklocchr@D@std@@YADDPADABU_Cvtvec@@@Z ; std::_Maklocchr<char>
	add	esp, 12					; 0000000cH
	movsx	eax, al
	cmp	esi, eax
	jne	SHORT $LN66@Getffldx
$LN65@Getffldx:

; 907  : 			++_First;	// discard any 0x or 0X

	mov	ecx, DWORD PTR __First$[ebp]
	call	??E?$istreambuf_iterator@DU?$char_traits@D@std@@@std@@QAEAAV01@XZ ; std::istreambuf_iterator<char,std::char_traits<char> >::operator++

; 908  : 		else

	jmp	SHORT $LN67@Getffldx
$LN66@Getffldx:

; 909  : 			_Seendigit = true;	// '0' not followed by 'x' or 'X'

	mov	BYTE PTR __Seendigit$[ebp], 1
$LN67@Getffldx:

; 910  : 
; 911  : 		if (*_Grouping.c_str() == CHAR_MAX || *_Grouping.c_str() <= '\0')

	lea	ecx, DWORD PTR __Grouping$[ebp]
	call	?c_str@?$basic_string@DU?$char_traits@D@std@@V?$allocator@D@2@@std@@QBEPBDXZ ; std::basic_string<char,std::char_traits<char>,std::allocator<char> >::c_str
	movsx	ecx, BYTE PTR [eax]
	cmp	ecx, 127				; 0000007fH
	je	SHORT $LN62@Getffldx
	lea	ecx, DWORD PTR __Grouping$[ebp]
	call	?c_str@?$basic_string@DU?$char_traits@D@std@@V?$allocator@D@2@@std@@QBEPBDXZ ; std::basic_string<char,std::char_traits<char>,std::allocator<char> >::c_str
	movsx	edx, BYTE PTR [eax]
	test	edx, edx
	jg	$LN63@Getffldx
$LN62@Getffldx:

; 912  : 			for (; _First != _Last
; 913  : 				&& 0 <= (_Dig = _Hexdig(*_First, _E0, _Al, _Au));
; 914  : 					_Seendigit = true, ++_First)

	jmp	SHORT $LN61@Getffldx
$LN60@Getffldx:
	mov	BYTE PTR __Seendigit$[ebp], 1
	mov	ecx, DWORD PTR __First$[ebp]
	call	??E?$istreambuf_iterator@DU?$char_traits@D@std@@@std@@QAEAAV01@XZ ; std::istreambuf_iterator<char,std::char_traits<char> >::operator++
$LN61@Getffldx:
	mov	eax, DWORD PTR __Last$[ebp]
	push	eax
	mov	ecx, DWORD PTR __First$[ebp]
	push	ecx
	call	??$?9DU?$char_traits@D@std@@@std@@YA_NABV?$istreambuf_iterator@DU?$char_traits@D@std@@@0@0@Z ; std::operator!=<char,std::char_traits<char> >
	add	esp, 8
	movzx	edx, al
	test	edx, edx
	je	$LN59@Getffldx
	movzx	eax, BYTE PTR __Au$[ebp]
	push	eax
	movzx	ecx, BYTE PTR __Al$[ebp]
	push	ecx
	movzx	edx, BYTE PTR __E0$[ebp]
	push	edx
	mov	ecx, DWORD PTR __First$[ebp]
	call	??D?$istreambuf_iterator@DU?$char_traits@D@std@@@std@@QBEDXZ ; std::istreambuf_iterator<char,std::char_traits<char> >::operator*
	movzx	eax, al
	push	eax
	mov	ecx, DWORD PTR _this$[ebp]
	push	ecx
	call	?_Hexdig@?$num_get@DV?$istreambuf_iterator@DU?$char_traits@D@std@@@std@@@std@@ABAHDDDD@Z ; std::num_get<char,std::istreambuf_iterator<char,std::char_traits<char> > >::_Hexdig
	add	esp, 20					; 00000014H
	mov	DWORD PTR __Dig$[ebp], eax
	cmp	DWORD PTR __Dig$[ebp], 0
	jl	SHORT $LN59@Getffldx

; 915  : 				if (_MAX_SIG_DIG <= _Significant)

	cmp	DWORD PTR __Significant$[ebp], 36	; 00000024H
	jl	SHORT $LN58@Getffldx

; 916  : 					++_Phex;	// just scale by 10

	mov	edx, DWORD PTR __Phex$[ebp]
	add	edx, 1
	mov	DWORD PTR __Phex$[ebp], edx
	jmp	SHORT $LN57@Getffldx
$LN58@Getffldx:

; 917  : 				else if (*_First == _E0 && _Significant == 0)

	mov	ecx, DWORD PTR __First$[ebp]
	call	??D?$istreambuf_iterator@DU?$char_traits@D@std@@@std@@QBEDXZ ; std::istreambuf_iterator<char,std::char_traits<char> >::operator*
	movsx	eax, al
	movsx	ecx, BYTE PTR __E0$[ebp]
	cmp	eax, ecx
	jne	SHORT $LN56@Getffldx
	cmp	DWORD PTR __Significant$[ebp], 0
	jne	SHORT $LN56@Getffldx

; 918  : 					;	// drop leading zeros
; 919  : 				else

	jmp	SHORT $LN57@Getffldx
$LN56@Getffldx:

; 920  : 					{	// save a significant digit
; 921  : 					*_Ptr++ = "0123456789abcdef"[_Dig];

	mov	edx, DWORD PTR __Ptr$[ebp]
	mov	eax, DWORD PTR __Dig$[ebp]
	mov	cl, BYTE PTR ??_C@_0BB@JCEFLFJE@0123456789abcdef?$AA@[eax]
	mov	BYTE PTR [edx], cl
	mov	edx, DWORD PTR __Ptr$[ebp]
	add	edx, 1
	mov	DWORD PTR __Ptr$[ebp], edx

; 922  : 					++_Significant;

	mov	eax, DWORD PTR __Significant$[ebp]
	add	eax, 1
	mov	DWORD PTR __Significant$[ebp], eax
$LN57@Getffldx:

; 923  : 					}

	jmp	$LN60@Getffldx
$LN59@Getffldx:

; 924  : 		else

	jmp	$LN54@Getffldx
$LN63@Getffldx:

; 925  : 			{	// grouping specified, gather digits and group sizes
; 926  : 			const _Elem _Kseparator = _Grouping.size() == 0
; 927  : 				? (_Elem)0 : _Punct_fac.thousands_sep();

	lea	ecx, DWORD PTR __Grouping$[ebp]
	call	?size@?$basic_string@DU?$char_traits@D@std@@V?$allocator@D@2@@std@@QBEIXZ ; std::basic_string<char,std::char_traits<char>,std::allocator<char> >::size
	test	eax, eax
	jne	SHORT $LN77@Getffldx
	mov	BYTE PTR tv230[ebp], 0
	jmp	SHORT $LN78@Getffldx
$LN77@Getffldx:
	mov	ecx, DWORD PTR __Punct_fac$[ebp]
	call	?thousands_sep@?$numpunct@D@std@@QBEDXZ	; std::numpunct<char>::thousands_sep
	mov	BYTE PTR tv230[ebp], al
$LN78@Getffldx:
	mov	cl, BYTE PTR tv230[ebp]
	mov	BYTE PTR __Kseparator$135707[ebp], cl

; 928  : 			string _Groups((size_t)1, '\0');

	push	0
	push	1
	lea	ecx, DWORD PTR __Groups$135710[ebp]
	call	??0?$basic_string@DU?$char_traits@D@std@@V?$allocator@D@2@@std@@QAE@ID@Z ; std::basic_string<char,std::char_traits<char>,std::allocator<char> >::basic_string<char,std::char_traits<char>,std::allocator<char> >
	mov	BYTE PTR __$EHRec$[ebp+8], 2

; 929  : 			size_t _Group = 0;

	mov	DWORD PTR __Group$135711[ebp], 0

; 930  : 
; 931  : 			for (; _First != _Last; ++_First)

	jmp	SHORT $LN53@Getffldx
$LN52@Getffldx:
	mov	ecx, DWORD PTR __First$[ebp]
	call	??E?$istreambuf_iterator@DU?$char_traits@D@std@@@std@@QAEAAV01@XZ ; std::istreambuf_iterator<char,std::char_traits<char> >::operator++
$LN53@Getffldx:
	mov	edx, DWORD PTR __Last$[ebp]
	push	edx
	mov	eax, DWORD PTR __First$[ebp]
	push	eax
	call	??$?9DU?$char_traits@D@std@@@std@@YA_NABV?$istreambuf_iterator@DU?$char_traits@D@std@@@0@0@Z ; std::operator!=<char,std::char_traits<char> >
	add	esp, 8
	movzx	ecx, al
	test	ecx, ecx
	je	$LN51@Getffldx

; 932  : 				if (0 <= (_Dig = _Hexdig(*_First, _E0, _Al, _Au)))

	movzx	edx, BYTE PTR __Au$[ebp]
	push	edx
	movzx	eax, BYTE PTR __Al$[ebp]
	push	eax
	movzx	ecx, BYTE PTR __E0$[ebp]
	push	ecx
	mov	ecx, DWORD PTR __First$[ebp]
	call	??D?$istreambuf_iterator@DU?$char_traits@D@std@@@std@@QBEDXZ ; std::istreambuf_iterator<char,std::char_traits<char> >::operator*
	movzx	edx, al
	push	edx
	mov	eax, DWORD PTR _this$[ebp]
	push	eax
	call	?_Hexdig@?$num_get@DV?$istreambuf_iterator@DU?$char_traits@D@std@@@std@@@std@@ABAHDDDD@Z ; std::num_get<char,std::istreambuf_iterator<char,std::char_traits<char> > >::_Hexdig
	add	esp, 20					; 00000014H
	mov	DWORD PTR __Dig$[ebp], eax
	cmp	DWORD PTR __Dig$[ebp], 0
	jl	$LN50@Getffldx

; 933  : 					{	// got a digit, add to group size
; 934  : 					_Seendigit = true;

	mov	BYTE PTR __Seendigit$[ebp], 1

; 935  : 					if (_MAX_SIG_DIG <= _Significant)

	cmp	DWORD PTR __Significant$[ebp], 36	; 00000024H
	jl	SHORT $LN49@Getffldx

; 936  : 						++_Phex;	// just scale by 10

	mov	ecx, DWORD PTR __Phex$[ebp]
	add	ecx, 1
	mov	DWORD PTR __Phex$[ebp], ecx
	jmp	SHORT $LN48@Getffldx
$LN49@Getffldx:

; 937  : 					else if (*_First == _E0 && _Significant == 0)

	mov	ecx, DWORD PTR __First$[ebp]
	call	??D?$istreambuf_iterator@DU?$char_traits@D@std@@@std@@QBEDXZ ; std::istreambuf_iterator<char,std::char_traits<char> >::operator*
	movsx	edx, al
	movsx	eax, BYTE PTR __E0$[ebp]
	cmp	edx, eax
	jne	SHORT $LN47@Getffldx
	cmp	DWORD PTR __Significant$[ebp], 0
	jne	SHORT $LN47@Getffldx

; 938  : 						;	// drop leading zeros
; 939  : 					else

	jmp	SHORT $LN48@Getffldx
$LN47@Getffldx:

; 940  : 						{	// save a significant digit
; 941  : 						*_Ptr++ = "0123456789abcdef"[_Dig];

	mov	ecx, DWORD PTR __Ptr$[ebp]
	mov	edx, DWORD PTR __Dig$[ebp]
	mov	al, BYTE PTR ??_C@_0BB@JCEFLFJE@0123456789abcdef?$AA@[edx]
	mov	BYTE PTR [ecx], al
	mov	ecx, DWORD PTR __Ptr$[ebp]
	add	ecx, 1
	mov	DWORD PTR __Ptr$[ebp], ecx

; 942  : 						++_Significant;

	mov	edx, DWORD PTR __Significant$[ebp]
	add	edx, 1
	mov	DWORD PTR __Significant$[ebp], edx
$LN48@Getffldx:

; 943  : 						}
; 944  : 					if (_Groups[_Group] != CHAR_MAX)

	mov	eax, DWORD PTR __Group$135711[ebp]
	push	eax
	lea	ecx, DWORD PTR __Groups$135710[ebp]
	call	??A?$basic_string@DU?$char_traits@D@std@@V?$allocator@D@2@@std@@QAEAADI@Z ; std::basic_string<char,std::char_traits<char>,std::allocator<char> >::operator[]
	movsx	ecx, BYTE PTR [eax]
	cmp	ecx, 127				; 0000007fH
	je	SHORT $LN45@Getffldx

; 945  : 						++_Groups[_Group];

	mov	edx, DWORD PTR __Group$135711[ebp]
	push	edx
	lea	ecx, DWORD PTR __Groups$135710[ebp]
	call	??A?$basic_string@DU?$char_traits@D@std@@V?$allocator@D@2@@std@@QAEAADI@Z ; std::basic_string<char,std::char_traits<char>,std::allocator<char> >::operator[]
	mov	DWORD PTR tv270[ebp], eax
	mov	eax, DWORD PTR tv270[ebp]
	mov	cl, BYTE PTR [eax]
	add	cl, 1
	mov	edx, DWORD PTR tv270[ebp]
	mov	BYTE PTR [edx], cl
$LN45@Getffldx:

; 946  : 					}
; 947  : 				else if (_Groups[_Group] == '\0'

	jmp	SHORT $LN44@Getffldx
$LN50@Getffldx:

; 948  : 					|| _Kseparator == (_Elem)0
; 949  : 					|| *_First != _Kseparator)

	mov	eax, DWORD PTR __Group$135711[ebp]
	push	eax
	lea	ecx, DWORD PTR __Groups$135710[ebp]
	call	??A?$basic_string@DU?$char_traits@D@std@@V?$allocator@D@2@@std@@QAEAADI@Z ; std::basic_string<char,std::char_traits<char>,std::allocator<char> >::operator[]
	movsx	ecx, BYTE PTR [eax]
	test	ecx, ecx
	je	SHORT $LN42@Getffldx
	movsx	edx, BYTE PTR __Kseparator$135707[ebp]
	test	edx, edx
	je	SHORT $LN42@Getffldx
	mov	ecx, DWORD PTR __First$[ebp]
	call	??D?$istreambuf_iterator@DU?$char_traits@D@std@@@std@@QBEDXZ ; std::istreambuf_iterator<char,std::char_traits<char> >::operator*
	movsx	eax, al
	movsx	ecx, BYTE PTR __Kseparator$135707[ebp]
	cmp	eax, ecx
	je	SHORT $LN43@Getffldx
$LN42@Getffldx:

; 950  : 					break;	// not a group separator, done

	jmp	SHORT $LN51@Getffldx

; 951  : 				else

	jmp	SHORT $LN44@Getffldx
$LN43@Getffldx:

; 952  : 					{	// add a new group to _Groups string
; 953  : 					_Groups.append((size_t)1, '\0');

	push	0
	push	1
	lea	ecx, DWORD PTR __Groups$135710[ebp]
	call	?append@?$basic_string@DU?$char_traits@D@std@@V?$allocator@D@2@@std@@QAEAAV12@ID@Z ; std::basic_string<char,std::char_traits<char>,std::allocator<char> >::append

; 954  : 					++_Group;

	mov	edx, DWORD PTR __Group$135711[ebp]
	add	edx, 1
	mov	DWORD PTR __Group$135711[ebp], edx
$LN44@Getffldx:

; 955  : 					}

	jmp	$LN52@Getffldx
$LN51@Getffldx:

; 956  : 			if (_Group == 0)

	cmp	DWORD PTR __Group$135711[ebp], 0
	jne	SHORT $LN40@Getffldx
	jmp	SHORT $LN39@Getffldx
$LN40@Getffldx:

; 957  : 				;	// no thousands separators seen
; 958  : 			else if ('\0' < _Groups[_Group])

	mov	eax, DWORD PTR __Group$135711[ebp]
	push	eax
	lea	ecx, DWORD PTR __Groups$135710[ebp]
	call	??A?$basic_string@DU?$char_traits@D@std@@V?$allocator@D@2@@std@@QAEAADI@Z ; std::basic_string<char,std::char_traits<char>,std::allocator<char> >::operator[]
	movsx	ecx, BYTE PTR [eax]
	test	ecx, ecx
	jle	SHORT $LN38@Getffldx

; 959  : 				++_Group;	// add trailing group to group count

	mov	edx, DWORD PTR __Group$135711[ebp]
	add	edx, 1
	mov	DWORD PTR __Group$135711[ebp], edx

; 960  : 			else

	jmp	SHORT $LN39@Getffldx
$LN38@Getffldx:

; 961  : 				_Bad = true;	// trailing separator, fail

	mov	BYTE PTR __Bad$[ebp], 1
$LN39@Getffldx:

; 962  : 
; 963  : 			for (const char *_Pg = _Grouping.c_str();

	lea	ecx, DWORD PTR __Grouping$[ebp]
	call	?c_str@?$basic_string@DU?$char_traits@D@std@@V?$allocator@D@2@@std@@QBEPBDXZ ; std::basic_string<char,std::char_traits<char>,std::allocator<char> >::c_str
	mov	DWORD PTR __Pg$135731[ebp], eax
$LN36@Getffldx:

; 964  : 				!_Bad && 0 < _Group; )

	movzx	eax, BYTE PTR __Bad$[ebp]
	test	eax, eax
	jne	$LN35@Getffldx
	cmp	DWORD PTR __Group$135711[ebp], 0
	jbe	$LN35@Getffldx

; 965  : 				if (*_Pg == CHAR_MAX)

	mov	ecx, DWORD PTR __Pg$135731[ebp]
	movsx	edx, BYTE PTR [ecx]
	cmp	edx, 127				; 0000007fH
	jne	SHORT $LN34@Getffldx

; 966  : 					break;	// end of grouping constraints to check

	jmp	$LN35@Getffldx

; 967  : 				else if (0 < --_Group && *_Pg != _Groups[_Group]

	jmp	SHORT $LN33@Getffldx
$LN34@Getffldx:

; 968  : 					|| 0 == _Group && *_Pg < _Groups[_Group])

	mov	eax, DWORD PTR __Group$135711[ebp]
	sub	eax, 1
	mov	DWORD PTR __Group$135711[ebp], eax
	je	SHORT $LN30@Getffldx
	mov	ecx, DWORD PTR __Pg$135731[ebp]
	movsx	esi, BYTE PTR [ecx]
	mov	edx, DWORD PTR __Group$135711[ebp]
	push	edx
	lea	ecx, DWORD PTR __Groups$135710[ebp]
	call	??A?$basic_string@DU?$char_traits@D@std@@V?$allocator@D@2@@std@@QAEAADI@Z ; std::basic_string<char,std::char_traits<char>,std::allocator<char> >::operator[]
	movsx	eax, BYTE PTR [eax]
	cmp	esi, eax
	jne	SHORT $LN31@Getffldx
$LN30@Getffldx:
	cmp	DWORD PTR __Group$135711[ebp], 0
	jne	SHORT $LN32@Getffldx
	mov	ecx, DWORD PTR __Pg$135731[ebp]
	movsx	esi, BYTE PTR [ecx]
	mov	edx, DWORD PTR __Group$135711[ebp]
	push	edx
	lea	ecx, DWORD PTR __Groups$135710[ebp]
	call	??A?$basic_string@DU?$char_traits@D@std@@V?$allocator@D@2@@std@@QAEAADI@Z ; std::basic_string<char,std::char_traits<char>,std::allocator<char> >::operator[]
	movsx	eax, BYTE PTR [eax]
	cmp	esi, eax
	jge	SHORT $LN32@Getffldx
$LN31@Getffldx:

; 969  : 					_Bad = true;	// bad group size, fail

	mov	BYTE PTR __Bad$[ebp], 1
	jmp	SHORT $LN33@Getffldx
$LN32@Getffldx:

; 970  : 				else if ('\0' < _Pg[1])

	mov	ecx, DWORD PTR __Pg$135731[ebp]
	movsx	edx, BYTE PTR [ecx+1]
	test	edx, edx
	jle	SHORT $LN33@Getffldx

; 971  : 					++_Pg;	// group size okay, advance to next test

	mov	eax, DWORD PTR __Pg$135731[ebp]
	add	eax, 1
	mov	DWORD PTR __Pg$135731[ebp], eax
$LN33@Getffldx:

; 972  : 			}

	jmp	$LN36@Getffldx
$LN35@Getffldx:
	mov	BYTE PTR __$EHRec$[ebp+8], 1
	lea	ecx, DWORD PTR __Groups$135710[ebp]
	call	??1?$basic_string@DU?$char_traits@D@std@@V?$allocator@D@2@@std@@QAE@XZ ; std::basic_string<char,std::char_traits<char>,std::allocator<char> >::~basic_string<char,std::char_traits<char>,std::allocator<char> >
$LN54@Getffldx:

; 973  : 
; 974  : 		if (_Seendigit && _Significant == 0)

	movzx	ecx, BYTE PTR __Seendigit$[ebp]
	test	ecx, ecx
	je	SHORT $LN27@Getffldx
	cmp	DWORD PTR __Significant$[ebp], 0
	jne	SHORT $LN27@Getffldx

; 975  : 			*_Ptr++ = '0';	// save at least one leading digit

	mov	edx, DWORD PTR __Ptr$[ebp]
	mov	BYTE PTR [edx], 48			; 00000030H
	mov	eax, DWORD PTR __Ptr$[ebp]
	add	eax, 1
	mov	DWORD PTR __Ptr$[ebp], eax
$LN27@Getffldx:

; 976  : 
; 977  : 		if (_First != _Last && *_First == _Punct_fac.decimal_point())

	mov	ecx, DWORD PTR __Last$[ebp]
	push	ecx
	mov	edx, DWORD PTR __First$[ebp]
	push	edx
	call	??$?9DU?$char_traits@D@std@@@std@@YA_NABV?$istreambuf_iterator@DU?$char_traits@D@std@@@0@0@Z ; std::operator!=<char,std::char_traits<char> >
	add	esp, 8
	movzx	eax, al
	test	eax, eax
	je	SHORT $LN26@Getffldx
	mov	ecx, DWORD PTR __First$[ebp]
	call	??D?$istreambuf_iterator@DU?$char_traits@D@std@@@std@@QBEDXZ ; std::istreambuf_iterator<char,std::char_traits<char> >::operator*
	movsx	esi, al
	mov	ecx, DWORD PTR __Punct_fac$[ebp]
	call	?decimal_point@?$numpunct@D@std@@QBEDXZ	; std::numpunct<char>::decimal_point
	movsx	ecx, al
	cmp	esi, ecx
	jne	SHORT $LN26@Getffldx

; 978  : 			*_Ptr++ = localeconv()->decimal_point[0], ++_First;	// add .

	call	_localeconv
	mov	edx, DWORD PTR [eax]
	mov	eax, DWORD PTR __Ptr$[ebp]
	mov	cl, BYTE PTR [edx]
	mov	BYTE PTR [eax], cl
	mov	edx, DWORD PTR __Ptr$[ebp]
	add	edx, 1
	mov	DWORD PTR __Ptr$[ebp], edx
	mov	ecx, DWORD PTR __First$[ebp]
	call	??E?$istreambuf_iterator@DU?$char_traits@D@std@@@std@@QAEAAV01@XZ ; std::istreambuf_iterator<char,std::char_traits<char> >::operator++
$LN26@Getffldx:

; 979  : 
; 980  : 		if (_Significant == 0)

	cmp	DWORD PTR __Significant$[ebp], 0
	jne	SHORT $LN25@Getffldx

; 981  : 			{	// 0000. so far
; 982  : 			for (; _First != _Last && *_First == _E0;
; 983  : 				_Seendigit = true, ++_First)

	jmp	SHORT $LN24@Getffldx
$LN23@Getffldx:
	mov	BYTE PTR __Seendigit$[ebp], 1
	mov	ecx, DWORD PTR __First$[ebp]
	call	??E?$istreambuf_iterator@DU?$char_traits@D@std@@@std@@QAEAAV01@XZ ; std::istreambuf_iterator<char,std::char_traits<char> >::operator++
$LN24@Getffldx:
	mov	eax, DWORD PTR __Last$[ebp]
	push	eax
	mov	ecx, DWORD PTR __First$[ebp]
	push	ecx
	call	??$?9DU?$char_traits@D@std@@@std@@YA_NABV?$istreambuf_iterator@DU?$char_traits@D@std@@@0@0@Z ; std::operator!=<char,std::char_traits<char> >
	add	esp, 8
	movzx	edx, al
	test	edx, edx
	je	SHORT $LN22@Getffldx
	mov	ecx, DWORD PTR __First$[ebp]
	call	??D?$istreambuf_iterator@DU?$char_traits@D@std@@@std@@QBEDXZ ; std::istreambuf_iterator<char,std::char_traits<char> >::operator*
	movsx	eax, al
	movsx	ecx, BYTE PTR __E0$[ebp]
	cmp	eax, ecx
	jne	SHORT $LN22@Getffldx

; 984  : 				--_Phex;	// just count leading fraction zeros

	mov	edx, DWORD PTR __Phex$[ebp]
	sub	edx, 1
	mov	DWORD PTR __Phex$[ebp], edx
	jmp	SHORT $LN23@Getffldx
$LN22@Getffldx:

; 985  : 			if (_Phex < 0)

	cmp	DWORD PTR __Phex$[ebp], 0
	jge	SHORT $LN25@Getffldx

; 986  : 				*_Ptr++ = '0', ++_Phex;	// put one back

	mov	eax, DWORD PTR __Ptr$[ebp]
	mov	BYTE PTR [eax], 48			; 00000030H
	mov	ecx, DWORD PTR __Ptr$[ebp]
	add	ecx, 1
	mov	DWORD PTR __Ptr$[ebp], ecx
	mov	edx, DWORD PTR __Phex$[ebp]
	add	edx, 1
	mov	DWORD PTR __Phex$[ebp], edx
$LN25@Getffldx:

; 987  : 			}
; 988  : 
; 989  : 		for (; _First != _Last
; 990  : 				&& 0 <= (_Dig = _Hexdig(*_First, _E0, _Al, _Au));
; 991  : 				_Seendigit = true, ++_First)

	jmp	SHORT $LN20@Getffldx
$LN19@Getffldx:
	mov	BYTE PTR __Seendigit$[ebp], 1
	mov	ecx, DWORD PTR __First$[ebp]
	call	??E?$istreambuf_iterator@DU?$char_traits@D@std@@@std@@QAEAAV01@XZ ; std::istreambuf_iterator<char,std::char_traits<char> >::operator++
$LN20@Getffldx:
	mov	eax, DWORD PTR __Last$[ebp]
	push	eax
	mov	ecx, DWORD PTR __First$[ebp]
	push	ecx
	call	??$?9DU?$char_traits@D@std@@@std@@YA_NABV?$istreambuf_iterator@DU?$char_traits@D@std@@@0@0@Z ; std::operator!=<char,std::char_traits<char> >
	add	esp, 8
	movzx	edx, al
	test	edx, edx
	je	SHORT $LN18@Getffldx
	movzx	eax, BYTE PTR __Au$[ebp]
	push	eax
	movzx	ecx, BYTE PTR __Al$[ebp]
	push	ecx
	movzx	edx, BYTE PTR __E0$[ebp]
	push	edx
	mov	ecx, DWORD PTR __First$[ebp]
	call	??D?$istreambuf_iterator@DU?$char_traits@D@std@@@std@@QBEDXZ ; std::istreambuf_iterator<char,std::char_traits<char> >::operator*
	movzx	eax, al
	push	eax
	mov	ecx, DWORD PTR _this$[ebp]
	push	ecx
	call	?_Hexdig@?$num_get@DV?$istreambuf_iterator@DU?$char_traits@D@std@@@std@@@std@@ABAHDDDD@Z ; std::num_get<char,std::istreambuf_iterator<char,std::char_traits<char> > >::_Hexdig
	add	esp, 20					; 00000014H
	mov	DWORD PTR __Dig$[ebp], eax
	cmp	DWORD PTR __Dig$[ebp], 0
	jl	SHORT $LN18@Getffldx

; 992  : 			if (_Significant < _MAX_SIG_DIG)

	cmp	DWORD PTR __Significant$[ebp], 36	; 00000024H
	jge	SHORT $LN17@Getffldx

; 993  : 				{	// save a significant fraction digit
; 994  : 				*_Ptr++ = "0123456789abcdef"[_Dig];

	mov	edx, DWORD PTR __Ptr$[ebp]
	mov	eax, DWORD PTR __Dig$[ebp]
	mov	cl, BYTE PTR ??_C@_0BB@JCEFLFJE@0123456789abcdef?$AA@[eax]
	mov	BYTE PTR [edx], cl
	mov	edx, DWORD PTR __Ptr$[ebp]
	add	edx, 1
	mov	DWORD PTR __Ptr$[ebp], edx

; 995  : 				++_Significant;

	mov	eax, DWORD PTR __Significant$[ebp]
	add	eax, 1
	mov	DWORD PTR __Significant$[ebp], eax
$LN17@Getffldx:

; 996  : 				}
; 997  : 
; 998  : 		if (_Seendigit && _First != _Last

	jmp	SHORT $LN19@Getffldx
$LN18@Getffldx:

; 999  : 			&& (*_First == _MAKLOCCHR(_Elem, 'p', _Cvt)
; 1000 : 				|| *_First == _MAKLOCCHR(_Elem, 'P', _Cvt)))

	movzx	ecx, BYTE PTR __Seendigit$[ebp]
	test	ecx, ecx
	je	$LN16@Getffldx
	mov	edx, DWORD PTR __Last$[ebp]
	push	edx
	mov	eax, DWORD PTR __First$[ebp]
	push	eax
	call	??$?9DU?$char_traits@D@std@@@std@@YA_NABV?$istreambuf_iterator@DU?$char_traits@D@std@@@0@0@Z ; std::operator!=<char,std::char_traits<char> >
	add	esp, 8
	movzx	ecx, al
	test	ecx, ecx
	je	$LN16@Getffldx
	mov	ecx, DWORD PTR __First$[ebp]
	call	??D?$istreambuf_iterator@DU?$char_traits@D@std@@@std@@QBEDXZ ; std::istreambuf_iterator<char,std::char_traits<char> >::operator*
	movsx	esi, al
	mov	edx, DWORD PTR _this$[ebp]
	add	edx, 8
	push	edx
	push	0
	push	112					; 00000070H
	call	??$_Maklocchr@D@std@@YADDPADABU_Cvtvec@@@Z ; std::_Maklocchr<char>
	add	esp, 12					; 0000000cH
	movsx	eax, al
	cmp	esi, eax
	je	SHORT $LN15@Getffldx
	mov	ecx, DWORD PTR __First$[ebp]
	call	??D?$istreambuf_iterator@DU?$char_traits@D@std@@@std@@QBEDXZ ; std::istreambuf_iterator<char,std::char_traits<char> >::operator*
	movsx	esi, al
	mov	ecx, DWORD PTR _this$[ebp]
	add	ecx, 8
	push	ecx
	push	0
	push	80					; 00000050H
	call	??$_Maklocchr@D@std@@YADDPADABU_Cvtvec@@@Z ; std::_Maklocchr<char>
	add	esp, 12					; 0000000cH
	movsx	edx, al
	cmp	esi, edx
	jne	$LN16@Getffldx
$LN15@Getffldx:

; 1001 : 			{	// 'p' or 'P', collect exponent
; 1002 : 			*_Ptr++ = 'p', ++_First;

	mov	eax, DWORD PTR __Ptr$[ebp]
	mov	BYTE PTR [eax], 112			; 00000070H
	mov	ecx, DWORD PTR __Ptr$[ebp]
	add	ecx, 1
	mov	DWORD PTR __Ptr$[ebp], ecx
	mov	ecx, DWORD PTR __First$[ebp]
	call	??E?$istreambuf_iterator@DU?$char_traits@D@std@@@std@@QAEAAV01@XZ ; std::istreambuf_iterator<char,std::char_traits<char> >::operator++

; 1003 : 			_Seendigit = false, _Significant = 0;

	mov	BYTE PTR __Seendigit$[ebp], 0
	mov	DWORD PTR __Significant$[ebp], 0

; 1004 : 
; 1005 : 			if (_First == _Last)

	mov	edx, DWORD PTR __Last$[ebp]
	push	edx
	mov	eax, DWORD PTR __First$[ebp]
	push	eax
	call	??$?8DU?$char_traits@D@std@@@std@@YA_NABV?$istreambuf_iterator@DU?$char_traits@D@std@@@0@0@Z ; std::operator==<char,std::char_traits<char> >
	add	esp, 8
	movzx	ecx, al
	test	ecx, ecx
	je	SHORT $LN14@Getffldx
	jmp	SHORT $LN9@Getffldx
$LN14@Getffldx:

; 1006 : 				;	// 'p' or 'P' is last element
; 1007 : 			else if (*_First == _MAKLOCCHR(_Elem, '+', _Cvt))

	mov	ecx, DWORD PTR __First$[ebp]
	call	??D?$istreambuf_iterator@DU?$char_traits@D@std@@@std@@QBEDXZ ; std::istreambuf_iterator<char,std::char_traits<char> >::operator*
	movsx	esi, al
	mov	edx, DWORD PTR _this$[ebp]
	add	edx, 8
	push	edx
	push	0
	push	43					; 0000002bH
	call	??$_Maklocchr@D@std@@YADDPADABU_Cvtvec@@@Z ; std::_Maklocchr<char>
	add	esp, 12					; 0000000cH
	movsx	eax, al
	cmp	esi, eax
	jne	SHORT $LN12@Getffldx

; 1008 : 				*_Ptr++ = '+', ++_First;	// gather plus sign

	mov	ecx, DWORD PTR __Ptr$[ebp]
	mov	BYTE PTR [ecx], 43			; 0000002bH
	mov	edx, DWORD PTR __Ptr$[ebp]
	add	edx, 1
	mov	DWORD PTR __Ptr$[ebp], edx
	mov	ecx, DWORD PTR __First$[ebp]
	call	??E?$istreambuf_iterator@DU?$char_traits@D@std@@@std@@QAEAAV01@XZ ; std::istreambuf_iterator<char,std::char_traits<char> >::operator++
	jmp	SHORT $LN9@Getffldx
$LN12@Getffldx:

; 1009 : 			else if (*_First == _MAKLOCCHR(_Elem, '-', _Cvt))

	mov	ecx, DWORD PTR __First$[ebp]
	call	??D?$istreambuf_iterator@DU?$char_traits@D@std@@@std@@QBEDXZ ; std::istreambuf_iterator<char,std::char_traits<char> >::operator*
	movsx	esi, al
	mov	eax, DWORD PTR _this$[ebp]
	add	eax, 8
	push	eax
	push	0
	push	45					; 0000002dH
	call	??$_Maklocchr@D@std@@YADDPADABU_Cvtvec@@@Z ; std::_Maklocchr<char>
	add	esp, 12					; 0000000cH
	movsx	ecx, al
	cmp	esi, ecx
	jne	SHORT $LN9@Getffldx

; 1010 : 				*_Ptr++ = '-', ++_First;	// gather minus sign

	mov	edx, DWORD PTR __Ptr$[ebp]
	mov	BYTE PTR [edx], 45			; 0000002dH
	mov	eax, DWORD PTR __Ptr$[ebp]
	add	eax, 1
	mov	DWORD PTR __Ptr$[ebp], eax
	mov	ecx, DWORD PTR __First$[ebp]
	call	??E?$istreambuf_iterator@DU?$char_traits@D@std@@@std@@QAEAAV01@XZ ; std::istreambuf_iterator<char,std::char_traits<char> >::operator++
$LN9@Getffldx:

; 1011 : 			for (; _First != _Last && *_First == _E0; )

	mov	ecx, DWORD PTR __Last$[ebp]
	push	ecx
	mov	edx, DWORD PTR __First$[ebp]
	push	edx
	call	??$?9DU?$char_traits@D@std@@@std@@YA_NABV?$istreambuf_iterator@DU?$char_traits@D@std@@@0@0@Z ; std::operator!=<char,std::char_traits<char> >
	add	esp, 8
	movzx	eax, al
	test	eax, eax
	je	SHORT $LN8@Getffldx
	mov	ecx, DWORD PTR __First$[ebp]
	call	??D?$istreambuf_iterator@DU?$char_traits@D@std@@@std@@QBEDXZ ; std::istreambuf_iterator<char,std::char_traits<char> >::operator*
	movsx	ecx, al
	movsx	edx, BYTE PTR __E0$[ebp]
	cmp	ecx, edx
	jne	SHORT $LN8@Getffldx

; 1012 : 				_Seendigit = true, ++_First;	// strip leading zeros

	mov	BYTE PTR __Seendigit$[ebp], 1
	mov	ecx, DWORD PTR __First$[ebp]
	call	??E?$istreambuf_iterator@DU?$char_traits@D@std@@@std@@QAEAAV01@XZ ; std::istreambuf_iterator<char,std::char_traits<char> >::operator++
	jmp	SHORT $LN9@Getffldx
$LN8@Getffldx:

; 1013 : 			if (_Seendigit)

	movzx	eax, BYTE PTR __Seendigit$[ebp]
	test	eax, eax
	je	SHORT $LN7@Getffldx

; 1014 : 				*_Ptr++ = '0';	// put one back

	mov	ecx, DWORD PTR __Ptr$[ebp]
	mov	BYTE PTR [ecx], 48			; 00000030H
	mov	edx, DWORD PTR __Ptr$[ebp]
	add	edx, 1
	mov	DWORD PTR __Ptr$[ebp], edx
$LN7@Getffldx:

; 1015 : 			for (; _First != _Last
; 1016 : 				&& _E0 <= *_First && *_First <= _E0 + 9;
; 1017 : 				_Seendigit = true, ++_First)

	jmp	SHORT $LN6@Getffldx
$LN5@Getffldx:
	mov	BYTE PTR __Seendigit$[ebp], 1
	mov	ecx, DWORD PTR __First$[ebp]
	call	??E?$istreambuf_iterator@DU?$char_traits@D@std@@@std@@QAEAAV01@XZ ; std::istreambuf_iterator<char,std::char_traits<char> >::operator++
$LN6@Getffldx:
	mov	eax, DWORD PTR __Last$[ebp]
	push	eax
	mov	ecx, DWORD PTR __First$[ebp]
	push	ecx
	call	??$?9DU?$char_traits@D@std@@@std@@YA_NABV?$istreambuf_iterator@DU?$char_traits@D@std@@@0@0@Z ; std::operator!=<char,std::char_traits<char> >
	add	esp, 8
	movzx	edx, al
	test	edx, edx
	je	SHORT $LN16@Getffldx
	movsx	esi, BYTE PTR __E0$[ebp]
	mov	ecx, DWORD PTR __First$[ebp]
	call	??D?$istreambuf_iterator@DU?$char_traits@D@std@@@std@@QBEDXZ ; std::istreambuf_iterator<char,std::char_traits<char> >::operator*
	movsx	eax, al
	cmp	esi, eax
	jg	SHORT $LN16@Getffldx
	mov	ecx, DWORD PTR __First$[ebp]
	call	??D?$istreambuf_iterator@DU?$char_traits@D@std@@@std@@QBEDXZ ; std::istreambuf_iterator<char,std::char_traits<char> >::operator*
	movsx	ecx, al
	movsx	edx, BYTE PTR __E0$[ebp]
	add	edx, 9
	cmp	ecx, edx
	jg	SHORT $LN16@Getffldx

; 1018 : 				if (_Significant < _MAX_EXP_DIG)

	cmp	DWORD PTR __Significant$[ebp], 8
	jge	SHORT $LN3@Getffldx

; 1019 : 					{	// save a significant exponent digit
; 1020 : 					*_Ptr++ = (char)((*_First - _E0) + '0');

	mov	ecx, DWORD PTR __First$[ebp]
	call	??D?$istreambuf_iterator@DU?$char_traits@D@std@@@std@@QBEDXZ ; std::istreambuf_iterator<char,std::char_traits<char> >::operator*
	movsx	eax, al
	movsx	ecx, BYTE PTR __E0$[ebp]
	sub	eax, ecx
	add	eax, 48					; 00000030H
	mov	edx, DWORD PTR __Ptr$[ebp]
	mov	BYTE PTR [edx], al
	mov	eax, DWORD PTR __Ptr$[ebp]
	add	eax, 1
	mov	DWORD PTR __Ptr$[ebp], eax

; 1021 : 					++_Significant;

	mov	ecx, DWORD PTR __Significant$[ebp]
	add	ecx, 1
	mov	DWORD PTR __Significant$[ebp], ecx
$LN3@Getffldx:

; 1022 : 					}
; 1023 : 			}

	jmp	SHORT $LN5@Getffldx
$LN16@Getffldx:

; 1024 : 
; 1025 : 		if (_Bad || !_Seendigit)

	movzx	edx, BYTE PTR __Bad$[ebp]
	test	edx, edx
	jne	SHORT $LN1@Getffldx
	movzx	eax, BYTE PTR __Seendigit$[ebp]
	test	eax, eax
	jne	SHORT $LN2@Getffldx
$LN1@Getffldx:

; 1026 : 			_Ptr = _Ac;	// roll back pointer to indicate failure

	mov	ecx, DWORD PTR __Ac$[ebp]
	mov	DWORD PTR __Ptr$[ebp], ecx
$LN2@Getffldx:

; 1027 : 		*_Ptr = '\0';

	mov	edx, DWORD PTR __Ptr$[ebp]
	mov	BYTE PTR [edx], 0

; 1028 : 		*_Phexexp = _Phex;	// power of 16 multiplier

	mov	eax, DWORD PTR __Phexexp$[ebp]
	mov	ecx, DWORD PTR __Phex$[ebp]
	mov	DWORD PTR [eax], ecx

; 1029 : 		return (0);	// power of 10 multiplier

	mov	DWORD PTR $T142026[ebp], 0
	mov	DWORD PTR __$EHRec$[ebp+8], -1
	lea	ecx, DWORD PTR __Grouping$[ebp]
	call	??1?$basic_string@DU?$char_traits@D@std@@V?$allocator@D@2@@std@@QAE@XZ ; std::basic_string<char,std::char_traits<char>,std::allocator<char> >::~basic_string<char,std::char_traits<char>,std::allocator<char> >
	mov	eax, DWORD PTR $T142026[ebp]

; 1030 : 		}

	push	edx
	mov	ecx, ebp
	push	eax
	lea	edx, DWORD PTR $LN86@Getffldx
	call	@_RTC_CheckStackVars@8
	pop	eax
	pop	edx
	mov	ecx, DWORD PTR __$EHRec$[ebp]
	mov	DWORD PTR fs:0, ecx
	pop	ecx
	pop	edi
	pop	esi
	mov	ecx, DWORD PTR __$ArrayPad$[ebp]
	xor	ecx, ebp
	call	@__security_check_cookie@4
	add	esp, 164				; 000000a4H
	cmp	ebp, esp
	call	__RTC_CheckEsp
	mov	esp, ebp
	pop	ebp
	ret	0
	npad	3
$LN86@Getffldx:
	DD	2
	DD	$LN85@Getffldx
$LN85@Getffldx:
	DD	-56					; ffffffc8H
	DD	32					; 00000020H
	DD	$LN82@Getffldx
	DD	-128					; ffffff80H
	DD	32					; 00000020H
	DD	$LN83@Getffldx
$LN83@Getffldx:
	DB	95					; 0000005fH
	DB	71					; 00000047H
	DB	114					; 00000072H
	DB	111					; 0000006fH
	DB	117					; 00000075H
	DB	112					; 00000070H
	DB	115					; 00000073H
	DB	0
$LN82@Getffldx:
	DB	95					; 0000005fH
	DB	71					; 00000047H
	DB	114					; 00000072H
	DB	111					; 0000006fH
	DB	117					; 00000075H
	DB	112					; 00000070H
	DB	105					; 00000069H
	DB	110					; 0000006eH
	DB	103					; 00000067H
	DB	0
_TEXT	ENDS
;	COMDAT text$x
text$x	SEGMENT
__unwindfunclet$?_Getffldx@?$num_get@DV?$istreambuf_iterator@DU?$char_traits@D@std@@@std@@@std@@ABAHPADAAV?$istreambuf_iterator@DU?$char_traits@D@std@@@2@1AAVios_base@2@PAH@Z$0:
	lea	ecx, DWORD PTR $T142023[ebp]
	jmp	??1locale@std@@QAE@XZ			; std::locale::~locale
__unwindfunclet$?_Getffldx@?$num_get@DV?$istreambuf_iterator@DU?$char_traits@D@std@@@std@@@std@@ABAHPADAAV?$istreambuf_iterator@DU?$char_traits@D@std@@@2@1AAVios_base@2@PAH@Z$1:
	lea	ecx, DWORD PTR __Grouping$[ebp]
	jmp	??1?$basic_string@DU?$char_traits@D@std@@V?$allocator@D@2@@std@@QAE@XZ ; std::basic_string<char,std::char_traits<char>,std::allocator<char> >::~basic_string<char,std::char_traits<char>,std::allocator<char> >
__unwindfunclet$?_Getffldx@?$num_get@DV?$istreambuf_iterator@DU?$char_traits@D@std@@@std@@@std@@ABAHPADAAV?$istreambuf_iterator@DU?$char_traits@D@std@@@2@1AAVios_base@2@PAH@Z$2:
	lea	ecx, DWORD PTR __Groups$135710[ebp]
	jmp	??1?$basic_string@DU?$char_traits@D@std@@V?$allocator@D@2@@std@@QAE@XZ ; std::basic_string<char,std::char_traits<char>,std::allocator<char> >::~basic_string<char,std::char_traits<char>,std::allocator<char> >
__ehhandler$?_Getffldx@?$num_get@DV?$istreambuf_iterator@DU?$char_traits@D@std@@@std@@@std@@ABAHPADAAV?$istreambuf_iterator@DU?$char_traits@D@std@@@2@1AAVios_base@2@PAH@Z:
	mov	edx, DWORD PTR [esp+8]
	lea	eax, DWORD PTR [edx+12]
	mov	ecx, DWORD PTR [edx-164]
	xor	ecx, eax
	call	@__security_check_cookie@4
	mov	ecx, DWORD PTR [edx-4]
	xor	ecx, eax
	call	@__security_check_cookie@4
	mov	eax, OFFSET __ehfuncinfo$?_Getffldx@?$num_get@DV?$istreambuf_iterator@DU?$char_traits@D@std@@@std@@@std@@ABAHPADAAV?$istreambuf_iterator@DU?$char_traits@D@std@@@2@1AAVios_base@2@PAH@Z
	jmp	___CxxFrameHandler3
text$x	ENDS
?_Getffldx@?$num_get@DV?$istreambuf_iterator@DU?$char_traits@D@std@@@std@@@std@@ABAHPADAAV?$istreambuf_iterator@DU?$char_traits@D@std@@@2@1AAVios_base@2@PAH@Z ENDP ; std::num_get<char,std::istreambuf_iterator<char,std::char_traits<char> > >::_Getffldx
PUBLIC	??_C@_1FE@NIBPPHHA@?$AAi?$AAs?$AAt?$AAr?$AAe?$AAa?$AAm?$AAb?$AAu?$AAf?$AA_?$AAi?$AAt?$AAe?$AAr?$AAa?$AAt?$AAo?$AAr?$AA?5?$AAi?$AAs?$AA?5?$AAn?$AAo?$AAt?$AA?5?$AAd?$AAe?$AAr?$AAe?$AAf@ ; `string'
PUBLIC	??_C@_1JC@IDDDFBLE@?$AAc?$AA?3?$AA?2?$AAP?$AAr?$AAo?$AAg?$AAr?$AAa?$AAm?$AA?5?$AAF?$AAi?$AAl?$AAe?$AAs?$AA?5?$AA?$CI?$AAx?$AA8?$AA6?$AA?$CJ?$AA?2?$AAM?$AAi?$AAc?$AAr?$AAo?$AAs?$AAo?$AAf?$AAt@ ; `string'
PUBLIC	?_Peek@?$istreambuf_iterator@DU?$char_traits@D@std@@@std@@ABEDXZ ; std::istreambuf_iterator<char,std::char_traits<char> >::_Peek
;	COMDAT ??_C@_1FE@NIBPPHHA@?$AAi?$AAs?$AAt?$AAr?$AAe?$AAa?$AAm?$AAb?$AAu?$AAf?$AA_?$AAi?$AAt?$AAe?$AAr?$AAa?$AAt?$AAo?$AAr?$AA?5?$AAi?$AAs?$AA?5?$AAn?$AAo?$AAt?$AA?5?$AAd?$AAe?$AAr?$AAe?$AAf@
; File c:\program files (x86)\microsoft visual studio 10.0\vc\include\streambuf
CONST	SEGMENT
??_C@_1FE@NIBPPHHA@?$AAi?$AAs?$AAt?$AAr?$AAe?$AAa?$AAm?$AAb?$AAu?$AAf?$AA_?$AAi?$AAt?$AAe?$AAr?$AAa?$AAt?$AAo?$AAr?$AA?5?$AAi?$AAs?$AA?5?$AAn?$AAo?$AAt?$AA?5?$AAd?$AAe?$AAr?$AAe?$AAf@ DB 'i'
	DB	00H, 's', 00H, 't', 00H, 'r', 00H, 'e', 00H, 'a', 00H, 'm', 00H
	DB	'b', 00H, 'u', 00H, 'f', 00H, '_', 00H, 'i', 00H, 't', 00H, 'e'
	DB	00H, 'r', 00H, 'a', 00H, 't', 00H, 'o', 00H, 'r', 00H, ' ', 00H
	DB	'i', 00H, 's', 00H, ' ', 00H, 'n', 00H, 'o', 00H, 't', 00H, ' '
	DB	00H, 'd', 00H, 'e', 00H, 'r', 00H, 'e', 00H, 'f', 00H, 'e', 00H
	DB	'r', 00H, 'e', 00H, 'n', 00H, 'c', 00H, 'a', 00H, 'b', 00H, 'l'
	DB	00H, 'e', 00H, 00H, 00H			; `string'
CONST	ENDS
;	COMDAT ??_C@_1JC@IDDDFBLE@?$AAc?$AA?3?$AA?2?$AAP?$AAr?$AAo?$AAg?$AAr?$AAa?$AAm?$AA?5?$AAF?$AAi?$AAl?$AAe?$AAs?$AA?5?$AA?$CI?$AAx?$AA8?$AA6?$AA?$CJ?$AA?2?$AAM?$AAi?$AAc?$AAr?$AAo?$AAs?$AAo?$AAf?$AAt@
CONST	SEGMENT
??_C@_1JC@IDDDFBLE@?$AAc?$AA?3?$AA?2?$AAP?$AAr?$AAo?$AAg?$AAr?$AAa?$AAm?$AA?5?$AAF?$AAi?$AAl?$AAe?$AAs?$AA?5?$AA?$CI?$AAx?$AA8?$AA6?$AA?$CJ?$AA?2?$AAM?$AAi?$AAc?$AAr?$AAo?$AAs?$AAo?$AAf?$AAt@ DB 'c'
	DB	00H, ':', 00H, '\', 00H, 'P', 00H, 'r', 00H, 'o', 00H, 'g', 00H
	DB	'r', 00H, 'a', 00H, 'm', 00H, ' ', 00H, 'F', 00H, 'i', 00H, 'l'
	DB	00H, 'e', 00H, 's', 00H, ' ', 00H, '(', 00H, 'x', 00H, '8', 00H
	DB	'6', 00H, ')', 00H, '\', 00H, 'M', 00H, 'i', 00H, 'c', 00H, 'r'
	DB	00H, 'o', 00H, 's', 00H, 'o', 00H, 'f', 00H, 't', 00H, ' ', 00H
	DB	'V', 00H, 'i', 00H, 's', 00H, 'u', 00H, 'a', 00H, 'l', 00H, ' '
	DB	00H, 'S', 00H, 't', 00H, 'u', 00H, 'd', 00H, 'i', 00H, 'o', 00H
	DB	' ', 00H, '1', 00H, '0', 00H, '.', 00H, '0', 00H, '\', 00H, 'V'
	DB	00H, 'C', 00H, '\', 00H, 'i', 00H, 'n', 00H, 'c', 00H, 'l', 00H
	DB	'u', 00H, 'd', 00H, 'e', 00H, '\', 00H, 's', 00H, 't', 00H, 'r'
	DB	00H, 'e', 00H, 'a', 00H, 'm', 00H, 'b', 00H, 'u', 00H, 'f', 00H
	DB	00H, 00H					; `string'
; Function compile flags: /Odtp /RTCsu
CONST	ENDS
;	COMDAT ??D?$istreambuf_iterator@DU?$char_traits@D@std@@@std@@QBEDXZ
_TEXT	SEGMENT
_this$ = -4						; size = 4
??D?$istreambuf_iterator@DU?$char_traits@D@std@@@std@@QBEDXZ PROC ; std::istreambuf_iterator<char,std::char_traits<char> >::operator*, COMDAT
; _this$ = ecx

; 501  : 		{	// return designated value

	push	ebp
	mov	ebp, esp
	push	ecx
	mov	DWORD PTR [ebp-4], -858993460		; ccccccccH
	mov	DWORD PTR _this$[ebp], ecx

; 502  : 		if (!_Got)

	mov	eax, DWORD PTR _this$[ebp]
	movzx	ecx, BYTE PTR [eax+4]
	test	ecx, ecx
	jne	SHORT $LN2@operator@6

; 503  : 			_Peek();

	mov	ecx, DWORD PTR _this$[ebp]
	call	?_Peek@?$istreambuf_iterator@DU?$char_traits@D@std@@@std@@ABEDXZ ; std::istreambuf_iterator<char,std::char_traits<char> >::_Peek
$LN2@operator@6:

; 504  : 
; 505  :  #if _ITERATOR_DEBUG_LEVEL == 2
; 506  : 		if (_Strbuf == 0)

	mov	edx, DWORD PTR _this$[ebp]
	cmp	DWORD PTR [edx], 0
	jne	SHORT $LN1@operator@6

; 507  : 			_DEBUG_ERROR("istreambuf_iterator is not dereferencable");

	push	507					; 000001fbH
	push	OFFSET ??_C@_1JC@IDDDFBLE@?$AAc?$AA?3?$AA?2?$AAP?$AAr?$AAo?$AAg?$AAr?$AAa?$AAm?$AA?5?$AAF?$AAi?$AAl?$AAe?$AAs?$AA?5?$AA?$CI?$AAx?$AA8?$AA6?$AA?$CJ?$AA?2?$AAM?$AAi?$AAc?$AAr?$AAo?$AAs?$AAo?$AAf?$AAt@
	push	OFFSET ??_C@_1FE@NIBPPHHA@?$AAi?$AAs?$AAt?$AAr?$AAe?$AAa?$AAm?$AAb?$AAu?$AAf?$AA_?$AAi?$AAt?$AAe?$AAr?$AAa?$AAt?$AAo?$AAr?$AA?5?$AAi?$AAs?$AA?5?$AAn?$AAo?$AAt?$AA?5?$AAd?$AAe?$AAr?$AAe?$AAf@
	call	?_Debug_message@std@@YAXPB_W0I@Z	; std::_Debug_message
	add	esp, 12					; 0000000cH
$LN1@operator@6:

; 508  :  #endif /* _ITERATOR_DEBUG_LEVEL == 2 */
; 509  : 
; 510  : 		return (_Val);

	mov	eax, DWORD PTR _this$[ebp]
	mov	al, BYTE PTR [eax+5]

; 511  : 		}

	add	esp, 4
	cmp	ebp, esp
	call	__RTC_CheckEsp
	mov	esp, ebp
	pop	ebp
	ret	0
??D?$istreambuf_iterator@DU?$char_traits@D@std@@@std@@QBEDXZ ENDP ; std::istreambuf_iterator<char,std::char_traits<char> >::operator*
_TEXT	ENDS
PUBLIC	?_Inc@?$istreambuf_iterator@DU?$char_traits@D@std@@@std@@AAEXXZ ; std::istreambuf_iterator<char,std::char_traits<char> >::_Inc
PUBLIC	??_C@_1FC@CLFDMKBM@?$AAi?$AAs?$AAt?$AAr?$AAe?$AAa?$AAm?$AAb?$AAu?$AAf?$AA_?$AAi?$AAt?$AAe?$AAr?$AAa?$AAt?$AAo?$AAr?$AA?5?$AAi?$AAs?$AA?5?$AAn?$AAo?$AAt?$AA?5?$AAi?$AAn?$AAc?$AAr?$AAe@ ; `string'
;	COMDAT ??_C@_1FC@CLFDMKBM@?$AAi?$AAs?$AAt?$AAr?$AAe?$AAa?$AAm?$AAb?$AAu?$AAf?$AA_?$AAi?$AAt?$AAe?$AAr?$AAa?$AAt?$AAo?$AAr?$AA?5?$AAi?$AAs?$AA?5?$AAn?$AAo?$AAt?$AA?5?$AAi?$AAn?$AAc?$AAr?$AAe@
CONST	SEGMENT
??_C@_1FC@CLFDMKBM@?$AAi?$AAs?$AAt?$AAr?$AAe?$AAa?$AAm?$AAb?$AAu?$AAf?$AA_?$AAi?$AAt?$AAe?$AAr?$AAa?$AAt?$AAo?$AAr?$AA?5?$AAi?$AAs?$AA?5?$AAn?$AAo?$AAt?$AA?5?$AAi?$AAn?$AAc?$AAr?$AAe@ DB 'i'
	DB	00H, 's', 00H, 't', 00H, 'r', 00H, 'e', 00H, 'a', 00H, 'm', 00H
	DB	'b', 00H, 'u', 00H, 'f', 00H, '_', 00H, 'i', 00H, 't', 00H, 'e'
	DB	00H, 'r', 00H, 'a', 00H, 't', 00H, 'o', 00H, 'r', 00H, ' ', 00H
	DB	'i', 00H, 's', 00H, ' ', 00H, 'n', 00H, 'o', 00H, 't', 00H, ' '
	DB	00H, 'i', 00H, 'n', 00H, 'c', 00H, 'r', 00H, 'e', 00H, 'm', 00H
	DB	'e', 00H, 'n', 00H, 't', 00H, 'a', 00H, 'b', 00H, 'l', 00H, 'e'
	DB	00H, 00H, 00H				; `string'
; Function compile flags: /Odtp /RTCsu
CONST	ENDS
;	COMDAT ??E?$istreambuf_iterator@DU?$char_traits@D@std@@@std@@QAEAAV01@XZ
_TEXT	SEGMENT
_this$ = -4						; size = 4
??E?$istreambuf_iterator@DU?$char_traits@D@std@@@std@@QAEAAV01@XZ PROC ; std::istreambuf_iterator<char,std::char_traits<char> >::operator++, COMDAT
; _this$ = ecx

; 514  : 		{	// preincrement

	push	ebp
	mov	ebp, esp
	push	ecx
	mov	DWORD PTR [ebp-4], -858993460		; ccccccccH
	mov	DWORD PTR _this$[ebp], ecx

; 515  :  #if _ITERATOR_DEBUG_LEVEL == 2
; 516  : 		if (_Strbuf == 0)

	mov	eax, DWORD PTR _this$[ebp]
	cmp	DWORD PTR [eax], 0
	jne	SHORT $LN1@operator@7

; 517  : 			_DEBUG_ERROR("istreambuf_iterator is not incrementable");

	push	517					; 00000205H
	push	OFFSET ??_C@_1JC@IDDDFBLE@?$AAc?$AA?3?$AA?2?$AAP?$AAr?$AAo?$AAg?$AAr?$AAa?$AAm?$AA?5?$AAF?$AAi?$AAl?$AAe?$AAs?$AA?5?$AA?$CI?$AAx?$AA8?$AA6?$AA?$CJ?$AA?2?$AAM?$AAi?$AAc?$AAr?$AAo?$AAs?$AAo?$AAf?$AAt@
	push	OFFSET ??_C@_1FC@CLFDMKBM@?$AAi?$AAs?$AAt?$AAr?$AAe?$AAa?$AAm?$AAb?$AAu?$AAf?$AA_?$AAi?$AAt?$AAe?$AAr?$AAa?$AAt?$AAo?$AAr?$AA?5?$AAi?$AAs?$AA?5?$AAn?$AAo?$AAt?$AA?5?$AAi?$AAn?$AAc?$AAr?$AAe@
	call	?_Debug_message@std@@YAXPB_W0I@Z	; std::_Debug_message
	add	esp, 12					; 0000000cH
$LN1@operator@7:

; 518  :  #endif /* _ITERATOR_DEBUG_LEVEL == 2 */
; 519  : 
; 520  : 		_Inc();

	mov	ecx, DWORD PTR _this$[ebp]
	call	?_Inc@?$istreambuf_iterator@DU?$char_traits@D@std@@@std@@AAEXXZ ; std::istreambuf_iterator<char,std::char_traits<char> >::_Inc

; 521  : 		return (*this);

	mov	eax, DWORD PTR _this$[ebp]

; 522  : 		}

	add	esp, 4
	cmp	ebp, esp
	call	__RTC_CheckEsp
	mov	esp, ebp
	pop	ebp
	ret	0
??E?$istreambuf_iterator@DU?$char_traits@D@std@@@std@@QAEAAV01@XZ ENDP ; std::istreambuf_iterator<char,std::char_traits<char> >::operator++
; Function compile flags: /Odtp /RTCsu
; File c:\program files (x86)\microsoft visual studio 10.0\vc\include\xlocnum
_TEXT	ENDS
;	COMDAT ?decimal_point@?$numpunct@D@std@@QBEDXZ
_TEXT	SEGMENT
_this$ = -4						; size = 4
?decimal_point@?$numpunct@D@std@@QBEDXZ PROC		; std::numpunct<char>::decimal_point, COMDAT
; _this$ = ecx

; 68   : 		{	// return decimal point

	push	ebp
	mov	ebp, esp
	push	ecx
	push	esi
	mov	DWORD PTR [ebp-4], -858993460		; ccccccccH
	mov	DWORD PTR _this$[ebp], ecx

; 69   : 		return (do_decimal_point());

	mov	eax, DWORD PTR _this$[ebp]
	mov	edx, DWORD PTR [eax]
	mov	esi, esp
	mov	ecx, DWORD PTR _this$[ebp]
	mov	eax, DWORD PTR [edx+4]
	call	eax
	cmp	esi, esp
	call	__RTC_CheckEsp

; 70   : 		}

	pop	esi
	add	esp, 4
	cmp	ebp, esp
	call	__RTC_CheckEsp
	mov	esp, ebp
	pop	ebp
	ret	0
?decimal_point@?$numpunct@D@std@@QBEDXZ ENDP		; std::numpunct<char>::decimal_point
; Function compile flags: /Odtp /RTCsu
_TEXT	ENDS
;	COMDAT ?thousands_sep@?$numpunct@D@std@@QBEDXZ
_TEXT	SEGMENT
_this$ = -4						; size = 4
?thousands_sep@?$numpunct@D@std@@QBEDXZ PROC		; std::numpunct<char>::thousands_sep, COMDAT
; _this$ = ecx

; 73   : 		{	// return thousands separator

	push	ebp
	mov	ebp, esp
	push	ecx
	push	esi
	mov	DWORD PTR [ebp-4], -858993460		; ccccccccH
	mov	DWORD PTR _this$[ebp], ecx

; 74   : 		return (do_thousands_sep());

	mov	eax, DWORD PTR _this$[ebp]
	mov	edx, DWORD PTR [eax]
	mov	esi, esp
	mov	ecx, DWORD PTR _this$[ebp]
	mov	eax, DWORD PTR [edx+8]
	call	eax
	cmp	esi, esp
	call	__RTC_CheckEsp

; 75   : 		}

	pop	esi
	add	esp, 4
	cmp	ebp, esp
	call	__RTC_CheckEsp
	mov	esp, ebp
	pop	ebp
	ret	0
?thousands_sep@?$numpunct@D@std@@QBEDXZ ENDP		; std::numpunct<char>::thousands_sep
; Function compile flags: /Odtp /RTCsu
_TEXT	ENDS
;	COMDAT ?grouping@?$numpunct@D@std@@QBE?AV?$basic_string@DU?$char_traits@D@std@@V?$allocator@D@2@@2@XZ
_TEXT	SEGMENT
$T142051 = -8						; size = 4
_this$ = -4						; size = 4
___$ReturnUdt$ = 8					; size = 4
?grouping@?$numpunct@D@std@@QBE?AV?$basic_string@DU?$char_traits@D@std@@V?$allocator@D@2@@2@XZ PROC ; std::numpunct<char>::grouping, COMDAT
; _this$ = ecx

; 78   : 		{	// return grouping string

	push	ebp
	mov	ebp, esp
	sub	esp, 8
	push	esi
	mov	DWORD PTR [ebp-8], -858993460		; ccccccccH
	mov	DWORD PTR [ebp-4], -858993460		; ccccccccH
	mov	DWORD PTR _this$[ebp], ecx
	mov	DWORD PTR $T142051[ebp], 0

; 79   : 		return (do_grouping());

	mov	esi, esp
	mov	eax, DWORD PTR ___$ReturnUdt$[ebp]
	push	eax
	mov	ecx, DWORD PTR _this$[ebp]
	mov	edx, DWORD PTR [ecx]
	mov	ecx, DWORD PTR _this$[ebp]
	mov	eax, DWORD PTR [edx+12]
	call	eax
	cmp	esi, esp
	call	__RTC_CheckEsp
	mov	ecx, DWORD PTR $T142051[ebp]
	or	ecx, 1
	mov	DWORD PTR $T142051[ebp], ecx
	mov	eax, DWORD PTR ___$ReturnUdt$[ebp]

; 80   : 		}

	pop	esi
	add	esp, 8
	cmp	ebp, esp
	call	__RTC_CheckEsp
	mov	esp, ebp
	pop	ebp
	ret	4
?grouping@?$numpunct@D@std@@QBE?AV?$basic_string@DU?$char_traits@D@std@@V?$allocator@D@2@@2@XZ ENDP ; std::numpunct<char>::grouping
; Function compile flags: /Odtp /RTCsu
_TEXT	ENDS
;	COMDAT ?_Hexdig@?$num_get@DV?$istreambuf_iterator@DU?$char_traits@D@std@@@std@@@std@@ABAHDDDD@Z
_TEXT	SEGMENT
_this$ = 8						; size = 4
__Dig$ = 12						; size = 1
__E0$ = 16						; size = 1
__Al$ = 20						; size = 1
__Au$ = 24						; size = 1
?_Hexdig@?$num_get@DV?$istreambuf_iterator@DU?$char_traits@D@std@@@std@@@std@@ABAHDDDD@Z PROC ; std::num_get<char,std::istreambuf_iterator<char,std::char_traits<char> > >::_Hexdig, COMDAT

; 864  : 		{	// convert hex digit

	push	ebp
	mov	ebp, esp

; 865  : 		if (_E0 <= _Dig && _Dig <= _E0 + 9)

	movsx	eax, BYTE PTR __E0$[ebp]
	movsx	ecx, BYTE PTR __Dig$[ebp]
	cmp	eax, ecx
	jg	SHORT $LN6@Hexdig
	movsx	edx, BYTE PTR __Dig$[ebp]
	movsx	eax, BYTE PTR __E0$[ebp]
	add	eax, 9
	cmp	edx, eax
	jg	SHORT $LN6@Hexdig

; 866  : 			return (_Dig - _E0);	// assume 0-9 contiguous (C Standard)

	movsx	eax, BYTE PTR __Dig$[ebp]
	movsx	ecx, BYTE PTR __E0$[ebp]
	sub	eax, ecx
	jmp	SHORT $LN7@Hexdig
	jmp	SHORT $LN7@Hexdig
$LN6@Hexdig:

; 867  : 		else if (_Al <= _Dig && _Dig <= _Al + 5)

	movsx	edx, BYTE PTR __Al$[ebp]
	movsx	eax, BYTE PTR __Dig$[ebp]
	cmp	edx, eax
	jg	SHORT $LN4@Hexdig
	movsx	ecx, BYTE PTR __Dig$[ebp]
	movsx	edx, BYTE PTR __Al$[ebp]
	add	edx, 5
	cmp	ecx, edx
	jg	SHORT $LN4@Hexdig

; 868  : 			return (_Dig - _Al + 10);	// assume a-f contiguous

	movsx	eax, BYTE PTR __Dig$[ebp]
	movsx	ecx, BYTE PTR __Al$[ebp]
	sub	eax, ecx
	add	eax, 10					; 0000000aH
	jmp	SHORT $LN7@Hexdig
	jmp	SHORT $LN7@Hexdig
$LN4@Hexdig:

; 869  : 		else if (_Au <= _Dig && _Dig <= _Au + 5)

	movsx	edx, BYTE PTR __Au$[ebp]
	movsx	eax, BYTE PTR __Dig$[ebp]
	cmp	edx, eax
	jg	SHORT $LN2@Hexdig
	movsx	ecx, BYTE PTR __Dig$[ebp]
	movsx	edx, BYTE PTR __Au$[ebp]
	add	edx, 5
	cmp	ecx, edx
	jg	SHORT $LN2@Hexdig

; 870  : 			return (_Dig - _Au + 10);	// assume A-F contiguous

	movsx	eax, BYTE PTR __Dig$[ebp]
	movsx	ecx, BYTE PTR __Au$[ebp]
	sub	eax, ecx
	add	eax, 10					; 0000000aH
	jmp	SHORT $LN7@Hexdig

; 871  : 		else

	jmp	SHORT $LN7@Hexdig
$LN2@Hexdig:

; 872  : 			return (-1);

	or	eax, -1
$LN7@Hexdig:

; 873  : 		}

	pop	ebp
	ret	0
?_Hexdig@?$num_get@DV?$istreambuf_iterator@DU?$char_traits@D@std@@@std@@@std@@ABAHDDDD@Z ENDP ; std::num_get<char,std::istreambuf_iterator<char,std::char_traits<char> > >::_Hexdig
; Function compile flags: /Odtp /RTCsu
; File c:\program files (x86)\microsoft visual studio 10.0\vc\include\streambuf
_TEXT	ENDS
;	COMDAT ?_Inc@?$istreambuf_iterator@DU?$char_traits@D@std@@@std@@AAEXXZ
_TEXT	SEGMENT
$T142058 = -12						; size = 4
$T142057 = -8						; size = 4
_this$ = -4						; size = 4
?_Inc@?$istreambuf_iterator@DU?$char_traits@D@std@@@std@@AAEXXZ PROC ; std::istreambuf_iterator<char,std::char_traits<char> >::_Inc, COMDAT
; _this$ = ecx

; 545  : 		{	// skip to next input element

	push	ebp
	mov	ebp, esp
	sub	esp, 12					; 0000000cH
	mov	DWORD PTR [ebp-12], -858993460		; ccccccccH
	mov	DWORD PTR [ebp-8], -858993460		; ccccccccH
	mov	DWORD PTR [ebp-4], -858993460		; ccccccccH
	mov	DWORD PTR _this$[ebp], ecx

; 546  : 		if (_Strbuf == 0
; 547  : 			|| traits_type::eq_int_type(traits_type::eof(),
; 548  : 				_Strbuf->sbumpc()))

	mov	eax, DWORD PTR _this$[ebp]
	cmp	DWORD PTR [eax], 0
	je	SHORT $LN2@Inc
	mov	ecx, DWORD PTR _this$[ebp]
	mov	ecx, DWORD PTR [ecx]
	call	?sbumpc@?$basic_streambuf@DU?$char_traits@D@std@@@std@@QAEHXZ ; std::basic_streambuf<char,std::char_traits<char> >::sbumpc
	mov	DWORD PTR $T142057[ebp], eax
	call	?eof@?$char_traits@D@std@@SAHXZ		; std::char_traits<char>::eof
	mov	DWORD PTR $T142058[ebp], eax
	lea	edx, DWORD PTR $T142057[ebp]
	push	edx
	lea	eax, DWORD PTR $T142058[ebp]
	push	eax
	call	?eq_int_type@?$char_traits@D@std@@SA_NABH0@Z ; std::char_traits<char>::eq_int_type
	add	esp, 8
	movzx	ecx, al
	test	ecx, ecx
	je	SHORT $LN3@Inc
$LN2@Inc:

; 549  : 			_Strbuf = 0, _Got = true;

	mov	edx, DWORD PTR _this$[ebp]
	mov	DWORD PTR [edx], 0
	mov	eax, DWORD PTR _this$[ebp]
	mov	BYTE PTR [eax+4], 1

; 550  : 		else

	jmp	SHORT $LN4@Inc
$LN3@Inc:

; 551  : 			_Got = false;

	mov	ecx, DWORD PTR _this$[ebp]
	mov	BYTE PTR [ecx+4], 0
$LN4@Inc:

; 552  : 		}

	add	esp, 12					; 0000000cH
	cmp	ebp, esp
	call	__RTC_CheckEsp
	mov	esp, ebp
	pop	ebp
	ret	0
?_Inc@?$istreambuf_iterator@DU?$char_traits@D@std@@@std@@AAEXXZ ENDP ; std::istreambuf_iterator<char,std::char_traits<char> >::_Inc
; Function compile flags: /Odtp /RTCsu
_TEXT	ENDS
;	COMDAT ?_Peek@?$istreambuf_iterator@DU?$char_traits@D@std@@@std@@ABEDXZ
_TEXT	SEGMENT
$T142061 = -20						; size = 4
__Meta$ = -12						; size = 4
_this$ = -4						; size = 4
?_Peek@?$istreambuf_iterator@DU?$char_traits@D@std@@@std@@ABEDXZ PROC ; std::istreambuf_iterator<char,std::char_traits<char> >::_Peek, COMDAT
; _this$ = ecx

; 555  : 		{	// peek at next input element

	push	ebp
	mov	ebp, esp
	sub	esp, 20					; 00000014H
	mov	eax, -858993460				; ccccccccH
	mov	DWORD PTR [ebp-20], eax
	mov	DWORD PTR [ebp-16], eax
	mov	DWORD PTR [ebp-12], eax
	mov	DWORD PTR [ebp-8], eax
	mov	DWORD PTR [ebp-4], eax
	mov	DWORD PTR _this$[ebp], ecx

; 556  : 		int_type _Meta;
; 557  : 		if (_Strbuf == 0
; 558  : 			|| traits_type::eq_int_type(traits_type::eof(),
; 559  : 				_Meta = _Strbuf->sgetc()))

	mov	eax, DWORD PTR _this$[ebp]
	cmp	DWORD PTR [eax], 0
	je	SHORT $LN2@Peek
	mov	ecx, DWORD PTR _this$[ebp]
	mov	ecx, DWORD PTR [ecx]
	call	?sgetc@?$basic_streambuf@DU?$char_traits@D@std@@@std@@QAEHXZ ; std::basic_streambuf<char,std::char_traits<char> >::sgetc
	mov	DWORD PTR __Meta$[ebp], eax
	call	?eof@?$char_traits@D@std@@SAHXZ		; std::char_traits<char>::eof
	mov	DWORD PTR $T142061[ebp], eax
	lea	edx, DWORD PTR __Meta$[ebp]
	push	edx
	lea	eax, DWORD PTR $T142061[ebp]
	push	eax
	call	?eq_int_type@?$char_traits@D@std@@SA_NABH0@Z ; std::char_traits<char>::eq_int_type
	add	esp, 8
	movzx	ecx, al
	test	ecx, ecx
	je	SHORT $LN3@Peek
$LN2@Peek:

; 560  : 			_Strbuf = 0;

	mov	edx, DWORD PTR _this$[ebp]
	mov	DWORD PTR [edx], 0

; 561  : 		else

	jmp	SHORT $LN1@Peek
$LN3@Peek:

; 562  : 			_Val = traits_type::to_char_type(_Meta);

	lea	eax, DWORD PTR __Meta$[ebp]
	push	eax
	call	?to_char_type@?$char_traits@D@std@@SADABH@Z ; std::char_traits<char>::to_char_type
	add	esp, 4
	mov	ecx, DWORD PTR _this$[ebp]
	mov	BYTE PTR [ecx+5], al
$LN1@Peek:

; 563  : 		_Got = true;

	mov	edx, DWORD PTR _this$[ebp]
	mov	BYTE PTR [edx+4], 1

; 564  : 		return (_Val);

	mov	eax, DWORD PTR _this$[ebp]
	mov	al, BYTE PTR [eax+5]

; 565  : 		}

	push	edx
	mov	ecx, ebp
	push	eax
	lea	edx, DWORD PTR $LN8@Peek
	call	@_RTC_CheckStackVars@8
	pop	eax
	pop	edx
	add	esp, 20					; 00000014H
	cmp	ebp, esp
	call	__RTC_CheckEsp
	mov	esp, ebp
	pop	ebp
	ret	0
	npad	2
$LN8@Peek:
	DD	1
	DD	$LN7@Peek
$LN7@Peek:
	DD	-12					; fffffff4H
	DD	4
	DD	$LN6@Peek
$LN6@Peek:
	DB	95					; 0000005fH
	DB	77					; 0000004dH
	DB	101					; 00000065H
	DB	116					; 00000074H
	DB	97					; 00000061H
	DB	0
?_Peek@?$istreambuf_iterator@DU?$char_traits@D@std@@@std@@ABEDXZ ENDP ; std::istreambuf_iterator<char,std::char_traits<char> >::_Peek
_TEXT	ENDS
PUBLIC	??$_Debug_range2@V?$istreambuf_iterator@DU?$char_traits@D@std@@@std@@@std@@YAXV?$istreambuf_iterator@DU?$char_traits@D@std@@@0@0PB_WIUinput_iterator_tag@0@@Z ; std::_Debug_range2<std::istreambuf_iterator<char,std::char_traits<char> > >
PUBLIC	??$_Iter_cat@V?$istreambuf_iterator@DU?$char_traits@D@std@@@std@@@std@@YA?AUinput_iterator_tag@0@ABV?$istreambuf_iterator@DU?$char_traits@D@std@@@0@@Z ; std::_Iter_cat<std::istreambuf_iterator<char,std::char_traits<char> > >
; Function compile flags: /Odtp /RTCsu
; File c:\program files (x86)\microsoft visual studio 10.0\vc\include\xutility
;	COMDAT ??$_Debug_range@V?$istreambuf_iterator@DU?$char_traits@D@std@@@std@@@std@@YAXV?$istreambuf_iterator@DU?$char_traits@D@std@@@0@0PB_WI@Z
_TEXT	SEGMENT
$T142067 = -1						; size = 1
__First$ = 8						; size = 8
__Last$ = 16						; size = 8
__File$ = 24						; size = 4
__Line$ = 28						; size = 4
??$_Debug_range@V?$istreambuf_iterator@DU?$char_traits@D@std@@@std@@@std@@YAXV?$istreambuf_iterator@DU?$char_traits@D@std@@@0@0PB_WI@Z PROC ; std::_Debug_range<std::istreambuf_iterator<char,std::char_traits<char> > >, COMDAT

; 739  : 	{	// test iterator pair for valid range

	push	ebp
	mov	ebp, esp
	push	ecx
	mov	DWORD PTR [ebp-4], -858993460		; ccccccccH

; 740  : 	_Debug_range2(_First, _Last, _File, _Line, _Iter_cat(_First));

	lea	eax, DWORD PTR __First$[ebp]
	push	eax
	call	??$_Iter_cat@V?$istreambuf_iterator@DU?$char_traits@D@std@@@std@@@std@@YA?AUinput_iterator_tag@0@ABV?$istreambuf_iterator@DU?$char_traits@D@std@@@0@@Z ; std::_Iter_cat<std::istreambuf_iterator<char,std::char_traits<char> > >
	add	esp, 4
	mov	BYTE PTR $T142067[ebp], al
	movzx	ecx, BYTE PTR $T142067[ebp]
	push	ecx
	mov	edx, DWORD PTR __Line$[ebp]
	push	edx
	mov	eax, DWORD PTR __File$[ebp]
	push	eax
	mov	ecx, DWORD PTR __Last$[ebp+4]
	push	ecx
	mov	edx, DWORD PTR __Last$[ebp]
	push	edx
	mov	eax, DWORD PTR __First$[ebp+4]
	push	eax
	mov	ecx, DWORD PTR __First$[ebp]
	push	ecx
	call	??$_Debug_range2@V?$istreambuf_iterator@DU?$char_traits@D@std@@@std@@@std@@YAXV?$istreambuf_iterator@DU?$char_traits@D@std@@@0@0PB_WIUinput_iterator_tag@0@@Z ; std::_Debug_range2<std::istreambuf_iterator<char,std::char_traits<char> > >
	add	esp, 28					; 0000001cH

; 741  : 	}

	add	esp, 4
	cmp	ebp, esp
	call	__RTC_CheckEsp
	mov	esp, ebp
	pop	ebp
	ret	0
??$_Debug_range@V?$istreambuf_iterator@DU?$char_traits@D@std@@@std@@@std@@YAXV?$istreambuf_iterator@DU?$char_traits@D@std@@@0@0PB_WI@Z ENDP ; std::_Debug_range<std::istreambuf_iterator<char,std::char_traits<char> > >
_TEXT	ENDS
PUBLIC	?_Getcat@?$numpunct@D@std@@SAIPAPBVfacet@locale@2@PBV42@@Z ; std::numpunct<char>::_Getcat
PUBLIC	?_Psave@?$_Facetptr@V?$numpunct@D@std@@@std@@2PBVfacet@locale@2@B ; std::_Facetptr<std::numpunct<char> >::_Psave
;	COMDAT ?_Psave@?$_Facetptr@V?$numpunct@D@std@@@std@@2PBVfacet@locale@2@B
; File c:\program files (x86)\microsoft visual studio 10.0\vc\include\xlocale
_BSS	SEGMENT
?_Psave@?$_Facetptr@V?$numpunct@D@std@@@std@@2PBVfacet@locale@2@B DD 01H DUP (?) ; std::_Facetptr<std::numpunct<char> >::_Psave
_BSS	ENDS
;	COMDAT xdata$x
xdata$x	SEGMENT
__unwindtable$??$use_facet@V?$numpunct@D@std@@@std@@YAABV?$numpunct@D@0@ABVlocale@0@@Z DD 0ffffffffH
	DD	FLAT:__unwindfunclet$??$use_facet@V?$numpunct@D@std@@@std@@YAABV?$numpunct@D@0@ABVlocale@0@@Z$0
__ehfuncinfo$??$use_facet@V?$numpunct@D@std@@@std@@YAABV?$numpunct@D@0@ABVlocale@0@@Z DD 019930522H
	DD	01H
	DD	FLAT:__unwindtable$??$use_facet@V?$numpunct@D@std@@@std@@YAABV?$numpunct@D@0@ABVlocale@0@@Z
	DD	2 DUP(00H)
	DD	2 DUP(00H)
	DD	00H
	DD	01H
; Function compile flags: /Odtp /RTCsu
xdata$x	ENDS
;	COMDAT ??$use_facet@V?$numpunct@D@std@@@std@@YAABV?$numpunct@D@0@ABVlocale@0@@Z
_TEXT	SEGMENT
$T142071 = -64						; size = 4
$T142070 = -60						; size = 12
__Pfmod$137006 = -48					; size = 4
__Pf$136995 = -44					; size = 4
__Id$136994 = -40					; size = 4
__Psave$136982 = -32					; size = 4
__Lock$136981 = -20					; size = 4
__$EHRec$ = -12						; size = 12
__Loc$ = 8						; size = 4
??$use_facet@V?$numpunct@D@std@@@std@@YAABV?$numpunct@D@0@ABVlocale@0@@Z PROC ; std::use_facet<std::numpunct<char> >, COMDAT

; 504  : 	{	// get facet reference from locale

	push	ebp
	mov	ebp, esp
	push	-1
	push	__ehhandler$??$use_facet@V?$numpunct@D@std@@@std@@YAABV?$numpunct@D@0@ABVlocale@0@@Z
	mov	eax, DWORD PTR fs:0
	push	eax
	sub	esp, 52					; 00000034H
	push	edi
	lea	edi, DWORD PTR [ebp-64]
	mov	ecx, 13					; 0000000dH
	mov	eax, -858993460				; ccccccccH
	rep stosd
	mov	eax, DWORD PTR ___security_cookie
	xor	eax, ebp
	push	eax
	lea	eax, DWORD PTR __$EHRec$[ebp]
	mov	DWORD PTR fs:0, eax

; 505  : 	_BEGIN_LOCK(_LOCK_LOCALE)	// the thread lock, make get atomic

	push	0
	lea	ecx, DWORD PTR __Lock$136981[ebp]
	call	??0_Lockit@std@@QAE@H@Z			; std::_Lockit::_Lockit
	mov	DWORD PTR __$EHRec$[ebp+8], 0

; 506  : 		const locale::facet *_Psave =
; 507  : 			_Facetptr<_Facet>::_Psave;	// static pointer to lazy facet

	mov	eax, DWORD PTR ?_Psave@?$_Facetptr@V?$numpunct@D@std@@@std@@2PBVfacet@locale@2@B ; std::_Facetptr<std::numpunct<char> >::_Psave
	mov	DWORD PTR __Psave$136982[ebp], eax

; 508  : 
; 509  : 		size_t _Id = _Facet::id;

	mov	ecx, OFFSET ?id@?$numpunct@D@std@@2V0locale@2@A ; std::numpunct<char>::id
	call	??Bid@locale@std@@QAEIXZ		; std::locale::id::operator unsigned int
	mov	DWORD PTR __Id$136994[ebp], eax

; 510  : 		const locale::facet *_Pf = _Loc._Getfacet(_Id);

	mov	ecx, DWORD PTR __Id$136994[ebp]
	push	ecx
	mov	ecx, DWORD PTR __Loc$[ebp]
	call	?_Getfacet@locale@std@@QBEPBVfacet@12@I@Z ; std::locale::_Getfacet
	mov	DWORD PTR __Pf$136995[ebp], eax

; 511  : 
; 512  : 		if (_Pf != 0)

	cmp	DWORD PTR __Pf$136995[ebp], 0
	je	SHORT $LN6@use_facet@3
	jmp	SHORT $LN5@use_facet@3
$LN6@use_facet@3:

; 513  : 			;	// got facet from locale
; 514  : 		else if (_Psave != 0)

	cmp	DWORD PTR __Psave$136982[ebp], 0
	je	SHORT $LN4@use_facet@3

; 515  : 			_Pf = _Psave;	// lazy facet already allocated

	mov	edx, DWORD PTR __Psave$136982[ebp]
	mov	DWORD PTR __Pf$136995[ebp], edx
	jmp	SHORT $LN5@use_facet@3
$LN4@use_facet@3:

; 516  : 		else if (_Facet::_Getcat(&_Psave, &_Loc) == (size_t)(-1))

	mov	eax, DWORD PTR __Loc$[ebp]
	push	eax
	lea	ecx, DWORD PTR __Psave$136982[ebp]
	push	ecx
	call	?_Getcat@?$numpunct@D@std@@SAIPAPBVfacet@locale@2@PBV42@@Z ; std::numpunct<char>::_Getcat
	add	esp, 8
	cmp	eax, -1
	jne	SHORT $LN2@use_facet@3

; 517  : 
; 518  :  #if _HAS_EXCEPTIONS
; 519  : 
; 520  : 			_THROW_NCEE(bad_cast, _EMPTY_ARGUMENT);	// lazy disallowed

	push	OFFSET ??_C@_08EPJLHIJG@bad?5cast?$AA@
	lea	ecx, DWORD PTR $T142070[ebp]
	call	??0bad_cast@std@@QAE@PBD@Z		; std::bad_cast::bad_cast
	push	OFFSET __TI2?AVbad_cast@std@@
	lea	edx, DWORD PTR $T142070[ebp]
	push	edx
	call	__CxxThrowException@8

; 521  : 
; 522  :  #else /* _HAS_EXCEPTIONS */
; 523  : 			abort();	// lazy disallowed
; 524  :  #endif /* _HAS_EXCEPTIONS */
; 525  : 
; 526  : 		else

	jmp	SHORT $LN5@use_facet@3
$LN2@use_facet@3:

; 527  : 			{	// queue up lazy facet for destruction
; 528  : 			_Pf = _Psave;

	mov	eax, DWORD PTR __Psave$136982[ebp]
	mov	DWORD PTR __Pf$136995[ebp], eax

; 529  : 			_Facetptr<_Facet>::_Psave = _Psave;

	mov	ecx, DWORD PTR __Psave$136982[ebp]
	mov	DWORD PTR ?_Psave@?$_Facetptr@V?$numpunct@D@std@@@std@@2PBVfacet@locale@2@B, ecx ; std::_Facetptr<std::numpunct<char> >::_Psave

; 530  : 
; 531  : 			locale::facet *_Pfmod = (_Facet *)_Psave;

	mov	edx, DWORD PTR __Psave$136982[ebp]
	mov	DWORD PTR __Pfmod$137006[ebp], edx

; 532  : 			_Pfmod->_Incref();

	mov	ecx, DWORD PTR __Pfmod$137006[ebp]
	call	?_Incref@facet@locale@std@@QAEXXZ	; std::locale::facet::_Incref

; 533  : 			_Pfmod->_Register();

	mov	ecx, DWORD PTR __Pfmod$137006[ebp]
	call	?_Register@facet@locale@std@@QAEXXZ	; std::locale::facet::_Register
$LN5@use_facet@3:

; 534  : 			}
; 535  : 
; 536  : 		return ((const _Facet&)(*_Pf));	// should be dynamic_cast

	mov	eax, DWORD PTR __Pf$136995[ebp]
	mov	DWORD PTR $T142071[ebp], eax
	mov	DWORD PTR __$EHRec$[ebp+8], -1
	lea	ecx, DWORD PTR __Lock$136981[ebp]
	call	??1_Lockit@std@@QAE@XZ			; std::_Lockit::~_Lockit
	mov	eax, DWORD PTR $T142071[ebp]
$LN8@use_facet@3:

; 537  : 	_END_LOCK()
; 538  : 	}

	push	edx
	mov	ecx, ebp
	push	eax
	lea	edx, DWORD PTR $LN14@use_facet@3
	call	@_RTC_CheckStackVars@8
	pop	eax
	pop	edx
	mov	ecx, DWORD PTR __$EHRec$[ebp]
	mov	DWORD PTR fs:0, ecx
	pop	ecx
	pop	edi
	add	esp, 64					; 00000040H
	cmp	ebp, esp
	call	__RTC_CheckEsp
	mov	esp, ebp
	pop	ebp
	ret	0
	npad	2
$LN14@use_facet@3:
	DD	2
	DD	$LN13@use_facet@3
$LN13@use_facet@3:
	DD	-20					; ffffffecH
	DD	4
	DD	$LN10@use_facet@3
	DD	-32					; ffffffe0H
	DD	4
	DD	$LN11@use_facet@3
$LN11@use_facet@3:
	DB	95					; 0000005fH
	DB	80					; 00000050H
	DB	115					; 00000073H
	DB	97					; 00000061H
	DB	118					; 00000076H
	DB	101					; 00000065H
	DB	0
$LN10@use_facet@3:
	DB	95					; 0000005fH
	DB	76					; 0000004cH
	DB	111					; 0000006fH
	DB	99					; 00000063H
	DB	107					; 0000006bH
	DB	0
_TEXT	ENDS
;	COMDAT text$x
text$x	SEGMENT
__unwindfunclet$??$use_facet@V?$numpunct@D@std@@@std@@YAABV?$numpunct@D@0@ABVlocale@0@@Z$0:
	lea	ecx, DWORD PTR __Lock$136981[ebp]
	jmp	??1_Lockit@std@@QAE@XZ			; std::_Lockit::~_Lockit
__ehhandler$??$use_facet@V?$numpunct@D@std@@@std@@YAABV?$numpunct@D@0@ABVlocale@0@@Z:
	mov	edx, DWORD PTR [esp+8]
	lea	eax, DWORD PTR [edx+12]
	mov	ecx, DWORD PTR [edx-60]
	xor	ecx, eax
	call	@__security_check_cookie@4
	mov	eax, OFFSET __ehfuncinfo$??$use_facet@V?$numpunct@D@std@@@std@@YAABV?$numpunct@D@0@ABVlocale@0@@Z
	jmp	___CxxFrameHandler3
text$x	ENDS
??$use_facet@V?$numpunct@D@std@@@std@@YAABV?$numpunct@D@0@ABVlocale@0@@Z ENDP ; std::use_facet<std::numpunct<char> >
PUBLIC	__$ArrayPad$
;	COMDAT xdata$x
xdata$x	SEGMENT
__unwindtable$??$_Getloctxt@DV?$istreambuf_iterator@DU?$char_traits@D@std@@@std@@@std@@YAHAAV?$istreambuf_iterator@DU?$char_traits@D@std@@@0@0IPBD@Z DD 0ffffffffH
	DD	FLAT:__unwindfunclet$??$_Getloctxt@DV?$istreambuf_iterator@DU?$char_traits@D@std@@@std@@@std@@YAHAAV?$istreambuf_iterator@DU?$char_traits@D@std@@@0@0IPBD@Z$0
__ehfuncinfo$??$_Getloctxt@DV?$istreambuf_iterator@DU?$char_traits@D@std@@@std@@@std@@YAHAAV?$istreambuf_iterator@DU?$char_traits@D@std@@@0@0IPBD@Z DD 019930522H
	DD	01H
	DD	FLAT:__unwindtable$??$_Getloctxt@DV?$istreambuf_iterator@DU?$char_traits@D@std@@@std@@@std@@YAHAAV?$istreambuf_iterator@DU?$char_traits@D@std@@@0@0IPBD@Z
	DD	2 DUP(00H)
	DD	2 DUP(00H)
	DD	00H
	DD	01H
; Function compile flags: /Odtp /RTCsu
xdata$x	ENDS
;	COMDAT ??$_Getloctxt@DV?$istreambuf_iterator@DU?$char_traits@D@std@@@std@@@std@@YAHAAV?$istreambuf_iterator@DU?$char_traits@D@std@@@0@0IPBD@Z
_TEXT	SEGMENT
tv161 = -92						; size = 4
tv144 = -88						; size = 4
$T142091 = -84						; size = 4
__Field$137025 = -80					; size = 4
__Off$137024 = -76					; size = 4
__Prefix$137023 = -69					; size = 1
__Column$137019 = -68					; size = 4
__Ans$ = -64						; size = 4
__Str$ = -56						; size = 32
__Off$137011 = -20					; size = 4
__$ArrayPad$ = -16					; size = 4
__$EHRec$ = -12						; size = 12
__First$ = 8						; size = 4
__Last$ = 12						; size = 4
__Numfields$ = 16					; size = 4
__Ptr$ = 20						; size = 4
??$_Getloctxt@DV?$istreambuf_iterator@DU?$char_traits@D@std@@@std@@@std@@YAHAAV?$istreambuf_iterator@DU?$char_traits@D@std@@@0@0IPBD@Z PROC ; std::_Getloctxt<char,std::istreambuf_iterator<char,std::char_traits<char> > >, COMDAT

; 545  : 	{	// find field at _Ptr that matches longest in [_First, _Last)

	push	ebp
	mov	ebp, esp
	push	-1
	push	__ehhandler$??$_Getloctxt@DV?$istreambuf_iterator@DU?$char_traits@D@std@@@std@@@std@@YAHAAV?$istreambuf_iterator@DU?$char_traits@D@std@@@0@0IPBD@Z
	mov	eax, DWORD PTR fs:0
	push	eax
	sub	esp, 80					; 00000050H
	push	esi
	push	edi
	lea	edi, DWORD PTR [ebp-92]
	mov	ecx, 20					; 00000014H
	mov	eax, -858993460				; ccccccccH
	rep stosd
	mov	eax, DWORD PTR ___security_cookie
	xor	eax, ebp
	mov	DWORD PTR __$ArrayPad$[ebp], eax
	push	eax
	lea	eax, DWORD PTR __$EHRec$[ebp]
	mov	DWORD PTR fs:0, eax

; 546  : 	for (size_t _Off = 0; _Ptr[_Off] != (_Elem)0; ++_Off)

	mov	DWORD PTR __Off$137011[ebp], 0
	jmp	SHORT $LN23@Getloctxt
$LN22@Getloctxt:
	mov	eax, DWORD PTR __Off$137011[ebp]
	add	eax, 1
	mov	DWORD PTR __Off$137011[ebp], eax
$LN23@Getloctxt:
	mov	ecx, DWORD PTR __Ptr$[ebp]
	add	ecx, DWORD PTR __Off$137011[ebp]
	movsx	edx, BYTE PTR [ecx]
	test	edx, edx
	je	SHORT $LN21@Getloctxt

; 547  : 		if (_Ptr[_Off] == _Ptr[0])

	mov	eax, DWORD PTR __Ptr$[ebp]
	add	eax, DWORD PTR __Off$137011[ebp]
	movsx	ecx, BYTE PTR [eax]
	mov	edx, DWORD PTR __Ptr$[ebp]
	movsx	eax, BYTE PTR [edx]
	cmp	ecx, eax
	jne	SHORT $LN20@Getloctxt

; 548  : 			++_Numfields;	// add fields with leading mark to initial count

	mov	ecx, DWORD PTR __Numfields$[ebp]
	add	ecx, 1
	mov	DWORD PTR __Numfields$[ebp], ecx
$LN20@Getloctxt:

; 549  : 	string _Str(_Numfields, '\0');	// one column counter for each field

	jmp	SHORT $LN22@Getloctxt
$LN21@Getloctxt:
	push	0
	mov	edx, DWORD PTR __Numfields$[ebp]
	push	edx
	lea	ecx, DWORD PTR __Str$[ebp]
	call	??0?$basic_string@DU?$char_traits@D@std@@V?$allocator@D@2@@std@@QAE@ID@Z ; std::basic_string<char,std::char_traits<char>,std::allocator<char> >::basic_string<char,std::char_traits<char>,std::allocator<char> >
	mov	DWORD PTR __$EHRec$[ebp+8], 0

; 550  : 
; 551  : 	int _Ans = -2;	// no candidates so far

	mov	DWORD PTR __Ans$[ebp], -2		; fffffffeH

; 552  : 	for (size_t _Column = 1; ; ++_Column, ++_First, _Ans = -1)

	mov	DWORD PTR __Column$137019[ebp], 1
	jmp	SHORT $LN19@Getloctxt
$LN18@Getloctxt:
	mov	eax, DWORD PTR __Column$137019[ebp]
	add	eax, 1
	mov	DWORD PTR __Column$137019[ebp], eax
	mov	ecx, DWORD PTR __First$[ebp]
	call	??E?$istreambuf_iterator@DU?$char_traits@D@std@@@std@@QAEAAV01@XZ ; std::istreambuf_iterator<char,std::char_traits<char> >::operator++
	mov	DWORD PTR __Ans$[ebp], -1
$LN19@Getloctxt:

; 553  : 		{	// test each element against all viable fields
; 554  : 		bool _Prefix = false;	// seen at least one valid prefix

	mov	BYTE PTR __Prefix$137023[ebp], 0

; 555  : 		size_t _Off = 0;	// offset into fields

	mov	DWORD PTR __Off$137024[ebp], 0

; 556  : 		size_t _Field = 0;	// current field number

	mov	DWORD PTR __Field$137025[ebp], 0

; 557  : 
; 558  : 		for (; _Field < _Numfields; ++_Field)

	jmp	SHORT $LN16@Getloctxt
$LN15@Getloctxt:
	mov	ecx, DWORD PTR __Field$137025[ebp]
	add	ecx, 1
	mov	DWORD PTR __Field$137025[ebp], ecx
$LN16@Getloctxt:
	mov	edx, DWORD PTR __Field$137025[ebp]
	cmp	edx, DWORD PTR __Numfields$[ebp]
	jae	$LN14@Getloctxt

; 559  : 			{	// test element at _Column in field _Field
; 560  : 			for (; _Ptr[_Off] != (_Elem)0 && _Ptr[_Off] != _Ptr[0]; ++_Off)

	jmp	SHORT $LN13@Getloctxt
$LN12@Getloctxt:
	mov	eax, DWORD PTR __Off$137024[ebp]
	add	eax, 1
	mov	DWORD PTR __Off$137024[ebp], eax
$LN13@Getloctxt:
	mov	ecx, DWORD PTR __Ptr$[ebp]
	add	ecx, DWORD PTR __Off$137024[ebp]
	movsx	edx, BYTE PTR [ecx]
	test	edx, edx
	je	SHORT $LN11@Getloctxt
	mov	eax, DWORD PTR __Ptr$[ebp]
	add	eax, DWORD PTR __Off$137024[ebp]
	movsx	ecx, BYTE PTR [eax]
	mov	edx, DWORD PTR __Ptr$[ebp]
	movsx	eax, BYTE PTR [edx]
	cmp	ecx, eax
	je	SHORT $LN11@Getloctxt

; 561  : 				;	// find beginning of field

	jmp	SHORT $LN12@Getloctxt
$LN11@Getloctxt:

; 562  : 
; 563  : 			if (_Str[_Field] != '\0')

	mov	ecx, DWORD PTR __Field$137025[ebp]
	push	ecx
	lea	ecx, DWORD PTR __Str$[ebp]
	call	??A?$basic_string@DU?$char_traits@D@std@@V?$allocator@D@2@@std@@QAEAADI@Z ; std::basic_string<char,std::char_traits<char>,std::allocator<char> >::operator[]
	movsx	edx, BYTE PTR [eax]
	test	edx, edx
	je	SHORT $LN10@Getloctxt

; 564  : 				_Off += _Str[_Field];	// skip tested columns in field

	mov	eax, DWORD PTR __Field$137025[ebp]
	push	eax
	lea	ecx, DWORD PTR __Str$[ebp]
	call	??A?$basic_string@DU?$char_traits@D@std@@V?$allocator@D@2@@std@@QAEAADI@Z ; std::basic_string<char,std::char_traits<char>,std::allocator<char> >::operator[]
	movsx	ecx, BYTE PTR [eax]
	add	ecx, DWORD PTR __Off$137024[ebp]
	mov	DWORD PTR __Off$137024[ebp], ecx

; 565  : 			else if (_Ptr[_Off += _Column] == _Ptr[0]

	jmp	$LN9@Getloctxt
$LN10@Getloctxt:

; 566  : 				|| _Ptr[_Off] == (_Elem)0)

	mov	edx, DWORD PTR __Off$137024[ebp]
	add	edx, DWORD PTR __Column$137019[ebp]
	mov	DWORD PTR __Off$137024[ebp], edx
	mov	eax, DWORD PTR __Ptr$[ebp]
	add	eax, DWORD PTR __Off$137024[ebp]
	movsx	ecx, BYTE PTR [eax]
	mov	edx, DWORD PTR __Ptr$[ebp]
	movsx	eax, BYTE PTR [edx]
	cmp	ecx, eax
	je	SHORT $LN7@Getloctxt
	mov	ecx, DWORD PTR __Ptr$[ebp]
	add	ecx, DWORD PTR __Off$137024[ebp]
	movsx	edx, BYTE PTR [ecx]
	test	edx, edx
	jne	SHORT $LN8@Getloctxt
$LN7@Getloctxt:

; 567  : 				{	// matched all of field, save as possible answer
; 568  : 				_Str[_Field] = (char)(_Column < 127
; 569  : 					? _Column : 127);	// save skip count if small enough

	cmp	DWORD PTR __Column$137019[ebp], 127	; 0000007fH
	jae	SHORT $LN26@Getloctxt
	mov	eax, DWORD PTR __Column$137019[ebp]
	mov	DWORD PTR tv144[ebp], eax
	jmp	SHORT $LN27@Getloctxt
$LN26@Getloctxt:
	mov	DWORD PTR tv144[ebp], 127		; 0000007fH
$LN27@Getloctxt:
	mov	ecx, DWORD PTR __Field$137025[ebp]
	push	ecx
	lea	ecx, DWORD PTR __Str$[ebp]
	call	??A?$basic_string@DU?$char_traits@D@std@@V?$allocator@D@2@@std@@QAEAADI@Z ; std::basic_string<char,std::char_traits<char>,std::allocator<char> >::operator[]
	mov	dl, BYTE PTR tv144[ebp]
	mov	BYTE PTR [eax], dl

; 570  : 				_Ans = (int)_Field;	// save answer

	mov	eax, DWORD PTR __Field$137025[ebp]
	mov	DWORD PTR __Ans$[ebp], eax
	jmp	SHORT $LN9@Getloctxt
$LN8@Getloctxt:

; 571  : 				}
; 572  : 			else if (_First == _Last || _Ptr[_Off] != *_First)

	mov	ecx, DWORD PTR __Last$[ebp]
	push	ecx
	mov	edx, DWORD PTR __First$[ebp]
	push	edx
	call	??$?8DU?$char_traits@D@std@@@std@@YA_NABV?$istreambuf_iterator@DU?$char_traits@D@std@@@0@0@Z ; std::operator==<char,std::char_traits<char> >
	add	esp, 8
	movzx	eax, al
	test	eax, eax
	jne	SHORT $LN4@Getloctxt
	mov	ecx, DWORD PTR __Ptr$[ebp]
	add	ecx, DWORD PTR __Off$137024[ebp]
	movsx	esi, BYTE PTR [ecx]
	mov	ecx, DWORD PTR __First$[ebp]
	call	??D?$istreambuf_iterator@DU?$char_traits@D@std@@@std@@QBEDXZ ; std::istreambuf_iterator<char,std::char_traits<char> >::operator*
	movsx	edx, al
	cmp	esi, edx
	je	SHORT $LN5@Getloctxt
$LN4@Getloctxt:

; 573  : 				_Str[_Field] = (char)(_Column < 127
; 574  : 					? _Column : 127);	// no match, just save skip count

	cmp	DWORD PTR __Column$137019[ebp], 127	; 0000007fH
	jae	SHORT $LN28@Getloctxt
	mov	eax, DWORD PTR __Column$137019[ebp]
	mov	DWORD PTR tv161[ebp], eax
	jmp	SHORT $LN29@Getloctxt
$LN28@Getloctxt:
	mov	DWORD PTR tv161[ebp], 127		; 0000007fH
$LN29@Getloctxt:
	mov	ecx, DWORD PTR __Field$137025[ebp]
	push	ecx
	lea	ecx, DWORD PTR __Str$[ebp]
	call	??A?$basic_string@DU?$char_traits@D@std@@V?$allocator@D@2@@std@@QAEAADI@Z ; std::basic_string<char,std::char_traits<char>,std::allocator<char> >::operator[]
	mov	dl, BYTE PTR tv161[ebp]
	mov	BYTE PTR [eax], dl

; 575  : 			else

	jmp	SHORT $LN9@Getloctxt
$LN5@Getloctxt:

; 576  : 				_Prefix = true;	// still a valid prefix

	mov	BYTE PTR __Prefix$137023[ebp], 1
$LN9@Getloctxt:

; 577  : 			}

	jmp	$LN15@Getloctxt
$LN14@Getloctxt:

; 578  : 
; 579  : 		if (!_Prefix || _First == _Last)

	movzx	eax, BYTE PTR __Prefix$137023[ebp]
	test	eax, eax
	je	SHORT $LN1@Getloctxt
	mov	ecx, DWORD PTR __Last$[ebp]
	push	ecx
	mov	edx, DWORD PTR __First$[ebp]
	push	edx
	call	??$?8DU?$char_traits@D@std@@@std@@YA_NABV?$istreambuf_iterator@DU?$char_traits@D@std@@@0@0@Z ; std::operator==<char,std::char_traits<char> >
	add	esp, 8
	movzx	eax, al
	test	eax, eax
	je	SHORT $LN2@Getloctxt
$LN1@Getloctxt:

; 580  : 			break;	// no pending prefixes or no input, give up

	jmp	SHORT $LN17@Getloctxt
$LN2@Getloctxt:

; 581  : 		}

	jmp	$LN18@Getloctxt
$LN17@Getloctxt:

; 582  : 	return (_Ans);	// return field number or negative value on failure

	mov	ecx, DWORD PTR __Ans$[ebp]
	mov	DWORD PTR $T142091[ebp], ecx
	mov	DWORD PTR __$EHRec$[ebp+8], -1
	lea	ecx, DWORD PTR __Str$[ebp]
	call	??1?$basic_string@DU?$char_traits@D@std@@V?$allocator@D@2@@std@@QAE@XZ ; std::basic_string<char,std::char_traits<char>,std::allocator<char> >::~basic_string<char,std::char_traits<char>,std::allocator<char> >
	mov	eax, DWORD PTR $T142091[ebp]

; 583  : 	}

	push	edx
	mov	ecx, ebp
	push	eax
	lea	edx, DWORD PTR $LN34@Getloctxt
	call	@_RTC_CheckStackVars@8
	pop	eax
	pop	edx
	mov	ecx, DWORD PTR __$EHRec$[ebp]
	mov	DWORD PTR fs:0, ecx
	pop	ecx
	pop	edi
	pop	esi
	mov	ecx, DWORD PTR __$ArrayPad$[ebp]
	xor	ecx, ebp
	call	@__security_check_cookie@4
	add	esp, 92					; 0000005cH
	cmp	ebp, esp
	call	__RTC_CheckEsp
	mov	esp, ebp
	pop	ebp
	ret	0
	npad	3
$LN34@Getloctxt:
	DD	1
	DD	$LN33@Getloctxt
$LN33@Getloctxt:
	DD	-56					; ffffffc8H
	DD	32					; 00000020H
	DD	$LN31@Getloctxt
$LN31@Getloctxt:
	DB	95					; 0000005fH
	DB	83					; 00000053H
	DB	116					; 00000074H
	DB	114					; 00000072H
	DB	0
_TEXT	ENDS
;	COMDAT text$x
text$x	SEGMENT
__unwindfunclet$??$_Getloctxt@DV?$istreambuf_iterator@DU?$char_traits@D@std@@@std@@@std@@YAHAAV?$istreambuf_iterator@DU?$char_traits@D@std@@@0@0IPBD@Z$0:
	lea	ecx, DWORD PTR __Str$[ebp]
	jmp	??1?$basic_string@DU?$char_traits@D@std@@V?$allocator@D@2@@std@@QAE@XZ ; std::basic_string<char,std::char_traits<char>,std::allocator<char> >::~basic_string<char,std::char_traits<char>,std::allocator<char> >
__ehhandler$??$_Getloctxt@DV?$istreambuf_iterator@DU?$char_traits@D@std@@@std@@@std@@YAHAAV?$istreambuf_iterator@DU?$char_traits@D@std@@@0@0IPBD@Z:
	mov	edx, DWORD PTR [esp+8]
	lea	eax, DWORD PTR [edx+12]
	mov	ecx, DWORD PTR [edx-92]
	xor	ecx, eax
	call	@__security_check_cookie@4
	mov	ecx, DWORD PTR [edx-4]
	xor	ecx, eax
	call	@__security_check_cookie@4
	mov	eax, OFFSET __ehfuncinfo$??$_Getloctxt@DV?$istreambuf_iterator@DU?$char_traits@D@std@@@std@@@std@@YAHAAV?$istreambuf_iterator@DU?$char_traits@D@std@@@0@0IPBD@Z
	jmp	___CxxFrameHandler3
text$x	ENDS
??$_Getloctxt@DV?$istreambuf_iterator@DU?$char_traits@D@std@@@std@@@std@@YAHAAV?$istreambuf_iterator@DU?$char_traits@D@std@@@0@0IPBD@Z ENDP ; std::_Getloctxt<char,std::istreambuf_iterator<char,std::char_traits<char> > >
PUBLIC	?equal@?$istreambuf_iterator@DU?$char_traits@D@std@@@std@@QBE_NABV12@@Z ; std::istreambuf_iterator<char,std::char_traits<char> >::equal
; Function compile flags: /Odtp /RTCsu
; File c:\program files (x86)\microsoft visual studio 10.0\vc\include\streambuf
;	COMDAT ??$?8DU?$char_traits@D@std@@@std@@YA_NABV?$istreambuf_iterator@DU?$char_traits@D@std@@@0@0@Z
_TEXT	SEGMENT
__Left$ = 8						; size = 4
__Right$ = 12						; size = 4
??$?8DU?$char_traits@D@std@@@std@@YA_NABV?$istreambuf_iterator@DU?$char_traits@D@std@@@0@0@Z PROC ; std::operator==<char,std::char_traits<char> >, COMDAT

; 585  : 	{	// test for istreambuf_iterator equality

	push	ebp
	mov	ebp, esp

; 586  : 	return (_Left.equal(_Right));

	mov	eax, DWORD PTR __Right$[ebp]
	push	eax
	mov	ecx, DWORD PTR __Left$[ebp]
	call	?equal@?$istreambuf_iterator@DU?$char_traits@D@std@@@std@@QBE_NABV12@@Z ; std::istreambuf_iterator<char,std::char_traits<char> >::equal

; 587  : 	}

	cmp	ebp, esp
	call	__RTC_CheckEsp
	pop	ebp
	ret	0
??$?8DU?$char_traits@D@std@@@std@@YA_NABV?$istreambuf_iterator@DU?$char_traits@D@std@@@0@0@Z ENDP ; std::operator==<char,std::char_traits<char> >
; Function compile flags: /Odtp /RTCsu
; File c:\program files (x86)\microsoft visual studio 10.0\vc\include\xlocale
_TEXT	ENDS
;	COMDAT ??$_Maklocchr@D@std@@YADDPADABU_Cvtvec@@@Z
_TEXT	SEGMENT
__Byte$ = 8						; size = 1
___formal$ = 12						; size = 4
___formal$ = 16						; size = 4
??$_Maklocchr@D@std@@YADDPADABU_Cvtvec@@@Z PROC		; std::_Maklocchr<char>, COMDAT

; 625  : 	{	// convert char to _Elem using _Cvtvec

	push	ebp
	mov	ebp, esp

; 626  : 	return ((_Elem)(unsigned char)_Byte);

	mov	al, BYTE PTR __Byte$[ebp]

; 627  : 	}

	pop	ebp
	ret	0
??$_Maklocchr@D@std@@YADDPADABU_Cvtvec@@@Z ENDP		; std::_Maklocchr<char>
; Function compile flags: /Odtp /RTCsu
; File c:\program files (x86)\microsoft visual studio 10.0\vc\include\streambuf
_TEXT	ENDS
;	COMDAT ??$?9DU?$char_traits@D@std@@@std@@YA_NABV?$istreambuf_iterator@DU?$char_traits@D@std@@@0@0@Z
_TEXT	SEGMENT
__Left$ = 8						; size = 4
__Right$ = 12						; size = 4
??$?9DU?$char_traits@D@std@@@std@@YA_NABV?$istreambuf_iterator@DU?$char_traits@D@std@@@0@0@Z PROC ; std::operator!=<char,std::char_traits<char> >, COMDAT

; 594  : 	{	// test for istreambuf_iterator inequality

	push	ebp
	mov	ebp, esp

; 595  : 	return (!(_Left == _Right));

	mov	eax, DWORD PTR __Right$[ebp]
	push	eax
	mov	ecx, DWORD PTR __Left$[ebp]
	push	ecx
	call	??$?8DU?$char_traits@D@std@@@std@@YA_NABV?$istreambuf_iterator@DU?$char_traits@D@std@@@0@0@Z ; std::operator==<char,std::char_traits<char> >
	add	esp, 8
	movzx	eax, al
	neg	eax
	sbb	eax, eax
	add	eax, 1

; 596  : 	}

	cmp	ebp, esp
	call	__RTC_CheckEsp
	pop	ebp
	ret	0
??$?9DU?$char_traits@D@std@@@std@@YA_NABV?$istreambuf_iterator@DU?$char_traits@D@std@@@0@0@Z ENDP ; std::operator!=<char,std::char_traits<char> >
; Function compile flags: /Odtp /RTCsu
; File c:\program files (x86)\microsoft visual studio 10.0\vc\include\xlocale
_TEXT	ENDS
;	COMDAT ??$_Maklocbyte@D@std@@YADDABU_Cvtvec@@@Z
_TEXT	SEGMENT
__Char$ = 8						; size = 1
___formal$ = 12						; size = 4
??$_Maklocbyte@D@std@@YADDABU_Cvtvec@@@Z PROC		; std::_Maklocbyte<char>, COMDAT

; 592  : 	{	// convert _Elem to char using _Cvtvec

	push	ebp
	mov	ebp, esp

; 593  : 	return ((char)(unsigned char)_Char);

	mov	al, BYTE PTR __Char$[ebp]

; 594  : 	}

	pop	ebp
	ret	0
??$_Maklocbyte@D@std@@YADDABU_Cvtvec@@@Z ENDP		; std::_Maklocbyte<char>
; Function compile flags: /Odtp /RTCsu
; File c:\program files (x86)\microsoft visual studio 10.0\vc\include\streambuf
_TEXT	ENDS
;	COMDAT ?equal@?$istreambuf_iterator@DU?$char_traits@D@std@@@std@@QBE_NABV12@@Z
_TEXT	SEGMENT
tv76 = -8						; size = 4
_this$ = -4						; size = 4
__Right$ = 8						; size = 4
?equal@?$istreambuf_iterator@DU?$char_traits@D@std@@@std@@QBE_NABV12@@Z PROC ; std::istreambuf_iterator<char,std::char_traits<char> >::equal, COMDAT
; _this$ = ecx

; 534  : 		{	// test for equality

	push	ebp
	mov	ebp, esp
	sub	esp, 8
	mov	DWORD PTR [ebp-8], -858993460		; ccccccccH
	mov	DWORD PTR [ebp-4], -858993460		; ccccccccH
	mov	DWORD PTR _this$[ebp], ecx

; 535  : 		if (!_Got)

	mov	eax, DWORD PTR _this$[ebp]
	movzx	ecx, BYTE PTR [eax+4]
	test	ecx, ecx
	jne	SHORT $LN2@equal

; 536  : 			_Peek();

	mov	ecx, DWORD PTR _this$[ebp]
	call	?_Peek@?$istreambuf_iterator@DU?$char_traits@D@std@@@std@@ABEDXZ ; std::istreambuf_iterator<char,std::char_traits<char> >::_Peek
$LN2@equal:

; 537  : 		if (!_Right._Got)

	mov	edx, DWORD PTR __Right$[ebp]
	movzx	eax, BYTE PTR [edx+4]
	test	eax, eax
	jne	SHORT $LN1@equal

; 538  : 			_Right._Peek();

	mov	ecx, DWORD PTR __Right$[ebp]
	call	?_Peek@?$istreambuf_iterator@DU?$char_traits@D@std@@@std@@ABEDXZ ; std::istreambuf_iterator<char,std::char_traits<char> >::_Peek
$LN1@equal:

; 539  : 		return (_Strbuf == 0 && _Right._Strbuf == 0
; 540  : 			|| _Strbuf != 0 && _Right._Strbuf != 0);

	mov	ecx, DWORD PTR _this$[ebp]
	cmp	DWORD PTR [ecx], 0
	jne	SHORT $LN5@equal
	mov	edx, DWORD PTR __Right$[ebp]
	cmp	DWORD PTR [edx], 0
	je	SHORT $LN7@equal
$LN5@equal:
	mov	eax, DWORD PTR _this$[ebp]
	cmp	DWORD PTR [eax], 0
	je	SHORT $LN6@equal
	mov	ecx, DWORD PTR __Right$[ebp]
	cmp	DWORD PTR [ecx], 0
	jne	SHORT $LN7@equal
$LN6@equal:
	mov	DWORD PTR tv76[ebp], 0
	jmp	SHORT $LN8@equal
$LN7@equal:
	mov	DWORD PTR tv76[ebp], 1
$LN8@equal:
	mov	al, BYTE PTR tv76[ebp]

; 541  : 		}

	add	esp, 8
	cmp	ebp, esp
	call	__RTC_CheckEsp
	mov	esp, ebp
	pop	ebp
	ret	4
?equal@?$istreambuf_iterator@DU?$char_traits@D@std@@@std@@QBE_NABV12@@Z ENDP ; std::istreambuf_iterator<char,std::char_traits<char> >::equal
_TEXT	ENDS
PUBLIC	??0?$numpunct@D@std@@QAE@ABV_Locinfo@1@I_N@Z	; std::numpunct<char>::numpunct<char>
;	COMDAT xdata$x
; File c:\program files (x86)\microsoft visual studio 10.0\vc\include\xlocnum
xdata$x	SEGMENT
__unwindtable$?_Getcat@?$numpunct@D@std@@SAIPAPBVfacet@locale@2@PBV42@@Z DD 0ffffffffH
	DD	FLAT:__unwindfunclet$?_Getcat@?$numpunct@D@std@@SAIPAPBVfacet@locale@2@PBV42@@Z$0
	DD	00H
	DD	FLAT:__unwindfunclet$?_Getcat@?$numpunct@D@std@@SAIPAPBVfacet@locale@2@PBV42@@Z$1
	DD	0ffffffffH
	DD	FLAT:__unwindfunclet$?_Getcat@?$numpunct@D@std@@SAIPAPBVfacet@locale@2@PBV42@@Z$1
__ehfuncinfo$?_Getcat@?$numpunct@D@std@@SAIPAPBVfacet@locale@2@PBV42@@Z DD 019930522H
	DD	03H
	DD	FLAT:__unwindtable$?_Getcat@?$numpunct@D@std@@SAIPAPBVfacet@locale@2@PBV42@@Z
	DD	2 DUP(00H)
	DD	2 DUP(00H)
	DD	00H
	DD	01H
; Function compile flags: /Odtp /RTCsu
xdata$x	ENDS
;	COMDAT ?_Getcat@?$numpunct@D@std@@SAIPAPBVfacet@locale@2@PBV42@@Z
_TEXT	SEGMENT
tv93 = -76						; size = 4
tv134 = -72						; size = 4
tv139 = -68						; size = 4
$T142125 = -64						; size = 4
$T142121 = -60						; size = 36
$T142120 = -24						; size = 4
$T142119 = -20						; size = 4
$T142118 = -16						; size = 4
__$EHRec$ = -12						; size = 12
__Ppf$ = 8						; size = 4
__Ploc$ = 12						; size = 4
?_Getcat@?$numpunct@D@std@@SAIPAPBVfacet@locale@2@PBV42@@Z PROC ; std::numpunct<char>::_Getcat, COMDAT

; 111  : 		{	// return locale category mask and construct standard facet

	push	ebp
	mov	ebp, esp
	push	-1
	push	__ehhandler$?_Getcat@?$numpunct@D@std@@SAIPAPBVfacet@locale@2@PBV42@@Z
	mov	eax, DWORD PTR fs:0
	push	eax
	sub	esp, 64					; 00000040H
	push	edi
	lea	edi, DWORD PTR [ebp-76]
	mov	ecx, 16					; 00000010H
	mov	eax, -858993460				; ccccccccH
	rep stosd
	mov	eax, DWORD PTR ___security_cookie
	xor	eax, ebp
	push	eax
	lea	eax, DWORD PTR __$EHRec$[ebp]
	mov	DWORD PTR fs:0, eax
	mov	DWORD PTR $T142125[ebp], 0

; 112  : 		if (_Ppf != 0 && *_Ppf == 0)

	cmp	DWORD PTR __Ppf$[ebp], 0
	je	$LN1@Getcat@3
	mov	eax, DWORD PTR __Ppf$[ebp]
	cmp	DWORD PTR [eax], 0
	jne	$LN1@Getcat@3

; 113  : 			*_Ppf = _NEW_CRT numpunct<_Elem>(
; 114  : 				_Locinfo(_Ploc->c_str()), 0, true);

	call	?_DebugHeapTag_func@std@@YAABU_DebugHeapTag_t@1@XZ ; std::_DebugHeapTag_func
	mov	DWORD PTR $T142120[ebp], eax
	push	113					; 00000071H
	push	OFFSET ??_C@_0EH@GHEBKCIB@c?3?2Program?5Files?5?$CIx86?$CJ?2Microsoft@
	mov	ecx, DWORD PTR $T142120[ebp]
	push	ecx
	push	24					; 00000018H
	call	??2facet@locale@std@@SAPAXIABU_DebugHeapTag_t@2@PADH@Z ; std::locale::facet::operator new
	add	esp, 16					; 00000010H
	mov	DWORD PTR $T142119[ebp], eax
	mov	DWORD PTR __$EHRec$[ebp+8], 0
	cmp	DWORD PTR $T142119[ebp], 0
	je	SHORT $LN4@Getcat@3
	push	1
	push	0
	mov	ecx, DWORD PTR __Ploc$[ebp]
	call	?c_str@locale@std@@QBEPBDXZ		; std::locale::c_str
	push	eax
	lea	ecx, DWORD PTR $T142121[ebp]
	call	??0_Locinfo@std@@QAE@PBD@Z		; std::_Locinfo::_Locinfo
	mov	DWORD PTR tv139[ebp], eax
	mov	edx, DWORD PTR tv139[ebp]
	mov	DWORD PTR tv134[ebp], edx
	mov	BYTE PTR __$EHRec$[ebp+8], 1
	mov	eax, DWORD PTR $T142125[ebp]
	or	eax, 1
	mov	DWORD PTR $T142125[ebp], eax
	mov	ecx, DWORD PTR tv134[ebp]
	push	ecx
	mov	ecx, DWORD PTR $T142119[ebp]
	call	??0?$numpunct@D@std@@QAE@ABV_Locinfo@1@I_N@Z ; std::numpunct<char>::numpunct<char>
	mov	DWORD PTR tv93[ebp], eax
	jmp	SHORT $LN5@Getcat@3
$LN4@Getcat@3:
	mov	DWORD PTR tv93[ebp], 0
$LN5@Getcat@3:
	mov	edx, DWORD PTR tv93[ebp]
	mov	DWORD PTR $T142118[ebp], edx
	mov	DWORD PTR __$EHRec$[ebp+8], 2
	mov	eax, DWORD PTR __Ppf$[ebp]
	mov	ecx, DWORD PTR $T142118[ebp]
	mov	DWORD PTR [eax], ecx
	mov	DWORD PTR __$EHRec$[ebp+8], -1
	mov	edx, DWORD PTR $T142125[ebp]
	and	edx, 1
	je	SHORT $LN1@Getcat@3
	and	DWORD PTR $T142125[ebp], -2		; fffffffeH
	lea	ecx, DWORD PTR $T142121[ebp]
	call	??1_Locinfo@std@@QAE@XZ			; std::_Locinfo::~_Locinfo
$LN1@Getcat@3:

; 115  : 		return (_X_NUMERIC);

	mov	eax, 4

; 116  : 		}

	mov	ecx, DWORD PTR __$EHRec$[ebp]
	mov	DWORD PTR fs:0, ecx
	pop	ecx
	pop	edi
	add	esp, 76					; 0000004cH
	cmp	ebp, esp
	call	__RTC_CheckEsp
	mov	esp, ebp
	pop	ebp
	ret	0
_TEXT	ENDS
;	COMDAT text$x
text$x	SEGMENT
__unwindfunclet$?_Getcat@?$numpunct@D@std@@SAIPAPBVfacet@locale@2@PBV42@@Z$0:
	push	113					; 00000071H
	push	OFFSET ??_C@_0EH@GHEBKCIB@c?3?2Program?5Files?5?$CIx86?$CJ?2Microsoft@
	mov	eax, DWORD PTR $T142120[ebp]
	push	eax
	mov	ecx, DWORD PTR $T142119[ebp]
	push	ecx
	call	??3facet@locale@std@@SAXPAXABU_DebugHeapTag_t@2@PADH@Z ; std::locale::facet::operator delete
	add	esp, 16					; 00000010H
	ret	0
__unwindfunclet$?_Getcat@?$numpunct@D@std@@SAIPAPBVfacet@locale@2@PBV42@@Z$1:
	mov	eax, DWORD PTR $T142125[ebp]
	and	eax, 1
	je	$LN8@Getcat@3
	and	DWORD PTR $T142125[ebp], -2		; fffffffeH
	lea	ecx, DWORD PTR $T142121[ebp]
	jmp	??1_Locinfo@std@@QAE@XZ			; std::_Locinfo::~_Locinfo
$LN8@Getcat@3:
	ret	0
__ehhandler$?_Getcat@?$numpunct@D@std@@SAIPAPBVfacet@locale@2@PBV42@@Z:
	mov	edx, DWORD PTR [esp+8]
	lea	eax, DWORD PTR [edx+12]
	mov	ecx, DWORD PTR [edx-72]
	xor	ecx, eax
	call	@__security_check_cookie@4
	mov	eax, OFFSET __ehfuncinfo$?_Getcat@?$numpunct@D@std@@SAIPAPBVfacet@locale@2@PBV42@@Z
	jmp	___CxxFrameHandler3
text$x	ENDS
?_Getcat@?$numpunct@D@std@@SAIPAPBVfacet@locale@2@PBV42@@Z ENDP ; std::numpunct<char>::_Getcat
PUBLIC	?_Init@?$numpunct@D@std@@IAEXABV_Locinfo@2@_N@Z	; std::numpunct<char>::_Init
PUBLIC	??_7?$numpunct@D@std@@6B@			; std::numpunct<char>::`vftable'
PUBLIC	??_R4?$numpunct@D@std@@6B@			; std::numpunct<char>::`RTTI Complete Object Locator'
PUBLIC	??_R0?AV?$numpunct@D@std@@@8			; std::numpunct<char> `RTTI Type Descriptor'
PUBLIC	??_R3?$numpunct@D@std@@8			; std::numpunct<char>::`RTTI Class Hierarchy Descriptor'
PUBLIC	??_R2?$numpunct@D@std@@8			; std::numpunct<char>::`RTTI Base Class Array'
PUBLIC	??_R1A@?0A@EA@?$numpunct@D@std@@8		; std::numpunct<char>::`RTTI Base Class Descriptor at (0,-1,0,64)'
PUBLIC	?do_decimal_point@?$numpunct@D@std@@MBEDXZ	; std::numpunct<char>::do_decimal_point
PUBLIC	?do_thousands_sep@?$numpunct@D@std@@MBEDXZ	; std::numpunct<char>::do_thousands_sep
PUBLIC	?do_grouping@?$numpunct@D@std@@MBE?AV?$basic_string@DU?$char_traits@D@std@@V?$allocator@D@2@@2@XZ ; std::numpunct<char>::do_grouping
PUBLIC	?do_falsename@?$numpunct@D@std@@MBE?AV?$basic_string@DU?$char_traits@D@std@@V?$allocator@D@2@@2@XZ ; std::numpunct<char>::do_falsename
PUBLIC	?do_truename@?$numpunct@D@std@@MBE?AV?$basic_string@DU?$char_traits@D@std@@V?$allocator@D@2@@2@XZ ; std::numpunct<char>::do_truename
EXTRN	??_E?$numpunct@D@std@@MAEPAXI@Z:PROC		; std::numpunct<char>::`vector deleting destructor'
;	COMDAT ??_R1A@?0A@EA@?$numpunct@D@std@@8
rdata$r	SEGMENT
??_R1A@?0A@EA@?$numpunct@D@std@@8 DD FLAT:??_R0?AV?$numpunct@D@std@@@8 ; std::numpunct<char>::`RTTI Base Class Descriptor at (0,-1,0,64)'
	DD	01H
	DD	00H
	DD	0ffffffffH
	DD	00H
	DD	040H
	DD	FLAT:??_R3?$numpunct@D@std@@8
rdata$r	ENDS
;	COMDAT ??_R2?$numpunct@D@std@@8
rdata$r	SEGMENT
??_R2?$numpunct@D@std@@8 DD FLAT:??_R1A@?0A@EA@?$numpunct@D@std@@8 ; std::numpunct<char>::`RTTI Base Class Array'
	DD	FLAT:??_R1A@?0A@EA@facet@locale@std@@8
rdata$r	ENDS
;	COMDAT ??_R3?$numpunct@D@std@@8
rdata$r	SEGMENT
??_R3?$numpunct@D@std@@8 DD 00H				; std::numpunct<char>::`RTTI Class Hierarchy Descriptor'
	DD	00H
	DD	02H
	DD	FLAT:??_R2?$numpunct@D@std@@8
rdata$r	ENDS
;	COMDAT ??_R0?AV?$numpunct@D@std@@@8
_DATA	SEGMENT
??_R0?AV?$numpunct@D@std@@@8 DD FLAT:??_7type_info@@6B@	; std::numpunct<char> `RTTI Type Descriptor'
	DD	00H
	DB	'.?AV?$numpunct@D@std@@', 00H
_DATA	ENDS
;	COMDAT ??_R4?$numpunct@D@std@@6B@
rdata$r	SEGMENT
??_R4?$numpunct@D@std@@6B@ DD 00H			; std::numpunct<char>::`RTTI Complete Object Locator'
	DD	00H
	DD	00H
	DD	FLAT:??_R0?AV?$numpunct@D@std@@@8
	DD	FLAT:??_R3?$numpunct@D@std@@8
rdata$r	ENDS
;	COMDAT ??_7?$numpunct@D@std@@6B@
CONST	SEGMENT
??_7?$numpunct@D@std@@6B@ DD FLAT:??_R4?$numpunct@D@std@@6B@ ; std::numpunct<char>::`vftable'
	DD	FLAT:??_E?$numpunct@D@std@@MAEPAXI@Z
	DD	FLAT:?do_decimal_point@?$numpunct@D@std@@MBEDXZ
	DD	FLAT:?do_thousands_sep@?$numpunct@D@std@@MBEDXZ
	DD	FLAT:?do_grouping@?$numpunct@D@std@@MBE?AV?$basic_string@DU?$char_traits@D@std@@V?$allocator@D@2@@2@XZ
	DD	FLAT:?do_falsename@?$numpunct@D@std@@MBE?AV?$basic_string@DU?$char_traits@D@std@@V?$allocator@D@2@@2@XZ
	DD	FLAT:?do_truename@?$numpunct@D@std@@MBE?AV?$basic_string@DU?$char_traits@D@std@@V?$allocator@D@2@@2@XZ
CONST	ENDS
;	COMDAT xdata$x
xdata$x	SEGMENT
__unwindtable$??0?$numpunct@D@std@@QAE@ABV_Locinfo@1@I_N@Z DD 0ffffffffH
	DD	FLAT:__unwindfunclet$??0?$numpunct@D@std@@QAE@ABV_Locinfo@1@I_N@Z$0
__ehfuncinfo$??0?$numpunct@D@std@@QAE@ABV_Locinfo@1@I_N@Z DD 019930522H
	DD	01H
	DD	FLAT:__unwindtable$??0?$numpunct@D@std@@QAE@ABV_Locinfo@1@I_N@Z
	DD	2 DUP(00H)
	DD	2 DUP(00H)
	DD	00H
	DD	01H
; Function compile flags: /Odtp /RTCsu
xdata$x	ENDS
;	COMDAT ??0?$numpunct@D@std@@QAE@ABV_Locinfo@1@I_N@Z
_TEXT	SEGMENT
_this$ = -16						; size = 4
__$EHRec$ = -12						; size = 12
__Lobj$ = 8						; size = 4
__Refs$ = 12						; size = 4
__Isdef$ = 16						; size = 1
??0?$numpunct@D@std@@QAE@ABV_Locinfo@1@I_N@Z PROC	; std::numpunct<char>::numpunct<char>, COMDAT
; _this$ = ecx

; 105  : 		{	// construct from specified locale

	push	ebp
	mov	ebp, esp
	push	-1
	push	__ehhandler$??0?$numpunct@D@std@@QAE@ABV_Locinfo@1@I_N@Z
	mov	eax, DWORD PTR fs:0
	push	eax
	push	ecx
	mov	DWORD PTR [ebp-16], -858993460		; ccccccccH
	mov	eax, DWORD PTR ___security_cookie
	xor	eax, ebp
	push	eax
	lea	eax, DWORD PTR __$EHRec$[ebp]
	mov	DWORD PTR fs:0, eax
	mov	DWORD PTR _this$[ebp], ecx
	mov	eax, DWORD PTR __Refs$[ebp]
	push	eax
	mov	ecx, DWORD PTR _this$[ebp]
	call	??0facet@locale@std@@IAE@I@Z		; std::locale::facet::facet
	mov	DWORD PTR __$EHRec$[ebp+8], 0
	mov	ecx, DWORD PTR _this$[ebp]
	mov	DWORD PTR [ecx], OFFSET ??_7?$numpunct@D@std@@6B@

; 106  : 		_Init(_Lobj, _Isdef);

	movzx	edx, BYTE PTR __Isdef$[ebp]
	push	edx
	mov	eax, DWORD PTR __Lobj$[ebp]
	push	eax
	mov	ecx, DWORD PTR _this$[ebp]
	call	?_Init@?$numpunct@D@std@@IAEXABV_Locinfo@2@_N@Z ; std::numpunct<char>::_Init

; 107  : 		}

	mov	DWORD PTR __$EHRec$[ebp+8], -1
	mov	eax, DWORD PTR _this$[ebp]
	mov	ecx, DWORD PTR __$EHRec$[ebp]
	mov	DWORD PTR fs:0, ecx
	pop	ecx
	add	esp, 16					; 00000010H
	cmp	ebp, esp
	call	__RTC_CheckEsp
	mov	esp, ebp
	pop	ebp
	ret	12					; 0000000cH
_TEXT	ENDS
;	COMDAT text$x
text$x	SEGMENT
__unwindfunclet$??0?$numpunct@D@std@@QAE@ABV_Locinfo@1@I_N@Z$0:
	mov	ecx, DWORD PTR _this$[ebp]
	jmp	??1facet@locale@std@@UAE@XZ		; std::locale::facet::~facet
__ehhandler$??0?$numpunct@D@std@@QAE@ABV_Locinfo@1@I_N@Z:
	mov	edx, DWORD PTR [esp+8]
	lea	eax, DWORD PTR [edx+12]
	mov	ecx, DWORD PTR [edx-8]
	xor	ecx, eax
	call	@__security_check_cookie@4
	mov	eax, OFFSET __ehfuncinfo$??0?$numpunct@D@std@@QAE@ABV_Locinfo@1@I_N@Z
	jmp	___CxxFrameHandler3
text$x	ENDS
??0?$numpunct@D@std@@QAE@ABV_Locinfo@1@I_N@Z ENDP	; std::numpunct<char>::numpunct<char>
; Function compile flags: /Odtp /RTCsu
;	COMDAT ?do_decimal_point@?$numpunct@D@std@@MBEDXZ
_TEXT	SEGMENT
_this$ = -4						; size = 4
?do_decimal_point@?$numpunct@D@std@@MBEDXZ PROC		; std::numpunct<char>::do_decimal_point, COMDAT
; _this$ = ecx

; 163  : 		{	// return decimal point

	push	ebp
	mov	ebp, esp
	push	ecx
	mov	DWORD PTR [ebp-4], -858993460		; ccccccccH
	mov	DWORD PTR _this$[ebp], ecx

; 164  : 		return (_Dp);

	mov	eax, DWORD PTR _this$[ebp]
	mov	al, BYTE PTR [eax+12]

; 165  : 		}

	mov	esp, ebp
	pop	ebp
	ret	0
?do_decimal_point@?$numpunct@D@std@@MBEDXZ ENDP		; std::numpunct<char>::do_decimal_point
; Function compile flags: /Odtp /RTCsu
_TEXT	ENDS
;	COMDAT ?do_thousands_sep@?$numpunct@D@std@@MBEDXZ
_TEXT	SEGMENT
_this$ = -4						; size = 4
?do_thousands_sep@?$numpunct@D@std@@MBEDXZ PROC		; std::numpunct<char>::do_thousands_sep, COMDAT
; _this$ = ecx

; 168  : 		{	// return thousands separator

	push	ebp
	mov	ebp, esp
	push	ecx
	mov	DWORD PTR [ebp-4], -858993460		; ccccccccH
	mov	DWORD PTR _this$[ebp], ecx

; 169  : 		return (_Kseparator);

	mov	eax, DWORD PTR _this$[ebp]
	mov	al, BYTE PTR [eax+13]

; 170  : 		}

	mov	esp, ebp
	pop	ebp
	ret	0
?do_thousands_sep@?$numpunct@D@std@@MBEDXZ ENDP		; std::numpunct<char>::do_thousands_sep
; Function compile flags: /Odtp /RTCsu
_TEXT	ENDS
;	COMDAT ?do_grouping@?$numpunct@D@std@@MBE?AV?$basic_string@DU?$char_traits@D@std@@V?$allocator@D@2@@2@XZ
_TEXT	SEGMENT
$T142151 = -8						; size = 4
_this$ = -4						; size = 4
___$ReturnUdt$ = 8					; size = 4
?do_grouping@?$numpunct@D@std@@MBE?AV?$basic_string@DU?$char_traits@D@std@@V?$allocator@D@2@@2@XZ PROC ; std::numpunct<char>::do_grouping, COMDAT
; _this$ = ecx

; 173  : 		{	// return grouping string

	push	ebp
	mov	ebp, esp
	sub	esp, 8
	mov	DWORD PTR [ebp-8], -858993460		; ccccccccH
	mov	DWORD PTR [ebp-4], -858993460		; ccccccccH
	mov	DWORD PTR _this$[ebp], ecx
	mov	DWORD PTR $T142151[ebp], 0

; 174  : 		return (string(_Grouping));

	mov	eax, DWORD PTR _this$[ebp]
	mov	ecx, DWORD PTR [eax+8]
	push	ecx
	mov	ecx, DWORD PTR ___$ReturnUdt$[ebp]
	call	??0?$basic_string@DU?$char_traits@D@std@@V?$allocator@D@2@@std@@QAE@PBD@Z ; std::basic_string<char,std::char_traits<char>,std::allocator<char> >::basic_string<char,std::char_traits<char>,std::allocator<char> >
	mov	edx, DWORD PTR $T142151[ebp]
	or	edx, 1
	mov	DWORD PTR $T142151[ebp], edx
	mov	eax, DWORD PTR ___$ReturnUdt$[ebp]

; 175  : 		}

	add	esp, 8
	cmp	ebp, esp
	call	__RTC_CheckEsp
	mov	esp, ebp
	pop	ebp
	ret	4
?do_grouping@?$numpunct@D@std@@MBE?AV?$basic_string@DU?$char_traits@D@std@@V?$allocator@D@2@@2@XZ ENDP ; std::numpunct<char>::do_grouping
; Function compile flags: /Odtp /RTCsu
_TEXT	ENDS
;	COMDAT ?do_falsename@?$numpunct@D@std@@MBE?AV?$basic_string@DU?$char_traits@D@std@@V?$allocator@D@2@@2@XZ
_TEXT	SEGMENT
$T142156 = -8						; size = 4
_this$ = -4						; size = 4
___$ReturnUdt$ = 8					; size = 4
?do_falsename@?$numpunct@D@std@@MBE?AV?$basic_string@DU?$char_traits@D@std@@V?$allocator@D@2@@2@XZ PROC ; std::numpunct<char>::do_falsename, COMDAT
; _this$ = ecx

; 178  : 		{	// return name for false

	push	ebp
	mov	ebp, esp
	sub	esp, 8
	mov	DWORD PTR [ebp-8], -858993460		; ccccccccH
	mov	DWORD PTR [ebp-4], -858993460		; ccccccccH
	mov	DWORD PTR _this$[ebp], ecx
	mov	DWORD PTR $T142156[ebp], 0

; 179  : 		return (string_type(_Falsename));

	mov	eax, DWORD PTR _this$[ebp]
	mov	ecx, DWORD PTR [eax+16]
	push	ecx
	mov	ecx, DWORD PTR ___$ReturnUdt$[ebp]
	call	??0?$basic_string@DU?$char_traits@D@std@@V?$allocator@D@2@@std@@QAE@PBD@Z ; std::basic_string<char,std::char_traits<char>,std::allocator<char> >::basic_string<char,std::char_traits<char>,std::allocator<char> >
	mov	edx, DWORD PTR $T142156[ebp]
	or	edx, 1
	mov	DWORD PTR $T142156[ebp], edx
	mov	eax, DWORD PTR ___$ReturnUdt$[ebp]

; 180  : 		}

	add	esp, 8
	cmp	ebp, esp
	call	__RTC_CheckEsp
	mov	esp, ebp
	pop	ebp
	ret	4
?do_falsename@?$numpunct@D@std@@MBE?AV?$basic_string@DU?$char_traits@D@std@@V?$allocator@D@2@@2@XZ ENDP ; std::numpunct<char>::do_falsename
; Function compile flags: /Odtp /RTCsu
_TEXT	ENDS
;	COMDAT ?do_truename@?$numpunct@D@std@@MBE?AV?$basic_string@DU?$char_traits@D@std@@V?$allocator@D@2@@2@XZ
_TEXT	SEGMENT
$T142161 = -8						; size = 4
_this$ = -4						; size = 4
___$ReturnUdt$ = 8					; size = 4
?do_truename@?$numpunct@D@std@@MBE?AV?$basic_string@DU?$char_traits@D@std@@V?$allocator@D@2@@2@XZ PROC ; std::numpunct<char>::do_truename, COMDAT
; _this$ = ecx

; 183  : 		{	// return name for true

	push	ebp
	mov	ebp, esp
	sub	esp, 8
	mov	DWORD PTR [ebp-8], -858993460		; ccccccccH
	mov	DWORD PTR [ebp-4], -858993460		; ccccccccH
	mov	DWORD PTR _this$[ebp], ecx
	mov	DWORD PTR $T142161[ebp], 0

; 184  : 		return (string_type(_Truename));

	mov	eax, DWORD PTR _this$[ebp]
	mov	ecx, DWORD PTR [eax+20]
	push	ecx
	mov	ecx, DWORD PTR ___$ReturnUdt$[ebp]
	call	??0?$basic_string@DU?$char_traits@D@std@@V?$allocator@D@2@@std@@QAE@PBD@Z ; std::basic_string<char,std::char_traits<char>,std::allocator<char> >::basic_string<char,std::char_traits<char>,std::allocator<char> >
	mov	edx, DWORD PTR $T142161[ebp]
	or	edx, 1
	mov	DWORD PTR $T142161[ebp], edx
	mov	eax, DWORD PTR ___$ReturnUdt$[ebp]

; 185  : 		}

	add	esp, 8
	cmp	ebp, esp
	call	__RTC_CheckEsp
	mov	esp, ebp
	pop	ebp
	ret	4
?do_truename@?$numpunct@D@std@@MBE?AV?$basic_string@DU?$char_traits@D@std@@V?$allocator@D@2@@2@XZ ENDP ; std::numpunct<char>::do_truename
_TEXT	ENDS
PUBLIC	??1?$numpunct@D@std@@MAE@XZ			; std::numpunct<char>::~numpunct<char>
; Function compile flags: /Odtp /RTCsu
;	COMDAT ??_G?$numpunct@D@std@@MAEPAXI@Z
_TEXT	SEGMENT
_this$ = -4						; size = 4
___flags$ = 8						; size = 4
??_G?$numpunct@D@std@@MAEPAXI@Z PROC			; std::numpunct<char>::`scalar deleting destructor', COMDAT
; _this$ = ecx
	push	ebp
	mov	ebp, esp
	push	ecx
	mov	DWORD PTR [ebp-4], -858993460		; ccccccccH
	mov	DWORD PTR _this$[ebp], ecx
	mov	ecx, DWORD PTR _this$[ebp]
	call	??1?$numpunct@D@std@@MAE@XZ		; std::numpunct<char>::~numpunct<char>
	mov	eax, DWORD PTR ___flags$[ebp]
	and	eax, 1
	je	SHORT $LN1@scalar@15
	mov	ecx, DWORD PTR _this$[ebp]
	push	ecx
	call	??3facet@locale@std@@SAXPAX@Z		; std::locale::facet::operator delete
	add	esp, 4
$LN1@scalar@15:
	mov	eax, DWORD PTR _this$[ebp]
	add	esp, 4
	cmp	ebp, esp
	call	__RTC_CheckEsp
	mov	esp, ebp
	pop	ebp
	ret	4
??_G?$numpunct@D@std@@MAEPAXI@Z ENDP			; std::numpunct<char>::`scalar deleting destructor'
_TEXT	ENDS
PUBLIC	?_Tidy@?$numpunct@D@std@@AAEXXZ			; std::numpunct<char>::_Tidy
;	COMDAT xdata$x
xdata$x	SEGMENT
__unwindtable$??1?$numpunct@D@std@@MAE@XZ DD 0ffffffffH
	DD	FLAT:__unwindfunclet$??1?$numpunct@D@std@@MAE@XZ$0
__ehfuncinfo$??1?$numpunct@D@std@@MAE@XZ DD 019930522H
	DD	01H
	DD	FLAT:__unwindtable$??1?$numpunct@D@std@@MAE@XZ
	DD	2 DUP(00H)
	DD	2 DUP(00H)
	DD	00H
	DD	01H
; Function compile flags: /Odtp /RTCsu
xdata$x	ENDS
;	COMDAT ??1?$numpunct@D@std@@MAE@XZ
_TEXT	SEGMENT
_this$ = -16						; size = 4
__$EHRec$ = -12						; size = 12
??1?$numpunct@D@std@@MAE@XZ PROC			; std::numpunct<char>::~numpunct<char>, COMDAT
; _this$ = ecx

; 120  : 		{	// destroy the object

	push	ebp
	mov	ebp, esp
	push	-1
	push	__ehhandler$??1?$numpunct@D@std@@MAE@XZ
	mov	eax, DWORD PTR fs:0
	push	eax
	push	ecx
	mov	DWORD PTR [ebp-16], -858993460		; ccccccccH
	mov	eax, DWORD PTR ___security_cookie
	xor	eax, ebp
	push	eax
	lea	eax, DWORD PTR __$EHRec$[ebp]
	mov	DWORD PTR fs:0, eax
	mov	DWORD PTR _this$[ebp], ecx
	mov	eax, DWORD PTR _this$[ebp]
	mov	DWORD PTR [eax], OFFSET ??_7?$numpunct@D@std@@6B@
	mov	DWORD PTR __$EHRec$[ebp+8], 0

; 121  : 		_Tidy();

	mov	ecx, DWORD PTR _this$[ebp]
	call	?_Tidy@?$numpunct@D@std@@AAEXXZ		; std::numpunct<char>::_Tidy

; 122  : 		}

	mov	DWORD PTR __$EHRec$[ebp+8], -1
	mov	ecx, DWORD PTR _this$[ebp]
	call	??1facet@locale@std@@UAE@XZ		; std::locale::facet::~facet
	mov	ecx, DWORD PTR __$EHRec$[ebp]
	mov	DWORD PTR fs:0, ecx
	pop	ecx
	add	esp, 16					; 00000010H
	cmp	ebp, esp
	call	__RTC_CheckEsp
	mov	esp, ebp
	pop	ebp
	ret	0
_TEXT	ENDS
;	COMDAT text$x
text$x	SEGMENT
__unwindfunclet$??1?$numpunct@D@std@@MAE@XZ$0:
	mov	ecx, DWORD PTR _this$[ebp]
	jmp	??1facet@locale@std@@UAE@XZ		; std::locale::facet::~facet
__ehhandler$??1?$numpunct@D@std@@MAE@XZ:
	mov	edx, DWORD PTR [esp+8]
	lea	eax, DWORD PTR [edx+12]
	mov	ecx, DWORD PTR [edx-8]
	xor	ecx, eax
	call	@__security_check_cookie@4
	mov	eax, OFFSET __ehfuncinfo$??1?$numpunct@D@std@@MAE@XZ
	jmp	___CxxFrameHandler3
text$x	ENDS
??1?$numpunct@D@std@@MAE@XZ ENDP			; std::numpunct<char>::~numpunct<char>
PUBLIC	??$_DebugHeapDelete@X@std@@YAXPAX@Z		; std::_DebugHeapDelete<void>
; Function compile flags: /Odtp /RTCsu
;	COMDAT ?_Tidy@?$numpunct@D@std@@AAEXXZ
_TEXT	SEGMENT
_this$ = -4						; size = 4
?_Tidy@?$numpunct@D@std@@AAEXXZ PROC			; std::numpunct<char>::_Tidy, COMDAT
; _this$ = ecx

; 189  : 		{	// free all storage

	push	ebp
	mov	ebp, esp
	push	ecx
	mov	DWORD PTR [ebp-4], -858993460		; ccccccccH
	mov	DWORD PTR _this$[ebp], ecx

; 190  : 		_DELETE_CRT_VEC((void *)_Grouping);

	mov	eax, DWORD PTR _this$[ebp]
	mov	ecx, DWORD PTR [eax+8]
	push	ecx
	call	??$_DebugHeapDelete@X@std@@YAXPAX@Z	; std::_DebugHeapDelete<void>
	add	esp, 4

; 191  : 		_DELETE_CRT_VEC((void *)_Falsename);

	mov	edx, DWORD PTR _this$[ebp]
	mov	eax, DWORD PTR [edx+16]
	push	eax
	call	??$_DebugHeapDelete@X@std@@YAXPAX@Z	; std::_DebugHeapDelete<void>
	add	esp, 4

; 192  : 		_DELETE_CRT_VEC((void *)_Truename);

	mov	ecx, DWORD PTR _this$[ebp]
	mov	edx, DWORD PTR [ecx+20]
	push	edx
	call	??$_DebugHeapDelete@X@std@@YAXPAX@Z	; std::_DebugHeapDelete<void>
	add	esp, 4

; 193  : 		}

	add	esp, 4
	cmp	ebp, esp
	call	__RTC_CheckEsp
	mov	esp, ebp
	pop	ebp
	ret	0
?_Tidy@?$numpunct@D@std@@AAEXXZ ENDP			; std::numpunct<char>::_Tidy
; Function compile flags: /Odtp /RTCsu
; File c:\program files (x86)\microsoft visual studio 10.0\vc\include\xdebug
_TEXT	ENDS
;	COMDAT ??$_DebugHeapDelete@X@std@@YAXPAX@Z
_TEXT	SEGMENT
__Ptr$ = 8						; size = 4
??$_DebugHeapDelete@X@std@@YAXPAX@Z PROC		; std::_DebugHeapDelete<void>, COMDAT

; 56   : 	{	// delete from the debug CRT heap even if operator delete exists

	push	ebp
	mov	ebp, esp

; 57   : 	if (_Ptr != 0)

	cmp	DWORD PTR __Ptr$[ebp], 0
	je	SHORT $LN2@DebugHeapD@2

; 58   : 		{	// worth deleting
; 59   : 		_Ptr->~_Ty();
; 60   : 		// delete as _NORMAL_BLOCK, not _CRT_BLOCK, since we might have
; 61   : 		// facets allocated by normal new.
; 62   : 		free(_Ptr);

	mov	eax, DWORD PTR __Ptr$[ebp]
	push	eax
	call	_free
	add	esp, 4
$LN2@DebugHeapD@2:

; 63   : 		}
; 64   : 	}

	cmp	ebp, esp
	call	__RTC_CheckEsp
	pop	ebp
	ret	0
??$_DebugHeapDelete@X@std@@YAXPAX@Z ENDP		; std::_DebugHeapDelete<void>
_TEXT	ENDS
PUBLIC	?_Getcvt@_Locinfo@std@@QBE?AU_Cvtvec@@XZ	; std::_Locinfo::_Getcvt
; Function compile flags: /Odtp /RTCsu
; File c:\program files (x86)\microsoft visual studio 10.0\vc\include\xlocnum
;	COMDAT ?_Init@?$num_get@DV?$istreambuf_iterator@DU?$char_traits@D@std@@@std@@@std@@IAEXABV_Locinfo@2@@Z
_TEXT	SEGMENT
$T142180 = -12						; size = 8
_this$ = -4						; size = 4
__Lobj$ = 8						; size = 4
?_Init@?$num_get@DV?$istreambuf_iterator@DU?$char_traits@D@std@@@std@@@std@@IAEXABV_Locinfo@2@@Z PROC ; std::num_get<char,std::istreambuf_iterator<char,std::char_traits<char> > >::_Init, COMDAT
; _this$ = ecx

; 258  : 		{	// initialize from _Locinfo object

	push	ebp
	mov	ebp, esp
	sub	esp, 12					; 0000000cH
	mov	DWORD PTR [ebp-12], -858993460		; ccccccccH
	mov	DWORD PTR [ebp-8], -858993460		; ccccccccH
	mov	DWORD PTR [ebp-4], -858993460		; ccccccccH
	mov	DWORD PTR _this$[ebp], ecx

; 259  : 		_Cvt = _Lobj._Getcvt();

	lea	eax, DWORD PTR $T142180[ebp]
	push	eax
	mov	ecx, DWORD PTR __Lobj$[ebp]
	call	?_Getcvt@_Locinfo@std@@QBE?AU_Cvtvec@@XZ ; std::_Locinfo::_Getcvt
	mov	ecx, DWORD PTR [eax]
	mov	edx, DWORD PTR [eax+4]
	mov	eax, DWORD PTR _this$[ebp]
	mov	DWORD PTR [eax+8], ecx
	mov	DWORD PTR [eax+12], edx

; 260  : 		}

	add	esp, 12					; 0000000cH
	cmp	ebp, esp
	call	__RTC_CheckEsp
	mov	esp, ebp
	pop	ebp
	ret	4
?_Init@?$num_get@DV?$istreambuf_iterator@DU?$char_traits@D@std@@@std@@@std@@IAEXABV_Locinfo@2@@Z ENDP ; std::num_get<char,std::istreambuf_iterator<char,std::char_traits<char> > >::_Init
_TEXT	ENDS
EXTRN	__Getcvt:PROC
; Function compile flags: /Odtp /RTCsu
; File c:\program files (x86)\microsoft visual studio 10.0\vc\include\xlocinfo
;	COMDAT ?_Getcvt@_Locinfo@std@@QBE?AU_Cvtvec@@XZ
_TEXT	SEGMENT
$T142183 = -12						; size = 8
_this$ = -4						; size = 4
___$ReturnUdt$ = 8					; size = 4
?_Getcvt@_Locinfo@std@@QBE?AU_Cvtvec@@XZ PROC		; std::_Locinfo::_Getcvt, COMDAT
; _this$ = ecx

; 122  : 		{	// return codecvt stuff

	push	ebp
	mov	ebp, esp
	sub	esp, 12					; 0000000cH
	mov	DWORD PTR [ebp-12], -858993460		; ccccccccH
	mov	DWORD PTR [ebp-8], -858993460		; ccccccccH
	mov	DWORD PTR [ebp-4], -858993460		; ccccccccH
	mov	DWORD PTR _this$[ebp], ecx

; 123  : 		return (::_Getcvt());

	call	__Getcvt
	mov	DWORD PTR $T142183[ebp], eax
	mov	DWORD PTR $T142183[ebp+4], edx
	mov	eax, DWORD PTR ___$ReturnUdt$[ebp]
	mov	ecx, DWORD PTR $T142183[ebp]
	mov	DWORD PTR [eax], ecx
	mov	edx, DWORD PTR $T142183[ebp+4]
	mov	DWORD PTR [eax+4], edx
	mov	eax, DWORD PTR ___$ReturnUdt$[ebp]

; 124  : 		}

	add	esp, 12					; 0000000cH
	cmp	ebp, esp
	call	__RTC_CheckEsp
	mov	esp, ebp
	pop	ebp
	ret	4
?_Getcvt@_Locinfo@std@@QBE?AU_Cvtvec@@XZ ENDP		; std::_Locinfo::_Getcvt
_TEXT	ENDS
PUBLIC	?_Gettrue@_Locinfo@std@@QBEPBDXZ		; std::_Locinfo::_Gettrue
PUBLIC	?_Getfalse@_Locinfo@std@@QBEPBDXZ		; std::_Locinfo::_Getfalse
PUBLIC	??$_Maklocstr@D@std@@YAPADPBDPADABU_Cvtvec@@@Z	; std::_Maklocstr<char>
PUBLIC	??_C@_00CNPNBAHC@?$AA@				; `string'
PUBLIC	?_Getlconv@_Locinfo@std@@QBEPBUlconv@@XZ	; std::_Locinfo::_Getlconv
;	COMDAT ??_C@_00CNPNBAHC@?$AA@
; File c:\program files (x86)\microsoft visual studio 10.0\vc\include\xlocnum
CONST	SEGMENT
??_C@_00CNPNBAHC@?$AA@ DB 00H				; `string'
CONST	ENDS
;	COMDAT xdata$x
xdata$x	SEGMENT
__catchsym$?_Init@?$numpunct@D@std@@IAEXABV_Locinfo@2@_N@Z$2 DD 040H
	DD	00H
	DD	00H
	DD	FLAT:__catch$?_Init@?$numpunct@D@std@@IAEXABV_Locinfo@2@_N@Z$0
__unwindtable$?_Init@?$numpunct@D@std@@IAEXABV_Locinfo@2@_N@Z DD 0ffffffffH
	DD	00H
	DD	0ffffffffH
	DD	00H
__tryblocktable$?_Init@?$numpunct@D@std@@IAEXABV_Locinfo@2@_N@Z DD 00H
	DD	00H
	DD	01H
	DD	01H
	DD	FLAT:__catchsym$?_Init@?$numpunct@D@std@@IAEXABV_Locinfo@2@_N@Z$2
__ehfuncinfo$?_Init@?$numpunct@D@std@@IAEXABV_Locinfo@2@_N@Z DD 019930522H
	DD	02H
	DD	FLAT:__unwindtable$?_Init@?$numpunct@D@std@@IAEXABV_Locinfo@2@_N@Z
	DD	01H
	DD	FLAT:__tryblocktable$?_Init@?$numpunct@D@std@@IAEXABV_Locinfo@2@_N@Z
	DD	2 DUP(00H)
	DD	00H
	DD	01H
; Function compile flags: /Odtp /RTCsu
xdata$x	ENDS
;	COMDAT ?_Init@?$numpunct@D@std@@IAEXABV_Locinfo@2@_N@Z
_TEXT	SEGMENT
tv181 = -116						; size = 4
tv180 = -112						; size = 4
tv179 = -108						; size = 4
tv178 = -104						; size = 4
tv177 = -100						; size = 4
tv176 = -96						; size = 4
tv175 = -92						; size = 4
tv174 = -88						; size = 4
tv79 = -84						; size = 4
$T142194 = -80						; size = 8
$T142193 = -72						; size = 8
$T142192 = -64						; size = 8
$T142191 = -56						; size = 8
$T142190 = -48						; size = 8
$T142189 = -40						; size = 8
$T142186 = -32						; size = 8
__Ptr$ = -24						; size = 4
_this$ = -20						; size = 4
__$EHRec$ = -16						; size = 16
__Lobj$ = 8						; size = 4
__Isdef$ = 12						; size = 1
?_Init@?$numpunct@D@std@@IAEXABV_Locinfo@2@_N@Z PROC	; std::numpunct<char>::_Init, COMDAT
; _this$ = ecx

; 133  : 		{	// initialize from _Lobj

	push	ebp
	mov	ebp, esp
	push	-1
	push	__ehhandler$?_Init@?$numpunct@D@std@@IAEXABV_Locinfo@2@_N@Z
	mov	eax, DWORD PTR fs:0
	push	eax
	push	ecx
	sub	esp, 100				; 00000064H
	push	ebx
	push	esi
	push	edi
	push	ecx
	lea	edi, DWORD PTR [ebp-116]
	mov	ecx, 25					; 00000019H
	mov	eax, -858993460				; ccccccccH
	rep stosd
	pop	ecx
	mov	eax, DWORD PTR ___security_cookie
	xor	eax, ebp
	push	eax
	lea	eax, DWORD PTR __$EHRec$[ebp+4]
	mov	DWORD PTR fs:0, eax
	mov	DWORD PTR __$EHRec$[ebp], esp
	mov	DWORD PTR _this$[ebp], ecx

; 134  : 		const lconv *_Ptr = _Lobj._Getlconv();

	mov	ecx, DWORD PTR __Lobj$[ebp]
	call	?_Getlconv@_Locinfo@std@@QBEPBUlconv@@XZ ; std::_Locinfo::_Getlconv
	mov	DWORD PTR __Ptr$[ebp], eax

; 135  : 
; 136  : 		_Grouping = 0;

	mov	eax, DWORD PTR _this$[ebp]
	mov	DWORD PTR [eax+8], 0

; 137  : 		_Falsename = 0;

	mov	ecx, DWORD PTR _this$[ebp]
	mov	DWORD PTR [ecx+16], 0

; 138  : 		_Truename = 0;

	mov	edx, DWORD PTR _this$[ebp]
	mov	DWORD PTR [edx+20], 0

; 139  : 
; 140  : 		_TRY_BEGIN

	mov	DWORD PTR __$EHRec$[ebp+12], 0

; 141  : 		_Grouping = _MAKLOCSTR(char, _Isdef ? "" : _Ptr->grouping,

	movzx	eax, BYTE PTR __Isdef$[ebp]
	test	eax, eax
	je	SHORT $LN5@Init
	mov	DWORD PTR tv79[ebp], OFFSET ??_C@_00CNPNBAHC@?$AA@
	jmp	SHORT $LN6@Init
$LN5@Init:
	mov	ecx, DWORD PTR __Ptr$[ebp]
	mov	edx, DWORD PTR [ecx+8]
	mov	DWORD PTR tv79[ebp], edx
$LN6@Init:
	lea	eax, DWORD PTR $T142186[ebp]
	push	eax
	mov	ecx, DWORD PTR __Lobj$[ebp]
	call	?_Getcvt@_Locinfo@std@@QBE?AU_Cvtvec@@XZ ; std::_Locinfo::_Getcvt
	mov	DWORD PTR tv174[ebp], eax
	mov	ecx, DWORD PTR tv174[ebp]
	push	ecx
	push	0
	mov	edx, DWORD PTR tv79[ebp]
	push	edx
	call	??$_Maklocstr@D@std@@YAPADPBDPADABU_Cvtvec@@@Z ; std::_Maklocstr<char>
	add	esp, 12					; 0000000cH
	mov	DWORD PTR tv175[ebp], eax
	mov	eax, DWORD PTR _this$[ebp]
	mov	ecx, DWORD PTR tv175[ebp]
	mov	DWORD PTR [eax+8], ecx

; 142  : 			_Lobj._Getcvt());
; 143  : 		_Falsename = _MAKLOCSTR(_Elem, _Lobj._Getfalse(), _Lobj._Getcvt());

	lea	edx, DWORD PTR $T142189[ebp]
	push	edx
	mov	ecx, DWORD PTR __Lobj$[ebp]
	call	?_Getcvt@_Locinfo@std@@QBE?AU_Cvtvec@@XZ ; std::_Locinfo::_Getcvt
	mov	DWORD PTR tv176[ebp], eax
	mov	ecx, DWORD PTR __Lobj$[ebp]
	call	?_Getfalse@_Locinfo@std@@QBEPBDXZ	; std::_Locinfo::_Getfalse
	mov	DWORD PTR tv177[ebp], eax
	mov	eax, DWORD PTR tv176[ebp]
	push	eax
	push	0
	mov	ecx, DWORD PTR tv177[ebp]
	push	ecx
	call	??$_Maklocstr@D@std@@YAPADPBDPADABU_Cvtvec@@@Z ; std::_Maklocstr<char>
	add	esp, 12					; 0000000cH
	mov	DWORD PTR tv178[ebp], eax
	mov	edx, DWORD PTR _this$[ebp]
	mov	eax, DWORD PTR tv178[ebp]
	mov	DWORD PTR [edx+16], eax

; 144  : 		_Truename = _MAKLOCSTR(_Elem, _Lobj._Gettrue(), _Lobj._Getcvt());

	lea	ecx, DWORD PTR $T142190[ebp]
	push	ecx
	mov	ecx, DWORD PTR __Lobj$[ebp]
	call	?_Getcvt@_Locinfo@std@@QBE?AU_Cvtvec@@XZ ; std::_Locinfo::_Getcvt
	mov	DWORD PTR tv179[ebp], eax
	mov	ecx, DWORD PTR __Lobj$[ebp]
	call	?_Gettrue@_Locinfo@std@@QBEPBDXZ	; std::_Locinfo::_Gettrue
	mov	DWORD PTR tv180[ebp], eax
	mov	edx, DWORD PTR tv179[ebp]
	push	edx
	push	0
	mov	eax, DWORD PTR tv180[ebp]
	push	eax
	call	??$_Maklocstr@D@std@@YAPADPBDPADABU_Cvtvec@@@Z ; std::_Maklocstr<char>
	add	esp, 12					; 0000000cH
	mov	DWORD PTR tv181[ebp], eax
	mov	ecx, DWORD PTR _this$[ebp]
	mov	edx, DWORD PTR tv181[ebp]
	mov	DWORD PTR [ecx+20], edx
	jmp	SHORT $LN7@Init
__catch$?_Init@?$numpunct@D@std@@IAEXABV_Locinfo@2@_N@Z$0:

; 145  : 		_CATCH_ALL
; 146  : 		_Tidy();

	mov	ecx, DWORD PTR _this$[ebp]
	call	?_Tidy@?$numpunct@D@std@@AAEXXZ		; std::numpunct<char>::_Tidy

; 147  : 		_RERAISE;

	push	0
	push	0
	call	__CxxThrowException@8

; 148  : 		_CATCH_END

	mov	DWORD PTR __$EHRec$[ebp+12], -1
	mov	eax, __tryend$?_Init@?$numpunct@D@std@@IAEXABV_Locinfo@2@_N@Z$1
	ret	0
$LN7@Init:
	mov	DWORD PTR __$EHRec$[ebp+12], -1
__tryend$?_Init@?$numpunct@D@std@@IAEXABV_Locinfo@2@_N@Z$1:

; 149  : 
; 150  : 		_Dp = _MAKLOCCHR(_Elem, _Ptr->decimal_point[0], _Lobj._Getcvt());

	lea	eax, DWORD PTR $T142191[ebp]
	push	eax
	mov	ecx, DWORD PTR __Lobj$[ebp]
	call	?_Getcvt@_Locinfo@std@@QBE?AU_Cvtvec@@XZ ; std::_Locinfo::_Getcvt
	push	eax
	push	0
	mov	ecx, DWORD PTR __Ptr$[ebp]
	mov	edx, DWORD PTR [ecx]
	movzx	eax, BYTE PTR [edx]
	push	eax
	call	??$_Maklocchr@D@std@@YADDPADABU_Cvtvec@@@Z ; std::_Maklocchr<char>
	add	esp, 12					; 0000000cH
	mov	ecx, DWORD PTR _this$[ebp]
	mov	BYTE PTR [ecx+12], al

; 151  : 		_Kseparator =
; 152  : 			_MAKLOCCHR(_Elem, _Ptr->thousands_sep[0], _Lobj._Getcvt());

	lea	edx, DWORD PTR $T142192[ebp]
	push	edx
	mov	ecx, DWORD PTR __Lobj$[ebp]
	call	?_Getcvt@_Locinfo@std@@QBE?AU_Cvtvec@@XZ ; std::_Locinfo::_Getcvt
	push	eax
	push	0
	mov	eax, DWORD PTR __Ptr$[ebp]
	mov	ecx, DWORD PTR [eax+4]
	movzx	edx, BYTE PTR [ecx]
	push	edx
	call	??$_Maklocchr@D@std@@YADDPADABU_Cvtvec@@@Z ; std::_Maklocchr<char>
	add	esp, 12					; 0000000cH
	mov	ecx, DWORD PTR _this$[ebp]
	mov	BYTE PTR [ecx+13], al

; 153  : 
; 154  : 		if (_Isdef)

	movzx	edx, BYTE PTR __Isdef$[ebp]
	test	edx, edx
	je	SHORT $LN4@Init

; 155  : 			{	// apply defaults for required facets
; 156  : //			_Grouping = _MAKLOCSTR(char, "", _Lobj._Getcvt());
; 157  : 			_Dp = _MAKLOCCHR(_Elem, '.', _Lobj._Getcvt());

	lea	eax, DWORD PTR $T142193[ebp]
	push	eax
	mov	ecx, DWORD PTR __Lobj$[ebp]
	call	?_Getcvt@_Locinfo@std@@QBE?AU_Cvtvec@@XZ ; std::_Locinfo::_Getcvt
	push	eax
	push	0
	push	46					; 0000002eH
	call	??$_Maklocchr@D@std@@YADDPADABU_Cvtvec@@@Z ; std::_Maklocchr<char>
	add	esp, 12					; 0000000cH
	mov	ecx, DWORD PTR _this$[ebp]
	mov	BYTE PTR [ecx+12], al

; 158  : 			_Kseparator = _MAKLOCCHR(_Elem, ',', _Lobj._Getcvt());

	lea	edx, DWORD PTR $T142194[ebp]
	push	edx
	mov	ecx, DWORD PTR __Lobj$[ebp]
	call	?_Getcvt@_Locinfo@std@@QBE?AU_Cvtvec@@XZ ; std::_Locinfo::_Getcvt
	push	eax
	push	0
	push	44					; 0000002cH
	call	??$_Maklocchr@D@std@@YADDPADABU_Cvtvec@@@Z ; std::_Maklocchr<char>
	add	esp, 12					; 0000000cH
	mov	ecx, DWORD PTR _this$[ebp]
	mov	BYTE PTR [ecx+13], al
$LN4@Init:

; 159  : 			}
; 160  : 		}

	mov	ecx, DWORD PTR __$EHRec$[ebp+4]
	mov	DWORD PTR fs:0, ecx
	pop	ecx
	pop	edi
	pop	esi
	pop	ebx
	add	esp, 116				; 00000074H
	cmp	ebp, esp
	call	__RTC_CheckEsp
	mov	esp, ebp
	pop	ebp
	ret	8
_TEXT	ENDS
;	COMDAT text$x
text$x	SEGMENT
__ehhandler$?_Init@?$numpunct@D@std@@IAEXABV_Locinfo@2@_N@Z:
	mov	edx, DWORD PTR [esp+8]
	lea	eax, DWORD PTR [edx+12]
	mov	ecx, DWORD PTR [edx-120]
	xor	ecx, eax
	call	@__security_check_cookie@4
	mov	eax, OFFSET __ehfuncinfo$?_Init@?$numpunct@D@std@@IAEXABV_Locinfo@2@_N@Z
	jmp	___CxxFrameHandler3
text$x	ENDS
?_Init@?$numpunct@D@std@@IAEXABV_Locinfo@2@_N@Z ENDP	; std::numpunct<char>::_Init
; Function compile flags: /Odtp /RTCsu
; File c:\program files (x86)\microsoft visual studio 10.0\vc\include\xlocinfo
;	COMDAT ?_Getlconv@_Locinfo@std@@QBEPBUlconv@@XZ
_TEXT	SEGMENT
_this$ = -4						; size = 4
?_Getlconv@_Locinfo@std@@QBEPBUlconv@@XZ PROC		; std::_Locinfo::_Getlconv, COMDAT
; _this$ = ecx

; 127  : 		{	// return localeconv stuff

	push	ebp
	mov	ebp, esp
	push	ecx
	mov	DWORD PTR [ebp-4], -858993460		; ccccccccH
	mov	DWORD PTR _this$[ebp], ecx

; 128  : 		return (localeconv());

	call	_localeconv

; 129  : 		}

	add	esp, 4
	cmp	ebp, esp
	call	__RTC_CheckEsp
	mov	esp, ebp
	pop	ebp
	ret	0
?_Getlconv@_Locinfo@std@@QBEPBUlconv@@XZ ENDP		; std::_Locinfo::_Getlconv
_TEXT	ENDS
PUBLIC	??_C@_05LAPONLG@false?$AA@			; `string'
;	COMDAT ??_C@_05LAPONLG@false?$AA@
CONST	SEGMENT
??_C@_05LAPONLG@false?$AA@ DB 'false', 00H		; `string'
; Function compile flags: /Odtp /RTCsu
CONST	ENDS
;	COMDAT ?_Getfalse@_Locinfo@std@@QBEPBDXZ
_TEXT	SEGMENT
_this$ = -4						; size = 4
?_Getfalse@_Locinfo@std@@QBEPBDXZ PROC			; std::_Locinfo::_Getfalse, COMDAT
; _this$ = ecx

; 165  : 		{	// return false name (no C source)

	push	ebp
	mov	ebp, esp
	push	ecx
	mov	DWORD PTR [ebp-4], -858993460		; ccccccccH
	mov	DWORD PTR _this$[ebp], ecx

; 166  : 		return ("false");

	mov	eax, OFFSET ??_C@_05LAPONLG@false?$AA@

; 167  : 		}

	mov	esp, ebp
	pop	ebp
	ret	0
?_Getfalse@_Locinfo@std@@QBEPBDXZ ENDP			; std::_Locinfo::_Getfalse
_TEXT	ENDS
PUBLIC	??_C@_04LOAJBDKD@true?$AA@			; `string'
;	COMDAT ??_C@_04LOAJBDKD@true?$AA@
CONST	SEGMENT
??_C@_04LOAJBDKD@true?$AA@ DB 'true', 00H		; `string'
; Function compile flags: /Odtp /RTCsu
CONST	ENDS
;	COMDAT ?_Gettrue@_Locinfo@std@@QBEPBDXZ
_TEXT	SEGMENT
_this$ = -4						; size = 4
?_Gettrue@_Locinfo@std@@QBEPBDXZ PROC			; std::_Locinfo::_Gettrue, COMDAT
; _this$ = ecx

; 170  : 		{	// return true name (no C source)

	push	ebp
	mov	ebp, esp
	push	ecx
	mov	DWORD PTR [ebp-4], -858993460		; ccccccccH
	mov	DWORD PTR _this$[ebp], ecx

; 171  : 		return ("true");

	mov	eax, OFFSET ??_C@_04LOAJBDKD@true?$AA@

; 172  : 		}

	mov	esp, ebp
	pop	ebp
	ret	0
?_Gettrue@_Locinfo@std@@QBEPBDXZ ENDP			; std::_Locinfo::_Gettrue
; Function compile flags: /Odtp /RTCsu
; File c:\program files (x86)\microsoft visual studio 10.0\vc\include\xutility
_TEXT	ENDS
;	COMDAT ??$_Iter_cat@PBD@std@@YA?AUrandom_access_iterator_tag@0@ABQBD@Z
_TEXT	SEGMENT
__Cat$ = -5						; size = 1
___$ReturnUdt$ = 8					; size = 4
___formal$ = 12						; size = 4
??$_Iter_cat@PBD@std@@YA?AUrandom_access_iterator_tag@0@ABQBD@Z PROC ; std::_Iter_cat<char const *>, COMDAT

; 488  : 	{	// return category from iterator argument

	push	ebp
	mov	ebp, esp
	sub	esp, 12					; 0000000cH
	mov	DWORD PTR [ebp-12], -858993460		; ccccccccH
	mov	DWORD PTR [ebp-8], -858993460		; ccccccccH
	mov	DWORD PTR [ebp-4], -858993460		; ccccccccH

; 489  : 	typename iterator_traits<_Iter>::iterator_category _Cat;
; 490  : 	return (_Cat);

	mov	eax, DWORD PTR ___$ReturnUdt$[ebp]
	mov	cl, BYTE PTR __Cat$[ebp]
	mov	BYTE PTR [eax], cl
	mov	eax, DWORD PTR ___$ReturnUdt$[ebp]

; 491  : 	}

	push	edx
	mov	ecx, ebp
	push	eax
	lea	edx, DWORD PTR $LN5@Iter_cat
	call	@_RTC_CheckStackVars@8
	pop	eax
	pop	edx
	mov	esp, ebp
	pop	ebp
	ret	0
	npad	1
$LN5@Iter_cat:
	DD	1
	DD	$LN4@Iter_cat
$LN4@Iter_cat:
	DD	-5					; fffffffbH
	DD	1
	DD	$LN3@Iter_cat
$LN3@Iter_cat:
	DB	95					; 0000005fH
	DB	67					; 00000043H
	DB	97					; 00000061H
	DB	116					; 00000074H
	DB	0
??$_Iter_cat@PBD@std@@YA?AUrandom_access_iterator_tag@0@ABQBD@Z ENDP ; std::_Iter_cat<char const *>
_TEXT	ENDS
PUBLIC	??_C@_1CO@DGLIKNHI@?$AAi?$AAn?$AAv?$AAa?$AAl?$AAi?$AAd?$AA?5?$AAi?$AAt?$AAe?$AAr?$AAa?$AAt?$AAo?$AAr?$AA?5?$AAr?$AAa?$AAn?$AAg?$AAe?$AA?$AA@ ; `string'
;	COMDAT ??_C@_1CO@DGLIKNHI@?$AAi?$AAn?$AAv?$AAa?$AAl?$AAi?$AAd?$AA?5?$AAi?$AAt?$AAe?$AAr?$AAa?$AAt?$AAo?$AAr?$AA?5?$AAr?$AAa?$AAn?$AAg?$AAe?$AA?$AA@
CONST	SEGMENT
??_C@_1CO@DGLIKNHI@?$AAi?$AAn?$AAv?$AAa?$AAl?$AAi?$AAd?$AA?5?$AAi?$AAt?$AAe?$AAr?$AAa?$AAt?$AAo?$AAr?$AA?5?$AAr?$AAa?$AAn?$AAg?$AAe?$AA?$AA@ DB 'i'
	DB	00H, 'n', 00H, 'v', 00H, 'a', 00H, 'l', 00H, 'i', 00H, 'd', 00H
	DB	' ', 00H, 'i', 00H, 't', 00H, 'e', 00H, 'r', 00H, 'a', 00H, 't'
	DB	00H, 'o', 00H, 'r', 00H, ' ', 00H, 'r', 00H, 'a', 00H, 'n', 00H
	DB	'g', 00H, 'e', 00H, 00H, 00H			; `string'
; Function compile flags: /Odtp /RTCsu
CONST	ENDS
;	COMDAT ??$_Debug_range2@PBD@std@@YAXPBD0PB_WIUrandom_access_iterator_tag@0@@Z
_TEXT	SEGMENT
__First$ = 8						; size = 4
__Last$ = 12						; size = 4
__File$ = 16						; size = 4
__Line$ = 20						; size = 4
___formal$ = 24						; size = 1
??$_Debug_range2@PBD@std@@YAXPBD0PB_WIUrandom_access_iterator_tag@0@@Z PROC ; std::_Debug_range2<char const *>, COMDAT

; 726  : 	{	// test iterator pair for valid range, random-access iterators

	push	ebp
	mov	ebp, esp

; 727  : 	if (_First != _Last)

	mov	eax, DWORD PTR __First$[ebp]
	cmp	eax, DWORD PTR __Last$[ebp]
	je	SHORT $LN3@Debug_rang

; 728  : 		{	// check for non-null pointers, valid range
; 729  : 		_DEBUG_POINTER2(_First, _File, _Line);

	mov	ecx, DWORD PTR __Line$[ebp]
	push	ecx
	mov	edx, DWORD PTR __File$[ebp]
	push	edx
	mov	eax, DWORD PTR __First$[ebp]
	push	eax
	call	??$_Debug_pointer@D@std@@YAXPBDPB_WI@Z	; std::_Debug_pointer<char>
	add	esp, 12					; 0000000cH

; 730  : 		_DEBUG_POINTER2(_Last, _File, _Line);

	mov	ecx, DWORD PTR __Line$[ebp]
	push	ecx
	mov	edx, DWORD PTR __File$[ebp]
	push	edx
	mov	eax, DWORD PTR __Last$[ebp]
	push	eax
	call	??$_Debug_pointer@D@std@@YAXPBDPB_WI@Z	; std::_Debug_pointer<char>
	add	esp, 12					; 0000000cH

; 731  : 		if (_Last < _First)

	mov	ecx, DWORD PTR __Last$[ebp]
	cmp	ecx, DWORD PTR __First$[ebp]
	jae	SHORT $LN3@Debug_rang

; 732  : 			_DEBUG_ERROR2("invalid iterator range", _File, _Line);

	mov	edx, DWORD PTR __Line$[ebp]
	push	edx
	mov	eax, DWORD PTR __File$[ebp]
	push	eax
	push	OFFSET ??_C@_1CO@DGLIKNHI@?$AAi?$AAn?$AAv?$AAa?$AAl?$AAi?$AAd?$AA?5?$AAi?$AAt?$AAe?$AAr?$AAa?$AAt?$AAo?$AAr?$AA?5?$AAr?$AAa?$AAn?$AAg?$AAe?$AA?$AA@
	call	?_Debug_message@std@@YAXPB_W0I@Z	; std::_Debug_message
	add	esp, 12					; 0000000cH
$LN3@Debug_rang:

; 733  : 		}
; 734  : 	}

	cmp	ebp, esp
	call	__RTC_CheckEsp
	pop	ebp
	ret	0
??$_Debug_range2@PBD@std@@YAXPBD0PB_WIUrandom_access_iterator_tag@0@@Z ENDP ; std::_Debug_range2<char const *>
; Function compile flags: /Odtp /RTCsu
; File c:\program files (x86)\microsoft visual studio 10.0\vc\include\xmemory
_TEXT	ENDS
;	COMDAT ??$?8DD@std@@YA_NABV?$allocator@D@0@0@Z
_TEXT	SEGMENT
___formal$ = 8						; size = 4
___formal$ = 12						; size = 4
??$?8DD@std@@YA_NABV?$allocator@D@0@0@Z PROC		; std::operator==<char,char>, COMDAT

; 262  : 	{	// test for allocator equality

	push	ebp
	mov	ebp, esp

; 263  : 	return (true);

	mov	al, 1

; 264  : 	}

	pop	ebp
	ret	0
??$?8DD@std@@YA_NABV?$allocator@D@0@0@Z ENDP		; std::operator==<char,char>
; Function compile flags: /Odtp /RTCsu
; File c:\program files (x86)\microsoft visual studio 10.0\vc\include\utility
_TEXT	ENDS
;	COMDAT ??$forward@U_Container_proxy@std@@@std@@YA$$QAU_Container_proxy@0@AAU10@@Z
_TEXT	SEGMENT
__Arg$ = 8						; size = 4
??$forward@U_Container_proxy@std@@@std@@YA$$QAU_Container_proxy@0@AAU10@@Z PROC ; std::forward<std::_Container_proxy>, COMDAT

; 78   : 	{	// forward _Arg, given explicitly specified type parameter

	push	ebp
	mov	ebp, esp

; 79   : 	return ((_Ty&&)_Arg);

	mov	eax, DWORD PTR __Arg$[ebp]

; 80   : 	}

	pop	ebp
	ret	0
??$forward@U_Container_proxy@std@@@std@@YA$$QAU_Container_proxy@0@AAU10@@Z ENDP ; std::forward<std::_Container_proxy>
; Function compile flags: /Odtp /RTCsu
; File c:\program files (x86)\microsoft visual studio 10.0\vc\include\xutility
_TEXT	ENDS
;	COMDAT ??$_Iter_cat@V?$istreambuf_iterator@DU?$char_traits@D@std@@@std@@@std@@YA?AUinput_iterator_tag@0@ABV?$istreambuf_iterator@DU?$char_traits@D@std@@@0@@Z
_TEXT	SEGMENT
__Cat$ = -5						; size = 1
___formal$ = 8						; size = 4
??$_Iter_cat@V?$istreambuf_iterator@DU?$char_traits@D@std@@@std@@@std@@YA?AUinput_iterator_tag@0@ABV?$istreambuf_iterator@DU?$char_traits@D@std@@@0@@Z PROC ; std::_Iter_cat<std::istreambuf_iterator<char,std::char_traits<char> > >, COMDAT

; 488  : 	{	// return category from iterator argument

	push	ebp
	mov	ebp, esp
	sub	esp, 12					; 0000000cH
	mov	DWORD PTR [ebp-12], -858993460		; ccccccccH
	mov	DWORD PTR [ebp-8], -858993460		; ccccccccH
	mov	DWORD PTR [ebp-4], -858993460		; ccccccccH

; 489  : 	typename iterator_traits<_Iter>::iterator_category _Cat;
; 490  : 	return (_Cat);

	mov	al, BYTE PTR __Cat$[ebp]

; 491  : 	}

	push	edx
	mov	ecx, ebp
	push	eax
	lea	edx, DWORD PTR $LN5@Iter_cat@2
	call	@_RTC_CheckStackVars@8
	pop	eax
	pop	edx
	mov	esp, ebp
	pop	ebp
	ret	0
	npad	1
$LN5@Iter_cat@2:
	DD	1
	DD	$LN4@Iter_cat@2
$LN4@Iter_cat@2:
	DD	-5					; fffffffbH
	DD	1
	DD	$LN3@Iter_cat@2
$LN3@Iter_cat@2:
	DB	95					; 0000005fH
	DB	67					; 00000043H
	DB	97					; 00000061H
	DB	116					; 00000074H
	DB	0
??$_Iter_cat@V?$istreambuf_iterator@DU?$char_traits@D@std@@@std@@@std@@YA?AUinput_iterator_tag@0@ABV?$istreambuf_iterator@DU?$char_traits@D@std@@@0@@Z ENDP ; std::_Iter_cat<std::istreambuf_iterator<char,std::char_traits<char> > >
; Function compile flags: /Odtp /RTCsu
_TEXT	ENDS
;	COMDAT ??$_Debug_range2@V?$istreambuf_iterator@DU?$char_traits@D@std@@@std@@@std@@YAXV?$istreambuf_iterator@DU?$char_traits@D@std@@@0@0PB_WIUinput_iterator_tag@0@@Z
_TEXT	SEGMENT
__Ans$ = -1						; size = 1
__First$ = 8						; size = 8
__Last$ = 16						; size = 8
___formal$ = 24						; size = 4
___formal$ = 28						; size = 4
___formal$ = 32						; size = 1
??$_Debug_range2@V?$istreambuf_iterator@DU?$char_traits@D@std@@@std@@@std@@YAXV?$istreambuf_iterator@DU?$char_traits@D@std@@@0@0PB_WIUinput_iterator_tag@0@@Z PROC ; std::_Debug_range2<std::istreambuf_iterator<char,std::char_traits<char> > >, COMDAT

; 717  : 	{	// test iterator pair for valid range, arbitrary iterators

	push	ebp
	mov	ebp, esp
	push	ecx
	mov	DWORD PTR [ebp-4], -858993460		; ccccccccH

; 718  : 	bool _Ans = _First == _Last;	// make sure they're comparable

	lea	eax, DWORD PTR __Last$[ebp]
	push	eax
	lea	ecx, DWORD PTR __First$[ebp]
	push	ecx
	call	??$?8DU?$char_traits@D@std@@@std@@YA_NABV?$istreambuf_iterator@DU?$char_traits@D@std@@@0@0@Z ; std::operator==<char,std::char_traits<char> >
	add	esp, 8
	mov	BYTE PTR __Ans$[ebp], al

; 719  : 	_Ans = _Ans;	// to quiet diagnostics

	mov	dl, BYTE PTR __Ans$[ebp]
	mov	BYTE PTR __Ans$[ebp], dl

; 720  : 	}

	add	esp, 4
	cmp	ebp, esp
	call	__RTC_CheckEsp
	mov	esp, ebp
	pop	ebp
	ret	0
??$_Debug_range2@V?$istreambuf_iterator@DU?$char_traits@D@std@@@std@@@std@@YAXV?$istreambuf_iterator@DU?$char_traits@D@std@@@0@0PB_WIUinput_iterator_tag@0@@Z ENDP ; std::_Debug_range2<std::istreambuf_iterator<char,std::char_traits<char> > >
; Function compile flags: /Odtp /RTCsu
; File c:\program files (x86)\microsoft visual studio 10.0\vc\include\xmemory
_TEXT	ENDS
;	COMDAT ??$_Destroy@U_Container_proxy@std@@@std@@YAXPAU_Container_proxy@0@@Z
_TEXT	SEGMENT
__Ptr$ = 8						; size = 4
??$_Destroy@U_Container_proxy@std@@@std@@YAXPAU_Container_proxy@0@@Z PROC ; std::_Destroy<std::_Container_proxy>, COMDAT

; 62   : 	{	// destroy object at _Ptr

	push	ebp
	mov	ebp, esp

; 63   : 	_Ptr->~_Ty();
; 64   : 	}

	pop	ebp
	ret	0
??$_Destroy@U_Container_proxy@std@@@std@@YAXPAU_Container_proxy@0@@Z ENDP ; std::_Destroy<std::_Container_proxy>
_TEXT	ENDS
EXTRN	??_U@YAPAXIABU_DebugHeapTag_t@std@@PADH@Z:PROC	; operator new[]
; Function compile flags: /Odtp /RTCsu
; File c:\program files (x86)\microsoft visual studio 10.0\vc\include\xlocale
;	COMDAT ??$_Maklocstr@D@std@@YAPADPBDPADABU_Cvtvec@@@Z
_TEXT	SEGMENT
$T142236 = -16						; size = 4
__Ptrnext$138483 = -12					; size = 4
__Ptrdest$ = -8						; size = 4
__Count$ = -4						; size = 4
__Ptr$ = 8						; size = 4
___formal$ = 12						; size = 4
___formal$ = 16						; size = 4
??$_Maklocstr@D@std@@YAPADPBDPADABU_Cvtvec@@@Z PROC	; std::_Maklocstr<char>, COMDAT

; 658  : 	{	// convert C string to _Elem sequence using _Cvtvec

	push	ebp
	mov	ebp, esp
	sub	esp, 16					; 00000010H
	mov	eax, -858993460				; ccccccccH
	mov	DWORD PTR [ebp-16], eax
	mov	DWORD PTR [ebp-12], eax
	mov	DWORD PTR [ebp-8], eax
	mov	DWORD PTR [ebp-4], eax

; 659  : 	size_t _Count = _CSTD strlen(_Ptr) + 1;

	mov	eax, DWORD PTR __Ptr$[ebp]
	push	eax
	call	_strlen
	add	esp, 4
	add	eax, 1
	mov	DWORD PTR __Count$[ebp], eax

; 660  : 	_Elem *_Ptrdest = _NEW_CRT _Elem[_Count];

	push	660					; 00000294H
	push	OFFSET ??_C@_0EH@OEAMKACA@c?3?2Program?5Files?5?$CIx86?$CJ?2Microsoft@
	call	?_DebugHeapTag_func@std@@YAABU_DebugHeapTag_t@1@XZ ; std::_DebugHeapTag_func
	push	eax
	mov	ecx, DWORD PTR __Count$[ebp]
	push	ecx
	call	??_U@YAPAXIABU_DebugHeapTag_t@std@@PADH@Z ; operator new[]
	add	esp, 16					; 00000010H
	mov	DWORD PTR $T142236[ebp], eax
	mov	edx, DWORD PTR $T142236[ebp]
	mov	DWORD PTR __Ptrdest$[ebp], edx

; 661  : 
; 662  :  #pragma warning(push)
; 663  :  #pragma warning(disable: 6011)	/* quiet prefast noise */
; 664  : 	for (_Elem *_Ptrnext = _Ptrdest; 0 < _Count; --_Count, ++_Ptrnext, ++_Ptr)

	mov	eax, DWORD PTR __Ptrdest$[ebp]
	mov	DWORD PTR __Ptrnext$138483[ebp], eax
	jmp	SHORT $LN3@Maklocstr
$LN2@Maklocstr:
	mov	ecx, DWORD PTR __Count$[ebp]
	sub	ecx, 1
	mov	DWORD PTR __Count$[ebp], ecx
	mov	edx, DWORD PTR __Ptrnext$138483[ebp]
	add	edx, 1
	mov	DWORD PTR __Ptrnext$138483[ebp], edx
	mov	eax, DWORD PTR __Ptr$[ebp]
	add	eax, 1
	mov	DWORD PTR __Ptr$[ebp], eax
$LN3@Maklocstr:
	cmp	DWORD PTR __Count$[ebp], 0
	jbe	SHORT $LN1@Maklocstr

; 665  : 		*_Ptrnext = (_Elem)(unsigned char)*_Ptr;

	mov	ecx, DWORD PTR __Ptrnext$138483[ebp]
	mov	edx, DWORD PTR __Ptr$[ebp]
	mov	al, BYTE PTR [edx]
	mov	BYTE PTR [ecx], al
	jmp	SHORT $LN2@Maklocstr
$LN1@Maklocstr:

; 666  :  #pragma warning(pop)
; 667  : 
; 668  : 	return (_Ptrdest);

	mov	eax, DWORD PTR __Ptrdest$[ebp]

; 669  : 	}

	add	esp, 16					; 00000010H
	cmp	ebp, esp
	call	__RTC_CheckEsp
	mov	esp, ebp
	pop	ebp
	ret	0
??$_Maklocstr@D@std@@YAPADPBDPADABU_Cvtvec@@@Z ENDP	; std::_Maklocstr<char>
_TEXT	ENDS
PUBLIC	?max@?$numeric_limits@H@std@@SAHXZ		; std::numeric_limits<int>::max
; Function compile flags: /Odtp /RTCsu
; File c:\users\teaja\documents\artificial-fun\labravenprojecttest\common\misc\utils.h
;	COMDAT ??__EMaxInt@@YAXXZ
text$yc	SEGMENT
??__EMaxInt@@YAXXZ PROC					; `dynamic initializer for 'MaxInt'', COMDAT

; 23   : const int     MaxInt    = (std::numeric_limits<int>::max)();

	push	ebp
	mov	ebp, esp
	call	?max@?$numeric_limits@H@std@@SAHXZ	; std::numeric_limits<int>::max
	mov	DWORD PTR _MaxInt, eax
	cmp	ebp, esp
	call	__RTC_CheckEsp
	pop	ebp
	ret	0
??__EMaxInt@@YAXXZ ENDP					; `dynamic initializer for 'MaxInt''
; Function compile flags: /Odtp /RTCsu
; File c:\program files (x86)\microsoft visual studio 10.0\vc\include\limits
text$yc	ENDS
;	COMDAT ?max@?$numeric_limits@H@std@@SAHXZ
_TEXT	SEGMENT
?max@?$numeric_limits@H@std@@SAHXZ PROC			; std::numeric_limits<int>::max, COMDAT

; 712  : 	static _Ty (__CRTDECL max)() _THROW0()

	push	ebp
	mov	ebp, esp

; 713  : 		{	// return maximum value
; 714  : 		return (INT_MAX);

	mov	eax, 2147483647				; 7fffffffH

; 715  : 		}

	pop	ebp
	ret	0
?max@?$numeric_limits@H@std@@SAHXZ ENDP			; std::numeric_limits<int>::max
_TEXT	ENDS
PUBLIC	?max@?$numeric_limits@N@std@@SANXZ		; std::numeric_limits<double>::max
; Function compile flags: /Odtp /RTCsu
; File c:\users\teaja\documents\artificial-fun\labravenprojecttest\common\misc\utils.h
;	COMDAT ??__EMaxDouble@@YAXXZ
text$yc	SEGMENT
??__EMaxDouble@@YAXXZ PROC				; `dynamic initializer for 'MaxDouble'', COMDAT

; 24   : const double  MaxDouble = (std::numeric_limits<double>::max)();

	push	ebp
	mov	ebp, esp
	call	?max@?$numeric_limits@N@std@@SANXZ	; std::numeric_limits<double>::max
	fstp	QWORD PTR _MaxDouble
	cmp	ebp, esp
	call	__RTC_CheckEsp
	pop	ebp
	ret	0
??__EMaxDouble@@YAXXZ ENDP				; `dynamic initializer for 'MaxDouble''
text$yc	ENDS
PUBLIC	__real@7fefffffffffffff
;	COMDAT __real@7fefffffffffffff
; File c:\program files (x86)\microsoft visual studio 10.0\vc\include\limits
CONST	SEGMENT
__real@7fefffffffffffff DQ 07fefffffffffffffr	; 1.79769e+308
; Function compile flags: /Odtp /RTCsu
CONST	ENDS
;	COMDAT ?max@?$numeric_limits@N@std@@SANXZ
_TEXT	SEGMENT
?max@?$numeric_limits@N@std@@SANXZ PROC			; std::numeric_limits<double>::max, COMDAT

; 1233 : 	static _Ty (__CRTDECL max)() _THROW0()

	push	ebp
	mov	ebp, esp

; 1234 : 		{	// return maximum value
; 1235 : 		return (DBL_MAX);

	fld	QWORD PTR __real@7fefffffffffffff

; 1236 : 		}

	pop	ebp
	ret	0
?max@?$numeric_limits@N@std@@SANXZ ENDP			; std::numeric_limits<double>::max
_TEXT	ENDS
PUBLIC	?min@?$numeric_limits@N@std@@SANXZ		; std::numeric_limits<double>::min
; Function compile flags: /Odtp /RTCsu
; File c:\users\teaja\documents\artificial-fun\labravenprojecttest\common\misc\utils.h
;	COMDAT ??__EMinDouble@@YAXXZ
text$yc	SEGMENT
??__EMinDouble@@YAXXZ PROC				; `dynamic initializer for 'MinDouble'', COMDAT

; 25   : const double  MinDouble = (std::numeric_limits<double>::min)();

	push	ebp
	mov	ebp, esp
	call	?min@?$numeric_limits@N@std@@SANXZ	; std::numeric_limits<double>::min
	fstp	QWORD PTR _MinDouble
	cmp	ebp, esp
	call	__RTC_CheckEsp
	pop	ebp
	ret	0
??__EMinDouble@@YAXXZ ENDP				; `dynamic initializer for 'MinDouble''
text$yc	ENDS
PUBLIC	__real@0010000000000000
;	COMDAT __real@0010000000000000
; File c:\program files (x86)\microsoft visual studio 10.0\vc\include\limits
CONST	SEGMENT
__real@0010000000000000 DQ 00010000000000000r	; 2.22507e-308
; Function compile flags: /Odtp /RTCsu
CONST	ENDS
;	COMDAT ?min@?$numeric_limits@N@std@@SANXZ
_TEXT	SEGMENT
?min@?$numeric_limits@N@std@@SANXZ PROC			; std::numeric_limits<double>::min, COMDAT

; 1228 : 	static _Ty (__CRTDECL min)() _THROW0()

	push	ebp
	mov	ebp, esp

; 1229 : 		{	// return minimum value
; 1230 : 		return (DBL_MIN);

	fld	QWORD PTR __real@0010000000000000

; 1231 : 		}

	pop	ebp
	ret	0
?min@?$numeric_limits@N@std@@SANXZ ENDP			; std::numeric_limits<double>::min
_TEXT	ENDS
PUBLIC	?max@?$numeric_limits@M@std@@SAMXZ		; std::numeric_limits<float>::max
; Function compile flags: /Odtp /RTCsu
; File c:\users\teaja\documents\artificial-fun\labravenprojecttest\common\misc\utils.h
;	COMDAT ??__EMaxFloat@@YAXXZ
text$yc	SEGMENT
??__EMaxFloat@@YAXXZ PROC				; `dynamic initializer for 'MaxFloat'', COMDAT

; 26   : const float   MaxFloat  = (std::numeric_limits<float>::max)();

	push	ebp
	mov	ebp, esp
	call	?max@?$numeric_limits@M@std@@SAMXZ	; std::numeric_limits<float>::max
	fstp	DWORD PTR _MaxFloat
	cmp	ebp, esp
	call	__RTC_CheckEsp
	pop	ebp
	ret	0
??__EMaxFloat@@YAXXZ ENDP				; `dynamic initializer for 'MaxFloat''
text$yc	ENDS
PUBLIC	__real@7f7fffff
;	COMDAT __real@7f7fffff
; File c:\program files (x86)\microsoft visual studio 10.0\vc\include\limits
CONST	SEGMENT
__real@7f7fffff DD 07f7fffffr			; 3.40282e+038
; Function compile flags: /Odtp /RTCsu
CONST	ENDS
;	COMDAT ?max@?$numeric_limits@M@std@@SAMXZ
_TEXT	SEGMENT
?max@?$numeric_limits@M@std@@SAMXZ PROC			; std::numeric_limits<float>::max, COMDAT

; 1166 : 	static _Ty (__CRTDECL max)() _THROW0()

	push	ebp
	mov	ebp, esp

; 1167 : 		{	// return maximum value
; 1168 : 		return (FLT_MAX);

	fld	DWORD PTR __real@7f7fffff

; 1169 : 		}

	pop	ebp
	ret	0
?max@?$numeric_limits@M@std@@SAMXZ ENDP			; std::numeric_limits<float>::max
_TEXT	ENDS
PUBLIC	?min@?$numeric_limits@M@std@@SAMXZ		; std::numeric_limits<float>::min
; Function compile flags: /Odtp /RTCsu
; File c:\users\teaja\documents\artificial-fun\labravenprojecttest\common\misc\utils.h
;	COMDAT ??__EMinFloat@@YAXXZ
text$yc	SEGMENT
??__EMinFloat@@YAXXZ PROC				; `dynamic initializer for 'MinFloat'', COMDAT

; 27   : const float   MinFloat  = (std::numeric_limits<float>::min)();

	push	ebp
	mov	ebp, esp
	call	?min@?$numeric_limits@M@std@@SAMXZ	; std::numeric_limits<float>::min
	fstp	DWORD PTR _MinFloat
	cmp	ebp, esp
	call	__RTC_CheckEsp
	pop	ebp
	ret	0
??__EMinFloat@@YAXXZ ENDP				; `dynamic initializer for 'MinFloat''
text$yc	ENDS
PUBLIC	__real@00800000
;	COMDAT __real@00800000
; File c:\program files (x86)\microsoft visual studio 10.0\vc\include\limits
CONST	SEGMENT
__real@00800000 DD 000800000r			; 1.17549e-038
; Function compile flags: /Odtp /RTCsu
CONST	ENDS
;	COMDAT ?min@?$numeric_limits@M@std@@SAMXZ
_TEXT	SEGMENT
?min@?$numeric_limits@M@std@@SAMXZ PROC			; std::numeric_limits<float>::min, COMDAT

; 1161 : 	static _Ty (__CRTDECL min)() _THROW0()

	push	ebp
	mov	ebp, esp

; 1162 : 		{	// return minimum value
; 1163 : 		return (FLT_MIN);

	fld	DWORD PTR __real@00800000

; 1164 : 		}

	pop	ebp
	ret	0
?min@?$numeric_limits@M@std@@SAMXZ ENDP			; std::numeric_limits<float>::min
; Function compile flags: /Odtp /RTCsu
; File c:\users\teaja\documents\artificial-fun\labravenprojecttest\common\misc\utils.h
_TEXT	ENDS
;	COMDAT ??__ETwoPi@@YAXXZ
text$yc	SEGMENT
??__ETwoPi@@YAXXZ PROC					; `dynamic initializer for 'TwoPi'', COMDAT

; 30   : const double   TwoPi     = Pi * 2;

	push	ebp
	mov	ebp, esp
	fld	QWORD PTR _Pi
	fadd	ST(0), ST(0)
	fstp	QWORD PTR _TwoPi
	pop	ebp
	ret	0
??__ETwoPi@@YAXXZ ENDP					; `dynamic initializer for 'TwoPi''
text$yc	ENDS
PUBLIC	__real@4000000000000000
;	COMDAT __real@4000000000000000
CONST	SEGMENT
__real@4000000000000000 DQ 04000000000000000r	; 2
; Function compile flags: /Odtp /RTCsu
CONST	ENDS
;	COMDAT ??__EHalfPi@@YAXXZ
text$yc	SEGMENT
??__EHalfPi@@YAXXZ PROC					; `dynamic initializer for 'HalfPi'', COMDAT

; 31   : const double   HalfPi    = Pi / 2;

	push	ebp
	mov	ebp, esp
	fld	QWORD PTR _Pi
	fdiv	QWORD PTR __real@4000000000000000
	fstp	QWORD PTR _HalfPi
	pop	ebp
	ret	0
??__EHalfPi@@YAXXZ ENDP					; `dynamic initializer for 'HalfPi''
text$yc	ENDS
PUBLIC	__real@4010000000000000
;	COMDAT __real@4010000000000000
CONST	SEGMENT
__real@4010000000000000 DQ 04010000000000000r	; 4
; Function compile flags: /Odtp /RTCsu
CONST	ENDS
;	COMDAT ??__EQuarterPi@@YAXXZ
text$yc	SEGMENT
??__EQuarterPi@@YAXXZ PROC				; `dynamic initializer for 'QuarterPi'', COMDAT

; 32   : const double   QuarterPi = Pi / 4;

	push	ebp
	mov	ebp, esp
	fld	QWORD PTR _Pi
	fdiv	QWORD PTR __real@4010000000000000
	fstp	QWORD PTR _QuarterPi
	pop	ebp
	ret	0
??__EQuarterPi@@YAXXZ ENDP				; `dynamic initializer for 'QuarterPi''
text$yc	ENDS
PUBLIC	??0id@locale@std@@QAE@I@Z			; std::locale::id::id
; Function compile flags: /Odtp /RTCsu
; File c:\program files (x86)\microsoft visual studio 10.0\vc\include\xlocnum
;	COMDAT ??__E?id@?$num_get@DV?$istreambuf_iterator@DU?$char_traits@D@std@@@std@@@std@@2V0locale@2@A@@YAXXZ
text$yc	SEGMENT
??__E?id@?$num_get@DV?$istreambuf_iterator@DU?$char_traits@D@std@@@std@@@std@@2V0locale@2@A@@YAXXZ PROC ; `dynamic initializer for 'std::num_get<char,std::istreambuf_iterator<char,std::char_traits<char> > >::id'', COMDAT

; 1036 : 	__PURE_APPDOMAIN_GLOBAL locale::id num_get<_Elem, _InIt>::id;

	push	ebp
	mov	ebp, esp
	push	0
	mov	ecx, OFFSET ?id@?$num_get@DV?$istreambuf_iterator@DU?$char_traits@D@std@@@std@@@std@@2V0locale@2@A ; std::num_get<char,std::istreambuf_iterator<char,std::char_traits<char> > >::id
	call	??0id@locale@std@@QAE@I@Z		; std::locale::id::id
	cmp	ebp, esp
	call	__RTC_CheckEsp
	pop	ebp
	ret	0
??__E?id@?$num_get@DV?$istreambuf_iterator@DU?$char_traits@D@std@@@std@@@std@@2V0locale@2@A@@YAXXZ ENDP ; `dynamic initializer for 'std::num_get<char,std::istreambuf_iterator<char,std::char_traits<char> > >::id''
; Function compile flags: /Odtp /RTCsu
; File c:\program files (x86)\microsoft visual studio 10.0\vc\include\xlocale
text$yc	ENDS
;	COMDAT ??0id@locale@std@@QAE@I@Z
_TEXT	SEGMENT
_this$ = -4						; size = 4
__Val$ = 8						; size = 4
??0id@locale@std@@QAE@I@Z PROC				; std::locale::id::id, COMDAT
; _this$ = ecx

; 71   : 			{	// construct with specified stamp value

	push	ebp
	mov	ebp, esp
	push	ecx
	mov	DWORD PTR [ebp-4], -858993460		; ccccccccH
	mov	DWORD PTR _this$[ebp], ecx
	mov	eax, DWORD PTR _this$[ebp]
	mov	ecx, DWORD PTR __Val$[ebp]
	mov	DWORD PTR [eax], ecx

; 72   : 			}

	mov	eax, DWORD PTR _this$[ebp]
	mov	esp, ebp
	pop	ebp
	ret	4
??0id@locale@std@@QAE@I@Z ENDP				; std::locale::id::id
; Function compile flags: /Odtp /RTCsu
_TEXT	ENDS
;	COMDAT ??__E?id@?$codecvt@DDH@std@@2V0locale@2@A@@YAXXZ
text$yc	SEGMENT
??__E?id@?$codecvt@DDH@std@@2V0locale@2@A@@YAXXZ PROC	; `dynamic initializer for 'std::codecvt<char,char,int>::id'', COMDAT

; 900  : 	__PURE_APPDOMAIN_GLOBAL locale::id codecvt<_Elem, _Byte, _Statype>::id;

	push	ebp
	mov	ebp, esp
	push	0
	mov	ecx, OFFSET ?id@?$codecvt@DDH@std@@2V0locale@2@A ; std::codecvt<char,char,int>::id
	call	??0id@locale@std@@QAE@I@Z		; std::locale::id::id
	cmp	ebp, esp
	call	__RTC_CheckEsp
	pop	ebp
	ret	0
??__E?id@?$codecvt@DDH@std@@2V0locale@2@A@@YAXXZ ENDP	; `dynamic initializer for 'std::codecvt<char,char,int>::id''
; Function compile flags: /Odtp /RTCsu
; File c:\program files (x86)\microsoft visual studio 10.0\vc\include\xlocnum
text$yc	ENDS
;	COMDAT ??__E?id@?$numpunct@D@std@@2V0locale@2@A@@YAXXZ
text$yc	SEGMENT
??__E?id@?$numpunct@D@std@@2V0locale@2@A@@YAXXZ PROC	; `dynamic initializer for 'std::numpunct<char>::id'', COMDAT

; 228  : 	__PURE_APPDOMAIN_GLOBAL locale::id numpunct<_Elem>::id;

	push	ebp
	mov	ebp, esp
	push	0
	mov	ecx, OFFSET ?id@?$numpunct@D@std@@2V0locale@2@A ; std::numpunct<char>::id
	call	??0id@locale@std@@QAE@I@Z		; std::locale::id::id
	cmp	ebp, esp
	call	__RTC_CheckEsp
	pop	ebp
	ret	0
??__E?id@?$numpunct@D@std@@2V0locale@2@A@@YAXXZ ENDP	; `dynamic initializer for 'std::numpunct<char>::id''
; Function compile flags: /Odtp /RTCsu
text$yc	ENDS
;	COMDAT ??__E?id@?$num_put@DV?$ostreambuf_iterator@DU?$char_traits@D@std@@@std@@@std@@2V0locale@2@A@@YAXXZ
text$yc	SEGMENT
??__E?id@?$num_put@DV?$ostreambuf_iterator@DU?$char_traits@D@std@@@std@@@std@@2V0locale@2@A@@YAXXZ PROC ; `dynamic initializer for 'std::num_put<char,std::ostreambuf_iterator<char,std::char_traits<char> > >::id'', COMDAT

; 1578 : 	__PURE_APPDOMAIN_GLOBAL locale::id num_put<_Elem, _OutIt>::id;

	push	ebp
	mov	ebp, esp
	push	0
	mov	ecx, OFFSET ?id@?$num_put@DV?$ostreambuf_iterator@DU?$char_traits@D@std@@@std@@@std@@2V0locale@2@A ; std::num_put<char,std::ostreambuf_iterator<char,std::char_traits<char> > >::id
	call	??0id@locale@std@@QAE@I@Z		; std::locale::id::id
	cmp	ebp, esp
	call	__RTC_CheckEsp
	pop	ebp
	ret	0
??__E?id@?$num_put@DV?$ostreambuf_iterator@DU?$char_traits@D@std@@@std@@@std@@2V0locale@2@A@@YAXXZ ENDP ; `dynamic initializer for 'std::num_put<char,std::ostreambuf_iterator<char,std::char_traits<char> > >::id''
text$yc	ENDS
PUBLIC	?id@?$num_put@DV?$ostreambuf_iterator@DU?$char_traits@D@std@@@std@@@std@@2V0locale@2@A ; std::num_put<char,std::ostreambuf_iterator<char,std::char_traits<char> > >::id
PUBLIC	?id@?$numpunct@D@std@@2V0locale@2@A		; std::numpunct<char>::id
PUBLIC	?id@?$num_get@DV?$istreambuf_iterator@DU?$char_traits@D@std@@@std@@@std@@2V0locale@2@A ; std::num_get<char,std::istreambuf_iterator<char,std::char_traits<char> > >::id
PUBLIC	?id@?$codecvt@DDH@std@@2V0locale@2@A		; std::codecvt<char,char,int>::id
_BSS	SEGMENT
_MinDouble DQ	01H DUP (?)
_MaxFloat DD	01H DUP (?)
_MinFloat DD	01H DUP (?)
_TwoPi	DQ	01H DUP (?)
_BSS	ENDS
;	COMDAT ?id@?$num_put@DV?$ostreambuf_iterator@DU?$char_traits@D@std@@@std@@@std@@2V0locale@2@A
_BSS	SEGMENT
?id@?$num_put@DV?$ostreambuf_iterator@DU?$char_traits@D@std@@@std@@@std@@2V0locale@2@A DD 01H DUP (?) ; std::num_put<char,std::ostreambuf_iterator<char,std::char_traits<char> > >::id
_BSS	ENDS
_BSS	SEGMENT
_MaxInt	DD	01H DUP (?)
	ALIGN	8

_HalfPi	DQ	01H DUP (?)
_BSS	ENDS
;	COMDAT ?id@?$numpunct@D@std@@2V0locale@2@A
_BSS	SEGMENT
?id@?$numpunct@D@std@@2V0locale@2@A DD 01H DUP (?)	; std::numpunct<char>::id
_BSS	ENDS
_BSS	SEGMENT
_MaxDouble DQ	01H DUP (?)
_QuarterPi DQ	01H DUP (?)
_BSS	ENDS
;	COMDAT ?id@?$num_get@DV?$istreambuf_iterator@DU?$char_traits@D@std@@@std@@@std@@2V0locale@2@A
_BSS	SEGMENT
?id@?$num_get@DV?$istreambuf_iterator@DU?$char_traits@D@std@@@std@@@std@@2V0locale@2@A DD 01H DUP (?) ; std::num_get<char,std::istreambuf_iterator<char,std::char_traits<char> > >::id
_BSS	ENDS
;	COMDAT ?id@?$codecvt@DDH@std@@2V0locale@2@A
_BSS	SEGMENT
?id@?$codecvt@DDH@std@@2V0locale@2@A DD 01H DUP (?)	; std::codecvt<char,char,int>::id
_BSS	ENDS
CRT$XCU	SEGMENT
_MaxInt$initializer$ DD FLAT:??__EMaxInt@@YAXXZ
_MaxDouble$initializer$ DD FLAT:??__EMaxDouble@@YAXXZ
_MinDouble$initializer$ DD FLAT:??__EMinDouble@@YAXXZ
_MaxFloat$initializer$ DD FLAT:??__EMaxFloat@@YAXXZ
_MinFloat$initializer$ DD FLAT:??__EMinFloat@@YAXXZ
_TwoPi$initializer$ DD FLAT:??__ETwoPi@@YAXXZ
_HalfPi$initializer$ DD FLAT:??__EHalfPi@@YAXXZ
_QuarterPi$initializer$ DD FLAT:??__EQuarterPi@@YAXXZ
CRT$XCU	ENDS
;	COMDAT CRT$XCU
CRT$XCU	SEGMENT
?id$initializer$@?$num_get@DV?$istreambuf_iterator@DU?$char_traits@D@std@@@std@@@std@@2P6AXXZA DD FLAT:??__E?id@?$num_get@DV?$istreambuf_iterator@DU?$char_traits@D@std@@@std@@@std@@2V0locale@2@A@@YAXXZ ; std::num_get<char,std::istreambuf_iterator<char,std::char_traits<char> > >::id$initializer$
CRT$XCU	ENDS
;	COMDAT CRT$XCU
CRT$XCU	SEGMENT
?id$initializer$@?$codecvt@DDH@std@@2P6AXXZA DD FLAT:??__E?id@?$codecvt@DDH@std@@2V0locale@2@A@@YAXXZ ; std::codecvt<char,char,int>::id$initializer$
CRT$XCU	ENDS
;	COMDAT CRT$XCU
CRT$XCU	SEGMENT
?id$initializer$@?$numpunct@D@std@@2P6AXXZA DD FLAT:??__E?id@?$numpunct@D@std@@2V0locale@2@A@@YAXXZ ; std::numpunct<char>::id$initializer$
CRT$XCU	ENDS
;	COMDAT CRT$XCU
CRT$XCU	SEGMENT
?id$initializer$@?$num_put@DV?$ostreambuf_iterator@DU?$char_traits@D@std@@@std@@@std@@2P6AXXZA DD FLAT:??__E?id@?$num_put@DV?$ostreambuf_iterator@DU?$char_traits@D@std@@@std@@@std@@2V0locale@2@A@@YAXXZ ; std::num_put<char,std::ostreambuf_iterator<char,std::char_traits<char> > >::id$initializer$
CRT$XCU	ENDS
END
