; Listing generated by Microsoft (R) Optimizing Compiler Version 16.00.40219.01 

	TITLE	C:\Users\Teaja\Documents\Artificial-Fun\LabRavenProjectTest\Raven\armory\Weapon_RailGun.cpp
	.686P
	.XMM
	include listing.inc
	.model	flat

INCLUDELIB LIBCMTD
INCLUDELIB OLDNAMES

PUBLIC	?has_denorm@_Num_base@std@@2W4float_denorm_style@2@B ; std::_Num_base::has_denorm
PUBLIC	?has_denorm_loss@_Num_base@std@@2_NB		; std::_Num_base::has_denorm_loss
PUBLIC	?has_infinity@_Num_base@std@@2_NB		; std::_Num_base::has_infinity
PUBLIC	?has_quiet_NaN@_Num_base@std@@2_NB		; std::_Num_base::has_quiet_NaN
PUBLIC	?has_signaling_NaN@_Num_base@std@@2_NB		; std::_Num_base::has_signaling_NaN
PUBLIC	?is_bounded@_Num_base@std@@2_NB			; std::_Num_base::is_bounded
PUBLIC	?is_exact@_Num_base@std@@2_NB			; std::_Num_base::is_exact
PUBLIC	?is_iec559@_Num_base@std@@2_NB			; std::_Num_base::is_iec559
PUBLIC	?is_integer@_Num_base@std@@2_NB			; std::_Num_base::is_integer
PUBLIC	?is_modulo@_Num_base@std@@2_NB			; std::_Num_base::is_modulo
PUBLIC	?is_signed@_Num_base@std@@2_NB			; std::_Num_base::is_signed
PUBLIC	?is_specialized@_Num_base@std@@2_NB		; std::_Num_base::is_specialized
PUBLIC	?tinyness_before@_Num_base@std@@2_NB		; std::_Num_base::tinyness_before
PUBLIC	?traps@_Num_base@std@@2_NB			; std::_Num_base::traps
PUBLIC	?round_style@_Num_base@std@@2W4float_round_style@2@B ; std::_Num_base::round_style
PUBLIC	?digits@_Num_base@std@@2HB			; std::_Num_base::digits
PUBLIC	?digits10@_Num_base@std@@2HB			; std::_Num_base::digits10
PUBLIC	?max_digits10@_Num_base@std@@2HB		; std::_Num_base::max_digits10
PUBLIC	?max_exponent@_Num_base@std@@2HB		; std::_Num_base::max_exponent
PUBLIC	?max_exponent10@_Num_base@std@@2HB		; std::_Num_base::max_exponent10
PUBLIC	?min_exponent@_Num_base@std@@2HB		; std::_Num_base::min_exponent
PUBLIC	?min_exponent10@_Num_base@std@@2HB		; std::_Num_base::min_exponent10
PUBLIC	?radix@_Num_base@std@@2HB			; std::_Num_base::radix
PUBLIC	?is_bounded@_Num_int_base@std@@2_NB		; std::_Num_int_base::is_bounded
PUBLIC	?is_exact@_Num_int_base@std@@2_NB		; std::_Num_int_base::is_exact
PUBLIC	?is_integer@_Num_int_base@std@@2_NB		; std::_Num_int_base::is_integer
PUBLIC	?is_modulo@_Num_int_base@std@@2_NB		; std::_Num_int_base::is_modulo
PUBLIC	?is_specialized@_Num_int_base@std@@2_NB		; std::_Num_int_base::is_specialized
PUBLIC	?radix@_Num_int_base@std@@2HB			; std::_Num_int_base::radix
PUBLIC	?has_denorm@_Num_float_base@std@@2W4float_denorm_style@2@B ; std::_Num_float_base::has_denorm
PUBLIC	?has_denorm_loss@_Num_float_base@std@@2_NB	; std::_Num_float_base::has_denorm_loss
PUBLIC	?has_infinity@_Num_float_base@std@@2_NB		; std::_Num_float_base::has_infinity
PUBLIC	?has_quiet_NaN@_Num_float_base@std@@2_NB	; std::_Num_float_base::has_quiet_NaN
PUBLIC	?has_signaling_NaN@_Num_float_base@std@@2_NB	; std::_Num_float_base::has_signaling_NaN
PUBLIC	?is_bounded@_Num_float_base@std@@2_NB		; std::_Num_float_base::is_bounded
PUBLIC	?is_exact@_Num_float_base@std@@2_NB		; std::_Num_float_base::is_exact
PUBLIC	?is_iec559@_Num_float_base@std@@2_NB		; std::_Num_float_base::is_iec559
PUBLIC	?is_integer@_Num_float_base@std@@2_NB		; std::_Num_float_base::is_integer
PUBLIC	?is_modulo@_Num_float_base@std@@2_NB		; std::_Num_float_base::is_modulo
PUBLIC	?is_signed@_Num_float_base@std@@2_NB		; std::_Num_float_base::is_signed
PUBLIC	?is_specialized@_Num_float_base@std@@2_NB	; std::_Num_float_base::is_specialized
PUBLIC	?tinyness_before@_Num_float_base@std@@2_NB	; std::_Num_float_base::tinyness_before
PUBLIC	?traps@_Num_float_base@std@@2_NB		; std::_Num_float_base::traps
PUBLIC	?round_style@_Num_float_base@std@@2W4float_round_style@2@B ; std::_Num_float_base::round_style
PUBLIC	?radix@_Num_float_base@std@@2HB			; std::_Num_float_base::radix
PUBLIC	?is_signed@?$numeric_limits@D@std@@2_NB		; std::numeric_limits<char>::is_signed
PUBLIC	?digits@?$numeric_limits@D@std@@2HB		; std::numeric_limits<char>::digits
PUBLIC	?digits10@?$numeric_limits@D@std@@2HB		; std::numeric_limits<char>::digits10
PUBLIC	?max_digits10@?$numeric_limits@D@std@@2HB	; std::numeric_limits<char>::max_digits10
PUBLIC	?is_signed@?$numeric_limits@_W@std@@2_NB	; std::numeric_limits<wchar_t>::is_signed
PUBLIC	?digits@?$numeric_limits@_W@std@@2HB		; std::numeric_limits<wchar_t>::digits
PUBLIC	?digits10@?$numeric_limits@_W@std@@2HB		; std::numeric_limits<wchar_t>::digits10
PUBLIC	?max_digits10@?$numeric_limits@_W@std@@2HB	; std::numeric_limits<wchar_t>::max_digits10
PUBLIC	?is_modulo@?$numeric_limits@_N@std@@2_NB	; std::numeric_limits<bool>::is_modulo
PUBLIC	?is_signed@?$numeric_limits@_N@std@@2_NB	; std::numeric_limits<bool>::is_signed
PUBLIC	?digits@?$numeric_limits@_N@std@@2HB		; std::numeric_limits<bool>::digits
PUBLIC	?digits10@?$numeric_limits@_N@std@@2HB		; std::numeric_limits<bool>::digits10
PUBLIC	?max_digits10@?$numeric_limits@_N@std@@2HB	; std::numeric_limits<bool>::max_digits10
PUBLIC	?is_signed@?$numeric_limits@C@std@@2_NB		; std::numeric_limits<signed char>::is_signed
PUBLIC	?digits@?$numeric_limits@C@std@@2HB		; std::numeric_limits<signed char>::digits
PUBLIC	?digits10@?$numeric_limits@C@std@@2HB		; std::numeric_limits<signed char>::digits10
PUBLIC	?max_digits10@?$numeric_limits@C@std@@2HB	; std::numeric_limits<signed char>::max_digits10
PUBLIC	?is_signed@?$numeric_limits@E@std@@2_NB		; std::numeric_limits<unsigned char>::is_signed
PUBLIC	?digits@?$numeric_limits@E@std@@2HB		; std::numeric_limits<unsigned char>::digits
PUBLIC	?digits10@?$numeric_limits@E@std@@2HB		; std::numeric_limits<unsigned char>::digits10
PUBLIC	?max_digits10@?$numeric_limits@E@std@@2HB	; std::numeric_limits<unsigned char>::max_digits10
PUBLIC	?is_signed@?$numeric_limits@F@std@@2_NB		; std::numeric_limits<short>::is_signed
PUBLIC	?digits@?$numeric_limits@F@std@@2HB		; std::numeric_limits<short>::digits
PUBLIC	?digits10@?$numeric_limits@F@std@@2HB		; std::numeric_limits<short>::digits10
PUBLIC	?max_digits10@?$numeric_limits@F@std@@2HB	; std::numeric_limits<short>::max_digits10
PUBLIC	?is_signed@?$numeric_limits@G@std@@2_NB		; std::numeric_limits<unsigned short>::is_signed
PUBLIC	?digits@?$numeric_limits@G@std@@2HB		; std::numeric_limits<unsigned short>::digits
PUBLIC	?digits10@?$numeric_limits@G@std@@2HB		; std::numeric_limits<unsigned short>::digits10
PUBLIC	?max_digits10@?$numeric_limits@G@std@@2HB	; std::numeric_limits<unsigned short>::max_digits10
PUBLIC	?is_signed@?$numeric_limits@H@std@@2_NB		; std::numeric_limits<int>::is_signed
PUBLIC	?digits@?$numeric_limits@H@std@@2HB		; std::numeric_limits<int>::digits
PUBLIC	?digits10@?$numeric_limits@H@std@@2HB		; std::numeric_limits<int>::digits10
PUBLIC	?max_digits10@?$numeric_limits@H@std@@2HB	; std::numeric_limits<int>::max_digits10
PUBLIC	?is_signed@?$numeric_limits@I@std@@2_NB		; std::numeric_limits<unsigned int>::is_signed
PUBLIC	?digits@?$numeric_limits@I@std@@2HB		; std::numeric_limits<unsigned int>::digits
PUBLIC	?digits10@?$numeric_limits@I@std@@2HB		; std::numeric_limits<unsigned int>::digits10
PUBLIC	?max_digits10@?$numeric_limits@I@std@@2HB	; std::numeric_limits<unsigned int>::max_digits10
PUBLIC	?is_signed@?$numeric_limits@J@std@@2_NB		; std::numeric_limits<long>::is_signed
PUBLIC	?digits@?$numeric_limits@J@std@@2HB		; std::numeric_limits<long>::digits
PUBLIC	?digits10@?$numeric_limits@J@std@@2HB		; std::numeric_limits<long>::digits10
PUBLIC	?max_digits10@?$numeric_limits@J@std@@2HB	; std::numeric_limits<long>::max_digits10
PUBLIC	?is_signed@?$numeric_limits@K@std@@2_NB		; std::numeric_limits<unsigned long>::is_signed
PUBLIC	?digits@?$numeric_limits@K@std@@2HB		; std::numeric_limits<unsigned long>::digits
PUBLIC	?digits10@?$numeric_limits@K@std@@2HB		; std::numeric_limits<unsigned long>::digits10
PUBLIC	?max_digits10@?$numeric_limits@K@std@@2HB	; std::numeric_limits<unsigned long>::max_digits10
PUBLIC	?is_signed@?$numeric_limits@_J@std@@2_NB	; std::numeric_limits<__int64>::is_signed
PUBLIC	?digits@?$numeric_limits@_J@std@@2HB		; std::numeric_limits<__int64>::digits
PUBLIC	?digits10@?$numeric_limits@_J@std@@2HB		; std::numeric_limits<__int64>::digits10
PUBLIC	?max_digits10@?$numeric_limits@_J@std@@2HB	; std::numeric_limits<__int64>::max_digits10
PUBLIC	?is_signed@?$numeric_limits@_K@std@@2_NB	; std::numeric_limits<unsigned __int64>::is_signed
PUBLIC	?digits@?$numeric_limits@_K@std@@2HB		; std::numeric_limits<unsigned __int64>::digits
PUBLIC	?digits10@?$numeric_limits@_K@std@@2HB		; std::numeric_limits<unsigned __int64>::digits10
PUBLIC	?max_digits10@?$numeric_limits@_K@std@@2HB	; std::numeric_limits<unsigned __int64>::max_digits10
PUBLIC	?digits@?$numeric_limits@M@std@@2HB		; std::numeric_limits<float>::digits
PUBLIC	?digits10@?$numeric_limits@M@std@@2HB		; std::numeric_limits<float>::digits10
PUBLIC	?max_digits10@?$numeric_limits@M@std@@2HB	; std::numeric_limits<float>::max_digits10
PUBLIC	?max_exponent@?$numeric_limits@M@std@@2HB	; std::numeric_limits<float>::max_exponent
PUBLIC	?max_exponent10@?$numeric_limits@M@std@@2HB	; std::numeric_limits<float>::max_exponent10
PUBLIC	?min_exponent@?$numeric_limits@M@std@@2HB	; std::numeric_limits<float>::min_exponent
PUBLIC	?min_exponent10@?$numeric_limits@M@std@@2HB	; std::numeric_limits<float>::min_exponent10
PUBLIC	?digits@?$numeric_limits@N@std@@2HB		; std::numeric_limits<double>::digits
PUBLIC	?digits10@?$numeric_limits@N@std@@2HB		; std::numeric_limits<double>::digits10
PUBLIC	?max_digits10@?$numeric_limits@N@std@@2HB	; std::numeric_limits<double>::max_digits10
PUBLIC	?max_exponent@?$numeric_limits@N@std@@2HB	; std::numeric_limits<double>::max_exponent
PUBLIC	?max_exponent10@?$numeric_limits@N@std@@2HB	; std::numeric_limits<double>::max_exponent10
PUBLIC	?min_exponent@?$numeric_limits@N@std@@2HB	; std::numeric_limits<double>::min_exponent
PUBLIC	?min_exponent10@?$numeric_limits@N@std@@2HB	; std::numeric_limits<double>::min_exponent10
PUBLIC	?digits@?$numeric_limits@O@std@@2HB		; std::numeric_limits<long double>::digits
PUBLIC	?digits10@?$numeric_limits@O@std@@2HB		; std::numeric_limits<long double>::digits10
PUBLIC	?max_digits10@?$numeric_limits@O@std@@2HB	; std::numeric_limits<long double>::max_digits10
PUBLIC	?max_exponent@?$numeric_limits@O@std@@2HB	; std::numeric_limits<long double>::max_exponent
PUBLIC	?max_exponent10@?$numeric_limits@O@std@@2HB	; std::numeric_limits<long double>::max_exponent10
PUBLIC	?min_exponent@?$numeric_limits@O@std@@2HB	; std::numeric_limits<long double>::min_exponent
PUBLIC	?min_exponent10@?$numeric_limits@O@std@@2HB	; std::numeric_limits<long double>::min_exponent10
PUBLIC	?value@?$integral_constant@_N$0A@@tr1@std@@2_NB	; std::tr1::integral_constant<bool,0>::value
PUBLIC	?value@?$integral_constant@_N$00@tr1@std@@2_NB	; std::tr1::integral_constant<bool,1>::value
PUBLIC	?value@?$integral_constant@I$0A@@tr1@std@@2IB	; std::tr1::integral_constant<unsigned int,0>::value
PUBLIC	?_Rank@?$_Arithmetic_traits@_N@std@@2HB		; std::_Arithmetic_traits<bool>::_Rank
PUBLIC	?_Rank@?$_Arithmetic_traits@D@std@@2HB		; std::_Arithmetic_traits<char>::_Rank
PUBLIC	?_Rank@?$_Arithmetic_traits@C@std@@2HB		; std::_Arithmetic_traits<signed char>::_Rank
PUBLIC	?_Rank@?$_Arithmetic_traits@E@std@@2HB		; std::_Arithmetic_traits<unsigned char>::_Rank
PUBLIC	?_Rank@?$_Arithmetic_traits@F@std@@2HB		; std::_Arithmetic_traits<short>::_Rank
PUBLIC	?_Rank@?$_Arithmetic_traits@G@std@@2HB		; std::_Arithmetic_traits<unsigned short>::_Rank
PUBLIC	?_Rank@?$_Arithmetic_traits@H@std@@2HB		; std::_Arithmetic_traits<int>::_Rank
PUBLIC	?_Rank@?$_Arithmetic_traits@I@std@@2HB		; std::_Arithmetic_traits<unsigned int>::_Rank
PUBLIC	?_Rank@?$_Arithmetic_traits@J@std@@2HB		; std::_Arithmetic_traits<long>::_Rank
PUBLIC	?_Rank@?$_Arithmetic_traits@K@std@@2HB		; std::_Arithmetic_traits<unsigned long>::_Rank
PUBLIC	?_Rank@?$_Arithmetic_traits@_J@std@@2HB		; std::_Arithmetic_traits<__int64>::_Rank
PUBLIC	?_Rank@?$_Arithmetic_traits@_K@std@@2HB		; std::_Arithmetic_traits<unsigned __int64>::_Rank
PUBLIC	?_Rank@?$_Arithmetic_traits@M@std@@2HB		; std::_Arithmetic_traits<float>::_Rank
PUBLIC	?_Rank@?$_Arithmetic_traits@N@std@@2HB		; std::_Arithmetic_traits<double>::_Rank
PUBLIC	?_Rank@?$_Arithmetic_traits@O@std@@2HB		; std::_Arithmetic_traits<long double>::_Rank
PUBLIC	?collate@?$_Locbase@H@std@@2HB			; std::_Locbase<int>::collate
PUBLIC	?ctype@?$_Locbase@H@std@@2HB			; std::_Locbase<int>::ctype
PUBLIC	?monetary@?$_Locbase@H@std@@2HB			; std::_Locbase<int>::monetary
PUBLIC	?numeric@?$_Locbase@H@std@@2HB			; std::_Locbase<int>::numeric
PUBLIC	?time@?$_Locbase@H@std@@2HB			; std::_Locbase<int>::time
PUBLIC	?messages@?$_Locbase@H@std@@2HB			; std::_Locbase<int>::messages
PUBLIC	?all@?$_Locbase@H@std@@2HB			; std::_Locbase<int>::all
PUBLIC	?none@?$_Locbase@H@std@@2HB			; std::_Locbase<int>::none
PUBLIC	?table_size@?$ctype@D@std@@2IB			; std::ctype<char>::table_size
PUBLIC	?skipws@?$_Iosb@H@std@@2W4_Fmtflags@12@B	; std::_Iosb<int>::skipws
PUBLIC	?unitbuf@?$_Iosb@H@std@@2W4_Fmtflags@12@B	; std::_Iosb<int>::unitbuf
PUBLIC	?uppercase@?$_Iosb@H@std@@2W4_Fmtflags@12@B	; std::_Iosb<int>::uppercase
PUBLIC	?showbase@?$_Iosb@H@std@@2W4_Fmtflags@12@B	; std::_Iosb<int>::showbase
PUBLIC	?showpoint@?$_Iosb@H@std@@2W4_Fmtflags@12@B	; std::_Iosb<int>::showpoint
PUBLIC	?showpos@?$_Iosb@H@std@@2W4_Fmtflags@12@B	; std::_Iosb<int>::showpos
PUBLIC	?left@?$_Iosb@H@std@@2W4_Fmtflags@12@B		; std::_Iosb<int>::left
PUBLIC	?right@?$_Iosb@H@std@@2W4_Fmtflags@12@B		; std::_Iosb<int>::right
PUBLIC	?internal@?$_Iosb@H@std@@2W4_Fmtflags@12@B	; std::_Iosb<int>::internal
PUBLIC	?dec@?$_Iosb@H@std@@2W4_Fmtflags@12@B		; std::_Iosb<int>::dec
PUBLIC	?oct@?$_Iosb@H@std@@2W4_Fmtflags@12@B		; std::_Iosb<int>::oct
PUBLIC	?hex@?$_Iosb@H@std@@2W4_Fmtflags@12@B		; std::_Iosb<int>::hex
PUBLIC	?scientific@?$_Iosb@H@std@@2W4_Fmtflags@12@B	; std::_Iosb<int>::scientific
PUBLIC	?fixed@?$_Iosb@H@std@@2W4_Fmtflags@12@B		; std::_Iosb<int>::fixed
PUBLIC	?hexfloat@?$_Iosb@H@std@@2W4_Fmtflags@12@B	; std::_Iosb<int>::hexfloat
PUBLIC	?boolalpha@?$_Iosb@H@std@@2W4_Fmtflags@12@B	; std::_Iosb<int>::boolalpha
PUBLIC	?_Stdio@?$_Iosb@H@std@@2W4_Fmtflags@12@B	; std::_Iosb<int>::_Stdio
PUBLIC	?adjustfield@?$_Iosb@H@std@@2W4_Fmtflags@12@B	; std::_Iosb<int>::adjustfield
PUBLIC	?basefield@?$_Iosb@H@std@@2W4_Fmtflags@12@B	; std::_Iosb<int>::basefield
PUBLIC	?floatfield@?$_Iosb@H@std@@2W4_Fmtflags@12@B	; std::_Iosb<int>::floatfield
PUBLIC	?goodbit@?$_Iosb@H@std@@2W4_Iostate@12@B	; std::_Iosb<int>::goodbit
PUBLIC	?eofbit@?$_Iosb@H@std@@2W4_Iostate@12@B		; std::_Iosb<int>::eofbit
PUBLIC	?failbit@?$_Iosb@H@std@@2W4_Iostate@12@B	; std::_Iosb<int>::failbit
PUBLIC	?badbit@?$_Iosb@H@std@@2W4_Iostate@12@B		; std::_Iosb<int>::badbit
PUBLIC	?_Hardfail@?$_Iosb@H@std@@2W4_Iostate@12@B	; std::_Iosb<int>::_Hardfail
PUBLIC	?in@?$_Iosb@H@std@@2W4_Openmode@12@B		; std::_Iosb<int>::in
PUBLIC	?out@?$_Iosb@H@std@@2W4_Openmode@12@B		; std::_Iosb<int>::out
PUBLIC	?ate@?$_Iosb@H@std@@2W4_Openmode@12@B		; std::_Iosb<int>::ate
PUBLIC	?app@?$_Iosb@H@std@@2W4_Openmode@12@B		; std::_Iosb<int>::app
PUBLIC	?trunc@?$_Iosb@H@std@@2W4_Openmode@12@B		; std::_Iosb<int>::trunc
PUBLIC	?_Nocreate@?$_Iosb@H@std@@2W4_Openmode@12@B	; std::_Iosb<int>::_Nocreate
PUBLIC	?_Noreplace@?$_Iosb@H@std@@2W4_Openmode@12@B	; std::_Iosb<int>::_Noreplace
PUBLIC	?binary@?$_Iosb@H@std@@2W4_Openmode@12@B	; std::_Iosb<int>::binary
PUBLIC	?beg@?$_Iosb@H@std@@2W4_Seekdir@12@B		; std::_Iosb<int>::beg
PUBLIC	?cur@?$_Iosb@H@std@@2W4_Seekdir@12@B		; std::_Iosb<int>::cur
PUBLIC	?end@?$_Iosb@H@std@@2W4_Seekdir@12@B		; std::_Iosb<int>::end
CONST	SEGMENT
_Pi	DQ	0400921f9f01b866er		; 3.14159
_pi	DQ	0400921f9f01b866er		; 3.14159
_colors	DD	0ffH
	DD	0ff0000H
	DD	0ff00H
	DD	00H
	DD	0c8c8ffH
	DD	0c8c8c8H
	DD	0ffffH
	DD	0aaffH
	DD	0aa00ffH
	DD	05a85H
	DD	0ffffffH
	DD	06400H
	DD	0ffff00H
	DD	0c8c8c8H
	DD	0e6e6ffH
$SG139621 DB	'Slug_MaxSpeed', 00H
	ORG $+2
$SG139622 DB	'RailGun_IdealRange', 00H
	ORG $+1
$SG139623 DB	'RailGun_FiringFreq', 00H
	ORG $+1
$SG139624 DB	'RailGun_MaxRoundsCarried', 00H
	ORG $+3
$SG139625 DB	'RailGun_DefaultRounds', 00H
	ORG $+2
$SG139655 DB	'DistanceToTarget', 00H
	ORG $+3
$SG139658 DB	'AmmoStatus', 00H
	ORG $+1
$SG139660 DB	'Desirability', 00H
	ORG $+3
$SG139666 DB	'DistanceToTarget', 00H
	ORG $+3
$SG139671 DB	'Target_Close', 00H
	ORG $+3
$SG139676 DB	'Target_Medium', 00H
	ORG $+2
$SG139681 DB	'Target_Far', 00H
	ORG $+1
$SG139684 DB	'Desirability', 00H
	ORG $+3
$SG139689 DB	'VeryDesirable', 00H
	ORG $+2
$SG139694 DB	'Desirable', 00H
	ORG $+2
$SG139699 DB	'Undesirable', 00H
$SG139702 DB	'AmmoStatus', 00H
	ORG $+1
$SG139707 DB	'Ammo_Loads', 00H
	ORG $+1
$SG139712 DB	'Ammo_Okay', 00H
	ORG $+2
$SG139717 DB	'Ammo_Low', 00H
CONST	ENDS
;	COMDAT ?end@?$_Iosb@H@std@@2W4_Seekdir@12@B
CONST	SEGMENT
?end@?$_Iosb@H@std@@2W4_Seekdir@12@B DD 02H		; std::_Iosb<int>::end
CONST	ENDS
;	COMDAT ?cur@?$_Iosb@H@std@@2W4_Seekdir@12@B
CONST	SEGMENT
?cur@?$_Iosb@H@std@@2W4_Seekdir@12@B DD 01H		; std::_Iosb<int>::cur
CONST	ENDS
;	COMDAT ?beg@?$_Iosb@H@std@@2W4_Seekdir@12@B
CONST	SEGMENT
?beg@?$_Iosb@H@std@@2W4_Seekdir@12@B DD 00H		; std::_Iosb<int>::beg
CONST	ENDS
;	COMDAT ?binary@?$_Iosb@H@std@@2W4_Openmode@12@B
CONST	SEGMENT
?binary@?$_Iosb@H@std@@2W4_Openmode@12@B DD 020H	; std::_Iosb<int>::binary
CONST	ENDS
;	COMDAT ?_Noreplace@?$_Iosb@H@std@@2W4_Openmode@12@B
CONST	SEGMENT
?_Noreplace@?$_Iosb@H@std@@2W4_Openmode@12@B DD 080H	; std::_Iosb<int>::_Noreplace
CONST	ENDS
;	COMDAT ?_Nocreate@?$_Iosb@H@std@@2W4_Openmode@12@B
CONST	SEGMENT
?_Nocreate@?$_Iosb@H@std@@2W4_Openmode@12@B DD 040H	; std::_Iosb<int>::_Nocreate
CONST	ENDS
;	COMDAT ?trunc@?$_Iosb@H@std@@2W4_Openmode@12@B
CONST	SEGMENT
?trunc@?$_Iosb@H@std@@2W4_Openmode@12@B DD 010H		; std::_Iosb<int>::trunc
CONST	ENDS
;	COMDAT ?app@?$_Iosb@H@std@@2W4_Openmode@12@B
CONST	SEGMENT
?app@?$_Iosb@H@std@@2W4_Openmode@12@B DD 08H		; std::_Iosb<int>::app
CONST	ENDS
;	COMDAT ?ate@?$_Iosb@H@std@@2W4_Openmode@12@B
CONST	SEGMENT
?ate@?$_Iosb@H@std@@2W4_Openmode@12@B DD 04H		; std::_Iosb<int>::ate
CONST	ENDS
;	COMDAT ?out@?$_Iosb@H@std@@2W4_Openmode@12@B
CONST	SEGMENT
?out@?$_Iosb@H@std@@2W4_Openmode@12@B DD 02H		; std::_Iosb<int>::out
CONST	ENDS
;	COMDAT ?in@?$_Iosb@H@std@@2W4_Openmode@12@B
CONST	SEGMENT
?in@?$_Iosb@H@std@@2W4_Openmode@12@B DD 01H		; std::_Iosb<int>::in
CONST	ENDS
;	COMDAT ?_Hardfail@?$_Iosb@H@std@@2W4_Iostate@12@B
CONST	SEGMENT
?_Hardfail@?$_Iosb@H@std@@2W4_Iostate@12@B DD 010H	; std::_Iosb<int>::_Hardfail
CONST	ENDS
;	COMDAT ?badbit@?$_Iosb@H@std@@2W4_Iostate@12@B
CONST	SEGMENT
?badbit@?$_Iosb@H@std@@2W4_Iostate@12@B DD 04H		; std::_Iosb<int>::badbit
CONST	ENDS
;	COMDAT ?failbit@?$_Iosb@H@std@@2W4_Iostate@12@B
CONST	SEGMENT
?failbit@?$_Iosb@H@std@@2W4_Iostate@12@B DD 02H		; std::_Iosb<int>::failbit
CONST	ENDS
;	COMDAT ?eofbit@?$_Iosb@H@std@@2W4_Iostate@12@B
CONST	SEGMENT
?eofbit@?$_Iosb@H@std@@2W4_Iostate@12@B DD 01H		; std::_Iosb<int>::eofbit
CONST	ENDS
;	COMDAT ?goodbit@?$_Iosb@H@std@@2W4_Iostate@12@B
CONST	SEGMENT
?goodbit@?$_Iosb@H@std@@2W4_Iostate@12@B DD 00H		; std::_Iosb<int>::goodbit
CONST	ENDS
;	COMDAT ?floatfield@?$_Iosb@H@std@@2W4_Fmtflags@12@B
CONST	SEGMENT
?floatfield@?$_Iosb@H@std@@2W4_Fmtflags@12@B DD 03000H	; std::_Iosb<int>::floatfield
CONST	ENDS
;	COMDAT ?basefield@?$_Iosb@H@std@@2W4_Fmtflags@12@B
CONST	SEGMENT
?basefield@?$_Iosb@H@std@@2W4_Fmtflags@12@B DD 0e00H	; std::_Iosb<int>::basefield
CONST	ENDS
;	COMDAT ?adjustfield@?$_Iosb@H@std@@2W4_Fmtflags@12@B
CONST	SEGMENT
?adjustfield@?$_Iosb@H@std@@2W4_Fmtflags@12@B DD 01c0H	; std::_Iosb<int>::adjustfield
CONST	ENDS
;	COMDAT ?_Stdio@?$_Iosb@H@std@@2W4_Fmtflags@12@B
CONST	SEGMENT
?_Stdio@?$_Iosb@H@std@@2W4_Fmtflags@12@B DD 08000H	; std::_Iosb<int>::_Stdio
CONST	ENDS
;	COMDAT ?boolalpha@?$_Iosb@H@std@@2W4_Fmtflags@12@B
CONST	SEGMENT
?boolalpha@?$_Iosb@H@std@@2W4_Fmtflags@12@B DD 04000H	; std::_Iosb<int>::boolalpha
CONST	ENDS
;	COMDAT ?hexfloat@?$_Iosb@H@std@@2W4_Fmtflags@12@B
CONST	SEGMENT
?hexfloat@?$_Iosb@H@std@@2W4_Fmtflags@12@B DD 03000H	; std::_Iosb<int>::hexfloat
CONST	ENDS
;	COMDAT ?fixed@?$_Iosb@H@std@@2W4_Fmtflags@12@B
CONST	SEGMENT
?fixed@?$_Iosb@H@std@@2W4_Fmtflags@12@B DD 02000H	; std::_Iosb<int>::fixed
CONST	ENDS
;	COMDAT ?scientific@?$_Iosb@H@std@@2W4_Fmtflags@12@B
CONST	SEGMENT
?scientific@?$_Iosb@H@std@@2W4_Fmtflags@12@B DD 01000H	; std::_Iosb<int>::scientific
CONST	ENDS
;	COMDAT ?hex@?$_Iosb@H@std@@2W4_Fmtflags@12@B
CONST	SEGMENT
?hex@?$_Iosb@H@std@@2W4_Fmtflags@12@B DD 0800H		; std::_Iosb<int>::hex
CONST	ENDS
;	COMDAT ?oct@?$_Iosb@H@std@@2W4_Fmtflags@12@B
CONST	SEGMENT
?oct@?$_Iosb@H@std@@2W4_Fmtflags@12@B DD 0400H		; std::_Iosb<int>::oct
CONST	ENDS
;	COMDAT ?dec@?$_Iosb@H@std@@2W4_Fmtflags@12@B
CONST	SEGMENT
?dec@?$_Iosb@H@std@@2W4_Fmtflags@12@B DD 0200H		; std::_Iosb<int>::dec
CONST	ENDS
;	COMDAT ?internal@?$_Iosb@H@std@@2W4_Fmtflags@12@B
CONST	SEGMENT
?internal@?$_Iosb@H@std@@2W4_Fmtflags@12@B DD 0100H	; std::_Iosb<int>::internal
CONST	ENDS
;	COMDAT ?right@?$_Iosb@H@std@@2W4_Fmtflags@12@B
CONST	SEGMENT
?right@?$_Iosb@H@std@@2W4_Fmtflags@12@B DD 080H		; std::_Iosb<int>::right
CONST	ENDS
;	COMDAT ?left@?$_Iosb@H@std@@2W4_Fmtflags@12@B
CONST	SEGMENT
?left@?$_Iosb@H@std@@2W4_Fmtflags@12@B DD 040H		; std::_Iosb<int>::left
CONST	ENDS
;	COMDAT ?showpos@?$_Iosb@H@std@@2W4_Fmtflags@12@B
CONST	SEGMENT
?showpos@?$_Iosb@H@std@@2W4_Fmtflags@12@B DD 020H	; std::_Iosb<int>::showpos
CONST	ENDS
;	COMDAT ?showpoint@?$_Iosb@H@std@@2W4_Fmtflags@12@B
CONST	SEGMENT
?showpoint@?$_Iosb@H@std@@2W4_Fmtflags@12@B DD 010H	; std::_Iosb<int>::showpoint
CONST	ENDS
;	COMDAT ?showbase@?$_Iosb@H@std@@2W4_Fmtflags@12@B
CONST	SEGMENT
?showbase@?$_Iosb@H@std@@2W4_Fmtflags@12@B DD 08H	; std::_Iosb<int>::showbase
CONST	ENDS
;	COMDAT ?uppercase@?$_Iosb@H@std@@2W4_Fmtflags@12@B
CONST	SEGMENT
?uppercase@?$_Iosb@H@std@@2W4_Fmtflags@12@B DD 04H	; std::_Iosb<int>::uppercase
CONST	ENDS
;	COMDAT ?unitbuf@?$_Iosb@H@std@@2W4_Fmtflags@12@B
CONST	SEGMENT
?unitbuf@?$_Iosb@H@std@@2W4_Fmtflags@12@B DD 02H	; std::_Iosb<int>::unitbuf
CONST	ENDS
;	COMDAT ?skipws@?$_Iosb@H@std@@2W4_Fmtflags@12@B
CONST	SEGMENT
?skipws@?$_Iosb@H@std@@2W4_Fmtflags@12@B DD 01H		; std::_Iosb<int>::skipws
CONST	ENDS
;	COMDAT ?table_size@?$ctype@D@std@@2IB
CONST	SEGMENT
?table_size@?$ctype@D@std@@2IB DD 0100H			; std::ctype<char>::table_size
CONST	ENDS
;	COMDAT ?none@?$_Locbase@H@std@@2HB
CONST	SEGMENT
?none@?$_Locbase@H@std@@2HB DD 00H			; std::_Locbase<int>::none
CONST	ENDS
;	COMDAT ?all@?$_Locbase@H@std@@2HB
CONST	SEGMENT
?all@?$_Locbase@H@std@@2HB DD 03fH			; std::_Locbase<int>::all
CONST	ENDS
;	COMDAT ?messages@?$_Locbase@H@std@@2HB
CONST	SEGMENT
?messages@?$_Locbase@H@std@@2HB DD 020H			; std::_Locbase<int>::messages
CONST	ENDS
;	COMDAT ?time@?$_Locbase@H@std@@2HB
CONST	SEGMENT
?time@?$_Locbase@H@std@@2HB DD 010H			; std::_Locbase<int>::time
CONST	ENDS
;	COMDAT ?numeric@?$_Locbase@H@std@@2HB
CONST	SEGMENT
?numeric@?$_Locbase@H@std@@2HB DD 08H			; std::_Locbase<int>::numeric
CONST	ENDS
;	COMDAT ?monetary@?$_Locbase@H@std@@2HB
CONST	SEGMENT
?monetary@?$_Locbase@H@std@@2HB DD 04H			; std::_Locbase<int>::monetary
CONST	ENDS
;	COMDAT ?ctype@?$_Locbase@H@std@@2HB
CONST	SEGMENT
?ctype@?$_Locbase@H@std@@2HB DD 02H			; std::_Locbase<int>::ctype
CONST	ENDS
;	COMDAT ?collate@?$_Locbase@H@std@@2HB
CONST	SEGMENT
?collate@?$_Locbase@H@std@@2HB DD 01H			; std::_Locbase<int>::collate
CONST	ENDS
;	COMDAT ?_Rank@?$_Arithmetic_traits@O@std@@2HB
CONST	SEGMENT
?_Rank@?$_Arithmetic_traits@O@std@@2HB DD 09H		; std::_Arithmetic_traits<long double>::_Rank
CONST	ENDS
;	COMDAT ?_Rank@?$_Arithmetic_traits@N@std@@2HB
CONST	SEGMENT
?_Rank@?$_Arithmetic_traits@N@std@@2HB DD 08H		; std::_Arithmetic_traits<double>::_Rank
CONST	ENDS
;	COMDAT ?_Rank@?$_Arithmetic_traits@M@std@@2HB
CONST	SEGMENT
?_Rank@?$_Arithmetic_traits@M@std@@2HB DD 07H		; std::_Arithmetic_traits<float>::_Rank
CONST	ENDS
;	COMDAT ?_Rank@?$_Arithmetic_traits@_K@std@@2HB
CONST	SEGMENT
?_Rank@?$_Arithmetic_traits@_K@std@@2HB DD 06H		; std::_Arithmetic_traits<unsigned __int64>::_Rank
CONST	ENDS
;	COMDAT ?_Rank@?$_Arithmetic_traits@_J@std@@2HB
CONST	SEGMENT
?_Rank@?$_Arithmetic_traits@_J@std@@2HB DD 06H		; std::_Arithmetic_traits<__int64>::_Rank
CONST	ENDS
;	COMDAT ?_Rank@?$_Arithmetic_traits@K@std@@2HB
CONST	SEGMENT
?_Rank@?$_Arithmetic_traits@K@std@@2HB DD 05H		; std::_Arithmetic_traits<unsigned long>::_Rank
CONST	ENDS
;	COMDAT ?_Rank@?$_Arithmetic_traits@J@std@@2HB
CONST	SEGMENT
?_Rank@?$_Arithmetic_traits@J@std@@2HB DD 05H		; std::_Arithmetic_traits<long>::_Rank
CONST	ENDS
;	COMDAT ?_Rank@?$_Arithmetic_traits@I@std@@2HB
CONST	SEGMENT
?_Rank@?$_Arithmetic_traits@I@std@@2HB DD 04H		; std::_Arithmetic_traits<unsigned int>::_Rank
CONST	ENDS
;	COMDAT ?_Rank@?$_Arithmetic_traits@H@std@@2HB
CONST	SEGMENT
?_Rank@?$_Arithmetic_traits@H@std@@2HB DD 04H		; std::_Arithmetic_traits<int>::_Rank
CONST	ENDS
;	COMDAT ?_Rank@?$_Arithmetic_traits@G@std@@2HB
CONST	SEGMENT
?_Rank@?$_Arithmetic_traits@G@std@@2HB DD 03H		; std::_Arithmetic_traits<unsigned short>::_Rank
CONST	ENDS
;	COMDAT ?_Rank@?$_Arithmetic_traits@F@std@@2HB
CONST	SEGMENT
?_Rank@?$_Arithmetic_traits@F@std@@2HB DD 03H		; std::_Arithmetic_traits<short>::_Rank
CONST	ENDS
;	COMDAT ?_Rank@?$_Arithmetic_traits@E@std@@2HB
CONST	SEGMENT
?_Rank@?$_Arithmetic_traits@E@std@@2HB DD 02H		; std::_Arithmetic_traits<unsigned char>::_Rank
CONST	ENDS
;	COMDAT ?_Rank@?$_Arithmetic_traits@C@std@@2HB
CONST	SEGMENT
?_Rank@?$_Arithmetic_traits@C@std@@2HB DD 02H		; std::_Arithmetic_traits<signed char>::_Rank
CONST	ENDS
;	COMDAT ?_Rank@?$_Arithmetic_traits@D@std@@2HB
CONST	SEGMENT
?_Rank@?$_Arithmetic_traits@D@std@@2HB DD 02H		; std::_Arithmetic_traits<char>::_Rank
CONST	ENDS
;	COMDAT ?_Rank@?$_Arithmetic_traits@_N@std@@2HB
CONST	SEGMENT
?_Rank@?$_Arithmetic_traits@_N@std@@2HB DD 01H		; std::_Arithmetic_traits<bool>::_Rank
CONST	ENDS
;	COMDAT ?value@?$integral_constant@I$0A@@tr1@std@@2IB
CONST	SEGMENT
?value@?$integral_constant@I$0A@@tr1@std@@2IB DD 00H	; std::tr1::integral_constant<unsigned int,0>::value
CONST	ENDS
;	COMDAT ?value@?$integral_constant@_N$00@tr1@std@@2_NB
CONST	SEGMENT
?value@?$integral_constant@_N$00@tr1@std@@2_NB DB 01H	; std::tr1::integral_constant<bool,1>::value
CONST	ENDS
;	COMDAT ?value@?$integral_constant@_N$0A@@tr1@std@@2_NB
CONST	SEGMENT
?value@?$integral_constant@_N$0A@@tr1@std@@2_NB DB 00H	; std::tr1::integral_constant<bool,0>::value
CONST	ENDS
;	COMDAT ?min_exponent10@?$numeric_limits@O@std@@2HB
CONST	SEGMENT
?min_exponent10@?$numeric_limits@O@std@@2HB DD 0fffffecdH ; std::numeric_limits<long double>::min_exponent10
CONST	ENDS
;	COMDAT ?min_exponent@?$numeric_limits@O@std@@2HB
CONST	SEGMENT
?min_exponent@?$numeric_limits@O@std@@2HB DD 0fffffc03H	; std::numeric_limits<long double>::min_exponent
CONST	ENDS
;	COMDAT ?max_exponent10@?$numeric_limits@O@std@@2HB
CONST	SEGMENT
?max_exponent10@?$numeric_limits@O@std@@2HB DD 0134H	; std::numeric_limits<long double>::max_exponent10
CONST	ENDS
;	COMDAT ?max_exponent@?$numeric_limits@O@std@@2HB
CONST	SEGMENT
?max_exponent@?$numeric_limits@O@std@@2HB DD 0400H	; std::numeric_limits<long double>::max_exponent
CONST	ENDS
;	COMDAT ?max_digits10@?$numeric_limits@O@std@@2HB
CONST	SEGMENT
?max_digits10@?$numeric_limits@O@std@@2HB DD 011H	; std::numeric_limits<long double>::max_digits10
CONST	ENDS
;	COMDAT ?digits10@?$numeric_limits@O@std@@2HB
CONST	SEGMENT
?digits10@?$numeric_limits@O@std@@2HB DD 0fH		; std::numeric_limits<long double>::digits10
CONST	ENDS
;	COMDAT ?digits@?$numeric_limits@O@std@@2HB
CONST	SEGMENT
?digits@?$numeric_limits@O@std@@2HB DD 035H		; std::numeric_limits<long double>::digits
CONST	ENDS
;	COMDAT ?min_exponent10@?$numeric_limits@N@std@@2HB
CONST	SEGMENT
?min_exponent10@?$numeric_limits@N@std@@2HB DD 0fffffecdH ; std::numeric_limits<double>::min_exponent10
CONST	ENDS
;	COMDAT ?min_exponent@?$numeric_limits@N@std@@2HB
CONST	SEGMENT
?min_exponent@?$numeric_limits@N@std@@2HB DD 0fffffc03H	; std::numeric_limits<double>::min_exponent
CONST	ENDS
;	COMDAT ?max_exponent10@?$numeric_limits@N@std@@2HB
CONST	SEGMENT
?max_exponent10@?$numeric_limits@N@std@@2HB DD 0134H	; std::numeric_limits<double>::max_exponent10
CONST	ENDS
;	COMDAT ?max_exponent@?$numeric_limits@N@std@@2HB
CONST	SEGMENT
?max_exponent@?$numeric_limits@N@std@@2HB DD 0400H	; std::numeric_limits<double>::max_exponent
CONST	ENDS
;	COMDAT ?max_digits10@?$numeric_limits@N@std@@2HB
CONST	SEGMENT
?max_digits10@?$numeric_limits@N@std@@2HB DD 011H	; std::numeric_limits<double>::max_digits10
CONST	ENDS
;	COMDAT ?digits10@?$numeric_limits@N@std@@2HB
CONST	SEGMENT
?digits10@?$numeric_limits@N@std@@2HB DD 0fH		; std::numeric_limits<double>::digits10
CONST	ENDS
;	COMDAT ?digits@?$numeric_limits@N@std@@2HB
CONST	SEGMENT
?digits@?$numeric_limits@N@std@@2HB DD 035H		; std::numeric_limits<double>::digits
CONST	ENDS
;	COMDAT ?min_exponent10@?$numeric_limits@M@std@@2HB
CONST	SEGMENT
?min_exponent10@?$numeric_limits@M@std@@2HB DD 0ffffffdbH ; std::numeric_limits<float>::min_exponent10
CONST	ENDS
;	COMDAT ?min_exponent@?$numeric_limits@M@std@@2HB
CONST	SEGMENT
?min_exponent@?$numeric_limits@M@std@@2HB DD 0ffffff83H	; std::numeric_limits<float>::min_exponent
CONST	ENDS
;	COMDAT ?max_exponent10@?$numeric_limits@M@std@@2HB
CONST	SEGMENT
?max_exponent10@?$numeric_limits@M@std@@2HB DD 026H	; std::numeric_limits<float>::max_exponent10
CONST	ENDS
;	COMDAT ?max_exponent@?$numeric_limits@M@std@@2HB
CONST	SEGMENT
?max_exponent@?$numeric_limits@M@std@@2HB DD 080H	; std::numeric_limits<float>::max_exponent
CONST	ENDS
;	COMDAT ?max_digits10@?$numeric_limits@M@std@@2HB
CONST	SEGMENT
?max_digits10@?$numeric_limits@M@std@@2HB DD 08H	; std::numeric_limits<float>::max_digits10
CONST	ENDS
;	COMDAT ?digits10@?$numeric_limits@M@std@@2HB
CONST	SEGMENT
?digits10@?$numeric_limits@M@std@@2HB DD 06H		; std::numeric_limits<float>::digits10
CONST	ENDS
;	COMDAT ?digits@?$numeric_limits@M@std@@2HB
CONST	SEGMENT
?digits@?$numeric_limits@M@std@@2HB DD 018H		; std::numeric_limits<float>::digits
CONST	ENDS
;	COMDAT ?max_digits10@?$numeric_limits@_K@std@@2HB
CONST	SEGMENT
?max_digits10@?$numeric_limits@_K@std@@2HB DD 015H	; std::numeric_limits<unsigned __int64>::max_digits10
CONST	ENDS
;	COMDAT ?digits10@?$numeric_limits@_K@std@@2HB
CONST	SEGMENT
?digits10@?$numeric_limits@_K@std@@2HB DD 013H		; std::numeric_limits<unsigned __int64>::digits10
CONST	ENDS
;	COMDAT ?digits@?$numeric_limits@_K@std@@2HB
CONST	SEGMENT
?digits@?$numeric_limits@_K@std@@2HB DD 040H		; std::numeric_limits<unsigned __int64>::digits
CONST	ENDS
;	COMDAT ?is_signed@?$numeric_limits@_K@std@@2_NB
CONST	SEGMENT
?is_signed@?$numeric_limits@_K@std@@2_NB DB 00H		; std::numeric_limits<unsigned __int64>::is_signed
CONST	ENDS
;	COMDAT ?max_digits10@?$numeric_limits@_J@std@@2HB
CONST	SEGMENT
?max_digits10@?$numeric_limits@_J@std@@2HB DD 014H	; std::numeric_limits<__int64>::max_digits10
CONST	ENDS
;	COMDAT ?digits10@?$numeric_limits@_J@std@@2HB
CONST	SEGMENT
?digits10@?$numeric_limits@_J@std@@2HB DD 012H		; std::numeric_limits<__int64>::digits10
CONST	ENDS
;	COMDAT ?digits@?$numeric_limits@_J@std@@2HB
CONST	SEGMENT
?digits@?$numeric_limits@_J@std@@2HB DD 03fH		; std::numeric_limits<__int64>::digits
CONST	ENDS
;	COMDAT ?is_signed@?$numeric_limits@_J@std@@2_NB
CONST	SEGMENT
?is_signed@?$numeric_limits@_J@std@@2_NB DB 01H		; std::numeric_limits<__int64>::is_signed
CONST	ENDS
;	COMDAT ?max_digits10@?$numeric_limits@K@std@@2HB
CONST	SEGMENT
?max_digits10@?$numeric_limits@K@std@@2HB DD 0bH	; std::numeric_limits<unsigned long>::max_digits10
CONST	ENDS
;	COMDAT ?digits10@?$numeric_limits@K@std@@2HB
CONST	SEGMENT
?digits10@?$numeric_limits@K@std@@2HB DD 09H		; std::numeric_limits<unsigned long>::digits10
CONST	ENDS
;	COMDAT ?digits@?$numeric_limits@K@std@@2HB
CONST	SEGMENT
?digits@?$numeric_limits@K@std@@2HB DD 020H		; std::numeric_limits<unsigned long>::digits
CONST	ENDS
;	COMDAT ?is_signed@?$numeric_limits@K@std@@2_NB
CONST	SEGMENT
?is_signed@?$numeric_limits@K@std@@2_NB DB 00H		; std::numeric_limits<unsigned long>::is_signed
CONST	ENDS
;	COMDAT ?max_digits10@?$numeric_limits@J@std@@2HB
CONST	SEGMENT
?max_digits10@?$numeric_limits@J@std@@2HB DD 0bH	; std::numeric_limits<long>::max_digits10
CONST	ENDS
;	COMDAT ?digits10@?$numeric_limits@J@std@@2HB
CONST	SEGMENT
?digits10@?$numeric_limits@J@std@@2HB DD 09H		; std::numeric_limits<long>::digits10
CONST	ENDS
;	COMDAT ?digits@?$numeric_limits@J@std@@2HB
CONST	SEGMENT
?digits@?$numeric_limits@J@std@@2HB DD 01fH		; std::numeric_limits<long>::digits
CONST	ENDS
;	COMDAT ?is_signed@?$numeric_limits@J@std@@2_NB
CONST	SEGMENT
?is_signed@?$numeric_limits@J@std@@2_NB DB 01H		; std::numeric_limits<long>::is_signed
CONST	ENDS
;	COMDAT ?max_digits10@?$numeric_limits@I@std@@2HB
CONST	SEGMENT
?max_digits10@?$numeric_limits@I@std@@2HB DD 0bH	; std::numeric_limits<unsigned int>::max_digits10
CONST	ENDS
;	COMDAT ?digits10@?$numeric_limits@I@std@@2HB
CONST	SEGMENT
?digits10@?$numeric_limits@I@std@@2HB DD 09H		; std::numeric_limits<unsigned int>::digits10
CONST	ENDS
;	COMDAT ?digits@?$numeric_limits@I@std@@2HB
CONST	SEGMENT
?digits@?$numeric_limits@I@std@@2HB DD 020H		; std::numeric_limits<unsigned int>::digits
CONST	ENDS
;	COMDAT ?is_signed@?$numeric_limits@I@std@@2_NB
CONST	SEGMENT
?is_signed@?$numeric_limits@I@std@@2_NB DB 00H		; std::numeric_limits<unsigned int>::is_signed
CONST	ENDS
;	COMDAT ?max_digits10@?$numeric_limits@H@std@@2HB
CONST	SEGMENT
?max_digits10@?$numeric_limits@H@std@@2HB DD 0bH	; std::numeric_limits<int>::max_digits10
CONST	ENDS
;	COMDAT ?digits10@?$numeric_limits@H@std@@2HB
CONST	SEGMENT
?digits10@?$numeric_limits@H@std@@2HB DD 09H		; std::numeric_limits<int>::digits10
CONST	ENDS
;	COMDAT ?digits@?$numeric_limits@H@std@@2HB
CONST	SEGMENT
?digits@?$numeric_limits@H@std@@2HB DD 01fH		; std::numeric_limits<int>::digits
CONST	ENDS
;	COMDAT ?is_signed@?$numeric_limits@H@std@@2_NB
CONST	SEGMENT
?is_signed@?$numeric_limits@H@std@@2_NB DB 01H		; std::numeric_limits<int>::is_signed
CONST	ENDS
;	COMDAT ?max_digits10@?$numeric_limits@G@std@@2HB
CONST	SEGMENT
?max_digits10@?$numeric_limits@G@std@@2HB DD 06H	; std::numeric_limits<unsigned short>::max_digits10
CONST	ENDS
;	COMDAT ?digits10@?$numeric_limits@G@std@@2HB
CONST	SEGMENT
?digits10@?$numeric_limits@G@std@@2HB DD 04H		; std::numeric_limits<unsigned short>::digits10
CONST	ENDS
;	COMDAT ?digits@?$numeric_limits@G@std@@2HB
CONST	SEGMENT
?digits@?$numeric_limits@G@std@@2HB DD 010H		; std::numeric_limits<unsigned short>::digits
CONST	ENDS
;	COMDAT ?is_signed@?$numeric_limits@G@std@@2_NB
CONST	SEGMENT
?is_signed@?$numeric_limits@G@std@@2_NB DB 00H		; std::numeric_limits<unsigned short>::is_signed
CONST	ENDS
;	COMDAT ?max_digits10@?$numeric_limits@F@std@@2HB
CONST	SEGMENT
?max_digits10@?$numeric_limits@F@std@@2HB DD 06H	; std::numeric_limits<short>::max_digits10
CONST	ENDS
;	COMDAT ?digits10@?$numeric_limits@F@std@@2HB
CONST	SEGMENT
?digits10@?$numeric_limits@F@std@@2HB DD 04H		; std::numeric_limits<short>::digits10
CONST	ENDS
;	COMDAT ?digits@?$numeric_limits@F@std@@2HB
CONST	SEGMENT
?digits@?$numeric_limits@F@std@@2HB DD 0fH		; std::numeric_limits<short>::digits
CONST	ENDS
;	COMDAT ?is_signed@?$numeric_limits@F@std@@2_NB
CONST	SEGMENT
?is_signed@?$numeric_limits@F@std@@2_NB DB 01H		; std::numeric_limits<short>::is_signed
CONST	ENDS
;	COMDAT ?max_digits10@?$numeric_limits@E@std@@2HB
CONST	SEGMENT
?max_digits10@?$numeric_limits@E@std@@2HB DD 04H	; std::numeric_limits<unsigned char>::max_digits10
CONST	ENDS
;	COMDAT ?digits10@?$numeric_limits@E@std@@2HB
CONST	SEGMENT
?digits10@?$numeric_limits@E@std@@2HB DD 02H		; std::numeric_limits<unsigned char>::digits10
CONST	ENDS
;	COMDAT ?digits@?$numeric_limits@E@std@@2HB
CONST	SEGMENT
?digits@?$numeric_limits@E@std@@2HB DD 08H		; std::numeric_limits<unsigned char>::digits
CONST	ENDS
;	COMDAT ?is_signed@?$numeric_limits@E@std@@2_NB
CONST	SEGMENT
?is_signed@?$numeric_limits@E@std@@2_NB DB 00H		; std::numeric_limits<unsigned char>::is_signed
CONST	ENDS
;	COMDAT ?max_digits10@?$numeric_limits@C@std@@2HB
CONST	SEGMENT
?max_digits10@?$numeric_limits@C@std@@2HB DD 04H	; std::numeric_limits<signed char>::max_digits10
CONST	ENDS
;	COMDAT ?digits10@?$numeric_limits@C@std@@2HB
CONST	SEGMENT
?digits10@?$numeric_limits@C@std@@2HB DD 02H		; std::numeric_limits<signed char>::digits10
CONST	ENDS
;	COMDAT ?digits@?$numeric_limits@C@std@@2HB
CONST	SEGMENT
?digits@?$numeric_limits@C@std@@2HB DD 07H		; std::numeric_limits<signed char>::digits
CONST	ENDS
;	COMDAT ?is_signed@?$numeric_limits@C@std@@2_NB
CONST	SEGMENT
?is_signed@?$numeric_limits@C@std@@2_NB DB 01H		; std::numeric_limits<signed char>::is_signed
CONST	ENDS
;	COMDAT ?max_digits10@?$numeric_limits@_N@std@@2HB
CONST	SEGMENT
?max_digits10@?$numeric_limits@_N@std@@2HB DD 00H	; std::numeric_limits<bool>::max_digits10
CONST	ENDS
;	COMDAT ?digits10@?$numeric_limits@_N@std@@2HB
CONST	SEGMENT
?digits10@?$numeric_limits@_N@std@@2HB DD 00H		; std::numeric_limits<bool>::digits10
CONST	ENDS
;	COMDAT ?digits@?$numeric_limits@_N@std@@2HB
CONST	SEGMENT
?digits@?$numeric_limits@_N@std@@2HB DD 01H		; std::numeric_limits<bool>::digits
CONST	ENDS
;	COMDAT ?is_signed@?$numeric_limits@_N@std@@2_NB
CONST	SEGMENT
?is_signed@?$numeric_limits@_N@std@@2_NB DB 00H		; std::numeric_limits<bool>::is_signed
CONST	ENDS
;	COMDAT ?is_modulo@?$numeric_limits@_N@std@@2_NB
CONST	SEGMENT
?is_modulo@?$numeric_limits@_N@std@@2_NB DB 00H		; std::numeric_limits<bool>::is_modulo
CONST	ENDS
;	COMDAT ?max_digits10@?$numeric_limits@_W@std@@2HB
CONST	SEGMENT
?max_digits10@?$numeric_limits@_W@std@@2HB DD 06H	; std::numeric_limits<wchar_t>::max_digits10
CONST	ENDS
;	COMDAT ?digits10@?$numeric_limits@_W@std@@2HB
CONST	SEGMENT
?digits10@?$numeric_limits@_W@std@@2HB DD 04H		; std::numeric_limits<wchar_t>::digits10
CONST	ENDS
;	COMDAT ?digits@?$numeric_limits@_W@std@@2HB
CONST	SEGMENT
?digits@?$numeric_limits@_W@std@@2HB DD 010H		; std::numeric_limits<wchar_t>::digits
CONST	ENDS
;	COMDAT ?is_signed@?$numeric_limits@_W@std@@2_NB
CONST	SEGMENT
?is_signed@?$numeric_limits@_W@std@@2_NB DB 00H		; std::numeric_limits<wchar_t>::is_signed
CONST	ENDS
;	COMDAT ?max_digits10@?$numeric_limits@D@std@@2HB
CONST	SEGMENT
?max_digits10@?$numeric_limits@D@std@@2HB DD 04H	; std::numeric_limits<char>::max_digits10
CONST	ENDS
;	COMDAT ?digits10@?$numeric_limits@D@std@@2HB
CONST	SEGMENT
?digits10@?$numeric_limits@D@std@@2HB DD 02H		; std::numeric_limits<char>::digits10
CONST	ENDS
;	COMDAT ?digits@?$numeric_limits@D@std@@2HB
CONST	SEGMENT
?digits@?$numeric_limits@D@std@@2HB DD 07H		; std::numeric_limits<char>::digits
CONST	ENDS
;	COMDAT ?is_signed@?$numeric_limits@D@std@@2_NB
CONST	SEGMENT
?is_signed@?$numeric_limits@D@std@@2_NB DB 01H		; std::numeric_limits<char>::is_signed
CONST	ENDS
;	COMDAT ?radix@_Num_float_base@std@@2HB
CONST	SEGMENT
?radix@_Num_float_base@std@@2HB DD 02H			; std::_Num_float_base::radix
CONST	ENDS
;	COMDAT ?round_style@_Num_float_base@std@@2W4float_round_style@2@B
CONST	SEGMENT
?round_style@_Num_float_base@std@@2W4float_round_style@2@B DD 01H ; std::_Num_float_base::round_style
CONST	ENDS
;	COMDAT ?traps@_Num_float_base@std@@2_NB
CONST	SEGMENT
?traps@_Num_float_base@std@@2_NB DB 01H			; std::_Num_float_base::traps
CONST	ENDS
;	COMDAT ?tinyness_before@_Num_float_base@std@@2_NB
CONST	SEGMENT
?tinyness_before@_Num_float_base@std@@2_NB DB 01H	; std::_Num_float_base::tinyness_before
CONST	ENDS
;	COMDAT ?is_specialized@_Num_float_base@std@@2_NB
CONST	SEGMENT
?is_specialized@_Num_float_base@std@@2_NB DB 01H	; std::_Num_float_base::is_specialized
CONST	ENDS
;	COMDAT ?is_signed@_Num_float_base@std@@2_NB
CONST	SEGMENT
?is_signed@_Num_float_base@std@@2_NB DB 01H		; std::_Num_float_base::is_signed
CONST	ENDS
;	COMDAT ?is_modulo@_Num_float_base@std@@2_NB
CONST	SEGMENT
?is_modulo@_Num_float_base@std@@2_NB DB 00H		; std::_Num_float_base::is_modulo
CONST	ENDS
;	COMDAT ?is_integer@_Num_float_base@std@@2_NB
CONST	SEGMENT
?is_integer@_Num_float_base@std@@2_NB DB 00H		; std::_Num_float_base::is_integer
CONST	ENDS
;	COMDAT ?is_iec559@_Num_float_base@std@@2_NB
CONST	SEGMENT
?is_iec559@_Num_float_base@std@@2_NB DB 01H		; std::_Num_float_base::is_iec559
CONST	ENDS
;	COMDAT ?is_exact@_Num_float_base@std@@2_NB
CONST	SEGMENT
?is_exact@_Num_float_base@std@@2_NB DB 00H		; std::_Num_float_base::is_exact
CONST	ENDS
;	COMDAT ?is_bounded@_Num_float_base@std@@2_NB
CONST	SEGMENT
?is_bounded@_Num_float_base@std@@2_NB DB 01H		; std::_Num_float_base::is_bounded
CONST	ENDS
;	COMDAT ?has_signaling_NaN@_Num_float_base@std@@2_NB
CONST	SEGMENT
?has_signaling_NaN@_Num_float_base@std@@2_NB DB 01H	; std::_Num_float_base::has_signaling_NaN
CONST	ENDS
;	COMDAT ?has_quiet_NaN@_Num_float_base@std@@2_NB
CONST	SEGMENT
?has_quiet_NaN@_Num_float_base@std@@2_NB DB 01H		; std::_Num_float_base::has_quiet_NaN
CONST	ENDS
;	COMDAT ?has_infinity@_Num_float_base@std@@2_NB
CONST	SEGMENT
?has_infinity@_Num_float_base@std@@2_NB DB 01H		; std::_Num_float_base::has_infinity
CONST	ENDS
;	COMDAT ?has_denorm_loss@_Num_float_base@std@@2_NB
CONST	SEGMENT
?has_denorm_loss@_Num_float_base@std@@2_NB DB 01H	; std::_Num_float_base::has_denorm_loss
CONST	ENDS
;	COMDAT ?has_denorm@_Num_float_base@std@@2W4float_denorm_style@2@B
CONST	SEGMENT
?has_denorm@_Num_float_base@std@@2W4float_denorm_style@2@B DD 01H ; std::_Num_float_base::has_denorm
CONST	ENDS
;	COMDAT ?radix@_Num_int_base@std@@2HB
CONST	SEGMENT
?radix@_Num_int_base@std@@2HB DD 02H			; std::_Num_int_base::radix
CONST	ENDS
;	COMDAT ?is_specialized@_Num_int_base@std@@2_NB
CONST	SEGMENT
?is_specialized@_Num_int_base@std@@2_NB DB 01H		; std::_Num_int_base::is_specialized
CONST	ENDS
;	COMDAT ?is_modulo@_Num_int_base@std@@2_NB
CONST	SEGMENT
?is_modulo@_Num_int_base@std@@2_NB DB 01H		; std::_Num_int_base::is_modulo
CONST	ENDS
;	COMDAT ?is_integer@_Num_int_base@std@@2_NB
CONST	SEGMENT
?is_integer@_Num_int_base@std@@2_NB DB 01H		; std::_Num_int_base::is_integer
CONST	ENDS
;	COMDAT ?is_exact@_Num_int_base@std@@2_NB
CONST	SEGMENT
?is_exact@_Num_int_base@std@@2_NB DB 01H		; std::_Num_int_base::is_exact
CONST	ENDS
;	COMDAT ?is_bounded@_Num_int_base@std@@2_NB
CONST	SEGMENT
?is_bounded@_Num_int_base@std@@2_NB DB 01H		; std::_Num_int_base::is_bounded
CONST	ENDS
;	COMDAT ?radix@_Num_base@std@@2HB
CONST	SEGMENT
?radix@_Num_base@std@@2HB DD 00H			; std::_Num_base::radix
CONST	ENDS
;	COMDAT ?min_exponent10@_Num_base@std@@2HB
CONST	SEGMENT
?min_exponent10@_Num_base@std@@2HB DD 00H		; std::_Num_base::min_exponent10
CONST	ENDS
;	COMDAT ?min_exponent@_Num_base@std@@2HB
CONST	SEGMENT
?min_exponent@_Num_base@std@@2HB DD 00H			; std::_Num_base::min_exponent
CONST	ENDS
;	COMDAT ?max_exponent10@_Num_base@std@@2HB
CONST	SEGMENT
?max_exponent10@_Num_base@std@@2HB DD 00H		; std::_Num_base::max_exponent10
CONST	ENDS
;	COMDAT ?max_exponent@_Num_base@std@@2HB
CONST	SEGMENT
?max_exponent@_Num_base@std@@2HB DD 00H			; std::_Num_base::max_exponent
CONST	ENDS
;	COMDAT ?max_digits10@_Num_base@std@@2HB
CONST	SEGMENT
?max_digits10@_Num_base@std@@2HB DD 00H			; std::_Num_base::max_digits10
CONST	ENDS
;	COMDAT ?digits10@_Num_base@std@@2HB
CONST	SEGMENT
?digits10@_Num_base@std@@2HB DD 00H			; std::_Num_base::digits10
CONST	ENDS
;	COMDAT ?digits@_Num_base@std@@2HB
CONST	SEGMENT
?digits@_Num_base@std@@2HB DD 00H			; std::_Num_base::digits
CONST	ENDS
;	COMDAT ?round_style@_Num_base@std@@2W4float_round_style@2@B
CONST	SEGMENT
?round_style@_Num_base@std@@2W4float_round_style@2@B DD 00H ; std::_Num_base::round_style
CONST	ENDS
;	COMDAT ?traps@_Num_base@std@@2_NB
CONST	SEGMENT
?traps@_Num_base@std@@2_NB DB 00H			; std::_Num_base::traps
CONST	ENDS
;	COMDAT ?tinyness_before@_Num_base@std@@2_NB
CONST	SEGMENT
?tinyness_before@_Num_base@std@@2_NB DB 00H		; std::_Num_base::tinyness_before
CONST	ENDS
;	COMDAT ?is_specialized@_Num_base@std@@2_NB
CONST	SEGMENT
?is_specialized@_Num_base@std@@2_NB DB 00H		; std::_Num_base::is_specialized
CONST	ENDS
;	COMDAT ?is_signed@_Num_base@std@@2_NB
CONST	SEGMENT
?is_signed@_Num_base@std@@2_NB DB 00H			; std::_Num_base::is_signed
CONST	ENDS
;	COMDAT ?is_modulo@_Num_base@std@@2_NB
CONST	SEGMENT
?is_modulo@_Num_base@std@@2_NB DB 00H			; std::_Num_base::is_modulo
CONST	ENDS
;	COMDAT ?is_integer@_Num_base@std@@2_NB
CONST	SEGMENT
?is_integer@_Num_base@std@@2_NB DB 00H			; std::_Num_base::is_integer
CONST	ENDS
;	COMDAT ?is_iec559@_Num_base@std@@2_NB
CONST	SEGMENT
?is_iec559@_Num_base@std@@2_NB DB 00H			; std::_Num_base::is_iec559
CONST	ENDS
;	COMDAT ?is_exact@_Num_base@std@@2_NB
CONST	SEGMENT
?is_exact@_Num_base@std@@2_NB DB 00H			; std::_Num_base::is_exact
CONST	ENDS
;	COMDAT ?is_bounded@_Num_base@std@@2_NB
CONST	SEGMENT
?is_bounded@_Num_base@std@@2_NB DB 00H			; std::_Num_base::is_bounded
CONST	ENDS
;	COMDAT ?has_signaling_NaN@_Num_base@std@@2_NB
CONST	SEGMENT
?has_signaling_NaN@_Num_base@std@@2_NB DB 00H		; std::_Num_base::has_signaling_NaN
CONST	ENDS
;	COMDAT ?has_quiet_NaN@_Num_base@std@@2_NB
CONST	SEGMENT
?has_quiet_NaN@_Num_base@std@@2_NB DB 00H		; std::_Num_base::has_quiet_NaN
CONST	ENDS
;	COMDAT ?has_infinity@_Num_base@std@@2_NB
CONST	SEGMENT
?has_infinity@_Num_base@std@@2_NB DB 00H		; std::_Num_base::has_infinity
CONST	ENDS
;	COMDAT ?has_denorm_loss@_Num_base@std@@2_NB
CONST	SEGMENT
?has_denorm_loss@_Num_base@std@@2_NB DB 00H		; std::_Num_base::has_denorm_loss
CONST	ENDS
;	COMDAT ?has_denorm@_Num_base@std@@2W4float_denorm_style@2@B
CONST	SEGMENT
?has_denorm@_Num_base@std@@2W4float_denorm_style@2@B DD 00H ; std::_Num_base::has_denorm
CONST	ENDS
PUBLIC	??1Raven_Weapon@@UAE@XZ				; Raven_Weapon::~Raven_Weapon
PUBLIC	?InitializeFuzzyModule@RailGun@@EAEXXZ		; RailGun::InitializeFuzzyModule
PUBLIC	?push_back@?$vector@UVector2D@@V?$allocator@UVector2D@@@std@@@std@@QAEXABUVector2D@@@Z ; std::vector<Vector2D,std::allocator<Vector2D> >::push_back
PUBLIC	__real@3ff0000000000000
PUBLIC	__real@4024000000000000
PUBLIC	??0Vector2D@@QAE@NN@Z				; Vector2D::Vector2D
PUBLIC	__real@0000000000000000
PUBLIC	__real@bff0000000000000
PUBLIC	??_7RailGun@@6B@				; RailGun::`vftable'
PUBLIC	??0Raven_Weapon@@QAE@IIINNNPAVAbstRaven_Bot@@@Z	; Raven_Weapon::Raven_Weapon
PUBLIC	?GetInt@Scriptor@@QAEHPAD@Z			; Scriptor::GetInt
PUBLIC	?GetDouble@Scriptor@@QAENPAD@Z			; Scriptor::GetDouble
PUBLIC	__$ArrayPad$
PUBLIC	??0RailGun@@QAE@PAVAbstRaven_Bot@@@Z		; RailGun::RailGun
PUBLIC	??_R4RailGun@@6B@				; RailGun::`RTTI Complete Object Locator'
PUBLIC	??_R0?AVRailGun@@@8				; RailGun `RTTI Type Descriptor'
PUBLIC	??_R3RailGun@@8					; RailGun::`RTTI Class Hierarchy Descriptor'
PUBLIC	??_R2RailGun@@8					; RailGun::`RTTI Base Class Array'
PUBLIC	??_R1A@?0A@EA@RailGun@@8			; RailGun::`RTTI Base Class Descriptor at (0,-1,0,64)'
PUBLIC	??_R1A@?0A@EA@Raven_Weapon@@8			; Raven_Weapon::`RTTI Base Class Descriptor at (0,-1,0,64)'
PUBLIC	??_R0?AVRaven_Weapon@@@8			; Raven_Weapon `RTTI Type Descriptor'
PUBLIC	??_R3Raven_Weapon@@8				; Raven_Weapon::`RTTI Class Hierarchy Descriptor'
PUBLIC	??_R2Raven_Weapon@@8				; Raven_Weapon::`RTTI Base Class Array'
PUBLIC	?ShootAt@RailGun@@UAEXUVector2D@@@Z		; RailGun::ShootAt
PUBLIC	?Render@RailGun@@UAEXXZ				; RailGun::Render
PUBLIC	?GetDesirability@RailGun@@UAENN@Z		; RailGun::GetDesirability
EXTRN	?Instance@Raven_Scriptor@@SAPAV1@XZ:PROC	; Raven_Scriptor::Instance
EXTRN	___security_cookie:DWORD
EXTRN	___CxxFrameHandler3:PROC
EXTRN	__fltused:DWORD
EXTRN	__RTC_CheckEsp:PROC
EXTRN	@__security_check_cookie@4:PROC
EXTRN	@_RTC_CheckStackVars@8:PROC
EXTRN	__RTC_Shutdown:PROC
EXTRN	__RTC_InitBase:PROC
EXTRN	??_7type_info@@6B@:QWORD			; type_info::`vftable'
EXTRN	??_ERailGun@@UAEPAXI@Z:PROC			; RailGun::`vector deleting destructor'
;	COMDAT ??_R2Raven_Weapon@@8
; File c:\users\teaja\documents\artificial-fun\labravenprojecttest\raven\armory\weapon_railgun.cpp
rdata$r	SEGMENT
??_R2Raven_Weapon@@8 DD FLAT:??_R1A@?0A@EA@Raven_Weapon@@8 ; Raven_Weapon::`RTTI Base Class Array'
rdata$r	ENDS
;	COMDAT ??_R3Raven_Weapon@@8
rdata$r	SEGMENT
??_R3Raven_Weapon@@8 DD 00H				; Raven_Weapon::`RTTI Class Hierarchy Descriptor'
	DD	00H
	DD	01H
	DD	FLAT:??_R2Raven_Weapon@@8
rdata$r	ENDS
;	COMDAT ??_R0?AVRaven_Weapon@@@8
_DATA	SEGMENT
??_R0?AVRaven_Weapon@@@8 DD FLAT:??_7type_info@@6B@	; Raven_Weapon `RTTI Type Descriptor'
	DD	00H
	DB	'.?AVRaven_Weapon@@', 00H
_DATA	ENDS
;	COMDAT ??_R1A@?0A@EA@Raven_Weapon@@8
rdata$r	SEGMENT
??_R1A@?0A@EA@Raven_Weapon@@8 DD FLAT:??_R0?AVRaven_Weapon@@@8 ; Raven_Weapon::`RTTI Base Class Descriptor at (0,-1,0,64)'
	DD	00H
	DD	00H
	DD	0ffffffffH
	DD	00H
	DD	040H
	DD	FLAT:??_R3Raven_Weapon@@8
rdata$r	ENDS
;	COMDAT ??_R1A@?0A@EA@RailGun@@8
rdata$r	SEGMENT
??_R1A@?0A@EA@RailGun@@8 DD FLAT:??_R0?AVRailGun@@@8	; RailGun::`RTTI Base Class Descriptor at (0,-1,0,64)'
	DD	01H
	DD	00H
	DD	0ffffffffH
	DD	00H
	DD	040H
	DD	FLAT:??_R3RailGun@@8
rdata$r	ENDS
;	COMDAT ??_R2RailGun@@8
rdata$r	SEGMENT
??_R2RailGun@@8 DD FLAT:??_R1A@?0A@EA@RailGun@@8	; RailGun::`RTTI Base Class Array'
	DD	FLAT:??_R1A@?0A@EA@Raven_Weapon@@8
rdata$r	ENDS
;	COMDAT ??_R3RailGun@@8
rdata$r	SEGMENT
??_R3RailGun@@8 DD 00H					; RailGun::`RTTI Class Hierarchy Descriptor'
	DD	00H
	DD	02H
	DD	FLAT:??_R2RailGun@@8
rdata$r	ENDS
;	COMDAT ??_R0?AVRailGun@@@8
_DATA	SEGMENT
??_R0?AVRailGun@@@8 DD FLAT:??_7type_info@@6B@		; RailGun `RTTI Type Descriptor'
	DD	00H
	DB	'.?AVRailGun@@', 00H
_DATA	ENDS
;	COMDAT ??_R4RailGun@@6B@
rdata$r	SEGMENT
??_R4RailGun@@6B@ DD 00H				; RailGun::`RTTI Complete Object Locator'
	DD	00H
	DD	00H
	DD	FLAT:??_R0?AVRailGun@@@8
	DD	FLAT:??_R3RailGun@@8
rdata$r	ENDS
;	COMDAT __real@3ff0000000000000
CONST	SEGMENT
__real@3ff0000000000000 DQ 03ff0000000000000r	; 1
CONST	ENDS
;	COMDAT __real@4024000000000000
CONST	SEGMENT
__real@4024000000000000 DQ 04024000000000000r	; 10
CONST	ENDS
;	COMDAT __real@0000000000000000
CONST	SEGMENT
__real@0000000000000000 DQ 00000000000000000r	; 0
CONST	ENDS
;	COMDAT __real@bff0000000000000
CONST	SEGMENT
__real@bff0000000000000 DQ 0bff0000000000000r	; -1
CONST	ENDS
;	COMDAT ??_7RailGun@@6B@
CONST	SEGMENT
??_7RailGun@@6B@ DD FLAT:??_R4RailGun@@6B@		; RailGun::`vftable'
	DD	FLAT:?InitializeFuzzyModule@RailGun@@EAEXXZ
	DD	FLAT:??_ERailGun@@UAEPAXI@Z
	DD	FLAT:?ShootAt@RailGun@@UAEXUVector2D@@@Z
	DD	FLAT:?Render@RailGun@@UAEXXZ
	DD	FLAT:?GetDesirability@RailGun@@UAENN@Z
CONST	ENDS
xdata$x	SEGMENT
__unwindtable$??0RailGun@@QAE@PAVAbstRaven_Bot@@@Z DD 0ffffffffH
	DD	FLAT:__unwindfunclet$??0RailGun@@QAE@PAVAbstRaven_Bot@@@Z$0
__ehfuncinfo$??0RailGun@@QAE@PAVAbstRaven_Bot@@@Z DD 019930522H
	DD	01H
	DD	FLAT:__unwindtable$??0RailGun@@QAE@PAVAbstRaven_Bot@@@Z
	DD	2 DUP(00H)
	DD	2 DUP(00H)
	DD	00H
	DD	01H
xdata$x	ENDS
;	COMDAT rtc$TMZ
rtc$TMZ	SEGMENT
__RTC_Shutdown.rtc$TMZ DD FLAT:__RTC_Shutdown
rtc$TMZ	ENDS
;	COMDAT rtc$IMZ
rtc$IMZ	SEGMENT
__RTC_InitBase.rtc$IMZ DD FLAT:__RTC_InitBase
; Function compile flags: /Odtp /RTCsu
rtc$IMZ	ENDS
_TEXT	SEGMENT
_vtx$139632 = -100					; size = 4
_weapon$ = -92						; size = 64
_NumWeaponVerts$ = -24					; size = 4
_this$ = -20						; size = 4
__$ArrayPad$ = -16					; size = 4
__$EHRec$ = -12						; size = 12
_owner$ = 8						; size = 4
??0RailGun@@QAE@PAVAbstRaven_Bot@@@Z PROC		; RailGun::RailGun
; _this$ = ecx

; 21   : {

	push	ebp
	mov	ebp, esp
	push	-1
	push	__ehhandler$??0RailGun@@QAE@PAVAbstRaven_Bot@@@Z
	mov	eax, DWORD PTR fs:0
	push	eax
	sub	esp, 88					; 00000058H
	push	edi
	push	ecx
	lea	edi, DWORD PTR [ebp-100]
	mov	ecx, 22					; 00000016H
	mov	eax, -858993460				; ccccccccH
	rep stosd
	pop	ecx
	mov	eax, DWORD PTR ___security_cookie
	xor	eax, ebp
	mov	DWORD PTR __$ArrayPad$[ebp], eax
	push	eax
	lea	eax, DWORD PTR __$EHRec$[ebp]
	mov	DWORD PTR fs:0, eax
	mov	DWORD PTR _this$[ebp], ecx
	mov	eax, DWORD PTR _owner$[ebp]
	push	eax
	push	OFFSET $SG139621
	call	?Instance@Raven_Scriptor@@SAPAV1@XZ	; Raven_Scriptor::Instance
	mov	ecx, eax
	call	?GetDouble@Scriptor@@QAENPAD@Z		; Scriptor::GetDouble
	sub	esp, 8
	fstp	QWORD PTR [esp]
	push	OFFSET $SG139622
	call	?Instance@Raven_Scriptor@@SAPAV1@XZ	; Raven_Scriptor::Instance
	mov	ecx, eax
	call	?GetDouble@Scriptor@@QAENPAD@Z		; Scriptor::GetDouble
	sub	esp, 8
	fstp	QWORD PTR [esp]
	push	OFFSET $SG139623
	call	?Instance@Raven_Scriptor@@SAPAV1@XZ	; Raven_Scriptor::Instance
	mov	ecx, eax
	call	?GetDouble@Scriptor@@QAENPAD@Z		; Scriptor::GetDouble
	sub	esp, 8
	fstp	QWORD PTR [esp]
	push	OFFSET $SG139624
	call	?Instance@Raven_Scriptor@@SAPAV1@XZ	; Raven_Scriptor::Instance
	mov	ecx, eax
	call	?GetInt@Scriptor@@QAEHPAD@Z		; Scriptor::GetInt
	push	eax
	push	OFFSET $SG139625
	call	?Instance@Raven_Scriptor@@SAPAV1@XZ	; Raven_Scriptor::Instance
	mov	ecx, eax
	call	?GetInt@Scriptor@@QAEHPAD@Z		; Scriptor::GetInt
	push	eax
	push	6
	mov	ecx, DWORD PTR _this$[ebp]
	call	??0Raven_Weapon@@QAE@IIINNNPAVAbstRaven_Bot@@@Z ; Raven_Weapon::Raven_Weapon
	mov	DWORD PTR __$EHRec$[ebp+8], 0
	mov	ecx, DWORD PTR _this$[ebp]
	mov	DWORD PTR [ecx], OFFSET ??_7RailGun@@6B@

; 22   : 
; 23   :     //setup the vertex buffer
; 24   :   const int NumWeaponVerts = 4;

	mov	DWORD PTR _NumWeaponVerts$[ebp], 4

; 25   :   const Vector2D weapon[NumWeaponVerts] = {Vector2D(0, -1),

	sub	esp, 8
	fld	QWORD PTR __real@bff0000000000000
	fstp	QWORD PTR [esp]
	sub	esp, 8
	fldz
	fstp	QWORD PTR [esp]
	lea	ecx, DWORD PTR _weapon$[ebp]
	call	??0Vector2D@@QAE@NN@Z			; Vector2D::Vector2D

; 26   :                                            Vector2D(10, -1),

	sub	esp, 8
	fld	QWORD PTR __real@bff0000000000000
	fstp	QWORD PTR [esp]
	sub	esp, 8
	fld	QWORD PTR __real@4024000000000000
	fstp	QWORD PTR [esp]
	lea	ecx, DWORD PTR _weapon$[ebp+16]
	call	??0Vector2D@@QAE@NN@Z			; Vector2D::Vector2D

; 27   :                                            Vector2D(10, 1),

	sub	esp, 8
	fld1
	fstp	QWORD PTR [esp]
	sub	esp, 8
	fld	QWORD PTR __real@4024000000000000
	fstp	QWORD PTR [esp]
	lea	ecx, DWORD PTR _weapon$[ebp+32]
	call	??0Vector2D@@QAE@NN@Z			; Vector2D::Vector2D

; 28   :                                            Vector2D(0, 1)
; 29   :                                            };

	sub	esp, 8
	fld1
	fstp	QWORD PTR [esp]
	sub	esp, 8
	fldz
	fstp	QWORD PTR [esp]
	lea	ecx, DWORD PTR _weapon$[ebp+48]
	call	??0Vector2D@@QAE@NN@Z			; Vector2D::Vector2D

; 30   : 
; 31   :   
; 32   :   for (int vtx=0; vtx<NumWeaponVerts; ++vtx)

	mov	DWORD PTR _vtx$139632[ebp], 0
	jmp	SHORT $LN3@RailGun
$LN2@RailGun:
	mov	edx, DWORD PTR _vtx$139632[ebp]
	add	edx, 1
	mov	DWORD PTR _vtx$139632[ebp], edx
$LN3@RailGun:
	cmp	DWORD PTR _vtx$139632[ebp], 4
	jge	SHORT $LN1@RailGun

; 33   :   {
; 34   :     m_vecWeaponVB.push_back(weapon[vtx]);

	mov	eax, DWORD PTR _vtx$139632[ebp]
	shl	eax, 4
	lea	ecx, DWORD PTR _weapon$[ebp+eax]
	push	ecx
	mov	ecx, DWORD PTR _this$[ebp]
	add	ecx, 104				; 00000068H
	call	?push_back@?$vector@UVector2D@@V?$allocator@UVector2D@@@std@@@std@@QAEXABUVector2D@@@Z ; std::vector<Vector2D,std::allocator<Vector2D> >::push_back

; 35   :   }

	jmp	SHORT $LN2@RailGun
$LN1@RailGun:

; 36   : 
; 37   :   //setup the fuzzy module
; 38   :   InitializeFuzzyModule();

	mov	ecx, DWORD PTR _this$[ebp]
	call	?InitializeFuzzyModule@RailGun@@EAEXXZ	; RailGun::InitializeFuzzyModule

; 39   : 
; 40   : }

	mov	DWORD PTR __$EHRec$[ebp+8], -1
	mov	eax, DWORD PTR _this$[ebp]
	push	edx
	mov	ecx, ebp
	push	eax
	lea	edx, DWORD PTR $LN10@RailGun
	call	@_RTC_CheckStackVars@8
	pop	eax
	pop	edx
	mov	ecx, DWORD PTR __$EHRec$[ebp]
	mov	DWORD PTR fs:0, ecx
	pop	ecx
	pop	edi
	mov	ecx, DWORD PTR __$ArrayPad$[ebp]
	xor	ecx, ebp
	call	@__security_check_cookie@4
	add	esp, 100				; 00000064H
	cmp	ebp, esp
	call	__RTC_CheckEsp
	mov	esp, ebp
	pop	ebp
	ret	4
$LN10@RailGun:
	DD	1
	DD	$LN9@RailGun
$LN9@RailGun:
	DD	-92					; ffffffa4H
	DD	64					; 00000040H
	DD	$LN7@RailGun
$LN7@RailGun:
	DB	119					; 00000077H
	DB	101					; 00000065H
	DB	97					; 00000061H
	DB	112					; 00000070H
	DB	111					; 0000006fH
	DB	110					; 0000006eH
	DB	0
_TEXT	ENDS
text$x	SEGMENT
__unwindfunclet$??0RailGun@@QAE@PAVAbstRaven_Bot@@@Z$0:
	mov	ecx, DWORD PTR _this$[ebp]
	jmp	??1Raven_Weapon@@UAE@XZ			; Raven_Weapon::~Raven_Weapon
__ehhandler$??0RailGun@@QAE@PAVAbstRaven_Bot@@@Z:
	mov	edx, DWORD PTR [esp+8]
	lea	eax, DWORD PTR [edx+12]
	mov	ecx, DWORD PTR [edx-96]
	xor	ecx, eax
	call	@__security_check_cookie@4
	mov	ecx, DWORD PTR [edx-4]
	xor	ecx, eax
	call	@__security_check_cookie@4
	mov	eax, OFFSET __ehfuncinfo$??0RailGun@@QAE@PAVAbstRaven_Bot@@@Z
	jmp	___CxxFrameHandler3
text$x	ENDS
??0RailGun@@QAE@PAVAbstRaven_Bot@@@Z ENDP		; RailGun::RailGun
; Function compile flags: /Odtp /RTCsu
; File c:\users\teaja\documents\artificial-fun\labravenprojecttest\common\2d\vector2d.h
;	COMDAT ??0Vector2D@@QAE@NN@Z
_TEXT	SEGMENT
_this$ = -4						; size = 4
_a$ = 8							; size = 8
_b$ = 16						; size = 8
??0Vector2D@@QAE@NN@Z PROC				; Vector2D::Vector2D, COMDAT
; _this$ = ecx

; 25   :   Vector2D(double a, double b):x(a),y(b){}

	push	ebp
	mov	ebp, esp
	push	ecx
	mov	DWORD PTR [ebp-4], -858993460		; ccccccccH
	mov	DWORD PTR _this$[ebp], ecx
	mov	eax, DWORD PTR _this$[ebp]
	fld	QWORD PTR _a$[ebp]
	fstp	QWORD PTR [eax]
	mov	ecx, DWORD PTR _this$[ebp]
	fld	QWORD PTR _b$[ebp]
	fstp	QWORD PTR [ecx+8]
	mov	eax, DWORD PTR _this$[ebp]
	mov	esp, ebp
	pop	ebp
	ret	16					; 00000010H
??0Vector2D@@QAE@NN@Z ENDP				; Vector2D::Vector2D
_TEXT	ENDS
PUBLIC	??$PopLuaNumber@H@@YAHPAUlua_State@@PBD@Z	; PopLuaNumber<int>
; Function compile flags: /Odtp /RTCsu
; File c:\users\teaja\documents\artificial-fun\labravenprojecttest\common\script\scriptor.h
;	COMDAT ?GetInt@Scriptor@@QAEHPAD@Z
_TEXT	SEGMENT
_this$ = -4						; size = 4
_VariableName$ = 8					; size = 4
?GetInt@Scriptor@@QAEHPAD@Z PROC			; Scriptor::GetInt, COMDAT
; _this$ = ecx

; 51   :   {

	push	ebp
	mov	ebp, esp
	push	ecx
	mov	DWORD PTR [ebp-4], -858993460		; ccccccccH
	mov	DWORD PTR _this$[ebp], ecx

; 52   :     return PopLuaNumber<int>(m_pLuaState, VariableName);

	mov	eax, DWORD PTR _VariableName$[ebp]
	push	eax
	mov	ecx, DWORD PTR _this$[ebp]
	mov	edx, DWORD PTR [ecx]
	push	edx
	call	??$PopLuaNumber@H@@YAHPAUlua_State@@PBD@Z ; PopLuaNumber<int>
	add	esp, 8

; 53   :   }

	add	esp, 4
	cmp	ebp, esp
	call	__RTC_CheckEsp
	mov	esp, ebp
	pop	ebp
	ret	4
?GetInt@Scriptor@@QAEHPAD@Z ENDP			; Scriptor::GetInt
_TEXT	ENDS
PUBLIC	??$PopLuaNumber@N@@YANPAUlua_State@@PBD@Z	; PopLuaNumber<double>
; Function compile flags: /Odtp /RTCsu
;	COMDAT ?GetDouble@Scriptor@@QAENPAD@Z
_TEXT	SEGMENT
_this$ = -4						; size = 4
_VariableName$ = 8					; size = 4
?GetDouble@Scriptor@@QAENPAD@Z PROC			; Scriptor::GetDouble, COMDAT
; _this$ = ecx

; 61   :   {

	push	ebp
	mov	ebp, esp
	push	ecx
	mov	DWORD PTR [ebp-4], -858993460		; ccccccccH
	mov	DWORD PTR _this$[ebp], ecx

; 62   :     return PopLuaNumber<double>(m_pLuaState, VariableName);

	mov	eax, DWORD PTR _VariableName$[ebp]
	push	eax
	mov	ecx, DWORD PTR _this$[ebp]
	mov	edx, DWORD PTR [ecx]
	push	edx
	call	??$PopLuaNumber@N@@YANPAUlua_State@@PBD@Z ; PopLuaNumber<double>
	add	esp, 8

; 63   :   }

	add	esp, 4
	cmp	ebp, esp
	call	__RTC_CheckEsp
	mov	esp, ebp
	pop	ebp
	ret	4
?GetDouble@Scriptor@@QAENPAD@Z ENDP			; Scriptor::GetDouble
_TEXT	ENDS
PUBLIC	??1?$vector@UVector2D@@V?$allocator@UVector2D@@@std@@@std@@QAE@XZ ; std::vector<Vector2D,std::allocator<Vector2D> >::~vector<Vector2D,std::allocator<Vector2D> >
PUBLIC	?GetTickCount@CrudeTimer@@QAENXZ		; CrudeTimer::GetTickCount
PUBLIC	??0?$vector@UVector2D@@V?$allocator@UVector2D@@@std@@@std@@QAE@XZ ; std::vector<Vector2D,std::allocator<Vector2D> >::vector<Vector2D,std::allocator<Vector2D> >
PUBLIC	??0FuzzyModule@@QAE@XZ				; FuzzyModule::FuzzyModule
PUBLIC	??_7Raven_Weapon@@6B@				; Raven_Weapon::`vftable'
PUBLIC	??_R4Raven_Weapon@@6B@				; Raven_Weapon::`RTTI Complete Object Locator'
EXTRN	??1FuzzyModule@@QAE@XZ:PROC			; FuzzyModule::~FuzzyModule
EXTRN	?Instance@CrudeTimer@@SAPAV1@XZ:PROC		; CrudeTimer::Instance
EXTRN	__purecall:PROC
EXTRN	??_ERaven_Weapon@@UAEPAXI@Z:PROC		; Raven_Weapon::`vector deleting destructor'
;	COMDAT ??_R4Raven_Weapon@@6B@
; File c:\users\teaja\documents\artificial-fun\labravenprojecttest\raven\armory\raven_weapon.h
rdata$r	SEGMENT
??_R4Raven_Weapon@@6B@ DD 00H				; Raven_Weapon::`RTTI Complete Object Locator'
	DD	00H
	DD	00H
	DD	FLAT:??_R0?AVRaven_Weapon@@@8
	DD	FLAT:??_R3Raven_Weapon@@8
rdata$r	ENDS
;	COMDAT ??_7Raven_Weapon@@6B@
CONST	SEGMENT
??_7Raven_Weapon@@6B@ DD FLAT:??_R4Raven_Weapon@@6B@	; Raven_Weapon::`vftable'
	DD	FLAT:__purecall
	DD	FLAT:??_ERaven_Weapon@@UAEPAXI@Z
	DD	FLAT:__purecall
	DD	FLAT:__purecall
	DD	FLAT:__purecall
CONST	ENDS
;	COMDAT xdata$x
xdata$x	SEGMENT
__unwindtable$??0Raven_Weapon@@QAE@IIINNNPAVAbstRaven_Bot@@@Z DD 0ffffffffH
	DD	FLAT:__unwindfunclet$??0Raven_Weapon@@QAE@IIINNNPAVAbstRaven_Bot@@@Z$0
	DD	00H
	DD	FLAT:__unwindfunclet$??0Raven_Weapon@@QAE@IIINNNPAVAbstRaven_Bot@@@Z$1
	DD	01H
	DD	FLAT:__unwindfunclet$??0Raven_Weapon@@QAE@IIINNNPAVAbstRaven_Bot@@@Z$2
__ehfuncinfo$??0Raven_Weapon@@QAE@IIINNNPAVAbstRaven_Bot@@@Z DD 019930522H
	DD	03H
	DD	FLAT:__unwindtable$??0Raven_Weapon@@QAE@IIINNNPAVAbstRaven_Bot@@@Z
	DD	2 DUP(00H)
	DD	2 DUP(00H)
	DD	00H
	DD	01H
; Function compile flags: /Odtp /RTCsu
xdata$x	ENDS
;	COMDAT ??0Raven_Weapon@@QAE@IIINNNPAVAbstRaven_Bot@@@Z
_TEXT	SEGMENT
_this$ = -16						; size = 4
__$EHRec$ = -12						; size = 12
_TypeOfGun$ = 8						; size = 4
_DefaultNumRounds$ = 12					; size = 4
_MaxRoundsCarried$ = 16					; size = 4
_RateOfFire$ = 20					; size = 8
_IdealRange$ = 28					; size = 8
_ProjectileSpeed$ = 36					; size = 8
_OwnerOfGun$ = 44					; size = 4
??0Raven_Weapon@@QAE@IIINNNPAVAbstRaven_Bot@@@Z PROC	; Raven_Weapon::Raven_Weapon, COMDAT
; _this$ = ecx

; 96   :   {  

	push	ebp
	mov	ebp, esp
	push	-1
	push	__ehhandler$??0Raven_Weapon@@QAE@IIINNNPAVAbstRaven_Bot@@@Z
	mov	eax, DWORD PTR fs:0
	push	eax
	push	ecx
	mov	DWORD PTR [ebp-16], -858993460		; ccccccccH
	mov	eax, DWORD PTR ___security_cookie
	xor	eax, ebp
	push	eax
	lea	eax, DWORD PTR __$EHRec$[ebp]
	mov	DWORD PTR fs:0, eax
	mov	DWORD PTR _this$[ebp], ecx
	mov	eax, DWORD PTR _this$[ebp]
	mov	DWORD PTR [eax], OFFSET ??_7Raven_Weapon@@6B@
	mov	ecx, DWORD PTR _this$[ebp]
	mov	edx, DWORD PTR _OwnerOfGun$[ebp]
	mov	DWORD PTR [ecx+8], edx
	mov	eax, DWORD PTR _this$[ebp]
	mov	ecx, DWORD PTR _TypeOfGun$[ebp]
	mov	DWORD PTR [eax+12], ecx
	mov	ecx, DWORD PTR _this$[ebp]
	add	ecx, 16					; 00000010H
	call	??0FuzzyModule@@QAE@XZ
	mov	DWORD PTR __$EHRec$[ebp+8], 0
	mov	edx, DWORD PTR _this$[ebp]
	mov	eax, DWORD PTR _DefaultNumRounds$[ebp]
	mov	DWORD PTR [edx+56], eax
	mov	ecx, DWORD PTR _this$[ebp]
	mov	edx, DWORD PTR _MaxRoundsCarried$[ebp]
	mov	DWORD PTR [ecx+60], edx
	mov	eax, DWORD PTR _this$[ebp]
	fld	QWORD PTR _RateOfFire$[ebp]
	fstp	QWORD PTR [eax+64]
	mov	ecx, DWORD PTR _this$[ebp]
	fldz
	fstp	QWORD PTR [ecx+80]
	mov	edx, DWORD PTR _this$[ebp]
	fld	QWORD PTR _IdealRange$[ebp]
	fstp	QWORD PTR [edx+88]
	mov	eax, DWORD PTR _this$[ebp]
	fld	QWORD PTR _ProjectileSpeed$[ebp]
	fstp	QWORD PTR [eax+96]
	mov	ecx, DWORD PTR _this$[ebp]
	add	ecx, 104				; 00000068H
	call	??0?$vector@UVector2D@@V?$allocator@UVector2D@@@std@@@std@@QAE@XZ ; std::vector<Vector2D,std::allocator<Vector2D> >::vector<Vector2D,std::allocator<Vector2D> >
	mov	BYTE PTR __$EHRec$[ebp+8], 1
	mov	ecx, DWORD PTR _this$[ebp]
	add	ecx, 124				; 0000007cH
	call	??0?$vector@UVector2D@@V?$allocator@UVector2D@@@std@@@std@@QAE@XZ ; std::vector<Vector2D,std::allocator<Vector2D> >::vector<Vector2D,std::allocator<Vector2D> >
	mov	BYTE PTR __$EHRec$[ebp+8], 2

; 97   :     m_dTimeNextAvailable = Clock->GetCurrentTime();

	call	?Instance@CrudeTimer@@SAPAV1@XZ		; CrudeTimer::Instance
	mov	ecx, eax
	call	?GetTickCount@CrudeTimer@@QAENXZ	; CrudeTimer::GetTickCount
	mov	ecx, DWORD PTR _this$[ebp]
	fstp	QWORD PTR [ecx+72]

; 98   :   }

	mov	DWORD PTR __$EHRec$[ebp+8], -1
	mov	eax, DWORD PTR _this$[ebp]
	mov	ecx, DWORD PTR __$EHRec$[ebp]
	mov	DWORD PTR fs:0, ecx
	pop	ecx
	add	esp, 16					; 00000010H
	cmp	ebp, esp
	call	__RTC_CheckEsp
	mov	esp, ebp
	pop	ebp
	ret	40					; 00000028H
_TEXT	ENDS
;	COMDAT text$x
text$x	SEGMENT
__unwindfunclet$??0Raven_Weapon@@QAE@IIINNNPAVAbstRaven_Bot@@@Z$0:
	mov	ecx, DWORD PTR _this$[ebp]
	add	ecx, 16					; 00000010H
	jmp	??1FuzzyModule@@QAE@XZ			; FuzzyModule::~FuzzyModule
__unwindfunclet$??0Raven_Weapon@@QAE@IIINNNPAVAbstRaven_Bot@@@Z$1:
	mov	ecx, DWORD PTR _this$[ebp]
	add	ecx, 104				; 00000068H
	jmp	??1?$vector@UVector2D@@V?$allocator@UVector2D@@@std@@@std@@QAE@XZ ; std::vector<Vector2D,std::allocator<Vector2D> >::~vector<Vector2D,std::allocator<Vector2D> >
__unwindfunclet$??0Raven_Weapon@@QAE@IIINNNPAVAbstRaven_Bot@@@Z$2:
	mov	ecx, DWORD PTR _this$[ebp]
	add	ecx, 124				; 0000007cH
	jmp	??1?$vector@UVector2D@@V?$allocator@UVector2D@@@std@@@std@@QAE@XZ ; std::vector<Vector2D,std::allocator<Vector2D> >::~vector<Vector2D,std::allocator<Vector2D> >
__ehhandler$??0Raven_Weapon@@QAE@IIINNNPAVAbstRaven_Bot@@@Z:
	mov	edx, DWORD PTR [esp+8]
	lea	eax, DWORD PTR [edx+12]
	mov	ecx, DWORD PTR [edx-8]
	xor	ecx, eax
	call	@__security_check_cookie@4
	mov	eax, OFFSET __ehfuncinfo$??0Raven_Weapon@@QAE@IIINNNPAVAbstRaven_Bot@@@Z
	jmp	___CxxFrameHandler3
text$x	ENDS
??0Raven_Weapon@@QAE@IIINNNPAVAbstRaven_Bot@@@Z ENDP	; Raven_Weapon::Raven_Weapon
PUBLIC	__real@3f50624dd2f1a9fc
EXTRN	__imp__timeGetTime@0:PROC
;	COMDAT __real@3f50624dd2f1a9fc
; File c:\users\teaja\documents\artificial-fun\labravenprojecttest\common\time\crudetimer.h
CONST	SEGMENT
__real@3f50624dd2f1a9fc DQ 03f50624dd2f1a9fcr	; 0.001
; Function compile flags: /Odtp /RTCsu
CONST	ENDS
;	COMDAT ?GetTickCount@CrudeTimer@@QAENXZ
_TEXT	SEGMENT
tv71 = -12						; size = 8
_this$ = -4						; size = 4
?GetTickCount@CrudeTimer@@QAENXZ PROC			; CrudeTimer::GetTickCount, COMDAT
; _this$ = ecx

; 42   :   double GetCurrentTime(){return timeGetTime() * 0.001 - m_dStartTime;}

	push	ebp
	mov	ebp, esp
	sub	esp, 12					; 0000000cH
	push	esi
	mov	DWORD PTR [ebp-12], -858993460		; ccccccccH
	mov	DWORD PTR [ebp-8], -858993460		; ccccccccH
	mov	DWORD PTR [ebp-4], -858993460		; ccccccccH
	mov	DWORD PTR _this$[ebp], ecx
	mov	esi, esp
	call	DWORD PTR __imp__timeGetTime@0
	cmp	esi, esp
	call	__RTC_CheckEsp
	mov	DWORD PTR tv71[ebp], eax
	mov	DWORD PTR tv71[ebp+4], 0
	fild	QWORD PTR tv71[ebp]
	fmul	QWORD PTR __real@3f50624dd2f1a9fc
	mov	eax, DWORD PTR _this$[ebp]
	fsub	QWORD PTR [eax]
	pop	esi
	add	esp, 12					; 0000000cH
	cmp	ebp, esp
	call	__RTC_CheckEsp
	mov	esp, ebp
	pop	ebp
	ret	0
?GetTickCount@CrudeTimer@@QAENXZ ENDP			; CrudeTimer::GetTickCount
_TEXT	ENDS
;	COMDAT xdata$x
; File c:\users\teaja\documents\artificial-fun\labravenprojecttest\raven\armory\raven_weapon.h
xdata$x	SEGMENT
__unwindtable$??1Raven_Weapon@@UAE@XZ DD 0ffffffffH
	DD	FLAT:__unwindfunclet$??1Raven_Weapon@@UAE@XZ$0
	DD	00H
	DD	FLAT:__unwindfunclet$??1Raven_Weapon@@UAE@XZ$1
__ehfuncinfo$??1Raven_Weapon@@UAE@XZ DD 019930522H
	DD	02H
	DD	FLAT:__unwindtable$??1Raven_Weapon@@UAE@XZ
	DD	2 DUP(00H)
	DD	2 DUP(00H)
	DD	00H
	DD	01H
; Function compile flags: /Odtp /RTCsu
xdata$x	ENDS
;	COMDAT ??1Raven_Weapon@@UAE@XZ
_TEXT	SEGMENT
_this$ = -16						; size = 4
__$EHRec$ = -12						; size = 12
??1Raven_Weapon@@UAE@XZ PROC				; Raven_Weapon::~Raven_Weapon, COMDAT
; _this$ = ecx

; 100  :   virtual ~Raven_Weapon(){}

	push	ebp
	mov	ebp, esp
	push	-1
	push	__ehhandler$??1Raven_Weapon@@UAE@XZ
	mov	eax, DWORD PTR fs:0
	push	eax
	push	ecx
	mov	DWORD PTR [ebp-16], -858993460		; ccccccccH
	mov	eax, DWORD PTR ___security_cookie
	xor	eax, ebp
	push	eax
	lea	eax, DWORD PTR __$EHRec$[ebp]
	mov	DWORD PTR fs:0, eax
	mov	DWORD PTR _this$[ebp], ecx
	mov	eax, DWORD PTR _this$[ebp]
	mov	DWORD PTR [eax], OFFSET ??_7Raven_Weapon@@6B@
	mov	DWORD PTR __$EHRec$[ebp+8], 1
	mov	ecx, DWORD PTR _this$[ebp]
	add	ecx, 124				; 0000007cH
	call	??1?$vector@UVector2D@@V?$allocator@UVector2D@@@std@@@std@@QAE@XZ ; std::vector<Vector2D,std::allocator<Vector2D> >::~vector<Vector2D,std::allocator<Vector2D> >
	mov	BYTE PTR __$EHRec$[ebp+8], 0
	mov	ecx, DWORD PTR _this$[ebp]
	add	ecx, 104				; 00000068H
	call	??1?$vector@UVector2D@@V?$allocator@UVector2D@@@std@@@std@@QAE@XZ ; std::vector<Vector2D,std::allocator<Vector2D> >::~vector<Vector2D,std::allocator<Vector2D> >
	mov	DWORD PTR __$EHRec$[ebp+8], -1
	mov	ecx, DWORD PTR _this$[ebp]
	add	ecx, 16					; 00000010H
	call	??1FuzzyModule@@QAE@XZ			; FuzzyModule::~FuzzyModule
	mov	ecx, DWORD PTR __$EHRec$[ebp]
	mov	DWORD PTR fs:0, ecx
	pop	ecx
	add	esp, 16					; 00000010H
	cmp	ebp, esp
	call	__RTC_CheckEsp
	mov	esp, ebp
	pop	ebp
	ret	0
_TEXT	ENDS
;	COMDAT text$x
text$x	SEGMENT
__unwindfunclet$??1Raven_Weapon@@UAE@XZ$0:
	mov	ecx, DWORD PTR _this$[ebp]
	add	ecx, 16					; 00000010H
	jmp	??1FuzzyModule@@QAE@XZ			; FuzzyModule::~FuzzyModule
__unwindfunclet$??1Raven_Weapon@@UAE@XZ$1:
	mov	ecx, DWORD PTR _this$[ebp]
	add	ecx, 104				; 00000068H
	jmp	??1?$vector@UVector2D@@V?$allocator@UVector2D@@@std@@@std@@QAE@XZ ; std::vector<Vector2D,std::allocator<Vector2D> >::~vector<Vector2D,std::allocator<Vector2D> >
__ehhandler$??1Raven_Weapon@@UAE@XZ:
	mov	edx, DWORD PTR [esp+8]
	lea	eax, DWORD PTR [edx+12]
	mov	ecx, DWORD PTR [edx-8]
	xor	ecx, eax
	call	@__security_check_cookie@4
	mov	eax, OFFSET __ehfuncinfo$??1Raven_Weapon@@UAE@XZ
	jmp	___CxxFrameHandler3
text$x	ENDS
??1Raven_Weapon@@UAE@XZ ENDP				; Raven_Weapon::~Raven_Weapon
EXTRN	??3@YAXPAX@Z:PROC				; operator delete
; Function compile flags: /Odtp /RTCsu
;	COMDAT ??_GRaven_Weapon@@UAEPAXI@Z
_TEXT	SEGMENT
_this$ = -4						; size = 4
___flags$ = 8						; size = 4
??_GRaven_Weapon@@UAEPAXI@Z PROC			; Raven_Weapon::`scalar deleting destructor', COMDAT
; _this$ = ecx
	push	ebp
	mov	ebp, esp
	push	ecx
	mov	DWORD PTR [ebp-4], -858993460		; ccccccccH
	mov	DWORD PTR _this$[ebp], ecx
	mov	ecx, DWORD PTR _this$[ebp]
	call	??1Raven_Weapon@@UAE@XZ			; Raven_Weapon::~Raven_Weapon
	mov	eax, DWORD PTR ___flags$[ebp]
	and	eax, 1
	je	SHORT $LN1@scalar
	mov	ecx, DWORD PTR _this$[ebp]
	push	ecx
	call	??3@YAXPAX@Z				; operator delete
	add	esp, 4
$LN1@scalar:
	mov	eax, DWORD PTR _this$[ebp]
	add	esp, 4
	cmp	ebp, esp
	call	__RTC_CheckEsp
	mov	esp, ebp
	pop	ebp
	ret	4
??_GRaven_Weapon@@UAEPAXI@Z ENDP			; Raven_Weapon::`scalar deleting destructor'
_TEXT	ENDS
PUBLIC	??1?$map@V?$basic_string@DU?$char_traits@D@std@@V?$allocator@D@2@@std@@PAVFuzzyVariable@@U?$less@V?$basic_string@DU?$char_traits@D@std@@V?$allocator@D@2@@std@@@2@V?$allocator@U?$pair@$$CBV?$basic_string@DU?$char_traits@D@std@@V?$allocator@D@2@@std@@PAVFuzzyVariable@@@std@@@2@@std@@QAE@XZ ; std::map<std::basic_string<char,std::char_traits<char>,std::allocator<char> >,FuzzyVariable *,std::less<std::basic_string<char,std::char_traits<char>,std::allocator<char> > >,std::allocator<std::pair<std::basic_string<char,std::char_traits<char>,std::allocator<char> > const ,FuzzyVariable *> > >::~map<std::basic_string<char,std::char_traits<char>,std::allocator<char> >,FuzzyVariable *,std::less<std::basic_string<char,std::char_traits<char>,std::allocator<char> > >,std::allocator<std::pair<std::basic_string<char,std::char_traits<char>,std::allocator<char> > const ,FuzzyVariable *> > >
PUBLIC	??0?$vector@PAVFuzzyRule@@V?$allocator@PAVFuzzyRule@@@std@@@std@@QAE@XZ ; std::vector<FuzzyRule *,std::allocator<FuzzyRule *> >::vector<FuzzyRule *,std::allocator<FuzzyRule *> >
PUBLIC	??0?$map@V?$basic_string@DU?$char_traits@D@std@@V?$allocator@D@2@@std@@PAVFuzzyVariable@@U?$less@V?$basic_string@DU?$char_traits@D@std@@V?$allocator@D@2@@std@@@2@V?$allocator@U?$pair@$$CBV?$basic_string@DU?$char_traits@D@std@@V?$allocator@D@2@@std@@PAVFuzzyVariable@@@std@@@2@@std@@QAE@XZ ; std::map<std::basic_string<char,std::char_traits<char>,std::allocator<char> >,FuzzyVariable *,std::less<std::basic_string<char,std::char_traits<char>,std::allocator<char> > >,std::allocator<std::pair<std::basic_string<char,std::char_traits<char>,std::allocator<char> > const ,FuzzyVariable *> > >::map<std::basic_string<char,std::char_traits<char>,std::allocator<char> >,FuzzyVariable *,std::less<std::basic_string<char,std::char_traits<char>,std::allocator<char> > >,std::allocator<std::pair<std::basic_string<char,std::char_traits<char>,std::allocator<char> > const ,FuzzyVariable *> > >
;	COMDAT xdata$x
xdata$x	SEGMENT
__unwindtable$??0FuzzyModule@@QAE@XZ DD 0ffffffffH
	DD	FLAT:__unwindfunclet$??0FuzzyModule@@QAE@XZ$0
__ehfuncinfo$??0FuzzyModule@@QAE@XZ DD 019930522H
	DD	01H
	DD	FLAT:__unwindtable$??0FuzzyModule@@QAE@XZ
	DD	2 DUP(00H)
	DD	2 DUP(00H)
	DD	00H
	DD	01H
; Function compile flags: /Odtp /RTCsu
xdata$x	ENDS
;	COMDAT ??0FuzzyModule@@QAE@XZ
_TEXT	SEGMENT
_this$ = -16						; size = 4
__$EHRec$ = -12						; size = 12
??0FuzzyModule@@QAE@XZ PROC				; FuzzyModule::FuzzyModule, COMDAT
; _this$ = ecx
	push	ebp
	mov	ebp, esp
	push	-1
	push	__ehhandler$??0FuzzyModule@@QAE@XZ
	mov	eax, DWORD PTR fs:0
	push	eax
	push	ecx
	mov	DWORD PTR [ebp-16], -858993460		; ccccccccH
	mov	eax, DWORD PTR ___security_cookie
	xor	eax, ebp
	push	eax
	lea	eax, DWORD PTR __$EHRec$[ebp]
	mov	DWORD PTR fs:0, eax
	mov	DWORD PTR _this$[ebp], ecx
	mov	ecx, DWORD PTR _this$[ebp]
	call	??0?$map@V?$basic_string@DU?$char_traits@D@std@@V?$allocator@D@2@@std@@PAVFuzzyVariable@@U?$less@V?$basic_string@DU?$char_traits@D@std@@V?$allocator@D@2@@std@@@2@V?$allocator@U?$pair@$$CBV?$basic_string@DU?$char_traits@D@std@@V?$allocator@D@2@@std@@PAVFuzzyVariable@@@std@@@2@@std@@QAE@XZ ; std::map<std::basic_string<char,std::char_traits<char>,std::allocator<char> >,FuzzyVariable *,std::less<std::basic_string<char,std::char_traits<char>,std::allocator<char> > >,std::allocator<std::pair<std::basic_string<char,std::char_traits<char>,std::allocator<char> > const ,FuzzyVariable *> > >::map<std::basic_string<char,std::char_traits<char>,std::allocator<char> >,FuzzyVariable *,std::less<std::basic_string<char,std::char_traits<char>,std::allocator<char> > >,std::allocator<std::pair<std::basic_string<char,std::char_traits<char>,std::allocator<char> > const ,FuzzyVariable *> > >
	mov	DWORD PTR __$EHRec$[ebp+8], 0
	mov	ecx, DWORD PTR _this$[ebp]
	add	ecx, 20					; 00000014H
	call	??0?$vector@PAVFuzzyRule@@V?$allocator@PAVFuzzyRule@@@std@@@std@@QAE@XZ ; std::vector<FuzzyRule *,std::allocator<FuzzyRule *> >::vector<FuzzyRule *,std::allocator<FuzzyRule *> >
	mov	DWORD PTR __$EHRec$[ebp+8], -1
	mov	eax, DWORD PTR _this$[ebp]
	mov	ecx, DWORD PTR __$EHRec$[ebp]
	mov	DWORD PTR fs:0, ecx
	pop	ecx
	add	esp, 16					; 00000010H
	cmp	ebp, esp
	call	__RTC_CheckEsp
	mov	esp, ebp
	pop	ebp
	ret	0
_TEXT	ENDS
;	COMDAT text$x
text$x	SEGMENT
__unwindfunclet$??0FuzzyModule@@QAE@XZ$0:
	mov	ecx, DWORD PTR _this$[ebp]
	jmp	??1?$map@V?$basic_string@DU?$char_traits@D@std@@V?$allocator@D@2@@std@@PAVFuzzyVariable@@U?$less@V?$basic_string@DU?$char_traits@D@std@@V?$allocator@D@2@@std@@@2@V?$allocator@U?$pair@$$CBV?$basic_string@DU?$char_traits@D@std@@V?$allocator@D@2@@std@@PAVFuzzyVariable@@@std@@@2@@std@@QAE@XZ
__ehhandler$??0FuzzyModule@@QAE@XZ:
	mov	edx, DWORD PTR [esp+8]
	lea	eax, DWORD PTR [edx+12]
	mov	ecx, DWORD PTR [edx-8]
	xor	ecx, eax
	call	@__security_check_cookie@4
	mov	eax, OFFSET __ehfuncinfo$??0FuzzyModule@@QAE@XZ
	jmp	___CxxFrameHandler3
text$x	ENDS
??0FuzzyModule@@QAE@XZ ENDP				; FuzzyModule::FuzzyModule
PUBLIC	??1?$_Tree@V?$_Tmap_traits@V?$basic_string@DU?$char_traits@D@std@@V?$allocator@D@2@@std@@PAVFuzzyVariable@@U?$less@V?$basic_string@DU?$char_traits@D@std@@V?$allocator@D@2@@std@@@2@V?$allocator@U?$pair@$$CBV?$basic_string@DU?$char_traits@D@std@@V?$allocator@D@2@@std@@PAVFuzzyVariable@@@std@@@2@$0A@@std@@@std@@QAE@XZ ; std::_Tree<std::_Tmap_traits<std::basic_string<char,std::char_traits<char>,std::allocator<char> >,FuzzyVariable *,std::less<std::basic_string<char,std::char_traits<char>,std::allocator<char> > >,std::allocator<std::pair<std::basic_string<char,std::char_traits<char>,std::allocator<char> > const ,FuzzyVariable *> >,0> >::~_Tree<std::_Tmap_traits<std::basic_string<char,std::char_traits<char>,std::allocator<char> >,FuzzyVariable *,std::less<std::basic_string<char,std::char_traits<char>,std::allocator<char> > >,std::allocator<std::pair<std::basic_string<char,std::char_traits<char>,std::allocator<char> > const ,FuzzyVariable *> >,0> >
; Function compile flags: /Odtp /RTCsu
;	COMDAT ??1?$map@V?$basic_string@DU?$char_traits@D@std@@V?$allocator@D@2@@std@@PAVFuzzyVariable@@U?$less@V?$basic_string@DU?$char_traits@D@std@@V?$allocator@D@2@@std@@@2@V?$allocator@U?$pair@$$CBV?$basic_string@DU?$char_traits@D@std@@V?$allocator@D@2@@std@@PAVFuzzyVariable@@@std@@@2@@std@@QAE@XZ
_TEXT	SEGMENT
_this$ = -4						; size = 4
??1?$map@V?$basic_string@DU?$char_traits@D@std@@V?$allocator@D@2@@std@@PAVFuzzyVariable@@U?$less@V?$basic_string@DU?$char_traits@D@std@@V?$allocator@D@2@@std@@@2@V?$allocator@U?$pair@$$CBV?$basic_string@DU?$char_traits@D@std@@V?$allocator@D@2@@std@@PAVFuzzyVariable@@@std@@@2@@std@@QAE@XZ PROC ; std::map<std::basic_string<char,std::char_traits<char>,std::allocator<char> >,FuzzyVariable *,std::less<std::basic_string<char,std::char_traits<char>,std::allocator<char> > >,std::allocator<std::pair<std::basic_string<char,std::char_traits<char>,std::allocator<char> > const ,FuzzyVariable *> > >::~map<std::basic_string<char,std::char_traits<char>,std::allocator<char> >,FuzzyVariable *,std::less<std::basic_string<char,std::char_traits<char>,std::allocator<char> > >,std::allocator<std::pair<std::basic_string<char,std::char_traits<char>,std::allocator<char> > const ,FuzzyVariable *> > >, COMDAT
; _this$ = ecx
	push	ebp
	mov	ebp, esp
	push	ecx
	mov	DWORD PTR [ebp-4], -858993460		; ccccccccH
	mov	DWORD PTR _this$[ebp], ecx
	mov	ecx, DWORD PTR _this$[ebp]
	call	??1?$_Tree@V?$_Tmap_traits@V?$basic_string@DU?$char_traits@D@std@@V?$allocator@D@2@@std@@PAVFuzzyVariable@@U?$less@V?$basic_string@DU?$char_traits@D@std@@V?$allocator@D@2@@std@@@2@V?$allocator@U?$pair@$$CBV?$basic_string@DU?$char_traits@D@std@@V?$allocator@D@2@@std@@PAVFuzzyVariable@@@std@@@2@$0A@@std@@@std@@QAE@XZ ; std::_Tree<std::_Tmap_traits<std::basic_string<char,std::char_traits<char>,std::allocator<char> >,FuzzyVariable *,std::less<std::basic_string<char,std::char_traits<char>,std::allocator<char> > >,std::allocator<std::pair<std::basic_string<char,std::char_traits<char>,std::allocator<char> > const ,FuzzyVariable *> >,0> >::~_Tree<std::_Tmap_traits<std::basic_string<char,std::char_traits<char>,std::allocator<char> >,FuzzyVariable *,std::less<std::basic_string<char,std::char_traits<char>,std::allocator<char> > >,std::allocator<std::pair<std::basic_string<char,std::char_traits<char>,std::allocator<char> > const ,FuzzyVariable *> >,0> >
	add	esp, 4
	cmp	ebp, esp
	call	__RTC_CheckEsp
	mov	esp, ebp
	pop	ebp
	ret	0
??1?$map@V?$basic_string@DU?$char_traits@D@std@@V?$allocator@D@2@@std@@PAVFuzzyVariable@@U?$less@V?$basic_string@DU?$char_traits@D@std@@V?$allocator@D@2@@std@@@2@V?$allocator@U?$pair@$$CBV?$basic_string@DU?$char_traits@D@std@@V?$allocator@D@2@@std@@PAVFuzzyVariable@@@std@@@2@@std@@QAE@XZ ENDP ; std::map<std::basic_string<char,std::char_traits<char>,std::allocator<char> >,FuzzyVariable *,std::less<std::basic_string<char,std::char_traits<char>,std::allocator<char> > >,std::allocator<std::pair<std::basic_string<char,std::char_traits<char>,std::allocator<char> > const ,FuzzyVariable *> > >::~map<std::basic_string<char,std::char_traits<char>,std::allocator<char> >,FuzzyVariable *,std::less<std::basic_string<char,std::char_traits<char>,std::allocator<char> > >,std::allocator<std::pair<std::basic_string<char,std::char_traits<char>,std::allocator<char> > const ,FuzzyVariable *> > >
_TEXT	ENDS
PUBLIC	??1RailGun@@UAE@XZ				; RailGun::~RailGun
; Function compile flags: /Odtp /RTCsu
;	COMDAT ??_GRailGun@@UAEPAXI@Z
_TEXT	SEGMENT
_this$ = -4						; size = 4
___flags$ = 8						; size = 4
??_GRailGun@@UAEPAXI@Z PROC				; RailGun::`scalar deleting destructor', COMDAT
; _this$ = ecx
	push	ebp
	mov	ebp, esp
	push	ecx
	mov	DWORD PTR [ebp-4], -858993460		; ccccccccH
	mov	DWORD PTR _this$[ebp], ecx
	mov	ecx, DWORD PTR _this$[ebp]
	call	??1RailGun@@UAE@XZ
	mov	eax, DWORD PTR ___flags$[ebp]
	and	eax, 1
	je	SHORT $LN1@scalar@2
	mov	ecx, DWORD PTR _this$[ebp]
	push	ecx
	call	??3@YAXPAX@Z				; operator delete
	add	esp, 4
$LN1@scalar@2:
	mov	eax, DWORD PTR _this$[ebp]
	add	esp, 4
	cmp	ebp, esp
	call	__RTC_CheckEsp
	mov	esp, ebp
	pop	ebp
	ret	4
??_GRailGun@@UAEPAXI@Z ENDP				; RailGun::`scalar deleting destructor'
; Function compile flags: /Odtp /RTCsu
_TEXT	ENDS
;	COMDAT ??1RailGun@@UAE@XZ
_TEXT	SEGMENT
_this$ = -4						; size = 4
??1RailGun@@UAE@XZ PROC					; RailGun::~RailGun, COMDAT
; _this$ = ecx
	push	ebp
	mov	ebp, esp
	push	ecx
	mov	DWORD PTR [ebp-4], -858993460		; ccccccccH
	mov	DWORD PTR _this$[ebp], ecx
	mov	ecx, DWORD PTR _this$[ebp]
	call	??1Raven_Weapon@@UAE@XZ			; Raven_Weapon::~Raven_Weapon
	add	esp, 4
	cmp	ebp, esp
	call	__RTC_CheckEsp
	mov	esp, ebp
	pop	ebp
	ret	0
??1RailGun@@UAE@XZ ENDP					; RailGun::~RailGun
_TEXT	ENDS
PUBLIC	?GetMap@Raven_Game@@QAEQAVRaven_Map@@XZ		; Raven_Game::GetMap
PUBLIC	??_C@_0BD@KEIPCDPJ@RailGun_SoundRange?$AA@	; `string'
PUBLIC	?UpdateTimeWeaponIsNextAvailable@Raven_Weapon@@IAEXXZ ; Raven_Weapon::UpdateTimeWeaponIsNextAvailable
PUBLIC	?GetWorld@AbstRaven_Bot@@QAEQAVRaven_Game@@XZ	; AbstRaven_Bot::GetWorld
PUBLIC	?isReadyForNextShot@Raven_Weapon@@IAE_NXZ	; Raven_Weapon::isReadyForNextShot
PUBLIC	?NumRoundsRemaining@Raven_Weapon@@QBEHXZ	; Raven_Weapon::NumRoundsRemaining
EXTRN	?AddSoundTrigger@Raven_Map@@QAEXPAVAbstRaven_Bot@@N@Z:PROC ; Raven_Map::AddSoundTrigger
EXTRN	?AddRailGunSlug@Raven_Game@@QAEXPAVAbstRaven_Bot@@UVector2D@@@Z:PROC ; Raven_Game::AddRailGunSlug
;	COMDAT ??_C@_0BD@KEIPCDPJ@RailGun_SoundRange?$AA@
; File c:\users\teaja\documents\artificial-fun\labravenprojecttest\raven\armory\weapon_railgun.cpp
CONST	SEGMENT
??_C@_0BD@KEIPCDPJ@RailGun_SoundRange?$AA@ DB 'RailGun_SoundRange', 00H ; `string'
; Function compile flags: /Odtp /RTCsu
CONST	ENDS
;	COMDAT ?ShootAt@RailGun@@UAEXUVector2D@@@Z
_TEXT	SEGMENT
_this$ = -4						; size = 4
_pos$ = 8						; size = 16
?ShootAt@RailGun@@UAEXUVector2D@@@Z PROC		; RailGun::ShootAt, COMDAT
; _this$ = ecx

; 46   : { 

	push	ebp
	mov	ebp, esp
	push	ecx
	mov	DWORD PTR [ebp-4], -858993460		; ccccccccH
	mov	DWORD PTR _this$[ebp], ecx

; 47   :   if (NumRoundsRemaining() > 0 && isReadyForNextShot())

	mov	ecx, DWORD PTR _this$[ebp]
	call	?NumRoundsRemaining@Raven_Weapon@@QBEHXZ ; Raven_Weapon::NumRoundsRemaining
	test	eax, eax
	jle	$LN1@ShootAt
	mov	ecx, DWORD PTR _this$[ebp]
	call	?isReadyForNextShot@Raven_Weapon@@IAE_NXZ ; Raven_Weapon::isReadyForNextShot
	movzx	eax, al
	test	eax, eax
	je	$LN1@ShootAt

; 48   :   {
; 49   :     //fire a round
; 50   :     m_pOwner->GetWorld()->AddRailGunSlug(m_pOwner, pos);

	sub	esp, 16					; 00000010H
	mov	ecx, esp
	mov	edx, DWORD PTR _pos$[ebp]
	mov	DWORD PTR [ecx], edx
	mov	eax, DWORD PTR _pos$[ebp+4]
	mov	DWORD PTR [ecx+4], eax
	mov	edx, DWORD PTR _pos$[ebp+8]
	mov	DWORD PTR [ecx+8], edx
	mov	eax, DWORD PTR _pos$[ebp+12]
	mov	DWORD PTR [ecx+12], eax
	mov	ecx, DWORD PTR _this$[ebp]
	mov	edx, DWORD PTR [ecx+8]
	push	edx
	mov	eax, DWORD PTR _this$[ebp]
	mov	ecx, DWORD PTR [eax+8]
	call	?GetWorld@AbstRaven_Bot@@QAEQAVRaven_Game@@XZ ; AbstRaven_Bot::GetWorld
	mov	ecx, eax
	call	?AddRailGunSlug@Raven_Game@@QAEXPAVAbstRaven_Bot@@UVector2D@@@Z ; Raven_Game::AddRailGunSlug

; 51   : 
; 52   :     UpdateTimeWeaponIsNextAvailable();

	mov	ecx, DWORD PTR _this$[ebp]
	call	?UpdateTimeWeaponIsNextAvailable@Raven_Weapon@@IAEXXZ ; Raven_Weapon::UpdateTimeWeaponIsNextAvailable

; 53   : 
; 54   :     m_iNumRoundsLeft--;

	mov	ecx, DWORD PTR _this$[ebp]
	mov	edx, DWORD PTR [ecx+56]
	sub	edx, 1
	mov	eax, DWORD PTR _this$[ebp]
	mov	DWORD PTR [eax+56], edx

; 55   : 
; 56   :     //add a trigger to the game so that the other bots can hear this shot
; 57   :     //(provided they are within range)
; 58   :     m_pOwner->GetWorld()->GetMap()->AddSoundTrigger(m_pOwner, script->GetDouble("RailGun_SoundRange"));

	push	OFFSET ??_C@_0BD@KEIPCDPJ@RailGun_SoundRange?$AA@
	call	?Instance@Raven_Scriptor@@SAPAV1@XZ	; Raven_Scriptor::Instance
	mov	ecx, eax
	call	?GetDouble@Scriptor@@QAENPAD@Z		; Scriptor::GetDouble
	sub	esp, 8
	fstp	QWORD PTR [esp]
	mov	ecx, DWORD PTR _this$[ebp]
	mov	edx, DWORD PTR [ecx+8]
	push	edx
	mov	eax, DWORD PTR _this$[ebp]
	mov	ecx, DWORD PTR [eax+8]
	call	?GetWorld@AbstRaven_Bot@@QAEQAVRaven_Game@@XZ ; AbstRaven_Bot::GetWorld
	mov	ecx, eax
	call	?GetMap@Raven_Game@@QAEQAVRaven_Map@@XZ	; Raven_Game::GetMap
	mov	ecx, eax
	call	?AddSoundTrigger@Raven_Map@@QAEXPAVAbstRaven_Bot@@N@Z ; Raven_Map::AddSoundTrigger
$LN1@ShootAt:

; 59   :   }
; 60   : }

	add	esp, 4
	cmp	ebp, esp
	call	__RTC_CheckEsp
	mov	esp, ebp
	pop	ebp
	ret	16					; 00000010H
?ShootAt@RailGun@@UAEXUVector2D@@@Z ENDP		; RailGun::ShootAt
; Function compile flags: /Odtp /RTCsu
; File c:\users\teaja\documents\artificial-fun\labravenprojecttest\raven\abstraven_bot.h
_TEXT	ENDS
;	COMDAT ?GetWorld@AbstRaven_Bot@@QAEQAVRaven_Game@@XZ
_TEXT	SEGMENT
_this$ = -4						; size = 4
?GetWorld@AbstRaven_Bot@@QAEQAVRaven_Game@@XZ PROC	; AbstRaven_Bot::GetWorld, COMDAT
; _this$ = ecx

; 217  :   Raven_Game* const                  GetWorld(){return m_pWorld;} 

	push	ebp
	mov	ebp, esp
	push	ecx
	mov	DWORD PTR [ebp-4], -858993460		; ccccccccH
	mov	DWORD PTR _this$[ebp], ecx
	mov	eax, DWORD PTR _this$[ebp]
	mov	eax, DWORD PTR [eax+156]
	mov	esp, ebp
	pop	ebp
	ret	0
?GetWorld@AbstRaven_Bot@@QAEQAVRaven_Game@@XZ ENDP	; AbstRaven_Bot::GetWorld
; Function compile flags: /Odtp /RTCsu
; File c:\users\teaja\documents\artificial-fun\labravenprojecttest\raven\armory\raven_weapon.h
_TEXT	ENDS
;	COMDAT ?NumRoundsRemaining@Raven_Weapon@@QBEHXZ
_TEXT	SEGMENT
_this$ = -4						; size = 4
?NumRoundsRemaining@Raven_Weapon@@QBEHXZ PROC		; Raven_Weapon::NumRoundsRemaining, COMDAT
; _this$ = ecx

; 128  :   int           NumRoundsRemaining()const{return m_iNumRoundsLeft;}

	push	ebp
	mov	ebp, esp
	push	ecx
	mov	DWORD PTR [ebp-4], -858993460		; ccccccccH
	mov	DWORD PTR _this$[ebp], ecx
	mov	eax, DWORD PTR _this$[ebp]
	mov	eax, DWORD PTR [eax+56]
	mov	esp, ebp
	pop	ebp
	ret	0
?NumRoundsRemaining@Raven_Weapon@@QBEHXZ ENDP		; Raven_Weapon::NumRoundsRemaining
; Function compile flags: /Odtp /RTCsu
_TEXT	ENDS
;	COMDAT ?isReadyForNextShot@Raven_Weapon@@IAE_NXZ
_TEXT	SEGMENT
_this$ = -4						; size = 4
?isReadyForNextShot@Raven_Weapon@@IAE_NXZ PROC		; Raven_Weapon::isReadyForNextShot, COMDAT
; _this$ = ecx

; 142  : {

	push	ebp
	mov	ebp, esp
	push	ecx
	mov	DWORD PTR [ebp-4], -858993460		; ccccccccH
	mov	DWORD PTR _this$[ebp], ecx

; 143  :   if (Clock->GetCurrentTime() > m_dTimeNextAvailable)

	call	?Instance@CrudeTimer@@SAPAV1@XZ		; CrudeTimer::Instance
	mov	ecx, eax
	call	?GetTickCount@CrudeTimer@@QAENXZ	; CrudeTimer::GetTickCount
	mov	eax, DWORD PTR _this$[ebp]
	fcomp	QWORD PTR [eax+72]
	fnstsw	ax
	test	ah, 65					; 00000041H
	jne	SHORT $LN1@isReadyFor

; 144  :   {
; 145  :     return true;

	mov	al, 1
	jmp	SHORT $LN2@isReadyFor
$LN1@isReadyFor:

; 146  :   }
; 147  : 
; 148  :   return false;

	xor	al, al
$LN2@isReadyFor:

; 149  : }

	add	esp, 4
	cmp	ebp, esp
	call	__RTC_CheckEsp
	mov	esp, ebp
	pop	ebp
	ret	0
?isReadyForNextShot@Raven_Weapon@@IAE_NXZ ENDP		; Raven_Weapon::isReadyForNextShot
; Function compile flags: /Odtp /RTCsu
_TEXT	ENDS
;	COMDAT ?UpdateTimeWeaponIsNextAvailable@Raven_Weapon@@IAEXXZ
_TEXT	SEGMENT
_this$ = -4						; size = 4
?UpdateTimeWeaponIsNextAvailable@Raven_Weapon@@IAEXXZ PROC ; Raven_Weapon::UpdateTimeWeaponIsNextAvailable, COMDAT
; _this$ = ecx

; 153  : {

	push	ebp
	mov	ebp, esp
	push	ecx
	mov	DWORD PTR [ebp-4], -858993460		; ccccccccH
	mov	DWORD PTR _this$[ebp], ecx

; 154  :   m_dTimeNextAvailable = Clock->GetCurrentTime() + 1.0/m_dRateOfFire;

	call	?Instance@CrudeTimer@@SAPAV1@XZ		; CrudeTimer::Instance
	mov	ecx, eax
	call	?GetTickCount@CrudeTimer@@QAENXZ	; CrudeTimer::GetTickCount
	mov	eax, DWORD PTR _this$[ebp]
	fld1
	fdiv	QWORD PTR [eax+64]
	faddp	ST(1), ST(0)
	mov	ecx, DWORD PTR _this$[ebp]
	fstp	QWORD PTR [ecx+72]

; 155  : }

	add	esp, 4
	cmp	ebp, esp
	call	__RTC_CheckEsp
	mov	esp, ebp
	pop	ebp
	ret	0
?UpdateTimeWeaponIsNextAvailable@Raven_Weapon@@IAEXXZ ENDP ; Raven_Weapon::UpdateTimeWeaponIsNextAvailable
; Function compile flags: /Odtp /RTCsu
; File c:\users\teaja\documents\artificial-fun\labravenprojecttest\raven\raven_game.h
_TEXT	ENDS
;	COMDAT ?GetMap@Raven_Game@@QAEQAVRaven_Map@@XZ
_TEXT	SEGMENT
_this$ = -4						; size = 4
?GetMap@Raven_Game@@QAEQAVRaven_Map@@XZ PROC		; Raven_Game::GetMap, COMDAT
; _this$ = ecx

; 166  :   Raven_Map* const                         GetMap(){return m_pMap;}

	push	ebp
	mov	ebp, esp
	push	ecx
	mov	DWORD PTR [ebp-4], -858993460		; ccccccccH
	mov	DWORD PTR _this$[ebp], ecx
	mov	eax, DWORD PTR _this$[ebp]
	mov	eax, DWORD PTR [eax+12]
	mov	esp, ebp
	pop	ebp
	ret	0
?GetMap@Raven_Game@@QAEQAVRaven_Map@@XZ ENDP		; Raven_Game::GetMap
_TEXT	ENDS
PUBLIC	?DeFuzzify@FuzzyModule@@QAENABV?$basic_string@DU?$char_traits@D@std@@V?$allocator@D@2@@std@@W4DefuzzifyMethod@1@@Z ; FuzzyModule::DeFuzzify
PUBLIC	??1?$basic_string@DU?$char_traits@D@std@@V?$allocator@D@2@@std@@QAE@XZ ; std::basic_string<char,std::char_traits<char>,std::allocator<char> >::~basic_string<char,std::char_traits<char>,std::allocator<char> >
PUBLIC	?Fuzzify@FuzzyModule@@QAEXABV?$basic_string@DU?$char_traits@D@std@@V?$allocator@D@2@@std@@N@Z ; FuzzyModule::Fuzzify
PUBLIC	??0?$basic_string@DU?$char_traits@D@std@@V?$allocator@D@2@@std@@QAE@PBD@Z ; std::basic_string<char,std::char_traits<char>,std::allocator<char> >::basic_string<char,std::char_traits<char>,std::allocator<char> >
PUBLIC	__$ArrayPad$
xdata$x	SEGMENT
__unwindtable$?GetDesirability@RailGun@@UAENN@Z DD 0ffffffffH
	DD	FLAT:__unwindfunclet$?GetDesirability@RailGun@@UAENN@Z$0
	DD	0ffffffffH
	DD	FLAT:__unwindfunclet$?GetDesirability@RailGun@@UAENN@Z$1
	DD	0ffffffffH
	DD	FLAT:__unwindfunclet$?GetDesirability@RailGun@@UAENN@Z$2
__ehfuncinfo$?GetDesirability@RailGun@@UAENN@Z DD 019930522H
	DD	03H
	DD	FLAT:__unwindtable$?GetDesirability@RailGun@@UAENN@Z
	DD	2 DUP(00H)
	DD	2 DUP(00H)
	DD	00H
	DD	01H
; Function compile flags: /Odtp /RTCsu
; File c:\users\teaja\documents\artificial-fun\labravenprojecttest\raven\armory\weapon_railgun.cpp
xdata$x	ENDS
_TEXT	SEGMENT
tv169 = -124						; size = 8
$T139659 = -116						; size = 32
$T139657 = -84						; size = 32
$T139654 = -52						; size = 32
_this$ = -20						; size = 4
__$ArrayPad$ = -16					; size = 4
__$EHRec$ = -12						; size = 12
_DistToTarget$ = 8					; size = 8
?GetDesirability@RailGun@@UAENN@Z PROC			; RailGun::GetDesirability
; _this$ = ecx

; 66   : {

	push	ebp
	mov	ebp, esp
	push	-1
	push	__ehhandler$?GetDesirability@RailGun@@UAENN@Z
	mov	eax, DWORD PTR fs:0
	push	eax
	sub	esp, 112				; 00000070H
	push	edi
	push	ecx
	lea	edi, DWORD PTR [ebp-124]
	mov	ecx, 28					; 0000001cH
	mov	eax, -858993460				; ccccccccH
	rep stosd
	pop	ecx
	mov	eax, DWORD PTR ___security_cookie
	xor	eax, ebp
	mov	DWORD PTR __$ArrayPad$[ebp], eax
	push	eax
	lea	eax, DWORD PTR __$EHRec$[ebp]
	mov	DWORD PTR fs:0, eax
	mov	DWORD PTR _this$[ebp], ecx

; 67   :   if (m_iNumRoundsLeft == 0)

	mov	eax, DWORD PTR _this$[ebp]
	cmp	DWORD PTR [eax+56], 0
	jne	SHORT $LN2@GetDesirab

; 68   :   {
; 69   :     m_dLastDesirabilityScore = 0;

	mov	ecx, DWORD PTR _this$[ebp]
	fldz
	fstp	QWORD PTR [ecx+80]

; 70   :   }
; 71   :   else

	jmp	$LN1@GetDesirab
$LN2@GetDesirab:

; 72   :   {
; 73   :     //fuzzify distance and amount of ammo
; 74   :     m_FuzzyModule.Fuzzify("DistanceToTarget", DistToTarget);

	push	OFFSET $SG139655
	lea	ecx, DWORD PTR $T139654[ebp]
	call	??0?$basic_string@DU?$char_traits@D@std@@V?$allocator@D@2@@std@@QAE@PBD@Z ; std::basic_string<char,std::char_traits<char>,std::allocator<char> >::basic_string<char,std::char_traits<char>,std::allocator<char> >
	mov	DWORD PTR __$EHRec$[ebp+8], 0
	sub	esp, 8
	fld	QWORD PTR _DistToTarget$[ebp]
	fstp	QWORD PTR [esp]
	lea	edx, DWORD PTR $T139654[ebp]
	push	edx
	mov	ecx, DWORD PTR _this$[ebp]
	add	ecx, 16					; 00000010H
	call	?Fuzzify@FuzzyModule@@QAEXABV?$basic_string@DU?$char_traits@D@std@@V?$allocator@D@2@@std@@N@Z ; FuzzyModule::Fuzzify
	mov	DWORD PTR __$EHRec$[ebp+8], -1
	lea	ecx, DWORD PTR $T139654[ebp]
	call	??1?$basic_string@DU?$char_traits@D@std@@V?$allocator@D@2@@std@@QAE@XZ ; std::basic_string<char,std::char_traits<char>,std::allocator<char> >::~basic_string<char,std::char_traits<char>,std::allocator<char> >

; 75   :     m_FuzzyModule.Fuzzify("AmmoStatus", (double)m_iNumRoundsLeft);

	push	OFFSET $SG139658
	lea	ecx, DWORD PTR $T139657[ebp]
	call	??0?$basic_string@DU?$char_traits@D@std@@V?$allocator@D@2@@std@@QAE@PBD@Z ; std::basic_string<char,std::char_traits<char>,std::allocator<char> >::basic_string<char,std::char_traits<char>,std::allocator<char> >
	mov	DWORD PTR __$EHRec$[ebp+8], 1
	mov	eax, DWORD PTR _this$[ebp]
	mov	ecx, DWORD PTR [eax+56]
	mov	DWORD PTR tv169[ebp], ecx
	mov	DWORD PTR tv169[ebp+4], 0
	fild	QWORD PTR tv169[ebp]
	sub	esp, 8
	fstp	QWORD PTR [esp]
	lea	edx, DWORD PTR $T139657[ebp]
	push	edx
	mov	ecx, DWORD PTR _this$[ebp]
	add	ecx, 16					; 00000010H
	call	?Fuzzify@FuzzyModule@@QAEXABV?$basic_string@DU?$char_traits@D@std@@V?$allocator@D@2@@std@@N@Z ; FuzzyModule::Fuzzify
	mov	DWORD PTR __$EHRec$[ebp+8], -1
	lea	ecx, DWORD PTR $T139657[ebp]
	call	??1?$basic_string@DU?$char_traits@D@std@@V?$allocator@D@2@@std@@QAE@XZ ; std::basic_string<char,std::char_traits<char>,std::allocator<char> >::~basic_string<char,std::char_traits<char>,std::allocator<char> >

; 76   : 
; 77   :     m_dLastDesirabilityScore = m_FuzzyModule.DeFuzzify("Desirability", FuzzyModule::max_av);

	push	OFFSET $SG139660
	lea	ecx, DWORD PTR $T139659[ebp]
	call	??0?$basic_string@DU?$char_traits@D@std@@V?$allocator@D@2@@std@@QAE@PBD@Z ; std::basic_string<char,std::char_traits<char>,std::allocator<char> >::basic_string<char,std::char_traits<char>,std::allocator<char> >
	mov	DWORD PTR __$EHRec$[ebp+8], 2
	push	0
	lea	eax, DWORD PTR $T139659[ebp]
	push	eax
	mov	ecx, DWORD PTR _this$[ebp]
	add	ecx, 16					; 00000010H
	call	?DeFuzzify@FuzzyModule@@QAENABV?$basic_string@DU?$char_traits@D@std@@V?$allocator@D@2@@std@@W4DefuzzifyMethod@1@@Z ; FuzzyModule::DeFuzzify
	mov	ecx, DWORD PTR _this$[ebp]
	fstp	QWORD PTR [ecx+80]
	mov	DWORD PTR __$EHRec$[ebp+8], -1
	lea	ecx, DWORD PTR $T139659[ebp]
	call	??1?$basic_string@DU?$char_traits@D@std@@V?$allocator@D@2@@std@@QAE@XZ ; std::basic_string<char,std::char_traits<char>,std::allocator<char> >::~basic_string<char,std::char_traits<char>,std::allocator<char> >
$LN1@GetDesirab:

; 78   :   }
; 79   : 
; 80   :   return m_dLastDesirabilityScore;

	mov	edx, DWORD PTR _this$[ebp]
	fld	QWORD PTR [edx+80]

; 81   : }

	mov	ecx, DWORD PTR __$EHRec$[ebp]
	mov	DWORD PTR fs:0, ecx
	pop	ecx
	pop	edi
	mov	ecx, DWORD PTR __$ArrayPad$[ebp]
	xor	ecx, ebp
	call	@__security_check_cookie@4
	add	esp, 124				; 0000007cH
	cmp	ebp, esp
	call	__RTC_CheckEsp
	mov	esp, ebp
	pop	ebp
	ret	8
_TEXT	ENDS
text$x	SEGMENT
__unwindfunclet$?GetDesirability@RailGun@@UAENN@Z$0:
	lea	ecx, DWORD PTR $T139654[ebp]
	jmp	??1?$basic_string@DU?$char_traits@D@std@@V?$allocator@D@2@@std@@QAE@XZ ; std::basic_string<char,std::char_traits<char>,std::allocator<char> >::~basic_string<char,std::char_traits<char>,std::allocator<char> >
__unwindfunclet$?GetDesirability@RailGun@@UAENN@Z$1:
	lea	ecx, DWORD PTR $T139657[ebp]
	jmp	??1?$basic_string@DU?$char_traits@D@std@@V?$allocator@D@2@@std@@QAE@XZ ; std::basic_string<char,std::char_traits<char>,std::allocator<char> >::~basic_string<char,std::char_traits<char>,std::allocator<char> >
__unwindfunclet$?GetDesirability@RailGun@@UAENN@Z$2:
	lea	ecx, DWORD PTR $T139659[ebp]
	jmp	??1?$basic_string@DU?$char_traits@D@std@@V?$allocator@D@2@@std@@QAE@XZ ; std::basic_string<char,std::char_traits<char>,std::allocator<char> >::~basic_string<char,std::char_traits<char>,std::allocator<char> >
__ehhandler$?GetDesirability@RailGun@@UAENN@Z:
	mov	edx, DWORD PTR [esp+8]
	lea	eax, DWORD PTR [edx+12]
	mov	ecx, DWORD PTR [edx-120]
	xor	ecx, eax
	call	@__security_check_cookie@4
	mov	ecx, DWORD PTR [edx-4]
	xor	ecx, eax
	call	@__security_check_cookie@4
	mov	eax, OFFSET __ehfuncinfo$?GetDesirability@RailGun@@UAENN@Z
	jmp	___CxxFrameHandler3
text$x	ENDS
?GetDesirability@RailGun@@UAENN@Z ENDP			; RailGun::GetDesirability
PUBLIC	??A?$map@V?$basic_string@DU?$char_traits@D@std@@V?$allocator@D@2@@std@@PAVFuzzyVariable@@U?$less@V?$basic_string@DU?$char_traits@D@std@@V?$allocator@D@2@@std@@@2@V?$allocator@U?$pair@$$CBV?$basic_string@DU?$char_traits@D@std@@V?$allocator@D@2@@std@@PAVFuzzyVariable@@@std@@@2@@std@@QAEAAPAVFuzzyVariable@@ABV?$basic_string@DU?$char_traits@D@std@@V?$allocator@D@2@@1@@Z ; std::map<std::basic_string<char,std::char_traits<char>,std::allocator<char> >,FuzzyVariable *,std::less<std::basic_string<char,std::char_traits<char>,std::allocator<char> > >,std::allocator<std::pair<std::basic_string<char,std::char_traits<char>,std::allocator<char> > const ,FuzzyVariable *> > >::operator[]
PUBLIC	??1?$_Tree_iterator@V?$_Tree_val@V?$_Tmap_traits@V?$basic_string@DU?$char_traits@D@std@@V?$allocator@D@2@@std@@PAVFuzzyVariable@@U?$less@V?$basic_string@DU?$char_traits@D@std@@V?$allocator@D@2@@std@@@2@V?$allocator@U?$pair@$$CBV?$basic_string@DU?$char_traits@D@std@@V?$allocator@D@2@@std@@PAVFuzzyVariable@@@std@@@2@$0A@@std@@@std@@@std@@QAE@XZ ; std::_Tree_iterator<std::_Tree_val<std::_Tmap_traits<std::basic_string<char,std::char_traits<char>,std::allocator<char> >,FuzzyVariable *,std::less<std::basic_string<char,std::char_traits<char>,std::allocator<char> > >,std::allocator<std::pair<std::basic_string<char,std::char_traits<char>,std::allocator<char> > const ,FuzzyVariable *> >,0> > >::~_Tree_iterator<std::_Tree_val<std::_Tmap_traits<std::basic_string<char,std::char_traits<char>,std::allocator<char> >,FuzzyVariable *,std::less<std::basic_string<char,std::char_traits<char>,std::allocator<char> > >,std::allocator<std::pair<std::basic_string<char,std::char_traits<char>,std::allocator<char> > const ,FuzzyVariable *> >,0> > >
PUBLIC	??_C@_1LK@DCGLEGLC@?$AA?$CI?$AAm?$AA_?$AAV?$AAa?$AAr?$AAi?$AAa?$AAb?$AAl?$AAe?$AAs?$AA?4?$AAf?$AAi?$AAn?$AAd?$AA?$CI?$AAN?$AAa?$AAm?$AAe?$AAO?$AAf?$AAF?$AAL?$AAV?$AA?$CJ?$AA?5?$AA?$CB?$AA?$DN?$AA?5@ ; `string'
PUBLIC	??_C@_1KO@ENJNFMBP@?$AAC?$AA?3?$AA?2?$AAU?$AAs?$AAe?$AAr?$AAs?$AA?2?$AAT?$AAe?$AAa?$AAj?$AAa?$AA?2?$AAD?$AAo?$AAc?$AAu?$AAm?$AAe?$AAn?$AAt?$AAs?$AA?2?$AAA?$AAr?$AAt?$AAi?$AAf?$AAi?$AAc@ ; `string'
PUBLIC	??_C@_0CF@MBMFGIBB@?$DMFuzzyModule?3?3Fuzzify?$DO?3key?5not?5f@ ; `string'
PUBLIC	??9?$_Tree_const_iterator@V?$_Tree_val@V?$_Tmap_traits@V?$basic_string@DU?$char_traits@D@std@@V?$allocator@D@2@@std@@PAVFuzzyVariable@@U?$less@V?$basic_string@DU?$char_traits@D@std@@V?$allocator@D@2@@std@@@2@V?$allocator@U?$pair@$$CBV?$basic_string@DU?$char_traits@D@std@@V?$allocator@D@2@@std@@PAVFuzzyVariable@@@std@@@2@$0A@@std@@@std@@@std@@QBE_NABV01@@Z ; std::_Tree_const_iterator<std::_Tree_val<std::_Tmap_traits<std::basic_string<char,std::char_traits<char>,std::allocator<char> >,FuzzyVariable *,std::less<std::basic_string<char,std::char_traits<char>,std::allocator<char> > >,std::allocator<std::pair<std::basic_string<char,std::char_traits<char>,std::allocator<char> > const ,FuzzyVariable *> >,0> > >::operator!=
PUBLIC	?find@?$_Tree@V?$_Tmap_traits@V?$basic_string@DU?$char_traits@D@std@@V?$allocator@D@2@@std@@PAVFuzzyVariable@@U?$less@V?$basic_string@DU?$char_traits@D@std@@V?$allocator@D@2@@std@@@2@V?$allocator@U?$pair@$$CBV?$basic_string@DU?$char_traits@D@std@@V?$allocator@D@2@@std@@PAVFuzzyVariable@@@std@@@2@$0A@@std@@@std@@QAE?AV?$_Tree_iterator@V?$_Tree_val@V?$_Tmap_traits@V?$basic_string@DU?$char_traits@D@std@@V?$allocator@D@2@@std@@PAVFuzzyVariable@@U?$less@V?$basic_string@DU?$char_traits@D@std@@V?$allocator@D@2@@std@@@2@V?$allocator@U?$pair@$$CBV?$basic_string@DU?$char_traits@D@std@@V?$allocator@D@2@@std@@PAVFuzzyVariable@@@std@@@2@$0A@@std@@@std@@@2@ABV?$basic_string@DU?$char_traits@D@std@@V?$allocator@D@2@@2@@Z ; std::_Tree<std::_Tmap_traits<std::basic_string<char,std::char_traits<char>,std::allocator<char> >,FuzzyVariable *,std::less<std::basic_string<char,std::char_traits<char>,std::allocator<char> > >,std::allocator<std::pair<std::basic_string<char,std::char_traits<char>,std::allocator<char> > const ,FuzzyVariable *> >,0> >::find
PUBLIC	?end@?$_Tree@V?$_Tmap_traits@V?$basic_string@DU?$char_traits@D@std@@V?$allocator@D@2@@std@@PAVFuzzyVariable@@U?$less@V?$basic_string@DU?$char_traits@D@std@@V?$allocator@D@2@@std@@@2@V?$allocator@U?$pair@$$CBV?$basic_string@DU?$char_traits@D@std@@V?$allocator@D@2@@std@@PAVFuzzyVariable@@@std@@@2@$0A@@std@@@std@@QAE?AV?$_Tree_iterator@V?$_Tree_val@V?$_Tmap_traits@V?$basic_string@DU?$char_traits@D@std@@V?$allocator@D@2@@std@@PAVFuzzyVariable@@U?$less@V?$basic_string@DU?$char_traits@D@std@@V?$allocator@D@2@@std@@@2@V?$allocator@U?$pair@$$CBV?$basic_string@DU?$char_traits@D@std@@V?$allocator@D@2@@std@@PAVFuzzyVariable@@@std@@@2@$0A@@std@@@std@@@2@XZ ; std::_Tree<std::_Tmap_traits<std::basic_string<char,std::char_traits<char>,std::allocator<char> >,FuzzyVariable *,std::less<std::basic_string<char,std::char_traits<char>,std::allocator<char> > >,std::allocator<std::pair<std::basic_string<char,std::char_traits<char>,std::allocator<char> > const ,FuzzyVariable *> >,0> >::end
EXTRN	?Fuzzify@FuzzyVariable@@QAEXN@Z:PROC		; FuzzyVariable::Fuzzify
EXTRN	__wassert:PROC
;	COMDAT ??_C@_1LK@DCGLEGLC@?$AA?$CI?$AAm?$AA_?$AAV?$AAa?$AAr?$AAi?$AAa?$AAb?$AAl?$AAe?$AAs?$AA?4?$AAf?$AAi?$AAn?$AAd?$AA?$CI?$AAN?$AAa?$AAm?$AAe?$AAO?$AAf?$AAF?$AAL?$AAV?$AA?$CJ?$AA?5?$AA?$CB?$AA?$DN?$AA?5@
; File c:\users\teaja\documents\artificial-fun\labravenprojecttest\common\fuzzy\fuzzymodule.h
CONST	SEGMENT
??_C@_1LK@DCGLEGLC@?$AA?$CI?$AAm?$AA_?$AAV?$AAa?$AAr?$AAi?$AAa?$AAb?$AAl?$AAe?$AAs?$AA?4?$AAf?$AAi?$AAn?$AAd?$AA?$CI?$AAN?$AAa?$AAm?$AAe?$AAO?$AAf?$AAF?$AAL?$AAV?$AA?$CJ?$AA?5?$AA?$CB?$AA?$DN?$AA?5@ DB '('
	DB	00H, 'm', 00H, '_', 00H, 'V', 00H, 'a', 00H, 'r', 00H, 'i', 00H
	DB	'a', 00H, 'b', 00H, 'l', 00H, 'e', 00H, 's', 00H, '.', 00H, 'f'
	DB	00H, 'i', 00H, 'n', 00H, 'd', 00H, '(', 00H, 'N', 00H, 'a', 00H
	DB	'm', 00H, 'e', 00H, 'O', 00H, 'f', 00H, 'F', 00H, 'L', 00H, 'V'
	DB	00H, ')', 00H, ' ', 00H, '!', 00H, '=', 00H, ' ', 00H, 'm', 00H
	DB	'_', 00H, 'V', 00H, 'a', 00H, 'r', 00H, 'i', 00H, 'a', 00H, 'b'
	DB	00H, 'l', 00H, 'e', 00H, 's', 00H, '.', 00H, 'e', 00H, 'n', 00H
	DB	'd', 00H, '(', 00H, ')', 00H, ')', 00H, ' ', 00H, '&', 00H, '&'
	DB	00H, ' ', 00H, '"', 00H, '<', 00H, 'F', 00H, 'u', 00H, 'z', 00H
	DB	'z', 00H, 'y', 00H, 'M', 00H, 'o', 00H, 'd', 00H, 'u', 00H, 'l'
	DB	00H, 'e', 00H, ':', 00H, ':', 00H, 'F', 00H, 'u', 00H, 'z', 00H
	DB	'z', 00H, 'i', 00H, 'f', 00H, 'y', 00H, '>', 00H, ':', 00H, 'k'
	DB	00H, 'e', 00H, 'y', 00H, ' ', 00H, 'n', 00H, 'o', 00H, 't', 00H
	DB	' ', 00H, 'f', 00H, 'o', 00H, 'u', 00H, 'n', 00H, 'd', 00H, '"'
	DB	00H, 00H, 00H				; `string'
CONST	ENDS
;	COMDAT ??_C@_1KO@ENJNFMBP@?$AAC?$AA?3?$AA?2?$AAU?$AAs?$AAe?$AAr?$AAs?$AA?2?$AAT?$AAe?$AAa?$AAj?$AAa?$AA?2?$AAD?$AAo?$AAc?$AAu?$AAm?$AAe?$AAn?$AAt?$AAs?$AA?2?$AAA?$AAr?$AAt?$AAi?$AAf?$AAi?$AAc@
CONST	SEGMENT
??_C@_1KO@ENJNFMBP@?$AAC?$AA?3?$AA?2?$AAU?$AAs?$AAe?$AAr?$AAs?$AA?2?$AAT?$AAe?$AAa?$AAj?$AAa?$AA?2?$AAD?$AAo?$AAc?$AAu?$AAm?$AAe?$AAn?$AAt?$AAs?$AA?2?$AAA?$AAr?$AAt?$AAi?$AAf?$AAi?$AAc@ DB 'C'
	DB	00H, ':', 00H, '\', 00H, 'U', 00H, 's', 00H, 'e', 00H, 'r', 00H
	DB	's', 00H, '\', 00H, 'T', 00H, 'e', 00H, 'a', 00H, 'j', 00H, 'a'
	DB	00H, '\', 00H, 'D', 00H, 'o', 00H, 'c', 00H, 'u', 00H, 'm', 00H
	DB	'e', 00H, 'n', 00H, 't', 00H, 's', 00H, '\', 00H, 'A', 00H, 'r'
	DB	00H, 't', 00H, 'i', 00H, 'f', 00H, 'i', 00H, 'c', 00H, 'i', 00H
	DB	'a', 00H, 'l', 00H, '-', 00H, 'F', 00H, 'u', 00H, 'n', 00H, '\'
	DB	00H, 'L', 00H, 'a', 00H, 'b', 00H, 'R', 00H, 'a', 00H, 'v', 00H
	DB	'e', 00H, 'n', 00H, 'P', 00H, 'r', 00H, 'o', 00H, 'j', 00H, 'e'
	DB	00H, 'c', 00H, 't', 00H, 'T', 00H, 'e', 00H, 's', 00H, 't', 00H
	DB	'\', 00H, 'C', 00H, 'o', 00H, 'm', 00H, 'm', 00H, 'o', 00H, 'n'
	DB	00H, '\', 00H, 'F', 00H, 'u', 00H, 'z', 00H, 'z', 00H, 'y', 00H
	DB	'/', 00H, 'F', 00H, 'u', 00H, 'z', 00H, 'z', 00H, 'y', 00H, 'M'
	DB	00H, 'o', 00H, 'd', 00H, 'u', 00H, 'l', 00H, 'e', 00H, '.', 00H
	DB	'h', 00H, 00H, 00H				; `string'
CONST	ENDS
;	COMDAT ??_C@_0CF@MBMFGIBB@?$DMFuzzyModule?3?3Fuzzify?$DO?3key?5not?5f@
CONST	SEGMENT
??_C@_0CF@MBMFGIBB@?$DMFuzzyModule?3?3Fuzzify?$DO?3key?5not?5f@ DB '<Fuzz'
	DB	'yModule::Fuzzify>:key not found', 00H	; `string'
CONST	ENDS
;	COMDAT xdata$x
xdata$x	SEGMENT
__unwindtable$?Fuzzify@FuzzyModule@@QAEXABV?$basic_string@DU?$char_traits@D@std@@V?$allocator@D@2@@std@@N@Z DD 0ffffffffH
	DD	FLAT:__unwindfunclet$?Fuzzify@FuzzyModule@@QAEXABV?$basic_string@DU?$char_traits@D@std@@V?$allocator@D@2@@std@@N@Z$0
	DD	00H
	DD	FLAT:__unwindfunclet$?Fuzzify@FuzzyModule@@QAEXABV?$basic_string@DU?$char_traits@D@std@@V?$allocator@D@2@@std@@N@Z$1
__ehfuncinfo$?Fuzzify@FuzzyModule@@QAEXABV?$basic_string@DU?$char_traits@D@std@@V?$allocator@D@2@@std@@N@Z DD 019930522H
	DD	02H
	DD	FLAT:__unwindtable$?Fuzzify@FuzzyModule@@QAEXABV?$basic_string@DU?$char_traits@D@std@@V?$allocator@D@2@@std@@N@Z
	DD	2 DUP(00H)
	DD	2 DUP(00H)
	DD	00H
	DD	01H
; Function compile flags: /Odtp /RTCsu
xdata$x	ENDS
;	COMDAT ?Fuzzify@FuzzyModule@@QAEXABV?$basic_string@DU?$char_traits@D@std@@V?$allocator@D@2@@std@@N@Z
_TEXT	SEGMENT
tv147 = -60						; size = 4
tv154 = -56						; size = 4
tv142 = -52						; size = 4
tv152 = -48						; size = 4
$T151470 = -44						; size = 4
$T151467 = -40						; size = 12
$T151466 = -28						; size = 12
_this$ = -16						; size = 4
__$EHRec$ = -12						; size = 12
_NameOfFLV$ = 8						; size = 4
_val$ = 12						; size = 8
?Fuzzify@FuzzyModule@@QAEXABV?$basic_string@DU?$char_traits@D@std@@V?$allocator@D@2@@std@@N@Z PROC ; FuzzyModule::Fuzzify, COMDAT
; _this$ = ecx

; 89   : {

	push	ebp
	mov	ebp, esp
	push	-1
	push	__ehhandler$?Fuzzify@FuzzyModule@@QAEXABV?$basic_string@DU?$char_traits@D@std@@V?$allocator@D@2@@std@@N@Z
	mov	eax, DWORD PTR fs:0
	push	eax
	sub	esp, 48					; 00000030H
	push	edi
	push	ecx
	lea	edi, DWORD PTR [ebp-60]
	mov	ecx, 12					; 0000000cH
	mov	eax, -858993460				; ccccccccH
	rep stosd
	pop	ecx
	mov	eax, DWORD PTR ___security_cookie
	xor	eax, ebp
	push	eax
	lea	eax, DWORD PTR __$EHRec$[ebp]
	mov	DWORD PTR fs:0, eax
	mov	DWORD PTR _this$[ebp], ecx
	mov	DWORD PTR $T151470[ebp], 0

; 90   :   //first make sure the key exists
; 91   :   assert ( (m_Variables.find(NameOfFLV) != m_Variables.end()) &&
; 92   :           "<FuzzyModule::Fuzzify>:key not found");

	lea	eax, DWORD PTR $T151467[ebp]
	push	eax
	mov	ecx, DWORD PTR _this$[ebp]
	call	?end@?$_Tree@V?$_Tmap_traits@V?$basic_string@DU?$char_traits@D@std@@V?$allocator@D@2@@std@@PAVFuzzyVariable@@U?$less@V?$basic_string@DU?$char_traits@D@std@@V?$allocator@D@2@@std@@@2@V?$allocator@U?$pair@$$CBV?$basic_string@DU?$char_traits@D@std@@V?$allocator@D@2@@std@@PAVFuzzyVariable@@@std@@@2@$0A@@std@@@std@@QAE?AV?$_Tree_iterator@V?$_Tree_val@V?$_Tmap_traits@V?$basic_string@DU?$char_traits@D@std@@V?$allocator@D@2@@std@@PAVFuzzyVariable@@U?$less@V?$basic_string@DU?$char_traits@D@std@@V?$allocator@D@2@@std@@@2@V?$allocator@U?$pair@$$CBV?$basic_string@DU?$char_traits@D@std@@V?$allocator@D@2@@std@@PAVFuzzyVariable@@@std@@@2@$0A@@std@@@std@@@2@XZ ; std::_Tree<std::_Tmap_traits<std::basic_string<char,std::char_traits<char>,std::allocator<char> >,FuzzyVariable *,std::less<std::basic_string<char,std::char_traits<char>,std::allocator<char> > >,std::allocator<std::pair<std::basic_string<char,std::char_traits<char>,std::allocator<char> > const ,FuzzyVariable *> >,0> >::end
	mov	DWORD PTR tv152[ebp], eax
	mov	ecx, DWORD PTR tv152[ebp]
	mov	DWORD PTR tv142[ebp], ecx
	mov	DWORD PTR __$EHRec$[ebp+8], 0
	mov	edx, DWORD PTR $T151470[ebp]
	or	edx, 1
	mov	DWORD PTR $T151470[ebp], edx
	mov	eax, DWORD PTR tv142[ebp]
	push	eax
	mov	ecx, DWORD PTR _NameOfFLV$[ebp]
	push	ecx
	lea	edx, DWORD PTR $T151466[ebp]
	push	edx
	mov	ecx, DWORD PTR _this$[ebp]
	call	?find@?$_Tree@V?$_Tmap_traits@V?$basic_string@DU?$char_traits@D@std@@V?$allocator@D@2@@std@@PAVFuzzyVariable@@U?$less@V?$basic_string@DU?$char_traits@D@std@@V?$allocator@D@2@@std@@@2@V?$allocator@U?$pair@$$CBV?$basic_string@DU?$char_traits@D@std@@V?$allocator@D@2@@std@@PAVFuzzyVariable@@@std@@@2@$0A@@std@@@std@@QAE?AV?$_Tree_iterator@V?$_Tree_val@V?$_Tmap_traits@V?$basic_string@DU?$char_traits@D@std@@V?$allocator@D@2@@std@@PAVFuzzyVariable@@U?$less@V?$basic_string@DU?$char_traits@D@std@@V?$allocator@D@2@@std@@@2@V?$allocator@U?$pair@$$CBV?$basic_string@DU?$char_traits@D@std@@V?$allocator@D@2@@std@@PAVFuzzyVariable@@@std@@@2@$0A@@std@@@std@@@2@ABV?$basic_string@DU?$char_traits@D@std@@V?$allocator@D@2@@2@@Z ; std::_Tree<std::_Tmap_traits<std::basic_string<char,std::char_traits<char>,std::allocator<char> >,FuzzyVariable *,std::less<std::basic_string<char,std::char_traits<char>,std::allocator<char> > >,std::allocator<std::pair<std::basic_string<char,std::char_traits<char>,std::allocator<char> > const ,FuzzyVariable *> >,0> >::find
	mov	DWORD PTR tv154[ebp], eax
	mov	eax, DWORD PTR tv154[ebp]
	mov	DWORD PTR tv147[ebp], eax
	mov	DWORD PTR __$EHRec$[ebp+8], 1
	mov	ecx, DWORD PTR $T151470[ebp]
	or	ecx, 2
	mov	DWORD PTR $T151470[ebp], ecx
	mov	ecx, DWORD PTR tv147[ebp]
	call	??9?$_Tree_const_iterator@V?$_Tree_val@V?$_Tmap_traits@V?$basic_string@DU?$char_traits@D@std@@V?$allocator@D@2@@std@@PAVFuzzyVariable@@U?$less@V?$basic_string@DU?$char_traits@D@std@@V?$allocator@D@2@@std@@@2@V?$allocator@U?$pair@$$CBV?$basic_string@DU?$char_traits@D@std@@V?$allocator@D@2@@std@@PAVFuzzyVariable@@@std@@@2@$0A@@std@@@std@@@std@@QBE_NABV01@@Z ; std::_Tree_const_iterator<std::_Tree_val<std::_Tmap_traits<std::basic_string<char,std::char_traits<char>,std::allocator<char> >,FuzzyVariable *,std::less<std::basic_string<char,std::char_traits<char>,std::allocator<char> > >,std::allocator<std::pair<std::basic_string<char,std::char_traits<char>,std::allocator<char> > const ,FuzzyVariable *> >,0> > >::operator!=
	movzx	edx, al
	test	edx, edx
	je	SHORT $LN3@Fuzzify
	mov	eax, OFFSET ??_C@_0CF@MBMFGIBB@?$DMFuzzyModule?3?3Fuzzify?$DO?3key?5not?5f@
	test	eax, eax
	jne	SHORT $LN4@Fuzzify
$LN3@Fuzzify:
	push	92					; 0000005cH
	push	OFFSET ??_C@_1KO@ENJNFMBP@?$AAC?$AA?3?$AA?2?$AAU?$AAs?$AAe?$AAr?$AAs?$AA?2?$AAT?$AAe?$AAa?$AAj?$AAa?$AA?2?$AAD?$AAo?$AAc?$AAu?$AAm?$AAe?$AAn?$AAt?$AAs?$AA?2?$AAA?$AAr?$AAt?$AAi?$AAf?$AAi?$AAc@
	push	OFFSET ??_C@_1LK@DCGLEGLC@?$AA?$CI?$AAm?$AA_?$AAV?$AAa?$AAr?$AAi?$AAa?$AAb?$AAl?$AAe?$AAs?$AA?4?$AAf?$AAi?$AAn?$AAd?$AA?$CI?$AAN?$AAa?$AAm?$AAe?$AAO?$AAf?$AAF?$AAL?$AAV?$AA?$CJ?$AA?5?$AA?$CB?$AA?$DN?$AA?5@
	call	__wassert
	add	esp, 12					; 0000000cH
$LN4@Fuzzify:
	mov	DWORD PTR __$EHRec$[ebp+8], 0
	mov	edx, DWORD PTR $T151470[ebp]
	and	edx, 2
	je	SHORT $LN9@Fuzzify
	and	DWORD PTR $T151470[ebp], -3		; fffffffdH
	lea	ecx, DWORD PTR $T151466[ebp]
	call	??1?$_Tree_iterator@V?$_Tree_val@V?$_Tmap_traits@V?$basic_string@DU?$char_traits@D@std@@V?$allocator@D@2@@std@@PAVFuzzyVariable@@U?$less@V?$basic_string@DU?$char_traits@D@std@@V?$allocator@D@2@@std@@@2@V?$allocator@U?$pair@$$CBV?$basic_string@DU?$char_traits@D@std@@V?$allocator@D@2@@std@@PAVFuzzyVariable@@@std@@@2@$0A@@std@@@std@@@std@@QAE@XZ
$LN9@Fuzzify:
	mov	DWORD PTR __$EHRec$[ebp+8], -1
	mov	eax, DWORD PTR $T151470[ebp]
	and	eax, 1
	je	SHORT $LN10@Fuzzify
	and	DWORD PTR $T151470[ebp], -2		; fffffffeH
	lea	ecx, DWORD PTR $T151467[ebp]
	call	??1?$_Tree_iterator@V?$_Tree_val@V?$_Tmap_traits@V?$basic_string@DU?$char_traits@D@std@@V?$allocator@D@2@@std@@PAVFuzzyVariable@@U?$less@V?$basic_string@DU?$char_traits@D@std@@V?$allocator@D@2@@std@@@2@V?$allocator@U?$pair@$$CBV?$basic_string@DU?$char_traits@D@std@@V?$allocator@D@2@@std@@PAVFuzzyVariable@@@std@@@2@$0A@@std@@@std@@@std@@QAE@XZ
$LN10@Fuzzify:

; 93   : 
; 94   :   m_Variables[NameOfFLV]->Fuzzify(val);

	sub	esp, 8
	fld	QWORD PTR _val$[ebp]
	fstp	QWORD PTR [esp]
	mov	ecx, DWORD PTR _NameOfFLV$[ebp]
	push	ecx
	mov	ecx, DWORD PTR _this$[ebp]
	call	??A?$map@V?$basic_string@DU?$char_traits@D@std@@V?$allocator@D@2@@std@@PAVFuzzyVariable@@U?$less@V?$basic_string@DU?$char_traits@D@std@@V?$allocator@D@2@@std@@@2@V?$allocator@U?$pair@$$CBV?$basic_string@DU?$char_traits@D@std@@V?$allocator@D@2@@std@@PAVFuzzyVariable@@@std@@@2@@std@@QAEAAPAVFuzzyVariable@@ABV?$basic_string@DU?$char_traits@D@std@@V?$allocator@D@2@@1@@Z ; std::map<std::basic_string<char,std::char_traits<char>,std::allocator<char> >,FuzzyVariable *,std::less<std::basic_string<char,std::char_traits<char>,std::allocator<char> > >,std::allocator<std::pair<std::basic_string<char,std::char_traits<char>,std::allocator<char> > const ,FuzzyVariable *> > >::operator[]
	mov	ecx, DWORD PTR [eax]
	call	?Fuzzify@FuzzyVariable@@QAEXN@Z		; FuzzyVariable::Fuzzify

; 95   : }

	mov	ecx, DWORD PTR __$EHRec$[ebp]
	mov	DWORD PTR fs:0, ecx
	pop	ecx
	pop	edi
	add	esp, 60					; 0000003cH
	cmp	ebp, esp
	call	__RTC_CheckEsp
	mov	esp, ebp
	pop	ebp
	ret	12					; 0000000cH
_TEXT	ENDS
;	COMDAT text$x
text$x	SEGMENT
__unwindfunclet$?Fuzzify@FuzzyModule@@QAEXABV?$basic_string@DU?$char_traits@D@std@@V?$allocator@D@2@@std@@N@Z$0:
	mov	eax, DWORD PTR $T151470[ebp]
	and	eax, 1
	je	$LN6@Fuzzify
	and	DWORD PTR $T151470[ebp], -2		; fffffffeH
	lea	ecx, DWORD PTR $T151467[ebp]
	jmp	??1?$_Tree_iterator@V?$_Tree_val@V?$_Tmap_traits@V?$basic_string@DU?$char_traits@D@std@@V?$allocator@D@2@@std@@PAVFuzzyVariable@@U?$less@V?$basic_string@DU?$char_traits@D@std@@V?$allocator@D@2@@std@@@2@V?$allocator@U?$pair@$$CBV?$basic_string@DU?$char_traits@D@std@@V?$allocator@D@2@@std@@PAVFuzzyVariable@@@std@@@2@$0A@@std@@@std@@@std@@QAE@XZ
$LN6@Fuzzify:
	ret	0
__unwindfunclet$?Fuzzify@FuzzyModule@@QAEXABV?$basic_string@DU?$char_traits@D@std@@V?$allocator@D@2@@std@@N@Z$1:
	mov	eax, DWORD PTR $T151470[ebp]
	and	eax, 2
	je	$LN8@Fuzzify
	and	DWORD PTR $T151470[ebp], -3		; fffffffdH
	lea	ecx, DWORD PTR $T151466[ebp]
	jmp	??1?$_Tree_iterator@V?$_Tree_val@V?$_Tmap_traits@V?$basic_string@DU?$char_traits@D@std@@V?$allocator@D@2@@std@@PAVFuzzyVariable@@U?$less@V?$basic_string@DU?$char_traits@D@std@@V?$allocator@D@2@@std@@@2@V?$allocator@U?$pair@$$CBV?$basic_string@DU?$char_traits@D@std@@V?$allocator@D@2@@std@@PAVFuzzyVariable@@@std@@@2@$0A@@std@@@std@@@std@@QAE@XZ
$LN8@Fuzzify:
	ret	0
__ehhandler$?Fuzzify@FuzzyModule@@QAEXABV?$basic_string@DU?$char_traits@D@std@@V?$allocator@D@2@@std@@N@Z:
	mov	edx, DWORD PTR [esp+8]
	lea	eax, DWORD PTR [edx+12]
	mov	ecx, DWORD PTR [edx-56]
	xor	ecx, eax
	call	@__security_check_cookie@4
	mov	eax, OFFSET __ehfuncinfo$?Fuzzify@FuzzyModule@@QAEXABV?$basic_string@DU?$char_traits@D@std@@V?$allocator@D@2@@std@@N@Z
	jmp	___CxxFrameHandler3
text$x	ENDS
?Fuzzify@FuzzyModule@@QAEXABV?$basic_string@DU?$char_traits@D@std@@V?$allocator@D@2@@std@@N@Z ENDP ; FuzzyModule::Fuzzify
PUBLIC	??1?$_Tree_const_iterator@V?$_Tree_val@V?$_Tmap_traits@V?$basic_string@DU?$char_traits@D@std@@V?$allocator@D@2@@std@@PAVFuzzyVariable@@U?$less@V?$basic_string@DU?$char_traits@D@std@@V?$allocator@D@2@@std@@@2@V?$allocator@U?$pair@$$CBV?$basic_string@DU?$char_traits@D@std@@V?$allocator@D@2@@std@@PAVFuzzyVariable@@@std@@@2@$0A@@std@@@std@@@std@@QAE@XZ ; std::_Tree_const_iterator<std::_Tree_val<std::_Tmap_traits<std::basic_string<char,std::char_traits<char>,std::allocator<char> >,FuzzyVariable *,std::less<std::basic_string<char,std::char_traits<char>,std::allocator<char> > >,std::allocator<std::pair<std::basic_string<char,std::char_traits<char>,std::allocator<char> > const ,FuzzyVariable *> >,0> > >::~_Tree_const_iterator<std::_Tree_val<std::_Tmap_traits<std::basic_string<char,std::char_traits<char>,std::allocator<char> >,FuzzyVariable *,std::less<std::basic_string<char,std::char_traits<char>,std::allocator<char> > >,std::allocator<std::pair<std::basic_string<char,std::char_traits<char>,std::allocator<char> > const ,FuzzyVariable *> >,0> > >
; Function compile flags: /Odtp /RTCsu
;	COMDAT ??1?$_Tree_iterator@V?$_Tree_val@V?$_Tmap_traits@V?$basic_string@DU?$char_traits@D@std@@V?$allocator@D@2@@std@@PAVFuzzyVariable@@U?$less@V?$basic_string@DU?$char_traits@D@std@@V?$allocator@D@2@@std@@@2@V?$allocator@U?$pair@$$CBV?$basic_string@DU?$char_traits@D@std@@V?$allocator@D@2@@std@@PAVFuzzyVariable@@@std@@@2@$0A@@std@@@std@@@std@@QAE@XZ
_TEXT	SEGMENT
_this$ = -4						; size = 4
??1?$_Tree_iterator@V?$_Tree_val@V?$_Tmap_traits@V?$basic_string@DU?$char_traits@D@std@@V?$allocator@D@2@@std@@PAVFuzzyVariable@@U?$less@V?$basic_string@DU?$char_traits@D@std@@V?$allocator@D@2@@std@@@2@V?$allocator@U?$pair@$$CBV?$basic_string@DU?$char_traits@D@std@@V?$allocator@D@2@@std@@PAVFuzzyVariable@@@std@@@2@$0A@@std@@@std@@@std@@QAE@XZ PROC ; std::_Tree_iterator<std::_Tree_val<std::_Tmap_traits<std::basic_string<char,std::char_traits<char>,std::allocator<char> >,FuzzyVariable *,std::less<std::basic_string<char,std::char_traits<char>,std::allocator<char> > >,std::allocator<std::pair<std::basic_string<char,std::char_traits<char>,std::allocator<char> > const ,FuzzyVariable *> >,0> > >::~_Tree_iterator<std::_Tree_val<std::_Tmap_traits<std::basic_string<char,std::char_traits<char>,std::allocator<char> >,FuzzyVariable *,std::less<std::basic_string<char,std::char_traits<char>,std::allocator<char> > >,std::allocator<std::pair<std::basic_string<char,std::char_traits<char>,std::allocator<char> > const ,FuzzyVariable *> >,0> > >, COMDAT
; _this$ = ecx
	push	ebp
	mov	ebp, esp
	push	ecx
	mov	DWORD PTR [ebp-4], -858993460		; ccccccccH
	mov	DWORD PTR _this$[ebp], ecx
	mov	ecx, DWORD PTR _this$[ebp]
	call	??1?$_Tree_const_iterator@V?$_Tree_val@V?$_Tmap_traits@V?$basic_string@DU?$char_traits@D@std@@V?$allocator@D@2@@std@@PAVFuzzyVariable@@U?$less@V?$basic_string@DU?$char_traits@D@std@@V?$allocator@D@2@@std@@@2@V?$allocator@U?$pair@$$CBV?$basic_string@DU?$char_traits@D@std@@V?$allocator@D@2@@std@@PAVFuzzyVariable@@@std@@@2@$0A@@std@@@std@@@std@@QAE@XZ
	add	esp, 4
	cmp	ebp, esp
	call	__RTC_CheckEsp
	mov	esp, ebp
	pop	ebp
	ret	0
??1?$_Tree_iterator@V?$_Tree_val@V?$_Tmap_traits@V?$basic_string@DU?$char_traits@D@std@@V?$allocator@D@2@@std@@PAVFuzzyVariable@@U?$less@V?$basic_string@DU?$char_traits@D@std@@V?$allocator@D@2@@std@@@2@V?$allocator@U?$pair@$$CBV?$basic_string@DU?$char_traits@D@std@@V?$allocator@D@2@@std@@PAVFuzzyVariable@@@std@@@2@$0A@@std@@@std@@@std@@QAE@XZ ENDP ; std::_Tree_iterator<std::_Tree_val<std::_Tmap_traits<std::basic_string<char,std::char_traits<char>,std::allocator<char> >,FuzzyVariable *,std::less<std::basic_string<char,std::char_traits<char>,std::allocator<char> > >,std::allocator<std::pair<std::basic_string<char,std::char_traits<char>,std::allocator<char> > const ,FuzzyVariable *> >,0> > >::~_Tree_iterator<std::_Tree_val<std::_Tmap_traits<std::basic_string<char,std::char_traits<char>,std::allocator<char> >,FuzzyVariable *,std::less<std::basic_string<char,std::char_traits<char>,std::allocator<char> > >,std::allocator<std::pair<std::basic_string<char,std::char_traits<char>,std::allocator<char> > const ,FuzzyVariable *> >,0> > >
_TEXT	ENDS
PUBLIC	??1?$_Tree_unchecked_const_iterator@V?$_Tree_val@V?$_Tmap_traits@V?$basic_string@DU?$char_traits@D@std@@V?$allocator@D@2@@std@@PAVFuzzyVariable@@U?$less@V?$basic_string@DU?$char_traits@D@std@@V?$allocator@D@2@@std@@@2@V?$allocator@U?$pair@$$CBV?$basic_string@DU?$char_traits@D@std@@V?$allocator@D@2@@std@@PAVFuzzyVariable@@@std@@@2@$0A@@std@@@std@@U_Iterator_base12@2@@std@@QAE@XZ ; std::_Tree_unchecked_const_iterator<std::_Tree_val<std::_Tmap_traits<std::basic_string<char,std::char_traits<char>,std::allocator<char> >,FuzzyVariable *,std::less<std::basic_string<char,std::char_traits<char>,std::allocator<char> > >,std::allocator<std::pair<std::basic_string<char,std::char_traits<char>,std::allocator<char> > const ,FuzzyVariable *> >,0> >,std::_Iterator_base12>::~_Tree_unchecked_const_iterator<std::_Tree_val<std::_Tmap_traits<std::basic_string<char,std::char_traits<char>,std::allocator<char> >,FuzzyVariable *,std::less<std::basic_string<char,std::char_traits<char>,std::allocator<char> > >,std::allocator<std::pair<std::basic_string<char,std::char_traits<char>,std::allocator<char> > const ,FuzzyVariable *> >,0> >,std::_Iterator_base12>
; Function compile flags: /Odtp /RTCsu
;	COMDAT ??1?$_Tree_const_iterator@V?$_Tree_val@V?$_Tmap_traits@V?$basic_string@DU?$char_traits@D@std@@V?$allocator@D@2@@std@@PAVFuzzyVariable@@U?$less@V?$basic_string@DU?$char_traits@D@std@@V?$allocator@D@2@@std@@@2@V?$allocator@U?$pair@$$CBV?$basic_string@DU?$char_traits@D@std@@V?$allocator@D@2@@std@@PAVFuzzyVariable@@@std@@@2@$0A@@std@@@std@@@std@@QAE@XZ
_TEXT	SEGMENT
_this$ = -4						; size = 4
??1?$_Tree_const_iterator@V?$_Tree_val@V?$_Tmap_traits@V?$basic_string@DU?$char_traits@D@std@@V?$allocator@D@2@@std@@PAVFuzzyVariable@@U?$less@V?$basic_string@DU?$char_traits@D@std@@V?$allocator@D@2@@std@@@2@V?$allocator@U?$pair@$$CBV?$basic_string@DU?$char_traits@D@std@@V?$allocator@D@2@@std@@PAVFuzzyVariable@@@std@@@2@$0A@@std@@@std@@@std@@QAE@XZ PROC ; std::_Tree_const_iterator<std::_Tree_val<std::_Tmap_traits<std::basic_string<char,std::char_traits<char>,std::allocator<char> >,FuzzyVariable *,std::less<std::basic_string<char,std::char_traits<char>,std::allocator<char> > >,std::allocator<std::pair<std::basic_string<char,std::char_traits<char>,std::allocator<char> > const ,FuzzyVariable *> >,0> > >::~_Tree_const_iterator<std::_Tree_val<std::_Tmap_traits<std::basic_string<char,std::char_traits<char>,std::allocator<char> >,FuzzyVariable *,std::less<std::basic_string<char,std::char_traits<char>,std::allocator<char> > >,std::allocator<std::pair<std::basic_string<char,std::char_traits<char>,std::allocator<char> > const ,FuzzyVariable *> >,0> > >, COMDAT
; _this$ = ecx
	push	ebp
	mov	ebp, esp
	push	ecx
	mov	DWORD PTR [ebp-4], -858993460		; ccccccccH
	mov	DWORD PTR _this$[ebp], ecx
	mov	ecx, DWORD PTR _this$[ebp]
	call	??1?$_Tree_unchecked_const_iterator@V?$_Tree_val@V?$_Tmap_traits@V?$basic_string@DU?$char_traits@D@std@@V?$allocator@D@2@@std@@PAVFuzzyVariable@@U?$less@V?$basic_string@DU?$char_traits@D@std@@V?$allocator@D@2@@std@@@2@V?$allocator@U?$pair@$$CBV?$basic_string@DU?$char_traits@D@std@@V?$allocator@D@2@@std@@PAVFuzzyVariable@@@std@@@2@$0A@@std@@@std@@U_Iterator_base12@2@@std@@QAE@XZ
	add	esp, 4
	cmp	ebp, esp
	call	__RTC_CheckEsp
	mov	esp, ebp
	pop	ebp
	ret	0
??1?$_Tree_const_iterator@V?$_Tree_val@V?$_Tmap_traits@V?$basic_string@DU?$char_traits@D@std@@V?$allocator@D@2@@std@@PAVFuzzyVariable@@U?$less@V?$basic_string@DU?$char_traits@D@std@@V?$allocator@D@2@@std@@@2@V?$allocator@U?$pair@$$CBV?$basic_string@DU?$char_traits@D@std@@V?$allocator@D@2@@std@@PAVFuzzyVariable@@@std@@@2@$0A@@std@@@std@@@std@@QAE@XZ ENDP ; std::_Tree_const_iterator<std::_Tree_val<std::_Tmap_traits<std::basic_string<char,std::char_traits<char>,std::allocator<char> >,FuzzyVariable *,std::less<std::basic_string<char,std::char_traits<char>,std::allocator<char> > >,std::allocator<std::pair<std::basic_string<char,std::char_traits<char>,std::allocator<char> > const ,FuzzyVariable *> >,0> > >::~_Tree_const_iterator<std::_Tree_val<std::_Tmap_traits<std::basic_string<char,std::char_traits<char>,std::allocator<char> >,FuzzyVariable *,std::less<std::basic_string<char,std::char_traits<char>,std::allocator<char> > >,std::allocator<std::pair<std::basic_string<char,std::char_traits<char>,std::allocator<char> > const ,FuzzyVariable *> >,0> > >
_TEXT	ENDS
PUBLIC	??1?$_Iterator012@Ubidirectional_iterator_tag@std@@U?$pair@$$CBV?$basic_string@DU?$char_traits@D@std@@V?$allocator@D@2@@std@@PAVFuzzyVariable@@@2@HPBU32@ABU32@U_Iterator_base12@2@@std@@QAE@XZ ; std::_Iterator012<std::bidirectional_iterator_tag,std::pair<std::basic_string<char,std::char_traits<char>,std::allocator<char> > const ,FuzzyVariable *>,int,std::pair<std::basic_string<char,std::char_traits<char>,std::allocator<char> > const ,FuzzyVariable *> const *,std::pair<std::basic_string<char,std::char_traits<char>,std::allocator<char> > const ,FuzzyVariable *> const &,std::_Iterator_base12>::~_Iterator012<std::bidirectional_iterator_tag,std::pair<std::basic_string<char,std::char_traits<char>,std::allocator<char> > const ,FuzzyVariable *>,int,std::pair<std::basic_string<char,std::char_traits<char>,std::allocator<char> > const ,FuzzyVariable *> const *,std::pair<std::basic_string<char,std::char_traits<char>,std::allocator<char> > const ,FuzzyVariable *> const &,std::_Iterator_base12>
; Function compile flags: /Odtp /RTCsu
;	COMDAT ??1?$_Tree_unchecked_const_iterator@V?$_Tree_val@V?$_Tmap_traits@V?$basic_string@DU?$char_traits@D@std@@V?$allocator@D@2@@std@@PAVFuzzyVariable@@U?$less@V?$basic_string@DU?$char_traits@D@std@@V?$allocator@D@2@@std@@@2@V?$allocator@U?$pair@$$CBV?$basic_string@DU?$char_traits@D@std@@V?$allocator@D@2@@std@@PAVFuzzyVariable@@@std@@@2@$0A@@std@@@std@@U_Iterator_base12@2@@std@@QAE@XZ
_TEXT	SEGMENT
_this$ = -4						; size = 4
??1?$_Tree_unchecked_const_iterator@V?$_Tree_val@V?$_Tmap_traits@V?$basic_string@DU?$char_traits@D@std@@V?$allocator@D@2@@std@@PAVFuzzyVariable@@U?$less@V?$basic_string@DU?$char_traits@D@std@@V?$allocator@D@2@@std@@@2@V?$allocator@U?$pair@$$CBV?$basic_string@DU?$char_traits@D@std@@V?$allocator@D@2@@std@@PAVFuzzyVariable@@@std@@@2@$0A@@std@@@std@@U_Iterator_base12@2@@std@@QAE@XZ PROC ; std::_Tree_unchecked_const_iterator<std::_Tree_val<std::_Tmap_traits<std::basic_string<char,std::char_traits<char>,std::allocator<char> >,FuzzyVariable *,std::less<std::basic_string<char,std::char_traits<char>,std::allocator<char> > >,std::allocator<std::pair<std::basic_string<char,std::char_traits<char>,std::allocator<char> > const ,FuzzyVariable *> >,0> >,std::_Iterator_base12>::~_Tree_unchecked_const_iterator<std::_Tree_val<std::_Tmap_traits<std::basic_string<char,std::char_traits<char>,std::allocator<char> >,FuzzyVariable *,std::less<std::basic_string<char,std::char_traits<char>,std::allocator<char> > >,std::allocator<std::pair<std::basic_string<char,std::char_traits<char>,std::allocator<char> > const ,FuzzyVariable *> >,0> >,std::_Iterator_base12>, COMDAT
; _this$ = ecx
	push	ebp
	mov	ebp, esp
	push	ecx
	mov	DWORD PTR [ebp-4], -858993460		; ccccccccH
	mov	DWORD PTR _this$[ebp], ecx
	mov	ecx, DWORD PTR _this$[ebp]
	call	??1?$_Iterator012@Ubidirectional_iterator_tag@std@@U?$pair@$$CBV?$basic_string@DU?$char_traits@D@std@@V?$allocator@D@2@@std@@PAVFuzzyVariable@@@2@HPBU32@ABU32@U_Iterator_base12@2@@std@@QAE@XZ
	add	esp, 4
	cmp	ebp, esp
	call	__RTC_CheckEsp
	mov	esp, ebp
	pop	ebp
	ret	0
??1?$_Tree_unchecked_const_iterator@V?$_Tree_val@V?$_Tmap_traits@V?$basic_string@DU?$char_traits@D@std@@V?$allocator@D@2@@std@@PAVFuzzyVariable@@U?$less@V?$basic_string@DU?$char_traits@D@std@@V?$allocator@D@2@@std@@@2@V?$allocator@U?$pair@$$CBV?$basic_string@DU?$char_traits@D@std@@V?$allocator@D@2@@std@@PAVFuzzyVariable@@@std@@@2@$0A@@std@@@std@@U_Iterator_base12@2@@std@@QAE@XZ ENDP ; std::_Tree_unchecked_const_iterator<std::_Tree_val<std::_Tmap_traits<std::basic_string<char,std::char_traits<char>,std::allocator<char> >,FuzzyVariable *,std::less<std::basic_string<char,std::char_traits<char>,std::allocator<char> > >,std::allocator<std::pair<std::basic_string<char,std::char_traits<char>,std::allocator<char> > const ,FuzzyVariable *> >,0> >,std::_Iterator_base12>::~_Tree_unchecked_const_iterator<std::_Tree_val<std::_Tmap_traits<std::basic_string<char,std::char_traits<char>,std::allocator<char> >,FuzzyVariable *,std::less<std::basic_string<char,std::char_traits<char>,std::allocator<char> > >,std::allocator<std::pair<std::basic_string<char,std::char_traits<char>,std::allocator<char> > const ,FuzzyVariable *> >,0> >,std::_Iterator_base12>
_TEXT	ENDS
PUBLIC	??1_Iterator_base12@std@@QAE@XZ			; std::_Iterator_base12::~_Iterator_base12
; Function compile flags: /Odtp /RTCsu
;	COMDAT ??1?$_Iterator012@Ubidirectional_iterator_tag@std@@U?$pair@$$CBV?$basic_string@DU?$char_traits@D@std@@V?$allocator@D@2@@std@@PAVFuzzyVariable@@@2@HPBU32@ABU32@U_Iterator_base12@2@@std@@QAE@XZ
_TEXT	SEGMENT
_this$ = -4						; size = 4
??1?$_Iterator012@Ubidirectional_iterator_tag@std@@U?$pair@$$CBV?$basic_string@DU?$char_traits@D@std@@V?$allocator@D@2@@std@@PAVFuzzyVariable@@@2@HPBU32@ABU32@U_Iterator_base12@2@@std@@QAE@XZ PROC ; std::_Iterator012<std::bidirectional_iterator_tag,std::pair<std::basic_string<char,std::char_traits<char>,std::allocator<char> > const ,FuzzyVariable *>,int,std::pair<std::basic_string<char,std::char_traits<char>,std::allocator<char> > const ,FuzzyVariable *> const *,std::pair<std::basic_string<char,std::char_traits<char>,std::allocator<char> > const ,FuzzyVariable *> const &,std::_Iterator_base12>::~_Iterator012<std::bidirectional_iterator_tag,std::pair<std::basic_string<char,std::char_traits<char>,std::allocator<char> > const ,FuzzyVariable *>,int,std::pair<std::basic_string<char,std::char_traits<char>,std::allocator<char> > const ,FuzzyVariable *> const *,std::pair<std::basic_string<char,std::char_traits<char>,std::allocator<char> > const ,FuzzyVariable *> const &,std::_Iterator_base12>, COMDAT
; _this$ = ecx
	push	ebp
	mov	ebp, esp
	push	ecx
	mov	DWORD PTR [ebp-4], -858993460		; ccccccccH
	mov	DWORD PTR _this$[ebp], ecx
	mov	ecx, DWORD PTR _this$[ebp]
	call	??1_Iterator_base12@std@@QAE@XZ		; std::_Iterator_base12::~_Iterator_base12
	add	esp, 4
	cmp	ebp, esp
	call	__RTC_CheckEsp
	mov	esp, ebp
	pop	ebp
	ret	0
??1?$_Iterator012@Ubidirectional_iterator_tag@std@@U?$pair@$$CBV?$basic_string@DU?$char_traits@D@std@@V?$allocator@D@2@@std@@PAVFuzzyVariable@@@2@HPBU32@ABU32@U_Iterator_base12@2@@std@@QAE@XZ ENDP ; std::_Iterator012<std::bidirectional_iterator_tag,std::pair<std::basic_string<char,std::char_traits<char>,std::allocator<char> > const ,FuzzyVariable *>,int,std::pair<std::basic_string<char,std::char_traits<char>,std::allocator<char> > const ,FuzzyVariable *> const *,std::pair<std::basic_string<char,std::char_traits<char>,std::allocator<char> > const ,FuzzyVariable *> const &,std::_Iterator_base12>::~_Iterator012<std::bidirectional_iterator_tag,std::pair<std::basic_string<char,std::char_traits<char>,std::allocator<char> > const ,FuzzyVariable *>,int,std::pair<std::basic_string<char,std::char_traits<char>,std::allocator<char> > const ,FuzzyVariable *> const *,std::pair<std::basic_string<char,std::char_traits<char>,std::allocator<char> > const ,FuzzyVariable *> const &,std::_Iterator_base12>
_TEXT	ENDS
PUBLIC	?_Orphan_me@_Iterator_base12@std@@QAEXXZ	; std::_Iterator_base12::_Orphan_me
EXTRN	??1_Lockit@std@@QAE@XZ:PROC			; std::_Lockit::~_Lockit
EXTRN	??0_Lockit@std@@QAE@H@Z:PROC			; std::_Lockit::_Lockit
;	COMDAT xdata$x
; File c:\program files (x86)\microsoft visual studio 10.0\vc\include\xutility
xdata$x	SEGMENT
__unwindtable$??1_Iterator_base12@std@@QAE@XZ DD 0ffffffffH
	DD	FLAT:__unwindfunclet$??1_Iterator_base12@std@@QAE@XZ$0
__ehfuncinfo$??1_Iterator_base12@std@@QAE@XZ DD 019930522H
	DD	01H
	DD	FLAT:__unwindtable$??1_Iterator_base12@std@@QAE@XZ
	DD	2 DUP(00H)
	DD	2 DUP(00H)
	DD	00H
	DD	01H
; Function compile flags: /Odtp /RTCsu
xdata$x	ENDS
;	COMDAT ??1_Iterator_base12@std@@QAE@XZ
_TEXT	SEGMENT
__Lock$ = -24						; size = 4
_this$ = -16						; size = 4
__$EHRec$ = -12						; size = 12
??1_Iterator_base12@std@@QAE@XZ PROC			; std::_Iterator_base12::~_Iterator_base12, COMDAT
; _this$ = ecx

; 135  : 		{	// destroy the iterator

	push	ebp
	mov	ebp, esp
	push	-1
	push	__ehhandler$??1_Iterator_base12@std@@QAE@XZ
	mov	eax, DWORD PTR fs:0
	push	eax
	sub	esp, 16					; 00000010H
	mov	eax, -858993460				; ccccccccH
	mov	DWORD PTR [ebp-28], eax
	mov	DWORD PTR [ebp-24], eax
	mov	DWORD PTR [ebp-20], eax
	mov	DWORD PTR [ebp-16], eax
	mov	eax, DWORD PTR ___security_cookie
	xor	eax, ebp
	push	eax
	lea	eax, DWORD PTR __$EHRec$[ebp]
	mov	DWORD PTR fs:0, eax
	mov	DWORD PTR _this$[ebp], ecx

; 136  :  #if _ITERATOR_DEBUG_LEVEL == 2
; 137  : 		_Lockit _Lock(_LOCK_DEBUG);

	push	3
	lea	ecx, DWORD PTR __Lock$[ebp]
	call	??0_Lockit@std@@QAE@H@Z			; std::_Lockit::_Lockit
	mov	DWORD PTR __$EHRec$[ebp+8], 0

; 138  : 		_Orphan_me();

	mov	ecx, DWORD PTR _this$[ebp]
	call	?_Orphan_me@_Iterator_base12@std@@QAEXXZ ; std::_Iterator_base12::_Orphan_me

; 139  :  #endif /* _ITERATOR_DEBUG_LEVEL == 2 */
; 140  : 		}

	mov	DWORD PTR __$EHRec$[ebp+8], -1
	lea	ecx, DWORD PTR __Lock$[ebp]
	call	??1_Lockit@std@@QAE@XZ			; std::_Lockit::~_Lockit
	push	edx
	mov	ecx, ebp
	push	eax
	lea	edx, DWORD PTR $LN7@Iterator_b
	call	@_RTC_CheckStackVars@8
	pop	eax
	pop	edx
	mov	ecx, DWORD PTR __$EHRec$[ebp]
	mov	DWORD PTR fs:0, ecx
	pop	ecx
	add	esp, 28					; 0000001cH
	cmp	ebp, esp
	call	__RTC_CheckEsp
	mov	esp, ebp
	pop	ebp
	ret	0
	npad	1
$LN7@Iterator_b:
	DD	1
	DD	$LN6@Iterator_b
$LN6@Iterator_b:
	DD	-24					; ffffffe8H
	DD	4
	DD	$LN4@Iterator_b
$LN4@Iterator_b:
	DB	95					; 0000005fH
	DB	76					; 0000004cH
	DB	111					; 0000006fH
	DB	99					; 00000063H
	DB	107					; 0000006bH
	DB	0
_TEXT	ENDS
;	COMDAT text$x
text$x	SEGMENT
__unwindfunclet$??1_Iterator_base12@std@@QAE@XZ$0:
	lea	ecx, DWORD PTR __Lock$[ebp]
	jmp	??1_Lockit@std@@QAE@XZ			; std::_Lockit::~_Lockit
__ehhandler$??1_Iterator_base12@std@@QAE@XZ:
	mov	edx, DWORD PTR [esp+8]
	lea	eax, DWORD PTR [edx+12]
	mov	ecx, DWORD PTR [edx-20]
	xor	ecx, eax
	call	@__security_check_cookie@4
	mov	eax, OFFSET __ehfuncinfo$??1_Iterator_base12@std@@QAE@XZ
	jmp	___CxxFrameHandler3
text$x	ENDS
??1_Iterator_base12@std@@QAE@XZ ENDP			; std::_Iterator_base12::~_Iterator_base12
PUBLIC	??_C@_1DC@POOIKBAO@?$AAI?$AAT?$AAE?$AAR?$AAA?$AAT?$AAO?$AAR?$AA?5?$AAL?$AAI?$AAS?$AAT?$AA?5?$AAC?$AAO?$AAR?$AAR?$AAU?$AAP?$AAT?$AAE?$AAD?$AA?$CB?$AA?$AA@ ; `string'
PUBLIC	??_C@_1JA@HCKHPKJH@?$AAc?$AA?3?$AA?2?$AAP?$AAr?$AAo?$AAg?$AAr?$AAa?$AAm?$AA?5?$AAF?$AAi?$AAl?$AAe?$AAs?$AA?5?$AA?$CI?$AAx?$AA8?$AA6?$AA?$CJ?$AA?2?$AAM?$AAi?$AAc?$AAr?$AAo?$AAs?$AAo?$AAf?$AAt@ ; `string'
EXTRN	?_Debug_message@std@@YAXPB_W0I@Z:PROC		; std::_Debug_message
;	COMDAT ??_C@_1DC@POOIKBAO@?$AAI?$AAT?$AAE?$AAR?$AAA?$AAT?$AAO?$AAR?$AA?5?$AAL?$AAI?$AAS?$AAT?$AA?5?$AAC?$AAO?$AAR?$AAR?$AAU?$AAP?$AAT?$AAE?$AAD?$AA?$CB?$AA?$AA@
CONST	SEGMENT
??_C@_1DC@POOIKBAO@?$AAI?$AAT?$AAE?$AAR?$AAA?$AAT?$AAO?$AAR?$AA?5?$AAL?$AAI?$AAS?$AAT?$AA?5?$AAC?$AAO?$AAR?$AAR?$AAU?$AAP?$AAT?$AAE?$AAD?$AA?$CB?$AA?$AA@ DB 'I'
	DB	00H, 'T', 00H, 'E', 00H, 'R', 00H, 'A', 00H, 'T', 00H, 'O', 00H
	DB	'R', 00H, ' ', 00H, 'L', 00H, 'I', 00H, 'S', 00H, 'T', 00H, ' '
	DB	00H, 'C', 00H, 'O', 00H, 'R', 00H, 'R', 00H, 'U', 00H, 'P', 00H
	DB	'T', 00H, 'E', 00H, 'D', 00H, '!', 00H, 00H, 00H ; `string'
CONST	ENDS
;	COMDAT ??_C@_1JA@HCKHPKJH@?$AAc?$AA?3?$AA?2?$AAP?$AAr?$AAo?$AAg?$AAr?$AAa?$AAm?$AA?5?$AAF?$AAi?$AAl?$AAe?$AAs?$AA?5?$AA?$CI?$AAx?$AA8?$AA6?$AA?$CJ?$AA?2?$AAM?$AAi?$AAc?$AAr?$AAo?$AAs?$AAo?$AAf?$AAt@
CONST	SEGMENT
??_C@_1JA@HCKHPKJH@?$AAc?$AA?3?$AA?2?$AAP?$AAr?$AAo?$AAg?$AAr?$AAa?$AAm?$AA?5?$AAF?$AAi?$AAl?$AAe?$AAs?$AA?5?$AA?$CI?$AAx?$AA8?$AA6?$AA?$CJ?$AA?2?$AAM?$AAi?$AAc?$AAr?$AAo?$AAs?$AAo?$AAf?$AAt@ DB 'c'
	DB	00H, ':', 00H, '\', 00H, 'P', 00H, 'r', 00H, 'o', 00H, 'g', 00H
	DB	'r', 00H, 'a', 00H, 'm', 00H, ' ', 00H, 'F', 00H, 'i', 00H, 'l'
	DB	00H, 'e', 00H, 's', 00H, ' ', 00H, '(', 00H, 'x', 00H, '8', 00H
	DB	'6', 00H, ')', 00H, '\', 00H, 'M', 00H, 'i', 00H, 'c', 00H, 'r'
	DB	00H, 'o', 00H, 's', 00H, 'o', 00H, 'f', 00H, 't', 00H, ' ', 00H
	DB	'V', 00H, 'i', 00H, 's', 00H, 'u', 00H, 'a', 00H, 'l', 00H, ' '
	DB	00H, 'S', 00H, 't', 00H, 'u', 00H, 'd', 00H, 'i', 00H, 'o', 00H
	DB	' ', 00H, '1', 00H, '0', 00H, '.', 00H, '0', 00H, '\', 00H, 'V'
	DB	00H, 'C', 00H, '\', 00H, 'i', 00H, 'n', 00H, 'c', 00H, 'l', 00H
	DB	'u', 00H, 'd', 00H, 'e', 00H, '\', 00H, 'x', 00H, 'u', 00H, 't'
	DB	00H, 'i', 00H, 'l', 00H, 'i', 00H, 't', 00H, 'y', 00H, 00H, 00H ; `string'
; Function compile flags: /Odtp /RTCsu
CONST	ENDS
;	COMDAT ?_Orphan_me@_Iterator_base12@std@@QAEXXZ
_TEXT	SEGMENT
__Pnext$15157 = -8					; size = 4
_this$ = -4						; size = 4
?_Orphan_me@_Iterator_base12@std@@QAEXXZ PROC		; std::_Iterator_base12::_Orphan_me, COMDAT
; _this$ = ecx

; 184  : 		{	// cut ties with parent

	push	ebp
	mov	ebp, esp
	sub	esp, 8
	mov	DWORD PTR [ebp-8], -858993460		; ccccccccH
	mov	DWORD PTR [ebp-4], -858993460		; ccccccccH
	mov	DWORD PTR _this$[ebp], ecx

; 185  :  #if _ITERATOR_DEBUG_LEVEL == 2
; 186  : 		if (_Myproxy != 0)

	mov	eax, DWORD PTR _this$[ebp]
	cmp	DWORD PTR [eax], 0
	je	SHORT $LN5@Orphan_me

; 187  : 			{	// adopted, remove self from list
; 188  : 			_Iterator_base12 **_Pnext = &_Myproxy->_Myfirstiter;

	mov	ecx, DWORD PTR _this$[ebp]
	mov	edx, DWORD PTR [ecx]
	add	edx, 4
	mov	DWORD PTR __Pnext$15157[ebp], edx
$LN3@Orphan_me:

; 189  : 			while (*_Pnext != 0 && *_Pnext != this)

	mov	eax, DWORD PTR __Pnext$15157[ebp]
	cmp	DWORD PTR [eax], 0
	je	SHORT $LN2@Orphan_me
	mov	ecx, DWORD PTR __Pnext$15157[ebp]
	mov	edx, DWORD PTR [ecx]
	cmp	edx, DWORD PTR _this$[ebp]
	je	SHORT $LN2@Orphan_me

; 190  : 				_Pnext = &(*_Pnext)->_Mynextiter;

	mov	eax, DWORD PTR __Pnext$15157[ebp]
	mov	ecx, DWORD PTR [eax]
	add	ecx, 4
	mov	DWORD PTR __Pnext$15157[ebp], ecx
	jmp	SHORT $LN3@Orphan_me
$LN2@Orphan_me:

; 191  : 
; 192  : 			if (*_Pnext == 0)

	mov	edx, DWORD PTR __Pnext$15157[ebp]
	cmp	DWORD PTR [edx], 0
	jne	SHORT $LN1@Orphan_me

; 193  : 				_DEBUG_ERROR("ITERATOR LIST CORRUPTED!");

	push	193					; 000000c1H
	push	OFFSET ??_C@_1JA@HCKHPKJH@?$AAc?$AA?3?$AA?2?$AAP?$AAr?$AAo?$AAg?$AAr?$AAa?$AAm?$AA?5?$AAF?$AAi?$AAl?$AAe?$AAs?$AA?5?$AA?$CI?$AAx?$AA8?$AA6?$AA?$CJ?$AA?2?$AAM?$AAi?$AAc?$AAr?$AAo?$AAs?$AAo?$AAf?$AAt@
	push	OFFSET ??_C@_1DC@POOIKBAO@?$AAI?$AAT?$AAE?$AAR?$AAA?$AAT?$AAO?$AAR?$AA?5?$AAL?$AAI?$AAS?$AAT?$AA?5?$AAC?$AAO?$AAR?$AAR?$AAU?$AAP?$AAT?$AAE?$AAD?$AA?$CB?$AA?$AA@
	call	?_Debug_message@std@@YAXPB_W0I@Z	; std::_Debug_message
	add	esp, 12					; 0000000cH
$LN1@Orphan_me:

; 194  : 			*_Pnext = _Mynextiter;

	mov	eax, DWORD PTR __Pnext$15157[ebp]
	mov	ecx, DWORD PTR _this$[ebp]
	mov	edx, DWORD PTR [ecx+4]
	mov	DWORD PTR [eax], edx

; 195  : 			_Myproxy = 0;

	mov	eax, DWORD PTR _this$[ebp]
	mov	DWORD PTR [eax], 0
$LN5@Orphan_me:

; 196  : 			}
; 197  :  #endif /* _ITERATOR_DEBUG_LEVEL == 2 */
; 198  : 		}

	add	esp, 8
	cmp	ebp, esp
	call	__RTC_CheckEsp
	mov	esp, ebp
	pop	ebp
	ret	0
?_Orphan_me@_Iterator_base12@std@@QAEXXZ ENDP		; std::_Iterator_base12::_Orphan_me
_TEXT	ENDS
PUBLIC	?Calculate@FuzzyRule@@QAEXXZ			; FuzzyRule::Calculate
PUBLIC	??D?$_Vector_iterator@V?$_Vector_val@PAVFuzzyRule@@V?$allocator@PAVFuzzyRule@@@std@@@std@@@std@@QBEAAPAVFuzzyRule@@XZ ; std::_Vector_iterator<std::_Vector_val<FuzzyRule *,std::allocator<FuzzyRule *> > >::operator*
PUBLIC	??1?$_Vector_iterator@V?$_Vector_val@PAVFuzzyRule@@V?$allocator@PAVFuzzyRule@@@std@@@std@@@std@@QAE@XZ ; std::_Vector_iterator<std::_Vector_val<FuzzyRule *,std::allocator<FuzzyRule *> > >::~_Vector_iterator<std::_Vector_val<FuzzyRule *,std::allocator<FuzzyRule *> > >
PUBLIC	??9?$_Vector_const_iterator@V?$_Vector_val@PAVFuzzyRule@@V?$allocator@PAVFuzzyRule@@@std@@@std@@@std@@QBE_NABV01@@Z ; std::_Vector_const_iterator<std::_Vector_val<FuzzyRule *,std::allocator<FuzzyRule *> > >::operator!=
PUBLIC	?end@?$vector@PAVFuzzyRule@@V?$allocator@PAVFuzzyRule@@@std@@@std@@QAE?AV?$_Vector_iterator@V?$_Vector_val@PAVFuzzyRule@@V?$allocator@PAVFuzzyRule@@@std@@@std@@@2@XZ ; std::vector<FuzzyRule *,std::allocator<FuzzyRule *> >::end
PUBLIC	??E?$_Vector_iterator@V?$_Vector_val@PAVFuzzyRule@@V?$allocator@PAVFuzzyRule@@@std@@@std@@@std@@QAEAAV01@XZ ; std::_Vector_iterator<std::_Vector_val<FuzzyRule *,std::allocator<FuzzyRule *> > >::operator++
PUBLIC	?begin@?$vector@PAVFuzzyRule@@V?$allocator@PAVFuzzyRule@@@std@@@std@@QAE?AV?$_Vector_iterator@V?$_Vector_val@PAVFuzzyRule@@V?$allocator@PAVFuzzyRule@@@std@@@std@@@2@XZ ; std::vector<FuzzyRule *,std::allocator<FuzzyRule *> >::begin
PUBLIC	?SetConfidencesOfConsequentsToZero@FuzzyModule@@AAEXXZ ; FuzzyModule::SetConfidencesOfConsequentsToZero
PUBLIC	??_C@_1MI@IHELBIJN@?$AA?$CI?$AAm?$AA_?$AAV?$AAa?$AAr?$AAi?$AAa?$AAb?$AAl?$AAe?$AAs?$AA?4?$AAf?$AAi?$AAn?$AAd?$AA?$CI?$AAN?$AAa?$AAm?$AAe?$AAO?$AAf?$AAF?$AAL?$AAV?$AA?$CJ?$AA?5?$AA?$CB?$AA?$DN?$AA?5@ ; `string'
PUBLIC	??_C@_0CM@PLCMEIPN@?$DMFuzzyModule?3?3DeFuzzifyMaxAv?$DO?3ke@ ; `string'
EXTRN	?DeFuzzifyMaxAv@FuzzyVariable@@QBENXZ:PROC	; FuzzyVariable::DeFuzzifyMaxAv
EXTRN	?DeFuzzifyCentroid@FuzzyVariable@@QBENH@Z:PROC	; FuzzyVariable::DeFuzzifyCentroid
;	COMDAT ??_C@_1MI@IHELBIJN@?$AA?$CI?$AAm?$AA_?$AAV?$AAa?$AAr?$AAi?$AAa?$AAb?$AAl?$AAe?$AAs?$AA?4?$AAf?$AAi?$AAn?$AAd?$AA?$CI?$AAN?$AAa?$AAm?$AAe?$AAO?$AAf?$AAF?$AAL?$AAV?$AA?$CJ?$AA?5?$AA?$CB?$AA?$DN?$AA?5@
; File c:\users\teaja\documents\artificial-fun\labravenprojecttest\common\fuzzy\fuzzymodule.h
CONST	SEGMENT
??_C@_1MI@IHELBIJN@?$AA?$CI?$AAm?$AA_?$AAV?$AAa?$AAr?$AAi?$AAa?$AAb?$AAl?$AAe?$AAs?$AA?4?$AAf?$AAi?$AAn?$AAd?$AA?$CI?$AAN?$AAa?$AAm?$AAe?$AAO?$AAf?$AAF?$AAL?$AAV?$AA?$CJ?$AA?5?$AA?$CB?$AA?$DN?$AA?5@ DB '('
	DB	00H, 'm', 00H, '_', 00H, 'V', 00H, 'a', 00H, 'r', 00H, 'i', 00H
	DB	'a', 00H, 'b', 00H, 'l', 00H, 'e', 00H, 's', 00H, '.', 00H, 'f'
	DB	00H, 'i', 00H, 'n', 00H, 'd', 00H, '(', 00H, 'N', 00H, 'a', 00H
	DB	'm', 00H, 'e', 00H, 'O', 00H, 'f', 00H, 'F', 00H, 'L', 00H, 'V'
	DB	00H, ')', 00H, ' ', 00H, '!', 00H, '=', 00H, ' ', 00H, 'm', 00H
	DB	'_', 00H, 'V', 00H, 'a', 00H, 'r', 00H, 'i', 00H, 'a', 00H, 'b'
	DB	00H, 'l', 00H, 'e', 00H, 's', 00H, '.', 00H, 'e', 00H, 'n', 00H
	DB	'd', 00H, '(', 00H, ')', 00H, ')', 00H, ' ', 00H, '&', 00H, '&'
	DB	00H, ' ', 00H, '"', 00H, '<', 00H, 'F', 00H, 'u', 00H, 'z', 00H
	DB	'z', 00H, 'y', 00H, 'M', 00H, 'o', 00H, 'd', 00H, 'u', 00H, 'l'
	DB	00H, 'e', 00H, ':', 00H, ':', 00H, 'D', 00H, 'e', 00H, 'F', 00H
	DB	'u', 00H, 'z', 00H, 'z', 00H, 'i', 00H, 'f', 00H, 'y', 00H, 'M'
	DB	00H, 'a', 00H, 'x', 00H, 'A', 00H, 'v', 00H, '>', 00H, ':', 00H
	DB	'k', 00H, 'e', 00H, 'y', 00H, ' ', 00H, 'n', 00H, 'o', 00H, 't'
	DB	00H, ' ', 00H, 'f', 00H, 'o', 00H, 'u', 00H, 'n', 00H, 'd', 00H
	DB	'"', 00H, 00H, 00H				; `string'
CONST	ENDS
;	COMDAT ??_C@_0CM@PLCMEIPN@?$DMFuzzyModule?3?3DeFuzzifyMaxAv?$DO?3ke@
CONST	SEGMENT
??_C@_0CM@PLCMEIPN@?$DMFuzzyModule?3?3DeFuzzifyMaxAv?$DO?3ke@ DB '<FuzzyM'
	DB	'odule::DeFuzzifyMaxAv>:key not found', 00H	; `string'
CONST	ENDS
;	COMDAT xdata$x
xdata$x	SEGMENT
__unwindtable$?DeFuzzify@FuzzyModule@@QAENABV?$basic_string@DU?$char_traits@D@std@@V?$allocator@D@2@@std@@W4DefuzzifyMethod@1@@Z DD 0ffffffffH
	DD	FLAT:__unwindfunclet$?DeFuzzify@FuzzyModule@@QAENABV?$basic_string@DU?$char_traits@D@std@@V?$allocator@D@2@@std@@W4DefuzzifyMethod@1@@Z$0
	DD	00H
	DD	FLAT:__unwindfunclet$?DeFuzzify@FuzzyModule@@QAENABV?$basic_string@DU?$char_traits@D@std@@V?$allocator@D@2@@std@@W4DefuzzifyMethod@1@@Z$1
	DD	0ffffffffH
	DD	FLAT:__unwindfunclet$?DeFuzzify@FuzzyModule@@QAENABV?$basic_string@DU?$char_traits@D@std@@V?$allocator@D@2@@std@@W4DefuzzifyMethod@1@@Z$2
	DD	02H
	DD	FLAT:__unwindfunclet$?DeFuzzify@FuzzyModule@@QAENABV?$basic_string@DU?$char_traits@D@std@@V?$allocator@D@2@@std@@W4DefuzzifyMethod@1@@Z$3
__ehfuncinfo$?DeFuzzify@FuzzyModule@@QAENABV?$basic_string@DU?$char_traits@D@std@@V?$allocator@D@2@@std@@W4DefuzzifyMethod@1@@Z DD 019930522H
	DD	04H
	DD	FLAT:__unwindtable$?DeFuzzify@FuzzyModule@@QAENABV?$basic_string@DU?$char_traits@D@std@@V?$allocator@D@2@@std@@W4DefuzzifyMethod@1@@Z
	DD	2 DUP(00H)
	DD	2 DUP(00H)
	DD	00H
	DD	01H
; Function compile flags: /Odtp /RTCsu
xdata$x	ENDS
;	COMDAT ?DeFuzzify@FuzzyModule@@QAENABV?$basic_string@DU?$char_traits@D@std@@V?$allocator@D@2@@std@@W4DefuzzifyMethod@1@@Z
_TEXT	SEGMENT
tv162 = -132						; size = 4
tv192 = -128						; size = 4
tv136 = -124						; size = 4
tv185 = -120						; size = 4
tv198 = -116						; size = 4
tv180 = -112						; size = 4
tv196 = -108						; size = 4
$T151520 = -104						; size = 4
$T151519 = -100						; size = 8
$T151518 = -92						; size = 8
$T151517 = -84						; size = 8
$T151516 = -76						; size = 12
$T151515 = -61						; size = 1
$T151512 = -60						; size = 12
$T151511 = -48						; size = 12
_curRule$ = -32						; size = 12
_this$ = -16						; size = 4
__$EHRec$ = -12						; size = 12
_NameOfFLV$ = 8						; size = 4
_method$ = 12						; size = 4
?DeFuzzify@FuzzyModule@@QAENABV?$basic_string@DU?$char_traits@D@std@@V?$allocator@D@2@@std@@W4DefuzzifyMethod@1@@Z PROC ; FuzzyModule::DeFuzzify, COMDAT
; _this$ = ecx

; 104  : {

	push	ebp
	mov	ebp, esp
	push	-1
	push	__ehhandler$?DeFuzzify@FuzzyModule@@QAENABV?$basic_string@DU?$char_traits@D@std@@V?$allocator@D@2@@std@@W4DefuzzifyMethod@1@@Z
	mov	eax, DWORD PTR fs:0
	push	eax
	sub	esp, 120				; 00000078H
	push	edi
	push	ecx
	lea	edi, DWORD PTR [ebp-132]
	mov	ecx, 30					; 0000001eH
	mov	eax, -858993460				; ccccccccH
	rep stosd
	pop	ecx
	mov	eax, DWORD PTR ___security_cookie
	xor	eax, ebp
	push	eax
	lea	eax, DWORD PTR __$EHRec$[ebp]
	mov	DWORD PTR fs:0, eax
	mov	DWORD PTR _this$[ebp], ecx
	mov	DWORD PTR $T151520[ebp], 0

; 105  :   //first make sure the key exists
; 106  :   assert ( (m_Variables.find(NameOfFLV) != m_Variables.end()) &&
; 107  :           "<FuzzyModule::DeFuzzifyMaxAv>:key not found");

	lea	eax, DWORD PTR $T151512[ebp]
	push	eax
	mov	ecx, DWORD PTR _this$[ebp]
	call	?end@?$_Tree@V?$_Tmap_traits@V?$basic_string@DU?$char_traits@D@std@@V?$allocator@D@2@@std@@PAVFuzzyVariable@@U?$less@V?$basic_string@DU?$char_traits@D@std@@V?$allocator@D@2@@std@@@2@V?$allocator@U?$pair@$$CBV?$basic_string@DU?$char_traits@D@std@@V?$allocator@D@2@@std@@PAVFuzzyVariable@@@std@@@2@$0A@@std@@@std@@QAE?AV?$_Tree_iterator@V?$_Tree_val@V?$_Tmap_traits@V?$basic_string@DU?$char_traits@D@std@@V?$allocator@D@2@@std@@PAVFuzzyVariable@@U?$less@V?$basic_string@DU?$char_traits@D@std@@V?$allocator@D@2@@std@@@2@V?$allocator@U?$pair@$$CBV?$basic_string@DU?$char_traits@D@std@@V?$allocator@D@2@@std@@PAVFuzzyVariable@@@std@@@2@$0A@@std@@@std@@@2@XZ ; std::_Tree<std::_Tmap_traits<std::basic_string<char,std::char_traits<char>,std::allocator<char> >,FuzzyVariable *,std::less<std::basic_string<char,std::char_traits<char>,std::allocator<char> > >,std::allocator<std::pair<std::basic_string<char,std::char_traits<char>,std::allocator<char> > const ,FuzzyVariable *> >,0> >::end
	mov	DWORD PTR tv196[ebp], eax
	mov	ecx, DWORD PTR tv196[ebp]
	mov	DWORD PTR tv180[ebp], ecx
	mov	DWORD PTR __$EHRec$[ebp+8], 0
	mov	edx, DWORD PTR $T151520[ebp]
	or	edx, 1
	mov	DWORD PTR $T151520[ebp], edx
	mov	eax, DWORD PTR tv180[ebp]
	push	eax
	mov	ecx, DWORD PTR _NameOfFLV$[ebp]
	push	ecx
	lea	edx, DWORD PTR $T151511[ebp]
	push	edx
	mov	ecx, DWORD PTR _this$[ebp]
	call	?find@?$_Tree@V?$_Tmap_traits@V?$basic_string@DU?$char_traits@D@std@@V?$allocator@D@2@@std@@PAVFuzzyVariable@@U?$less@V?$basic_string@DU?$char_traits@D@std@@V?$allocator@D@2@@std@@@2@V?$allocator@U?$pair@$$CBV?$basic_string@DU?$char_traits@D@std@@V?$allocator@D@2@@std@@PAVFuzzyVariable@@@std@@@2@$0A@@std@@@std@@QAE?AV?$_Tree_iterator@V?$_Tree_val@V?$_Tmap_traits@V?$basic_string@DU?$char_traits@D@std@@V?$allocator@D@2@@std@@PAVFuzzyVariable@@U?$less@V?$basic_string@DU?$char_traits@D@std@@V?$allocator@D@2@@std@@@2@V?$allocator@U?$pair@$$CBV?$basic_string@DU?$char_traits@D@std@@V?$allocator@D@2@@std@@PAVFuzzyVariable@@@std@@@2@$0A@@std@@@std@@@2@ABV?$basic_string@DU?$char_traits@D@std@@V?$allocator@D@2@@2@@Z ; std::_Tree<std::_Tmap_traits<std::basic_string<char,std::char_traits<char>,std::allocator<char> >,FuzzyVariable *,std::less<std::basic_string<char,std::char_traits<char>,std::allocator<char> > >,std::allocator<std::pair<std::basic_string<char,std::char_traits<char>,std::allocator<char> > const ,FuzzyVariable *> >,0> >::find
	mov	DWORD PTR tv198[ebp], eax
	mov	eax, DWORD PTR tv198[ebp]
	mov	DWORD PTR tv185[ebp], eax
	mov	DWORD PTR __$EHRec$[ebp+8], 1
	mov	ecx, DWORD PTR $T151520[ebp]
	or	ecx, 2
	mov	DWORD PTR $T151520[ebp], ecx
	mov	ecx, DWORD PTR tv185[ebp]
	call	??9?$_Tree_const_iterator@V?$_Tree_val@V?$_Tmap_traits@V?$basic_string@DU?$char_traits@D@std@@V?$allocator@D@2@@std@@PAVFuzzyVariable@@U?$less@V?$basic_string@DU?$char_traits@D@std@@V?$allocator@D@2@@std@@@2@V?$allocator@U?$pair@$$CBV?$basic_string@DU?$char_traits@D@std@@V?$allocator@D@2@@std@@PAVFuzzyVariable@@@std@@@2@$0A@@std@@@std@@@std@@QBE_NABV01@@Z ; std::_Tree_const_iterator<std::_Tree_val<std::_Tmap_traits<std::basic_string<char,std::char_traits<char>,std::allocator<char> >,FuzzyVariable *,std::less<std::basic_string<char,std::char_traits<char>,std::allocator<char> > >,std::allocator<std::pair<std::basic_string<char,std::char_traits<char>,std::allocator<char> > const ,FuzzyVariable *> >,0> > >::operator!=
	movzx	edx, al
	test	edx, edx
	je	SHORT $LN10@DeFuzzify
	mov	eax, OFFSET ??_C@_0CM@PLCMEIPN@?$DMFuzzyModule?3?3DeFuzzifyMaxAv?$DO?3ke@
	test	eax, eax
	jne	SHORT $LN11@DeFuzzify
$LN10@DeFuzzify:
	push	107					; 0000006bH
	push	OFFSET ??_C@_1KO@ENJNFMBP@?$AAC?$AA?3?$AA?2?$AAU?$AAs?$AAe?$AAr?$AAs?$AA?2?$AAT?$AAe?$AAa?$AAj?$AAa?$AA?2?$AAD?$AAo?$AAc?$AAu?$AAm?$AAe?$AAn?$AAt?$AAs?$AA?2?$AAA?$AAr?$AAt?$AAi?$AAf?$AAi?$AAc@
	push	OFFSET ??_C@_1MI@IHELBIJN@?$AA?$CI?$AAm?$AA_?$AAV?$AAa?$AAr?$AAi?$AAa?$AAb?$AAl?$AAe?$AAs?$AA?4?$AAf?$AAi?$AAn?$AAd?$AA?$CI?$AAN?$AAa?$AAm?$AAe?$AAO?$AAf?$AAF?$AAL?$AAV?$AA?$CJ?$AA?5?$AA?$CB?$AA?$DN?$AA?5@
	call	__wassert
	add	esp, 12					; 0000000cH
$LN11@DeFuzzify:
	mov	DWORD PTR __$EHRec$[ebp+8], 0
	mov	edx, DWORD PTR $T151520[ebp]
	and	edx, 2
	je	SHORT $LN16@DeFuzzify
	and	DWORD PTR $T151520[ebp], -3		; fffffffdH
	lea	ecx, DWORD PTR $T151511[ebp]
	call	??1?$_Tree_iterator@V?$_Tree_val@V?$_Tmap_traits@V?$basic_string@DU?$char_traits@D@std@@V?$allocator@D@2@@std@@PAVFuzzyVariable@@U?$less@V?$basic_string@DU?$char_traits@D@std@@V?$allocator@D@2@@std@@@2@V?$allocator@U?$pair@$$CBV?$basic_string@DU?$char_traits@D@std@@V?$allocator@D@2@@std@@PAVFuzzyVariable@@@std@@@2@$0A@@std@@@std@@@std@@QAE@XZ
$LN16@DeFuzzify:
	mov	DWORD PTR __$EHRec$[ebp+8], -1
	mov	eax, DWORD PTR $T151520[ebp]
	and	eax, 1
	je	SHORT $LN17@DeFuzzify
	and	DWORD PTR $T151520[ebp], -2		; fffffffeH
	lea	ecx, DWORD PTR $T151512[ebp]
	call	??1?$_Tree_iterator@V?$_Tree_val@V?$_Tmap_traits@V?$basic_string@DU?$char_traits@D@std@@V?$allocator@D@2@@std@@PAVFuzzyVariable@@U?$less@V?$basic_string@DU?$char_traits@D@std@@V?$allocator@D@2@@std@@@2@V?$allocator@U?$pair@$$CBV?$basic_string@DU?$char_traits@D@std@@V?$allocator@D@2@@std@@PAVFuzzyVariable@@@std@@@2@$0A@@std@@@std@@@std@@QAE@XZ
$LN17@DeFuzzify:

; 108  : 
; 109  :   //clear the DOMs of all the consequents of all the rules
; 110  :   SetConfidencesOfConsequentsToZero();

	mov	ecx, DWORD PTR _this$[ebp]
	call	?SetConfidencesOfConsequentsToZero@FuzzyModule@@AAEXXZ ; FuzzyModule::SetConfidencesOfConsequentsToZero

; 111  : 
; 112  :   //process the rules
; 113  :   std::vector<FuzzyRule*>::iterator curRule = m_Rules.begin();

	lea	ecx, DWORD PTR _curRule$[ebp]
	push	ecx
	mov	ecx, DWORD PTR _this$[ebp]
	add	ecx, 20					; 00000014H
	call	?begin@?$vector@PAVFuzzyRule@@V?$allocator@PAVFuzzyRule@@@std@@@std@@QAE?AV?$_Vector_iterator@V?$_Vector_val@PAVFuzzyRule@@V?$allocator@PAVFuzzyRule@@@std@@@std@@@2@XZ ; std::vector<FuzzyRule *,std::allocator<FuzzyRule *> >::begin
	mov	DWORD PTR __$EHRec$[ebp+8], 2
	jmp	SHORT $LN7@DeFuzzify
$LN6@DeFuzzify:

; 114  :   for (curRule; curRule != m_Rules.end(); ++curRule)

	lea	ecx, DWORD PTR _curRule$[ebp]
	call	??E?$_Vector_iterator@V?$_Vector_val@PAVFuzzyRule@@V?$allocator@PAVFuzzyRule@@@std@@@std@@@std@@QAEAAV01@XZ ; std::_Vector_iterator<std::_Vector_val<FuzzyRule *,std::allocator<FuzzyRule *> > >::operator++
$LN7@DeFuzzify:
	lea	edx, DWORD PTR $T151516[ebp]
	push	edx
	mov	ecx, DWORD PTR _this$[ebp]
	add	ecx, 20					; 00000014H
	call	?end@?$vector@PAVFuzzyRule@@V?$allocator@PAVFuzzyRule@@@std@@@std@@QAE?AV?$_Vector_iterator@V?$_Vector_val@PAVFuzzyRule@@V?$allocator@PAVFuzzyRule@@@std@@@std@@@2@XZ ; std::vector<FuzzyRule *,std::allocator<FuzzyRule *> >::end
	mov	DWORD PTR tv136[ebp], eax
	mov	eax, DWORD PTR tv136[ebp]
	mov	DWORD PTR tv192[ebp], eax
	mov	BYTE PTR __$EHRec$[ebp+8], 3
	mov	ecx, DWORD PTR tv192[ebp]
	push	ecx
	lea	ecx, DWORD PTR _curRule$[ebp]
	call	??9?$_Vector_const_iterator@V?$_Vector_val@PAVFuzzyRule@@V?$allocator@PAVFuzzyRule@@@std@@@std@@@std@@QBE_NABV01@@Z ; std::_Vector_const_iterator<std::_Vector_val<FuzzyRule *,std::allocator<FuzzyRule *> > >::operator!=
	mov	BYTE PTR $T151515[ebp], al
	mov	BYTE PTR __$EHRec$[ebp+8], 2
	lea	ecx, DWORD PTR $T151516[ebp]
	call	??1?$_Vector_iterator@V?$_Vector_val@PAVFuzzyRule@@V?$allocator@PAVFuzzyRule@@@std@@@std@@@std@@QAE@XZ
	movzx	edx, BYTE PTR $T151515[ebp]
	test	edx, edx
	je	SHORT $LN5@DeFuzzify

; 115  :   {
; 116  :     (*curRule)->Calculate();

	lea	ecx, DWORD PTR _curRule$[ebp]
	call	??D?$_Vector_iterator@V?$_Vector_val@PAVFuzzyRule@@V?$allocator@PAVFuzzyRule@@@std@@@std@@@std@@QBEAAPAVFuzzyRule@@XZ ; std::_Vector_iterator<std::_Vector_val<FuzzyRule *,std::allocator<FuzzyRule *> > >::operator*
	mov	ecx, DWORD PTR [eax]
	call	?Calculate@FuzzyRule@@QAEXXZ		; FuzzyRule::Calculate

; 117  :   }

	jmp	SHORT $LN6@DeFuzzify
$LN5@DeFuzzify:

; 118  : 
; 119  :   //now defuzzify the resultant conclusion using the specified method
; 120  :   switch (method)

	mov	eax, DWORD PTR _method$[ebp]
	mov	DWORD PTR tv162[ebp], eax
	cmp	DWORD PTR tv162[ebp], 0
	je	SHORT $LN1@DeFuzzify
	cmp	DWORD PTR tv162[ebp], 1
	je	SHORT $LN2@DeFuzzify
	jmp	SHORT $LN3@DeFuzzify
$LN2@DeFuzzify:

; 121  :   {
; 122  :   case centroid:
; 123  : 
; 124  :     return m_Variables[NameOfFLV]->DeFuzzifyCentroid(NumSamples);

	push	15					; 0000000fH
	mov	ecx, DWORD PTR _NameOfFLV$[ebp]
	push	ecx
	mov	ecx, DWORD PTR _this$[ebp]
	call	??A?$map@V?$basic_string@DU?$char_traits@D@std@@V?$allocator@D@2@@std@@PAVFuzzyVariable@@U?$less@V?$basic_string@DU?$char_traits@D@std@@V?$allocator@D@2@@std@@@2@V?$allocator@U?$pair@$$CBV?$basic_string@DU?$char_traits@D@std@@V?$allocator@D@2@@std@@PAVFuzzyVariable@@@std@@@2@@std@@QAEAAPAVFuzzyVariable@@ABV?$basic_string@DU?$char_traits@D@std@@V?$allocator@D@2@@1@@Z ; std::map<std::basic_string<char,std::char_traits<char>,std::allocator<char> >,FuzzyVariable *,std::less<std::basic_string<char,std::char_traits<char>,std::allocator<char> > >,std::allocator<std::pair<std::basic_string<char,std::char_traits<char>,std::allocator<char> > const ,FuzzyVariable *> > >::operator[]
	mov	ecx, DWORD PTR [eax]
	call	?DeFuzzifyCentroid@FuzzyVariable@@QBENH@Z ; FuzzyVariable::DeFuzzifyCentroid
	fstp	QWORD PTR $T151517[ebp]
	mov	DWORD PTR __$EHRec$[ebp+8], -1
	lea	ecx, DWORD PTR _curRule$[ebp]
	call	??1?$_Vector_iterator@V?$_Vector_val@PAVFuzzyRule@@V?$allocator@PAVFuzzyRule@@@std@@@std@@@std@@QAE@XZ
	fld	QWORD PTR $T151517[ebp]
	jmp	SHORT $LN8@DeFuzzify

; 125  : 
; 126  :     break;

	jmp	SHORT $LN3@DeFuzzify
$LN1@DeFuzzify:

; 127  : 
; 128  :   case max_av:
; 129  : 
; 130  :     return m_Variables[NameOfFLV]->DeFuzzifyMaxAv();

	mov	edx, DWORD PTR _NameOfFLV$[ebp]
	push	edx
	mov	ecx, DWORD PTR _this$[ebp]
	call	??A?$map@V?$basic_string@DU?$char_traits@D@std@@V?$allocator@D@2@@std@@PAVFuzzyVariable@@U?$less@V?$basic_string@DU?$char_traits@D@std@@V?$allocator@D@2@@std@@@2@V?$allocator@U?$pair@$$CBV?$basic_string@DU?$char_traits@D@std@@V?$allocator@D@2@@std@@PAVFuzzyVariable@@@std@@@2@@std@@QAEAAPAVFuzzyVariable@@ABV?$basic_string@DU?$char_traits@D@std@@V?$allocator@D@2@@1@@Z ; std::map<std::basic_string<char,std::char_traits<char>,std::allocator<char> >,FuzzyVariable *,std::less<std::basic_string<char,std::char_traits<char>,std::allocator<char> > >,std::allocator<std::pair<std::basic_string<char,std::char_traits<char>,std::allocator<char> > const ,FuzzyVariable *> > >::operator[]
	mov	ecx, DWORD PTR [eax]
	call	?DeFuzzifyMaxAv@FuzzyVariable@@QBENXZ	; FuzzyVariable::DeFuzzifyMaxAv
	fstp	QWORD PTR $T151518[ebp]
	mov	DWORD PTR __$EHRec$[ebp+8], -1
	lea	ecx, DWORD PTR _curRule$[ebp]
	call	??1?$_Vector_iterator@V?$_Vector_val@PAVFuzzyRule@@V?$allocator@PAVFuzzyRule@@@std@@@std@@@std@@QAE@XZ
	fld	QWORD PTR $T151518[ebp]
	jmp	SHORT $LN8@DeFuzzify
$LN3@DeFuzzify:

; 131  : 
; 132  :     break;
; 133  :   }
; 134  : 
; 135  :   return 0;

	fldz
	fstp	QWORD PTR $T151519[ebp]
	mov	DWORD PTR __$EHRec$[ebp+8], -1
	lea	ecx, DWORD PTR _curRule$[ebp]
	call	??1?$_Vector_iterator@V?$_Vector_val@PAVFuzzyRule@@V?$allocator@PAVFuzzyRule@@@std@@@std@@@std@@QAE@XZ
	fld	QWORD PTR $T151519[ebp]
$LN8@DeFuzzify:

; 136  : }

	push	edx
	mov	ecx, ebp
	push	eax
	lea	edx, DWORD PTR $LN23@DeFuzzify
	call	@_RTC_CheckStackVars@8
	pop	eax
	pop	edx
	mov	ecx, DWORD PTR __$EHRec$[ebp]
	mov	DWORD PTR fs:0, ecx
	pop	ecx
	pop	edi
	add	esp, 132				; 00000084H
	cmp	ebp, esp
	call	__RTC_CheckEsp
	mov	esp, ebp
	pop	ebp
	ret	8
$LN23@DeFuzzify:
	DD	1
	DD	$LN22@DeFuzzify
$LN22@DeFuzzify:
	DD	-32					; ffffffe0H
	DD	12					; 0000000cH
	DD	$LN20@DeFuzzify
$LN20@DeFuzzify:
	DB	99					; 00000063H
	DB	117					; 00000075H
	DB	114					; 00000072H
	DB	82					; 00000052H
	DB	117					; 00000075H
	DB	108					; 0000006cH
	DB	101					; 00000065H
	DB	0
_TEXT	ENDS
;	COMDAT text$x
text$x	SEGMENT
__unwindfunclet$?DeFuzzify@FuzzyModule@@QAENABV?$basic_string@DU?$char_traits@D@std@@V?$allocator@D@2@@std@@W4DefuzzifyMethod@1@@Z$0:
	mov	eax, DWORD PTR $T151520[ebp]
	and	eax, 1
	je	$LN13@DeFuzzify
	and	DWORD PTR $T151520[ebp], -2		; fffffffeH
	lea	ecx, DWORD PTR $T151512[ebp]
	jmp	??1?$_Tree_iterator@V?$_Tree_val@V?$_Tmap_traits@V?$basic_string@DU?$char_traits@D@std@@V?$allocator@D@2@@std@@PAVFuzzyVariable@@U?$less@V?$basic_string@DU?$char_traits@D@std@@V?$allocator@D@2@@std@@@2@V?$allocator@U?$pair@$$CBV?$basic_string@DU?$char_traits@D@std@@V?$allocator@D@2@@std@@PAVFuzzyVariable@@@std@@@2@$0A@@std@@@std@@@std@@QAE@XZ
$LN13@DeFuzzify:
	ret	0
__unwindfunclet$?DeFuzzify@FuzzyModule@@QAENABV?$basic_string@DU?$char_traits@D@std@@V?$allocator@D@2@@std@@W4DefuzzifyMethod@1@@Z$1:
	mov	eax, DWORD PTR $T151520[ebp]
	and	eax, 2
	je	$LN15@DeFuzzify
	and	DWORD PTR $T151520[ebp], -3		; fffffffdH
	lea	ecx, DWORD PTR $T151511[ebp]
	jmp	??1?$_Tree_iterator@V?$_Tree_val@V?$_Tmap_traits@V?$basic_string@DU?$char_traits@D@std@@V?$allocator@D@2@@std@@PAVFuzzyVariable@@U?$less@V?$basic_string@DU?$char_traits@D@std@@V?$allocator@D@2@@std@@@2@V?$allocator@U?$pair@$$CBV?$basic_string@DU?$char_traits@D@std@@V?$allocator@D@2@@std@@PAVFuzzyVariable@@@std@@@2@$0A@@std@@@std@@@std@@QAE@XZ
$LN15@DeFuzzify:
	ret	0
__unwindfunclet$?DeFuzzify@FuzzyModule@@QAENABV?$basic_string@DU?$char_traits@D@std@@V?$allocator@D@2@@std@@W4DefuzzifyMethod@1@@Z$2:
	lea	ecx, DWORD PTR _curRule$[ebp]
	jmp	??1?$_Vector_iterator@V?$_Vector_val@PAVFuzzyRule@@V?$allocator@PAVFuzzyRule@@@std@@@std@@@std@@QAE@XZ
__unwindfunclet$?DeFuzzify@FuzzyModule@@QAENABV?$basic_string@DU?$char_traits@D@std@@V?$allocator@D@2@@std@@W4DefuzzifyMethod@1@@Z$3:
	lea	ecx, DWORD PTR $T151516[ebp]
	jmp	??1?$_Vector_iterator@V?$_Vector_val@PAVFuzzyRule@@V?$allocator@PAVFuzzyRule@@@std@@@std@@@std@@QAE@XZ
__ehhandler$?DeFuzzify@FuzzyModule@@QAENABV?$basic_string@DU?$char_traits@D@std@@V?$allocator@D@2@@std@@W4DefuzzifyMethod@1@@Z:
	mov	edx, DWORD PTR [esp+8]
	lea	eax, DWORD PTR [edx+12]
	mov	ecx, DWORD PTR [edx-128]
	xor	ecx, eax
	call	@__security_check_cookie@4
	mov	eax, OFFSET __ehfuncinfo$?DeFuzzify@FuzzyModule@@QAENABV?$basic_string@DU?$char_traits@D@std@@V?$allocator@D@2@@std@@W4DefuzzifyMethod@1@@Z
	jmp	___CxxFrameHandler3
text$x	ENDS
?DeFuzzify@FuzzyModule@@QAENABV?$basic_string@DU?$char_traits@D@std@@V?$allocator@D@2@@std@@W4DefuzzifyMethod@1@@Z ENDP ; FuzzyModule::DeFuzzify
; Function compile flags: /Odtp /RTCsu
; File c:\users\teaja\documents\artificial-fun\labravenprojecttest\common\fuzzy\fuzzyrule.h
;	COMDAT ?Calculate@FuzzyRule@@QAEXXZ
_TEXT	SEGMENT
_this$ = -4						; size = 4
?Calculate@FuzzyRule@@QAEXXZ PROC			; FuzzyRule::Calculate, COMDAT
; _this$ = ecx

; 50   :   {

	push	ebp
	mov	ebp, esp
	push	ecx
	push	esi
	mov	DWORD PTR [ebp-4], -858993460		; ccccccccH
	mov	DWORD PTR _this$[ebp], ecx

; 51   :     m_pConsequence->ORwithDOM(m_pAntecedent->GetDOM());

	mov	eax, DWORD PTR _this$[ebp]
	mov	ecx, DWORD PTR [eax]
	mov	edx, DWORD PTR _this$[ebp]
	mov	eax, DWORD PTR [edx]
	mov	edx, DWORD PTR [ecx]
	mov	esi, esp
	mov	ecx, eax
	mov	eax, DWORD PTR [edx+8]
	call	eax
	cmp	esi, esp
	call	__RTC_CheckEsp
	mov	esi, esp
	sub	esp, 8
	fstp	QWORD PTR [esp]
	mov	ecx, DWORD PTR _this$[ebp]
	mov	edx, DWORD PTR [ecx+4]
	mov	eax, DWORD PTR _this$[ebp]
	mov	ecx, DWORD PTR [eax+4]
	mov	edx, DWORD PTR [edx]
	mov	eax, DWORD PTR [edx+16]
	call	eax
	cmp	esi, esp
	call	__RTC_CheckEsp

; 52   :   }

	pop	esi
	add	esp, 4
	cmp	ebp, esp
	call	__RTC_CheckEsp
	mov	esp, ebp
	pop	ebp
	ret	0
?Calculate@FuzzyRule@@QAEXXZ ENDP			; FuzzyRule::Calculate
_TEXT	ENDS
PUBLIC	??1?$_Vector_const_iterator@V?$_Vector_val@PAVFuzzyRule@@V?$allocator@PAVFuzzyRule@@@std@@@std@@@std@@QAE@XZ ; std::_Vector_const_iterator<std::_Vector_val<FuzzyRule *,std::allocator<FuzzyRule *> > >::~_Vector_const_iterator<std::_Vector_val<FuzzyRule *,std::allocator<FuzzyRule *> > >
; Function compile flags: /Odtp /RTCsu
;	COMDAT ??1?$_Vector_iterator@V?$_Vector_val@PAVFuzzyRule@@V?$allocator@PAVFuzzyRule@@@std@@@std@@@std@@QAE@XZ
_TEXT	SEGMENT
_this$ = -4						; size = 4
??1?$_Vector_iterator@V?$_Vector_val@PAVFuzzyRule@@V?$allocator@PAVFuzzyRule@@@std@@@std@@@std@@QAE@XZ PROC ; std::_Vector_iterator<std::_Vector_val<FuzzyRule *,std::allocator<FuzzyRule *> > >::~_Vector_iterator<std::_Vector_val<FuzzyRule *,std::allocator<FuzzyRule *> > >, COMDAT
; _this$ = ecx
	push	ebp
	mov	ebp, esp
	push	ecx
	mov	DWORD PTR [ebp-4], -858993460		; ccccccccH
	mov	DWORD PTR _this$[ebp], ecx
	mov	ecx, DWORD PTR _this$[ebp]
	call	??1?$_Vector_const_iterator@V?$_Vector_val@PAVFuzzyRule@@V?$allocator@PAVFuzzyRule@@@std@@@std@@@std@@QAE@XZ
	add	esp, 4
	cmp	ebp, esp
	call	__RTC_CheckEsp
	mov	esp, ebp
	pop	ebp
	ret	0
??1?$_Vector_iterator@V?$_Vector_val@PAVFuzzyRule@@V?$allocator@PAVFuzzyRule@@@std@@@std@@@std@@QAE@XZ ENDP ; std::_Vector_iterator<std::_Vector_val<FuzzyRule *,std::allocator<FuzzyRule *> > >::~_Vector_iterator<std::_Vector_val<FuzzyRule *,std::allocator<FuzzyRule *> > >
_TEXT	ENDS
PUBLIC	??1?$_Iterator012@Urandom_access_iterator_tag@std@@PAVFuzzyRule@@HPBQAV3@ABQAV3@U_Iterator_base12@2@@std@@QAE@XZ ; std::_Iterator012<std::random_access_iterator_tag,FuzzyRule *,int,FuzzyRule * const *,FuzzyRule * const &,std::_Iterator_base12>::~_Iterator012<std::random_access_iterator_tag,FuzzyRule *,int,FuzzyRule * const *,FuzzyRule * const &,std::_Iterator_base12>
; Function compile flags: /Odtp /RTCsu
;	COMDAT ??1?$_Vector_const_iterator@V?$_Vector_val@PAVFuzzyRule@@V?$allocator@PAVFuzzyRule@@@std@@@std@@@std@@QAE@XZ
_TEXT	SEGMENT
_this$ = -4						; size = 4
??1?$_Vector_const_iterator@V?$_Vector_val@PAVFuzzyRule@@V?$allocator@PAVFuzzyRule@@@std@@@std@@@std@@QAE@XZ PROC ; std::_Vector_const_iterator<std::_Vector_val<FuzzyRule *,std::allocator<FuzzyRule *> > >::~_Vector_const_iterator<std::_Vector_val<FuzzyRule *,std::allocator<FuzzyRule *> > >, COMDAT
; _this$ = ecx
	push	ebp
	mov	ebp, esp
	push	ecx
	mov	DWORD PTR [ebp-4], -858993460		; ccccccccH
	mov	DWORD PTR _this$[ebp], ecx
	mov	ecx, DWORD PTR _this$[ebp]
	call	??1?$_Iterator012@Urandom_access_iterator_tag@std@@PAVFuzzyRule@@HPBQAV3@ABQAV3@U_Iterator_base12@2@@std@@QAE@XZ
	add	esp, 4
	cmp	ebp, esp
	call	__RTC_CheckEsp
	mov	esp, ebp
	pop	ebp
	ret	0
??1?$_Vector_const_iterator@V?$_Vector_val@PAVFuzzyRule@@V?$allocator@PAVFuzzyRule@@@std@@@std@@@std@@QAE@XZ ENDP ; std::_Vector_const_iterator<std::_Vector_val<FuzzyRule *,std::allocator<FuzzyRule *> > >::~_Vector_const_iterator<std::_Vector_val<FuzzyRule *,std::allocator<FuzzyRule *> > >
; Function compile flags: /Odtp /RTCsu
_TEXT	ENDS
;	COMDAT ??1?$_Iterator012@Urandom_access_iterator_tag@std@@PAVFuzzyRule@@HPBQAV3@ABQAV3@U_Iterator_base12@2@@std@@QAE@XZ
_TEXT	SEGMENT
_this$ = -4						; size = 4
??1?$_Iterator012@Urandom_access_iterator_tag@std@@PAVFuzzyRule@@HPBQAV3@ABQAV3@U_Iterator_base12@2@@std@@QAE@XZ PROC ; std::_Iterator012<std::random_access_iterator_tag,FuzzyRule *,int,FuzzyRule * const *,FuzzyRule * const &,std::_Iterator_base12>::~_Iterator012<std::random_access_iterator_tag,FuzzyRule *,int,FuzzyRule * const *,FuzzyRule * const &,std::_Iterator_base12>, COMDAT
; _this$ = ecx
	push	ebp
	mov	ebp, esp
	push	ecx
	mov	DWORD PTR [ebp-4], -858993460		; ccccccccH
	mov	DWORD PTR _this$[ebp], ecx
	mov	ecx, DWORD PTR _this$[ebp]
	call	??1_Iterator_base12@std@@QAE@XZ		; std::_Iterator_base12::~_Iterator_base12
	add	esp, 4
	cmp	ebp, esp
	call	__RTC_CheckEsp
	mov	esp, ebp
	pop	ebp
	ret	0
??1?$_Iterator012@Urandom_access_iterator_tag@std@@PAVFuzzyRule@@HPBQAV3@ABQAV3@U_Iterator_base12@2@@std@@QAE@XZ ENDP ; std::_Iterator012<std::random_access_iterator_tag,FuzzyRule *,int,FuzzyRule * const *,FuzzyRule * const &,std::_Iterator_base12>::~_Iterator012<std::random_access_iterator_tag,FuzzyRule *,int,FuzzyRule * const *,FuzzyRule * const &,std::_Iterator_base12>
_TEXT	ENDS
PUBLIC	?SetConfidenceOfConsequentToZero@FuzzyRule@@QAEXXZ ; FuzzyRule::SetConfidenceOfConsequentToZero
;	COMDAT xdata$x
; File c:\users\teaja\documents\artificial-fun\labravenprojecttest\common\fuzzy\fuzzymodule.h
xdata$x	SEGMENT
__unwindtable$?SetConfidencesOfConsequentsToZero@FuzzyModule@@AAEXXZ DD 0ffffffffH
	DD	FLAT:__unwindfunclet$?SetConfidencesOfConsequentsToZero@FuzzyModule@@AAEXXZ$0
	DD	00H
	DD	FLAT:__unwindfunclet$?SetConfidencesOfConsequentsToZero@FuzzyModule@@AAEXXZ$1
__ehfuncinfo$?SetConfidencesOfConsequentsToZero@FuzzyModule@@AAEXXZ DD 019930522H
	DD	02H
	DD	FLAT:__unwindtable$?SetConfidencesOfConsequentsToZero@FuzzyModule@@AAEXXZ
	DD	2 DUP(00H)
	DD	2 DUP(00H)
	DD	00H
	DD	01H
; Function compile flags: /Odtp /RTCsu
xdata$x	ENDS
;	COMDAT ?SetConfidencesOfConsequentsToZero@FuzzyModule@@AAEXXZ
_TEXT	SEGMENT
tv94 = -60						; size = 4
tv66 = -56						; size = 4
$T151552 = -52						; size = 12
$T151551 = -37						; size = 1
_curRule$ = -32						; size = 12
_this$ = -16						; size = 4
__$EHRec$ = -12						; size = 12
?SetConfidencesOfConsequentsToZero@FuzzyModule@@AAEXXZ PROC ; FuzzyModule::SetConfidencesOfConsequentsToZero, COMDAT
; _this$ = ecx

; 145  : {

	push	ebp
	mov	ebp, esp
	push	-1
	push	__ehhandler$?SetConfidencesOfConsequentsToZero@FuzzyModule@@AAEXXZ
	mov	eax, DWORD PTR fs:0
	push	eax
	sub	esp, 48					; 00000030H
	push	edi
	push	ecx
	lea	edi, DWORD PTR [ebp-60]
	mov	ecx, 12					; 0000000cH
	mov	eax, -858993460				; ccccccccH
	rep stosd
	pop	ecx
	mov	eax, DWORD PTR ___security_cookie
	xor	eax, ebp
	push	eax
	lea	eax, DWORD PTR __$EHRec$[ebp]
	mov	DWORD PTR fs:0, eax
	mov	DWORD PTR _this$[ebp], ecx

; 146  :   std::vector<FuzzyRule*>::iterator curRule = m_Rules.begin();

	lea	eax, DWORD PTR _curRule$[ebp]
	push	eax
	mov	ecx, DWORD PTR _this$[ebp]
	add	ecx, 20					; 00000014H
	call	?begin@?$vector@PAVFuzzyRule@@V?$allocator@PAVFuzzyRule@@@std@@@std@@QAE?AV?$_Vector_iterator@V?$_Vector_val@PAVFuzzyRule@@V?$allocator@PAVFuzzyRule@@@std@@@std@@@2@XZ ; std::vector<FuzzyRule *,std::allocator<FuzzyRule *> >::begin
	mov	DWORD PTR __$EHRec$[ebp+8], 0
	jmp	SHORT $LN3@SetConfide
$LN2@SetConfide:

; 147  :   for (curRule; curRule != m_Rules.end(); ++curRule)

	lea	ecx, DWORD PTR _curRule$[ebp]
	call	??E?$_Vector_iterator@V?$_Vector_val@PAVFuzzyRule@@V?$allocator@PAVFuzzyRule@@@std@@@std@@@std@@QAEAAV01@XZ ; std::_Vector_iterator<std::_Vector_val<FuzzyRule *,std::allocator<FuzzyRule *> > >::operator++
$LN3@SetConfide:
	lea	ecx, DWORD PTR $T151552[ebp]
	push	ecx
	mov	ecx, DWORD PTR _this$[ebp]
	add	ecx, 20					; 00000014H
	call	?end@?$vector@PAVFuzzyRule@@V?$allocator@PAVFuzzyRule@@@std@@@std@@QAE?AV?$_Vector_iterator@V?$_Vector_val@PAVFuzzyRule@@V?$allocator@PAVFuzzyRule@@@std@@@std@@@2@XZ ; std::vector<FuzzyRule *,std::allocator<FuzzyRule *> >::end
	mov	DWORD PTR tv66[ebp], eax
	mov	edx, DWORD PTR tv66[ebp]
	mov	DWORD PTR tv94[ebp], edx
	mov	BYTE PTR __$EHRec$[ebp+8], 1
	mov	eax, DWORD PTR tv94[ebp]
	push	eax
	lea	ecx, DWORD PTR _curRule$[ebp]
	call	??9?$_Vector_const_iterator@V?$_Vector_val@PAVFuzzyRule@@V?$allocator@PAVFuzzyRule@@@std@@@std@@@std@@QBE_NABV01@@Z ; std::_Vector_const_iterator<std::_Vector_val<FuzzyRule *,std::allocator<FuzzyRule *> > >::operator!=
	mov	BYTE PTR $T151551[ebp], al
	mov	BYTE PTR __$EHRec$[ebp+8], 0
	lea	ecx, DWORD PTR $T151552[ebp]
	call	??1?$_Vector_iterator@V?$_Vector_val@PAVFuzzyRule@@V?$allocator@PAVFuzzyRule@@@std@@@std@@@std@@QAE@XZ
	movzx	ecx, BYTE PTR $T151551[ebp]
	test	ecx, ecx
	je	SHORT $LN1@SetConfide

; 148  :   {
; 149  :     (*curRule)->SetConfidenceOfConsequentToZero();

	lea	ecx, DWORD PTR _curRule$[ebp]
	call	??D?$_Vector_iterator@V?$_Vector_val@PAVFuzzyRule@@V?$allocator@PAVFuzzyRule@@@std@@@std@@@std@@QBEAAPAVFuzzyRule@@XZ ; std::_Vector_iterator<std::_Vector_val<FuzzyRule *,std::allocator<FuzzyRule *> > >::operator*
	mov	ecx, DWORD PTR [eax]
	call	?SetConfidenceOfConsequentToZero@FuzzyRule@@QAEXXZ ; FuzzyRule::SetConfidenceOfConsequentToZero

; 150  :   }

	jmp	SHORT $LN2@SetConfide
$LN1@SetConfide:

; 151  : }

	mov	DWORD PTR __$EHRec$[ebp+8], -1
	lea	ecx, DWORD PTR _curRule$[ebp]
	call	??1?$_Vector_iterator@V?$_Vector_val@PAVFuzzyRule@@V?$allocator@PAVFuzzyRule@@@std@@@std@@@std@@QAE@XZ
	push	edx
	mov	ecx, ebp
	push	eax
	lea	edx, DWORD PTR $LN11@SetConfide
	call	@_RTC_CheckStackVars@8
	pop	eax
	pop	edx
	mov	ecx, DWORD PTR __$EHRec$[ebp]
	mov	DWORD PTR fs:0, ecx
	pop	ecx
	pop	edi
	add	esp, 60					; 0000003cH
	cmp	ebp, esp
	call	__RTC_CheckEsp
	mov	esp, ebp
	pop	ebp
	ret	0
$LN11@SetConfide:
	DD	1
	DD	$LN10@SetConfide
$LN10@SetConfide:
	DD	-32					; ffffffe0H
	DD	12					; 0000000cH
	DD	$LN8@SetConfide
$LN8@SetConfide:
	DB	99					; 00000063H
	DB	117					; 00000075H
	DB	114					; 00000072H
	DB	82					; 00000052H
	DB	117					; 00000075H
	DB	108					; 0000006cH
	DB	101					; 00000065H
	DB	0
_TEXT	ENDS
;	COMDAT text$x
text$x	SEGMENT
__unwindfunclet$?SetConfidencesOfConsequentsToZero@FuzzyModule@@AAEXXZ$0:
	lea	ecx, DWORD PTR _curRule$[ebp]
	jmp	??1?$_Vector_iterator@V?$_Vector_val@PAVFuzzyRule@@V?$allocator@PAVFuzzyRule@@@std@@@std@@@std@@QAE@XZ
__unwindfunclet$?SetConfidencesOfConsequentsToZero@FuzzyModule@@AAEXXZ$1:
	lea	ecx, DWORD PTR $T151552[ebp]
	jmp	??1?$_Vector_iterator@V?$_Vector_val@PAVFuzzyRule@@V?$allocator@PAVFuzzyRule@@@std@@@std@@@std@@QAE@XZ
__ehhandler$?SetConfidencesOfConsequentsToZero@FuzzyModule@@AAEXXZ:
	mov	edx, DWORD PTR [esp+8]
	lea	eax, DWORD PTR [edx+12]
	mov	ecx, DWORD PTR [edx-56]
	xor	ecx, eax
	call	@__security_check_cookie@4
	mov	eax, OFFSET __ehfuncinfo$?SetConfidencesOfConsequentsToZero@FuzzyModule@@AAEXXZ
	jmp	___CxxFrameHandler3
text$x	ENDS
?SetConfidencesOfConsequentsToZero@FuzzyModule@@AAEXXZ ENDP ; FuzzyModule::SetConfidencesOfConsequentsToZero
; Function compile flags: /Odtp /RTCsu
; File c:\users\teaja\documents\artificial-fun\labravenprojecttest\common\fuzzy\fuzzyrule.h
;	COMDAT ?SetConfidenceOfConsequentToZero@FuzzyRule@@QAEXXZ
_TEXT	SEGMENT
_this$ = -4						; size = 4
?SetConfidenceOfConsequentToZero@FuzzyRule@@QAEXXZ PROC	; FuzzyRule::SetConfidenceOfConsequentToZero, COMDAT
; _this$ = ecx

; 45   :   void SetConfidenceOfConsequentToZero(){m_pConsequence->ClearDOM();}

	push	ebp
	mov	ebp, esp
	push	ecx
	push	esi
	mov	DWORD PTR [ebp-4], -858993460		; ccccccccH
	mov	DWORD PTR _this$[ebp], ecx
	mov	eax, DWORD PTR _this$[ebp]
	mov	ecx, DWORD PTR [eax+4]
	mov	edx, DWORD PTR _this$[ebp]
	mov	eax, DWORD PTR [edx+4]
	mov	edx, DWORD PTR [ecx]
	mov	esi, esp
	mov	ecx, eax
	mov	eax, DWORD PTR [edx+12]
	call	eax
	cmp	esi, esp
	call	__RTC_CheckEsp
	pop	esi
	add	esp, 4
	cmp	ebp, esp
	call	__RTC_CheckEsp
	mov	esp, ebp
	pop	ebp
	ret	0
?SetConfidenceOfConsequentToZero@FuzzyRule@@QAEXXZ ENDP	; FuzzyRule::SetConfidenceOfConsequentToZero
_TEXT	ENDS
PUBLIC	??1FzSet@@UAE@XZ				; FzSet::~FzSet
PUBLIC	??1FzVery@@UAE@XZ				; FzVery::~FzVery
PUBLIC	??0FzVery@@QAE@AAVFzSet@@@Z			; FzVery::FzVery
PUBLIC	??1FzFairly@@UAE@XZ				; FzFairly::~FzFairly
PUBLIC	??0FzFairly@@QAE@AAVFzSet@@@Z			; FzFairly::FzFairly
PUBLIC	__real@402e000000000000
PUBLIC	__real@403e000000000000
PUBLIC	__real@4049000000000000
PUBLIC	__real@4052c00000000000
PUBLIC	__real@4059000000000000
PUBLIC	__real@408f400000000000
PUBLIC	__real@4072c00000000000
PUBLIC	__real@4039000000000000
PUBLIC	__real@4062c00000000000
PUBLIC	__$ArrayPad$
EXTRN	??1FzAND@@UAE@XZ:PROC				; FzAND::~FzAND
EXTRN	?AddRule@FuzzyModule@@QAEXAAVFuzzyTerm@@0@Z:PROC ; FuzzyModule::AddRule
EXTRN	??0FzAND@@QAE@AAVFuzzyTerm@@0@Z:PROC		; FzAND::FzAND
EXTRN	?AddRightShoulderSet@FuzzyVariable@@QAE?AVFzSet@@V?$basic_string@DU?$char_traits@D@std@@V?$allocator@D@2@@std@@NNN@Z:PROC ; FuzzyVariable::AddRightShoulderSet
EXTRN	?AddTriangularSet@FuzzyVariable@@QAE?AVFzSet@@V?$basic_string@DU?$char_traits@D@std@@V?$allocator@D@2@@std@@NNN@Z:PROC ; FuzzyVariable::AddTriangularSet
EXTRN	?AddLeftShoulderSet@FuzzyVariable@@QAE?AVFzSet@@V?$basic_string@DU?$char_traits@D@std@@V?$allocator@D@2@@std@@NNN@Z:PROC ; FuzzyVariable::AddLeftShoulderSet
EXTRN	?CreateFLV@FuzzyModule@@QAEAAVFuzzyVariable@@ABV?$basic_string@DU?$char_traits@D@std@@V?$allocator@D@2@@std@@@Z:PROC ; FuzzyModule::CreateFLV
;	COMDAT __real@402e000000000000
; File c:\users\teaja\documents\artificial-fun\labravenprojecttest\raven\armory\weapon_railgun.cpp
CONST	SEGMENT
__real@402e000000000000 DQ 0402e000000000000r	; 15
CONST	ENDS
;	COMDAT __real@403e000000000000
CONST	SEGMENT
__real@403e000000000000 DQ 0403e000000000000r	; 30
CONST	ENDS
;	COMDAT __real@4049000000000000
CONST	SEGMENT
__real@4049000000000000 DQ 04049000000000000r	; 50
CONST	ENDS
;	COMDAT __real@4052c00000000000
CONST	SEGMENT
__real@4052c00000000000 DQ 04052c00000000000r	; 75
CONST	ENDS
;	COMDAT __real@4059000000000000
CONST	SEGMENT
__real@4059000000000000 DQ 04059000000000000r	; 100
CONST	ENDS
;	COMDAT __real@408f400000000000
CONST	SEGMENT
__real@408f400000000000 DQ 0408f400000000000r	; 1000
CONST	ENDS
;	COMDAT __real@4072c00000000000
CONST	SEGMENT
__real@4072c00000000000 DQ 04072c00000000000r	; 300
CONST	ENDS
;	COMDAT __real@4039000000000000
CONST	SEGMENT
__real@4039000000000000 DQ 04039000000000000r	; 25
CONST	ENDS
;	COMDAT __real@4062c00000000000
CONST	SEGMENT
__real@4062c00000000000 DQ 04062c00000000000r	; 150
CONST	ENDS
xdata$x	SEGMENT
__ehfuncinfo$?InitializeFuzzyModule@RailGun@@EAEXXZ DD 019930522H
	DD	01aH
	DD	FLAT:__unwindtable$?InitializeFuzzyModule@RailGun@@EAEXXZ
	DD	2 DUP(00H)
	DD	2 DUP(00H)
	DD	00H
	DD	01H
__unwindtable$?InitializeFuzzyModule@RailGun@@EAEXXZ DD 0ffffffffH
	DD	FLAT:__unwindfunclet$?InitializeFuzzyModule@RailGun@@EAEXXZ$0
	DD	0ffffffffH
	DD	FLAT:__unwindfunclet$?InitializeFuzzyModule@RailGun@@EAEXXZ$2
	DD	01H
	DD	FLAT:__unwindfunclet$?InitializeFuzzyModule@RailGun@@EAEXXZ$4
	DD	02H
	DD	FLAT:__unwindfunclet$?InitializeFuzzyModule@RailGun@@EAEXXZ$6
	DD	03H
	DD	FLAT:__unwindfunclet$?InitializeFuzzyModule@RailGun@@EAEXXZ$7
	DD	03H
	DD	FLAT:__unwindfunclet$?InitializeFuzzyModule@RailGun@@EAEXXZ$9
	DD	05H
	DD	FLAT:__unwindfunclet$?InitializeFuzzyModule@RailGun@@EAEXXZ$11
	DD	06H
	DD	FLAT:__unwindfunclet$?InitializeFuzzyModule@RailGun@@EAEXXZ$13
	DD	07H
	DD	FLAT:__unwindfunclet$?InitializeFuzzyModule@RailGun@@EAEXXZ$14
	DD	07H
	DD	FLAT:__unwindfunclet$?InitializeFuzzyModule@RailGun@@EAEXXZ$16
	DD	09H
	DD	FLAT:__unwindfunclet$?InitializeFuzzyModule@RailGun@@EAEXXZ$18
	DD	0aH
	DD	FLAT:__unwindfunclet$?InitializeFuzzyModule@RailGun@@EAEXXZ$20
	DD	0bH
	DD	FLAT:__unwindfunclet$?InitializeFuzzyModule@RailGun@@EAEXXZ$21
	DD	0cH
	DD	FLAT:__unwindfunclet$?InitializeFuzzyModule@RailGun@@EAEXXZ$22
	DD	0bH
	DD	FLAT:__unwindfunclet$?InitializeFuzzyModule@RailGun@@EAEXXZ$23
	DD	0eH
	DD	FLAT:__unwindfunclet$?InitializeFuzzyModule@RailGun@@EAEXXZ$24
	DD	0bH
	DD	FLAT:__unwindfunclet$?InitializeFuzzyModule@RailGun@@EAEXXZ$25
	DD	0bH
	DD	FLAT:__unwindfunclet$?InitializeFuzzyModule@RailGun@@EAEXXZ$26
	DD	0bH
	DD	FLAT:__unwindfunclet$?InitializeFuzzyModule@RailGun@@EAEXXZ$27
	DD	0bH
	DD	FLAT:__unwindfunclet$?InitializeFuzzyModule@RailGun@@EAEXXZ$28
	DD	0bH
	DD	FLAT:__unwindfunclet$?InitializeFuzzyModule@RailGun@@EAEXXZ$29
	DD	014H
	DD	FLAT:__unwindfunclet$?InitializeFuzzyModule@RailGun@@EAEXXZ$30
	DD	0bH
	DD	FLAT:__unwindfunclet$?InitializeFuzzyModule@RailGun@@EAEXXZ$31
	DD	016H
	DD	FLAT:__unwindfunclet$?InitializeFuzzyModule@RailGun@@EAEXXZ$32
	DD	0bH
	DD	FLAT:__unwindfunclet$?InitializeFuzzyModule@RailGun@@EAEXXZ$33
	DD	018H
	DD	FLAT:__unwindfunclet$?InitializeFuzzyModule@RailGun@@EAEXXZ$34
; Function compile flags: /Odtp /RTCsu
xdata$x	ENDS
_TEXT	SEGMENT
tv732 = -784						; size = 4
tv743 = -780						; size = 4
tv730 = -776						; size = 4
tv742 = -772						; size = 4
tv728 = -768						; size = 4
tv741 = -764						; size = 4
tv726 = -760						; size = 4
tv740 = -756						; size = 4
tv724 = -752						; size = 4
tv739 = -748						; size = 4
tv722 = -744						; size = 4
tv738 = -740						; size = 4
tv720 = -736						; size = 4
tv737 = -732						; size = 4
tv718 = -728						; size = 4
tv736 = -724						; size = 4
tv716 = -720						; size = 4
tv735 = -716						; size = 4
tv714 = -712						; size = 4
tv734 = -708						; size = 4
tv712 = -704						; size = 4
tv733 = -700						; size = 4
tv710 = -696						; size = 4
tv72 = -692						; size = 4
tv708 = -688						; size = 4
tv179 = -684						; size = 4
tv706 = -680						; size = 4
tv254 = -676						; size = 4
tv301 = -672						; size = 4
tv703 = -668						; size = 4
tv280 = -664						; size = 4
tv697 = -660						; size = 4
tv259 = -656						; size = 4
tv691 = -652						; size = 4
tv226 = -648						; size = 4
tv684 = -644						; size = 4
tv205 = -640						; size = 4
tv678 = -636						; size = 4
tv184 = -632						; size = 4
tv672 = -628						; size = 4
tv151 = -624						; size = 4
tv665 = -620						; size = 4
tv130 = -616						; size = 4
tv659 = -612						; size = 4
tv77 = -608						; size = 4
tv653 = -604						; size = 4
$T151591 = -600						; size = 8
$T151590 = -592						; size = 24
$T151589 = -568						; size = 24
$T151588 = -544						; size = 8
$T151587 = -536						; size = 24
$T151586 = -512						; size = 8
$T151585 = -504						; size = 24
$T151584 = -480						; size = 24
$T151583 = -456						; size = 24
$T151582 = -432						; size = 24
$T151581 = -408						; size = 24
$T151580 = -384						; size = 8
$T151579 = -376						; size = 24
$T151578 = -352						; size = 8
$T151577 = -344						; size = 4
$T151576 = -340						; size = 4
$T151575 = -336						; size = 4
$T151574 = -332						; size = 4
$T151573 = -328						; size = 4
$T151572 = -324						; size = 4
$T151571 = -320						; size = 4
$T151570 = -316						; size = 4
$T151569 = -312						; size = 4
_$S9$ = -304						; size = 8
_Ammo_Low$ = -292					; size = 4
_$S8$ = -284						; size = 8
_Ammo_Okay$ = -272					; size = 4
_$S7$ = -264						; size = 8
_Ammo_Loads$ = -252					; size = 4
$T139701 = -248						; size = 32
_AmmoStatus$ = -216					; size = 4
_$S6$ = -208						; size = 8
_Undesirable$ = -196					; size = 4
_$S5$ = -188						; size = 8
_Desirable$ = -176					; size = 4
_$S4$ = -168						; size = 8
_VeryDesirable$ = -156					; size = 4
$T139683 = -152						; size = 32
_Desirability$ = -120					; size = 4
_$S3$ = -112						; size = 8
_Target_Far$ = -100					; size = 4
_$S2$ = -92						; size = 8
_Target_Medium$ = -80					; size = 4
_$S1$ = -72						; size = 8
_Target_Close$ = -60					; size = 4
$T139665 = -56						; size = 32
_DistanceToTarget$ = -24				; size = 4
_this$ = -20						; size = 4
__$ArrayPad$ = -16					; size = 4
__$EHRec$ = -12						; size = 12
?InitializeFuzzyModule@RailGun@@EAEXXZ PROC		; RailGun::InitializeFuzzyModule
; _this$ = ecx

; 88   : { 

	push	ebp
	mov	ebp, esp
	push	-1
	push	__ehhandler$?InitializeFuzzyModule@RailGun@@EAEXXZ
	mov	eax, DWORD PTR fs:0
	push	eax
	sub	esp, 772				; 00000304H
	push	edi
	push	ecx
	lea	edi, DWORD PTR [ebp-784]
	mov	ecx, 193				; 000000c1H
	mov	eax, -858993460				; ccccccccH
	rep stosd
	pop	ecx
	mov	eax, DWORD PTR ___security_cookie
	xor	eax, ebp
	mov	DWORD PTR __$ArrayPad$[ebp], eax
	push	eax
	lea	eax, DWORD PTR __$EHRec$[ebp]
	mov	DWORD PTR fs:0, eax
	mov	DWORD PTR _this$[ebp], ecx

; 89   : 
; 90   :   FuzzyVariable& DistanceToTarget = m_FuzzyModule.CreateFLV("DistanceToTarget");

	push	OFFSET $SG139666
	lea	ecx, DWORD PTR $T139665[ebp]
	call	??0?$basic_string@DU?$char_traits@D@std@@V?$allocator@D@2@@std@@QAE@PBD@Z ; std::basic_string<char,std::char_traits<char>,std::allocator<char> >::basic_string<char,std::char_traits<char>,std::allocator<char> >
	mov	DWORD PTR __$EHRec$[ebp+8], 0
	lea	eax, DWORD PTR $T139665[ebp]
	push	eax
	mov	ecx, DWORD PTR _this$[ebp]
	add	ecx, 16					; 00000010H
	call	?CreateFLV@FuzzyModule@@QAEAAVFuzzyVariable@@ABV?$basic_string@DU?$char_traits@D@std@@V?$allocator@D@2@@std@@@Z ; FuzzyModule::CreateFLV
	mov	DWORD PTR _DistanceToTarget$[ebp], eax
	mov	DWORD PTR __$EHRec$[ebp+8], -1
	lea	ecx, DWORD PTR $T139665[ebp]
	call	??1?$basic_string@DU?$char_traits@D@std@@V?$allocator@D@2@@std@@QAE@XZ ; std::basic_string<char,std::char_traits<char>,std::allocator<char> >::~basic_string<char,std::char_traits<char>,std::allocator<char> >

; 91   :   
; 92   :   FzSet& Target_Close = DistanceToTarget.AddLeftShoulderSet("Target_Close", 0, 25, 150);

	sub	esp, 8
	fld	QWORD PTR __real@4062c00000000000
	fstp	QWORD PTR [esp]
	sub	esp, 8
	fld	QWORD PTR __real@4039000000000000
	fstp	QWORD PTR [esp]
	sub	esp, 8
	fldz
	fstp	QWORD PTR [esp]
	sub	esp, 32					; 00000020H
	mov	ecx, esp
	mov	DWORD PTR $T151569[ebp], esp
	push	OFFSET $SG139671
	call	??0?$basic_string@DU?$char_traits@D@std@@V?$allocator@D@2@@std@@QAE@PBD@Z ; std::basic_string<char,std::char_traits<char>,std::allocator<char> >::basic_string<char,std::char_traits<char>,std::allocator<char> >
	mov	DWORD PTR tv653[ebp], eax
	lea	ecx, DWORD PTR _$S1$[ebp]
	push	ecx
	mov	ecx, DWORD PTR _DistanceToTarget$[ebp]
	call	?AddLeftShoulderSet@FuzzyVariable@@QAE?AVFzSet@@V?$basic_string@DU?$char_traits@D@std@@V?$allocator@D@2@@std@@NNN@Z ; FuzzyVariable::AddLeftShoulderSet
	mov	DWORD PTR tv77[ebp], eax
	mov	DWORD PTR __$EHRec$[ebp+8], 1
	lea	edx, DWORD PTR _$S1$[ebp]
	mov	DWORD PTR _Target_Close$[ebp], edx

; 93   :   FzSet& Target_Medium = DistanceToTarget.AddTriangularSet("Target_Medium", 25, 150, 300);

	sub	esp, 8
	fld	QWORD PTR __real@4072c00000000000
	fstp	QWORD PTR [esp]
	sub	esp, 8
	fld	QWORD PTR __real@4062c00000000000
	fstp	QWORD PTR [esp]
	sub	esp, 8
	fld	QWORD PTR __real@4039000000000000
	fstp	QWORD PTR [esp]
	sub	esp, 32					; 00000020H
	mov	ecx, esp
	mov	DWORD PTR $T151570[ebp], esp
	push	OFFSET $SG139676
	call	??0?$basic_string@DU?$char_traits@D@std@@V?$allocator@D@2@@std@@QAE@PBD@Z ; std::basic_string<char,std::char_traits<char>,std::allocator<char> >::basic_string<char,std::char_traits<char>,std::allocator<char> >
	mov	DWORD PTR tv659[ebp], eax
	lea	eax, DWORD PTR _$S2$[ebp]
	push	eax
	mov	ecx, DWORD PTR _DistanceToTarget$[ebp]
	call	?AddTriangularSet@FuzzyVariable@@QAE?AVFzSet@@V?$basic_string@DU?$char_traits@D@std@@V?$allocator@D@2@@std@@NNN@Z ; FuzzyVariable::AddTriangularSet
	mov	DWORD PTR tv130[ebp], eax
	mov	BYTE PTR __$EHRec$[ebp+8], 2
	lea	ecx, DWORD PTR _$S2$[ebp]
	mov	DWORD PTR _Target_Medium$[ebp], ecx

; 94   :   FzSet& Target_Far = DistanceToTarget.AddRightShoulderSet("Target_Far", 150, 300, 1000);

	sub	esp, 8
	fld	QWORD PTR __real@408f400000000000
	fstp	QWORD PTR [esp]
	sub	esp, 8
	fld	QWORD PTR __real@4072c00000000000
	fstp	QWORD PTR [esp]
	sub	esp, 8
	fld	QWORD PTR __real@4062c00000000000
	fstp	QWORD PTR [esp]
	sub	esp, 32					; 00000020H
	mov	ecx, esp
	mov	DWORD PTR $T151571[ebp], esp
	push	OFFSET $SG139681
	call	??0?$basic_string@DU?$char_traits@D@std@@V?$allocator@D@2@@std@@QAE@PBD@Z ; std::basic_string<char,std::char_traits<char>,std::allocator<char> >::basic_string<char,std::char_traits<char>,std::allocator<char> >
	mov	DWORD PTR tv665[ebp], eax
	lea	edx, DWORD PTR _$S3$[ebp]
	push	edx
	mov	ecx, DWORD PTR _DistanceToTarget$[ebp]
	call	?AddRightShoulderSet@FuzzyVariable@@QAE?AVFzSet@@V?$basic_string@DU?$char_traits@D@std@@V?$allocator@D@2@@std@@NNN@Z ; FuzzyVariable::AddRightShoulderSet
	mov	DWORD PTR tv151[ebp], eax
	mov	BYTE PTR __$EHRec$[ebp+8], 3
	lea	eax, DWORD PTR _$S3$[ebp]
	mov	DWORD PTR _Target_Far$[ebp], eax

; 95   : 
; 96   :   FuzzyVariable& Desirability = m_FuzzyModule.CreateFLV("Desirability");

	push	OFFSET $SG139684
	lea	ecx, DWORD PTR $T139683[ebp]
	call	??0?$basic_string@DU?$char_traits@D@std@@V?$allocator@D@2@@std@@QAE@PBD@Z ; std::basic_string<char,std::char_traits<char>,std::allocator<char> >::basic_string<char,std::char_traits<char>,std::allocator<char> >
	mov	BYTE PTR __$EHRec$[ebp+8], 4
	lea	ecx, DWORD PTR $T139683[ebp]
	push	ecx
	mov	ecx, DWORD PTR _this$[ebp]
	add	ecx, 16					; 00000010H
	call	?CreateFLV@FuzzyModule@@QAEAAVFuzzyVariable@@ABV?$basic_string@DU?$char_traits@D@std@@V?$allocator@D@2@@std@@@Z ; FuzzyModule::CreateFLV
	mov	DWORD PTR _Desirability$[ebp], eax
	mov	BYTE PTR __$EHRec$[ebp+8], 3
	lea	ecx, DWORD PTR $T139683[ebp]
	call	??1?$basic_string@DU?$char_traits@D@std@@V?$allocator@D@2@@std@@QAE@XZ ; std::basic_string<char,std::char_traits<char>,std::allocator<char> >::~basic_string<char,std::char_traits<char>,std::allocator<char> >

; 97   :   
; 98   :   FzSet& VeryDesirable = Desirability.AddRightShoulderSet("VeryDesirable", 50, 75, 100);

	sub	esp, 8
	fld	QWORD PTR __real@4059000000000000
	fstp	QWORD PTR [esp]
	sub	esp, 8
	fld	QWORD PTR __real@4052c00000000000
	fstp	QWORD PTR [esp]
	sub	esp, 8
	fld	QWORD PTR __real@4049000000000000
	fstp	QWORD PTR [esp]
	sub	esp, 32					; 00000020H
	mov	ecx, esp
	mov	DWORD PTR $T151572[ebp], esp
	push	OFFSET $SG139689
	call	??0?$basic_string@DU?$char_traits@D@std@@V?$allocator@D@2@@std@@QAE@PBD@Z ; std::basic_string<char,std::char_traits<char>,std::allocator<char> >::basic_string<char,std::char_traits<char>,std::allocator<char> >
	mov	DWORD PTR tv672[ebp], eax
	lea	edx, DWORD PTR _$S4$[ebp]
	push	edx
	mov	ecx, DWORD PTR _Desirability$[ebp]
	call	?AddRightShoulderSet@FuzzyVariable@@QAE?AVFzSet@@V?$basic_string@DU?$char_traits@D@std@@V?$allocator@D@2@@std@@NNN@Z ; FuzzyVariable::AddRightShoulderSet
	mov	DWORD PTR tv184[ebp], eax
	mov	BYTE PTR __$EHRec$[ebp+8], 5
	lea	eax, DWORD PTR _$S4$[ebp]
	mov	DWORD PTR _VeryDesirable$[ebp], eax

; 99   :   FzSet& Desirable = Desirability.AddTriangularSet("Desirable", 25, 50, 75);

	sub	esp, 8
	fld	QWORD PTR __real@4052c00000000000
	fstp	QWORD PTR [esp]
	sub	esp, 8
	fld	QWORD PTR __real@4049000000000000
	fstp	QWORD PTR [esp]
	sub	esp, 8
	fld	QWORD PTR __real@4039000000000000
	fstp	QWORD PTR [esp]
	sub	esp, 32					; 00000020H
	mov	ecx, esp
	mov	DWORD PTR $T151573[ebp], esp
	push	OFFSET $SG139694
	call	??0?$basic_string@DU?$char_traits@D@std@@V?$allocator@D@2@@std@@QAE@PBD@Z ; std::basic_string<char,std::char_traits<char>,std::allocator<char> >::basic_string<char,std::char_traits<char>,std::allocator<char> >
	mov	DWORD PTR tv678[ebp], eax
	lea	ecx, DWORD PTR _$S5$[ebp]
	push	ecx
	mov	ecx, DWORD PTR _Desirability$[ebp]
	call	?AddTriangularSet@FuzzyVariable@@QAE?AVFzSet@@V?$basic_string@DU?$char_traits@D@std@@V?$allocator@D@2@@std@@NNN@Z ; FuzzyVariable::AddTriangularSet
	mov	DWORD PTR tv205[ebp], eax
	mov	BYTE PTR __$EHRec$[ebp+8], 6
	lea	edx, DWORD PTR _$S5$[ebp]
	mov	DWORD PTR _Desirable$[ebp], edx

; 100  :   FzSet& Undesirable = Desirability.AddLeftShoulderSet("Undesirable", 0, 25, 50);

	sub	esp, 8
	fld	QWORD PTR __real@4049000000000000
	fstp	QWORD PTR [esp]
	sub	esp, 8
	fld	QWORD PTR __real@4039000000000000
	fstp	QWORD PTR [esp]
	sub	esp, 8
	fldz
	fstp	QWORD PTR [esp]
	sub	esp, 32					; 00000020H
	mov	ecx, esp
	mov	DWORD PTR $T151574[ebp], esp
	push	OFFSET $SG139699
	call	??0?$basic_string@DU?$char_traits@D@std@@V?$allocator@D@2@@std@@QAE@PBD@Z ; std::basic_string<char,std::char_traits<char>,std::allocator<char> >::basic_string<char,std::char_traits<char>,std::allocator<char> >
	mov	DWORD PTR tv684[ebp], eax
	lea	eax, DWORD PTR _$S6$[ebp]
	push	eax
	mov	ecx, DWORD PTR _Desirability$[ebp]
	call	?AddLeftShoulderSet@FuzzyVariable@@QAE?AVFzSet@@V?$basic_string@DU?$char_traits@D@std@@V?$allocator@D@2@@std@@NNN@Z ; FuzzyVariable::AddLeftShoulderSet
	mov	DWORD PTR tv226[ebp], eax
	mov	BYTE PTR __$EHRec$[ebp+8], 7
	lea	ecx, DWORD PTR _$S6$[ebp]
	mov	DWORD PTR _Undesirable$[ebp], ecx

; 101  : 
; 102  :   FuzzyVariable& AmmoStatus = m_FuzzyModule.CreateFLV("AmmoStatus");

	push	OFFSET $SG139702
	lea	ecx, DWORD PTR $T139701[ebp]
	call	??0?$basic_string@DU?$char_traits@D@std@@V?$allocator@D@2@@std@@QAE@PBD@Z ; std::basic_string<char,std::char_traits<char>,std::allocator<char> >::basic_string<char,std::char_traits<char>,std::allocator<char> >
	mov	BYTE PTR __$EHRec$[ebp+8], 8
	lea	edx, DWORD PTR $T139701[ebp]
	push	edx
	mov	ecx, DWORD PTR _this$[ebp]
	add	ecx, 16					; 00000010H
	call	?CreateFLV@FuzzyModule@@QAEAAVFuzzyVariable@@ABV?$basic_string@DU?$char_traits@D@std@@V?$allocator@D@2@@std@@@Z ; FuzzyModule::CreateFLV
	mov	DWORD PTR _AmmoStatus$[ebp], eax
	mov	BYTE PTR __$EHRec$[ebp+8], 7
	lea	ecx, DWORD PTR $T139701[ebp]
	call	??1?$basic_string@DU?$char_traits@D@std@@V?$allocator@D@2@@std@@QAE@XZ ; std::basic_string<char,std::char_traits<char>,std::allocator<char> >::~basic_string<char,std::char_traits<char>,std::allocator<char> >

; 103  :   FzSet& Ammo_Loads = AmmoStatus.AddRightShoulderSet("Ammo_Loads", 15, 30, 100);

	sub	esp, 8
	fld	QWORD PTR __real@4059000000000000
	fstp	QWORD PTR [esp]
	sub	esp, 8
	fld	QWORD PTR __real@403e000000000000
	fstp	QWORD PTR [esp]
	sub	esp, 8
	fld	QWORD PTR __real@402e000000000000
	fstp	QWORD PTR [esp]
	sub	esp, 32					; 00000020H
	mov	ecx, esp
	mov	DWORD PTR $T151575[ebp], esp
	push	OFFSET $SG139707
	call	??0?$basic_string@DU?$char_traits@D@std@@V?$allocator@D@2@@std@@QAE@PBD@Z ; std::basic_string<char,std::char_traits<char>,std::allocator<char> >::basic_string<char,std::char_traits<char>,std::allocator<char> >
	mov	DWORD PTR tv691[ebp], eax
	lea	eax, DWORD PTR _$S7$[ebp]
	push	eax
	mov	ecx, DWORD PTR _AmmoStatus$[ebp]
	call	?AddRightShoulderSet@FuzzyVariable@@QAE?AVFzSet@@V?$basic_string@DU?$char_traits@D@std@@V?$allocator@D@2@@std@@NNN@Z ; FuzzyVariable::AddRightShoulderSet
	mov	DWORD PTR tv259[ebp], eax
	mov	BYTE PTR __$EHRec$[ebp+8], 9
	lea	ecx, DWORD PTR _$S7$[ebp]
	mov	DWORD PTR _Ammo_Loads$[ebp], ecx

; 104  :   FzSet& Ammo_Okay = AmmoStatus.AddTriangularSet("Ammo_Okay", 0, 15, 30);

	sub	esp, 8
	fld	QWORD PTR __real@403e000000000000
	fstp	QWORD PTR [esp]
	sub	esp, 8
	fld	QWORD PTR __real@402e000000000000
	fstp	QWORD PTR [esp]
	sub	esp, 8
	fldz
	fstp	QWORD PTR [esp]
	sub	esp, 32					; 00000020H
	mov	ecx, esp
	mov	DWORD PTR $T151576[ebp], esp
	push	OFFSET $SG139712
	call	??0?$basic_string@DU?$char_traits@D@std@@V?$allocator@D@2@@std@@QAE@PBD@Z ; std::basic_string<char,std::char_traits<char>,std::allocator<char> >::basic_string<char,std::char_traits<char>,std::allocator<char> >
	mov	DWORD PTR tv697[ebp], eax
	lea	edx, DWORD PTR _$S8$[ebp]
	push	edx
	mov	ecx, DWORD PTR _AmmoStatus$[ebp]
	call	?AddTriangularSet@FuzzyVariable@@QAE?AVFzSet@@V?$basic_string@DU?$char_traits@D@std@@V?$allocator@D@2@@std@@NNN@Z ; FuzzyVariable::AddTriangularSet
	mov	DWORD PTR tv280[ebp], eax
	mov	BYTE PTR __$EHRec$[ebp+8], 10		; 0000000aH
	lea	eax, DWORD PTR _$S8$[ebp]
	mov	DWORD PTR _Ammo_Okay$[ebp], eax

; 105  :   FzSet& Ammo_Low = AmmoStatus.AddTriangularSet("Ammo_Low", 0, 0, 15);

	sub	esp, 8
	fld	QWORD PTR __real@402e000000000000
	fstp	QWORD PTR [esp]
	sub	esp, 8
	fldz
	fstp	QWORD PTR [esp]
	sub	esp, 8
	fldz
	fstp	QWORD PTR [esp]
	sub	esp, 32					; 00000020H
	mov	ecx, esp
	mov	DWORD PTR $T151577[ebp], esp
	push	OFFSET $SG139717
	call	??0?$basic_string@DU?$char_traits@D@std@@V?$allocator@D@2@@std@@QAE@PBD@Z ; std::basic_string<char,std::char_traits<char>,std::allocator<char> >::basic_string<char,std::char_traits<char>,std::allocator<char> >
	mov	DWORD PTR tv703[ebp], eax
	lea	ecx, DWORD PTR _$S9$[ebp]
	push	ecx
	mov	ecx, DWORD PTR _AmmoStatus$[ebp]
	call	?AddTriangularSet@FuzzyVariable@@QAE?AVFzSet@@V?$basic_string@DU?$char_traits@D@std@@V?$allocator@D@2@@std@@NNN@Z ; FuzzyVariable::AddTriangularSet
	mov	DWORD PTR tv301[ebp], eax
	mov	BYTE PTR __$EHRec$[ebp+8], 11		; 0000000bH
	lea	edx, DWORD PTR _$S9$[ebp]
	mov	DWORD PTR _Ammo_Low$[ebp], edx

; 106  : 
; 107  :   
; 108  : 
; 109  :   m_FuzzyModule.AddRule(FzAND(Target_Close, Ammo_Loads), FzFairly(Desirable));

	mov	eax, DWORD PTR _Desirable$[ebp]
	push	eax
	lea	ecx, DWORD PTR $T151578[ebp]
	call	??0FzFairly@@QAE@AAVFzSet@@@Z		; FzFairly::FzFairly
	mov	DWORD PTR tv254[ebp], eax
	mov	ecx, DWORD PTR tv254[ebp]
	mov	DWORD PTR tv706[ebp], ecx
	mov	BYTE PTR __$EHRec$[ebp+8], 12		; 0000000cH
	mov	edx, DWORD PTR tv706[ebp]
	push	edx
	mov	eax, DWORD PTR _Ammo_Loads$[ebp]
	push	eax
	mov	ecx, DWORD PTR _Target_Close$[ebp]
	push	ecx
	lea	ecx, DWORD PTR $T151579[ebp]
	call	??0FzAND@@QAE@AAVFuzzyTerm@@0@Z		; FzAND::FzAND
	mov	DWORD PTR tv179[ebp], eax
	mov	edx, DWORD PTR tv179[ebp]
	mov	DWORD PTR tv708[ebp], edx
	mov	BYTE PTR __$EHRec$[ebp+8], 13		; 0000000dH
	mov	eax, DWORD PTR tv708[ebp]
	push	eax
	mov	ecx, DWORD PTR _this$[ebp]
	add	ecx, 16					; 00000010H
	call	?AddRule@FuzzyModule@@QAEXAAVFuzzyTerm@@0@Z ; FuzzyModule::AddRule
	mov	BYTE PTR __$EHRec$[ebp+8], 12		; 0000000cH
	lea	ecx, DWORD PTR $T151579[ebp]
	call	??1FzAND@@UAE@XZ			; FzAND::~FzAND
	mov	BYTE PTR __$EHRec$[ebp+8], 11		; 0000000bH
	lea	ecx, DWORD PTR $T151578[ebp]
	call	??1FzFairly@@UAE@XZ

; 110  :   m_FuzzyModule.AddRule(FzAND(Target_Close, Ammo_Okay),  FzFairly(Desirable));

	mov	ecx, DWORD PTR _Desirable$[ebp]
	push	ecx
	lea	ecx, DWORD PTR $T151580[ebp]
	call	??0FzFairly@@QAE@AAVFzSet@@@Z		; FzFairly::FzFairly
	mov	DWORD PTR tv72[ebp], eax
	mov	edx, DWORD PTR tv72[ebp]
	mov	DWORD PTR tv710[ebp], edx
	mov	BYTE PTR __$EHRec$[ebp+8], 14		; 0000000eH
	mov	eax, DWORD PTR tv710[ebp]
	push	eax
	mov	ecx, DWORD PTR _Ammo_Okay$[ebp]
	push	ecx
	mov	edx, DWORD PTR _Target_Close$[ebp]
	push	edx
	lea	ecx, DWORD PTR $T151581[ebp]
	call	??0FzAND@@QAE@AAVFuzzyTerm@@0@Z		; FzAND::FzAND
	mov	DWORD PTR tv733[ebp], eax
	mov	eax, DWORD PTR tv733[ebp]
	mov	DWORD PTR tv712[ebp], eax
	mov	BYTE PTR __$EHRec$[ebp+8], 15		; 0000000fH
	mov	ecx, DWORD PTR tv712[ebp]
	push	ecx
	mov	ecx, DWORD PTR _this$[ebp]
	add	ecx, 16					; 00000010H
	call	?AddRule@FuzzyModule@@QAEXAAVFuzzyTerm@@0@Z ; FuzzyModule::AddRule
	mov	BYTE PTR __$EHRec$[ebp+8], 14		; 0000000eH
	lea	ecx, DWORD PTR $T151581[ebp]
	call	??1FzAND@@UAE@XZ			; FzAND::~FzAND
	mov	BYTE PTR __$EHRec$[ebp+8], 11		; 0000000bH
	lea	ecx, DWORD PTR $T151580[ebp]
	call	??1FzFairly@@UAE@XZ

; 111  :   m_FuzzyModule.AddRule(FzAND(Target_Close, Ammo_Low), Undesirable);

	mov	edx, DWORD PTR _Undesirable$[ebp]
	push	edx
	mov	eax, DWORD PTR _Ammo_Low$[ebp]
	push	eax
	mov	ecx, DWORD PTR _Target_Close$[ebp]
	push	ecx
	lea	ecx, DWORD PTR $T151582[ebp]
	call	??0FzAND@@QAE@AAVFuzzyTerm@@0@Z		; FzAND::FzAND
	mov	DWORD PTR tv734[ebp], eax
	mov	edx, DWORD PTR tv734[ebp]
	mov	DWORD PTR tv714[ebp], edx
	mov	BYTE PTR __$EHRec$[ebp+8], 16		; 00000010H
	mov	eax, DWORD PTR tv714[ebp]
	push	eax
	mov	ecx, DWORD PTR _this$[ebp]
	add	ecx, 16					; 00000010H
	call	?AddRule@FuzzyModule@@QAEXAAVFuzzyTerm@@0@Z ; FuzzyModule::AddRule
	mov	BYTE PTR __$EHRec$[ebp+8], 11		; 0000000bH
	lea	ecx, DWORD PTR $T151582[ebp]
	call	??1FzAND@@UAE@XZ			; FzAND::~FzAND

; 112  : 
; 113  :   m_FuzzyModule.AddRule(FzAND(Target_Medium, Ammo_Loads), VeryDesirable);

	mov	ecx, DWORD PTR _VeryDesirable$[ebp]
	push	ecx
	mov	edx, DWORD PTR _Ammo_Loads$[ebp]
	push	edx
	mov	eax, DWORD PTR _Target_Medium$[ebp]
	push	eax
	lea	ecx, DWORD PTR $T151583[ebp]
	call	??0FzAND@@QAE@AAVFuzzyTerm@@0@Z		; FzAND::FzAND
	mov	DWORD PTR tv735[ebp], eax
	mov	ecx, DWORD PTR tv735[ebp]
	mov	DWORD PTR tv716[ebp], ecx
	mov	BYTE PTR __$EHRec$[ebp+8], 17		; 00000011H
	mov	edx, DWORD PTR tv716[ebp]
	push	edx
	mov	ecx, DWORD PTR _this$[ebp]
	add	ecx, 16					; 00000010H
	call	?AddRule@FuzzyModule@@QAEXAAVFuzzyTerm@@0@Z ; FuzzyModule::AddRule
	mov	BYTE PTR __$EHRec$[ebp+8], 11		; 0000000bH
	lea	ecx, DWORD PTR $T151583[ebp]
	call	??1FzAND@@UAE@XZ			; FzAND::~FzAND

; 114  :   m_FuzzyModule.AddRule(FzAND(Target_Medium, Ammo_Okay), Desirable);

	mov	eax, DWORD PTR _Desirable$[ebp]
	push	eax
	mov	ecx, DWORD PTR _Ammo_Okay$[ebp]
	push	ecx
	mov	edx, DWORD PTR _Target_Medium$[ebp]
	push	edx
	lea	ecx, DWORD PTR $T151584[ebp]
	call	??0FzAND@@QAE@AAVFuzzyTerm@@0@Z		; FzAND::FzAND
	mov	DWORD PTR tv736[ebp], eax
	mov	eax, DWORD PTR tv736[ebp]
	mov	DWORD PTR tv718[ebp], eax
	mov	BYTE PTR __$EHRec$[ebp+8], 18		; 00000012H
	mov	ecx, DWORD PTR tv718[ebp]
	push	ecx
	mov	ecx, DWORD PTR _this$[ebp]
	add	ecx, 16					; 00000010H
	call	?AddRule@FuzzyModule@@QAEXAAVFuzzyTerm@@0@Z ; FuzzyModule::AddRule
	mov	BYTE PTR __$EHRec$[ebp+8], 11		; 0000000bH
	lea	ecx, DWORD PTR $T151584[ebp]
	call	??1FzAND@@UAE@XZ			; FzAND::~FzAND

; 115  :   m_FuzzyModule.AddRule(FzAND(Target_Medium, Ammo_Low), Desirable);

	mov	edx, DWORD PTR _Desirable$[ebp]
	push	edx
	mov	eax, DWORD PTR _Ammo_Low$[ebp]
	push	eax
	mov	ecx, DWORD PTR _Target_Medium$[ebp]
	push	ecx
	lea	ecx, DWORD PTR $T151585[ebp]
	call	??0FzAND@@QAE@AAVFuzzyTerm@@0@Z		; FzAND::FzAND
	mov	DWORD PTR tv737[ebp], eax
	mov	edx, DWORD PTR tv737[ebp]
	mov	DWORD PTR tv720[ebp], edx
	mov	BYTE PTR __$EHRec$[ebp+8], 19		; 00000013H
	mov	eax, DWORD PTR tv720[ebp]
	push	eax
	mov	ecx, DWORD PTR _this$[ebp]
	add	ecx, 16					; 00000010H
	call	?AddRule@FuzzyModule@@QAEXAAVFuzzyTerm@@0@Z ; FuzzyModule::AddRule
	mov	BYTE PTR __$EHRec$[ebp+8], 11		; 0000000bH
	lea	ecx, DWORD PTR $T151585[ebp]
	call	??1FzAND@@UAE@XZ			; FzAND::~FzAND

; 116  : 
; 117  :   m_FuzzyModule.AddRule(FzAND(Target_Far, Ammo_Loads), FzVery(VeryDesirable));

	mov	ecx, DWORD PTR _VeryDesirable$[ebp]
	push	ecx
	lea	ecx, DWORD PTR $T151586[ebp]
	call	??0FzVery@@QAE@AAVFzSet@@@Z		; FzVery::FzVery
	mov	DWORD PTR tv738[ebp], eax
	mov	edx, DWORD PTR tv738[ebp]
	mov	DWORD PTR tv722[ebp], edx
	mov	BYTE PTR __$EHRec$[ebp+8], 20		; 00000014H
	mov	eax, DWORD PTR tv722[ebp]
	push	eax
	mov	ecx, DWORD PTR _Ammo_Loads$[ebp]
	push	ecx
	mov	edx, DWORD PTR _Target_Far$[ebp]
	push	edx
	lea	ecx, DWORD PTR $T151587[ebp]
	call	??0FzAND@@QAE@AAVFuzzyTerm@@0@Z		; FzAND::FzAND
	mov	DWORD PTR tv739[ebp], eax
	mov	eax, DWORD PTR tv739[ebp]
	mov	DWORD PTR tv724[ebp], eax
	mov	BYTE PTR __$EHRec$[ebp+8], 21		; 00000015H
	mov	ecx, DWORD PTR tv724[ebp]
	push	ecx
	mov	ecx, DWORD PTR _this$[ebp]
	add	ecx, 16					; 00000010H
	call	?AddRule@FuzzyModule@@QAEXAAVFuzzyTerm@@0@Z ; FuzzyModule::AddRule
	mov	BYTE PTR __$EHRec$[ebp+8], 20		; 00000014H
	lea	ecx, DWORD PTR $T151587[ebp]
	call	??1FzAND@@UAE@XZ			; FzAND::~FzAND
	mov	BYTE PTR __$EHRec$[ebp+8], 11		; 0000000bH
	lea	ecx, DWORD PTR $T151586[ebp]
	call	??1FzVery@@UAE@XZ

; 118  :   m_FuzzyModule.AddRule(FzAND(Target_Far, Ammo_Okay), FzVery(VeryDesirable));

	mov	edx, DWORD PTR _VeryDesirable$[ebp]
	push	edx
	lea	ecx, DWORD PTR $T151588[ebp]
	call	??0FzVery@@QAE@AAVFzSet@@@Z		; FzVery::FzVery
	mov	DWORD PTR tv740[ebp], eax
	mov	eax, DWORD PTR tv740[ebp]
	mov	DWORD PTR tv726[ebp], eax
	mov	BYTE PTR __$EHRec$[ebp+8], 22		; 00000016H
	mov	ecx, DWORD PTR tv726[ebp]
	push	ecx
	mov	edx, DWORD PTR _Ammo_Okay$[ebp]
	push	edx
	mov	eax, DWORD PTR _Target_Far$[ebp]
	push	eax
	lea	ecx, DWORD PTR $T151589[ebp]
	call	??0FzAND@@QAE@AAVFuzzyTerm@@0@Z		; FzAND::FzAND
	mov	DWORD PTR tv741[ebp], eax
	mov	ecx, DWORD PTR tv741[ebp]
	mov	DWORD PTR tv728[ebp], ecx
	mov	BYTE PTR __$EHRec$[ebp+8], 23		; 00000017H
	mov	edx, DWORD PTR tv728[ebp]
	push	edx
	mov	ecx, DWORD PTR _this$[ebp]
	add	ecx, 16					; 00000010H
	call	?AddRule@FuzzyModule@@QAEXAAVFuzzyTerm@@0@Z ; FuzzyModule::AddRule
	mov	BYTE PTR __$EHRec$[ebp+8], 22		; 00000016H
	lea	ecx, DWORD PTR $T151589[ebp]
	call	??1FzAND@@UAE@XZ			; FzAND::~FzAND
	mov	BYTE PTR __$EHRec$[ebp+8], 11		; 0000000bH
	lea	ecx, DWORD PTR $T151588[ebp]
	call	??1FzVery@@UAE@XZ

; 119  :   m_FuzzyModule.AddRule(FzAND(Target_Far, FzFairly(Ammo_Low)), VeryDesirable);

	mov	eax, DWORD PTR _VeryDesirable$[ebp]
	push	eax
	mov	ecx, DWORD PTR _Ammo_Low$[ebp]
	push	ecx
	lea	ecx, DWORD PTR $T151591[ebp]
	call	??0FzFairly@@QAE@AAVFzSet@@@Z		; FzFairly::FzFairly
	mov	DWORD PTR tv742[ebp], eax
	mov	edx, DWORD PTR tv742[ebp]
	mov	DWORD PTR tv730[ebp], edx
	mov	BYTE PTR __$EHRec$[ebp+8], 24		; 00000018H
	mov	eax, DWORD PTR tv730[ebp]
	push	eax
	mov	ecx, DWORD PTR _Target_Far$[ebp]
	push	ecx
	lea	ecx, DWORD PTR $T151590[ebp]
	call	??0FzAND@@QAE@AAVFuzzyTerm@@0@Z		; FzAND::FzAND
	mov	DWORD PTR tv743[ebp], eax
	mov	edx, DWORD PTR tv743[ebp]
	mov	DWORD PTR tv732[ebp], edx
	mov	BYTE PTR __$EHRec$[ebp+8], 25		; 00000019H
	mov	eax, DWORD PTR tv732[ebp]
	push	eax
	mov	ecx, DWORD PTR _this$[ebp]
	add	ecx, 16					; 00000010H
	call	?AddRule@FuzzyModule@@QAEXAAVFuzzyTerm@@0@Z ; FuzzyModule::AddRule
	mov	BYTE PTR __$EHRec$[ebp+8], 24		; 00000018H
	lea	ecx, DWORD PTR $T151590[ebp]
	call	??1FzAND@@UAE@XZ			; FzAND::~FzAND
	mov	BYTE PTR __$EHRec$[ebp+8], 11		; 0000000bH
	lea	ecx, DWORD PTR $T151591[ebp]
	call	??1FzFairly@@UAE@XZ

; 120  : }

	mov	BYTE PTR __$EHRec$[ebp+8], 10		; 0000000aH
	lea	ecx, DWORD PTR _$S9$[ebp]
	call	??1FzSet@@UAE@XZ
	mov	BYTE PTR __$EHRec$[ebp+8], 9
	lea	ecx, DWORD PTR _$S8$[ebp]
	call	??1FzSet@@UAE@XZ
	mov	BYTE PTR __$EHRec$[ebp+8], 7
	lea	ecx, DWORD PTR _$S7$[ebp]
	call	??1FzSet@@UAE@XZ
	mov	BYTE PTR __$EHRec$[ebp+8], 6
	lea	ecx, DWORD PTR _$S6$[ebp]
	call	??1FzSet@@UAE@XZ
	mov	BYTE PTR __$EHRec$[ebp+8], 5
	lea	ecx, DWORD PTR _$S5$[ebp]
	call	??1FzSet@@UAE@XZ
	mov	BYTE PTR __$EHRec$[ebp+8], 3
	lea	ecx, DWORD PTR _$S4$[ebp]
	call	??1FzSet@@UAE@XZ
	mov	BYTE PTR __$EHRec$[ebp+8], 2
	lea	ecx, DWORD PTR _$S3$[ebp]
	call	??1FzSet@@UAE@XZ
	mov	BYTE PTR __$EHRec$[ebp+8], 1
	lea	ecx, DWORD PTR _$S2$[ebp]
	call	??1FzSet@@UAE@XZ
	mov	DWORD PTR __$EHRec$[ebp+8], -1
	lea	ecx, DWORD PTR _$S1$[ebp]
	call	??1FzSet@@UAE@XZ
	push	edx
	mov	ecx, ebp
	push	eax
	lea	edx, DWORD PTR $LN49@Initialize
	call	@_RTC_CheckStackVars@8
	pop	eax
	pop	edx
	mov	ecx, DWORD PTR __$EHRec$[ebp]
	mov	DWORD PTR fs:0, ecx
	pop	ecx
	pop	edi
	mov	ecx, DWORD PTR __$ArrayPad$[ebp]
	xor	ecx, ebp
	call	@__security_check_cookie@4
	add	esp, 784				; 00000310H
	cmp	ebp, esp
	call	__RTC_CheckEsp
	mov	esp, ebp
	pop	ebp
	ret	0
$LN49@Initialize:
	DD	9
	DD	$LN48@Initialize
$LN48@Initialize:
	DD	-72					; ffffffb8H
	DD	8
	DD	$LN38@Initialize
	DD	-92					; ffffffa4H
	DD	8
	DD	$LN39@Initialize
	DD	-112					; ffffff90H
	DD	8
	DD	$LN40@Initialize
	DD	-168					; ffffff58H
	DD	8
	DD	$LN41@Initialize
	DD	-188					; ffffff44H
	DD	8
	DD	$LN42@Initialize
	DD	-208					; ffffff30H
	DD	8
	DD	$LN43@Initialize
	DD	-264					; fffffef8H
	DD	8
	DD	$LN44@Initialize
	DD	-284					; fffffee4H
	DD	8
	DD	$LN45@Initialize
	DD	-304					; fffffed0H
	DD	8
	DD	$LN46@Initialize
$LN46@Initialize:
	DB	36					; 00000024H
	DB	83					; 00000053H
	DB	57					; 00000039H
	DB	0
$LN45@Initialize:
	DB	36					; 00000024H
	DB	83					; 00000053H
	DB	56					; 00000038H
	DB	0
$LN44@Initialize:
	DB	36					; 00000024H
	DB	83					; 00000053H
	DB	55					; 00000037H
	DB	0
$LN43@Initialize:
	DB	36					; 00000024H
	DB	83					; 00000053H
	DB	54					; 00000036H
	DB	0
$LN42@Initialize:
	DB	36					; 00000024H
	DB	83					; 00000053H
	DB	53					; 00000035H
	DB	0
$LN41@Initialize:
	DB	36					; 00000024H
	DB	83					; 00000053H
	DB	52					; 00000034H
	DB	0
$LN40@Initialize:
	DB	36					; 00000024H
	DB	83					; 00000053H
	DB	51					; 00000033H
	DB	0
$LN39@Initialize:
	DB	36					; 00000024H
	DB	83					; 00000053H
	DB	50					; 00000032H
	DB	0
$LN38@Initialize:
	DB	36					; 00000024H
	DB	83					; 00000053H
	DB	49					; 00000031H
	DB	0
_TEXT	ENDS
text$x	SEGMENT
__unwindfunclet$?InitializeFuzzyModule@RailGun@@EAEXXZ$0:
	lea	ecx, DWORD PTR $T139665[ebp]
	jmp	??1?$basic_string@DU?$char_traits@D@std@@V?$allocator@D@2@@std@@QAE@XZ ; std::basic_string<char,std::char_traits<char>,std::allocator<char> >::~basic_string<char,std::char_traits<char>,std::allocator<char> >
__unwindfunclet$?InitializeFuzzyModule@RailGun@@EAEXXZ$2:
	lea	ecx, DWORD PTR _$S1$[ebp]
	jmp	??1FzSet@@UAE@XZ
__unwindfunclet$?InitializeFuzzyModule@RailGun@@EAEXXZ$4:
	lea	ecx, DWORD PTR _$S2$[ebp]
	jmp	??1FzSet@@UAE@XZ
__unwindfunclet$?InitializeFuzzyModule@RailGun@@EAEXXZ$6:
	lea	ecx, DWORD PTR _$S3$[ebp]
	jmp	??1FzSet@@UAE@XZ
__unwindfunclet$?InitializeFuzzyModule@RailGun@@EAEXXZ$7:
	lea	ecx, DWORD PTR $T139683[ebp]
	jmp	??1?$basic_string@DU?$char_traits@D@std@@V?$allocator@D@2@@std@@QAE@XZ ; std::basic_string<char,std::char_traits<char>,std::allocator<char> >::~basic_string<char,std::char_traits<char>,std::allocator<char> >
__unwindfunclet$?InitializeFuzzyModule@RailGun@@EAEXXZ$9:
	lea	ecx, DWORD PTR _$S4$[ebp]
	jmp	??1FzSet@@UAE@XZ
__unwindfunclet$?InitializeFuzzyModule@RailGun@@EAEXXZ$11:
	lea	ecx, DWORD PTR _$S5$[ebp]
	jmp	??1FzSet@@UAE@XZ
__unwindfunclet$?InitializeFuzzyModule@RailGun@@EAEXXZ$13:
	lea	ecx, DWORD PTR _$S6$[ebp]
	jmp	??1FzSet@@UAE@XZ
__unwindfunclet$?InitializeFuzzyModule@RailGun@@EAEXXZ$14:
	lea	ecx, DWORD PTR $T139701[ebp]
	jmp	??1?$basic_string@DU?$char_traits@D@std@@V?$allocator@D@2@@std@@QAE@XZ ; std::basic_string<char,std::char_traits<char>,std::allocator<char> >::~basic_string<char,std::char_traits<char>,std::allocator<char> >
__unwindfunclet$?InitializeFuzzyModule@RailGun@@EAEXXZ$16:
	lea	ecx, DWORD PTR _$S7$[ebp]
	jmp	??1FzSet@@UAE@XZ
__unwindfunclet$?InitializeFuzzyModule@RailGun@@EAEXXZ$18:
	lea	ecx, DWORD PTR _$S8$[ebp]
	jmp	??1FzSet@@UAE@XZ
__unwindfunclet$?InitializeFuzzyModule@RailGun@@EAEXXZ$20:
	lea	ecx, DWORD PTR _$S9$[ebp]
	jmp	??1FzSet@@UAE@XZ
__unwindfunclet$?InitializeFuzzyModule@RailGun@@EAEXXZ$21:
	lea	ecx, DWORD PTR $T151578[ebp]
	jmp	??1FzFairly@@UAE@XZ
__unwindfunclet$?InitializeFuzzyModule@RailGun@@EAEXXZ$22:
	lea	ecx, DWORD PTR $T151579[ebp]
	jmp	??1FzAND@@UAE@XZ			; FzAND::~FzAND
__unwindfunclet$?InitializeFuzzyModule@RailGun@@EAEXXZ$23:
	lea	ecx, DWORD PTR $T151580[ebp]
	jmp	??1FzFairly@@UAE@XZ
__unwindfunclet$?InitializeFuzzyModule@RailGun@@EAEXXZ$24:
	lea	ecx, DWORD PTR $T151581[ebp]
	jmp	??1FzAND@@UAE@XZ			; FzAND::~FzAND
__unwindfunclet$?InitializeFuzzyModule@RailGun@@EAEXXZ$25:
	lea	ecx, DWORD PTR $T151582[ebp]
	jmp	??1FzAND@@UAE@XZ			; FzAND::~FzAND
__unwindfunclet$?InitializeFuzzyModule@RailGun@@EAEXXZ$26:
	lea	ecx, DWORD PTR $T151583[ebp]
	jmp	??1FzAND@@UAE@XZ			; FzAND::~FzAND
__unwindfunclet$?InitializeFuzzyModule@RailGun@@EAEXXZ$27:
	lea	ecx, DWORD PTR $T151584[ebp]
	jmp	??1FzAND@@UAE@XZ			; FzAND::~FzAND
__unwindfunclet$?InitializeFuzzyModule@RailGun@@EAEXXZ$28:
	lea	ecx, DWORD PTR $T151585[ebp]
	jmp	??1FzAND@@UAE@XZ			; FzAND::~FzAND
__unwindfunclet$?InitializeFuzzyModule@RailGun@@EAEXXZ$29:
	lea	ecx, DWORD PTR $T151586[ebp]
	jmp	??1FzVery@@UAE@XZ
__unwindfunclet$?InitializeFuzzyModule@RailGun@@EAEXXZ$30:
	lea	ecx, DWORD PTR $T151587[ebp]
	jmp	??1FzAND@@UAE@XZ			; FzAND::~FzAND
__unwindfunclet$?InitializeFuzzyModule@RailGun@@EAEXXZ$31:
	lea	ecx, DWORD PTR $T151588[ebp]
	jmp	??1FzVery@@UAE@XZ
__unwindfunclet$?InitializeFuzzyModule@RailGun@@EAEXXZ$32:
	lea	ecx, DWORD PTR $T151589[ebp]
	jmp	??1FzAND@@UAE@XZ			; FzAND::~FzAND
__unwindfunclet$?InitializeFuzzyModule@RailGun@@EAEXXZ$33:
	lea	ecx, DWORD PTR $T151591[ebp]
	jmp	??1FzFairly@@UAE@XZ
__unwindfunclet$?InitializeFuzzyModule@RailGun@@EAEXXZ$34:
	lea	ecx, DWORD PTR $T151590[ebp]
	jmp	??1FzAND@@UAE@XZ			; FzAND::~FzAND
__ehhandler$?InitializeFuzzyModule@RailGun@@EAEXXZ:
	mov	edx, DWORD PTR [esp+8]
	lea	eax, DWORD PTR [edx+12]
	mov	ecx, DWORD PTR [edx-780]
	xor	ecx, eax
	call	@__security_check_cookie@4
	mov	ecx, DWORD PTR [edx-4]
	xor	ecx, eax
	call	@__security_check_cookie@4
	mov	eax, OFFSET __ehfuncinfo$?InitializeFuzzyModule@RailGun@@EAEXXZ
	jmp	___CxxFrameHandler3
text$x	ENDS
?InitializeFuzzyModule@RailGun@@EAEXXZ ENDP		; RailGun::InitializeFuzzyModule
PUBLIC	??1FuzzyTerm@@UAE@XZ				; FuzzyTerm::~FuzzyTerm
; Function compile flags: /Odtp /RTCsu
;	COMDAT ??1FzSet@@UAE@XZ
_TEXT	SEGMENT
_this$ = -4						; size = 4
??1FzSet@@UAE@XZ PROC					; FzSet::~FzSet, COMDAT
; _this$ = ecx
	push	ebp
	mov	ebp, esp
	push	ecx
	mov	DWORD PTR [ebp-4], -858993460		; ccccccccH
	mov	DWORD PTR _this$[ebp], ecx
	mov	ecx, DWORD PTR _this$[ebp]
	call	??1FuzzyTerm@@UAE@XZ			; FuzzyTerm::~FuzzyTerm
	add	esp, 4
	cmp	ebp, esp
	call	__RTC_CheckEsp
	mov	esp, ebp
	pop	ebp
	ret	0
??1FzSet@@UAE@XZ ENDP					; FzSet::~FzSet
_TEXT	ENDS
PUBLIC	??_7FuzzyTerm@@6B@				; FuzzyTerm::`vftable'
PUBLIC	??_R4FuzzyTerm@@6B@				; FuzzyTerm::`RTTI Complete Object Locator'
PUBLIC	??_R0?AVFuzzyTerm@@@8				; FuzzyTerm `RTTI Type Descriptor'
PUBLIC	??_R3FuzzyTerm@@8				; FuzzyTerm::`RTTI Class Hierarchy Descriptor'
PUBLIC	??_R2FuzzyTerm@@8				; FuzzyTerm::`RTTI Base Class Array'
PUBLIC	??_R1A@?0A@EA@FuzzyTerm@@8			; FuzzyTerm::`RTTI Base Class Descriptor at (0,-1,0,64)'
EXTRN	??_EFuzzyTerm@@UAEPAXI@Z:PROC			; FuzzyTerm::`vector deleting destructor'
;	COMDAT ??_R1A@?0A@EA@FuzzyTerm@@8
; File c:\users\teaja\documents\artificial-fun\labravenprojecttest\common\fuzzy\fuzzyterm.h
rdata$r	SEGMENT
??_R1A@?0A@EA@FuzzyTerm@@8 DD FLAT:??_R0?AVFuzzyTerm@@@8 ; FuzzyTerm::`RTTI Base Class Descriptor at (0,-1,0,64)'
	DD	00H
	DD	00H
	DD	0ffffffffH
	DD	00H
	DD	040H
	DD	FLAT:??_R3FuzzyTerm@@8
rdata$r	ENDS
;	COMDAT ??_R2FuzzyTerm@@8
rdata$r	SEGMENT
??_R2FuzzyTerm@@8 DD FLAT:??_R1A@?0A@EA@FuzzyTerm@@8	; FuzzyTerm::`RTTI Base Class Array'
rdata$r	ENDS
;	COMDAT ??_R3FuzzyTerm@@8
rdata$r	SEGMENT
??_R3FuzzyTerm@@8 DD 00H				; FuzzyTerm::`RTTI Class Hierarchy Descriptor'
	DD	00H
	DD	01H
	DD	FLAT:??_R2FuzzyTerm@@8
rdata$r	ENDS
;	COMDAT ??_R0?AVFuzzyTerm@@@8
_DATA	SEGMENT
??_R0?AVFuzzyTerm@@@8 DD FLAT:??_7type_info@@6B@	; FuzzyTerm `RTTI Type Descriptor'
	DD	00H
	DB	'.?AVFuzzyTerm@@', 00H
_DATA	ENDS
;	COMDAT ??_R4FuzzyTerm@@6B@
rdata$r	SEGMENT
??_R4FuzzyTerm@@6B@ DD 00H				; FuzzyTerm::`RTTI Complete Object Locator'
	DD	00H
	DD	00H
	DD	FLAT:??_R0?AVFuzzyTerm@@@8
	DD	FLAT:??_R3FuzzyTerm@@8
rdata$r	ENDS
;	COMDAT ??_7FuzzyTerm@@6B@
CONST	SEGMENT
??_7FuzzyTerm@@6B@ DD FLAT:??_R4FuzzyTerm@@6B@		; FuzzyTerm::`vftable'
	DD	FLAT:??_EFuzzyTerm@@UAEPAXI@Z
	DD	FLAT:__purecall
	DD	FLAT:__purecall
	DD	FLAT:__purecall
	DD	FLAT:__purecall
; Function compile flags: /Odtp /RTCsu
CONST	ENDS
;	COMDAT ??1FuzzyTerm@@UAE@XZ
_TEXT	SEGMENT
_this$ = -4						; size = 4
??1FuzzyTerm@@UAE@XZ PROC				; FuzzyTerm::~FuzzyTerm, COMDAT
; _this$ = ecx

; 17   :   virtual ~FuzzyTerm(){}

	push	ebp
	mov	ebp, esp
	push	ecx
	mov	DWORD PTR [ebp-4], -858993460		; ccccccccH
	mov	DWORD PTR _this$[ebp], ecx
	mov	eax, DWORD PTR _this$[ebp]
	mov	DWORD PTR [eax], OFFSET ??_7FuzzyTerm@@6B@
	mov	esp, ebp
	pop	ebp
	ret	0
??1FuzzyTerm@@UAE@XZ ENDP				; FuzzyTerm::~FuzzyTerm
; Function compile flags: /Odtp /RTCsu
_TEXT	ENDS
;	COMDAT ??_GFuzzyTerm@@UAEPAXI@Z
_TEXT	SEGMENT
_this$ = -4						; size = 4
___flags$ = 8						; size = 4
??_GFuzzyTerm@@UAEPAXI@Z PROC				; FuzzyTerm::`scalar deleting destructor', COMDAT
; _this$ = ecx
	push	ebp
	mov	ebp, esp
	push	ecx
	mov	DWORD PTR [ebp-4], -858993460		; ccccccccH
	mov	DWORD PTR _this$[ebp], ecx
	mov	ecx, DWORD PTR _this$[ebp]
	call	??1FuzzyTerm@@UAE@XZ			; FuzzyTerm::~FuzzyTerm
	mov	eax, DWORD PTR ___flags$[ebp]
	and	eax, 1
	je	SHORT $LN1@scalar@3
	mov	ecx, DWORD PTR _this$[ebp]
	push	ecx
	call	??3@YAXPAX@Z				; operator delete
	add	esp, 4
$LN1@scalar@3:
	mov	eax, DWORD PTR _this$[ebp]
	add	esp, 4
	cmp	ebp, esp
	call	__RTC_CheckEsp
	mov	esp, ebp
	pop	ebp
	ret	4
??_GFuzzyTerm@@UAEPAXI@Z ENDP				; FuzzyTerm::`scalar deleting destructor'
_TEXT	ENDS
PUBLIC	??_7FzVery@@6B@					; FzVery::`vftable'
PUBLIC	??0FuzzyTerm@@QAE@XZ				; FuzzyTerm::FuzzyTerm
PUBLIC	??_R4FzVery@@6B@				; FzVery::`RTTI Complete Object Locator'
PUBLIC	??_R0?AVFzVery@@@8				; FzVery `RTTI Type Descriptor'
PUBLIC	??_R3FzVery@@8					; FzVery::`RTTI Class Hierarchy Descriptor'
PUBLIC	??_R2FzVery@@8					; FzVery::`RTTI Base Class Array'
PUBLIC	??_R1A@?0A@EA@FzVery@@8				; FzVery::`RTTI Base Class Descriptor at (0,-1,0,64)'
PUBLIC	?Clone@FzVery@@UBEPAVFuzzyTerm@@XZ		; FzVery::Clone
PUBLIC	?GetDOM@FzVery@@UBENXZ				; FzVery::GetDOM
PUBLIC	?ClearDOM@FzVery@@UAEXXZ			; FzVery::ClearDOM
PUBLIC	?ORwithDOM@FzVery@@UAEXN@Z			; FzVery::ORwithDOM
EXTRN	??_EFzVery@@UAEPAXI@Z:PROC			; FzVery::`vector deleting destructor'
;	COMDAT ??_R1A@?0A@EA@FzVery@@8
; File c:\users\teaja\documents\artificial-fun\labravenprojecttest\common\fuzzy\fuzzyhedges.h
rdata$r	SEGMENT
??_R1A@?0A@EA@FzVery@@8 DD FLAT:??_R0?AVFzVery@@@8	; FzVery::`RTTI Base Class Descriptor at (0,-1,0,64)'
	DD	01H
	DD	00H
	DD	0ffffffffH
	DD	00H
	DD	040H
	DD	FLAT:??_R3FzVery@@8
rdata$r	ENDS
;	COMDAT ??_R2FzVery@@8
rdata$r	SEGMENT
??_R2FzVery@@8 DD FLAT:??_R1A@?0A@EA@FzVery@@8		; FzVery::`RTTI Base Class Array'
	DD	FLAT:??_R1A@?0A@EA@FuzzyTerm@@8
rdata$r	ENDS
;	COMDAT ??_R3FzVery@@8
rdata$r	SEGMENT
??_R3FzVery@@8 DD 00H					; FzVery::`RTTI Class Hierarchy Descriptor'
	DD	00H
	DD	02H
	DD	FLAT:??_R2FzVery@@8
rdata$r	ENDS
;	COMDAT ??_R0?AVFzVery@@@8
_DATA	SEGMENT
??_R0?AVFzVery@@@8 DD FLAT:??_7type_info@@6B@		; FzVery `RTTI Type Descriptor'
	DD	00H
	DB	'.?AVFzVery@@', 00H
_DATA	ENDS
;	COMDAT ??_R4FzVery@@6B@
rdata$r	SEGMENT
??_R4FzVery@@6B@ DD 00H					; FzVery::`RTTI Complete Object Locator'
	DD	00H
	DD	00H
	DD	FLAT:??_R0?AVFzVery@@@8
	DD	FLAT:??_R3FzVery@@8
rdata$r	ENDS
;	COMDAT ??_7FzVery@@6B@
CONST	SEGMENT
??_7FzVery@@6B@ DD FLAT:??_R4FzVery@@6B@		; FzVery::`vftable'
	DD	FLAT:??_EFzVery@@UAEPAXI@Z
	DD	FLAT:?Clone@FzVery@@UBEPAVFuzzyTerm@@XZ
	DD	FLAT:?GetDOM@FzVery@@UBENXZ
	DD	FLAT:?ClearDOM@FzVery@@UAEXXZ
	DD	FLAT:?ORwithDOM@FzVery@@UAEXN@Z
; Function compile flags: /Odtp /RTCsu
CONST	ENDS
;	COMDAT ??0FzVery@@QAE@AAVFzSet@@@Z
_TEXT	SEGMENT
_this$ = -4						; size = 4
_ft$ = 8						; size = 4
??0FzVery@@QAE@AAVFzSet@@@Z PROC			; FzVery::FzVery, COMDAT
; _this$ = ecx

; 28   :   FzVery(FzSet& ft):m_Set(ft.m_Set){}

	push	ebp
	mov	ebp, esp
	push	ecx
	mov	DWORD PTR [ebp-4], -858993460		; ccccccccH
	mov	DWORD PTR _this$[ebp], ecx
	mov	ecx, DWORD PTR _this$[ebp]
	call	??0FuzzyTerm@@QAE@XZ
	mov	eax, DWORD PTR _this$[ebp]
	mov	DWORD PTR [eax], OFFSET ??_7FzVery@@6B@
	mov	ecx, DWORD PTR _this$[ebp]
	mov	edx, DWORD PTR _ft$[ebp]
	mov	eax, DWORD PTR [edx+4]
	mov	DWORD PTR [ecx+4], eax
	mov	eax, DWORD PTR _this$[ebp]
	add	esp, 4
	cmp	ebp, esp
	call	__RTC_CheckEsp
	mov	esp, ebp
	pop	ebp
	ret	4
??0FzVery@@QAE@AAVFzSet@@@Z ENDP			; FzVery::FzVery
; Function compile flags: /Odtp /RTCsu
_TEXT	ENDS
;	COMDAT ??0FuzzyTerm@@QAE@XZ
_TEXT	SEGMENT
_this$ = -4						; size = 4
??0FuzzyTerm@@QAE@XZ PROC				; FuzzyTerm::FuzzyTerm, COMDAT
; _this$ = ecx
	push	ebp
	mov	ebp, esp
	push	ecx
	mov	DWORD PTR [ebp-4], -858993460		; ccccccccH
	mov	DWORD PTR _this$[ebp], ecx
	mov	eax, DWORD PTR _this$[ebp]
	mov	DWORD PTR [eax], OFFSET ??_7FuzzyTerm@@6B@
	mov	eax, DWORD PTR _this$[ebp]
	mov	esp, ebp
	pop	ebp
	ret	0
??0FuzzyTerm@@QAE@XZ ENDP				; FuzzyTerm::FuzzyTerm
_TEXT	ENDS
PUBLIC	?GetDOM@FuzzySet@@QBENXZ			; FuzzySet::GetDOM
; Function compile flags: /Odtp /RTCsu
;	COMDAT ?GetDOM@FzVery@@UBENXZ
_TEXT	SEGMENT
tv79 = -12						; size = 8
_this$ = -4						; size = 4
?GetDOM@FzVery@@UBENXZ PROC				; FzVery::GetDOM, COMDAT
; _this$ = ecx

; 31   :   {

	push	ebp
	mov	ebp, esp
	sub	esp, 12					; 0000000cH
	mov	DWORD PTR [ebp-12], -858993460		; ccccccccH
	mov	DWORD PTR [ebp-8], -858993460		; ccccccccH
	mov	DWORD PTR [ebp-4], -858993460		; ccccccccH
	mov	DWORD PTR _this$[ebp], ecx

; 32   :     return m_Set.GetDOM() * m_Set.GetDOM();

	mov	eax, DWORD PTR _this$[ebp]
	mov	ecx, DWORD PTR [eax+4]
	call	?GetDOM@FuzzySet@@QBENXZ		; FuzzySet::GetDOM
	mov	ecx, DWORD PTR _this$[ebp]
	mov	ecx, DWORD PTR [ecx+4]
	fstp	QWORD PTR tv79[ebp]
	call	?GetDOM@FuzzySet@@QBENXZ		; FuzzySet::GetDOM
	fmul	QWORD PTR tv79[ebp]

; 33   :   }

	add	esp, 12					; 0000000cH
	cmp	ebp, esp
	call	__RTC_CheckEsp
	mov	esp, ebp
	pop	ebp
	ret	0
?GetDOM@FzVery@@UBENXZ ENDP				; FzVery::GetDOM
; Function compile flags: /Odtp /RTCsu
; File c:\users\teaja\documents\artificial-fun\labravenprojecttest\common\fuzzy\fuzzyset.h
_TEXT	ENDS
;	COMDAT ?GetDOM@FuzzySet@@QBENXZ
_TEXT	SEGMENT
_this$ = -4						; size = 4
?GetDOM@FuzzySet@@QBENXZ PROC				; FuzzySet::GetDOM, COMDAT
; _this$ = ecx

; 49   :   double             GetDOM()const{return m_dDOM;}

	push	ebp
	mov	ebp, esp
	push	ecx
	mov	DWORD PTR [ebp-4], -858993460		; ccccccccH
	mov	DWORD PTR _this$[ebp], ecx
	mov	eax, DWORD PTR _this$[ebp]
	fld	QWORD PTR [eax+8]
	mov	esp, ebp
	pop	ebp
	ret	0
?GetDOM@FuzzySet@@QBENXZ ENDP				; FuzzySet::GetDOM
_TEXT	ENDS
PUBLIC	??0FzVery@@AAE@ABV0@@Z				; FzVery::FzVery
EXTRN	??2@YAPAXI@Z:PROC				; operator new
;	COMDAT xdata$x
; File c:\users\teaja\documents\artificial-fun\labravenprojecttest\common\fuzzy\fuzzyhedges.h
xdata$x	SEGMENT
__unwindtable$?Clone@FzVery@@UBEPAVFuzzyTerm@@XZ DD 0ffffffffH
	DD	FLAT:__unwindfunclet$?Clone@FzVery@@UBEPAVFuzzyTerm@@XZ$0
__ehfuncinfo$?Clone@FzVery@@UBEPAVFuzzyTerm@@XZ DD 019930522H
	DD	01H
	DD	FLAT:__unwindtable$?Clone@FzVery@@UBEPAVFuzzyTerm@@XZ
	DD	2 DUP(00H)
	DD	2 DUP(00H)
	DD	00H
	DD	01H
; Function compile flags: /Odtp /RTCsu
xdata$x	ENDS
;	COMDAT ?Clone@FzVery@@UBEPAVFuzzyTerm@@XZ
_TEXT	SEGMENT
tv75 = -28						; size = 4
$T151678 = -24						; size = 4
$T151677 = -20						; size = 4
_this$ = -16						; size = 4
__$EHRec$ = -12						; size = 12
?Clone@FzVery@@UBEPAVFuzzyTerm@@XZ PROC			; FzVery::Clone, COMDAT
; _this$ = ecx

; 35   :   FuzzyTerm* Clone()const{return new FzVery(*this);}

	push	ebp
	mov	ebp, esp
	push	-1
	push	__ehhandler$?Clone@FzVery@@UBEPAVFuzzyTerm@@XZ
	mov	eax, DWORD PTR fs:0
	push	eax
	sub	esp, 16					; 00000010H
	mov	eax, -858993460				; ccccccccH
	mov	DWORD PTR [ebp-28], eax
	mov	DWORD PTR [ebp-24], eax
	mov	DWORD PTR [ebp-20], eax
	mov	DWORD PTR [ebp-16], eax
	mov	eax, DWORD PTR ___security_cookie
	xor	eax, ebp
	push	eax
	lea	eax, DWORD PTR __$EHRec$[ebp]
	mov	DWORD PTR fs:0, eax
	mov	DWORD PTR _this$[ebp], ecx
	push	8
	call	??2@YAPAXI@Z				; operator new
	add	esp, 4
	mov	DWORD PTR $T151678[ebp], eax
	mov	DWORD PTR __$EHRec$[ebp+8], 0
	cmp	DWORD PTR $T151678[ebp], 0
	je	SHORT $LN3@Clone
	mov	eax, DWORD PTR _this$[ebp]
	push	eax
	mov	ecx, DWORD PTR $T151678[ebp]
	call	??0FzVery@@AAE@ABV0@@Z			; FzVery::FzVery
	mov	DWORD PTR tv75[ebp], eax
	jmp	SHORT $LN4@Clone
$LN3@Clone:
	mov	DWORD PTR tv75[ebp], 0
$LN4@Clone:
	mov	ecx, DWORD PTR tv75[ebp]
	mov	DWORD PTR $T151677[ebp], ecx
	mov	DWORD PTR __$EHRec$[ebp+8], -1
	mov	eax, DWORD PTR $T151677[ebp]
	mov	ecx, DWORD PTR __$EHRec$[ebp]
	mov	DWORD PTR fs:0, ecx
	pop	ecx
	add	esp, 28					; 0000001cH
	cmp	ebp, esp
	call	__RTC_CheckEsp
	mov	esp, ebp
	pop	ebp
	ret	0
_TEXT	ENDS
;	COMDAT text$x
text$x	SEGMENT
__unwindfunclet$?Clone@FzVery@@UBEPAVFuzzyTerm@@XZ$0:
	mov	eax, DWORD PTR $T151678[ebp]
	push	eax
	call	??3@YAXPAX@Z				; operator delete
	pop	ecx
	ret	0
__ehhandler$?Clone@FzVery@@UBEPAVFuzzyTerm@@XZ:
	mov	edx, DWORD PTR [esp+8]
	lea	eax, DWORD PTR [edx+12]
	mov	ecx, DWORD PTR [edx-20]
	xor	ecx, eax
	call	@__security_check_cookie@4
	mov	eax, OFFSET __ehfuncinfo$?Clone@FzVery@@UBEPAVFuzzyTerm@@XZ
	jmp	___CxxFrameHandler3
text$x	ENDS
?Clone@FzVery@@UBEPAVFuzzyTerm@@XZ ENDP			; FzVery::Clone
; Function compile flags: /Odtp /RTCsu
;	COMDAT ??0FzVery@@AAE@ABV0@@Z
_TEXT	SEGMENT
_this$ = -4						; size = 4
_inst$ = 8						; size = 4
??0FzVery@@AAE@ABV0@@Z PROC				; FzVery::FzVery, COMDAT
; _this$ = ecx

; 22   :   FzVery(const FzVery& inst):m_Set(inst.m_Set){}

	push	ebp
	mov	ebp, esp
	push	ecx
	mov	DWORD PTR [ebp-4], -858993460		; ccccccccH
	mov	DWORD PTR _this$[ebp], ecx
	mov	ecx, DWORD PTR _this$[ebp]
	call	??0FuzzyTerm@@QAE@XZ
	mov	eax, DWORD PTR _this$[ebp]
	mov	DWORD PTR [eax], OFFSET ??_7FzVery@@6B@
	mov	ecx, DWORD PTR _this$[ebp]
	mov	edx, DWORD PTR _inst$[ebp]
	mov	eax, DWORD PTR [edx+4]
	mov	DWORD PTR [ecx+4], eax
	mov	eax, DWORD PTR _this$[ebp]
	add	esp, 4
	cmp	ebp, esp
	call	__RTC_CheckEsp
	mov	esp, ebp
	pop	ebp
	ret	4
??0FzVery@@AAE@ABV0@@Z ENDP				; FzVery::FzVery
_TEXT	ENDS
PUBLIC	?ClearDOM@FuzzySet@@QAEXXZ			; FuzzySet::ClearDOM
; Function compile flags: /Odtp /RTCsu
;	COMDAT ?ClearDOM@FzVery@@UAEXXZ
_TEXT	SEGMENT
_this$ = -4						; size = 4
?ClearDOM@FzVery@@UAEXXZ PROC				; FzVery::ClearDOM, COMDAT
; _this$ = ecx

; 37   :   void ClearDOM(){m_Set.ClearDOM();}

	push	ebp
	mov	ebp, esp
	push	ecx
	mov	DWORD PTR [ebp-4], -858993460		; ccccccccH
	mov	DWORD PTR _this$[ebp], ecx
	mov	eax, DWORD PTR _this$[ebp]
	mov	ecx, DWORD PTR [eax+4]
	call	?ClearDOM@FuzzySet@@QAEXXZ		; FuzzySet::ClearDOM
	add	esp, 4
	cmp	ebp, esp
	call	__RTC_CheckEsp
	mov	esp, ebp
	pop	ebp
	ret	0
?ClearDOM@FzVery@@UAEXXZ ENDP				; FzVery::ClearDOM
; Function compile flags: /Odtp /RTCsu
; File c:\users\teaja\documents\artificial-fun\labravenprojecttest\common\fuzzy\fuzzyset.h
_TEXT	ENDS
;	COMDAT ?ClearDOM@FuzzySet@@QAEXXZ
_TEXT	SEGMENT
_this$ = -4						; size = 4
?ClearDOM@FuzzySet@@QAEXXZ PROC				; FuzzySet::ClearDOM, COMDAT
; _this$ = ecx

; 48   :   void               ClearDOM(){m_dDOM = 0.0;}  

	push	ebp
	mov	ebp, esp
	push	ecx
	mov	DWORD PTR [ebp-4], -858993460		; ccccccccH
	mov	DWORD PTR _this$[ebp], ecx
	mov	eax, DWORD PTR _this$[ebp]
	fldz
	fstp	QWORD PTR [eax+8]
	mov	esp, ebp
	pop	ebp
	ret	0
?ClearDOM@FuzzySet@@QAEXXZ ENDP				; FuzzySet::ClearDOM
_TEXT	ENDS
PUBLIC	?ORwithDOM@FuzzySet@@QAEXN@Z			; FuzzySet::ORwithDOM
; Function compile flags: /Odtp /RTCsu
; File c:\users\teaja\documents\artificial-fun\labravenprojecttest\common\fuzzy\fuzzyhedges.h
;	COMDAT ?ORwithDOM@FzVery@@UAEXN@Z
_TEXT	SEGMENT
_this$ = -4						; size = 4
_val$ = 8						; size = 8
?ORwithDOM@FzVery@@UAEXN@Z PROC				; FzVery::ORwithDOM, COMDAT
; _this$ = ecx

; 38   :   void ORwithDOM(double val){m_Set.ORwithDOM(val * val);}

	push	ebp
	mov	ebp, esp
	push	ecx
	mov	DWORD PTR [ebp-4], -858993460		; ccccccccH
	mov	DWORD PTR _this$[ebp], ecx
	fld	QWORD PTR _val$[ebp]
	fmul	QWORD PTR _val$[ebp]
	sub	esp, 8
	fstp	QWORD PTR [esp]
	mov	eax, DWORD PTR _this$[ebp]
	mov	ecx, DWORD PTR [eax+4]
	call	?ORwithDOM@FuzzySet@@QAEXN@Z		; FuzzySet::ORwithDOM
	add	esp, 4
	cmp	ebp, esp
	call	__RTC_CheckEsp
	mov	esp, ebp
	pop	ebp
	ret	8
?ORwithDOM@FzVery@@UAEXN@Z ENDP				; FzVery::ORwithDOM
; Function compile flags: /Odtp /RTCsu
; File c:\users\teaja\documents\artificial-fun\labravenprojecttest\common\fuzzy\fuzzyset.h
_TEXT	ENDS
;	COMDAT ?ORwithDOM@FuzzySet@@QAEXN@Z
_TEXT	SEGMENT
_this$ = -4						; size = 4
_val$ = 8						; size = 8
?ORwithDOM@FuzzySet@@QAEXN@Z PROC			; FuzzySet::ORwithDOM, COMDAT
; _this$ = ecx

; 43   :   void               ORwithDOM(double val){if (val > m_dDOM) m_dDOM = val;}

	push	ebp
	mov	ebp, esp
	push	ecx
	mov	DWORD PTR [ebp-4], -858993460		; ccccccccH
	mov	DWORD PTR _this$[ebp], ecx
	mov	eax, DWORD PTR _this$[ebp]
	fld	QWORD PTR [eax+8]
	fcomp	QWORD PTR _val$[ebp]
	fnstsw	ax
	test	ah, 5
	jp	SHORT $LN1@ORwithDOM
	mov	ecx, DWORD PTR _this$[ebp]
	fld	QWORD PTR _val$[ebp]
	fstp	QWORD PTR [ecx+8]
$LN1@ORwithDOM:
	mov	esp, ebp
	pop	ebp
	ret	8
?ORwithDOM@FuzzySet@@QAEXN@Z ENDP			; FuzzySet::ORwithDOM
; Function compile flags: /Odtp /RTCsu
_TEXT	ENDS
;	COMDAT ??_GFzVery@@UAEPAXI@Z
_TEXT	SEGMENT
_this$ = -4						; size = 4
___flags$ = 8						; size = 4
??_GFzVery@@UAEPAXI@Z PROC				; FzVery::`scalar deleting destructor', COMDAT
; _this$ = ecx
	push	ebp
	mov	ebp, esp
	push	ecx
	mov	DWORD PTR [ebp-4], -858993460		; ccccccccH
	mov	DWORD PTR _this$[ebp], ecx
	mov	ecx, DWORD PTR _this$[ebp]
	call	??1FzVery@@UAE@XZ
	mov	eax, DWORD PTR ___flags$[ebp]
	and	eax, 1
	je	SHORT $LN1@scalar@4
	mov	ecx, DWORD PTR _this$[ebp]
	push	ecx
	call	??3@YAXPAX@Z				; operator delete
	add	esp, 4
$LN1@scalar@4:
	mov	eax, DWORD PTR _this$[ebp]
	add	esp, 4
	cmp	ebp, esp
	call	__RTC_CheckEsp
	mov	esp, ebp
	pop	ebp
	ret	4
??_GFzVery@@UAEPAXI@Z ENDP				; FzVery::`scalar deleting destructor'
; Function compile flags: /Odtp /RTCsu
_TEXT	ENDS
;	COMDAT ??1FzVery@@UAE@XZ
_TEXT	SEGMENT
_this$ = -4						; size = 4
??1FzVery@@UAE@XZ PROC					; FzVery::~FzVery, COMDAT
; _this$ = ecx
	push	ebp
	mov	ebp, esp
	push	ecx
	mov	DWORD PTR [ebp-4], -858993460		; ccccccccH
	mov	DWORD PTR _this$[ebp], ecx
	mov	ecx, DWORD PTR _this$[ebp]
	call	??1FuzzyTerm@@UAE@XZ			; FuzzyTerm::~FuzzyTerm
	add	esp, 4
	cmp	ebp, esp
	call	__RTC_CheckEsp
	mov	esp, ebp
	pop	ebp
	ret	0
??1FzVery@@UAE@XZ ENDP					; FzVery::~FzVery
_TEXT	ENDS
PUBLIC	??_7FzFairly@@6B@				; FzFairly::`vftable'
PUBLIC	??_R4FzFairly@@6B@				; FzFairly::`RTTI Complete Object Locator'
PUBLIC	??_R0?AVFzFairly@@@8				; FzFairly `RTTI Type Descriptor'
PUBLIC	??_R3FzFairly@@8				; FzFairly::`RTTI Class Hierarchy Descriptor'
PUBLIC	??_R2FzFairly@@8				; FzFairly::`RTTI Base Class Array'
PUBLIC	??_R1A@?0A@EA@FzFairly@@8			; FzFairly::`RTTI Base Class Descriptor at (0,-1,0,64)'
PUBLIC	?Clone@FzFairly@@UBEPAVFuzzyTerm@@XZ		; FzFairly::Clone
PUBLIC	?GetDOM@FzFairly@@UBENXZ			; FzFairly::GetDOM
PUBLIC	?ClearDOM@FzFairly@@UAEXXZ			; FzFairly::ClearDOM
PUBLIC	?ORwithDOM@FzFairly@@UAEXN@Z			; FzFairly::ORwithDOM
EXTRN	??_EFzFairly@@UAEPAXI@Z:PROC			; FzFairly::`vector deleting destructor'
;	COMDAT ??_R1A@?0A@EA@FzFairly@@8
; File c:\users\teaja\documents\artificial-fun\labravenprojecttest\common\fuzzy\fuzzyhedges.h
rdata$r	SEGMENT
??_R1A@?0A@EA@FzFairly@@8 DD FLAT:??_R0?AVFzFairly@@@8	; FzFairly::`RTTI Base Class Descriptor at (0,-1,0,64)'
	DD	01H
	DD	00H
	DD	0ffffffffH
	DD	00H
	DD	040H
	DD	FLAT:??_R3FzFairly@@8
rdata$r	ENDS
;	COMDAT ??_R2FzFairly@@8
rdata$r	SEGMENT
??_R2FzFairly@@8 DD FLAT:??_R1A@?0A@EA@FzFairly@@8	; FzFairly::`RTTI Base Class Array'
	DD	FLAT:??_R1A@?0A@EA@FuzzyTerm@@8
rdata$r	ENDS
;	COMDAT ??_R3FzFairly@@8
rdata$r	SEGMENT
??_R3FzFairly@@8 DD 00H					; FzFairly::`RTTI Class Hierarchy Descriptor'
	DD	00H
	DD	02H
	DD	FLAT:??_R2FzFairly@@8
rdata$r	ENDS
;	COMDAT ??_R0?AVFzFairly@@@8
_DATA	SEGMENT
??_R0?AVFzFairly@@@8 DD FLAT:??_7type_info@@6B@		; FzFairly `RTTI Type Descriptor'
	DD	00H
	DB	'.?AVFzFairly@@', 00H
_DATA	ENDS
;	COMDAT ??_R4FzFairly@@6B@
rdata$r	SEGMENT
??_R4FzFairly@@6B@ DD 00H				; FzFairly::`RTTI Complete Object Locator'
	DD	00H
	DD	00H
	DD	FLAT:??_R0?AVFzFairly@@@8
	DD	FLAT:??_R3FzFairly@@8
rdata$r	ENDS
;	COMDAT ??_7FzFairly@@6B@
CONST	SEGMENT
??_7FzFairly@@6B@ DD FLAT:??_R4FzFairly@@6B@		; FzFairly::`vftable'
	DD	FLAT:??_EFzFairly@@UAEPAXI@Z
	DD	FLAT:?Clone@FzFairly@@UBEPAVFuzzyTerm@@XZ
	DD	FLAT:?GetDOM@FzFairly@@UBENXZ
	DD	FLAT:?ClearDOM@FzFairly@@UAEXXZ
	DD	FLAT:?ORwithDOM@FzFairly@@UAEXN@Z
; Function compile flags: /Odtp /RTCsu
CONST	ENDS
;	COMDAT ??0FzFairly@@QAE@AAVFzSet@@@Z
_TEXT	SEGMENT
_this$ = -4						; size = 4
_ft$ = 8						; size = 4
??0FzFairly@@QAE@AAVFzSet@@@Z PROC			; FzFairly::FzFairly, COMDAT
; _this$ = ecx

; 54   :   FzFairly(FzSet& ft):m_Set(ft.m_Set){}

	push	ebp
	mov	ebp, esp
	push	ecx
	mov	DWORD PTR [ebp-4], -858993460		; ccccccccH
	mov	DWORD PTR _this$[ebp], ecx
	mov	ecx, DWORD PTR _this$[ebp]
	call	??0FuzzyTerm@@QAE@XZ
	mov	eax, DWORD PTR _this$[ebp]
	mov	DWORD PTR [eax], OFFSET ??_7FzFairly@@6B@
	mov	ecx, DWORD PTR _this$[ebp]
	mov	edx, DWORD PTR _ft$[ebp]
	mov	eax, DWORD PTR [edx+4]
	mov	DWORD PTR [ecx+4], eax
	mov	eax, DWORD PTR _this$[ebp]
	add	esp, 4
	cmp	ebp, esp
	call	__RTC_CheckEsp
	mov	esp, ebp
	pop	ebp
	ret	4
??0FzFairly@@QAE@AAVFzSet@@@Z ENDP			; FzFairly::FzFairly
_TEXT	ENDS
EXTRN	_sqrt:PROC
; Function compile flags: /Odtp /RTCsu
;	COMDAT ?GetDOM@FzFairly@@UBENXZ
_TEXT	SEGMENT
_this$ = -4						; size = 4
?GetDOM@FzFairly@@UBENXZ PROC				; FzFairly::GetDOM, COMDAT
; _this$ = ecx

; 57   :   {

	push	ebp
	mov	ebp, esp
	push	ecx
	mov	DWORD PTR [ebp-4], -858993460		; ccccccccH
	mov	DWORD PTR _this$[ebp], ecx

; 58   :     return sqrt(m_Set.GetDOM());

	mov	eax, DWORD PTR _this$[ebp]
	mov	ecx, DWORD PTR [eax+4]
	call	?GetDOM@FuzzySet@@QBENXZ		; FuzzySet::GetDOM
	sub	esp, 8
	fstp	QWORD PTR [esp]
	call	_sqrt
	add	esp, 8

; 59   :   }

	add	esp, 4
	cmp	ebp, esp
	call	__RTC_CheckEsp
	mov	esp, ebp
	pop	ebp
	ret	0
?GetDOM@FzFairly@@UBENXZ ENDP				; FzFairly::GetDOM
_TEXT	ENDS
PUBLIC	??0FzFairly@@AAE@ABV0@@Z			; FzFairly::FzFairly
;	COMDAT xdata$x
xdata$x	SEGMENT
__unwindtable$?Clone@FzFairly@@UBEPAVFuzzyTerm@@XZ DD 0ffffffffH
	DD	FLAT:__unwindfunclet$?Clone@FzFairly@@UBEPAVFuzzyTerm@@XZ$0
__ehfuncinfo$?Clone@FzFairly@@UBEPAVFuzzyTerm@@XZ DD 019930522H
	DD	01H
	DD	FLAT:__unwindtable$?Clone@FzFairly@@UBEPAVFuzzyTerm@@XZ
	DD	2 DUP(00H)
	DD	2 DUP(00H)
	DD	00H
	DD	01H
; Function compile flags: /Odtp /RTCsu
xdata$x	ENDS
;	COMDAT ?Clone@FzFairly@@UBEPAVFuzzyTerm@@XZ
_TEXT	SEGMENT
tv75 = -28						; size = 4
$T151712 = -24						; size = 4
$T151711 = -20						; size = 4
_this$ = -16						; size = 4
__$EHRec$ = -12						; size = 12
?Clone@FzFairly@@UBEPAVFuzzyTerm@@XZ PROC		; FzFairly::Clone, COMDAT
; _this$ = ecx

; 61   :   FuzzyTerm* Clone()const{return new FzFairly(*this);}

	push	ebp
	mov	ebp, esp
	push	-1
	push	__ehhandler$?Clone@FzFairly@@UBEPAVFuzzyTerm@@XZ
	mov	eax, DWORD PTR fs:0
	push	eax
	sub	esp, 16					; 00000010H
	mov	eax, -858993460				; ccccccccH
	mov	DWORD PTR [ebp-28], eax
	mov	DWORD PTR [ebp-24], eax
	mov	DWORD PTR [ebp-20], eax
	mov	DWORD PTR [ebp-16], eax
	mov	eax, DWORD PTR ___security_cookie
	xor	eax, ebp
	push	eax
	lea	eax, DWORD PTR __$EHRec$[ebp]
	mov	DWORD PTR fs:0, eax
	mov	DWORD PTR _this$[ebp], ecx
	push	8
	call	??2@YAPAXI@Z				; operator new
	add	esp, 4
	mov	DWORD PTR $T151712[ebp], eax
	mov	DWORD PTR __$EHRec$[ebp+8], 0
	cmp	DWORD PTR $T151712[ebp], 0
	je	SHORT $LN3@Clone@2
	mov	eax, DWORD PTR _this$[ebp]
	push	eax
	mov	ecx, DWORD PTR $T151712[ebp]
	call	??0FzFairly@@AAE@ABV0@@Z		; FzFairly::FzFairly
	mov	DWORD PTR tv75[ebp], eax
	jmp	SHORT $LN4@Clone@2
$LN3@Clone@2:
	mov	DWORD PTR tv75[ebp], 0
$LN4@Clone@2:
	mov	ecx, DWORD PTR tv75[ebp]
	mov	DWORD PTR $T151711[ebp], ecx
	mov	DWORD PTR __$EHRec$[ebp+8], -1
	mov	eax, DWORD PTR $T151711[ebp]
	mov	ecx, DWORD PTR __$EHRec$[ebp]
	mov	DWORD PTR fs:0, ecx
	pop	ecx
	add	esp, 28					; 0000001cH
	cmp	ebp, esp
	call	__RTC_CheckEsp
	mov	esp, ebp
	pop	ebp
	ret	0
_TEXT	ENDS
;	COMDAT text$x
text$x	SEGMENT
__unwindfunclet$?Clone@FzFairly@@UBEPAVFuzzyTerm@@XZ$0:
	mov	eax, DWORD PTR $T151712[ebp]
	push	eax
	call	??3@YAXPAX@Z				; operator delete
	pop	ecx
	ret	0
__ehhandler$?Clone@FzFairly@@UBEPAVFuzzyTerm@@XZ:
	mov	edx, DWORD PTR [esp+8]
	lea	eax, DWORD PTR [edx+12]
	mov	ecx, DWORD PTR [edx-20]
	xor	ecx, eax
	call	@__security_check_cookie@4
	mov	eax, OFFSET __ehfuncinfo$?Clone@FzFairly@@UBEPAVFuzzyTerm@@XZ
	jmp	___CxxFrameHandler3
text$x	ENDS
?Clone@FzFairly@@UBEPAVFuzzyTerm@@XZ ENDP		; FzFairly::Clone
; Function compile flags: /Odtp /RTCsu
;	COMDAT ??0FzFairly@@AAE@ABV0@@Z
_TEXT	SEGMENT
_this$ = -4						; size = 4
_inst$ = 8						; size = 4
??0FzFairly@@AAE@ABV0@@Z PROC				; FzFairly::FzFairly, COMDAT
; _this$ = ecx

; 49   :   FzFairly(const FzFairly& inst):m_Set(inst.m_Set){}

	push	ebp
	mov	ebp, esp
	push	ecx
	mov	DWORD PTR [ebp-4], -858993460		; ccccccccH
	mov	DWORD PTR _this$[ebp], ecx
	mov	ecx, DWORD PTR _this$[ebp]
	call	??0FuzzyTerm@@QAE@XZ
	mov	eax, DWORD PTR _this$[ebp]
	mov	DWORD PTR [eax], OFFSET ??_7FzFairly@@6B@
	mov	ecx, DWORD PTR _this$[ebp]
	mov	edx, DWORD PTR _inst$[ebp]
	mov	eax, DWORD PTR [edx+4]
	mov	DWORD PTR [ecx+4], eax
	mov	eax, DWORD PTR _this$[ebp]
	add	esp, 4
	cmp	ebp, esp
	call	__RTC_CheckEsp
	mov	esp, ebp
	pop	ebp
	ret	4
??0FzFairly@@AAE@ABV0@@Z ENDP				; FzFairly::FzFairly
; Function compile flags: /Odtp /RTCsu
_TEXT	ENDS
;	COMDAT ?ClearDOM@FzFairly@@UAEXXZ
_TEXT	SEGMENT
_this$ = -4						; size = 4
?ClearDOM@FzFairly@@UAEXXZ PROC				; FzFairly::ClearDOM, COMDAT
; _this$ = ecx

; 63   :   void ClearDOM(){m_Set.ClearDOM();}

	push	ebp
	mov	ebp, esp
	push	ecx
	mov	DWORD PTR [ebp-4], -858993460		; ccccccccH
	mov	DWORD PTR _this$[ebp], ecx
	mov	eax, DWORD PTR _this$[ebp]
	mov	ecx, DWORD PTR [eax+4]
	call	?ClearDOM@FuzzySet@@QAEXXZ		; FuzzySet::ClearDOM
	add	esp, 4
	cmp	ebp, esp
	call	__RTC_CheckEsp
	mov	esp, ebp
	pop	ebp
	ret	0
?ClearDOM@FzFairly@@UAEXXZ ENDP				; FzFairly::ClearDOM
; Function compile flags: /Odtp /RTCsu
_TEXT	ENDS
;	COMDAT ?ORwithDOM@FzFairly@@UAEXN@Z
_TEXT	SEGMENT
_this$ = -4						; size = 4
_val$ = 8						; size = 8
?ORwithDOM@FzFairly@@UAEXN@Z PROC			; FzFairly::ORwithDOM, COMDAT
; _this$ = ecx

; 64   :   void ORwithDOM(double val){m_Set.ORwithDOM(sqrt(val));}

	push	ebp
	mov	ebp, esp
	push	ecx
	mov	DWORD PTR [ebp-4], -858993460		; ccccccccH
	mov	DWORD PTR _this$[ebp], ecx
	sub	esp, 8
	fld	QWORD PTR _val$[ebp]
	fstp	QWORD PTR [esp]
	call	_sqrt
	fstp	QWORD PTR [esp]
	mov	eax, DWORD PTR _this$[ebp]
	mov	ecx, DWORD PTR [eax+4]
	call	?ORwithDOM@FuzzySet@@QAEXN@Z		; FuzzySet::ORwithDOM
	add	esp, 4
	cmp	ebp, esp
	call	__RTC_CheckEsp
	mov	esp, ebp
	pop	ebp
	ret	8
?ORwithDOM@FzFairly@@UAEXN@Z ENDP			; FzFairly::ORwithDOM
; Function compile flags: /Odtp /RTCsu
_TEXT	ENDS
;	COMDAT ??_GFzFairly@@UAEPAXI@Z
_TEXT	SEGMENT
_this$ = -4						; size = 4
___flags$ = 8						; size = 4
??_GFzFairly@@UAEPAXI@Z PROC				; FzFairly::`scalar deleting destructor', COMDAT
; _this$ = ecx
	push	ebp
	mov	ebp, esp
	push	ecx
	mov	DWORD PTR [ebp-4], -858993460		; ccccccccH
	mov	DWORD PTR _this$[ebp], ecx
	mov	ecx, DWORD PTR _this$[ebp]
	call	??1FzFairly@@UAE@XZ
	mov	eax, DWORD PTR ___flags$[ebp]
	and	eax, 1
	je	SHORT $LN1@scalar@5
	mov	ecx, DWORD PTR _this$[ebp]
	push	ecx
	call	??3@YAXPAX@Z				; operator delete
	add	esp, 4
$LN1@scalar@5:
	mov	eax, DWORD PTR _this$[ebp]
	add	esp, 4
	cmp	ebp, esp
	call	__RTC_CheckEsp
	mov	esp, ebp
	pop	ebp
	ret	4
??_GFzFairly@@UAEPAXI@Z ENDP				; FzFairly::`scalar deleting destructor'
; Function compile flags: /Odtp /RTCsu
_TEXT	ENDS
;	COMDAT ??1FzFairly@@UAE@XZ
_TEXT	SEGMENT
_this$ = -4						; size = 4
??1FzFairly@@UAE@XZ PROC				; FzFairly::~FzFairly, COMDAT
; _this$ = ecx
	push	ebp
	mov	ebp, esp
	push	ecx
	mov	DWORD PTR [ebp-4], -858993460		; ccccccccH
	mov	DWORD PTR _this$[ebp], ecx
	mov	ecx, DWORD PTR _this$[ebp]
	call	??1FuzzyTerm@@UAE@XZ			; FuzzyTerm::~FuzzyTerm
	add	esp, 4
	cmp	ebp, esp
	call	__RTC_CheckEsp
	mov	esp, ebp
	pop	ebp
	ret	0
??1FzFairly@@UAE@XZ ENDP				; FzFairly::~FzFairly
_TEXT	ENDS
PUBLIC	?ClosedShape@Cgdi@@QAEXABV?$vector@UVector2D@@V?$allocator@UVector2D@@@std@@@std@@@Z ; Cgdi::ClosedShape
PUBLIC	?BluePen@Cgdi@@QAEXXZ				; Cgdi::BluePen
PUBLIC	??4?$vector@UVector2D@@V?$allocator@UVector2D@@@std@@@std@@QAEAAV01@$$QAV01@@Z ; std::vector<Vector2D,std::allocator<Vector2D> >::operator=
PUBLIC	?WorldTransform@@YA?AV?$vector@UVector2D@@V?$allocator@UVector2D@@@std@@@std@@AAV12@ABUVector2D@@111@Z ; WorldTransform
PUBLIC	?Pos@BaseGameEntity@@QBE?AUVector2D@@XZ		; BaseGameEntity::Pos
PUBLIC	?Perp@Vector2D@@QBE?AU1@XZ			; Vector2D::Perp
PUBLIC	?Facing@AbstRaven_Bot@@QBE?AUVector2D@@XZ	; AbstRaven_Bot::Facing
PUBLIC	?Scale@BaseGameEntity@@QBE?AUVector2D@@XZ	; BaseGameEntity::Scale
EXTRN	?Instance@Cgdi@@SAPAV1@XZ:PROC			; Cgdi::Instance
xdata$x	SEGMENT
__unwindtable$?Render@RailGun@@UAEXXZ DD 0ffffffffH
	DD	FLAT:__unwindfunclet$?Render@RailGun@@UAEXXZ$0
__ehfuncinfo$?Render@RailGun@@UAEXXZ DD 019930522H
	DD	01H
	DD	FLAT:__unwindtable$?Render@RailGun@@UAEXXZ
	DD	2 DUP(00H)
	DD	2 DUP(00H)
	DD	00H
	DD	01H
; Function compile flags: /Odtp /RTCsu
; File c:\users\teaja\documents\artificial-fun\labravenprojecttest\raven\armory\weapon_railgun.cpp
xdata$x	ENDS
_TEXT	SEGMENT
tv171 = -124						; size = 4
tv172 = -120						; size = 4
$T151741 = -116						; size = 20
$T151740 = -96						; size = 16
$T151739 = -80						; size = 16
$T151738 = -64						; size = 16
$T151737 = -48						; size = 16
$T151736 = -32						; size = 16
_this$ = -16						; size = 4
__$EHRec$ = -12						; size = 12
?Render@RailGun@@UAEXXZ PROC				; RailGun::Render
; _this$ = ecx

; 125  : {

	push	ebp
	mov	ebp, esp
	push	-1
	push	__ehhandler$?Render@RailGun@@UAEXXZ
	mov	eax, DWORD PTR fs:0
	push	eax
	sub	esp, 112				; 00000070H
	push	edi
	push	ecx
	lea	edi, DWORD PTR [ebp-124]
	mov	ecx, 28					; 0000001cH
	mov	eax, -858993460				; ccccccccH
	rep stosd
	pop	ecx
	mov	eax, DWORD PTR ___security_cookie
	xor	eax, ebp
	push	eax
	lea	eax, DWORD PTR __$EHRec$[ebp]
	mov	DWORD PTR fs:0, eax
	mov	DWORD PTR _this$[ebp], ecx

; 126  :     m_vecWeaponVBTrans = WorldTransform(m_vecWeaponVB,
; 127  :                                    m_pOwner->Pos(),
; 128  :                                    m_pOwner->Facing(),
; 129  :                                    m_pOwner->Facing().Perp(),
; 130  :                                    m_pOwner->Scale());

	lea	eax, DWORD PTR $T151736[ebp]
	push	eax
	mov	ecx, DWORD PTR _this$[ebp]
	mov	ecx, DWORD PTR [ecx+8]
	call	?Scale@BaseGameEntity@@QBE?AUVector2D@@XZ ; BaseGameEntity::Scale
	push	eax
	lea	edx, DWORD PTR $T151738[ebp]
	push	edx
	lea	eax, DWORD PTR $T151737[ebp]
	push	eax
	mov	ecx, DWORD PTR _this$[ebp]
	mov	ecx, DWORD PTR [ecx+8]
	call	?Facing@AbstRaven_Bot@@QBE?AUVector2D@@XZ ; AbstRaven_Bot::Facing
	mov	ecx, eax
	call	?Perp@Vector2D@@QBE?AU1@XZ		; Vector2D::Perp
	push	eax
	lea	edx, DWORD PTR $T151739[ebp]
	push	edx
	mov	eax, DWORD PTR _this$[ebp]
	mov	ecx, DWORD PTR [eax+8]
	call	?Facing@AbstRaven_Bot@@QBE?AUVector2D@@XZ ; AbstRaven_Bot::Facing
	push	eax
	lea	ecx, DWORD PTR $T151740[ebp]
	push	ecx
	mov	edx, DWORD PTR _this$[ebp]
	mov	ecx, DWORD PTR [edx+8]
	call	?Pos@BaseGameEntity@@QBE?AUVector2D@@XZ	; BaseGameEntity::Pos
	push	eax
	mov	eax, DWORD PTR _this$[ebp]
	add	eax, 104				; 00000068H
	push	eax
	lea	ecx, DWORD PTR $T151741[ebp]
	push	ecx
	call	?WorldTransform@@YA?AV?$vector@UVector2D@@V?$allocator@UVector2D@@@std@@@std@@AAV12@ABUVector2D@@111@Z ; WorldTransform
	add	esp, 24					; 00000018H
	mov	DWORD PTR tv172[ebp], eax
	mov	edx, DWORD PTR tv172[ebp]
	mov	DWORD PTR tv171[ebp], edx
	mov	DWORD PTR __$EHRec$[ebp+8], 0
	mov	eax, DWORD PTR tv171[ebp]
	push	eax
	mov	ecx, DWORD PTR _this$[ebp]
	add	ecx, 124				; 0000007cH
	call	??4?$vector@UVector2D@@V?$allocator@UVector2D@@@std@@@std@@QAEAAV01@$$QAV01@@Z ; std::vector<Vector2D,std::allocator<Vector2D> >::operator=
	mov	DWORD PTR __$EHRec$[ebp+8], -1
	lea	ecx, DWORD PTR $T151741[ebp]
	call	??1?$vector@UVector2D@@V?$allocator@UVector2D@@@std@@@std@@QAE@XZ ; std::vector<Vector2D,std::allocator<Vector2D> >::~vector<Vector2D,std::allocator<Vector2D> >

; 131  : 
; 132  :   gdi->BluePen();

	call	?Instance@Cgdi@@SAPAV1@XZ		; Cgdi::Instance
	mov	ecx, eax
	call	?BluePen@Cgdi@@QAEXXZ			; Cgdi::BluePen

; 133  : 
; 134  :   gdi->ClosedShape(m_vecWeaponVBTrans);

	mov	ecx, DWORD PTR _this$[ebp]
	add	ecx, 124				; 0000007cH
	push	ecx
	call	?Instance@Cgdi@@SAPAV1@XZ		; Cgdi::Instance
	mov	ecx, eax
	call	?ClosedShape@Cgdi@@QAEXABV?$vector@UVector2D@@V?$allocator@UVector2D@@@std@@@std@@@Z ; Cgdi::ClosedShape

; 135  : }

	mov	ecx, DWORD PTR __$EHRec$[ebp]
	mov	DWORD PTR fs:0, ecx
	pop	ecx
	pop	edi
	add	esp, 124				; 0000007cH
	cmp	ebp, esp
	call	__RTC_CheckEsp
	mov	esp, ebp
	pop	ebp
	ret	0
_TEXT	ENDS
text$x	SEGMENT
__unwindfunclet$?Render@RailGun@@UAEXXZ$0:
	lea	ecx, DWORD PTR $T151741[ebp]
	jmp	??1?$vector@UVector2D@@V?$allocator@UVector2D@@@std@@@std@@QAE@XZ ; std::vector<Vector2D,std::allocator<Vector2D> >::~vector<Vector2D,std::allocator<Vector2D> >
__ehhandler$?Render@RailGun@@UAEXXZ:
	mov	edx, DWORD PTR [esp+8]
	lea	eax, DWORD PTR [edx+12]
	mov	ecx, DWORD PTR [edx-120]
	xor	ecx, eax
	call	@__security_check_cookie@4
	mov	eax, OFFSET __ehfuncinfo$?Render@RailGun@@UAEXXZ
	jmp	___CxxFrameHandler3
text$x	ENDS
?Render@RailGun@@UAEXXZ ENDP				; RailGun::Render
; Function compile flags: /Odtp /RTCsu
; File c:\users\teaja\documents\artificial-fun\labravenprojecttest\common\2d\vector2d.h
;	COMDAT ?Perp@Vector2D@@QBE?AU1@XZ
_TEXT	SEGMENT
_this$ = -4						; size = 4
___$ReturnUdt$ = 8					; size = 4
?Perp@Vector2D@@QBE?AU1@XZ PROC				; Vector2D::Perp, COMDAT
; _this$ = ecx

; 176  : {

	push	ebp
	mov	ebp, esp
	push	ecx
	mov	DWORD PTR [ebp-4], -858993460		; ccccccccH
	mov	DWORD PTR _this$[ebp], ecx

; 177  :   return Vector2D(-y, x);

	mov	eax, DWORD PTR _this$[ebp]
	sub	esp, 8
	fld	QWORD PTR [eax]
	fstp	QWORD PTR [esp]
	mov	ecx, DWORD PTR _this$[ebp]
	fld	QWORD PTR [ecx+8]
	fchs
	sub	esp, 8
	fstp	QWORD PTR [esp]
	mov	ecx, DWORD PTR ___$ReturnUdt$[ebp]
	call	??0Vector2D@@QAE@NN@Z			; Vector2D::Vector2D
	mov	eax, DWORD PTR ___$ReturnUdt$[ebp]

; 178  : }

	add	esp, 4
	cmp	ebp, esp
	call	__RTC_CheckEsp
	mov	esp, ebp
	pop	ebp
	ret	4
?Perp@Vector2D@@QBE?AU1@XZ ENDP				; Vector2D::Perp
_TEXT	ENDS
PUBLIC	??0?$vector@UVector2D@@V?$allocator@UVector2D@@@std@@@std@@QAE@$$QAV01@@Z ; std::vector<Vector2D,std::allocator<Vector2D> >::vector<Vector2D,std::allocator<Vector2D> >
PUBLIC	?TransformVector2Ds@C2DMatrix@@QAEXAAV?$vector@UVector2D@@V?$allocator@UVector2D@@@std@@@std@@@Z ; C2DMatrix::TransformVector2Ds
PUBLIC	?Translate@C2DMatrix@@QAEXNN@Z			; C2DMatrix::Translate
PUBLIC	?Rotate@C2DMatrix@@QAEXABUVector2D@@0@Z		; C2DMatrix::Rotate
PUBLIC	?Scale@C2DMatrix@@QAEXNN@Z			; C2DMatrix::Scale
PUBLIC	??0C2DMatrix@@QAE@XZ				; C2DMatrix::C2DMatrix
PUBLIC	??0?$vector@UVector2D@@V?$allocator@UVector2D@@@std@@@std@@QAE@ABV01@@Z ; std::vector<Vector2D,std::allocator<Vector2D> >::vector<Vector2D,std::allocator<Vector2D> >
;	COMDAT xdata$x
; File c:\users\teaja\documents\artificial-fun\labravenprojecttest\common\2d\transformations.h
xdata$x	SEGMENT
__unwindtable$?WorldTransform@@YA?AV?$vector@UVector2D@@V?$allocator@UVector2D@@@std@@@std@@AAV12@ABUVector2D@@111@Z DD 0ffffffffH
	DD	FLAT:__unwindfunclet$?WorldTransform@@YA?AV?$vector@UVector2D@@V?$allocator@UVector2D@@@std@@@std@@AAV12@ABUVector2D@@111@Z$1
	DD	00H
	DD	FLAT:__unwindfunclet$?WorldTransform@@YA?AV?$vector@UVector2D@@V?$allocator@UVector2D@@@std@@@std@@AAV12@ABUVector2D@@111@Z$0
__ehfuncinfo$?WorldTransform@@YA?AV?$vector@UVector2D@@V?$allocator@UVector2D@@@std@@@std@@AAV12@ABUVector2D@@111@Z DD 019930522H
	DD	02H
	DD	FLAT:__unwindtable$?WorldTransform@@YA?AV?$vector@UVector2D@@V?$allocator@UVector2D@@@std@@@std@@AAV12@ABUVector2D@@111@Z
	DD	2 DUP(00H)
	DD	2 DUP(00H)
	DD	00H
	DD	01H
; Function compile flags: /Odtp /RTCsu
xdata$x	ENDS
;	COMDAT ?WorldTransform@@YA?AV?$vector@UVector2D@@V?$allocator@UVector2D@@@std@@@std@@AAV12@ABUVector2D@@111@Z
_TEXT	SEGMENT
$T151752 = -124						; size = 4
_matTransform$ = -116					; size = 72
_TranVector2Ds$ = -36					; size = 20
__$EHRec$ = -12						; size = 12
___$ReturnUdt$ = 8					; size = 4
_points$ = 12						; size = 4
_pos$ = 16						; size = 4
_forward$ = 20						; size = 4
_side$ = 24						; size = 4
_scale$ = 28						; size = 4
?WorldTransform@@YA?AV?$vector@UVector2D@@V?$allocator@UVector2D@@@std@@@std@@AAV12@ABUVector2D@@111@Z PROC ; WorldTransform, COMDAT

; 34   : {

	push	ebp
	mov	ebp, esp
	push	-1
	push	__ehhandler$?WorldTransform@@YA?AV?$vector@UVector2D@@V?$allocator@UVector2D@@@std@@@std@@AAV12@ABUVector2D@@111@Z
	mov	eax, DWORD PTR fs:0
	push	eax
	sub	esp, 112				; 00000070H
	push	edi
	lea	edi, DWORD PTR [ebp-124]
	mov	ecx, 28					; 0000001cH
	mov	eax, -858993460				; ccccccccH
	rep stosd
	mov	eax, DWORD PTR ___security_cookie
	xor	eax, ebp
	push	eax
	lea	eax, DWORD PTR __$EHRec$[ebp]
	mov	DWORD PTR fs:0, eax
	mov	DWORD PTR $T151752[ebp], 0

; 35   : 	//copy the original vertices into the buffer about to be transformed
; 36   :   std::vector<Vector2D> TranVector2Ds = points;

	mov	eax, DWORD PTR _points$[ebp]
	push	eax
	lea	ecx, DWORD PTR _TranVector2Ds$[ebp]
	call	??0?$vector@UVector2D@@V?$allocator@UVector2D@@@std@@@std@@QAE@ABV01@@Z ; std::vector<Vector2D,std::allocator<Vector2D> >::vector<Vector2D,std::allocator<Vector2D> >
	mov	DWORD PTR __$EHRec$[ebp+8], 1

; 37   :   
; 38   :   //create a transformation matrix
; 39   : 	C2DMatrix matTransform;

	lea	ecx, DWORD PTR _matTransform$[ebp]
	call	??0C2DMatrix@@QAE@XZ			; C2DMatrix::C2DMatrix

; 40   : 	
; 41   : 	//scale
; 42   :   if ( (scale.x != 1.0) || (scale.y != 1.0) )

	mov	ecx, DWORD PTR _scale$[ebp]
	fld	QWORD PTR [ecx]
	fld1
	fucompp
	fnstsw	ax
	test	ah, 68					; 00000044H
	jp	SHORT $LN1@WorldTrans
	mov	edx, DWORD PTR _scale$[ebp]
	fld	QWORD PTR [edx+8]
	fld1
	fucompp
	fnstsw	ax
	test	ah, 68					; 00000044H
	jnp	SHORT $LN2@WorldTrans
$LN1@WorldTrans:

; 43   :   {
; 44   : 	  matTransform.Scale(scale.x, scale.y);

	mov	eax, DWORD PTR _scale$[ebp]
	sub	esp, 8
	fld	QWORD PTR [eax+8]
	fstp	QWORD PTR [esp]
	mov	ecx, DWORD PTR _scale$[ebp]
	sub	esp, 8
	fld	QWORD PTR [ecx]
	fstp	QWORD PTR [esp]
	lea	ecx, DWORD PTR _matTransform$[ebp]
	call	?Scale@C2DMatrix@@QAEXNN@Z		; C2DMatrix::Scale
$LN2@WorldTrans:

; 45   :   }
; 46   : 
; 47   : 	//rotate
; 48   : 	matTransform.Rotate(forward, side);

	mov	edx, DWORD PTR _side$[ebp]
	push	edx
	mov	eax, DWORD PTR _forward$[ebp]
	push	eax
	lea	ecx, DWORD PTR _matTransform$[ebp]
	call	?Rotate@C2DMatrix@@QAEXABUVector2D@@0@Z	; C2DMatrix::Rotate

; 49   : 
; 50   : 	//and translate
; 51   : 	matTransform.Translate(pos.x, pos.y);

	mov	ecx, DWORD PTR _pos$[ebp]
	sub	esp, 8
	fld	QWORD PTR [ecx+8]
	fstp	QWORD PTR [esp]
	mov	edx, DWORD PTR _pos$[ebp]
	sub	esp, 8
	fld	QWORD PTR [edx]
	fstp	QWORD PTR [esp]
	lea	ecx, DWORD PTR _matTransform$[ebp]
	call	?Translate@C2DMatrix@@QAEXNN@Z		; C2DMatrix::Translate

; 52   : 	
; 53   :   //now transform the object's vertices
; 54   :   matTransform.TransformVector2Ds(TranVector2Ds);

	lea	eax, DWORD PTR _TranVector2Ds$[ebp]
	push	eax
	lea	ecx, DWORD PTR _matTransform$[ebp]
	call	?TransformVector2Ds@C2DMatrix@@QAEXAAV?$vector@UVector2D@@V?$allocator@UVector2D@@@std@@@std@@@Z ; C2DMatrix::TransformVector2Ds

; 55   : 
; 56   :   return TranVector2Ds;

	lea	ecx, DWORD PTR _TranVector2Ds$[ebp]
	push	ecx
	mov	ecx, DWORD PTR ___$ReturnUdt$[ebp]
	call	??0?$vector@UVector2D@@V?$allocator@UVector2D@@@std@@@std@@QAE@$$QAV01@@Z ; std::vector<Vector2D,std::allocator<Vector2D> >::vector<Vector2D,std::allocator<Vector2D> >
	mov	edx, DWORD PTR $T151752[ebp]
	or	edx, 1
	mov	DWORD PTR $T151752[ebp], edx
	mov	BYTE PTR __$EHRec$[ebp+8], 0
	lea	ecx, DWORD PTR _TranVector2Ds$[ebp]
	call	??1?$vector@UVector2D@@V?$allocator@UVector2D@@@std@@@std@@QAE@XZ ; std::vector<Vector2D,std::allocator<Vector2D> >::~vector<Vector2D,std::allocator<Vector2D> >
	mov	eax, DWORD PTR ___$ReturnUdt$[ebp]

; 57   : }

	push	edx
	mov	ecx, ebp
	push	eax
	lea	edx, DWORD PTR $LN12@WorldTrans
	call	@_RTC_CheckStackVars@8
	pop	eax
	pop	edx
	mov	ecx, DWORD PTR __$EHRec$[ebp]
	mov	DWORD PTR fs:0, ecx
	pop	ecx
	pop	edi
	add	esp, 124				; 0000007cH
	cmp	ebp, esp
	call	__RTC_CheckEsp
	mov	esp, ebp
	pop	ebp
	ret	0
	npad	3
$LN12@WorldTrans:
	DD	2
	DD	$LN11@WorldTrans
$LN11@WorldTrans:
	DD	-36					; ffffffdcH
	DD	20					; 00000014H
	DD	$LN8@WorldTrans
	DD	-116					; ffffff8cH
	DD	72					; 00000048H
	DD	$LN9@WorldTrans
$LN9@WorldTrans:
	DB	109					; 0000006dH
	DB	97					; 00000061H
	DB	116					; 00000074H
	DB	84					; 00000054H
	DB	114					; 00000072H
	DB	97					; 00000061H
	DB	110					; 0000006eH
	DB	115					; 00000073H
	DB	102					; 00000066H
	DB	111					; 0000006fH
	DB	114					; 00000072H
	DB	109					; 0000006dH
	DB	0
$LN8@WorldTrans:
	DB	84					; 00000054H
	DB	114					; 00000072H
	DB	97					; 00000061H
	DB	110					; 0000006eH
	DB	86					; 00000056H
	DB	101					; 00000065H
	DB	99					; 00000063H
	DB	116					; 00000074H
	DB	111					; 0000006fH
	DB	114					; 00000072H
	DB	50					; 00000032H
	DB	68					; 00000044H
	DB	115					; 00000073H
	DB	0
_TEXT	ENDS
;	COMDAT text$x
text$x	SEGMENT
__unwindfunclet$?WorldTransform@@YA?AV?$vector@UVector2D@@V?$allocator@UVector2D@@@std@@@std@@AAV12@ABUVector2D@@111@Z$0:
	lea	ecx, DWORD PTR _TranVector2Ds$[ebp]
	jmp	??1?$vector@UVector2D@@V?$allocator@UVector2D@@@std@@@std@@QAE@XZ ; std::vector<Vector2D,std::allocator<Vector2D> >::~vector<Vector2D,std::allocator<Vector2D> >
__unwindfunclet$?WorldTransform@@YA?AV?$vector@UVector2D@@V?$allocator@UVector2D@@@std@@@std@@AAV12@ABUVector2D@@111@Z$1:
	mov	eax, DWORD PTR $T151752[ebp]
	and	eax, 1
	je	$LN7@WorldTrans
	and	DWORD PTR $T151752[ebp], -2		; fffffffeH
	mov	ecx, DWORD PTR ___$ReturnUdt$[ebp]
	jmp	??1?$vector@UVector2D@@V?$allocator@UVector2D@@@std@@@std@@QAE@XZ ; std::vector<Vector2D,std::allocator<Vector2D> >::~vector<Vector2D,std::allocator<Vector2D> >
$LN7@WorldTrans:
	ret	0
__ehhandler$?WorldTransform@@YA?AV?$vector@UVector2D@@V?$allocator@UVector2D@@@std@@@std@@AAV12@ABUVector2D@@111@Z:
	mov	edx, DWORD PTR [esp+8]
	lea	eax, DWORD PTR [edx+12]
	mov	ecx, DWORD PTR [edx-120]
	xor	ecx, eax
	call	@__security_check_cookie@4
	mov	eax, OFFSET __ehfuncinfo$?WorldTransform@@YA?AV?$vector@UVector2D@@V?$allocator@UVector2D@@@std@@@std@@AAV12@ABUVector2D@@111@Z
	jmp	___CxxFrameHandler3
text$x	ENDS
?WorldTransform@@YA?AV?$vector@UVector2D@@V?$allocator@UVector2D@@@std@@@std@@AAV12@ABUVector2D@@111@Z ENDP ; WorldTransform
PUBLIC	?Identity@C2DMatrix@@QAEXXZ			; C2DMatrix::Identity
PUBLIC	??0Matrix@C2DMatrix@@QAE@XZ			; C2DMatrix::Matrix::Matrix
; Function compile flags: /Odtp /RTCsu
; File c:\users\teaja\documents\artificial-fun\labravenprojecttest\common\2d\c2dmatrix.h
;	COMDAT ??0C2DMatrix@@QAE@XZ
_TEXT	SEGMENT
_this$ = -4						; size = 4
??0C2DMatrix@@QAE@XZ PROC				; C2DMatrix::C2DMatrix, COMDAT
; _this$ = ecx

; 49   :   C2DMatrix()

	push	ebp
	mov	ebp, esp
	push	ecx
	mov	DWORD PTR [ebp-4], -858993460		; ccccccccH
	mov	DWORD PTR _this$[ebp], ecx
	mov	ecx, DWORD PTR _this$[ebp]
	call	??0Matrix@C2DMatrix@@QAE@XZ		; C2DMatrix::Matrix::Matrix

; 50   :   {
; 51   :     //initialize the matrix to an identity matrix
; 52   :     Identity();

	mov	ecx, DWORD PTR _this$[ebp]
	call	?Identity@C2DMatrix@@QAEXXZ		; C2DMatrix::Identity

; 53   :   }

	mov	eax, DWORD PTR _this$[ebp]
	add	esp, 4
	cmp	ebp, esp
	call	__RTC_CheckEsp
	mov	esp, ebp
	pop	ebp
	ret	0
??0C2DMatrix@@QAE@XZ ENDP				; C2DMatrix::C2DMatrix
; Function compile flags: /Odtp /RTCsu
_TEXT	ENDS
;	COMDAT ??0Matrix@C2DMatrix@@QAE@XZ
_TEXT	SEGMENT
_this$ = -4						; size = 4
??0Matrix@C2DMatrix@@QAE@XZ PROC			; C2DMatrix::Matrix::Matrix, COMDAT
; _this$ = ecx

; 32   :     Matrix()

	push	ebp
	mov	ebp, esp
	push	ecx
	mov	DWORD PTR [ebp-4], -858993460		; ccccccccH
	mov	DWORD PTR _this$[ebp], ecx

; 33   :     {
; 34   :       _11=0.0; _12=0.0; _13=0.0;

	mov	eax, DWORD PTR _this$[ebp]
	fldz
	fstp	QWORD PTR [eax]
	mov	ecx, DWORD PTR _this$[ebp]
	fldz
	fstp	QWORD PTR [ecx+8]
	mov	edx, DWORD PTR _this$[ebp]
	fldz
	fstp	QWORD PTR [edx+16]

; 35   :       _21=0.0; _22=0.0; _23=0.0;

	mov	eax, DWORD PTR _this$[ebp]
	fldz
	fstp	QWORD PTR [eax+24]
	mov	ecx, DWORD PTR _this$[ebp]
	fldz
	fstp	QWORD PTR [ecx+32]
	mov	edx, DWORD PTR _this$[ebp]
	fldz
	fstp	QWORD PTR [edx+40]

; 36   :       _31=0.0; _32=0.0; _33=0.0;

	mov	eax, DWORD PTR _this$[ebp]
	fldz
	fstp	QWORD PTR [eax+48]
	mov	ecx, DWORD PTR _this$[ebp]
	fldz
	fstp	QWORD PTR [ecx+56]
	mov	edx, DWORD PTR _this$[ebp]
	fldz
	fstp	QWORD PTR [edx+64]

; 37   :     }

	mov	eax, DWORD PTR _this$[ebp]
	mov	esp, ebp
	pop	ebp
	ret	0
??0Matrix@C2DMatrix@@QAE@XZ ENDP			; C2DMatrix::Matrix::Matrix
_TEXT	ENDS
PUBLIC	??A?$vector@UVector2D@@V?$allocator@UVector2D@@@std@@@std@@QAEAAUVector2D@@I@Z ; std::vector<Vector2D,std::allocator<Vector2D> >::operator[]
PUBLIC	?size@?$vector@UVector2D@@V?$allocator@UVector2D@@@std@@@std@@QBEIXZ ; std::vector<Vector2D,std::allocator<Vector2D> >::size
; Function compile flags: /Odtp /RTCsu
;	COMDAT ?TransformVector2Ds@C2DMatrix@@QAEXAAV?$vector@UVector2D@@V?$allocator@UVector2D@@@std@@@std@@@Z
_TEXT	SEGMENT
tv175 = -40						; size = 8
tv173 = -32						; size = 8
_tempY$128999 = -24					; size = 8
_tempX$128998 = -16					; size = 8
_i$128657 = -8						; size = 4
_this$ = -4						; size = 4
_vPoint$ = 8						; size = 4
?TransformVector2Ds@C2DMatrix@@QAEXAAV?$vector@UVector2D@@V?$allocator@UVector2D@@@std@@@std@@@Z PROC ; C2DMatrix::TransformVector2Ds, COMDAT
; _this$ = ecx

; 118  : {

